TMS320C2000 Assembler PC v6.4.2 Thu Dec 14 13:36:46 2017

Tools Copyright (c) 1996-2015 Texas Instruments Incorporated
config.asm                                                           PAGE    1

       1              ;***************************************************************
       2              ;* TMS320C2000 C/C++ Codegen                         PC v6.4.2 *
       3              ;* Date/Time created: Thu Dec 14 13:36:44 2017                 *
       4              ;***************************************************************
       5                      .compiler_opts --cla_support=cla0 --float_support=fpu32 --hll_source=on --mem_model:code=flat --mem_m
       6        0002  FP      .set    XAR2
       7              
       8              $C$DW$CU        .dwtag  DW_TAG_compile_unit
       9                      .dwattr $C$DW$CU, DW_AT_name("../motors/config.c")
      10                      .dwattr $C$DW$CU, DW_AT_producer("TI TMS320C2000 C/C++ Codegen PC v6.4.2 Copyright (c) 1996-2015 Texa
      11                      .dwattr $C$DW$CU, DW_AT_TI_version(0x01)
      12                      .dwattr $C$DW$CU, DW_AT_comp_dir("U:\02_MSE\MT\07_Software\CCS_workspace\DiffDrive_v0.93\F2837x_FLASH
      13              
      14              $C$DW$1 .dwtag  DW_TAG_subprogram, DW_AT_name("AdcSetMode")
      15                      .dwattr $C$DW$1, DW_AT_TI_symbol_name("_AdcSetMode")
      16                      .dwattr $C$DW$1, DW_AT_declaration
      17                      .dwattr $C$DW$1, DW_AT_external
      18              $C$DW$2 .dwtag  DW_TAG_formal_parameter
      19                      .dwattr $C$DW$2, DW_AT_type(*$C$DW$T$19)
      20              $C$DW$3 .dwtag  DW_TAG_formal_parameter
      21                      .dwattr $C$DW$3, DW_AT_type(*$C$DW$T$19)
      22              $C$DW$4 .dwtag  DW_TAG_formal_parameter
      23                      .dwattr $C$DW$4, DW_AT_type(*$C$DW$T$19)
      24                      .dwendtag $C$DW$1
      25              
      26              
      27              $C$DW$5 .dwtag  DW_TAG_subprogram, DW_AT_name("GPIO_SetupPinMux")
      28                      .dwattr $C$DW$5, DW_AT_TI_symbol_name("_GPIO_SetupPinMux")
      29                      .dwattr $C$DW$5, DW_AT_declaration
      30                      .dwattr $C$DW$5, DW_AT_external
      31              $C$DW$6 .dwtag  DW_TAG_formal_parameter
      32                      .dwattr $C$DW$6, DW_AT_type(*$C$DW$T$19)
      33              $C$DW$7 .dwtag  DW_TAG_formal_parameter
      34                      .dwattr $C$DW$7, DW_AT_type(*$C$DW$T$19)
      35              $C$DW$8 .dwtag  DW_TAG_formal_parameter
      36                      .dwattr $C$DW$8, DW_AT_type(*$C$DW$T$19)
      37                      .dwendtag $C$DW$5
      38              
      39              
      40              $C$DW$9 .dwtag  DW_TAG_subprogram, DW_AT_name("InitFlash_Bank0")
      41                      .dwattr $C$DW$9, DW_AT_TI_symbol_name("_InitFlash_Bank0")
      42                      .dwattr $C$DW$9, DW_AT_declaration
      43                      .dwattr $C$DW$9, DW_AT_external
      44              
      45              $C$DW$10        .dwtag  DW_TAG_subprogram, DW_AT_name("InitSysPll")
      46                      .dwattr $C$DW$10, DW_AT_TI_symbol_name("_InitSysPll")
      47                      .dwattr $C$DW$10, DW_AT_declaration
      48                      .dwattr $C$DW$10, DW_AT_external
      49              $C$DW$11        .dwtag  DW_TAG_formal_parameter
      50                      .dwattr $C$DW$11, DW_AT_type(*$C$DW$T$19)
      51              $C$DW$12        .dwtag  DW_TAG_formal_parameter
      52                      .dwattr $C$DW$12, DW_AT_type(*$C$DW$T$19)
      53              $C$DW$13        .dwtag  DW_TAG_formal_parameter
      54                      .dwattr $C$DW$13, DW_AT_type(*$C$DW$T$19)
      55              $C$DW$14        .dwtag  DW_TAG_formal_parameter
TMS320C2000 Assembler PC v6.4.2 Thu Dec 14 13:36:46 2017

Tools Copyright (c) 1996-2015 Texas Instruments Incorporated
config.asm                                                           PAGE    2

      56                      .dwattr $C$DW$14, DW_AT_type(*$C$DW$T$19)
      57                      .dwendtag $C$DW$10
      58              
      59              
      60              $C$DW$15        .dwtag  DW_TAG_subprogram, DW_AT_name("DisableDog")
      61                      .dwattr $C$DW$15, DW_AT_TI_symbol_name("_DisableDog")
      62                      .dwattr $C$DW$15, DW_AT_declaration
      63                      .dwattr $C$DW$15, DW_AT_external
      64              
      65              $C$DW$16        .dwtag  DW_TAG_subprogram, DW_AT_name("F28x_usDelay")
      66                      .dwattr $C$DW$16, DW_AT_TI_symbol_name("_F28x_usDelay")
      67                      .dwattr $C$DW$16, DW_AT_declaration
      68                      .dwattr $C$DW$16, DW_AT_external
      69              $C$DW$17        .dwtag  DW_TAG_formal_parameter
      70                      .dwattr $C$DW$17, DW_AT_type(*$C$DW$T$12)
      71                      .dwendtag $C$DW$16
      72              
      73              
      74              $C$DW$18        .dwtag  DW_TAG_subprogram, DW_AT_name("GPIO_WritePin")
      75                      .dwattr $C$DW$18, DW_AT_TI_symbol_name("_GPIO_WritePin")
      76                      .dwattr $C$DW$18, DW_AT_declaration
      77                      .dwattr $C$DW$18, DW_AT_external
      78              $C$DW$19        .dwtag  DW_TAG_formal_parameter
      79                      .dwattr $C$DW$19, DW_AT_type(*$C$DW$T$19)
      80              $C$DW$20        .dwtag  DW_TAG_formal_parameter
      81                      .dwattr $C$DW$20, DW_AT_type(*$C$DW$T$19)
      82                      .dwendtag $C$DW$18
      83              
      84              
      85              $C$DW$21        .dwtag  DW_TAG_subprogram, DW_AT_name("GPIO_SetupPinOptions")
      86                      .dwattr $C$DW$21, DW_AT_TI_symbol_name("_GPIO_SetupPinOptions")
      87                      .dwattr $C$DW$21, DW_AT_declaration
      88                      .dwattr $C$DW$21, DW_AT_external
      89              $C$DW$22        .dwtag  DW_TAG_formal_parameter
      90                      .dwattr $C$DW$22, DW_AT_type(*$C$DW$T$19)
      91              $C$DW$23        .dwtag  DW_TAG_formal_parameter
      92                      .dwattr $C$DW$23, DW_AT_type(*$C$DW$T$19)
      93              $C$DW$24        .dwtag  DW_TAG_formal_parameter
      94                      .dwattr $C$DW$24, DW_AT_type(*$C$DW$T$19)
      95                      .dwendtag $C$DW$21
      96              
      97              
      98              $C$DW$25        .dwtag  DW_TAG_subprogram, DW_AT_name("GPIO_EnableUnbondedIOPullups")
      99                      .dwattr $C$DW$25, DW_AT_TI_symbol_name("_GPIO_EnableUnbondedIOPullups")
     100                      .dwattr $C$DW$25, DW_AT_declaration
     101                      .dwattr $C$DW$25, DW_AT_external
     102              
     103              $C$DW$26        .dwtag  DW_TAG_subprogram, DW_AT_name("InitPeripheralClocks")
     104                      .dwattr $C$DW$26, DW_AT_TI_symbol_name("_InitPeripheralClocks")
     105                      .dwattr $C$DW$26, DW_AT_declaration
     106                      .dwattr $C$DW$26, DW_AT_external
     107              $C$DW$27        .dwtag  DW_TAG_variable, DW_AT_name("RamfuncsLoadSize")
     108                      .dwattr $C$DW$27, DW_AT_TI_symbol_name("_RamfuncsLoadSize")
     109                      .dwattr $C$DW$27, DW_AT_type(*$C$DW$T$19)
     110                      .dwattr $C$DW$27, DW_AT_declaration
TMS320C2000 Assembler PC v6.4.2 Thu Dec 14 13:36:46 2017

Tools Copyright (c) 1996-2015 Texas Instruments Incorporated
config.asm                                                           PAGE    3

     111                      .dwattr $C$DW$27, DW_AT_external
     112              $C$DW$28        .dwtag  DW_TAG_variable, DW_AT_name("RamfuncsLoadStart")
     113                      .dwattr $C$DW$28, DW_AT_TI_symbol_name("_RamfuncsLoadStart")
     114                      .dwattr $C$DW$28, DW_AT_type(*$C$DW$T$19)
     115                      .dwattr $C$DW$28, DW_AT_declaration
     116                      .dwattr $C$DW$28, DW_AT_external
     117              $C$DW$29        .dwtag  DW_TAG_variable, DW_AT_name("RamfuncsRunStart")
     118                      .dwattr $C$DW$29, DW_AT_TI_symbol_name("_RamfuncsRunStart")
     119                      .dwattr $C$DW$29, DW_AT_type(*$C$DW$T$19)
     120                      .dwattr $C$DW$29, DW_AT_declaration
     121                      .dwattr $C$DW$29, DW_AT_external
     122              
     123              $C$DW$30        .dwtag  DW_TAG_subprogram, DW_AT_name("memcpy")
     124                      .dwattr $C$DW$30, DW_AT_TI_symbol_name("_memcpy")
     125                      .dwattr $C$DW$30, DW_AT_type(*$C$DW$T$3)
     126                      .dwattr $C$DW$30, DW_AT_declaration
     127                      .dwattr $C$DW$30, DW_AT_external
     128              $C$DW$31        .dwtag  DW_TAG_formal_parameter
     129                      .dwattr $C$DW$31, DW_AT_type(*$C$DW$T$3)
     130              $C$DW$32        .dwtag  DW_TAG_formal_parameter
     131                      .dwattr $C$DW$32, DW_AT_type(*$C$DW$T$399)
     132              $C$DW$33        .dwtag  DW_TAG_formal_parameter
     133                      .dwattr $C$DW$33, DW_AT_type(*$C$DW$T$13)
     134                      .dwendtag $C$DW$30
     135              
     136              $C$DW$34        .dwtag  DW_TAG_variable, DW_AT_name("AnalogSubsysRegs")
     137                      .dwattr $C$DW$34, DW_AT_TI_symbol_name("_AnalogSubsysRegs")
     138                      .dwattr $C$DW$34, DW_AT_type(*$C$DW$T$368)
     139                      .dwattr $C$DW$34, DW_AT_declaration
     140                      .dwattr $C$DW$34, DW_AT_external
     141              $C$DW$35        .dwtag  DW_TAG_variable, DW_AT_name("AdcbRegs")
     142                      .dwattr $C$DW$35, DW_AT_TI_symbol_name("_AdcbRegs")
     143                      .dwattr $C$DW$35, DW_AT_type(*$C$DW$T$367)
     144                      .dwattr $C$DW$35, DW_AT_declaration
     145                      .dwattr $C$DW$35, DW_AT_external
     146              $C$DW$36        .dwtag  DW_TAG_variable, DW_AT_name("AdcaRegs")
     147                      .dwattr $C$DW$36, DW_AT_TI_symbol_name("_AdcaRegs")
     148                      .dwattr $C$DW$36, DW_AT_type(*$C$DW$T$367)
     149                      .dwattr $C$DW$36, DW_AT_declaration
     150                      .dwattr $C$DW$36, DW_AT_external
     151              $C$DW$37        .dwtag  DW_TAG_variable, DW_AT_name("CpuSysRegs")
     152                      .dwattr $C$DW$37, DW_AT_TI_symbol_name("_CpuSysRegs")
     153                      .dwattr $C$DW$37, DW_AT_type(*$C$DW$T$379)
     154                      .dwattr $C$DW$37, DW_AT_declaration
     155                      .dwattr $C$DW$37, DW_AT_external
     156              ;       C:\ti\ccsv6\tools\compiler\ti-cgt-c2000_6.4.2\bin\ac2000.exe -@C:\\Users\\ficm\\AppData\\Local\\Temp\
     157 00000000               .sect   ".text"
     158                      .clink
     159                      .global _InitMotor1EPwmGpio
     160              
     161              $C$DW$38        .dwtag  DW_TAG_subprogram, DW_AT_name("InitMotor1EPwmGpio")
     162                      .dwattr $C$DW$38, DW_AT_low_pc(_InitMotor1EPwmGpio)
     163                      .dwattr $C$DW$38, DW_AT_high_pc(0x00)
     164                      .dwattr $C$DW$38, DW_AT_TI_symbol_name("_InitMotor1EPwmGpio")
     165                      .dwattr $C$DW$38, DW_AT_external
TMS320C2000 Assembler PC v6.4.2 Thu Dec 14 13:36:46 2017

Tools Copyright (c) 1996-2015 Texas Instruments Incorporated
config.asm                                                           PAGE    4

     166                      .dwattr $C$DW$38, DW_AT_TI_begin_file("../motors/config.c")
     167                      .dwattr $C$DW$38, DW_AT_TI_begin_line(0x23)
     168                      .dwattr $C$DW$38, DW_AT_TI_begin_column(0x06)
     169                      .dwattr $C$DW$38, DW_AT_TI_max_frame_size(-2)
     170                      .dwpsn  file "../motors/config.c",line 36,column 1,is_stmt,address _InitMotor1EPwmGpio,isa 0
     171              
     172                      .dwfde $C$DW$CIE, _InitMotor1EPwmGpio
     173              
     174              ;***************************************************************
     175              ;* FNAME: _InitMotor1EPwmGpio           FR SIZE:   0           *
     176              ;*                                                             *
     177              ;* FUNCTION ENVIRONMENT                                        *
     178              ;*                                                             *
     179              ;* FUNCTION PROPERTIES                                         *
     180              ;*                            0 Parameter,  0 Auto,  0 SOE     *
     181              ;***************************************************************
     182              
     183 00000000       _InitMotor1EPwmGpio:
     184                      .dwcfi  cfa_offset, -2
     185                      .dwcfi  save_reg_to_mem, 26, 0
     186                      .dwpsn  file "../motors/config.c",line 38,column 2,is_stmt,isa 0
     187 00000000 9A0C          MOVB      AL,#12                ; [CPU_] |38| 
     188 00000001 D401          MOVB      XAR4,#1               ; [CPU_] |38| 
     189 00000002 9B01          MOVB      AH,#1                 ; [CPU_] |38| 
     190              $C$DW$39        .dwtag  DW_TAG_TI_branch
     191                      .dwattr $C$DW$39, DW_AT_low_pc(0x00)
     192                      .dwattr $C$DW$39, DW_AT_name("_GPIO_SetupPinOptions")
     193                      .dwattr $C$DW$39, DW_AT_TI_call
     194 00000003 7640!         LCR       #_GPIO_SetupPinOptions ; [CPU_] |38| 
         00000004 0000 
     195                      ; call occurs [#_GPIO_SetupPinOptions] ; [] |38| 
     196                      .dwpsn  file "../motors/config.c",line 39,column 2,is_stmt,isa 0
     197 00000005 D401          MOVB      XAR4,#1               ; [CPU_] |39| 
     198 00000006 9A0C          MOVB      AL,#12                ; [CPU_] |39| 
     199 00000007 9B00          MOVB      AH,#0                 ; [CPU_] |39| 
     200              $C$DW$40        .dwtag  DW_TAG_TI_branch
     201                      .dwattr $C$DW$40, DW_AT_low_pc(0x00)
     202                      .dwattr $C$DW$40, DW_AT_name("_GPIO_SetupPinMux")
     203                      .dwattr $C$DW$40, DW_AT_TI_call
     204 00000008 7640!         LCR       #_GPIO_SetupPinMux    ; [CPU_] |39| 
         00000009 0000 
     205                      ; call occurs [#_GPIO_SetupPinMux] ; [] |39| 
     206                      .dwpsn  file "../motors/config.c",line 42,column 2,is_stmt,isa 0
     207 0000000a D401          MOVB      XAR4,#1               ; [CPU_] |42| 
     208 0000000b 9A0E          MOVB      AL,#14                ; [CPU_] |42| 
     209 0000000c 9B01          MOVB      AH,#1                 ; [CPU_] |42| 
     210              $C$DW$41        .dwtag  DW_TAG_TI_branch
     211                      .dwattr $C$DW$41, DW_AT_low_pc(0x00)
     212                      .dwattr $C$DW$41, DW_AT_name("_GPIO_SetupPinOptions")
     213                      .dwattr $C$DW$41, DW_AT_TI_call
     214 0000000d 7640!         LCR       #_GPIO_SetupPinOptions ; [CPU_] |42| 
         0000000e 0000 
     215                      ; call occurs [#_GPIO_SetupPinOptions] ; [] |42| 
     216                      .dwpsn  file "../motors/config.c",line 43,column 2,is_stmt,isa 0
     217 0000000f D401          MOVB      XAR4,#1               ; [CPU_] |43| 
TMS320C2000 Assembler PC v6.4.2 Thu Dec 14 13:36:46 2017

Tools Copyright (c) 1996-2015 Texas Instruments Incorporated
config.asm                                                           PAGE    5

     218 00000010 9A0E          MOVB      AL,#14                ; [CPU_] |43| 
     219 00000011 9B00          MOVB      AH,#0                 ; [CPU_] |43| 
     220              $C$DW$42        .dwtag  DW_TAG_TI_branch
     221                      .dwattr $C$DW$42, DW_AT_low_pc(0x00)
     222                      .dwattr $C$DW$42, DW_AT_name("_GPIO_SetupPinMux")
     223                      .dwattr $C$DW$42, DW_AT_TI_call
     224 00000012 7640!         LCR       #_GPIO_SetupPinMux    ; [CPU_] |43| 
         00000013 0000 
     225                      ; call occurs [#_GPIO_SetupPinMux] ; [] |43| 
     226                      .dwpsn  file "../motors/config.c",line 46,column 2,is_stmt,isa 0
     227 00000014 D401          MOVB      XAR4,#1               ; [CPU_] |46| 
     228 00000015 9A10          MOVB      AL,#16                ; [CPU_] |46| 
     229 00000016 9B01          MOVB      AH,#1                 ; [CPU_] |46| 
     230              $C$DW$43        .dwtag  DW_TAG_TI_branch
     231                      .dwattr $C$DW$43, DW_AT_low_pc(0x00)
     232                      .dwattr $C$DW$43, DW_AT_name("_GPIO_SetupPinOptions")
     233                      .dwattr $C$DW$43, DW_AT_TI_call
     234 00000017 7640!         LCR       #_GPIO_SetupPinOptions ; [CPU_] |46| 
         00000018 0000 
     235                      ; call occurs [#_GPIO_SetupPinOptions] ; [] |46| 
     236                      .dwpsn  file "../motors/config.c",line 47,column 2,is_stmt,isa 0
     237 00000019 D405          MOVB      XAR4,#5               ; [CPU_] |47| 
     238 0000001a 9A10          MOVB      AL,#16                ; [CPU_] |47| 
     239 0000001b 9B00          MOVB      AH,#0                 ; [CPU_] |47| 
     240              $C$DW$44        .dwtag  DW_TAG_TI_branch
     241                      .dwattr $C$DW$44, DW_AT_low_pc(0x00)
     242                      .dwattr $C$DW$44, DW_AT_name("_GPIO_SetupPinMux")
     243                      .dwattr $C$DW$44, DW_AT_TI_call
     244 0000001c 7640!         LCR       #_GPIO_SetupPinMux    ; [CPU_] |47| 
         0000001d 0000 
     245                      ; call occurs [#_GPIO_SetupPinMux] ; [] |47| 
     246                      .dwpsn  file "../motors/config.c",line 49,column 2,is_stmt,isa 0
     247                      .dwpsn  file "../motors/config.c",line 50,column 1,is_stmt,isa 0
     248              $C$DW$45        .dwtag  DW_TAG_TI_branch
     249                      .dwattr $C$DW$45, DW_AT_low_pc(0x00)
     250                      .dwattr $C$DW$45, DW_AT_TI_return
     251 0000001e 0006          LRETR     ; [CPU_] 
     252                      ; return occurs ; [] 
     253                      .dwattr $C$DW$38, DW_AT_TI_end_file("../motors/config.c")
     254                      .dwattr $C$DW$38, DW_AT_TI_end_line(0x32)
     255                      .dwattr $C$DW$38, DW_AT_TI_end_column(0x01)
     256                      .dwendentry
     257                      .dwendtag $C$DW$38
     258              
     259 0000001f               .sect   ".text"
     260                      .clink
     261                      .global _InitMotor2EPwmGpio
     262              
     263              $C$DW$46        .dwtag  DW_TAG_subprogram, DW_AT_name("InitMotor2EPwmGpio")
     264                      .dwattr $C$DW$46, DW_AT_low_pc(_InitMotor2EPwmGpio)
     265                      .dwattr $C$DW$46, DW_AT_high_pc(0x00)
     266                      .dwattr $C$DW$46, DW_AT_TI_symbol_name("_InitMotor2EPwmGpio")
     267                      .dwattr $C$DW$46, DW_AT_external
     268                      .dwattr $C$DW$46, DW_AT_TI_begin_file("../motors/config.c")
     269                      .dwattr $C$DW$46, DW_AT_TI_begin_line(0x34)
TMS320C2000 Assembler PC v6.4.2 Thu Dec 14 13:36:46 2017

Tools Copyright (c) 1996-2015 Texas Instruments Incorporated
config.asm                                                           PAGE    6

     270                      .dwattr $C$DW$46, DW_AT_TI_begin_column(0x06)
     271                      .dwattr $C$DW$46, DW_AT_TI_max_frame_size(-2)
     272                      .dwpsn  file "../motors/config.c",line 53,column 1,is_stmt,address _InitMotor2EPwmGpio,isa 0
     273              
     274                      .dwfde $C$DW$CIE, _InitMotor2EPwmGpio
     275              
     276              ;***************************************************************
     277              ;* FNAME: _InitMotor2EPwmGpio           FR SIZE:   0           *
     278              ;*                                                             *
     279              ;* FUNCTION ENVIRONMENT                                        *
     280              ;*                                                             *
     281              ;* FUNCTION PROPERTIES                                         *
     282              ;*                            0 Parameter,  0 Auto,  0 SOE     *
     283              ;***************************************************************
     284              
     285 0000001f       _InitMotor2EPwmGpio:
     286                      .dwcfi  cfa_offset, -2
     287                      .dwcfi  save_reg_to_mem, 26, 0
     288                      .dwpsn  file "../motors/config.c",line 55,column 2,is_stmt,isa 0
     289 0000001f 9A02          MOVB      AL,#2                 ; [CPU_] |55| 
     290 00000020 D401          MOVB      XAR4,#1               ; [CPU_] |55| 
     291 00000021 9B01          MOVB      AH,#1                 ; [CPU_] |55| 
     292              $C$DW$47        .dwtag  DW_TAG_TI_branch
     293                      .dwattr $C$DW$47, DW_AT_low_pc(0x00)
     294                      .dwattr $C$DW$47, DW_AT_name("_GPIO_SetupPinOptions")
     295                      .dwattr $C$DW$47, DW_AT_TI_call
     296 00000022 7640!         LCR       #_GPIO_SetupPinOptions ; [CPU_] |55| 
         00000023 0000 
     297                      ; call occurs [#_GPIO_SetupPinOptions] ; [] |55| 
     298                      .dwpsn  file "../motors/config.c",line 56,column 2,is_stmt,isa 0
     299 00000024 D401          MOVB      XAR4,#1               ; [CPU_] |56| 
     300 00000025 9A02          MOVB      AL,#2                 ; [CPU_] |56| 
     301 00000026 9B00          MOVB      AH,#0                 ; [CPU_] |56| 
     302              $C$DW$48        .dwtag  DW_TAG_TI_branch
     303                      .dwattr $C$DW$48, DW_AT_low_pc(0x00)
     304                      .dwattr $C$DW$48, DW_AT_name("_GPIO_SetupPinMux")
     305                      .dwattr $C$DW$48, DW_AT_TI_call
     306 00000027 7640!         LCR       #_GPIO_SetupPinMux    ; [CPU_] |56| 
         00000028 0000 
     307                      ; call occurs [#_GPIO_SetupPinMux] ; [] |56| 
     308                      .dwpsn  file "../motors/config.c",line 59,column 2,is_stmt,isa 0
     309 00000029 D401          MOVB      XAR4,#1               ; [CPU_] |59| 
     310 0000002a 9A0A          MOVB      AL,#10                ; [CPU_] |59| 
     311 0000002b 9B01          MOVB      AH,#1                 ; [CPU_] |59| 
     312              $C$DW$49        .dwtag  DW_TAG_TI_branch
     313                      .dwattr $C$DW$49, DW_AT_low_pc(0x00)
     314                      .dwattr $C$DW$49, DW_AT_name("_GPIO_SetupPinOptions")
     315                      .dwattr $C$DW$49, DW_AT_TI_call
     316 0000002c 7640!         LCR       #_GPIO_SetupPinOptions ; [CPU_] |59| 
         0000002d 0000 
     317                      ; call occurs [#_GPIO_SetupPinOptions] ; [] |59| 
     318                      .dwpsn  file "../motors/config.c",line 60,column 2,is_stmt,isa 0
     319 0000002e D401          MOVB      XAR4,#1               ; [CPU_] |60| 
     320 0000002f 9A0A          MOVB      AL,#10                ; [CPU_] |60| 
     321 00000030 9B00          MOVB      AH,#0                 ; [CPU_] |60| 
TMS320C2000 Assembler PC v6.4.2 Thu Dec 14 13:36:46 2017

Tools Copyright (c) 1996-2015 Texas Instruments Incorporated
config.asm                                                           PAGE    7

     322              $C$DW$50        .dwtag  DW_TAG_TI_branch
     323                      .dwattr $C$DW$50, DW_AT_low_pc(0x00)
     324                      .dwattr $C$DW$50, DW_AT_name("_GPIO_SetupPinMux")
     325                      .dwattr $C$DW$50, DW_AT_TI_call
     326 00000031 7640!         LCR       #_GPIO_SetupPinMux    ; [CPU_] |60| 
         00000032 0000 
     327                      ; call occurs [#_GPIO_SetupPinMux] ; [] |60| 
     328                      .dwpsn  file "../motors/config.c",line 63,column 2,is_stmt,isa 0
     329 00000033 D401          MOVB      XAR4,#1               ; [CPU_] |63| 
     330 00000034 9A12          MOVB      AL,#18                ; [CPU_] |63| 
     331 00000035 9B01          MOVB      AH,#1                 ; [CPU_] |63| 
     332              $C$DW$51        .dwtag  DW_TAG_TI_branch
     333                      .dwattr $C$DW$51, DW_AT_low_pc(0x00)
     334                      .dwattr $C$DW$51, DW_AT_name("_GPIO_SetupPinOptions")
     335                      .dwattr $C$DW$51, DW_AT_TI_call
     336 00000036 7640!         LCR       #_GPIO_SetupPinOptions ; [CPU_] |63| 
         00000037 0000 
     337                      ; call occurs [#_GPIO_SetupPinOptions] ; [] |63| 
     338                      .dwpsn  file "../motors/config.c",line 64,column 2,is_stmt,isa 0
     339 00000038 D405          MOVB      XAR4,#5               ; [CPU_] |64| 
     340 00000039 9A12          MOVB      AL,#18                ; [CPU_] |64| 
     341 0000003a 9B00          MOVB      AH,#0                 ; [CPU_] |64| 
     342              $C$DW$52        .dwtag  DW_TAG_TI_branch
     343                      .dwattr $C$DW$52, DW_AT_low_pc(0x00)
     344                      .dwattr $C$DW$52, DW_AT_name("_GPIO_SetupPinMux")
     345                      .dwattr $C$DW$52, DW_AT_TI_call
     346 0000003b 7640!         LCR       #_GPIO_SetupPinMux    ; [CPU_] |64| 
         0000003c 0000 
     347                      ; call occurs [#_GPIO_SetupPinMux] ; [] |64| 
     348                      .dwpsn  file "../motors/config.c",line 66,column 2,is_stmt,isa 0
     349                      .dwpsn  file "../motors/config.c",line 67,column 1,is_stmt,isa 0
     350              $C$DW$53        .dwtag  DW_TAG_TI_branch
     351                      .dwattr $C$DW$53, DW_AT_low_pc(0x00)
     352                      .dwattr $C$DW$53, DW_AT_TI_return
     353 0000003d 0006          LRETR     ; [CPU_] 
     354                      ; return occurs ; [] 
     355                      .dwattr $C$DW$46, DW_AT_TI_end_file("../motors/config.c")
     356                      .dwattr $C$DW$46, DW_AT_TI_end_line(0x43)
     357                      .dwattr $C$DW$46, DW_AT_TI_end_column(0x01)
     358                      .dwendentry
     359                      .dwendtag $C$DW$46
     360              
     361 0000003e               .sect   ".text"
     362                      .clink
     363                      .global _InitMotor1EQepGpio
     364              
     365              $C$DW$54        .dwtag  DW_TAG_subprogram, DW_AT_name("InitMotor1EQepGpio")
     366                      .dwattr $C$DW$54, DW_AT_low_pc(_InitMotor1EQepGpio)
     367                      .dwattr $C$DW$54, DW_AT_high_pc(0x00)
     368                      .dwattr $C$DW$54, DW_AT_TI_symbol_name("_InitMotor1EQepGpio")
     369                      .dwattr $C$DW$54, DW_AT_external
     370                      .dwattr $C$DW$54, DW_AT_TI_begin_file("../motors/config.c")
     371                      .dwattr $C$DW$54, DW_AT_TI_begin_line(0x4c)
     372                      .dwattr $C$DW$54, DW_AT_TI_begin_column(0x06)
     373                      .dwattr $C$DW$54, DW_AT_TI_max_frame_size(-2)
TMS320C2000 Assembler PC v6.4.2 Thu Dec 14 13:36:46 2017

Tools Copyright (c) 1996-2015 Texas Instruments Incorporated
config.asm                                                           PAGE    8

     374                      .dwpsn  file "../motors/config.c",line 77,column 1,is_stmt,address _InitMotor1EQepGpio,isa 0
     375              
     376                      .dwfde $C$DW$CIE, _InitMotor1EQepGpio
     377              
     378              ;***************************************************************
     379              ;* FNAME: _InitMotor1EQepGpio           FR SIZE:   0           *
     380              ;*                                                             *
     381              ;* FUNCTION ENVIRONMENT                                        *
     382              ;*                                                             *
     383              ;* FUNCTION PROPERTIES                                         *
     384              ;*                            0 Parameter,  0 Auto,  0 SOE     *
     385              ;***************************************************************
     386              
     387 0000003e       _InitMotor1EQepGpio:
     388                      .dwcfi  cfa_offset, -2
     389                      .dwcfi  save_reg_to_mem, 26, 0
     390                      .dwpsn  file "../motors/config.c",line 79,column 2,is_stmt,isa 0
     391 0000003e 9A3E          MOVB      AL,#62                ; [CPU_] |79| 
     392 0000003f D400          MOVB      XAR4,#0               ; [CPU_] |79| 
     393 00000040 9B00          MOVB      AH,#0                 ; [CPU_] |79| 
     394              $C$DW$55        .dwtag  DW_TAG_TI_branch
     395                      .dwattr $C$DW$55, DW_AT_low_pc(0x00)
     396                      .dwattr $C$DW$55, DW_AT_name("_GPIO_SetupPinOptions")
     397                      .dwattr $C$DW$55, DW_AT_TI_call
     398 00000041 7640!         LCR       #_GPIO_SetupPinOptions ; [CPU_] |79| 
         00000042 0000 
     399                      ; call occurs [#_GPIO_SetupPinOptions] ; [] |79| 
     400                      .dwpsn  file "../motors/config.c",line 80,column 2,is_stmt,isa 0
     401 00000043 D405          MOVB      XAR4,#5               ; [CPU_] |80| 
     402 00000044 9A3E          MOVB      AL,#62                ; [CPU_] |80| 
     403 00000045 9B00          MOVB      AH,#0                 ; [CPU_] |80| 
     404              $C$DW$56        .dwtag  DW_TAG_TI_branch
     405                      .dwattr $C$DW$56, DW_AT_low_pc(0x00)
     406                      .dwattr $C$DW$56, DW_AT_name("_GPIO_SetupPinMux")
     407                      .dwattr $C$DW$56, DW_AT_TI_call
     408 00000046 7640!         LCR       #_GPIO_SetupPinMux    ; [CPU_] |80| 
         00000047 0000 
     409                      ; call occurs [#_GPIO_SetupPinMux] ; [] |80| 
     410                      .dwpsn  file "../motors/config.c",line 83,column 2,is_stmt,isa 0
     411 00000048 9A3F          MOVB      AL,#63                ; [CPU_] |83| 
     412 00000049 D400          MOVB      XAR4,#0               ; [CPU_] |83| 
     413 0000004a 9B00          MOVB      AH,#0                 ; [CPU_] |83| 
     414              $C$DW$57        .dwtag  DW_TAG_TI_branch
     415                      .dwattr $C$DW$57, DW_AT_low_pc(0x00)
     416                      .dwattr $C$DW$57, DW_AT_name("_GPIO_SetupPinOptions")
     417                      .dwattr $C$DW$57, DW_AT_TI_call
     418 0000004b 7640!         LCR       #_GPIO_SetupPinOptions ; [CPU_] |83| 
         0000004c 0000 
     419                      ; call occurs [#_GPIO_SetupPinOptions] ; [] |83| 
     420                      .dwpsn  file "../motors/config.c",line 84,column 2,is_stmt,isa 0
     421 0000004d D405          MOVB      XAR4,#5               ; [CPU_] |84| 
     422 0000004e 9A3F          MOVB      AL,#63                ; [CPU_] |84| 
     423 0000004f 9B00          MOVB      AH,#0                 ; [CPU_] |84| 
     424              $C$DW$58        .dwtag  DW_TAG_TI_branch
     425                      .dwattr $C$DW$58, DW_AT_low_pc(0x00)
TMS320C2000 Assembler PC v6.4.2 Thu Dec 14 13:36:46 2017

Tools Copyright (c) 1996-2015 Texas Instruments Incorporated
config.asm                                                           PAGE    9

     426                      .dwattr $C$DW$58, DW_AT_name("_GPIO_SetupPinMux")
     427                      .dwattr $C$DW$58, DW_AT_TI_call
     428 00000050 7640!         LCR       #_GPIO_SetupPinMux    ; [CPU_] |84| 
         00000051 0000 
     429                      ; call occurs [#_GPIO_SetupPinMux] ; [] |84| 
     430                      .dwpsn  file "../motors/config.c",line 90,column 2,is_stmt,isa 0
     431                      .dwpsn  file "../motors/config.c",line 91,column 1,is_stmt,isa 0
     432              $C$DW$59        .dwtag  DW_TAG_TI_branch
     433                      .dwattr $C$DW$59, DW_AT_low_pc(0x00)
     434                      .dwattr $C$DW$59, DW_AT_TI_return
     435 00000052 0006          LRETR     ; [CPU_] 
     436                      ; return occurs ; [] 
     437                      .dwattr $C$DW$54, DW_AT_TI_end_file("../motors/config.c")
     438                      .dwattr $C$DW$54, DW_AT_TI_end_line(0x5b)
     439                      .dwattr $C$DW$54, DW_AT_TI_end_column(0x01)
     440                      .dwendentry
     441                      .dwendtag $C$DW$54
     442              
     443 00000053               .sect   ".text"
     444                      .clink
     445                      .global _InitMotor2EQepGpio
     446              
     447              $C$DW$60        .dwtag  DW_TAG_subprogram, DW_AT_name("InitMotor2EQepGpio")
     448                      .dwattr $C$DW$60, DW_AT_low_pc(_InitMotor2EQepGpio)
     449                      .dwattr $C$DW$60, DW_AT_high_pc(0x00)
     450                      .dwattr $C$DW$60, DW_AT_TI_symbol_name("_InitMotor2EQepGpio")
     451                      .dwattr $C$DW$60, DW_AT_external
     452                      .dwattr $C$DW$60, DW_AT_TI_begin_file("../motors/config.c")
     453                      .dwattr $C$DW$60, DW_AT_TI_begin_line(0x5d)
     454                      .dwattr $C$DW$60, DW_AT_TI_begin_column(0x06)
     455                      .dwattr $C$DW$60, DW_AT_TI_max_frame_size(-2)
     456                      .dwpsn  file "../motors/config.c",line 94,column 1,is_stmt,address _InitMotor2EQepGpio,isa 0
     457              
     458                      .dwfde $C$DW$CIE, _InitMotor2EQepGpio
     459              
     460              ;***************************************************************
     461              ;* FNAME: _InitMotor2EQepGpio           FR SIZE:   0           *
     462              ;*                                                             *
     463              ;* FUNCTION ENVIRONMENT                                        *
     464              ;*                                                             *
     465              ;* FUNCTION PROPERTIES                                         *
     466              ;*                            0 Parameter,  0 Auto,  0 SOE     *
     467              ;***************************************************************
     468              
     469 00000053       _InitMotor2EQepGpio:
     470                      .dwcfi  cfa_offset, -2
     471                      .dwcfi  save_reg_to_mem, 26, 0
     472                      .dwpsn  file "../motors/config.c",line 96,column 2,is_stmt,isa 0
     473 00000053 9A14          MOVB      AL,#20                ; [CPU_] |96| 
     474 00000054 D400          MOVB      XAR4,#0               ; [CPU_] |96| 
     475 00000055 9B00          MOVB      AH,#0                 ; [CPU_] |96| 
     476              $C$DW$61        .dwtag  DW_TAG_TI_branch
     477                      .dwattr $C$DW$61, DW_AT_low_pc(0x00)
     478                      .dwattr $C$DW$61, DW_AT_name("_GPIO_SetupPinOptions")
     479                      .dwattr $C$DW$61, DW_AT_TI_call
TMS320C2000 Assembler PC v6.4.2 Thu Dec 14 13:36:46 2017

Tools Copyright (c) 1996-2015 Texas Instruments Incorporated
config.asm                                                           PAGE   10

     480 00000056 7640!         LCR       #_GPIO_SetupPinOptions ; [CPU_] |96| 
         00000057 0000 
     481                      ; call occurs [#_GPIO_SetupPinOptions] ; [] |96| 
     482                      .dwpsn  file "../motors/config.c",line 97,column 2,is_stmt,isa 0
     483 00000058 D401          MOVB      XAR4,#1               ; [CPU_] |97| 
     484 00000059 9A14          MOVB      AL,#20                ; [CPU_] |97| 
     485 0000005a 9B00          MOVB      AH,#0                 ; [CPU_] |97| 
     486              $C$DW$62        .dwtag  DW_TAG_TI_branch
     487                      .dwattr $C$DW$62, DW_AT_low_pc(0x00)
     488                      .dwattr $C$DW$62, DW_AT_name("_GPIO_SetupPinMux")
     489                      .dwattr $C$DW$62, DW_AT_TI_call
     490 0000005b 7640!         LCR       #_GPIO_SetupPinMux    ; [CPU_] |97| 
         0000005c 0000 
     491                      ; call occurs [#_GPIO_SetupPinMux] ; [] |97| 
     492                      .dwpsn  file "../motors/config.c",line 100,column 2,is_stmt,isa 0
     493 0000005d 9A15          MOVB      AL,#21                ; [CPU_] |100| 
     494 0000005e D400          MOVB      XAR4,#0               ; [CPU_] |100| 
     495 0000005f 9B00          MOVB      AH,#0                 ; [CPU_] |100| 
     496              $C$DW$63        .dwtag  DW_TAG_TI_branch
     497                      .dwattr $C$DW$63, DW_AT_low_pc(0x00)
     498                      .dwattr $C$DW$63, DW_AT_name("_GPIO_SetupPinOptions")
     499                      .dwattr $C$DW$63, DW_AT_TI_call
     500 00000060 7640!         LCR       #_GPIO_SetupPinOptions ; [CPU_] |100| 
         00000061 0000 
     501                      ; call occurs [#_GPIO_SetupPinOptions] ; [] |100| 
     502                      .dwpsn  file "../motors/config.c",line 101,column 2,is_stmt,isa 0
     503 00000062 D401          MOVB      XAR4,#1               ; [CPU_] |101| 
     504 00000063 9A15          MOVB      AL,#21                ; [CPU_] |101| 
     505 00000064 9B00          MOVB      AH,#0                 ; [CPU_] |101| 
     506              $C$DW$64        .dwtag  DW_TAG_TI_branch
     507                      .dwattr $C$DW$64, DW_AT_low_pc(0x00)
     508                      .dwattr $C$DW$64, DW_AT_name("_GPIO_SetupPinMux")
     509                      .dwattr $C$DW$64, DW_AT_TI_call
     510 00000065 7640!         LCR       #_GPIO_SetupPinMux    ; [CPU_] |101| 
         00000066 0000 
     511                      ; call occurs [#_GPIO_SetupPinMux] ; [] |101| 
     512                      .dwpsn  file "../motors/config.c",line 107,column 2,is_stmt,isa 0
     513                      .dwpsn  file "../motors/config.c",line 108,column 1,is_stmt,isa 0
     514              $C$DW$65        .dwtag  DW_TAG_TI_branch
     515                      .dwattr $C$DW$65, DW_AT_low_pc(0x00)
     516                      .dwattr $C$DW$65, DW_AT_TI_return
     517 00000067 0006          LRETR     ; [CPU_] 
     518                      ; return occurs ; [] 
     519                      .dwattr $C$DW$60, DW_AT_TI_end_file("../motors/config.c")
     520                      .dwattr $C$DW$60, DW_AT_TI_end_line(0x6c)
     521                      .dwattr $C$DW$60, DW_AT_TI_end_column(0x01)
     522                      .dwendentry
     523                      .dwendtag $C$DW$60
     524              
     525 00000068               .sect   ".text"
     526                      .clink
     527                      .global _InitMotor1SpiGpio
     528              
     529              $C$DW$66        .dwtag  DW_TAG_subprogram, DW_AT_name("InitMotor1SpiGpio")
     530                      .dwattr $C$DW$66, DW_AT_low_pc(_InitMotor1SpiGpio)
TMS320C2000 Assembler PC v6.4.2 Thu Dec 14 13:36:46 2017

Tools Copyright (c) 1996-2015 Texas Instruments Incorporated
config.asm                                                           PAGE   11

     531                      .dwattr $C$DW$66, DW_AT_high_pc(0x00)
     532                      .dwattr $C$DW$66, DW_AT_TI_symbol_name("_InitMotor1SpiGpio")
     533                      .dwattr $C$DW$66, DW_AT_external
     534                      .dwattr $C$DW$66, DW_AT_TI_begin_file("../motors/config.c")
     535                      .dwattr $C$DW$66, DW_AT_TI_begin_line(0x73)
     536                      .dwattr $C$DW$66, DW_AT_TI_begin_column(0x06)
     537                      .dwattr $C$DW$66, DW_AT_TI_max_frame_size(-2)
     538                      .dwpsn  file "../motors/config.c",line 116,column 1,is_stmt,address _InitMotor1SpiGpio,isa 0
     539              
     540                      .dwfde $C$DW$CIE, _InitMotor1SpiGpio
     541              
     542              ;***************************************************************
     543              ;* FNAME: _InitMotor1SpiGpio            FR SIZE:   0           *
     544              ;*                                                             *
     545              ;* FUNCTION ENVIRONMENT                                        *
     546              ;*                                                             *
     547              ;* FUNCTION PROPERTIES                                         *
     548              ;*                            0 Parameter,  0 Auto,  0 SOE     *
     549              ;***************************************************************
     550              
     551 00000068       _InitMotor1SpiGpio:
     552                      .dwcfi  cfa_offset, -2
     553                      .dwcfi  save_reg_to_mem, 26, 0
     554                      .dwpsn  file "../motors/config.c",line 118,column 2,is_stmt,isa 0
     555 00000068 9A3A          MOVB      AL,#58                ; [CPU_] |118| 
     556 00000069 D430          MOVB      XAR4,#48              ; [CPU_] |118| 
     557 0000006a 9B00          MOVB      AH,#0                 ; [CPU_] |118| 
     558              $C$DW$67        .dwtag  DW_TAG_TI_branch
     559                      .dwattr $C$DW$67, DW_AT_low_pc(0x00)
     560                      .dwattr $C$DW$67, DW_AT_name("_GPIO_SetupPinOptions")
     561                      .dwattr $C$DW$67, DW_AT_TI_call
     562 0000006b 7640!         LCR       #_GPIO_SetupPinOptions ; [CPU_] |118| 
         0000006c 0000 
     563                      ; call occurs [#_GPIO_SetupPinOptions] ; [] |118| 
     564                      .dwpsn  file "../motors/config.c",line 119,column 2,is_stmt,isa 0
     565 0000006d D40F          MOVB      XAR4,#15              ; [CPU_] |119| 
     566 0000006e 9A3A          MOVB      AL,#58                ; [CPU_] |119| 
     567 0000006f 9B00          MOVB      AH,#0                 ; [CPU_] |119| 
     568              $C$DW$68        .dwtag  DW_TAG_TI_branch
     569                      .dwattr $C$DW$68, DW_AT_low_pc(0x00)
     570                      .dwattr $C$DW$68, DW_AT_name("_GPIO_SetupPinMux")
     571                      .dwattr $C$DW$68, DW_AT_TI_call
     572 00000070 7640!         LCR       #_GPIO_SetupPinMux    ; [CPU_] |119| 
         00000071 0000 
     573                      ; call occurs [#_GPIO_SetupPinMux] ; [] |119| 
     574                      .dwpsn  file "../motors/config.c",line 122,column 2,is_stmt,isa 0
     575 00000072 D430          MOVB      XAR4,#48              ; [CPU_] |122| 
     576 00000073 9A3B          MOVB      AL,#59                ; [CPU_] |122| 
     577 00000074 9B00          MOVB      AH,#0                 ; [CPU_] |122| 
     578              $C$DW$69        .dwtag  DW_TAG_TI_branch
     579                      .dwattr $C$DW$69, DW_AT_low_pc(0x00)
     580                      .dwattr $C$DW$69, DW_AT_name("_GPIO_SetupPinOptions")
     581                      .dwattr $C$DW$69, DW_AT_TI_call
     582 00000075 7640!         LCR       #_GPIO_SetupPinOptions ; [CPU_] |122| 
         00000076 0000 
TMS320C2000 Assembler PC v6.4.2 Thu Dec 14 13:36:46 2017

Tools Copyright (c) 1996-2015 Texas Instruments Incorporated
config.asm                                                           PAGE   12

     583                      ; call occurs [#_GPIO_SetupPinOptions] ; [] |122| 
     584                      .dwpsn  file "../motors/config.c",line 123,column 2,is_stmt,isa 0
     585 00000077 D40F          MOVB      XAR4,#15              ; [CPU_] |123| 
     586 00000078 9A3B          MOVB      AL,#59                ; [CPU_] |123| 
     587 00000079 9B00          MOVB      AH,#0                 ; [CPU_] |123| 
     588              $C$DW$70        .dwtag  DW_TAG_TI_branch
     589                      .dwattr $C$DW$70, DW_AT_low_pc(0x00)
     590                      .dwattr $C$DW$70, DW_AT_name("_GPIO_SetupPinMux")
     591                      .dwattr $C$DW$70, DW_AT_TI_call
     592 0000007a 7640!         LCR       #_GPIO_SetupPinMux    ; [CPU_] |123| 
         0000007b 0000 
     593                      ; call occurs [#_GPIO_SetupPinMux] ; [] |123| 
     594                      .dwpsn  file "../motors/config.c",line 126,column 2,is_stmt,isa 0
     595 0000007c D430          MOVB      XAR4,#48              ; [CPU_] |126| 
     596 0000007d 9A3C          MOVB      AL,#60                ; [CPU_] |126| 
     597 0000007e 9B00          MOVB      AH,#0                 ; [CPU_] |126| 
     598              $C$DW$71        .dwtag  DW_TAG_TI_branch
     599                      .dwattr $C$DW$71, DW_AT_low_pc(0x00)
     600                      .dwattr $C$DW$71, DW_AT_name("_GPIO_SetupPinOptions")
     601                      .dwattr $C$DW$71, DW_AT_TI_call
     602 0000007f 7640!         LCR       #_GPIO_SetupPinOptions ; [CPU_] |126| 
         00000080 0000 
     603                      ; call occurs [#_GPIO_SetupPinOptions] ; [] |126| 
     604                      .dwpsn  file "../motors/config.c",line 127,column 2,is_stmt,isa 0
     605 00000081 D40F          MOVB      XAR4,#15              ; [CPU_] |127| 
     606 00000082 9A3C          MOVB      AL,#60                ; [CPU_] |127| 
     607 00000083 9B00          MOVB      AH,#0                 ; [CPU_] |127| 
     608              $C$DW$72        .dwtag  DW_TAG_TI_branch
     609                      .dwattr $C$DW$72, DW_AT_low_pc(0x00)
     610                      .dwattr $C$DW$72, DW_AT_name("_GPIO_SetupPinMux")
     611                      .dwattr $C$DW$72, DW_AT_TI_call
     612 00000084 7640!         LCR       #_GPIO_SetupPinMux    ; [CPU_] |127| 
         00000085 0000 
     613                      ; call occurs [#_GPIO_SetupPinMux] ; [] |127| 
     614                      .dwpsn  file "../motors/config.c",line 130,column 2,is_stmt,isa 0
     615 00000086 D430          MOVB      XAR4,#48              ; [CPU_] |130| 
     616 00000087 9A29          MOVB      AL,#41                ; [CPU_] |130| 
     617 00000088 9B01          MOVB      AH,#1                 ; [CPU_] |130| 
     618              $C$DW$73        .dwtag  DW_TAG_TI_branch
     619                      .dwattr $C$DW$73, DW_AT_low_pc(0x00)
     620                      .dwattr $C$DW$73, DW_AT_name("_GPIO_SetupPinOptions")
     621                      .dwattr $C$DW$73, DW_AT_TI_call
     622 00000089 7640!         LCR       #_GPIO_SetupPinOptions ; [CPU_] |130| 
         0000008a 0000 
     623                      ; call occurs [#_GPIO_SetupPinOptions] ; [] |130| 
     624                      .dwpsn  file "../motors/config.c",line 131,column 2,is_stmt,isa 0
     625 0000008b 9A29          MOVB      AL,#41                ; [CPU_] |131| 
     626 0000008c 9B00          MOVB      AH,#0                 ; [CPU_] |131| 
     627 0000008d D400          MOVB      XAR4,#0               ; [CPU_] |131| 
     628              $C$DW$74        .dwtag  DW_TAG_TI_branch
     629                      .dwattr $C$DW$74, DW_AT_low_pc(0x00)
     630                      .dwattr $C$DW$74, DW_AT_name("_GPIO_SetupPinMux")
     631                      .dwattr $C$DW$74, DW_AT_TI_call
     632 0000008e 7640!         LCR       #_GPIO_SetupPinMux    ; [CPU_] |131| 
         0000008f 0000 
TMS320C2000 Assembler PC v6.4.2 Thu Dec 14 13:36:46 2017

Tools Copyright (c) 1996-2015 Texas Instruments Incorporated
config.asm                                                           PAGE   13

     633                      ; call occurs [#_GPIO_SetupPinMux] ; [] |131| 
     634                      .dwpsn  file "../motors/config.c",line 133,column 2,is_stmt,isa 0
     635                      .dwpsn  file "../motors/config.c",line 134,column 1,is_stmt,isa 0
     636              $C$DW$75        .dwtag  DW_TAG_TI_branch
     637                      .dwattr $C$DW$75, DW_AT_low_pc(0x00)
     638                      .dwattr $C$DW$75, DW_AT_TI_return
     639 00000090 0006          LRETR     ; [CPU_] 
     640                      ; return occurs ; [] 
     641                      .dwattr $C$DW$66, DW_AT_TI_end_file("../motors/config.c")
     642                      .dwattr $C$DW$66, DW_AT_TI_end_line(0x86)
     643                      .dwattr $C$DW$66, DW_AT_TI_end_column(0x01)
     644                      .dwendentry
     645                      .dwendtag $C$DW$66
     646              
     647 00000091               .sect   ".text"
     648                      .clink
     649                      .global _InitMotor2SpiGpio
     650              
     651              $C$DW$76        .dwtag  DW_TAG_subprogram, DW_AT_name("InitMotor2SpiGpio")
     652                      .dwattr $C$DW$76, DW_AT_low_pc(_InitMotor2SpiGpio)
     653                      .dwattr $C$DW$76, DW_AT_high_pc(0x00)
     654                      .dwattr $C$DW$76, DW_AT_TI_symbol_name("_InitMotor2SpiGpio")
     655                      .dwattr $C$DW$76, DW_AT_external
     656                      .dwattr $C$DW$76, DW_AT_TI_begin_file("../motors/config.c")
     657                      .dwattr $C$DW$76, DW_AT_TI_begin_line(0x88)
     658                      .dwattr $C$DW$76, DW_AT_TI_begin_column(0x06)
     659                      .dwattr $C$DW$76, DW_AT_TI_max_frame_size(-2)
     660                      .dwpsn  file "../motors/config.c",line 137,column 1,is_stmt,address _InitMotor2SpiGpio,isa 0
     661              
     662                      .dwfde $C$DW$CIE, _InitMotor2SpiGpio
     663              
     664              ;***************************************************************
     665              ;* FNAME: _InitMotor2SpiGpio            FR SIZE:   0           *
     666              ;*                                                             *
     667              ;* FUNCTION ENVIRONMENT                                        *
     668              ;*                                                             *
     669              ;* FUNCTION PROPERTIES                                         *
     670              ;*                            0 Parameter,  0 Auto,  0 SOE     *
     671              ;***************************************************************
     672              
     673 00000091       _InitMotor2SpiGpio:
     674                      .dwcfi  cfa_offset, -2
     675                      .dwcfi  save_reg_to_mem, 26, 0
     676                      .dwpsn  file "../motors/config.c",line 139,column 2,is_stmt,isa 0
     677 00000091 9A3A          MOVB      AL,#58                ; [CPU_] |139| 
     678 00000092 D430          MOVB      XAR4,#48              ; [CPU_] |139| 
     679 00000093 9B00          MOVB      AH,#0                 ; [CPU_] |139| 
     680              $C$DW$77        .dwtag  DW_TAG_TI_branch
     681                      .dwattr $C$DW$77, DW_AT_low_pc(0x00)
     682                      .dwattr $C$DW$77, DW_AT_name("_GPIO_SetupPinOptions")
     683                      .dwattr $C$DW$77, DW_AT_TI_call
     684 00000094 7640!         LCR       #_GPIO_SetupPinOptions ; [CPU_] |139| 
         00000095 0000 
     685                      ; call occurs [#_GPIO_SetupPinOptions] ; [] |139| 
     686                      .dwpsn  file "../motors/config.c",line 140,column 2,is_stmt,isa 0
TMS320C2000 Assembler PC v6.4.2 Thu Dec 14 13:36:46 2017

Tools Copyright (c) 1996-2015 Texas Instruments Incorporated
config.asm                                                           PAGE   14

     687 00000096 D40F          MOVB      XAR4,#15              ; [CPU_] |140| 
     688 00000097 9A3A          MOVB      AL,#58                ; [CPU_] |140| 
     689 00000098 9B00          MOVB      AH,#0                 ; [CPU_] |140| 
     690              $C$DW$78        .dwtag  DW_TAG_TI_branch
     691                      .dwattr $C$DW$78, DW_AT_low_pc(0x00)
     692                      .dwattr $C$DW$78, DW_AT_name("_GPIO_SetupPinMux")
     693                      .dwattr $C$DW$78, DW_AT_TI_call
     694 00000099 7640!         LCR       #_GPIO_SetupPinMux    ; [CPU_] |140| 
         0000009a 0000 
     695                      ; call occurs [#_GPIO_SetupPinMux] ; [] |140| 
     696                      .dwpsn  file "../motors/config.c",line 143,column 2,is_stmt,isa 0
     697 0000009b D430          MOVB      XAR4,#48              ; [CPU_] |143| 
     698 0000009c 9A3B          MOVB      AL,#59                ; [CPU_] |143| 
     699 0000009d 9B00          MOVB      AH,#0                 ; [CPU_] |143| 
     700              $C$DW$79        .dwtag  DW_TAG_TI_branch
     701                      .dwattr $C$DW$79, DW_AT_low_pc(0x00)
     702                      .dwattr $C$DW$79, DW_AT_name("_GPIO_SetupPinOptions")
     703                      .dwattr $C$DW$79, DW_AT_TI_call
     704 0000009e 7640!         LCR       #_GPIO_SetupPinOptions ; [CPU_] |143| 
         0000009f 0000 
     705                      ; call occurs [#_GPIO_SetupPinOptions] ; [] |143| 
     706                      .dwpsn  file "../motors/config.c",line 144,column 2,is_stmt,isa 0
     707 000000a0 D40F          MOVB      XAR4,#15              ; [CPU_] |144| 
     708 000000a1 9A3B          MOVB      AL,#59                ; [CPU_] |144| 
     709 000000a2 9B00          MOVB      AH,#0                 ; [CPU_] |144| 
     710              $C$DW$80        .dwtag  DW_TAG_TI_branch
     711                      .dwattr $C$DW$80, DW_AT_low_pc(0x00)
     712                      .dwattr $C$DW$80, DW_AT_name("_GPIO_SetupPinMux")
     713                      .dwattr $C$DW$80, DW_AT_TI_call
     714 000000a3 7640!         LCR       #_GPIO_SetupPinMux    ; [CPU_] |144| 
         000000a4 0000 
     715                      ; call occurs [#_GPIO_SetupPinMux] ; [] |144| 
     716                      .dwpsn  file "../motors/config.c",line 147,column 2,is_stmt,isa 0
     717 000000a5 D430          MOVB      XAR4,#48              ; [CPU_] |147| 
     718 000000a6 9A3C          MOVB      AL,#60                ; [CPU_] |147| 
     719 000000a7 9B00          MOVB      AH,#0                 ; [CPU_] |147| 
     720              $C$DW$81        .dwtag  DW_TAG_TI_branch
     721                      .dwattr $C$DW$81, DW_AT_low_pc(0x00)
     722                      .dwattr $C$DW$81, DW_AT_name("_GPIO_SetupPinOptions")
     723                      .dwattr $C$DW$81, DW_AT_TI_call
     724 000000a8 7640!         LCR       #_GPIO_SetupPinOptions ; [CPU_] |147| 
         000000a9 0000 
     725                      ; call occurs [#_GPIO_SetupPinOptions] ; [] |147| 
     726                      .dwpsn  file "../motors/config.c",line 148,column 2,is_stmt,isa 0
     727 000000aa D40F          MOVB      XAR4,#15              ; [CPU_] |148| 
     728 000000ab 9A3C          MOVB      AL,#60                ; [CPU_] |148| 
     729 000000ac 9B00          MOVB      AH,#0                 ; [CPU_] |148| 
     730              $C$DW$82        .dwtag  DW_TAG_TI_branch
     731                      .dwattr $C$DW$82, DW_AT_low_pc(0x00)
     732                      .dwattr $C$DW$82, DW_AT_name("_GPIO_SetupPinMux")
     733                      .dwattr $C$DW$82, DW_AT_TI_call
     734 000000ad 7640!         LCR       #_GPIO_SetupPinMux    ; [CPU_] |148| 
         000000ae 0000 
     735                      ; call occurs [#_GPIO_SetupPinMux] ; [] |148| 
     736                      .dwpsn  file "../motors/config.c",line 151,column 2,is_stmt,isa 0
TMS320C2000 Assembler PC v6.4.2 Thu Dec 14 13:36:46 2017

Tools Copyright (c) 1996-2015 Texas Instruments Incorporated
config.asm                                                           PAGE   15

     737 000000af D430          MOVB      XAR4,#48              ; [CPU_] |151| 
     738 000000b0 9A5B          MOVB      AL,#91                ; [CPU_] |151| 
     739 000000b1 9B01          MOVB      AH,#1                 ; [CPU_] |151| 
     740              $C$DW$83        .dwtag  DW_TAG_TI_branch
     741                      .dwattr $C$DW$83, DW_AT_low_pc(0x00)
     742                      .dwattr $C$DW$83, DW_AT_name("_GPIO_SetupPinOptions")
     743                      .dwattr $C$DW$83, DW_AT_TI_call
     744 000000b2 7640!         LCR       #_GPIO_SetupPinOptions ; [CPU_] |151| 
         000000b3 0000 
     745                      ; call occurs [#_GPIO_SetupPinOptions] ; [] |151| 
     746                      .dwpsn  file "../motors/config.c",line 152,column 2,is_stmt,isa 0
     747 000000b4 9A5B          MOVB      AL,#91                ; [CPU_] |152| 
     748 000000b5 9B00          MOVB      AH,#0                 ; [CPU_] |152| 
     749 000000b6 D400          MOVB      XAR4,#0               ; [CPU_] |152| 
     750              $C$DW$84        .dwtag  DW_TAG_TI_branch
     751                      .dwattr $C$DW$84, DW_AT_low_pc(0x00)
     752                      .dwattr $C$DW$84, DW_AT_name("_GPIO_SetupPinMux")
     753                      .dwattr $C$DW$84, DW_AT_TI_call
     754 000000b7 7640!         LCR       #_GPIO_SetupPinMux    ; [CPU_] |152| 
         000000b8 0000 
     755                      ; call occurs [#_GPIO_SetupPinMux] ; [] |152| 
     756                      .dwpsn  file "../motors/config.c",line 154,column 2,is_stmt,isa 0
     757                      .dwpsn  file "../motors/config.c",line 155,column 1,is_stmt,isa 0
     758              $C$DW$85        .dwtag  DW_TAG_TI_branch
     759                      .dwattr $C$DW$85, DW_AT_low_pc(0x00)
     760                      .dwattr $C$DW$85, DW_AT_TI_return
     761 000000b9 0006          LRETR     ; [CPU_] 
     762                      ; return occurs ; [] 
     763                      .dwattr $C$DW$76, DW_AT_TI_end_file("../motors/config.c")
     764                      .dwattr $C$DW$76, DW_AT_TI_end_line(0x9b)
     765                      .dwattr $C$DW$76, DW_AT_TI_end_column(0x01)
     766                      .dwendentry
     767                      .dwendtag $C$DW$76
     768              
     769 000000ba               .sect   ".text"
     770                      .clink
     771                      .global _InitMotor1_DRV_Gpio
     772              
     773              $C$DW$86        .dwtag  DW_TAG_subprogram, DW_AT_name("InitMotor1_DRV_Gpio")
     774                      .dwattr $C$DW$86, DW_AT_low_pc(_InitMotor1_DRV_Gpio)
     775                      .dwattr $C$DW$86, DW_AT_high_pc(0x00)
     776                      .dwattr $C$DW$86, DW_AT_TI_symbol_name("_InitMotor1_DRV_Gpio")
     777                      .dwattr $C$DW$86, DW_AT_external
     778                      .dwattr $C$DW$86, DW_AT_TI_begin_file("../motors/config.c")
     779                      .dwattr $C$DW$86, DW_AT_TI_begin_line(0xa2)
     780                      .dwattr $C$DW$86, DW_AT_TI_begin_column(0x06)
     781                      .dwattr $C$DW$86, DW_AT_TI_max_frame_size(-2)
     782                      .dwpsn  file "../motors/config.c",line 163,column 1,is_stmt,address _InitMotor1_DRV_Gpio,isa 0
     783              
     784                      .dwfde $C$DW$CIE, _InitMotor1_DRV_Gpio
     785              
     786              ;***************************************************************
     787              ;* FNAME: _InitMotor1_DRV_Gpio          FR SIZE:   0           *
     788              ;*                                                             *
     789              ;* FUNCTION ENVIRONMENT                                        *
TMS320C2000 Assembler PC v6.4.2 Thu Dec 14 13:36:46 2017

Tools Copyright (c) 1996-2015 Texas Instruments Incorporated
config.asm                                                           PAGE   16

     790              ;*                                                             *
     791              ;* FUNCTION PROPERTIES                                         *
     792              ;*                            0 Parameter,  0 Auto,  0 SOE     *
     793              ;***************************************************************
     794              
     795 000000ba       _InitMotor1_DRV_Gpio:
     796                      .dwcfi  cfa_offset, -2
     797                      .dwcfi  save_reg_to_mem, 26, 0
     798                      .dwpsn  file "../motors/config.c",line 165,column 2,is_stmt,isa 0
     799 000000ba 9A48          MOVB      AL,#72                ; [CPU_] |165| 
     800 000000bb 9B00          MOVB      AH,#0                 ; [CPU_] |165| 
     801              $C$DW$87        .dwtag  DW_TAG_TI_branch
     802                      .dwattr $C$DW$87, DW_AT_low_pc(0x00)
     803                      .dwattr $C$DW$87, DW_AT_name("_GPIO_WritePin")
     804                      .dwattr $C$DW$87, DW_AT_TI_call
     805 000000bc 7640!         LCR       #_GPIO_WritePin       ; [CPU_] |165| 
         000000bd 0000 
     806                      ; call occurs [#_GPIO_WritePin] ; [] |165| 
     807                      .dwpsn  file "../motors/config.c",line 166,column 2,is_stmt,isa 0
     808 000000be D430          MOVB      XAR4,#48              ; [CPU_] |166| 
     809 000000bf 9A48          MOVB      AL,#72                ; [CPU_] |166| 
     810 000000c0 9B01          MOVB      AH,#1                 ; [CPU_] |166| 
     811              $C$DW$88        .dwtag  DW_TAG_TI_branch
     812                      .dwattr $C$DW$88, DW_AT_low_pc(0x00)
     813                      .dwattr $C$DW$88, DW_AT_name("_GPIO_SetupPinOptions")
     814                      .dwattr $C$DW$88, DW_AT_TI_call
     815 000000c1 7640!         LCR       #_GPIO_SetupPinOptions ; [CPU_] |166| 
         000000c2 0000 
     816                      ; call occurs [#_GPIO_SetupPinOptions] ; [] |166| 
     817                      .dwpsn  file "../motors/config.c",line 167,column 2,is_stmt,isa 0
     818 000000c3 9A48          MOVB      AL,#72                ; [CPU_] |167| 
     819 000000c4 D400          MOVB      XAR4,#0               ; [CPU_] |167| 
     820 000000c5 9B00          MOVB      AH,#0                 ; [CPU_] |167| 
     821              $C$DW$89        .dwtag  DW_TAG_TI_branch
     822                      .dwattr $C$DW$89, DW_AT_low_pc(0x00)
     823                      .dwattr $C$DW$89, DW_AT_name("_GPIO_SetupPinMux")
     824                      .dwattr $C$DW$89, DW_AT_TI_call
     825 000000c6 7640!         LCR       #_GPIO_SetupPinMux    ; [CPU_] |167| 
         000000c7 0000 
     826                      ; call occurs [#_GPIO_SetupPinMux] ; [] |167| 
     827                      .dwpsn  file "../motors/config.c",line 171,column 2,is_stmt,isa 0
     828 000000c8 9A49          MOVB      AL,#73                ; [CPU_] |171| 
     829 000000c9 9B01          MOVB      AH,#1                 ; [CPU_] |171| 
     830              $C$DW$90        .dwtag  DW_TAG_TI_branch
     831                      .dwattr $C$DW$90, DW_AT_low_pc(0x00)
     832                      .dwattr $C$DW$90, DW_AT_name("_GPIO_WritePin")
     833                      .dwattr $C$DW$90, DW_AT_TI_call
     834 000000ca 7640!         LCR       #_GPIO_WritePin       ; [CPU_] |171| 
         000000cb 0000 
     835                      ; call occurs [#_GPIO_WritePin] ; [] |171| 
     836                      .dwpsn  file "../motors/config.c",line 172,column 2,is_stmt,isa 0
     837 000000cc D430          MOVB      XAR4,#48              ; [CPU_] |172| 
     838 000000cd 9A49          MOVB      AL,#73                ; [CPU_] |172| 
     839 000000ce 9B01          MOVB      AH,#1                 ; [CPU_] |172| 
     840              $C$DW$91        .dwtag  DW_TAG_TI_branch
TMS320C2000 Assembler PC v6.4.2 Thu Dec 14 13:36:46 2017

Tools Copyright (c) 1996-2015 Texas Instruments Incorporated
config.asm                                                           PAGE   17

     841                      .dwattr $C$DW$91, DW_AT_low_pc(0x00)
     842                      .dwattr $C$DW$91, DW_AT_name("_GPIO_SetupPinOptions")
     843                      .dwattr $C$DW$91, DW_AT_TI_call
     844 000000cf 7640!         LCR       #_GPIO_SetupPinOptions ; [CPU_] |172| 
         000000d0 0000 
     845                      ; call occurs [#_GPIO_SetupPinOptions] ; [] |172| 
     846                      .dwpsn  file "../motors/config.c",line 173,column 2,is_stmt,isa 0
     847 000000d1 9A49          MOVB      AL,#73                ; [CPU_] |173| 
     848 000000d2 9B00          MOVB      AH,#0                 ; [CPU_] |173| 
     849 000000d3 D400          MOVB      XAR4,#0               ; [CPU_] |173| 
     850              $C$DW$92        .dwtag  DW_TAG_TI_branch
     851                      .dwattr $C$DW$92, DW_AT_low_pc(0x00)
     852                      .dwattr $C$DW$92, DW_AT_name("_GPIO_SetupPinMux")
     853                      .dwattr $C$DW$92, DW_AT_TI_call
     854 000000d4 7640!         LCR       #_GPIO_SetupPinMux    ; [CPU_] |173| 
         000000d5 0000 
     855                      ; call occurs [#_GPIO_SetupPinMux] ; [] |173| 
     856                      .dwpsn  file "../motors/config.c",line 180,column 1,is_stmt,isa 0
     857              $C$DW$93        .dwtag  DW_TAG_TI_branch
     858                      .dwattr $C$DW$93, DW_AT_low_pc(0x00)
     859                      .dwattr $C$DW$93, DW_AT_TI_return
     860 000000d6 0006          LRETR     ; [CPU_] 
     861                      ; return occurs ; [] 
     862                      .dwattr $C$DW$86, DW_AT_TI_end_file("../motors/config.c")
     863                      .dwattr $C$DW$86, DW_AT_TI_end_line(0xb4)
     864                      .dwattr $C$DW$86, DW_AT_TI_end_column(0x01)
     865                      .dwendentry
     866                      .dwendtag $C$DW$86
     867              
     868 000000d7               .sect   ".text"
     869                      .clink
     870                      .global _InitMotor2_DRV_Gpio
     871              
     872              $C$DW$94        .dwtag  DW_TAG_subprogram, DW_AT_name("InitMotor2_DRV_Gpio")
     873                      .dwattr $C$DW$94, DW_AT_low_pc(_InitMotor2_DRV_Gpio)
     874                      .dwattr $C$DW$94, DW_AT_high_pc(0x00)
     875                      .dwattr $C$DW$94, DW_AT_TI_symbol_name("_InitMotor2_DRV_Gpio")
     876                      .dwattr $C$DW$94, DW_AT_external
     877                      .dwattr $C$DW$94, DW_AT_TI_begin_file("../motors/config.c")
     878                      .dwattr $C$DW$94, DW_AT_TI_begin_line(0xb6)
     879                      .dwattr $C$DW$94, DW_AT_TI_begin_column(0x06)
     880                      .dwattr $C$DW$94, DW_AT_TI_max_frame_size(-2)
     881                      .dwpsn  file "../motors/config.c",line 183,column 1,is_stmt,address _InitMotor2_DRV_Gpio,isa 0
     882              
     883                      .dwfde $C$DW$CIE, _InitMotor2_DRV_Gpio
     884              
     885              ;***************************************************************
     886              ;* FNAME: _InitMotor2_DRV_Gpio          FR SIZE:   0           *
     887              ;*                                                             *
     888              ;* FUNCTION ENVIRONMENT                                        *
     889              ;*                                                             *
     890              ;* FUNCTION PROPERTIES                                         *
     891              ;*                            0 Parameter,  0 Auto,  0 SOE     *
     892              ;***************************************************************
     893              
TMS320C2000 Assembler PC v6.4.2 Thu Dec 14 13:36:46 2017

Tools Copyright (c) 1996-2015 Texas Instruments Incorporated
config.asm                                                           PAGE   18

     894 000000d7       _InitMotor2_DRV_Gpio:
     895                      .dwcfi  cfa_offset, -2
     896                      .dwcfi  save_reg_to_mem, 26, 0
     897                      .dwpsn  file "../motors/config.c",line 185,column 2,is_stmt,isa 0
     898 000000d7 9A63          MOVB      AL,#99                ; [CPU_] |185| 
     899 000000d8 9B00          MOVB      AH,#0                 ; [CPU_] |185| 
     900              $C$DW$95        .dwtag  DW_TAG_TI_branch
     901                      .dwattr $C$DW$95, DW_AT_low_pc(0x00)
     902                      .dwattr $C$DW$95, DW_AT_name("_GPIO_WritePin")
     903                      .dwattr $C$DW$95, DW_AT_TI_call
     904 000000d9 7640!         LCR       #_GPIO_WritePin       ; [CPU_] |185| 
         000000da 0000 
     905                      ; call occurs [#_GPIO_WritePin] ; [] |185| 
     906                      .dwpsn  file "../motors/config.c",line 186,column 2,is_stmt,isa 0
     907 000000db D430          MOVB      XAR4,#48              ; [CPU_] |186| 
     908 000000dc 9A63          MOVB      AL,#99                ; [CPU_] |186| 
     909 000000dd 9B01          MOVB      AH,#1                 ; [CPU_] |186| 
     910              $C$DW$96        .dwtag  DW_TAG_TI_branch
     911                      .dwattr $C$DW$96, DW_AT_low_pc(0x00)
     912                      .dwattr $C$DW$96, DW_AT_name("_GPIO_SetupPinOptions")
     913                      .dwattr $C$DW$96, DW_AT_TI_call
     914 000000de 7640!         LCR       #_GPIO_SetupPinOptions ; [CPU_] |186| 
         000000df 0000 
     915                      ; call occurs [#_GPIO_SetupPinOptions] ; [] |186| 
     916                      .dwpsn  file "../motors/config.c",line 187,column 2,is_stmt,isa 0
     917 000000e0 9A63          MOVB      AL,#99                ; [CPU_] |187| 
     918 000000e1 D400          MOVB      XAR4,#0               ; [CPU_] |187| 
     919 000000e2 9B00          MOVB      AH,#0                 ; [CPU_] |187| 
     920              $C$DW$97        .dwtag  DW_TAG_TI_branch
     921                      .dwattr $C$DW$97, DW_AT_low_pc(0x00)
     922                      .dwattr $C$DW$97, DW_AT_name("_GPIO_SetupPinMux")
     923                      .dwattr $C$DW$97, DW_AT_TI_call
     924 000000e3 7640!         LCR       #_GPIO_SetupPinMux    ; [CPU_] |187| 
         000000e4 0000 
     925                      ; call occurs [#_GPIO_SetupPinMux] ; [] |187| 
     926                      .dwpsn  file "../motors/config.c",line 191,column 2,is_stmt,isa 0
     927 000000e5 9A5C          MOVB      AL,#92                ; [CPU_] |191| 
     928 000000e6 9B01          MOVB      AH,#1                 ; [CPU_] |191| 
     929              $C$DW$98        .dwtag  DW_TAG_TI_branch
     930                      .dwattr $C$DW$98, DW_AT_low_pc(0x00)
     931                      .dwattr $C$DW$98, DW_AT_name("_GPIO_WritePin")
     932                      .dwattr $C$DW$98, DW_AT_TI_call
     933 000000e7 7640!         LCR       #_GPIO_WritePin       ; [CPU_] |191| 
         000000e8 0000 
     934                      ; call occurs [#_GPIO_WritePin] ; [] |191| 
     935                      .dwpsn  file "../motors/config.c",line 192,column 2,is_stmt,isa 0
     936 000000e9 D430          MOVB      XAR4,#48              ; [CPU_] |192| 
     937 000000ea 9A5C          MOVB      AL,#92                ; [CPU_] |192| 
     938 000000eb 9B01          MOVB      AH,#1                 ; [CPU_] |192| 
     939              $C$DW$99        .dwtag  DW_TAG_TI_branch
     940                      .dwattr $C$DW$99, DW_AT_low_pc(0x00)
     941                      .dwattr $C$DW$99, DW_AT_name("_GPIO_SetupPinOptions")
     942                      .dwattr $C$DW$99, DW_AT_TI_call
     943 000000ec 7640!         LCR       #_GPIO_SetupPinOptions ; [CPU_] |192| 
         000000ed 0000 
TMS320C2000 Assembler PC v6.4.2 Thu Dec 14 13:36:46 2017

Tools Copyright (c) 1996-2015 Texas Instruments Incorporated
config.asm                                                           PAGE   19

     944                      ; call occurs [#_GPIO_SetupPinOptions] ; [] |192| 
     945                      .dwpsn  file "../motors/config.c",line 193,column 2,is_stmt,isa 0
     946 000000ee 9A5C          MOVB      AL,#92                ; [CPU_] |193| 
     947 000000ef 9B00          MOVB      AH,#0                 ; [CPU_] |193| 
     948 000000f0 D400          MOVB      XAR4,#0               ; [CPU_] |193| 
     949              $C$DW$100       .dwtag  DW_TAG_TI_branch
     950                      .dwattr $C$DW$100, DW_AT_low_pc(0x00)
     951                      .dwattr $C$DW$100, DW_AT_name("_GPIO_SetupPinMux")
     952                      .dwattr $C$DW$100, DW_AT_TI_call
     953 000000f1 7640!         LCR       #_GPIO_SetupPinMux    ; [CPU_] |193| 
         000000f2 0000 
     954                      ; call occurs [#_GPIO_SetupPinMux] ; [] |193| 
     955                      .dwpsn  file "../motors/config.c",line 200,column 1,is_stmt,isa 0
     956              $C$DW$101       .dwtag  DW_TAG_TI_branch
     957                      .dwattr $C$DW$101, DW_AT_low_pc(0x00)
     958                      .dwattr $C$DW$101, DW_AT_TI_return
     959 000000f3 0006          LRETR     ; [CPU_] 
     960                      ; return occurs ; [] 
     961                      .dwattr $C$DW$94, DW_AT_TI_end_file("../motors/config.c")
     962                      .dwattr $C$DW$94, DW_AT_TI_end_line(0xc8)
     963                      .dwattr $C$DW$94, DW_AT_TI_end_column(0x01)
     964                      .dwendentry
     965                      .dwendtag $C$DW$94
     966              
     967 000000f4               .sect   ".text"
     968                      .clink
     969                      .global _InitSysCtrl1
     970              
     971              $C$DW$102       .dwtag  DW_TAG_subprogram, DW_AT_name("InitSysCtrl1")
     972                      .dwattr $C$DW$102, DW_AT_low_pc(_InitSysCtrl1)
     973                      .dwattr $C$DW$102, DW_AT_high_pc(0x00)
     974                      .dwattr $C$DW$102, DW_AT_TI_symbol_name("_InitSysCtrl1")
     975                      .dwattr $C$DW$102, DW_AT_external
     976                      .dwattr $C$DW$102, DW_AT_TI_begin_file("../motors/config.c")
     977                      .dwattr $C$DW$102, DW_AT_TI_begin_line(0xd2)
     978                      .dwattr $C$DW$102, DW_AT_TI_begin_column(0x06)
     979                      .dwattr $C$DW$102, DW_AT_TI_max_frame_size(-2)
     980                      .dwpsn  file "../motors/config.c",line 211,column 1,is_stmt,address _InitSysCtrl1,isa 0
     981              
     982                      .dwfde $C$DW$CIE, _InitSysCtrl1
     983              
     984              ;***************************************************************
     985              ;* FNAME: _InitSysCtrl1                 FR SIZE:   0           *
     986              ;*                                                             *
     987              ;* FUNCTION ENVIRONMENT                                        *
     988              ;*                                                             *
     989              ;* FUNCTION PROPERTIES                                         *
     990              ;*                            0 Parameter,  0 Auto,  0 SOE     *
     991              ;***************************************************************
     992              
     993 000000f4       _InitSysCtrl1:
     994                      .dwcfi  cfa_offset, -2
     995                      .dwcfi  save_reg_to_mem, 26, 0
     996                      .dwpsn  file "../motors/config.c",line 213,column 5,is_stmt,isa 0
     997              $C$DW$103       .dwtag  DW_TAG_TI_branch
TMS320C2000 Assembler PC v6.4.2 Thu Dec 14 13:36:46 2017

Tools Copyright (c) 1996-2015 Texas Instruments Incorporated
config.asm                                                           PAGE   20

     998                      .dwattr $C$DW$103, DW_AT_low_pc(0x00)
     999                      .dwattr $C$DW$103, DW_AT_name("_DisableDog")
    1000                      .dwattr $C$DW$103, DW_AT_TI_call
    1001 000000f4 7640!         LCR       #_DisableDog          ; [CPU_] |213| 
         000000f5 0000 
    1002                      ; call occurs [#_DisableDog] ; [] |213| 
    1003                      .dwpsn  file "../motors/config.c",line 220,column 5,is_stmt,isa 0
    1004 000000f6 8F00!         MOVL      XAR4,#_RamfuncsRunStart ; [CPU_U] |220| 
         000000f7 0000 
    1005 000000f8 8F40!         MOVL      XAR5,#_RamfuncsLoadStart ; [CPU_U] |220| 
         000000f9 0000 
    1006 000000fa 28A9!         MOV       AL,#_RamfuncsLoadSize+0 ; [CPU_] |220| 
         000000fb 0000 
    1007 000000fc 28A8%         MOV       AH,#_RamfuncsLoadSize+0 >> 16 ; [CPU_] |220| 
         000000fd 0000 
    1008              $C$DW$104       .dwtag  DW_TAG_TI_branch
    1009                      .dwattr $C$DW$104, DW_AT_low_pc(0x00)
    1010                      .dwattr $C$DW$104, DW_AT_name("_memcpy")
    1011                      .dwattr $C$DW$104, DW_AT_TI_call
    1012 000000fe 7640!         LCR       #_memcpy              ; [CPU_] |220| 
         000000ff 0000 
    1013                      ; call occurs [#_memcpy] ; [] |220| 
    1014                      .dwpsn  file "../motors/config.c",line 224,column 5,is_stmt,isa 0
    1015              $C$DW$105       .dwtag  DW_TAG_TI_branch
    1016                      .dwattr $C$DW$105, DW_AT_low_pc(0x00)
    1017                      .dwattr $C$DW$105, DW_AT_name("_InitFlash_Bank0")
    1018                      .dwattr $C$DW$105, DW_AT_TI_call
    1019 00000100 7640!         LCR       #_InitFlash_Bank0     ; [CPU_] |224| 
         00000101 0000 
    1020                      ; call occurs [#_InitFlash_Bank0] ; [] |224| 
    1021                      .dwpsn  file "../motors/config.c",line 237,column 5,is_stmt,isa 0
    1022 00000102 7622   EALLOW
    1023                      .dwpsn  file "../motors/config.c",line 240,column 5,is_stmt,isa 0
    1024 00000103 FF69          SPM       #0                    ; [CPU_] 
    1025              $C$DW$106       .dwtag  DW_TAG_TI_branch
    1026                      .dwattr $C$DW$106, DW_AT_low_pc(0x00)
    1027                      .dwattr $C$DW$106, DW_AT_name("_GPIO_EnableUnbondedIOPullups")
    1028                      .dwattr $C$DW$106, DW_AT_TI_call
    1029 00000104 7640!         LCR       #_GPIO_EnableUnbondedIOPullups ; [CPU_] |240| 
         00000105 0000 
    1030                      ; call occurs [#_GPIO_EnableUnbondedIOPullups] ; [] |240| 
    1031                      .dwpsn  file "../motors/config.c",line 242,column 2,is_stmt,isa 0
    1032 00000106 761F!         MOVW      DP,#_CpuSysRegs+60    ; [CPU_U] 
         00000107 0000 
    1033 00000108 1A3C!         OR        @_CpuSysRegs+60,#0x0001 ; [CPU_] |242| 
         00000109 0001 
    1034                      .dwpsn  file "../motors/config.c",line 243,column 2,is_stmt,isa 0
    1035 0000010a 1A3C!         OR        @_CpuSysRegs+60,#0x0002 ; [CPU_] |243| 
         0000010b 0002 
    1036                      .dwpsn  file "../motors/config.c",line 244,column 2,is_stmt,isa 0
    1037 0000010c 1A3C!         OR        @_CpuSysRegs+60,#0x0004 ; [CPU_] |244| 
         0000010d 0004 
    1038                      .dwpsn  file "../motors/config.c",line 245,column 2,is_stmt,isa 0
    1039 0000010e 1A3C!         OR        @_CpuSysRegs+60,#0x0008 ; [CPU_] |245| 
         0000010f 0008 
TMS320C2000 Assembler PC v6.4.2 Thu Dec 14 13:36:46 2017

Tools Copyright (c) 1996-2015 Texas Instruments Incorporated
config.asm                                                           PAGE   21

    1040                      .dwpsn  file "../motors/config.c",line 248,column 5,is_stmt,isa 0
    1041 00000110 8F05          MOVL      XAR4,#381366          ; [CPU_U] |248| 
         00000111 D1B6 
    1042 00000112 92C4          MOV       AL,*+XAR4[0]          ; [CPU_] |248| 
    1043 00000113 ED09          BF        $C$L1,NEQ             ; [CPU_] |248| 
    1044                      ; branchcc occurs ; [] |248| 
    1045                      .dwpsn  file "../motors/config.c",line 250,column 9,is_stmt,isa 0
    1046 00000114 8F00          MOVL      XAR4,#31709           ; [CPU_U] |250| 
         00000115 7BDD 
    1047 00000116 761F!         MOVW      DP,#_AnalogSubsysRegs+54 ; [CPU_U] 
         00000117 0000 
    1048 00000118 A836!         MOVL      @_AnalogSubsysRegs+54,XAR4 ; [CPU_] |250| 
    1049                      .dwpsn  file "../motors/config.c",line 251,column 9,is_stmt,isa 0
    1050 00000119 A838!         MOVL      @_AnalogSubsysRegs+56,XAR4 ; [CPU_] |251| 
    1051                      .dwpsn  file "../motors/config.c",line 252,column 9,is_stmt,isa 0
    1052 0000011a A83A!         MOVL      @_AnalogSubsysRegs+58,XAR4 ; [CPU_] |252| 
    1053                      .dwpsn  file "../motors/config.c",line 253,column 9,is_stmt,isa 0
    1054 0000011b A83C!         MOVL      @_AnalogSubsysRegs+60,XAR4 ; [CPU_] |253| 
    1055 0000011c       $C$L1:    
    1056                      .dwpsn  file "../motors/config.c",line 256,column 2,is_stmt,isa 0
    1057 0000011c 761F!         MOVW      DP,#_CpuSysRegs+60    ; [CPU_U] 
         0000011d 0000 
    1058 0000011e 183C!         AND       @_CpuSysRegs+60,#0xfffe ; [CPU_] |256| 
         0000011f FFFE 
    1059                      .dwpsn  file "../motors/config.c",line 257,column 2,is_stmt,isa 0
    1060 00000120 183C!         AND       @_CpuSysRegs+60,#0xfffd ; [CPU_] |257| 
         00000121 FFFD 
    1061                      .dwpsn  file "../motors/config.c",line 258,column 2,is_stmt,isa 0
    1062 00000122 183C!         AND       @_CpuSysRegs+60,#0xfffb ; [CPU_] |258| 
         00000123 FFFB 
    1063                      .dwpsn  file "../motors/config.c",line 259,column 2,is_stmt,isa 0
    1064 00000124 183C!         AND       @_CpuSysRegs+60,#0xfff7 ; [CPU_] |259| 
         00000125 FFF7 
    1065                      .dwpsn  file "../motors/config.c",line 260,column 5,is_stmt,isa 0
    1066 00000126 761A   EDIS
    1067                      .dwpsn  file "../motors/config.c",line 266,column 5,is_stmt,isa 0
    1068 00000127 9A01          MOVB      AL,#1                 ; [CPU_] |266| 
    1069 00000128 D501          MOVB      XAR5,#1               ; [CPU_] |266| 
    1070 00000129 9B28          MOVB      AH,#40                ; [CPU_] |266| 
    1071 0000012a D400          MOVB      XAR4,#0               ; [CPU_] |266| 
    1072 0000012b FF69          SPM       #0                    ; [CPU_] 
    1073              $C$DW$107       .dwtag  DW_TAG_TI_branch
    1074                      .dwattr $C$DW$107, DW_AT_low_pc(0x00)
    1075                      .dwattr $C$DW$107, DW_AT_name("_InitSysPll")
    1076                      .dwattr $C$DW$107, DW_AT_TI_call
    1077 0000012c 7640!         LCR       #_InitSysPll          ; [CPU_] |266| 
         0000012d 0000 
    1078                      ; call occurs [#_InitSysPll] ; [] |266| 
    1079                      .dwpsn  file "../motors/config.c",line 269,column 2,is_stmt,isa 0
    1080              $C$DW$108       .dwtag  DW_TAG_TI_branch
    1081                      .dwattr $C$DW$108, DW_AT_low_pc(0x00)
    1082                      .dwattr $C$DW$108, DW_AT_name("_InitPeripheralClocks")
    1083                      .dwattr $C$DW$108, DW_AT_TI_call
    1084 0000012e 7640!         LCR       #_InitPeripheralClocks ; [CPU_] |269| 
         0000012f 0000 
TMS320C2000 Assembler PC v6.4.2 Thu Dec 14 13:36:46 2017

Tools Copyright (c) 1996-2015 Texas Instruments Incorporated
config.asm                                                           PAGE   22

    1085                      ; call occurs [#_InitPeripheralClocks] ; [] |269| 
    1086                      .dwpsn  file "../motors/config.c",line 271,column 1,is_stmt,isa 0
    1087              $C$DW$109       .dwtag  DW_TAG_TI_branch
    1088                      .dwattr $C$DW$109, DW_AT_low_pc(0x00)
    1089                      .dwattr $C$DW$109, DW_AT_TI_return
    1090 00000130 0006          LRETR     ; [CPU_] 
    1091                      ; return occurs ; [] 
    1092                      .dwattr $C$DW$102, DW_AT_TI_end_file("../motors/config.c")
    1093                      .dwattr $C$DW$102, DW_AT_TI_end_line(0x10f)
    1094                      .dwattr $C$DW$102, DW_AT_TI_end_column(0x01)
    1095                      .dwendentry
    1096                      .dwendtag $C$DW$102
    1097              
    1098 00000131               .sect   ".text"
    1099                      .clink
    1100                      .global _ConfigureADC
    1101              
    1102              $C$DW$110       .dwtag  DW_TAG_subprogram, DW_AT_name("ConfigureADC")
    1103                      .dwattr $C$DW$110, DW_AT_low_pc(_ConfigureADC)
    1104                      .dwattr $C$DW$110, DW_AT_high_pc(0x00)
    1105                      .dwattr $C$DW$110, DW_AT_TI_symbol_name("_ConfigureADC")
    1106                      .dwattr $C$DW$110, DW_AT_external
    1107                      .dwattr $C$DW$110, DW_AT_TI_begin_file("../motors/config.c")
    1108                      .dwattr $C$DW$110, DW_AT_TI_begin_line(0x117)
    1109                      .dwattr $C$DW$110, DW_AT_TI_begin_column(0x06)
    1110                      .dwattr $C$DW$110, DW_AT_TI_max_frame_size(-2)
    1111                      .dwpsn  file "../motors/config.c",line 280,column 1,is_stmt,address _ConfigureADC,isa 0
    1112              
    1113                      .dwfde $C$DW$CIE, _ConfigureADC
    1114              
    1115              ;***************************************************************
    1116              ;* FNAME: _ConfigureADC                 FR SIZE:   0           *
    1117              ;*                                                             *
    1118              ;* FUNCTION ENVIRONMENT                                        *
    1119              ;*                                                             *
    1120              ;* FUNCTION PROPERTIES                                         *
    1121              ;*                            0 Parameter,  0 Auto,  0 SOE     *
    1122              ;***************************************************************
    1123              
    1124 00000131       _ConfigureADC:
    1125                      .dwcfi  cfa_offset, -2
    1126                      .dwcfi  save_reg_to_mem, 26, 0
    1127                      .dwpsn  file "../motors/config.c",line 281,column 2,is_stmt,isa 0
    1128 00000131 7622   EALLOW
    1129                      .dwpsn  file "../motors/config.c",line 284,column 2,is_stmt,isa 0
    1130 00000132 761F!         MOVW      DP,#_AdcaRegs+1       ; [CPU_U] 
         00000133 0000 
    1131 00000134 CC01!         AND       AL,@_AdcaRegs+1,#0xfff0 ; [CPU_] |284| 
         00000135 FFF0 
    1132 00000136 5006          ORB       AL,#0x06              ; [CPU_] |284| 
    1133 00000137 9601!         MOV       @_AdcaRegs+1,AL       ; [CPU_] |284| 
    1134                      .dwpsn  file "../motors/config.c",line 285,column 2,is_stmt,isa 0
    1135 00000138 761F!         MOVW      DP,#_AdcbRegs+1       ; [CPU_U] 
         00000139 0000 
    1136 0000013a CC01!         AND       AL,@_AdcbRegs+1,#0xfff0 ; [CPU_] |285| 
TMS320C2000 Assembler PC v6.4.2 Thu Dec 14 13:36:46 2017

Tools Copyright (c) 1996-2015 Texas Instruments Incorporated
config.asm                                                           PAGE   23

         0000013b FFF0 
    1137 0000013c 5006          ORB       AL,#0x06              ; [CPU_] |285| 
    1138 0000013d 9601!         MOV       @_AdcbRegs+1,AL       ; [CPU_] |285| 
    1139                      .dwpsn  file "../motors/config.c",line 287,column 5,is_stmt,isa 0
    1140 0000013e D400          MOVB      XAR4,#0               ; [CPU_] |287| 
    1141 0000013f 9B00          MOVB      AH,#0                 ; [CPU_] |287| 
    1142 00000140 FF69          SPM       #0                    ; [CPU_] 
    1143 00000141 9A00          MOVB      AL,#0                 ; [CPU_] |287| 
    1144              $C$DW$111       .dwtag  DW_TAG_TI_branch
    1145                      .dwattr $C$DW$111, DW_AT_low_pc(0x00)
    1146                      .dwattr $C$DW$111, DW_AT_name("_AdcSetMode")
    1147                      .dwattr $C$DW$111, DW_AT_TI_call
    1148 00000142 7640!         LCR       #_AdcSetMode          ; [CPU_] |287| 
         00000143 0000 
    1149                      ; call occurs [#_AdcSetMode] ; [] |287| 
    1150                      .dwpsn  file "../motors/config.c",line 288,column 5,is_stmt,isa 0
    1151 00000144 9A01          MOVB      AL,#1                 ; [CPU_] |288| 
    1152 00000145 D400          MOVB      XAR4,#0               ; [CPU_] |288| 
    1153 00000146 9B00          MOVB      AH,#0                 ; [CPU_] |288| 
    1154              $C$DW$112       .dwtag  DW_TAG_TI_branch
    1155                      .dwattr $C$DW$112, DW_AT_low_pc(0x00)
    1156                      .dwattr $C$DW$112, DW_AT_name("_AdcSetMode")
    1157                      .dwattr $C$DW$112, DW_AT_TI_call
    1158 00000147 7640!         LCR       #_AdcSetMode          ; [CPU_] |288| 
         00000148 0000 
    1159                      ; call occurs [#_AdcSetMode] ; [] |288| 
    1160                      .dwpsn  file "../motors/config.c",line 291,column 2,is_stmt,isa 0
    1161 00000149 761F!         MOVW      DP,#_AdcaRegs         ; [CPU_U] 
         0000014a 0000 
    1162 0000014b 1A00!         OR        @_AdcaRegs,#0x0004    ; [CPU_] |291| 
         0000014c 0004 
    1163                      .dwpsn  file "../motors/config.c",line 292,column 2,is_stmt,isa 0
    1164 0000014d 761F!         MOVW      DP,#_AdcbRegs         ; [CPU_U] 
         0000014e 0000 
    1165 0000014f 1A00!         OR        @_AdcbRegs,#0x0004    ; [CPU_] |292| 
         00000150 0004 
    1166                      .dwpsn  file "../motors/config.c",line 295,column 2,is_stmt,isa 0
    1167 00000151 761F!         MOVW      DP,#_AdcaRegs         ; [CPU_U] 
         00000152 0000 
    1168 00000153 1A00!         OR        @_AdcaRegs,#0x0080    ; [CPU_] |295| 
         00000154 0080 
    1169                      .dwpsn  file "../motors/config.c",line 296,column 2,is_stmt,isa 0
    1170 00000155 761F!         MOVW      DP,#_AdcbRegs         ; [CPU_U] 
         00000156 0000 
    1171 00000157 1A00!         OR        @_AdcbRegs,#0x0080    ; [CPU_] |296| 
         00000158 0080 
    1172                      .dwpsn  file "../motors/config.c",line 299,column 2,is_stmt,isa 0
    1173 00000159 8F00          MOVL      XAR4,#39998           ; [CPU_U] |299| 
         0000015a 9C3E 
    1174 0000015b A8A9          MOVL      ACC,XAR4              ; [CPU_] |299| 
    1175              $C$DW$113       .dwtag  DW_TAG_TI_branch
    1176                      .dwattr $C$DW$113, DW_AT_low_pc(0x00)
    1177                      .dwattr $C$DW$113, DW_AT_name("_F28x_usDelay")
    1178                      .dwattr $C$DW$113, DW_AT_TI_call
    1179 0000015c 7640!         LCR       #_F28x_usDelay        ; [CPU_] |299| 
TMS320C2000 Assembler PC v6.4.2 Thu Dec 14 13:36:46 2017

Tools Copyright (c) 1996-2015 Texas Instruments Incorporated
config.asm                                                           PAGE   24

         0000015d 0000 
    1180                      ; call occurs [#_F28x_usDelay] ; [] |299| 
    1181                      .dwpsn  file "../motors/config.c",line 301,column 2,is_stmt,isa 0
    1182 0000015e 761A   EDIS
    1183                      .dwpsn  file "../motors/config.c",line 302,column 1,is_stmt,isa 0
    1184 0000015f FF69          SPM       #0                    ; [CPU_] 
    1185              $C$DW$114       .dwtag  DW_TAG_TI_branch
    1186                      .dwattr $C$DW$114, DW_AT_low_pc(0x00)
    1187                      .dwattr $C$DW$114, DW_AT_TI_return
    1188 00000160 0006          LRETR     ; [CPU_] 
    1189                      ; return occurs ; [] 
    1190                      .dwattr $C$DW$110, DW_AT_TI_end_file("../motors/config.c")
    1191                      .dwattr $C$DW$110, DW_AT_TI_end_line(0x12e)
    1192                      .dwattr $C$DW$110, DW_AT_TI_end_column(0x01)
    1193                      .dwendentry
    1194                      .dwendtag $C$DW$110
    1195              
    1196 00000161               .sect   ".text"
    1197                      .clink
    1198                      .global _PWM_1ch_UpDwnCnt_CNF
    1199              
    1200              $C$DW$115       .dwtag  DW_TAG_subprogram, DW_AT_name("PWM_1ch_UpDwnCnt_CNF")
    1201                      .dwattr $C$DW$115, DW_AT_low_pc(_PWM_1ch_UpDwnCnt_CNF)
    1202                      .dwattr $C$DW$115, DW_AT_high_pc(0x00)
    1203                      .dwattr $C$DW$115, DW_AT_TI_symbol_name("_PWM_1ch_UpDwnCnt_CNF")
    1204                      .dwattr $C$DW$115, DW_AT_external
    1205                      .dwattr $C$DW$115, DW_AT_TI_begin_file("../motors/config.c")
    1206                      .dwattr $C$DW$115, DW_AT_TI_begin_line(0x135)
    1207                      .dwattr $C$DW$115, DW_AT_TI_begin_column(0x06)
    1208                      .dwattr $C$DW$115, DW_AT_TI_max_frame_size(-6)
    1209                      .dwpsn  file "../motors/config.c",line 310,column 1,is_stmt,address _PWM_1ch_UpDwnCnt_CNF,isa 0
    1210              
    1211                      .dwfde $C$DW$CIE, _PWM_1ch_UpDwnCnt_CNF
    1212              $C$DW$116       .dwtag  DW_TAG_formal_parameter, DW_AT_name("ePWM")
    1213                      .dwattr $C$DW$116, DW_AT_TI_symbol_name("_ePWM")
    1214                      .dwattr $C$DW$116, DW_AT_type(*$C$DW$T$383)
    1215                      .dwattr $C$DW$116, DW_AT_location[DW_OP_reg12]
    1216              $C$DW$117       .dwtag  DW_TAG_formal_parameter, DW_AT_name("period")
    1217                      .dwattr $C$DW$117, DW_AT_TI_symbol_name("_period")
    1218                      .dwattr $C$DW$117, DW_AT_type(*$C$DW$T$19)
    1219                      .dwattr $C$DW$117, DW_AT_location[DW_OP_reg0]
    1220              $C$DW$118       .dwtag  DW_TAG_formal_parameter, DW_AT_name("db")
    1221                      .dwattr $C$DW$118, DW_AT_TI_symbol_name("_db")
    1222                      .dwattr $C$DW$118, DW_AT_type(*$C$DW$T$411)
    1223                      .dwattr $C$DW$118, DW_AT_location[DW_OP_reg1]
    1224              
    1225              ;***************************************************************
    1226              ;* FNAME: _PWM_1ch_UpDwnCnt_CNF         FR SIZE:   4           *
    1227              ;*                                                             *
    1228              ;* FUNCTION ENVIRONMENT                                        *
    1229              ;*                                                             *
    1230              ;* FUNCTION PROPERTIES                                         *
    1231              ;*                            0 Parameter,  4 Auto,  0 SOE     *
    1232              ;***************************************************************
    1233              
TMS320C2000 Assembler PC v6.4.2 Thu Dec 14 13:36:46 2017

Tools Copyright (c) 1996-2015 Texas Instruments Incorporated
config.asm                                                           PAGE   25

    1234 00000161       _PWM_1ch_UpDwnCnt_CNF:
    1235                      .dwcfi  cfa_offset, -2
    1236                      .dwcfi  save_reg_to_mem, 26, 0
    1237 00000161 FE04          ADDB      SP,#4                 ; [CPU_U] 
    1238                      .dwcfi  cfa_offset, -6
    1239              $C$DW$119       .dwtag  DW_TAG_variable, DW_AT_name("ePWM")
    1240                      .dwattr $C$DW$119, DW_AT_TI_symbol_name("_ePWM")
    1241                      .dwattr $C$DW$119, DW_AT_type(*$C$DW$T$383)
    1242                      .dwattr $C$DW$119, DW_AT_location[DW_OP_breg20 -2]
    1243              $C$DW$120       .dwtag  DW_TAG_variable, DW_AT_name("period")
    1244                      .dwattr $C$DW$120, DW_AT_TI_symbol_name("_period")
    1245                      .dwattr $C$DW$120, DW_AT_type(*$C$DW$T$19)
    1246                      .dwattr $C$DW$120, DW_AT_location[DW_OP_breg20 -3]
    1247              $C$DW$121       .dwtag  DW_TAG_variable, DW_AT_name("db")
    1248                      .dwattr $C$DW$121, DW_AT_TI_symbol_name("_db")
    1249                      .dwattr $C$DW$121, DW_AT_type(*$C$DW$T$411)
    1250                      .dwattr $C$DW$121, DW_AT_location[DW_OP_breg20 -4]
    1251 00000162 9744          MOV       *-SP[4],AH            ; [CPU_] |310| 
    1252 00000163 9643          MOV       *-SP[3],AL            ; [CPU_] |310| 
    1253 00000164 A842          MOVL      *-SP[2],XAR4          ; [CPU_] |310| 
    1254                      .dwpsn  file "../motors/config.c",line 311,column 2,is_stmt,isa 0
    1255 00000165 7622   EALLOW
    1256                      .dwpsn  file "../motors/config.c",line 313,column 2,is_stmt,isa 0
    1257 00000166 1AC4          OR        *+XAR4[0],#0x0008     ; [CPU_] |313| 
         00000167 0008 
    1258                      .dwpsn  file "../motors/config.c",line 314,column 2,is_stmt,isa 0
    1259 00000168 0263          MOVB      ACC,#99               ; [CPU_] |314| 
    1260 00000169 0742          ADDL      ACC,*-SP[2]           ; [CPU_] |314| 
    1261 0000016a 8AA9          MOVL      XAR4,ACC              ; [CPU_] |314| 
    1262 0000016b 9243          MOV       AL,*-SP[3]            ; [CPU_] |314| 
    1263 0000016c FFC0          LSR       AL,1                  ; [CPU_] |314| 
    1264 0000016d 96C4          MOV       *+XAR4[0],AL          ; [CPU_] |314| 
    1265                      .dwpsn  file "../motors/config.c",line 315,column 2,is_stmt,isa 0
    1266 0000016e 0261          MOVB      ACC,#97               ; [CPU_] |315| 
    1267 0000016f 0742          ADDL      ACC,*-SP[2]           ; [CPU_] |315| 
    1268 00000170 8AA9          MOVL      XAR4,ACC              ; [CPU_] |315| 
    1269 00000171 2BC4          MOV       *+XAR4[0],#0          ; [CPU_] |315| 
    1270                      .dwpsn  file "../motors/config.c",line 316,column 2,is_stmt,isa 0
    1271 00000172 8A42          MOVL      XAR4,*-SP[2]          ; [CPU_] |316| 
    1272 00000173 2BE4          MOV       *+XAR4[4],#0          ; [CPU_] |316| 
    1273                      .dwpsn  file "../motors/config.c",line 317,column 2,is_stmt,isa 0
    1274 00000174 8A42          MOVL      XAR4,*-SP[2]          ; [CPU_] |317| 
    1275 00000175 CCC4          AND       AL,*+XAR4[0],#0xfffc  ; [CPU_] |317| 
         00000176 FFFC 
    1276 00000177 5002          ORB       AL,#0x02              ; [CPU_] |317| 
    1277 00000178 96C4          MOV       *+XAR4[0],AL          ; [CPU_] |317| 
    1278                      .dwpsn  file "../motors/config.c",line 318,column 2,is_stmt,isa 0
    1279 00000179 8A42          MOVL      XAR4,*-SP[2]          ; [CPU_] |318| 
    1280 0000017a 18C4          AND       *+XAR4[0],#0xfc7f     ; [CPU_] |318| 
         0000017b FC7F 
    1281                      .dwpsn  file "../motors/config.c",line 319,column 2,is_stmt,isa 0
    1282 0000017c 8A42          MOVL      XAR4,*-SP[2]          ; [CPU_] |319| 
    1283 0000017d 18C4          AND       *+XAR4[0],#0xe3ff     ; [CPU_] |319| 
         0000017e E3FF 
    1284                      .dwpsn  file "../motors/config.c",line 321,column 2,is_stmt,isa 0
TMS320C2000 Assembler PC v6.4.2 Thu Dec 14 13:36:46 2017

Tools Copyright (c) 1996-2015 Texas Instruments Incorporated
config.asm                                                           PAGE   26

    1285 0000017f 8A42          MOVL      XAR4,*-SP[2]          ; [CPU_] |321| 
    1286 00000180 18C4          AND       *+XAR4[0],#0xfffb     ; [CPU_] |321| 
         00000181 FFFB 
    1287                      .dwpsn  file "../motors/config.c",line 322,column 2,is_stmt,isa 0
    1288 00000182 8A42          MOVL      XAR4,*-SP[2]          ; [CPU_] |322| 
    1289 00000183 CCC4          AND       AL,*+XAR4[0],#0xffcf  ; [CPU_] |322| 
         00000184 FFCF 
    1290 00000185 5010          ORB       AL,#0x10              ; [CPU_] |322| 
    1291 00000186 96C4          MOV       *+XAR4[0],AL          ; [CPU_] |322| 
    1292                      .dwpsn  file "../motors/config.c",line 325,column 2,is_stmt,isa 0
    1293 00000187 026B          MOVB      ACC,#107              ; [CPU_] |325| 
    1294 00000188 0742          ADDL      ACC,*-SP[2]           ; [CPU_] |325| 
    1295 00000189 8AA9          MOVL      XAR4,ACC              ; [CPU_] |325| 
    1296 0000018a 2BC4          MOV       *+XAR4[0],#0          ; [CPU_] |325| 
    1297                      .dwpsn  file "../motors/config.c",line 326,column 2,is_stmt,isa 0
    1298 0000018b 0208          MOVB      ACC,#8                ; [CPU_] |326| 
    1299 0000018c 0742          ADDL      ACC,*-SP[2]           ; [CPU_] |326| 
    1300 0000018d 8AA9          MOVL      XAR4,ACC              ; [CPU_] |326| 
    1301 0000018e 18C4          AND       *+XAR4[0],#0xffef     ; [CPU_] |326| 
         0000018f FFEF 
    1302                      .dwpsn  file "../motors/config.c",line 327,column 2,is_stmt,isa 0
    1303 00000190 0208          MOVB      ACC,#8                ; [CPU_] |327| 
    1304 00000191 0742          ADDL      ACC,*-SP[2]           ; [CPU_] |327| 
    1305 00000192 8AA9          MOVL      XAR4,ACC              ; [CPU_] |327| 
    1306 00000193 18C4          AND       *+XAR4[0],#0xfffc     ; [CPU_] |327| 
         00000194 FFFC 
    1307                      .dwpsn  file "../motors/config.c",line 330,column 2,is_stmt,isa 0
    1308 00000195 0240          MOVB      ACC,#64               ; [CPU_] |330| 
    1309 00000196 0742          ADDL      ACC,*-SP[2]           ; [CPU_] |330| 
    1310 00000197 8AA9          MOVL      XAR4,ACC              ; [CPU_] |330| 
    1311 00000198 CCC4          AND       AL,*+XAR4[0],#0xffcf  ; [CPU_] |330| 
         00000199 FFCF 
    1312 0000019a 5010          ORB       AL,#0x10              ; [CPU_] |330| 
    1313 0000019b 96C4          MOV       *+XAR4[0],AL          ; [CPU_] |330| 
    1314                      .dwpsn  file "../motors/config.c",line 331,column 2,is_stmt,isa 0
    1315 0000019c 0240          MOVB      ACC,#64               ; [CPU_] |331| 
    1316 0000019d 0742          ADDL      ACC,*-SP[2]           ; [CPU_] |331| 
    1317 0000019e 8AA9          MOVL      XAR4,ACC              ; [CPU_] |331| 
    1318 0000019f CCC4          AND       AL,*+XAR4[0],#0xff3f  ; [CPU_] |331| 
         000001a0 FF3F 
    1319 000001a1 5080          ORB       AL,#0x80              ; [CPU_] |331| 
    1320 000001a2 96C4          MOV       *+XAR4[0],AL          ; [CPU_] |331| 
    1321                      .dwpsn  file "../motors/config.c",line 334,column 2,is_stmt,isa 0
    1322 000001a3 020C          MOVB      ACC,#12               ; [CPU_] |334| 
    1323 000001a4 0742          ADDL      ACC,*-SP[2]           ; [CPU_] |334| 
    1324 000001a5 8AA9          MOVL      XAR4,ACC              ; [CPU_] |334| 
    1325 000001a6 18C4          AND       *+XAR4[0],#0xffcf     ; [CPU_] |334| 
         000001a7 FFCF 
    1326                      .dwpsn  file "../motors/config.c",line 335,column 2,is_stmt,isa 0
    1327 000001a8 020C          MOVB      ACC,#12               ; [CPU_] |335| 
    1328 000001a9 0742          ADDL      ACC,*-SP[2]           ; [CPU_] |335| 
    1329 000001aa 8AA9          MOVL      XAR4,ACC              ; [CPU_] |335| 
    1330 000001ab 1AC4          OR        *+XAR4[0],#0x0003     ; [CPU_] |335| 
         000001ac 0003 
    1331                      .dwpsn  file "../motors/config.c",line 336,column 2,is_stmt,isa 0
TMS320C2000 Assembler PC v6.4.2 Thu Dec 14 13:36:46 2017

Tools Copyright (c) 1996-2015 Texas Instruments Incorporated
config.asm                                                           PAGE   27

    1332 000001ad 020C          MOVB      ACC,#12               ; [CPU_] |336| 
    1333 000001ae 0742          ADDL      ACC,*-SP[2]           ; [CPU_] |336| 
    1334 000001af 8AA9          MOVL      XAR4,ACC              ; [CPU_] |336| 
    1335 000001b0 CCC4          AND       AL,*+XAR4[0],#0xfff3  ; [CPU_] |336| 
         000001b1 FFF3 
    1336 000001b2 5008          ORB       AL,#0x08              ; [CPU_] |336| 
    1337 000001b3 96C4          MOV       *+XAR4[0],AL          ; [CPU_] |336| 
    1338                      .dwpsn  file "../motors/config.c",line 342,column 2,is_stmt,isa 0
    1339 000001b4 8844          MOVZ      AR6,*-SP[4]           ; [CPU_] |342| 
    1340 000001b5 0251          MOVB      ACC,#81               ; [CPU_] |342| 
    1341 000001b6 0742          ADDL      ACC,*-SP[2]           ; [CPU_] |342| 
    1342 000001b7 8AA9          MOVL      XAR4,ACC              ; [CPU_] |342| 
    1343 000001b8 7EC4          MOV       *+XAR4[0],AR6         ; [CPU_] |342| 
    1344                      .dwpsn  file "../motors/config.c",line 343,column 2,is_stmt,isa 0
    1345 000001b9 8844          MOVZ      AR6,*-SP[4]           ; [CPU_] |343| 
    1346 000001ba 0253          MOVB      ACC,#83               ; [CPU_] |343| 
    1347 000001bb 0742          ADDL      ACC,*-SP[2]           ; [CPU_] |343| 
    1348 000001bc 8AA9          MOVL      XAR4,ACC              ; [CPU_] |343| 
    1349 000001bd 7EC4          MOV       *+XAR4[0],AR6         ; [CPU_] |343| 
    1350                      .dwpsn  file "../motors/config.c",line 346,column 2,is_stmt,isa 0
    1351 000001be 761A   EDIS
    1352                      .dwpsn  file "../motors/config.c",line 347,column 1,is_stmt,isa 0
    1353 000001bf FF69          SPM       #0                    ; [CPU_] 
    1354 000001c0 FE84          SUBB      SP,#4                 ; [CPU_U] 
    1355                      .dwcfi  cfa_offset, -2
    1356              $C$DW$122       .dwtag  DW_TAG_TI_branch
    1357                      .dwattr $C$DW$122, DW_AT_low_pc(0x00)
    1358                      .dwattr $C$DW$122, DW_AT_TI_return
    1359 000001c1 0006          LRETR     ; [CPU_] 
    1360                      ; return occurs ; [] 
    1361                      .dwattr $C$DW$115, DW_AT_TI_end_file("../motors/config.c")
    1362                      .dwattr $C$DW$115, DW_AT_TI_end_line(0x15b)
    1363                      .dwattr $C$DW$115, DW_AT_TI_end_column(0x01)
    1364                      .dwendentry
    1365                      .dwendtag $C$DW$115
    1366              
    1367 000001c2               .sect   ".text"
    1368                      .clink
    1369                      .global _PWM_1ch_UpDwnCnt_CNF_noDB
    1370              
    1371              $C$DW$123       .dwtag  DW_TAG_subprogram, DW_AT_name("PWM_1ch_UpDwnCnt_CNF_noDB")
    1372                      .dwattr $C$DW$123, DW_AT_low_pc(_PWM_1ch_UpDwnCnt_CNF_noDB)
    1373                      .dwattr $C$DW$123, DW_AT_high_pc(0x00)
    1374                      .dwattr $C$DW$123, DW_AT_TI_symbol_name("_PWM_1ch_UpDwnCnt_CNF_noDB")
    1375                      .dwattr $C$DW$123, DW_AT_external
    1376                      .dwattr $C$DW$123, DW_AT_TI_begin_file("../motors/config.c")
    1377                      .dwattr $C$DW$123, DW_AT_TI_begin_line(0x162)
    1378                      .dwattr $C$DW$123, DW_AT_TI_begin_column(0x06)
    1379                      .dwattr $C$DW$123, DW_AT_TI_max_frame_size(-6)
    1380                      .dwpsn  file "../motors/config.c",line 355,column 1,is_stmt,address _PWM_1ch_UpDwnCnt_CNF_noDB,isa 0
    1381              
    1382                      .dwfde $C$DW$CIE, _PWM_1ch_UpDwnCnt_CNF_noDB
    1383              $C$DW$124       .dwtag  DW_TAG_formal_parameter, DW_AT_name("ePWM")
    1384                      .dwattr $C$DW$124, DW_AT_TI_symbol_name("_ePWM")
    1385                      .dwattr $C$DW$124, DW_AT_type(*$C$DW$T$383)
TMS320C2000 Assembler PC v6.4.2 Thu Dec 14 13:36:46 2017

Tools Copyright (c) 1996-2015 Texas Instruments Incorporated
config.asm                                                           PAGE   28

    1386                      .dwattr $C$DW$124, DW_AT_location[DW_OP_reg12]
    1387              $C$DW$125       .dwtag  DW_TAG_formal_parameter, DW_AT_name("period")
    1388                      .dwattr $C$DW$125, DW_AT_TI_symbol_name("_period")
    1389                      .dwattr $C$DW$125, DW_AT_type(*$C$DW$T$19)
    1390                      .dwattr $C$DW$125, DW_AT_location[DW_OP_reg0]
    1391              
    1392              ;***************************************************************
    1393              ;* FNAME: _PWM_1ch_UpDwnCnt_CNF_noDB    FR SIZE:   4           *
    1394              ;*                                                             *
    1395              ;* FUNCTION ENVIRONMENT                                        *
    1396              ;*                                                             *
    1397              ;* FUNCTION PROPERTIES                                         *
    1398              ;*                            0 Parameter,  3 Auto,  0 SOE     *
    1399              ;***************************************************************
    1400              
    1401 000001c2       _PWM_1ch_UpDwnCnt_CNF_noDB:
    1402                      .dwcfi  cfa_offset, -2
    1403                      .dwcfi  save_reg_to_mem, 26, 0
    1404 000001c2 FE04          ADDB      SP,#4                 ; [CPU_U] 
    1405                      .dwcfi  cfa_offset, -6
    1406              $C$DW$126       .dwtag  DW_TAG_variable, DW_AT_name("ePWM")
    1407                      .dwattr $C$DW$126, DW_AT_TI_symbol_name("_ePWM")
    1408                      .dwattr $C$DW$126, DW_AT_type(*$C$DW$T$383)
    1409                      .dwattr $C$DW$126, DW_AT_location[DW_OP_breg20 -2]
    1410              $C$DW$127       .dwtag  DW_TAG_variable, DW_AT_name("period")
    1411                      .dwattr $C$DW$127, DW_AT_TI_symbol_name("_period")
    1412                      .dwattr $C$DW$127, DW_AT_type(*$C$DW$T$19)
    1413                      .dwattr $C$DW$127, DW_AT_location[DW_OP_breg20 -3]
    1414 000001c3 9643          MOV       *-SP[3],AL            ; [CPU_] |355| 
    1415 000001c4 A842          MOVL      *-SP[2],XAR4          ; [CPU_] |355| 
    1416                      .dwpsn  file "../motors/config.c",line 356,column 2,is_stmt,isa 0
    1417 000001c5 7622   EALLOW
    1418                      .dwpsn  file "../motors/config.c",line 358,column 2,is_stmt,isa 0
    1419 000001c6 1AC4          OR        *+XAR4[0],#0x0008     ; [CPU_] |358| 
         000001c7 0008 
    1420                      .dwpsn  file "../motors/config.c",line 359,column 2,is_stmt,isa 0
    1421 000001c8 0263          MOVB      ACC,#99               ; [CPU_] |359| 
    1422 000001c9 0742          ADDL      ACC,*-SP[2]           ; [CPU_] |359| 
    1423 000001ca 8AA9          MOVL      XAR4,ACC              ; [CPU_] |359| 
    1424 000001cb 9243          MOV       AL,*-SP[3]            ; [CPU_] |359| 
    1425 000001cc FFC0          LSR       AL,1                  ; [CPU_] |359| 
    1426 000001cd 96C4          MOV       *+XAR4[0],AL          ; [CPU_] |359| 
    1427                      .dwpsn  file "../motors/config.c",line 360,column 2,is_stmt,isa 0
    1428 000001ce 0261          MOVB      ACC,#97               ; [CPU_] |360| 
    1429 000001cf 0742          ADDL      ACC,*-SP[2]           ; [CPU_] |360| 
    1430 000001d0 8AA9          MOVL      XAR4,ACC              ; [CPU_] |360| 
    1431 000001d1 2BC4          MOV       *+XAR4[0],#0          ; [CPU_] |360| 
    1432                      .dwpsn  file "../motors/config.c",line 361,column 2,is_stmt,isa 0
    1433 000001d2 8A42          MOVL      XAR4,*-SP[2]          ; [CPU_] |361| 
    1434 000001d3 2BE4          MOV       *+XAR4[4],#0          ; [CPU_] |361| 
    1435                      .dwpsn  file "../motors/config.c",line 362,column 2,is_stmt,isa 0
    1436 000001d4 8A42          MOVL      XAR4,*-SP[2]          ; [CPU_] |362| 
    1437 000001d5 CCC4          AND       AL,*+XAR4[0],#0xfffc  ; [CPU_] |362| 
         000001d6 FFFC 
    1438 000001d7 5002          ORB       AL,#0x02              ; [CPU_] |362| 
TMS320C2000 Assembler PC v6.4.2 Thu Dec 14 13:36:46 2017

Tools Copyright (c) 1996-2015 Texas Instruments Incorporated
config.asm                                                           PAGE   29

    1439 000001d8 96C4          MOV       *+XAR4[0],AL          ; [CPU_] |362| 
    1440                      .dwpsn  file "../motors/config.c",line 363,column 2,is_stmt,isa 0
    1441 000001d9 8A42          MOVL      XAR4,*-SP[2]          ; [CPU_] |363| 
    1442 000001da 18C4          AND       *+XAR4[0],#0xfc7f     ; [CPU_] |363| 
         000001db FC7F 
    1443                      .dwpsn  file "../motors/config.c",line 364,column 2,is_stmt,isa 0
    1444 000001dc 8A42          MOVL      XAR4,*-SP[2]          ; [CPU_] |364| 
    1445 000001dd 18C4          AND       *+XAR4[0],#0xe3ff     ; [CPU_] |364| 
         000001de E3FF 
    1446                      .dwpsn  file "../motors/config.c",line 366,column 2,is_stmt,isa 0
    1447 000001df 8A42          MOVL      XAR4,*-SP[2]          ; [CPU_] |366| 
    1448 000001e0 18C4          AND       *+XAR4[0],#0xfffb     ; [CPU_] |366| 
         000001e1 FFFB 
    1449                      .dwpsn  file "../motors/config.c",line 367,column 2,is_stmt,isa 0
    1450 000001e2 8A42          MOVL      XAR4,*-SP[2]          ; [CPU_] |367| 
    1451 000001e3 CCC4          AND       AL,*+XAR4[0],#0xffcf  ; [CPU_] |367| 
         000001e4 FFCF 
    1452 000001e5 5010          ORB       AL,#0x10              ; [CPU_] |367| 
    1453 000001e6 96C4          MOV       *+XAR4[0],AL          ; [CPU_] |367| 
    1454                      .dwpsn  file "../motors/config.c",line 370,column 2,is_stmt,isa 0
    1455 000001e7 026B          MOVB      ACC,#107              ; [CPU_] |370| 
    1456 000001e8 0742          ADDL      ACC,*-SP[2]           ; [CPU_] |370| 
    1457 000001e9 8AA9          MOVL      XAR4,ACC              ; [CPU_] |370| 
    1458 000001ea 2BC4          MOV       *+XAR4[0],#0          ; [CPU_] |370| 
    1459                      .dwpsn  file "../motors/config.c",line 371,column 2,is_stmt,isa 0
    1460 000001eb 0208          MOVB      ACC,#8                ; [CPU_] |371| 
    1461 000001ec 0742          ADDL      ACC,*-SP[2]           ; [CPU_] |371| 
    1462 000001ed 8AA9          MOVL      XAR4,ACC              ; [CPU_] |371| 
    1463 000001ee 18C4          AND       *+XAR4[0],#0xffef     ; [CPU_] |371| 
         000001ef FFEF 
    1464                      .dwpsn  file "../motors/config.c",line 372,column 2,is_stmt,isa 0
    1465 000001f0 0208          MOVB      ACC,#8                ; [CPU_] |372| 
    1466 000001f1 0742          ADDL      ACC,*-SP[2]           ; [CPU_] |372| 
    1467 000001f2 8AA9          MOVL      XAR4,ACC              ; [CPU_] |372| 
    1468 000001f3 18C4          AND       *+XAR4[0],#0xfffc     ; [CPU_] |372| 
         000001f4 FFFC 
    1469                      .dwpsn  file "../motors/config.c",line 375,column 2,is_stmt,isa 0
    1470 000001f5 0240          MOVB      ACC,#64               ; [CPU_] |375| 
    1471 000001f6 0742          ADDL      ACC,*-SP[2]           ; [CPU_] |375| 
    1472 000001f7 8AA9          MOVL      XAR4,ACC              ; [CPU_] |375| 
    1473 000001f8 CCC4          AND       AL,*+XAR4[0],#0xffcf  ; [CPU_] |375| 
         000001f9 FFCF 
    1474 000001fa 5010          ORB       AL,#0x10              ; [CPU_] |375| 
    1475 000001fb 96C4          MOV       *+XAR4[0],AL          ; [CPU_] |375| 
    1476                      .dwpsn  file "../motors/config.c",line 376,column 2,is_stmt,isa 0
    1477 000001fc 0240          MOVB      ACC,#64               ; [CPU_] |376| 
    1478 000001fd 0742          ADDL      ACC,*-SP[2]           ; [CPU_] |376| 
    1479 000001fe 8AA9          MOVL      XAR4,ACC              ; [CPU_] |376| 
    1480 000001ff CCC4          AND       AL,*+XAR4[0],#0xff3f  ; [CPU_] |376| 
         00000200 FF3F 
    1481 00000201 5080          ORB       AL,#0x80              ; [CPU_] |376| 
    1482 00000202 96C4          MOV       *+XAR4[0],AL          ; [CPU_] |376| 
    1483                      .dwpsn  file "../motors/config.c",line 379,column 2,is_stmt,isa 0
    1484 00000203 020C          MOVB      ACC,#12               ; [CPU_] |379| 
    1485 00000204 0742          ADDL      ACC,*-SP[2]           ; [CPU_] |379| 
TMS320C2000 Assembler PC v6.4.2 Thu Dec 14 13:36:46 2017

Tools Copyright (c) 1996-2015 Texas Instruments Incorporated
config.asm                                                           PAGE   30

    1486 00000205 8AA9          MOVL      XAR4,ACC              ; [CPU_] |379| 
    1487 00000206 18C4          AND       *+XAR4[0],#0xfffc     ; [CPU_] |379| 
         00000207 FFFC 
    1488                      .dwpsn  file "../motors/config.c",line 380,column 2,is_stmt,isa 0
    1489 00000208 761A   EDIS
    1490                      .dwpsn  file "../motors/config.c",line 381,column 1,is_stmt,isa 0
    1491 00000209 FF69          SPM       #0                    ; [CPU_] 
    1492 0000020a FE84          SUBB      SP,#4                 ; [CPU_U] 
    1493                      .dwcfi  cfa_offset, -2
    1494              $C$DW$128       .dwtag  DW_TAG_TI_branch
    1495                      .dwattr $C$DW$128, DW_AT_low_pc(0x00)
    1496                      .dwattr $C$DW$128, DW_AT_TI_return
    1497 0000020b 0006          LRETR     ; [CPU_] 
    1498                      ; return occurs ; [] 
    1499                      .dwattr $C$DW$123, DW_AT_TI_end_file("../motors/config.c")
    1500                      .dwattr $C$DW$123, DW_AT_TI_end_line(0x17d)
    1501                      .dwattr $C$DW$123, DW_AT_TI_end_column(0x01)
    1502                      .dwendentry
    1503                      .dwendtag $C$DW$123
    1504              
    1505 0000020c               .sect   ".text"
    1506                      .clink
    1507                      .global _InitSpiRegs_DRV830x
    1508              
    1509              $C$DW$129       .dwtag  DW_TAG_subprogram, DW_AT_name("InitSpiRegs_DRV830x")
    1510                      .dwattr $C$DW$129, DW_AT_low_pc(_InitSpiRegs_DRV830x)
    1511                      .dwattr $C$DW$129, DW_AT_high_pc(0x00)
    1512                      .dwattr $C$DW$129, DW_AT_TI_symbol_name("_InitSpiRegs_DRV830x")
    1513                      .dwattr $C$DW$129, DW_AT_external
    1514                      .dwattr $C$DW$129, DW_AT_TI_begin_file("../motors/config.c")
    1515                      .dwattr $C$DW$129, DW_AT_TI_begin_line(0x184)
    1516                      .dwattr $C$DW$129, DW_AT_TI_begin_column(0x06)
    1517                      .dwattr $C$DW$129, DW_AT_TI_max_frame_size(-4)
    1518                      .dwpsn  file "../motors/config.c",line 389,column 1,is_stmt,address _InitSpiRegs_DRV830x,isa 0
    1519              
    1520                      .dwfde $C$DW$CIE, _InitSpiRegs_DRV830x
    1521              $C$DW$130       .dwtag  DW_TAG_formal_parameter, DW_AT_name("s")
    1522                      .dwattr $C$DW$130, DW_AT_TI_symbol_name("_s")
    1523                      .dwattr $C$DW$130, DW_AT_type(*$C$DW$T$393)
    1524                      .dwattr $C$DW$130, DW_AT_location[DW_OP_reg12]
    1525              
    1526              ;***************************************************************
    1527              ;* FNAME: _InitSpiRegs_DRV830x          FR SIZE:   2           *
    1528              ;*                                                             *
    1529              ;* FUNCTION ENVIRONMENT                                        *
    1530              ;*                                                             *
    1531              ;* FUNCTION PROPERTIES                                         *
    1532              ;*                            0 Parameter,  2 Auto,  0 SOE     *
    1533              ;***************************************************************
    1534              
    1535 0000020c       _InitSpiRegs_DRV830x:
    1536                      .dwcfi  cfa_offset, -2
    1537                      .dwcfi  save_reg_to_mem, 26, 0
    1538 0000020c FE02          ADDB      SP,#2                 ; [CPU_U] 
    1539                      .dwcfi  cfa_offset, -4
TMS320C2000 Assembler PC v6.4.2 Thu Dec 14 13:36:46 2017

Tools Copyright (c) 1996-2015 Texas Instruments Incorporated
config.asm                                                           PAGE   31

    1540              $C$DW$131       .dwtag  DW_TAG_variable, DW_AT_name("s")
    1541                      .dwattr $C$DW$131, DW_AT_TI_symbol_name("_s")
    1542                      .dwattr $C$DW$131, DW_AT_type(*$C$DW$T$393)
    1543                      .dwattr $C$DW$131, DW_AT_location[DW_OP_breg20 -2]
    1544 0000020d A842          MOVL      *-SP[2],XAR4          ; [CPU_] |389| 
    1545                      .dwpsn  file "../motors/config.c",line 390,column 2,is_stmt,isa 0
    1546 0000020e 18C4          AND       *+XAR4[0],#0xff7f     ; [CPU_] |390| 
         0000020f FF7F 
    1547                      .dwpsn  file "../motors/config.c",line 391,column 2,is_stmt,isa 0
    1548 00000210 8A42          MOVL      XAR4,*-SP[2]          ; [CPU_] |391| 
    1549 00000211 1AC4          OR        *+XAR4[0],#0x000f     ; [CPU_] |391| 
         00000212 000F 
    1550                      .dwpsn  file "../motors/config.c",line 392,column 2,is_stmt,isa 0
    1551 00000213 8A42          MOVL      XAR4,*-SP[2]          ; [CPU_] |392| 
    1552 00000214 18C4          AND       *+XAR4[0],#0xffef     ; [CPU_] |392| 
         00000215 FFEF 
    1553                      .dwpsn  file "../motors/config.c",line 393,column 2,is_stmt,isa 0
    1554 00000216 8A42          MOVL      XAR4,*-SP[2]          ; [CPU_] |393| 
    1555 00000217 18C4          AND       *+XAR4[0],#0xffbf     ; [CPU_] |393| 
         00000218 FFBF 
    1556                      .dwpsn  file "../motors/config.c",line 395,column 2,is_stmt,isa 0
    1557 00000219 8A42          MOVL      XAR4,*-SP[2]          ; [CPU_] |395| 
    1558 0000021a 18CC          AND       *+XAR4[1],#0xfffe     ; [CPU_] |395| 
         0000021b FFFE 
    1559                      .dwpsn  file "../motors/config.c",line 396,column 2,is_stmt,isa 0
    1560 0000021c 8A42          MOVL      XAR4,*-SP[2]          ; [CPU_] |396| 
    1561 0000021d 1ACC          OR        *+XAR4[1],#0x0002     ; [CPU_] |396| 
         0000021e 0002 
    1562                      .dwpsn  file "../motors/config.c",line 397,column 2,is_stmt,isa 0
    1563 0000021f 8A42          MOVL      XAR4,*-SP[2]          ; [CPU_] |397| 
    1564 00000220 1ACC          OR        *+XAR4[1],#0x0004     ; [CPU_] |397| 
         00000221 0004 
    1565                      .dwpsn  file "../motors/config.c",line 398,column 2,is_stmt,isa 0
    1566 00000222 8A42          MOVL      XAR4,*-SP[2]          ; [CPU_] |398| 
    1567 00000223 18CC          AND       *+XAR4[1],#0xfff7     ; [CPU_] |398| 
         00000224 FFF7 
    1568                      .dwpsn  file "../motors/config.c",line 399,column 2,is_stmt,isa 0
    1569 00000225 8A42          MOVL      XAR4,*-SP[2]          ; [CPU_] |399| 
    1570 00000226 18CC          AND       *+XAR4[1],#0xffef     ; [CPU_] |399| 
         00000227 FFEF 
    1571                      .dwpsn  file "../motors/config.c",line 401,column 2,is_stmt,isa 0
    1572 00000228 0204          MOVB      ACC,#4                ; [CPU_] |401| 
    1573 00000229 0742          ADDL      ACC,*-SP[2]           ; [CPU_] |401| 
    1574 0000022a 8AA9          MOVL      XAR4,ACC              ; [CPU_] |401| 
    1575 0000022b CCC4          AND       AL,*+XAR4[0],#0xff80  ; [CPU_] |401| 
         0000022c FF80 
    1576 0000022d 5013          ORB       AL,#0x13              ; [CPU_] |401| 
    1577 0000022e 96C4          MOV       *+XAR4[0],AL          ; [CPU_] |401| 
    1578                      .dwpsn  file "../motors/config.c",line 403,column 2,is_stmt,isa 0
    1579 0000022f 8A42          MOVL      XAR4,*-SP[2]          ; [CPU_] |403| 
    1580 00000230 1AC4          OR        *+XAR4[0],#0x0080     ; [CPU_] |403| 
         00000231 0080 
    1581                      .dwpsn  file "../motors/config.c",line 404,column 1,is_stmt,isa 0
    1582 00000232 FE82          SUBB      SP,#2                 ; [CPU_U] 
    1583                      .dwcfi  cfa_offset, -2
TMS320C2000 Assembler PC v6.4.2 Thu Dec 14 13:36:46 2017

Tools Copyright (c) 1996-2015 Texas Instruments Incorporated
config.asm                                                           PAGE   32

    1584              $C$DW$132       .dwtag  DW_TAG_TI_branch
    1585                      .dwattr $C$DW$132, DW_AT_low_pc(0x00)
    1586                      .dwattr $C$DW$132, DW_AT_TI_return
    1587 00000233 0006          LRETR     ; [CPU_] 
    1588                      ; return occurs ; [] 
    1589                      .dwattr $C$DW$129, DW_AT_TI_end_file("../motors/config.c")
    1590                      .dwattr $C$DW$129, DW_AT_TI_end_line(0x194)
    1591                      .dwattr $C$DW$129, DW_AT_TI_end_column(0x01)
    1592                      .dwendentry
    1593                      .dwendtag $C$DW$129
    1594              
    1595              ;**************************************************************
    1596              ;* UNDEFINED EXTERNAL REFERENCES                              *
    1597              ;**************************************************************
    1598                      .global _AdcSetMode
    1599                      .global _GPIO_SetupPinMux
    1600                      .global _InitFlash_Bank0
    1601                      .global _InitSysPll
    1602                      .global _DisableDog
    1603                      .global _F28x_usDelay
    1604                      .global _GPIO_WritePin
    1605                      .global _GPIO_SetupPinOptions
    1606                      .global _GPIO_EnableUnbondedIOPullups
    1607                      .global _InitPeripheralClocks
    1608                      .global _RamfuncsLoadSize
    1609                      .global _RamfuncsLoadStart
    1610                      .global _RamfuncsRunStart
    1611                      .global _AnalogSubsysRegs
    1612                      .global _AdcbRegs
    1613                      .global _AdcaRegs
    1614                      .global _CpuSysRegs
    1615                      .global _memcpy
    1616              
    1617              ;***************************************************************
    1618              ;* TYPE INFORMATION                                            *
    1619              ;***************************************************************
    1620              
    1621              $C$DW$T$20      .dwtag  DW_TAG_structure_type
    1622                      .dwattr $C$DW$T$20, DW_AT_name("ADCBURSTCTL_BITS")
    1623                      .dwattr $C$DW$T$20, DW_AT_byte_size(0x01)
    1624              $C$DW$133       .dwtag  DW_TAG_member
    1625                      .dwattr $C$DW$133, DW_AT_type(*$C$DW$T$19)
    1626                      .dwattr $C$DW$133, DW_AT_name("BURSTTRIGSEL")
    1627                      .dwattr $C$DW$133, DW_AT_TI_symbol_name("_BURSTTRIGSEL")
    1628                      .dwattr $C$DW$133, DW_AT_bit_offset(0x0a), DW_AT_bit_size(0x06)
    1629                      .dwattr $C$DW$133, DW_AT_data_member_location[DW_OP_plus_uconst 0x0]
    1630                      .dwattr $C$DW$133, DW_AT_accessibility(DW_ACCESS_public)
    1631              $C$DW$134       .dwtag  DW_TAG_member
    1632                      .dwattr $C$DW$134, DW_AT_type(*$C$DW$T$19)
    1633                      .dwattr $C$DW$134, DW_AT_name("rsvd1")
    1634                      .dwattr $C$DW$134, DW_AT_TI_symbol_name("_rsvd1")
    1635                      .dwattr $C$DW$134, DW_AT_bit_offset(0x08), DW_AT_bit_size(0x02)
    1636                      .dwattr $C$DW$134, DW_AT_data_member_location[DW_OP_plus_uconst 0x0]
    1637                      .dwattr $C$DW$134, DW_AT_accessibility(DW_ACCESS_public)
    1638              $C$DW$135       .dwtag  DW_TAG_member
TMS320C2000 Assembler PC v6.4.2 Thu Dec 14 13:36:46 2017

Tools Copyright (c) 1996-2015 Texas Instruments Incorporated
config.asm                                                           PAGE   33

    1639                      .dwattr $C$DW$135, DW_AT_type(*$C$DW$T$19)
    1640                      .dwattr $C$DW$135, DW_AT_name("BURSTSIZE")
    1641                      .dwattr $C$DW$135, DW_AT_TI_symbol_name("_BURSTSIZE")
    1642                      .dwattr $C$DW$135, DW_AT_bit_offset(0x04), DW_AT_bit_size(0x04)
    1643                      .dwattr $C$DW$135, DW_AT_data_member_location[DW_OP_plus_uconst 0x0]
    1644                      .dwattr $C$DW$135, DW_AT_accessibility(DW_ACCESS_public)
    1645              $C$DW$136       .dwtag  DW_TAG_member
    1646                      .dwattr $C$DW$136, DW_AT_type(*$C$DW$T$19)
    1647                      .dwattr $C$DW$136, DW_AT_name("rsvd2")
    1648                      .dwattr $C$DW$136, DW_AT_TI_symbol_name("_rsvd2")
    1649                      .dwattr $C$DW$136, DW_AT_bit_offset(0x01), DW_AT_bit_size(0x03)
    1650                      .dwattr $C$DW$136, DW_AT_data_member_location[DW_OP_plus_uconst 0x0]
    1651                      .dwattr $C$DW$136, DW_AT_accessibility(DW_ACCESS_public)
    1652              $C$DW$137       .dwtag  DW_TAG_member
    1653                      .dwattr $C$DW$137, DW_AT_type(*$C$DW$T$19)
    1654                      .dwattr $C$DW$137, DW_AT_name("BURSTEN")
    1655                      .dwattr $C$DW$137, DW_AT_TI_symbol_name("_BURSTEN")
    1656                      .dwattr $C$DW$137, DW_AT_bit_offset(0x00), DW_AT_bit_size(0x01)
    1657                      .dwattr $C$DW$137, DW_AT_data_member_location[DW_OP_plus_uconst 0x0]
    1658                      .dwattr $C$DW$137, DW_AT_accessibility(DW_ACCESS_public)
    1659                      .dwendtag $C$DW$T$20
    1660              
    1661              
    1662              $C$DW$T$21      .dwtag  DW_TAG_union_type
    1663                      .dwattr $C$DW$T$21, DW_AT_name("ADCBURSTCTL_REG")
    1664                      .dwattr $C$DW$T$21, DW_AT_byte_size(0x01)
    1665              $C$DW$138       .dwtag  DW_TAG_member
    1666                      .dwattr $C$DW$138, DW_AT_type(*$C$DW$T$19)
    1667                      .dwattr $C$DW$138, DW_AT_name("all")
    1668                      .dwattr $C$DW$138, DW_AT_TI_symbol_name("_all")
    1669                      .dwattr $C$DW$138, DW_AT_data_member_location[DW_OP_plus_uconst 0x0]
    1670                      .dwattr $C$DW$138, DW_AT_accessibility(DW_ACCESS_public)
    1671              $C$DW$139       .dwtag  DW_TAG_member
    1672                      .dwattr $C$DW$139, DW_AT_type(*$C$DW$T$20)
    1673                      .dwattr $C$DW$139, DW_AT_name("bit")
    1674                      .dwattr $C$DW$139, DW_AT_TI_symbol_name("_bit")
    1675                      .dwattr $C$DW$139, DW_AT_data_member_location[DW_OP_plus_uconst 0x0]
    1676                      .dwattr $C$DW$139, DW_AT_accessibility(DW_ACCESS_public)
    1677                      .dwendtag $C$DW$T$21
    1678              
    1679              
    1680              $C$DW$T$22      .dwtag  DW_TAG_structure_type
    1681                      .dwattr $C$DW$T$22, DW_AT_name("ADCCOUNTER_BITS")
    1682                      .dwattr $C$DW$T$22, DW_AT_byte_size(0x01)
    1683              $C$DW$140       .dwtag  DW_TAG_member
    1684                      .dwattr $C$DW$140, DW_AT_type(*$C$DW$T$19)
    1685                      .dwattr $C$DW$140, DW_AT_name("FREECOUNT")
    1686                      .dwattr $C$DW$140, DW_AT_TI_symbol_name("_FREECOUNT")
    1687                      .dwattr $C$DW$140, DW_AT_bit_offset(0x04), DW_AT_bit_size(0x0c)
    1688                      .dwattr $C$DW$140, DW_AT_data_member_location[DW_OP_plus_uconst 0x0]
    1689                      .dwattr $C$DW$140, DW_AT_accessibility(DW_ACCESS_public)
    1690              $C$DW$141       .dwtag  DW_TAG_member
    1691                      .dwattr $C$DW$141, DW_AT_type(*$C$DW$T$19)
    1692                      .dwattr $C$DW$141, DW_AT_name("rsvd1")
    1693                      .dwattr $C$DW$141, DW_AT_TI_symbol_name("_rsvd1")
TMS320C2000 Assembler PC v6.4.2 Thu Dec 14 13:36:46 2017

Tools Copyright (c) 1996-2015 Texas Instruments Incorporated
config.asm                                                           PAGE   34

    1694                      .dwattr $C$DW$141, DW_AT_bit_offset(0x00), DW_AT_bit_size(0x04)
    1695                      .dwattr $C$DW$141, DW_AT_data_member_location[DW_OP_plus_uconst 0x0]
    1696                      .dwattr $C$DW$141, DW_AT_accessibility(DW_ACCESS_public)
    1697                      .dwendtag $C$DW$T$22
    1698              
    1699              
    1700              $C$DW$T$23      .dwtag  DW_TAG_union_type
    1701                      .dwattr $C$DW$T$23, DW_AT_name("ADCCOUNTER_REG")
    1702                      .dwattr $C$DW$T$23, DW_AT_byte_size(0x01)
    1703              $C$DW$142       .dwtag  DW_TAG_member
    1704                      .dwattr $C$DW$142, DW_AT_type(*$C$DW$T$19)
    1705                      .dwattr $C$DW$142, DW_AT_name("all")
    1706                      .dwattr $C$DW$142, DW_AT_TI_symbol_name("_all")
    1707                      .dwattr $C$DW$142, DW_AT_data_member_location[DW_OP_plus_uconst 0x0]
    1708                      .dwattr $C$DW$142, DW_AT_accessibility(DW_ACCESS_public)
    1709              $C$DW$143       .dwtag  DW_TAG_member
    1710                      .dwattr $C$DW$143, DW_AT_type(*$C$DW$T$22)
    1711                      .dwattr $C$DW$143, DW_AT_name("bit")
    1712                      .dwattr $C$DW$143, DW_AT_TI_symbol_name("_bit")
    1713                      .dwattr $C$DW$143, DW_AT_data_member_location[DW_OP_plus_uconst 0x0]
    1714                      .dwattr $C$DW$143, DW_AT_accessibility(DW_ACCESS_public)
    1715                      .dwendtag $C$DW$T$23
    1716              
    1717              
    1718              $C$DW$T$24      .dwtag  DW_TAG_structure_type
    1719                      .dwattr $C$DW$T$24, DW_AT_name("ADCCTL1_BITS")
    1720                      .dwattr $C$DW$T$24, DW_AT_byte_size(0x01)
    1721              $C$DW$144       .dwtag  DW_TAG_member
    1722                      .dwattr $C$DW$144, DW_AT_type(*$C$DW$T$19)
    1723                      .dwattr $C$DW$144, DW_AT_name("rsvd1")
    1724                      .dwattr $C$DW$144, DW_AT_TI_symbol_name("_rsvd1")
    1725                      .dwattr $C$DW$144, DW_AT_bit_offset(0x0e), DW_AT_bit_size(0x02)
    1726                      .dwattr $C$DW$144, DW_AT_data_member_location[DW_OP_plus_uconst 0x0]
    1727                      .dwattr $C$DW$144, DW_AT_accessibility(DW_ACCESS_public)
    1728              $C$DW$145       .dwtag  DW_TAG_member
    1729                      .dwattr $C$DW$145, DW_AT_type(*$C$DW$T$19)
    1730                      .dwattr $C$DW$145, DW_AT_name("INTPULSEPOS")
    1731                      .dwattr $C$DW$145, DW_AT_TI_symbol_name("_INTPULSEPOS")
    1732                      .dwattr $C$DW$145, DW_AT_bit_offset(0x0d), DW_AT_bit_size(0x01)
    1733                      .dwattr $C$DW$145, DW_AT_data_member_location[DW_OP_plus_uconst 0x0]
    1734                      .dwattr $C$DW$145, DW_AT_accessibility(DW_ACCESS_public)
    1735              $C$DW$146       .dwtag  DW_TAG_member
    1736                      .dwattr $C$DW$146, DW_AT_type(*$C$DW$T$19)
    1737                      .dwattr $C$DW$146, DW_AT_name("rsvd2")
    1738                      .dwattr $C$DW$146, DW_AT_TI_symbol_name("_rsvd2")
    1739                      .dwattr $C$DW$146, DW_AT_bit_offset(0x09), DW_AT_bit_size(0x04)
    1740                      .dwattr $C$DW$146, DW_AT_data_member_location[DW_OP_plus_uconst 0x0]
    1741                      .dwattr $C$DW$146, DW_AT_accessibility(DW_ACCESS_public)
    1742              $C$DW$147       .dwtag  DW_TAG_member
    1743                      .dwattr $C$DW$147, DW_AT_type(*$C$DW$T$19)
    1744                      .dwattr $C$DW$147, DW_AT_name("ADCPWDNZ")
    1745                      .dwattr $C$DW$147, DW_AT_TI_symbol_name("_ADCPWDNZ")
    1746                      .dwattr $C$DW$147, DW_AT_bit_offset(0x08), DW_AT_bit_size(0x01)
    1747                      .dwattr $C$DW$147, DW_AT_data_member_location[DW_OP_plus_uconst 0x0]
    1748                      .dwattr $C$DW$147, DW_AT_accessibility(DW_ACCESS_public)
TMS320C2000 Assembler PC v6.4.2 Thu Dec 14 13:36:46 2017

Tools Copyright (c) 1996-2015 Texas Instruments Incorporated
config.asm                                                           PAGE   35

    1749              $C$DW$148       .dwtag  DW_TAG_member
    1750                      .dwattr $C$DW$148, DW_AT_type(*$C$DW$T$19)
    1751                      .dwattr $C$DW$148, DW_AT_name("ADCBSYCHN")
    1752                      .dwattr $C$DW$148, DW_AT_TI_symbol_name("_ADCBSYCHN")
    1753                      .dwattr $C$DW$148, DW_AT_bit_offset(0x04), DW_AT_bit_size(0x04)
    1754                      .dwattr $C$DW$148, DW_AT_data_member_location[DW_OP_plus_uconst 0x0]
    1755                      .dwattr $C$DW$148, DW_AT_accessibility(DW_ACCESS_public)
    1756              $C$DW$149       .dwtag  DW_TAG_member
    1757                      .dwattr $C$DW$149, DW_AT_type(*$C$DW$T$19)
    1758                      .dwattr $C$DW$149, DW_AT_name("rsvd3")
    1759                      .dwattr $C$DW$149, DW_AT_TI_symbol_name("_rsvd3")
    1760                      .dwattr $C$DW$149, DW_AT_bit_offset(0x03), DW_AT_bit_size(0x01)
    1761                      .dwattr $C$DW$149, DW_AT_data_member_location[DW_OP_plus_uconst 0x0]
    1762                      .dwattr $C$DW$149, DW_AT_accessibility(DW_ACCESS_public)
    1763              $C$DW$150       .dwtag  DW_TAG_member
    1764                      .dwattr $C$DW$150, DW_AT_type(*$C$DW$T$19)
    1765                      .dwattr $C$DW$150, DW_AT_name("ADCBSY")
    1766                      .dwattr $C$DW$150, DW_AT_TI_symbol_name("_ADCBSY")
    1767                      .dwattr $C$DW$150, DW_AT_bit_offset(0x02), DW_AT_bit_size(0x01)
    1768                      .dwattr $C$DW$150, DW_AT_data_member_location[DW_OP_plus_uconst 0x0]
    1769                      .dwattr $C$DW$150, DW_AT_accessibility(DW_ACCESS_public)
    1770              $C$DW$151       .dwtag  DW_TAG_member
    1771                      .dwattr $C$DW$151, DW_AT_type(*$C$DW$T$19)
    1772                      .dwattr $C$DW$151, DW_AT_name("rsvd4")
    1773                      .dwattr $C$DW$151, DW_AT_TI_symbol_name("_rsvd4")
    1774                      .dwattr $C$DW$151, DW_AT_bit_offset(0x00), DW_AT_bit_size(0x02)
    1775                      .dwattr $C$DW$151, DW_AT_data_member_location[DW_OP_plus_uconst 0x0]
    1776                      .dwattr $C$DW$151, DW_AT_accessibility(DW_ACCESS_public)
    1777                      .dwendtag $C$DW$T$24
    1778              
    1779              
    1780              $C$DW$T$25      .dwtag  DW_TAG_union_type
    1781                      .dwattr $C$DW$T$25, DW_AT_name("ADCCTL1_REG")
    1782                      .dwattr $C$DW$T$25, DW_AT_byte_size(0x01)
    1783              $C$DW$152       .dwtag  DW_TAG_member
    1784                      .dwattr $C$DW$152, DW_AT_type(*$C$DW$T$19)
    1785                      .dwattr $C$DW$152, DW_AT_name("all")
    1786                      .dwattr $C$DW$152, DW_AT_TI_symbol_name("_all")
    1787                      .dwattr $C$DW$152, DW_AT_data_member_location[DW_OP_plus_uconst 0x0]
    1788                      .dwattr $C$DW$152, DW_AT_accessibility(DW_ACCESS_public)
    1789              $C$DW$153       .dwtag  DW_TAG_member
    1790                      .dwattr $C$DW$153, DW_AT_type(*$C$DW$T$24)
    1791                      .dwattr $C$DW$153, DW_AT_name("bit")
    1792                      .dwattr $C$DW$153, DW_AT_TI_symbol_name("_bit")
    1793                      .dwattr $C$DW$153, DW_AT_data_member_location[DW_OP_plus_uconst 0x0]
    1794                      .dwattr $C$DW$153, DW_AT_accessibility(DW_ACCESS_public)
    1795                      .dwendtag $C$DW$T$25
    1796              
    1797              
    1798              $C$DW$T$26      .dwtag  DW_TAG_structure_type
    1799                      .dwattr $C$DW$T$26, DW_AT_name("ADCCTL2_BITS")
    1800                      .dwattr $C$DW$T$26, DW_AT_byte_size(0x01)
    1801              $C$DW$154       .dwtag  DW_TAG_member
    1802                      .dwattr $C$DW$154, DW_AT_type(*$C$DW$T$19)
    1803                      .dwattr $C$DW$154, DW_AT_name("PRESCALE")
TMS320C2000 Assembler PC v6.4.2 Thu Dec 14 13:36:46 2017

Tools Copyright (c) 1996-2015 Texas Instruments Incorporated
config.asm                                                           PAGE   36

    1804                      .dwattr $C$DW$154, DW_AT_TI_symbol_name("_PRESCALE")
    1805                      .dwattr $C$DW$154, DW_AT_bit_offset(0x0c), DW_AT_bit_size(0x04)
    1806                      .dwattr $C$DW$154, DW_AT_data_member_location[DW_OP_plus_uconst 0x0]
    1807                      .dwattr $C$DW$154, DW_AT_accessibility(DW_ACCESS_public)
    1808              $C$DW$155       .dwtag  DW_TAG_member
    1809                      .dwattr $C$DW$155, DW_AT_type(*$C$DW$T$19)
    1810                      .dwattr $C$DW$155, DW_AT_name("rsvd1")
    1811                      .dwattr $C$DW$155, DW_AT_TI_symbol_name("_rsvd1")
    1812                      .dwattr $C$DW$155, DW_AT_bit_offset(0x0a), DW_AT_bit_size(0x02)
    1813                      .dwattr $C$DW$155, DW_AT_data_member_location[DW_OP_plus_uconst 0x0]
    1814                      .dwattr $C$DW$155, DW_AT_accessibility(DW_ACCESS_public)
    1815              $C$DW$156       .dwtag  DW_TAG_member
    1816                      .dwattr $C$DW$156, DW_AT_type(*$C$DW$T$19)
    1817                      .dwattr $C$DW$156, DW_AT_name("RESOLUTION")
    1818                      .dwattr $C$DW$156, DW_AT_TI_symbol_name("_RESOLUTION")
    1819                      .dwattr $C$DW$156, DW_AT_bit_offset(0x09), DW_AT_bit_size(0x01)
    1820                      .dwattr $C$DW$156, DW_AT_data_member_location[DW_OP_plus_uconst 0x0]
    1821                      .dwattr $C$DW$156, DW_AT_accessibility(DW_ACCESS_public)
    1822              $C$DW$157       .dwtag  DW_TAG_member
    1823                      .dwattr $C$DW$157, DW_AT_type(*$C$DW$T$19)
    1824                      .dwattr $C$DW$157, DW_AT_name("SIGNALMODE")
    1825                      .dwattr $C$DW$157, DW_AT_TI_symbol_name("_SIGNALMODE")
    1826                      .dwattr $C$DW$157, DW_AT_bit_offset(0x08), DW_AT_bit_size(0x01)
    1827                      .dwattr $C$DW$157, DW_AT_data_member_location[DW_OP_plus_uconst 0x0]
    1828                      .dwattr $C$DW$157, DW_AT_accessibility(DW_ACCESS_public)
    1829              $C$DW$158       .dwtag  DW_TAG_member
    1830                      .dwattr $C$DW$158, DW_AT_type(*$C$DW$T$19)
    1831                      .dwattr $C$DW$158, DW_AT_name("rsvd2")
    1832                      .dwattr $C$DW$158, DW_AT_TI_symbol_name("_rsvd2")
    1833                      .dwattr $C$DW$158, DW_AT_bit_offset(0x03), DW_AT_bit_size(0x05)
    1834                      .dwattr $C$DW$158, DW_AT_data_member_location[DW_OP_plus_uconst 0x0]
    1835                      .dwattr $C$DW$158, DW_AT_accessibility(DW_ACCESS_public)
    1836              $C$DW$159       .dwtag  DW_TAG_member
    1837                      .dwattr $C$DW$159, DW_AT_type(*$C$DW$T$19)
    1838                      .dwattr $C$DW$159, DW_AT_name("rsvd3")
    1839                      .dwattr $C$DW$159, DW_AT_TI_symbol_name("_rsvd3")
    1840                      .dwattr $C$DW$159, DW_AT_bit_offset(0x00), DW_AT_bit_size(0x03)
    1841                      .dwattr $C$DW$159, DW_AT_data_member_location[DW_OP_plus_uconst 0x0]
    1842                      .dwattr $C$DW$159, DW_AT_accessibility(DW_ACCESS_public)
    1843                      .dwendtag $C$DW$T$26
    1844              
    1845              
    1846              $C$DW$T$27      .dwtag  DW_TAG_union_type
    1847                      .dwattr $C$DW$T$27, DW_AT_name("ADCCTL2_REG")
    1848                      .dwattr $C$DW$T$27, DW_AT_byte_size(0x01)
    1849              $C$DW$160       .dwtag  DW_TAG_member
    1850                      .dwattr $C$DW$160, DW_AT_type(*$C$DW$T$19)
    1851                      .dwattr $C$DW$160, DW_AT_name("all")
    1852                      .dwattr $C$DW$160, DW_AT_TI_symbol_name("_all")
    1853                      .dwattr $C$DW$160, DW_AT_data_member_location[DW_OP_plus_uconst 0x0]
    1854                      .dwattr $C$DW$160, DW_AT_accessibility(DW_ACCESS_public)
    1855              $C$DW$161       .dwtag  DW_TAG_member
    1856                      .dwattr $C$DW$161, DW_AT_type(*$C$DW$T$26)
    1857                      .dwattr $C$DW$161, DW_AT_name("bit")
    1858                      .dwattr $C$DW$161, DW_AT_TI_symbol_name("_bit")
TMS320C2000 Assembler PC v6.4.2 Thu Dec 14 13:36:46 2017

Tools Copyright (c) 1996-2015 Texas Instruments Incorporated
config.asm                                                           PAGE   37

    1859                      .dwattr $C$DW$161, DW_AT_data_member_location[DW_OP_plus_uconst 0x0]
    1860                      .dwattr $C$DW$161, DW_AT_accessibility(DW_ACCESS_public)
    1861                      .dwendtag $C$DW$T$27
    1862              
    1863              
    1864              $C$DW$T$28      .dwtag  DW_TAG_structure_type
    1865                      .dwattr $C$DW$T$28, DW_AT_name("ADCEVTCLR_BITS")
    1866                      .dwattr $C$DW$T$28, DW_AT_byte_size(0x01)
    1867              $C$DW$162       .dwtag  DW_TAG_member
    1868                      .dwattr $C$DW$162, DW_AT_type(*$C$DW$T$19)
    1869                      .dwattr $C$DW$162, DW_AT_name("PPB1TRIPHI")
    1870                      .dwattr $C$DW$162, DW_AT_TI_symbol_name("_PPB1TRIPHI")
    1871                      .dwattr $C$DW$162, DW_AT_bit_offset(0x0f), DW_AT_bit_size(0x01)
    1872                      .dwattr $C$DW$162, DW_AT_data_member_location[DW_OP_plus_uconst 0x0]
    1873                      .dwattr $C$DW$162, DW_AT_accessibility(DW_ACCESS_public)
    1874              $C$DW$163       .dwtag  DW_TAG_member
    1875                      .dwattr $C$DW$163, DW_AT_type(*$C$DW$T$19)
    1876                      .dwattr $C$DW$163, DW_AT_name("PPB1TRIPLO")
    1877                      .dwattr $C$DW$163, DW_AT_TI_symbol_name("_PPB1TRIPLO")
    1878                      .dwattr $C$DW$163, DW_AT_bit_offset(0x0e), DW_AT_bit_size(0x01)
    1879                      .dwattr $C$DW$163, DW_AT_data_member_location[DW_OP_plus_uconst 0x0]
    1880                      .dwattr $C$DW$163, DW_AT_accessibility(DW_ACCESS_public)
    1881              $C$DW$164       .dwtag  DW_TAG_member
    1882                      .dwattr $C$DW$164, DW_AT_type(*$C$DW$T$19)
    1883                      .dwattr $C$DW$164, DW_AT_name("PPB1ZERO")
    1884                      .dwattr $C$DW$164, DW_AT_TI_symbol_name("_PPB1ZERO")
    1885                      .dwattr $C$DW$164, DW_AT_bit_offset(0x0d), DW_AT_bit_size(0x01)
    1886                      .dwattr $C$DW$164, DW_AT_data_member_location[DW_OP_plus_uconst 0x0]
    1887                      .dwattr $C$DW$164, DW_AT_accessibility(DW_ACCESS_public)
    1888              $C$DW$165       .dwtag  DW_TAG_member
    1889                      .dwattr $C$DW$165, DW_AT_type(*$C$DW$T$19)
    1890                      .dwattr $C$DW$165, DW_AT_name("rsvd1")
    1891                      .dwattr $C$DW$165, DW_AT_TI_symbol_name("_rsvd1")
    1892                      .dwattr $C$DW$165, DW_AT_bit_offset(0x0c), DW_AT_bit_size(0x01)
    1893                      .dwattr $C$DW$165, DW_AT_data_member_location[DW_OP_plus_uconst 0x0]
    1894                      .dwattr $C$DW$165, DW_AT_accessibility(DW_ACCESS_public)
    1895              $C$DW$166       .dwtag  DW_TAG_member
    1896                      .dwattr $C$DW$166, DW_AT_type(*$C$DW$T$19)
    1897                      .dwattr $C$DW$166, DW_AT_name("PPB2TRIPHI")
    1898                      .dwattr $C$DW$166, DW_AT_TI_symbol_name("_PPB2TRIPHI")
    1899                      .dwattr $C$DW$166, DW_AT_bit_offset(0x0b), DW_AT_bit_size(0x01)
    1900                      .dwattr $C$DW$166, DW_AT_data_member_location[DW_OP_plus_uconst 0x0]
    1901                      .dwattr $C$DW$166, DW_AT_accessibility(DW_ACCESS_public)
    1902              $C$DW$167       .dwtag  DW_TAG_member
    1903                      .dwattr $C$DW$167, DW_AT_type(*$C$DW$T$19)
    1904                      .dwattr $C$DW$167, DW_AT_name("PPB2TRIPLO")
    1905                      .dwattr $C$DW$167, DW_AT_TI_symbol_name("_PPB2TRIPLO")
    1906                      .dwattr $C$DW$167, DW_AT_bit_offset(0x0a), DW_AT_bit_size(0x01)
    1907                      .dwattr $C$DW$167, DW_AT_data_member_location[DW_OP_plus_uconst 0x0]
    1908                      .dwattr $C$DW$167, DW_AT_accessibility(DW_ACCESS_public)
    1909              $C$DW$168       .dwtag  DW_TAG_member
    1910                      .dwattr $C$DW$168, DW_AT_type(*$C$DW$T$19)
    1911                      .dwattr $C$DW$168, DW_AT_name("PPB2ZERO")
    1912                      .dwattr $C$DW$168, DW_AT_TI_symbol_name("_PPB2ZERO")
    1913                      .dwattr $C$DW$168, DW_AT_bit_offset(0x09), DW_AT_bit_size(0x01)
TMS320C2000 Assembler PC v6.4.2 Thu Dec 14 13:36:46 2017

Tools Copyright (c) 1996-2015 Texas Instruments Incorporated
config.asm                                                           PAGE   38

    1914                      .dwattr $C$DW$168, DW_AT_data_member_location[DW_OP_plus_uconst 0x0]
    1915                      .dwattr $C$DW$168, DW_AT_accessibility(DW_ACCESS_public)
    1916              $C$DW$169       .dwtag  DW_TAG_member
    1917                      .dwattr $C$DW$169, DW_AT_type(*$C$DW$T$19)
    1918                      .dwattr $C$DW$169, DW_AT_name("rsvd2")
    1919                      .dwattr $C$DW$169, DW_AT_TI_symbol_name("_rsvd2")
    1920                      .dwattr $C$DW$169, DW_AT_bit_offset(0x08), DW_AT_bit_size(0x01)
    1921                      .dwattr $C$DW$169, DW_AT_data_member_location[DW_OP_plus_uconst 0x0]
    1922                      .dwattr $C$DW$169, DW_AT_accessibility(DW_ACCESS_public)
    1923              $C$DW$170       .dwtag  DW_TAG_member
    1924                      .dwattr $C$DW$170, DW_AT_type(*$C$DW$T$19)
    1925                      .dwattr $C$DW$170, DW_AT_name("PPB3TRIPHI")
    1926                      .dwattr $C$DW$170, DW_AT_TI_symbol_name("_PPB3TRIPHI")
    1927                      .dwattr $C$DW$170, DW_AT_bit_offset(0x07), DW_AT_bit_size(0x01)
    1928                      .dwattr $C$DW$170, DW_AT_data_member_location[DW_OP_plus_uconst 0x0]
    1929                      .dwattr $C$DW$170, DW_AT_accessibility(DW_ACCESS_public)
    1930              $C$DW$171       .dwtag  DW_TAG_member
    1931                      .dwattr $C$DW$171, DW_AT_type(*$C$DW$T$19)
    1932                      .dwattr $C$DW$171, DW_AT_name("PPB3TRIPLO")
    1933                      .dwattr $C$DW$171, DW_AT_TI_symbol_name("_PPB3TRIPLO")
    1934                      .dwattr $C$DW$171, DW_AT_bit_offset(0x06), DW_AT_bit_size(0x01)
    1935                      .dwattr $C$DW$171, DW_AT_data_member_location[DW_OP_plus_uconst 0x0]
    1936                      .dwattr $C$DW$171, DW_AT_accessibility(DW_ACCESS_public)
    1937              $C$DW$172       .dwtag  DW_TAG_member
    1938                      .dwattr $C$DW$172, DW_AT_type(*$C$DW$T$19)
    1939                      .dwattr $C$DW$172, DW_AT_name("PPB3ZERO")
    1940                      .dwattr $C$DW$172, DW_AT_TI_symbol_name("_PPB3ZERO")
    1941                      .dwattr $C$DW$172, DW_AT_bit_offset(0x05), DW_AT_bit_size(0x01)
    1942                      .dwattr $C$DW$172, DW_AT_data_member_location[DW_OP_plus_uconst 0x0]
    1943                      .dwattr $C$DW$172, DW_AT_accessibility(DW_ACCESS_public)
    1944              $C$DW$173       .dwtag  DW_TAG_member
    1945                      .dwattr $C$DW$173, DW_AT_type(*$C$DW$T$19)
    1946                      .dwattr $C$DW$173, DW_AT_name("rsvd3")
    1947                      .dwattr $C$DW$173, DW_AT_TI_symbol_name("_rsvd3")
    1948                      .dwattr $C$DW$173, DW_AT_bit_offset(0x04), DW_AT_bit_size(0x01)
    1949                      .dwattr $C$DW$173, DW_AT_data_member_location[DW_OP_plus_uconst 0x0]
    1950                      .dwattr $C$DW$173, DW_AT_accessibility(DW_ACCESS_public)
    1951              $C$DW$174       .dwtag  DW_TAG_member
    1952                      .dwattr $C$DW$174, DW_AT_type(*$C$DW$T$19)
    1953                      .dwattr $C$DW$174, DW_AT_name("PPB4TRIPHI")
    1954                      .dwattr $C$DW$174, DW_AT_TI_symbol_name("_PPB4TRIPHI")
    1955                      .dwattr $C$DW$174, DW_AT_bit_offset(0x03), DW_AT_bit_size(0x01)
    1956                      .dwattr $C$DW$174, DW_AT_data_member_location[DW_OP_plus_uconst 0x0]
    1957                      .dwattr $C$DW$174, DW_AT_accessibility(DW_ACCESS_public)
    1958              $C$DW$175       .dwtag  DW_TAG_member
    1959                      .dwattr $C$DW$175, DW_AT_type(*$C$DW$T$19)
    1960                      .dwattr $C$DW$175, DW_AT_name("PPB4TRIPLO")
    1961                      .dwattr $C$DW$175, DW_AT_TI_symbol_name("_PPB4TRIPLO")
    1962                      .dwattr $C$DW$175, DW_AT_bit_offset(0x02), DW_AT_bit_size(0x01)
    1963                      .dwattr $C$DW$175, DW_AT_data_member_location[DW_OP_plus_uconst 0x0]
    1964                      .dwattr $C$DW$175, DW_AT_accessibility(DW_ACCESS_public)
    1965              $C$DW$176       .dwtag  DW_TAG_member
    1966                      .dwattr $C$DW$176, DW_AT_type(*$C$DW$T$19)
    1967                      .dwattr $C$DW$176, DW_AT_name("PPB4ZERO")
    1968                      .dwattr $C$DW$176, DW_AT_TI_symbol_name("_PPB4ZERO")
TMS320C2000 Assembler PC v6.4.2 Thu Dec 14 13:36:46 2017

Tools Copyright (c) 1996-2015 Texas Instruments Incorporated
config.asm                                                           PAGE   39

    1969                      .dwattr $C$DW$176, DW_AT_bit_offset(0x01), DW_AT_bit_size(0x01)
    1970                      .dwattr $C$DW$176, DW_AT_data_member_location[DW_OP_plus_uconst 0x0]
    1971                      .dwattr $C$DW$176, DW_AT_accessibility(DW_ACCESS_public)
    1972              $C$DW$177       .dwtag  DW_TAG_member
    1973                      .dwattr $C$DW$177, DW_AT_type(*$C$DW$T$19)
    1974                      .dwattr $C$DW$177, DW_AT_name("rsvd4")
    1975                      .dwattr $C$DW$177, DW_AT_TI_symbol_name("_rsvd4")
    1976                      .dwattr $C$DW$177, DW_AT_bit_offset(0x00), DW_AT_bit_size(0x01)
    1977                      .dwattr $C$DW$177, DW_AT_data_member_location[DW_OP_plus_uconst 0x0]
    1978                      .dwattr $C$DW$177, DW_AT_accessibility(DW_ACCESS_public)
    1979                      .dwendtag $C$DW$T$28
    1980              
    1981              
    1982              $C$DW$T$29      .dwtag  DW_TAG_union_type
    1983                      .dwattr $C$DW$T$29, DW_AT_name("ADCEVTCLR_REG")
    1984                      .dwattr $C$DW$T$29, DW_AT_byte_size(0x01)
    1985              $C$DW$178       .dwtag  DW_TAG_member
    1986                      .dwattr $C$DW$178, DW_AT_type(*$C$DW$T$19)
    1987                      .dwattr $C$DW$178, DW_AT_name("all")
    1988                      .dwattr $C$DW$178, DW_AT_TI_symbol_name("_all")
    1989                      .dwattr $C$DW$178, DW_AT_data_member_location[DW_OP_plus_uconst 0x0]
    1990                      .dwattr $C$DW$178, DW_AT_accessibility(DW_ACCESS_public)
    1991              $C$DW$179       .dwtag  DW_TAG_member
    1992                      .dwattr $C$DW$179, DW_AT_type(*$C$DW$T$28)
    1993                      .dwattr $C$DW$179, DW_AT_name("bit")
    1994                      .dwattr $C$DW$179, DW_AT_TI_symbol_name("_bit")
    1995                      .dwattr $C$DW$179, DW_AT_data_member_location[DW_OP_plus_uconst 0x0]
    1996                      .dwattr $C$DW$179, DW_AT_accessibility(DW_ACCESS_public)
    1997                      .dwendtag $C$DW$T$29
    1998              
    1999              
    2000              $C$DW$T$30      .dwtag  DW_TAG_structure_type
    2001                      .dwattr $C$DW$T$30, DW_AT_name("ADCEVTINTSEL_BITS")
    2002                      .dwattr $C$DW$T$30, DW_AT_byte_size(0x01)
    2003              $C$DW$180       .dwtag  DW_TAG_member
    2004                      .dwattr $C$DW$180, DW_AT_type(*$C$DW$T$19)
    2005                      .dwattr $C$DW$180, DW_AT_name("PPB1TRIPHI")
    2006                      .dwattr $C$DW$180, DW_AT_TI_symbol_name("_PPB1TRIPHI")
    2007                      .dwattr $C$DW$180, DW_AT_bit_offset(0x0f), DW_AT_bit_size(0x01)
    2008                      .dwattr $C$DW$180, DW_AT_data_member_location[DW_OP_plus_uconst 0x0]
    2009                      .dwattr $C$DW$180, DW_AT_accessibility(DW_ACCESS_public)
    2010              $C$DW$181       .dwtag  DW_TAG_member
    2011                      .dwattr $C$DW$181, DW_AT_type(*$C$DW$T$19)
    2012                      .dwattr $C$DW$181, DW_AT_name("PPB1TRIPLO")
    2013                      .dwattr $C$DW$181, DW_AT_TI_symbol_name("_PPB1TRIPLO")
    2014                      .dwattr $C$DW$181, DW_AT_bit_offset(0x0e), DW_AT_bit_size(0x01)
    2015                      .dwattr $C$DW$181, DW_AT_data_member_location[DW_OP_plus_uconst 0x0]
    2016                      .dwattr $C$DW$181, DW_AT_accessibility(DW_ACCESS_public)
    2017              $C$DW$182       .dwtag  DW_TAG_member
    2018                      .dwattr $C$DW$182, DW_AT_type(*$C$DW$T$19)
    2019                      .dwattr $C$DW$182, DW_AT_name("PPB1ZERO")
    2020                      .dwattr $C$DW$182, DW_AT_TI_symbol_name("_PPB1ZERO")
    2021                      .dwattr $C$DW$182, DW_AT_bit_offset(0x0d), DW_AT_bit_size(0x01)
    2022                      .dwattr $C$DW$182, DW_AT_data_member_location[DW_OP_plus_uconst 0x0]
    2023                      .dwattr $C$DW$182, DW_AT_accessibility(DW_ACCESS_public)
TMS320C2000 Assembler PC v6.4.2 Thu Dec 14 13:36:46 2017

Tools Copyright (c) 1996-2015 Texas Instruments Incorporated
config.asm                                                           PAGE   40

    2024              $C$DW$183       .dwtag  DW_TAG_member
    2025                      .dwattr $C$DW$183, DW_AT_type(*$C$DW$T$19)
    2026                      .dwattr $C$DW$183, DW_AT_name("rsvd1")
    2027                      .dwattr $C$DW$183, DW_AT_TI_symbol_name("_rsvd1")
    2028                      .dwattr $C$DW$183, DW_AT_bit_offset(0x0c), DW_AT_bit_size(0x01)
    2029                      .dwattr $C$DW$183, DW_AT_data_member_location[DW_OP_plus_uconst 0x0]
    2030                      .dwattr $C$DW$183, DW_AT_accessibility(DW_ACCESS_public)
    2031              $C$DW$184       .dwtag  DW_TAG_member
    2032                      .dwattr $C$DW$184, DW_AT_type(*$C$DW$T$19)
    2033                      .dwattr $C$DW$184, DW_AT_name("PPB2TRIPHI")
    2034                      .dwattr $C$DW$184, DW_AT_TI_symbol_name("_PPB2TRIPHI")
    2035                      .dwattr $C$DW$184, DW_AT_bit_offset(0x0b), DW_AT_bit_size(0x01)
    2036                      .dwattr $C$DW$184, DW_AT_data_member_location[DW_OP_plus_uconst 0x0]
    2037                      .dwattr $C$DW$184, DW_AT_accessibility(DW_ACCESS_public)
    2038              $C$DW$185       .dwtag  DW_TAG_member
    2039                      .dwattr $C$DW$185, DW_AT_type(*$C$DW$T$19)
    2040                      .dwattr $C$DW$185, DW_AT_name("PPB2TRIPLO")
    2041                      .dwattr $C$DW$185, DW_AT_TI_symbol_name("_PPB2TRIPLO")
    2042                      .dwattr $C$DW$185, DW_AT_bit_offset(0x0a), DW_AT_bit_size(0x01)
    2043                      .dwattr $C$DW$185, DW_AT_data_member_location[DW_OP_plus_uconst 0x0]
    2044                      .dwattr $C$DW$185, DW_AT_accessibility(DW_ACCESS_public)
    2045              $C$DW$186       .dwtag  DW_TAG_member
    2046                      .dwattr $C$DW$186, DW_AT_type(*$C$DW$T$19)
    2047                      .dwattr $C$DW$186, DW_AT_name("PPB2ZERO")
    2048                      .dwattr $C$DW$186, DW_AT_TI_symbol_name("_PPB2ZERO")
    2049                      .dwattr $C$DW$186, DW_AT_bit_offset(0x09), DW_AT_bit_size(0x01)
    2050                      .dwattr $C$DW$186, DW_AT_data_member_location[DW_OP_plus_uconst 0x0]
    2051                      .dwattr $C$DW$186, DW_AT_accessibility(DW_ACCESS_public)
    2052              $C$DW$187       .dwtag  DW_TAG_member
    2053                      .dwattr $C$DW$187, DW_AT_type(*$C$DW$T$19)
    2054                      .dwattr $C$DW$187, DW_AT_name("rsvd2")
    2055                      .dwattr $C$DW$187, DW_AT_TI_symbol_name("_rsvd2")
    2056                      .dwattr $C$DW$187, DW_AT_bit_offset(0x08), DW_AT_bit_size(0x01)
    2057                      .dwattr $C$DW$187, DW_AT_data_member_location[DW_OP_plus_uconst 0x0]
    2058                      .dwattr $C$DW$187, DW_AT_accessibility(DW_ACCESS_public)
    2059              $C$DW$188       .dwtag  DW_TAG_member
    2060                      .dwattr $C$DW$188, DW_AT_type(*$C$DW$T$19)
    2061                      .dwattr $C$DW$188, DW_AT_name("PPB3TRIPHI")
    2062                      .dwattr $C$DW$188, DW_AT_TI_symbol_name("_PPB3TRIPHI")
    2063                      .dwattr $C$DW$188, DW_AT_bit_offset(0x07), DW_AT_bit_size(0x01)
    2064                      .dwattr $C$DW$188, DW_AT_data_member_location[DW_OP_plus_uconst 0x0]
    2065                      .dwattr $C$DW$188, DW_AT_accessibility(DW_ACCESS_public)
    2066              $C$DW$189       .dwtag  DW_TAG_member
    2067                      .dwattr $C$DW$189, DW_AT_type(*$C$DW$T$19)
    2068                      .dwattr $C$DW$189, DW_AT_name("PPB3TRIPLO")
    2069                      .dwattr $C$DW$189, DW_AT_TI_symbol_name("_PPB3TRIPLO")
    2070                      .dwattr $C$DW$189, DW_AT_bit_offset(0x06), DW_AT_bit_size(0x01)
    2071                      .dwattr $C$DW$189, DW_AT_data_member_location[DW_OP_plus_uconst 0x0]
    2072                      .dwattr $C$DW$189, DW_AT_accessibility(DW_ACCESS_public)
    2073              $C$DW$190       .dwtag  DW_TAG_member
    2074                      .dwattr $C$DW$190, DW_AT_type(*$C$DW$T$19)
    2075                      .dwattr $C$DW$190, DW_AT_name("PPB3ZERO")
    2076                      .dwattr $C$DW$190, DW_AT_TI_symbol_name("_PPB3ZERO")
    2077                      .dwattr $C$DW$190, DW_AT_bit_offset(0x05), DW_AT_bit_size(0x01)
    2078                      .dwattr $C$DW$190, DW_AT_data_member_location[DW_OP_plus_uconst 0x0]
TMS320C2000 Assembler PC v6.4.2 Thu Dec 14 13:36:46 2017

Tools Copyright (c) 1996-2015 Texas Instruments Incorporated
config.asm                                                           PAGE   41

    2079                      .dwattr $C$DW$190, DW_AT_accessibility(DW_ACCESS_public)
    2080              $C$DW$191       .dwtag  DW_TAG_member
    2081                      .dwattr $C$DW$191, DW_AT_type(*$C$DW$T$19)
    2082                      .dwattr $C$DW$191, DW_AT_name("rsvd3")
    2083                      .dwattr $C$DW$191, DW_AT_TI_symbol_name("_rsvd3")
    2084                      .dwattr $C$DW$191, DW_AT_bit_offset(0x04), DW_AT_bit_size(0x01)
    2085                      .dwattr $C$DW$191, DW_AT_data_member_location[DW_OP_plus_uconst 0x0]
    2086                      .dwattr $C$DW$191, DW_AT_accessibility(DW_ACCESS_public)
    2087              $C$DW$192       .dwtag  DW_TAG_member
    2088                      .dwattr $C$DW$192, DW_AT_type(*$C$DW$T$19)
    2089                      .dwattr $C$DW$192, DW_AT_name("PPB4TRIPHI")
    2090                      .dwattr $C$DW$192, DW_AT_TI_symbol_name("_PPB4TRIPHI")
    2091                      .dwattr $C$DW$192, DW_AT_bit_offset(0x03), DW_AT_bit_size(0x01)
    2092                      .dwattr $C$DW$192, DW_AT_data_member_location[DW_OP_plus_uconst 0x0]
    2093                      .dwattr $C$DW$192, DW_AT_accessibility(DW_ACCESS_public)
    2094              $C$DW$193       .dwtag  DW_TAG_member
    2095                      .dwattr $C$DW$193, DW_AT_type(*$C$DW$T$19)
    2096                      .dwattr $C$DW$193, DW_AT_name("PPB4TRIPLO")
    2097                      .dwattr $C$DW$193, DW_AT_TI_symbol_name("_PPB4TRIPLO")
    2098                      .dwattr $C$DW$193, DW_AT_bit_offset(0x02), DW_AT_bit_size(0x01)
    2099                      .dwattr $C$DW$193, DW_AT_data_member_location[DW_OP_plus_uconst 0x0]
    2100                      .dwattr $C$DW$193, DW_AT_accessibility(DW_ACCESS_public)
    2101              $C$DW$194       .dwtag  DW_TAG_member
    2102                      .dwattr $C$DW$194, DW_AT_type(*$C$DW$T$19)
    2103                      .dwattr $C$DW$194, DW_AT_name("PPB4ZERO")
    2104                      .dwattr $C$DW$194, DW_AT_TI_symbol_name("_PPB4ZERO")
    2105                      .dwattr $C$DW$194, DW_AT_bit_offset(0x01), DW_AT_bit_size(0x01)
    2106                      .dwattr $C$DW$194, DW_AT_data_member_location[DW_OP_plus_uconst 0x0]
    2107                      .dwattr $C$DW$194, DW_AT_accessibility(DW_ACCESS_public)
    2108              $C$DW$195       .dwtag  DW_TAG_member
    2109                      .dwattr $C$DW$195, DW_AT_type(*$C$DW$T$19)
    2110                      .dwattr $C$DW$195, DW_AT_name("rsvd4")
    2111                      .dwattr $C$DW$195, DW_AT_TI_symbol_name("_rsvd4")
    2112                      .dwattr $C$DW$195, DW_AT_bit_offset(0x00), DW_AT_bit_size(0x01)
    2113                      .dwattr $C$DW$195, DW_AT_data_member_location[DW_OP_plus_uconst 0x0]
    2114                      .dwattr $C$DW$195, DW_AT_accessibility(DW_ACCESS_public)
    2115                      .dwendtag $C$DW$T$30
    2116              
    2117              
    2118              $C$DW$T$31      .dwtag  DW_TAG_union_type
    2119                      .dwattr $C$DW$T$31, DW_AT_name("ADCEVTINTSEL_REG")
    2120                      .dwattr $C$DW$T$31, DW_AT_byte_size(0x01)
    2121              $C$DW$196       .dwtag  DW_TAG_member
    2122                      .dwattr $C$DW$196, DW_AT_type(*$C$DW$T$19)
    2123                      .dwattr $C$DW$196, DW_AT_name("all")
    2124                      .dwattr $C$DW$196, DW_AT_TI_symbol_name("_all")
    2125                      .dwattr $C$DW$196, DW_AT_data_member_location[DW_OP_plus_uconst 0x0]
    2126                      .dwattr $C$DW$196, DW_AT_accessibility(DW_ACCESS_public)
    2127              $C$DW$197       .dwtag  DW_TAG_member
    2128                      .dwattr $C$DW$197, DW_AT_type(*$C$DW$T$30)
    2129                      .dwattr $C$DW$197, DW_AT_name("bit")
    2130                      .dwattr $C$DW$197, DW_AT_TI_symbol_name("_bit")
    2131                      .dwattr $C$DW$197, DW_AT_data_member_location[DW_OP_plus_uconst 0x0]
    2132                      .dwattr $C$DW$197, DW_AT_accessibility(DW_ACCESS_public)
    2133                      .dwendtag $C$DW$T$31
TMS320C2000 Assembler PC v6.4.2 Thu Dec 14 13:36:46 2017

Tools Copyright (c) 1996-2015 Texas Instruments Incorporated
config.asm                                                           PAGE   42

    2134              
    2135              
    2136              $C$DW$T$32      .dwtag  DW_TAG_structure_type
    2137                      .dwattr $C$DW$T$32, DW_AT_name("ADCEVTSEL_BITS")
    2138                      .dwattr $C$DW$T$32, DW_AT_byte_size(0x01)
    2139              $C$DW$198       .dwtag  DW_TAG_member
    2140                      .dwattr $C$DW$198, DW_AT_type(*$C$DW$T$19)
    2141                      .dwattr $C$DW$198, DW_AT_name("PPB1TRIPHI")
    2142                      .dwattr $C$DW$198, DW_AT_TI_symbol_name("_PPB1TRIPHI")
    2143                      .dwattr $C$DW$198, DW_AT_bit_offset(0x0f), DW_AT_bit_size(0x01)
    2144                      .dwattr $C$DW$198, DW_AT_data_member_location[DW_OP_plus_uconst 0x0]
    2145                      .dwattr $C$DW$198, DW_AT_accessibility(DW_ACCESS_public)
    2146              $C$DW$199       .dwtag  DW_TAG_member
    2147                      .dwattr $C$DW$199, DW_AT_type(*$C$DW$T$19)
    2148                      .dwattr $C$DW$199, DW_AT_name("PPB1TRIPLO")
    2149                      .dwattr $C$DW$199, DW_AT_TI_symbol_name("_PPB1TRIPLO")
    2150                      .dwattr $C$DW$199, DW_AT_bit_offset(0x0e), DW_AT_bit_size(0x01)
    2151                      .dwattr $C$DW$199, DW_AT_data_member_location[DW_OP_plus_uconst 0x0]
    2152                      .dwattr $C$DW$199, DW_AT_accessibility(DW_ACCESS_public)
    2153              $C$DW$200       .dwtag  DW_TAG_member
    2154                      .dwattr $C$DW$200, DW_AT_type(*$C$DW$T$19)
    2155                      .dwattr $C$DW$200, DW_AT_name("PPB1ZERO")
    2156                      .dwattr $C$DW$200, DW_AT_TI_symbol_name("_PPB1ZERO")
    2157                      .dwattr $C$DW$200, DW_AT_bit_offset(0x0d), DW_AT_bit_size(0x01)
    2158                      .dwattr $C$DW$200, DW_AT_data_member_location[DW_OP_plus_uconst 0x0]
    2159                      .dwattr $C$DW$200, DW_AT_accessibility(DW_ACCESS_public)
    2160              $C$DW$201       .dwtag  DW_TAG_member
    2161                      .dwattr $C$DW$201, DW_AT_type(*$C$DW$T$19)
    2162                      .dwattr $C$DW$201, DW_AT_name("rsvd1")
    2163                      .dwattr $C$DW$201, DW_AT_TI_symbol_name("_rsvd1")
    2164                      .dwattr $C$DW$201, DW_AT_bit_offset(0x0c), DW_AT_bit_size(0x01)
    2165                      .dwattr $C$DW$201, DW_AT_data_member_location[DW_OP_plus_uconst 0x0]
    2166                      .dwattr $C$DW$201, DW_AT_accessibility(DW_ACCESS_public)
    2167              $C$DW$202       .dwtag  DW_TAG_member
    2168                      .dwattr $C$DW$202, DW_AT_type(*$C$DW$T$19)
    2169                      .dwattr $C$DW$202, DW_AT_name("PPB2TRIPHI")
    2170                      .dwattr $C$DW$202, DW_AT_TI_symbol_name("_PPB2TRIPHI")
    2171                      .dwattr $C$DW$202, DW_AT_bit_offset(0x0b), DW_AT_bit_size(0x01)
    2172                      .dwattr $C$DW$202, DW_AT_data_member_location[DW_OP_plus_uconst 0x0]
    2173                      .dwattr $C$DW$202, DW_AT_accessibility(DW_ACCESS_public)
    2174              $C$DW$203       .dwtag  DW_TAG_member
    2175                      .dwattr $C$DW$203, DW_AT_type(*$C$DW$T$19)
    2176                      .dwattr $C$DW$203, DW_AT_name("PPB2TRIPLO")
    2177                      .dwattr $C$DW$203, DW_AT_TI_symbol_name("_PPB2TRIPLO")
    2178                      .dwattr $C$DW$203, DW_AT_bit_offset(0x0a), DW_AT_bit_size(0x01)
    2179                      .dwattr $C$DW$203, DW_AT_data_member_location[DW_OP_plus_uconst 0x0]
    2180                      .dwattr $C$DW$203, DW_AT_accessibility(DW_ACCESS_public)
    2181              $C$DW$204       .dwtag  DW_TAG_member
    2182                      .dwattr $C$DW$204, DW_AT_type(*$C$DW$T$19)
    2183                      .dwattr $C$DW$204, DW_AT_name("PPB2ZERO")
    2184                      .dwattr $C$DW$204, DW_AT_TI_symbol_name("_PPB2ZERO")
    2185                      .dwattr $C$DW$204, DW_AT_bit_offset(0x09), DW_AT_bit_size(0x01)
    2186                      .dwattr $C$DW$204, DW_AT_data_member_location[DW_OP_plus_uconst 0x0]
    2187                      .dwattr $C$DW$204, DW_AT_accessibility(DW_ACCESS_public)
    2188              $C$DW$205       .dwtag  DW_TAG_member
TMS320C2000 Assembler PC v6.4.2 Thu Dec 14 13:36:46 2017

Tools Copyright (c) 1996-2015 Texas Instruments Incorporated
config.asm                                                           PAGE   43

    2189                      .dwattr $C$DW$205, DW_AT_type(*$C$DW$T$19)
    2190                      .dwattr $C$DW$205, DW_AT_name("rsvd2")
    2191                      .dwattr $C$DW$205, DW_AT_TI_symbol_name("_rsvd2")
    2192                      .dwattr $C$DW$205, DW_AT_bit_offset(0x08), DW_AT_bit_size(0x01)
    2193                      .dwattr $C$DW$205, DW_AT_data_member_location[DW_OP_plus_uconst 0x0]
    2194                      .dwattr $C$DW$205, DW_AT_accessibility(DW_ACCESS_public)
    2195              $C$DW$206       .dwtag  DW_TAG_member
    2196                      .dwattr $C$DW$206, DW_AT_type(*$C$DW$T$19)
    2197                      .dwattr $C$DW$206, DW_AT_name("PPB3TRIPHI")
    2198                      .dwattr $C$DW$206, DW_AT_TI_symbol_name("_PPB3TRIPHI")
    2199                      .dwattr $C$DW$206, DW_AT_bit_offset(0x07), DW_AT_bit_size(0x01)
    2200                      .dwattr $C$DW$206, DW_AT_data_member_location[DW_OP_plus_uconst 0x0]
    2201                      .dwattr $C$DW$206, DW_AT_accessibility(DW_ACCESS_public)
    2202              $C$DW$207       .dwtag  DW_TAG_member
    2203                      .dwattr $C$DW$207, DW_AT_type(*$C$DW$T$19)
    2204                      .dwattr $C$DW$207, DW_AT_name("PPB3TRIPLO")
    2205                      .dwattr $C$DW$207, DW_AT_TI_symbol_name("_PPB3TRIPLO")
    2206                      .dwattr $C$DW$207, DW_AT_bit_offset(0x06), DW_AT_bit_size(0x01)
    2207                      .dwattr $C$DW$207, DW_AT_data_member_location[DW_OP_plus_uconst 0x0]
    2208                      .dwattr $C$DW$207, DW_AT_accessibility(DW_ACCESS_public)
    2209              $C$DW$208       .dwtag  DW_TAG_member
    2210                      .dwattr $C$DW$208, DW_AT_type(*$C$DW$T$19)
    2211                      .dwattr $C$DW$208, DW_AT_name("PPB3ZERO")
    2212                      .dwattr $C$DW$208, DW_AT_TI_symbol_name("_PPB3ZERO")
    2213                      .dwattr $C$DW$208, DW_AT_bit_offset(0x05), DW_AT_bit_size(0x01)
    2214                      .dwattr $C$DW$208, DW_AT_data_member_location[DW_OP_plus_uconst 0x0]
    2215                      .dwattr $C$DW$208, DW_AT_accessibility(DW_ACCESS_public)
    2216              $C$DW$209       .dwtag  DW_TAG_member
    2217                      .dwattr $C$DW$209, DW_AT_type(*$C$DW$T$19)
    2218                      .dwattr $C$DW$209, DW_AT_name("rsvd3")
    2219                      .dwattr $C$DW$209, DW_AT_TI_symbol_name("_rsvd3")
    2220                      .dwattr $C$DW$209, DW_AT_bit_offset(0x04), DW_AT_bit_size(0x01)
    2221                      .dwattr $C$DW$209, DW_AT_data_member_location[DW_OP_plus_uconst 0x0]
    2222                      .dwattr $C$DW$209, DW_AT_accessibility(DW_ACCESS_public)
    2223              $C$DW$210       .dwtag  DW_TAG_member
    2224                      .dwattr $C$DW$210, DW_AT_type(*$C$DW$T$19)
    2225                      .dwattr $C$DW$210, DW_AT_name("PPB4TRIPHI")
    2226                      .dwattr $C$DW$210, DW_AT_TI_symbol_name("_PPB4TRIPHI")
    2227                      .dwattr $C$DW$210, DW_AT_bit_offset(0x03), DW_AT_bit_size(0x01)
    2228                      .dwattr $C$DW$210, DW_AT_data_member_location[DW_OP_plus_uconst 0x0]
    2229                      .dwattr $C$DW$210, DW_AT_accessibility(DW_ACCESS_public)
    2230              $C$DW$211       .dwtag  DW_TAG_member
    2231                      .dwattr $C$DW$211, DW_AT_type(*$C$DW$T$19)
    2232                      .dwattr $C$DW$211, DW_AT_name("PPB4TRIPLO")
    2233                      .dwattr $C$DW$211, DW_AT_TI_symbol_name("_PPB4TRIPLO")
    2234                      .dwattr $C$DW$211, DW_AT_bit_offset(0x02), DW_AT_bit_size(0x01)
    2235                      .dwattr $C$DW$211, DW_AT_data_member_location[DW_OP_plus_uconst 0x0]
    2236                      .dwattr $C$DW$211, DW_AT_accessibility(DW_ACCESS_public)
    2237              $C$DW$212       .dwtag  DW_TAG_member
    2238                      .dwattr $C$DW$212, DW_AT_type(*$C$DW$T$19)
    2239                      .dwattr $C$DW$212, DW_AT_name("PPB4ZERO")
    2240                      .dwattr $C$DW$212, DW_AT_TI_symbol_name("_PPB4ZERO")
    2241                      .dwattr $C$DW$212, DW_AT_bit_offset(0x01), DW_AT_bit_size(0x01)
    2242                      .dwattr $C$DW$212, DW_AT_data_member_location[DW_OP_plus_uconst 0x0]
    2243                      .dwattr $C$DW$212, DW_AT_accessibility(DW_ACCESS_public)
TMS320C2000 Assembler PC v6.4.2 Thu Dec 14 13:36:46 2017

Tools Copyright (c) 1996-2015 Texas Instruments Incorporated
config.asm                                                           PAGE   44

    2244              $C$DW$213       .dwtag  DW_TAG_member
    2245                      .dwattr $C$DW$213, DW_AT_type(*$C$DW$T$19)
    2246                      .dwattr $C$DW$213, DW_AT_name("rsvd4")
    2247                      .dwattr $C$DW$213, DW_AT_TI_symbol_name("_rsvd4")
    2248                      .dwattr $C$DW$213, DW_AT_bit_offset(0x00), DW_AT_bit_size(0x01)
    2249                      .dwattr $C$DW$213, DW_AT_data_member_location[DW_OP_plus_uconst 0x0]
    2250                      .dwattr $C$DW$213, DW_AT_accessibility(DW_ACCESS_public)
    2251                      .dwendtag $C$DW$T$32
    2252              
    2253              
    2254              $C$DW$T$33      .dwtag  DW_TAG_union_type
    2255                      .dwattr $C$DW$T$33, DW_AT_name("ADCEVTSEL_REG")
    2256                      .dwattr $C$DW$T$33, DW_AT_byte_size(0x01)
    2257              $C$DW$214       .dwtag  DW_TAG_member
    2258                      .dwattr $C$DW$214, DW_AT_type(*$C$DW$T$19)
    2259                      .dwattr $C$DW$214, DW_AT_name("all")
    2260                      .dwattr $C$DW$214, DW_AT_TI_symbol_name("_all")
    2261                      .dwattr $C$DW$214, DW_AT_data_member_location[DW_OP_plus_uconst 0x0]
    2262                      .dwattr $C$DW$214, DW_AT_accessibility(DW_ACCESS_public)
    2263              $C$DW$215       .dwtag  DW_TAG_member
    2264                      .dwattr $C$DW$215, DW_AT_type(*$C$DW$T$32)
    2265                      .dwattr $C$DW$215, DW_AT_name("bit")
    2266                      .dwattr $C$DW$215, DW_AT_TI_symbol_name("_bit")
    2267                      .dwattr $C$DW$215, DW_AT_data_member_location[DW_OP_plus_uconst 0x0]
    2268                      .dwattr $C$DW$215, DW_AT_accessibility(DW_ACCESS_public)
    2269                      .dwendtag $C$DW$T$33
    2270              
    2271              
    2272              $C$DW$T$34      .dwtag  DW_TAG_structure_type
    2273                      .dwattr $C$DW$T$34, DW_AT_name("ADCEVTSTAT_BITS")
    2274                      .dwattr $C$DW$T$34, DW_AT_byte_size(0x01)
    2275              $C$DW$216       .dwtag  DW_TAG_member
    2276                      .dwattr $C$DW$216, DW_AT_type(*$C$DW$T$19)
    2277                      .dwattr $C$DW$216, DW_AT_name("PPB1TRIPHI")
    2278                      .dwattr $C$DW$216, DW_AT_TI_symbol_name("_PPB1TRIPHI")
    2279                      .dwattr $C$DW$216, DW_AT_bit_offset(0x0f), DW_AT_bit_size(0x01)
    2280                      .dwattr $C$DW$216, DW_AT_data_member_location[DW_OP_plus_uconst 0x0]
    2281                      .dwattr $C$DW$216, DW_AT_accessibility(DW_ACCESS_public)
    2282              $C$DW$217       .dwtag  DW_TAG_member
    2283                      .dwattr $C$DW$217, DW_AT_type(*$C$DW$T$19)
    2284                      .dwattr $C$DW$217, DW_AT_name("PPB1TRIPLO")
    2285                      .dwattr $C$DW$217, DW_AT_TI_symbol_name("_PPB1TRIPLO")
    2286                      .dwattr $C$DW$217, DW_AT_bit_offset(0x0e), DW_AT_bit_size(0x01)
    2287                      .dwattr $C$DW$217, DW_AT_data_member_location[DW_OP_plus_uconst 0x0]
    2288                      .dwattr $C$DW$217, DW_AT_accessibility(DW_ACCESS_public)
    2289              $C$DW$218       .dwtag  DW_TAG_member
    2290                      .dwattr $C$DW$218, DW_AT_type(*$C$DW$T$19)
    2291                      .dwattr $C$DW$218, DW_AT_name("PPB1ZERO")
    2292                      .dwattr $C$DW$218, DW_AT_TI_symbol_name("_PPB1ZERO")
    2293                      .dwattr $C$DW$218, DW_AT_bit_offset(0x0d), DW_AT_bit_size(0x01)
    2294                      .dwattr $C$DW$218, DW_AT_data_member_location[DW_OP_plus_uconst 0x0]
    2295                      .dwattr $C$DW$218, DW_AT_accessibility(DW_ACCESS_public)
    2296              $C$DW$219       .dwtag  DW_TAG_member
    2297                      .dwattr $C$DW$219, DW_AT_type(*$C$DW$T$19)
    2298                      .dwattr $C$DW$219, DW_AT_name("rsvd1")
TMS320C2000 Assembler PC v6.4.2 Thu Dec 14 13:36:46 2017

Tools Copyright (c) 1996-2015 Texas Instruments Incorporated
config.asm                                                           PAGE   45

    2299                      .dwattr $C$DW$219, DW_AT_TI_symbol_name("_rsvd1")
    2300                      .dwattr $C$DW$219, DW_AT_bit_offset(0x0c), DW_AT_bit_size(0x01)
    2301                      .dwattr $C$DW$219, DW_AT_data_member_location[DW_OP_plus_uconst 0x0]
    2302                      .dwattr $C$DW$219, DW_AT_accessibility(DW_ACCESS_public)
    2303              $C$DW$220       .dwtag  DW_TAG_member
    2304                      .dwattr $C$DW$220, DW_AT_type(*$C$DW$T$19)
    2305                      .dwattr $C$DW$220, DW_AT_name("PPB2TRIPHI")
    2306                      .dwattr $C$DW$220, DW_AT_TI_symbol_name("_PPB2TRIPHI")
    2307                      .dwattr $C$DW$220, DW_AT_bit_offset(0x0b), DW_AT_bit_size(0x01)
    2308                      .dwattr $C$DW$220, DW_AT_data_member_location[DW_OP_plus_uconst 0x0]
    2309                      .dwattr $C$DW$220, DW_AT_accessibility(DW_ACCESS_public)
    2310              $C$DW$221       .dwtag  DW_TAG_member
    2311                      .dwattr $C$DW$221, DW_AT_type(*$C$DW$T$19)
    2312                      .dwattr $C$DW$221, DW_AT_name("PPB2TRIPLO")
    2313                      .dwattr $C$DW$221, DW_AT_TI_symbol_name("_PPB2TRIPLO")
    2314                      .dwattr $C$DW$221, DW_AT_bit_offset(0x0a), DW_AT_bit_size(0x01)
    2315                      .dwattr $C$DW$221, DW_AT_data_member_location[DW_OP_plus_uconst 0x0]
    2316                      .dwattr $C$DW$221, DW_AT_accessibility(DW_ACCESS_public)
    2317              $C$DW$222       .dwtag  DW_TAG_member
    2318                      .dwattr $C$DW$222, DW_AT_type(*$C$DW$T$19)
    2319                      .dwattr $C$DW$222, DW_AT_name("PPB2ZERO")
    2320                      .dwattr $C$DW$222, DW_AT_TI_symbol_name("_PPB2ZERO")
    2321                      .dwattr $C$DW$222, DW_AT_bit_offset(0x09), DW_AT_bit_size(0x01)
    2322                      .dwattr $C$DW$222, DW_AT_data_member_location[DW_OP_plus_uconst 0x0]
    2323                      .dwattr $C$DW$222, DW_AT_accessibility(DW_ACCESS_public)
    2324              $C$DW$223       .dwtag  DW_TAG_member
    2325                      .dwattr $C$DW$223, DW_AT_type(*$C$DW$T$19)
    2326                      .dwattr $C$DW$223, DW_AT_name("rsvd2")
    2327                      .dwattr $C$DW$223, DW_AT_TI_symbol_name("_rsvd2")
    2328                      .dwattr $C$DW$223, DW_AT_bit_offset(0x08), DW_AT_bit_size(0x01)
    2329                      .dwattr $C$DW$223, DW_AT_data_member_location[DW_OP_plus_uconst 0x0]
    2330                      .dwattr $C$DW$223, DW_AT_accessibility(DW_ACCESS_public)
    2331              $C$DW$224       .dwtag  DW_TAG_member
    2332                      .dwattr $C$DW$224, DW_AT_type(*$C$DW$T$19)
    2333                      .dwattr $C$DW$224, DW_AT_name("PPB3TRIPHI")
    2334                      .dwattr $C$DW$224, DW_AT_TI_symbol_name("_PPB3TRIPHI")
    2335                      .dwattr $C$DW$224, DW_AT_bit_offset(0x07), DW_AT_bit_size(0x01)
    2336                      .dwattr $C$DW$224, DW_AT_data_member_location[DW_OP_plus_uconst 0x0]
    2337                      .dwattr $C$DW$224, DW_AT_accessibility(DW_ACCESS_public)
    2338              $C$DW$225       .dwtag  DW_TAG_member
    2339                      .dwattr $C$DW$225, DW_AT_type(*$C$DW$T$19)
    2340                      .dwattr $C$DW$225, DW_AT_name("PPB3TRIPLO")
    2341                      .dwattr $C$DW$225, DW_AT_TI_symbol_name("_PPB3TRIPLO")
    2342                      .dwattr $C$DW$225, DW_AT_bit_offset(0x06), DW_AT_bit_size(0x01)
    2343                      .dwattr $C$DW$225, DW_AT_data_member_location[DW_OP_plus_uconst 0x0]
    2344                      .dwattr $C$DW$225, DW_AT_accessibility(DW_ACCESS_public)
    2345              $C$DW$226       .dwtag  DW_TAG_member
    2346                      .dwattr $C$DW$226, DW_AT_type(*$C$DW$T$19)
    2347                      .dwattr $C$DW$226, DW_AT_name("PPB3ZERO")
    2348                      .dwattr $C$DW$226, DW_AT_TI_symbol_name("_PPB3ZERO")
    2349                      .dwattr $C$DW$226, DW_AT_bit_offset(0x05), DW_AT_bit_size(0x01)
    2350                      .dwattr $C$DW$226, DW_AT_data_member_location[DW_OP_plus_uconst 0x0]
    2351                      .dwattr $C$DW$226, DW_AT_accessibility(DW_ACCESS_public)
    2352              $C$DW$227       .dwtag  DW_TAG_member
    2353                      .dwattr $C$DW$227, DW_AT_type(*$C$DW$T$19)
TMS320C2000 Assembler PC v6.4.2 Thu Dec 14 13:36:46 2017

Tools Copyright (c) 1996-2015 Texas Instruments Incorporated
config.asm                                                           PAGE   46

    2354                      .dwattr $C$DW$227, DW_AT_name("rsvd3")
    2355                      .dwattr $C$DW$227, DW_AT_TI_symbol_name("_rsvd3")
    2356                      .dwattr $C$DW$227, DW_AT_bit_offset(0x04), DW_AT_bit_size(0x01)
    2357                      .dwattr $C$DW$227, DW_AT_data_member_location[DW_OP_plus_uconst 0x0]
    2358                      .dwattr $C$DW$227, DW_AT_accessibility(DW_ACCESS_public)
    2359              $C$DW$228       .dwtag  DW_TAG_member
    2360                      .dwattr $C$DW$228, DW_AT_type(*$C$DW$T$19)
    2361                      .dwattr $C$DW$228, DW_AT_name("PPB4TRIPHI")
    2362                      .dwattr $C$DW$228, DW_AT_TI_symbol_name("_PPB4TRIPHI")
    2363                      .dwattr $C$DW$228, DW_AT_bit_offset(0x03), DW_AT_bit_size(0x01)
    2364                      .dwattr $C$DW$228, DW_AT_data_member_location[DW_OP_plus_uconst 0x0]
    2365                      .dwattr $C$DW$228, DW_AT_accessibility(DW_ACCESS_public)
    2366              $C$DW$229       .dwtag  DW_TAG_member
    2367                      .dwattr $C$DW$229, DW_AT_type(*$C$DW$T$19)
    2368                      .dwattr $C$DW$229, DW_AT_name("PPB4TRIPLO")
    2369                      .dwattr $C$DW$229, DW_AT_TI_symbol_name("_PPB4TRIPLO")
    2370                      .dwattr $C$DW$229, DW_AT_bit_offset(0x02), DW_AT_bit_size(0x01)
    2371                      .dwattr $C$DW$229, DW_AT_data_member_location[DW_OP_plus_uconst 0x0]
    2372                      .dwattr $C$DW$229, DW_AT_accessibility(DW_ACCESS_public)
    2373              $C$DW$230       .dwtag  DW_TAG_member
    2374                      .dwattr $C$DW$230, DW_AT_type(*$C$DW$T$19)
    2375                      .dwattr $C$DW$230, DW_AT_name("PPB4ZERO")
    2376                      .dwattr $C$DW$230, DW_AT_TI_symbol_name("_PPB4ZERO")
    2377                      .dwattr $C$DW$230, DW_AT_bit_offset(0x01), DW_AT_bit_size(0x01)
    2378                      .dwattr $C$DW$230, DW_AT_data_member_location[DW_OP_plus_uconst 0x0]
    2379                      .dwattr $C$DW$230, DW_AT_accessibility(DW_ACCESS_public)
    2380              $C$DW$231       .dwtag  DW_TAG_member
    2381                      .dwattr $C$DW$231, DW_AT_type(*$C$DW$T$19)
    2382                      .dwattr $C$DW$231, DW_AT_name("rsvd4")
    2383                      .dwattr $C$DW$231, DW_AT_TI_symbol_name("_rsvd4")
    2384                      .dwattr $C$DW$231, DW_AT_bit_offset(0x00), DW_AT_bit_size(0x01)
    2385                      .dwattr $C$DW$231, DW_AT_data_member_location[DW_OP_plus_uconst 0x0]
    2386                      .dwattr $C$DW$231, DW_AT_accessibility(DW_ACCESS_public)
    2387                      .dwendtag $C$DW$T$34
    2388              
    2389              
    2390              $C$DW$T$35      .dwtag  DW_TAG_union_type
    2391                      .dwattr $C$DW$T$35, DW_AT_name("ADCEVTSTAT_REG")
    2392                      .dwattr $C$DW$T$35, DW_AT_byte_size(0x01)
    2393              $C$DW$232       .dwtag  DW_TAG_member
    2394                      .dwattr $C$DW$232, DW_AT_type(*$C$DW$T$19)
    2395                      .dwattr $C$DW$232, DW_AT_name("all")
    2396                      .dwattr $C$DW$232, DW_AT_TI_symbol_name("_all")
    2397                      .dwattr $C$DW$232, DW_AT_data_member_location[DW_OP_plus_uconst 0x0]
    2398                      .dwattr $C$DW$232, DW_AT_accessibility(DW_ACCESS_public)
    2399              $C$DW$233       .dwtag  DW_TAG_member
    2400                      .dwattr $C$DW$233, DW_AT_type(*$C$DW$T$34)
    2401                      .dwattr $C$DW$233, DW_AT_name("bit")
    2402                      .dwattr $C$DW$233, DW_AT_TI_symbol_name("_bit")
    2403                      .dwattr $C$DW$233, DW_AT_data_member_location[DW_OP_plus_uconst 0x0]
    2404                      .dwattr $C$DW$233, DW_AT_accessibility(DW_ACCESS_public)
    2405                      .dwendtag $C$DW$T$35
    2406              
    2407              
    2408              $C$DW$T$36      .dwtag  DW_TAG_structure_type
TMS320C2000 Assembler PC v6.4.2 Thu Dec 14 13:36:46 2017

Tools Copyright (c) 1996-2015 Texas Instruments Incorporated
config.asm                                                           PAGE   47

    2409                      .dwattr $C$DW$T$36, DW_AT_name("ADCINTFLGCLR_BITS")
    2410                      .dwattr $C$DW$T$36, DW_AT_byte_size(0x01)
    2411              $C$DW$234       .dwtag  DW_TAG_member
    2412                      .dwattr $C$DW$234, DW_AT_type(*$C$DW$T$19)
    2413                      .dwattr $C$DW$234, DW_AT_name("ADCINT1")
    2414                      .dwattr $C$DW$234, DW_AT_TI_symbol_name("_ADCINT1")
    2415                      .dwattr $C$DW$234, DW_AT_bit_offset(0x0f), DW_AT_bit_size(0x01)
    2416                      .dwattr $C$DW$234, DW_AT_data_member_location[DW_OP_plus_uconst 0x0]
    2417                      .dwattr $C$DW$234, DW_AT_accessibility(DW_ACCESS_public)
    2418              $C$DW$235       .dwtag  DW_TAG_member
    2419                      .dwattr $C$DW$235, DW_AT_type(*$C$DW$T$19)
    2420                      .dwattr $C$DW$235, DW_AT_name("ADCINT2")
    2421                      .dwattr $C$DW$235, DW_AT_TI_symbol_name("_ADCINT2")
    2422                      .dwattr $C$DW$235, DW_AT_bit_offset(0x0e), DW_AT_bit_size(0x01)
    2423                      .dwattr $C$DW$235, DW_AT_data_member_location[DW_OP_plus_uconst 0x0]
    2424                      .dwattr $C$DW$235, DW_AT_accessibility(DW_ACCESS_public)
    2425              $C$DW$236       .dwtag  DW_TAG_member
    2426                      .dwattr $C$DW$236, DW_AT_type(*$C$DW$T$19)
    2427                      .dwattr $C$DW$236, DW_AT_name("ADCINT3")
    2428                      .dwattr $C$DW$236, DW_AT_TI_symbol_name("_ADCINT3")
    2429                      .dwattr $C$DW$236, DW_AT_bit_offset(0x0d), DW_AT_bit_size(0x01)
    2430                      .dwattr $C$DW$236, DW_AT_data_member_location[DW_OP_plus_uconst 0x0]
    2431                      .dwattr $C$DW$236, DW_AT_accessibility(DW_ACCESS_public)
    2432              $C$DW$237       .dwtag  DW_TAG_member
    2433                      .dwattr $C$DW$237, DW_AT_type(*$C$DW$T$19)
    2434                      .dwattr $C$DW$237, DW_AT_name("ADCINT4")
    2435                      .dwattr $C$DW$237, DW_AT_TI_symbol_name("_ADCINT4")
    2436                      .dwattr $C$DW$237, DW_AT_bit_offset(0x0c), DW_AT_bit_size(0x01)
    2437                      .dwattr $C$DW$237, DW_AT_data_member_location[DW_OP_plus_uconst 0x0]
    2438                      .dwattr $C$DW$237, DW_AT_accessibility(DW_ACCESS_public)
    2439              $C$DW$238       .dwtag  DW_TAG_member
    2440                      .dwattr $C$DW$238, DW_AT_type(*$C$DW$T$19)
    2441                      .dwattr $C$DW$238, DW_AT_name("rsvd1")
    2442                      .dwattr $C$DW$238, DW_AT_TI_symbol_name("_rsvd1")
    2443                      .dwattr $C$DW$238, DW_AT_bit_offset(0x00), DW_AT_bit_size(0x0c)
    2444                      .dwattr $C$DW$238, DW_AT_data_member_location[DW_OP_plus_uconst 0x0]
    2445                      .dwattr $C$DW$238, DW_AT_accessibility(DW_ACCESS_public)
    2446                      .dwendtag $C$DW$T$36
    2447              
    2448              
    2449              $C$DW$T$37      .dwtag  DW_TAG_union_type
    2450                      .dwattr $C$DW$T$37, DW_AT_name("ADCINTFLGCLR_REG")
    2451                      .dwattr $C$DW$T$37, DW_AT_byte_size(0x01)
    2452              $C$DW$239       .dwtag  DW_TAG_member
    2453                      .dwattr $C$DW$239, DW_AT_type(*$C$DW$T$19)
    2454                      .dwattr $C$DW$239, DW_AT_name("all")
    2455                      .dwattr $C$DW$239, DW_AT_TI_symbol_name("_all")
    2456                      .dwattr $C$DW$239, DW_AT_data_member_location[DW_OP_plus_uconst 0x0]
    2457                      .dwattr $C$DW$239, DW_AT_accessibility(DW_ACCESS_public)
    2458              $C$DW$240       .dwtag  DW_TAG_member
    2459                      .dwattr $C$DW$240, DW_AT_type(*$C$DW$T$36)
    2460                      .dwattr $C$DW$240, DW_AT_name("bit")
    2461                      .dwattr $C$DW$240, DW_AT_TI_symbol_name("_bit")
    2462                      .dwattr $C$DW$240, DW_AT_data_member_location[DW_OP_plus_uconst 0x0]
    2463                      .dwattr $C$DW$240, DW_AT_accessibility(DW_ACCESS_public)
TMS320C2000 Assembler PC v6.4.2 Thu Dec 14 13:36:46 2017

Tools Copyright (c) 1996-2015 Texas Instruments Incorporated
config.asm                                                           PAGE   48

    2464                      .dwendtag $C$DW$T$37
    2465              
    2466              
    2467              $C$DW$T$38      .dwtag  DW_TAG_structure_type
    2468                      .dwattr $C$DW$T$38, DW_AT_name("ADCINTFLG_BITS")
    2469                      .dwattr $C$DW$T$38, DW_AT_byte_size(0x01)
    2470              $C$DW$241       .dwtag  DW_TAG_member
    2471                      .dwattr $C$DW$241, DW_AT_type(*$C$DW$T$19)
    2472                      .dwattr $C$DW$241, DW_AT_name("ADCINT1")
    2473                      .dwattr $C$DW$241, DW_AT_TI_symbol_name("_ADCINT1")
    2474                      .dwattr $C$DW$241, DW_AT_bit_offset(0x0f), DW_AT_bit_size(0x01)
    2475                      .dwattr $C$DW$241, DW_AT_data_member_location[DW_OP_plus_uconst 0x0]
    2476                      .dwattr $C$DW$241, DW_AT_accessibility(DW_ACCESS_public)
    2477              $C$DW$242       .dwtag  DW_TAG_member
    2478                      .dwattr $C$DW$242, DW_AT_type(*$C$DW$T$19)
    2479                      .dwattr $C$DW$242, DW_AT_name("ADCINT2")
    2480                      .dwattr $C$DW$242, DW_AT_TI_symbol_name("_ADCINT2")
    2481                      .dwattr $C$DW$242, DW_AT_bit_offset(0x0e), DW_AT_bit_size(0x01)
    2482                      .dwattr $C$DW$242, DW_AT_data_member_location[DW_OP_plus_uconst 0x0]
    2483                      .dwattr $C$DW$242, DW_AT_accessibility(DW_ACCESS_public)
    2484              $C$DW$243       .dwtag  DW_TAG_member
    2485                      .dwattr $C$DW$243, DW_AT_type(*$C$DW$T$19)
    2486                      .dwattr $C$DW$243, DW_AT_name("ADCINT3")
    2487                      .dwattr $C$DW$243, DW_AT_TI_symbol_name("_ADCINT3")
    2488                      .dwattr $C$DW$243, DW_AT_bit_offset(0x0d), DW_AT_bit_size(0x01)
    2489                      .dwattr $C$DW$243, DW_AT_data_member_location[DW_OP_plus_uconst 0x0]
    2490                      .dwattr $C$DW$243, DW_AT_accessibility(DW_ACCESS_public)
    2491              $C$DW$244       .dwtag  DW_TAG_member
    2492                      .dwattr $C$DW$244, DW_AT_type(*$C$DW$T$19)
    2493                      .dwattr $C$DW$244, DW_AT_name("ADCINT4")
    2494                      .dwattr $C$DW$244, DW_AT_TI_symbol_name("_ADCINT4")
    2495                      .dwattr $C$DW$244, DW_AT_bit_offset(0x0c), DW_AT_bit_size(0x01)
    2496                      .dwattr $C$DW$244, DW_AT_data_member_location[DW_OP_plus_uconst 0x0]
    2497                      .dwattr $C$DW$244, DW_AT_accessibility(DW_ACCESS_public)
    2498              $C$DW$245       .dwtag  DW_TAG_member
    2499                      .dwattr $C$DW$245, DW_AT_type(*$C$DW$T$19)
    2500                      .dwattr $C$DW$245, DW_AT_name("rsvd1")
    2501                      .dwattr $C$DW$245, DW_AT_TI_symbol_name("_rsvd1")
    2502                      .dwattr $C$DW$245, DW_AT_bit_offset(0x00), DW_AT_bit_size(0x0c)
    2503                      .dwattr $C$DW$245, DW_AT_data_member_location[DW_OP_plus_uconst 0x0]
    2504                      .dwattr $C$DW$245, DW_AT_accessibility(DW_ACCESS_public)
    2505                      .dwendtag $C$DW$T$38
    2506              
    2507              
    2508              $C$DW$T$39      .dwtag  DW_TAG_union_type
    2509                      .dwattr $C$DW$T$39, DW_AT_name("ADCINTFLG_REG")
    2510                      .dwattr $C$DW$T$39, DW_AT_byte_size(0x01)
    2511              $C$DW$246       .dwtag  DW_TAG_member
    2512                      .dwattr $C$DW$246, DW_AT_type(*$C$DW$T$19)
    2513                      .dwattr $C$DW$246, DW_AT_name("all")
    2514                      .dwattr $C$DW$246, DW_AT_TI_symbol_name("_all")
    2515                      .dwattr $C$DW$246, DW_AT_data_member_location[DW_OP_plus_uconst 0x0]
    2516                      .dwattr $C$DW$246, DW_AT_accessibility(DW_ACCESS_public)
    2517              $C$DW$247       .dwtag  DW_TAG_member
    2518                      .dwattr $C$DW$247, DW_AT_type(*$C$DW$T$38)
TMS320C2000 Assembler PC v6.4.2 Thu Dec 14 13:36:46 2017

Tools Copyright (c) 1996-2015 Texas Instruments Incorporated
config.asm                                                           PAGE   49

    2519                      .dwattr $C$DW$247, DW_AT_name("bit")
    2520                      .dwattr $C$DW$247, DW_AT_TI_symbol_name("_bit")
    2521                      .dwattr $C$DW$247, DW_AT_data_member_location[DW_OP_plus_uconst 0x0]
    2522                      .dwattr $C$DW$247, DW_AT_accessibility(DW_ACCESS_public)
    2523                      .dwendtag $C$DW$T$39
    2524              
    2525              
    2526              $C$DW$T$40      .dwtag  DW_TAG_structure_type
    2527                      .dwattr $C$DW$T$40, DW_AT_name("ADCINTOVFCLR_BITS")
    2528                      .dwattr $C$DW$T$40, DW_AT_byte_size(0x01)
    2529              $C$DW$248       .dwtag  DW_TAG_member
    2530                      .dwattr $C$DW$248, DW_AT_type(*$C$DW$T$19)
    2531                      .dwattr $C$DW$248, DW_AT_name("ADCINT1")
    2532                      .dwattr $C$DW$248, DW_AT_TI_symbol_name("_ADCINT1")
    2533                      .dwattr $C$DW$248, DW_AT_bit_offset(0x0f), DW_AT_bit_size(0x01)
    2534                      .dwattr $C$DW$248, DW_AT_data_member_location[DW_OP_plus_uconst 0x0]
    2535                      .dwattr $C$DW$248, DW_AT_accessibility(DW_ACCESS_public)
    2536              $C$DW$249       .dwtag  DW_TAG_member
    2537                      .dwattr $C$DW$249, DW_AT_type(*$C$DW$T$19)
    2538                      .dwattr $C$DW$249, DW_AT_name("ADCINT2")
    2539                      .dwattr $C$DW$249, DW_AT_TI_symbol_name("_ADCINT2")
    2540                      .dwattr $C$DW$249, DW_AT_bit_offset(0x0e), DW_AT_bit_size(0x01)
    2541                      .dwattr $C$DW$249, DW_AT_data_member_location[DW_OP_plus_uconst 0x0]
    2542                      .dwattr $C$DW$249, DW_AT_accessibility(DW_ACCESS_public)
    2543              $C$DW$250       .dwtag  DW_TAG_member
    2544                      .dwattr $C$DW$250, DW_AT_type(*$C$DW$T$19)
    2545                      .dwattr $C$DW$250, DW_AT_name("ADCINT3")
    2546                      .dwattr $C$DW$250, DW_AT_TI_symbol_name("_ADCINT3")
    2547                      .dwattr $C$DW$250, DW_AT_bit_offset(0x0d), DW_AT_bit_size(0x01)
    2548                      .dwattr $C$DW$250, DW_AT_data_member_location[DW_OP_plus_uconst 0x0]
    2549                      .dwattr $C$DW$250, DW_AT_accessibility(DW_ACCESS_public)
    2550              $C$DW$251       .dwtag  DW_TAG_member
    2551                      .dwattr $C$DW$251, DW_AT_type(*$C$DW$T$19)
    2552                      .dwattr $C$DW$251, DW_AT_name("ADCINT4")
    2553                      .dwattr $C$DW$251, DW_AT_TI_symbol_name("_ADCINT4")
    2554                      .dwattr $C$DW$251, DW_AT_bit_offset(0x0c), DW_AT_bit_size(0x01)
    2555                      .dwattr $C$DW$251, DW_AT_data_member_location[DW_OP_plus_uconst 0x0]
    2556                      .dwattr $C$DW$251, DW_AT_accessibility(DW_ACCESS_public)
    2557              $C$DW$252       .dwtag  DW_TAG_member
    2558                      .dwattr $C$DW$252, DW_AT_type(*$C$DW$T$19)
    2559                      .dwattr $C$DW$252, DW_AT_name("rsvd1")
    2560                      .dwattr $C$DW$252, DW_AT_TI_symbol_name("_rsvd1")
    2561                      .dwattr $C$DW$252, DW_AT_bit_offset(0x00), DW_AT_bit_size(0x0c)
    2562                      .dwattr $C$DW$252, DW_AT_data_member_location[DW_OP_plus_uconst 0x0]
    2563                      .dwattr $C$DW$252, DW_AT_accessibility(DW_ACCESS_public)
    2564                      .dwendtag $C$DW$T$40
    2565              
    2566              
    2567              $C$DW$T$41      .dwtag  DW_TAG_union_type
    2568                      .dwattr $C$DW$T$41, DW_AT_name("ADCINTOVFCLR_REG")
    2569                      .dwattr $C$DW$T$41, DW_AT_byte_size(0x01)
    2570              $C$DW$253       .dwtag  DW_TAG_member
    2571                      .dwattr $C$DW$253, DW_AT_type(*$C$DW$T$19)
    2572                      .dwattr $C$DW$253, DW_AT_name("all")
    2573                      .dwattr $C$DW$253, DW_AT_TI_symbol_name("_all")
TMS320C2000 Assembler PC v6.4.2 Thu Dec 14 13:36:46 2017

Tools Copyright (c) 1996-2015 Texas Instruments Incorporated
config.asm                                                           PAGE   50

    2574                      .dwattr $C$DW$253, DW_AT_data_member_location[DW_OP_plus_uconst 0x0]
    2575                      .dwattr $C$DW$253, DW_AT_accessibility(DW_ACCESS_public)
    2576              $C$DW$254       .dwtag  DW_TAG_member
    2577                      .dwattr $C$DW$254, DW_AT_type(*$C$DW$T$40)
    2578                      .dwattr $C$DW$254, DW_AT_name("bit")
    2579                      .dwattr $C$DW$254, DW_AT_TI_symbol_name("_bit")
    2580                      .dwattr $C$DW$254, DW_AT_data_member_location[DW_OP_plus_uconst 0x0]
    2581                      .dwattr $C$DW$254, DW_AT_accessibility(DW_ACCESS_public)
    2582                      .dwendtag $C$DW$T$41
    2583              
    2584              
    2585              $C$DW$T$42      .dwtag  DW_TAG_structure_type
    2586                      .dwattr $C$DW$T$42, DW_AT_name("ADCINTOVF_BITS")
    2587                      .dwattr $C$DW$T$42, DW_AT_byte_size(0x01)
    2588              $C$DW$255       .dwtag  DW_TAG_member
    2589                      .dwattr $C$DW$255, DW_AT_type(*$C$DW$T$19)
    2590                      .dwattr $C$DW$255, DW_AT_name("ADCINT1")
    2591                      .dwattr $C$DW$255, DW_AT_TI_symbol_name("_ADCINT1")
    2592                      .dwattr $C$DW$255, DW_AT_bit_offset(0x0f), DW_AT_bit_size(0x01)
    2593                      .dwattr $C$DW$255, DW_AT_data_member_location[DW_OP_plus_uconst 0x0]
    2594                      .dwattr $C$DW$255, DW_AT_accessibility(DW_ACCESS_public)
    2595              $C$DW$256       .dwtag  DW_TAG_member
    2596                      .dwattr $C$DW$256, DW_AT_type(*$C$DW$T$19)
    2597                      .dwattr $C$DW$256, DW_AT_name("ADCINT2")
    2598                      .dwattr $C$DW$256, DW_AT_TI_symbol_name("_ADCINT2")
    2599                      .dwattr $C$DW$256, DW_AT_bit_offset(0x0e), DW_AT_bit_size(0x01)
    2600                      .dwattr $C$DW$256, DW_AT_data_member_location[DW_OP_plus_uconst 0x0]
    2601                      .dwattr $C$DW$256, DW_AT_accessibility(DW_ACCESS_public)
    2602              $C$DW$257       .dwtag  DW_TAG_member
    2603                      .dwattr $C$DW$257, DW_AT_type(*$C$DW$T$19)
    2604                      .dwattr $C$DW$257, DW_AT_name("ADCINT3")
    2605                      .dwattr $C$DW$257, DW_AT_TI_symbol_name("_ADCINT3")
    2606                      .dwattr $C$DW$257, DW_AT_bit_offset(0x0d), DW_AT_bit_size(0x01)
    2607                      .dwattr $C$DW$257, DW_AT_data_member_location[DW_OP_plus_uconst 0x0]
    2608                      .dwattr $C$DW$257, DW_AT_accessibility(DW_ACCESS_public)
    2609              $C$DW$258       .dwtag  DW_TAG_member
    2610                      .dwattr $C$DW$258, DW_AT_type(*$C$DW$T$19)
    2611                      .dwattr $C$DW$258, DW_AT_name("ADCINT4")
    2612                      .dwattr $C$DW$258, DW_AT_TI_symbol_name("_ADCINT4")
    2613                      .dwattr $C$DW$258, DW_AT_bit_offset(0x0c), DW_AT_bit_size(0x01)
    2614                      .dwattr $C$DW$258, DW_AT_data_member_location[DW_OP_plus_uconst 0x0]
    2615                      .dwattr $C$DW$258, DW_AT_accessibility(DW_ACCESS_public)
    2616              $C$DW$259       .dwtag  DW_TAG_member
    2617                      .dwattr $C$DW$259, DW_AT_type(*$C$DW$T$19)
    2618                      .dwattr $C$DW$259, DW_AT_name("rsvd1")
    2619                      .dwattr $C$DW$259, DW_AT_TI_symbol_name("_rsvd1")
    2620                      .dwattr $C$DW$259, DW_AT_bit_offset(0x00), DW_AT_bit_size(0x0c)
    2621                      .dwattr $C$DW$259, DW_AT_data_member_location[DW_OP_plus_uconst 0x0]
    2622                      .dwattr $C$DW$259, DW_AT_accessibility(DW_ACCESS_public)
    2623                      .dwendtag $C$DW$T$42
    2624              
    2625              
    2626              $C$DW$T$43      .dwtag  DW_TAG_union_type
    2627                      .dwattr $C$DW$T$43, DW_AT_name("ADCINTOVF_REG")
    2628                      .dwattr $C$DW$T$43, DW_AT_byte_size(0x01)
TMS320C2000 Assembler PC v6.4.2 Thu Dec 14 13:36:46 2017

Tools Copyright (c) 1996-2015 Texas Instruments Incorporated
config.asm                                                           PAGE   51

    2629              $C$DW$260       .dwtag  DW_TAG_member
    2630                      .dwattr $C$DW$260, DW_AT_type(*$C$DW$T$19)
    2631                      .dwattr $C$DW$260, DW_AT_name("all")
    2632                      .dwattr $C$DW$260, DW_AT_TI_symbol_name("_all")
    2633                      .dwattr $C$DW$260, DW_AT_data_member_location[DW_OP_plus_uconst 0x0]
    2634                      .dwattr $C$DW$260, DW_AT_accessibility(DW_ACCESS_public)
    2635              $C$DW$261       .dwtag  DW_TAG_member
    2636                      .dwattr $C$DW$261, DW_AT_type(*$C$DW$T$42)
    2637                      .dwattr $C$DW$261, DW_AT_name("bit")
    2638                      .dwattr $C$DW$261, DW_AT_TI_symbol_name("_bit")
    2639                      .dwattr $C$DW$261, DW_AT_data_member_location[DW_OP_plus_uconst 0x0]
    2640                      .dwattr $C$DW$261, DW_AT_accessibility(DW_ACCESS_public)
    2641                      .dwendtag $C$DW$T$43
    2642              
    2643              
    2644              $C$DW$T$44      .dwtag  DW_TAG_structure_type
    2645                      .dwattr $C$DW$T$44, DW_AT_name("ADCINTSEL1N2_BITS")
    2646                      .dwattr $C$DW$T$44, DW_AT_byte_size(0x01)
    2647              $C$DW$262       .dwtag  DW_TAG_member
    2648                      .dwattr $C$DW$262, DW_AT_type(*$C$DW$T$19)
    2649                      .dwattr $C$DW$262, DW_AT_name("INT1SEL")
    2650                      .dwattr $C$DW$262, DW_AT_TI_symbol_name("_INT1SEL")
    2651                      .dwattr $C$DW$262, DW_AT_bit_offset(0x0c), DW_AT_bit_size(0x04)
    2652                      .dwattr $C$DW$262, DW_AT_data_member_location[DW_OP_plus_uconst 0x0]
    2653                      .dwattr $C$DW$262, DW_AT_accessibility(DW_ACCESS_public)
    2654              $C$DW$263       .dwtag  DW_TAG_member
    2655                      .dwattr $C$DW$263, DW_AT_type(*$C$DW$T$19)
    2656                      .dwattr $C$DW$263, DW_AT_name("rsvd1")
    2657                      .dwattr $C$DW$263, DW_AT_TI_symbol_name("_rsvd1")
    2658                      .dwattr $C$DW$263, DW_AT_bit_offset(0x0b), DW_AT_bit_size(0x01)
    2659                      .dwattr $C$DW$263, DW_AT_data_member_location[DW_OP_plus_uconst 0x0]
    2660                      .dwattr $C$DW$263, DW_AT_accessibility(DW_ACCESS_public)
    2661              $C$DW$264       .dwtag  DW_TAG_member
    2662                      .dwattr $C$DW$264, DW_AT_type(*$C$DW$T$19)
    2663                      .dwattr $C$DW$264, DW_AT_name("INT1E")
    2664                      .dwattr $C$DW$264, DW_AT_TI_symbol_name("_INT1E")
    2665                      .dwattr $C$DW$264, DW_AT_bit_offset(0x0a), DW_AT_bit_size(0x01)
    2666                      .dwattr $C$DW$264, DW_AT_data_member_location[DW_OP_plus_uconst 0x0]
    2667                      .dwattr $C$DW$264, DW_AT_accessibility(DW_ACCESS_public)
    2668              $C$DW$265       .dwtag  DW_TAG_member
    2669                      .dwattr $C$DW$265, DW_AT_type(*$C$DW$T$19)
    2670                      .dwattr $C$DW$265, DW_AT_name("INT1CONT")
    2671                      .dwattr $C$DW$265, DW_AT_TI_symbol_name("_INT1CONT")
    2672                      .dwattr $C$DW$265, DW_AT_bit_offset(0x09), DW_AT_bit_size(0x01)
    2673                      .dwattr $C$DW$265, DW_AT_data_member_location[DW_OP_plus_uconst 0x0]
    2674                      .dwattr $C$DW$265, DW_AT_accessibility(DW_ACCESS_public)
    2675              $C$DW$266       .dwtag  DW_TAG_member
    2676                      .dwattr $C$DW$266, DW_AT_type(*$C$DW$T$19)
    2677                      .dwattr $C$DW$266, DW_AT_name("rsvd2")
    2678                      .dwattr $C$DW$266, DW_AT_TI_symbol_name("_rsvd2")
    2679                      .dwattr $C$DW$266, DW_AT_bit_offset(0x08), DW_AT_bit_size(0x01)
    2680                      .dwattr $C$DW$266, DW_AT_data_member_location[DW_OP_plus_uconst 0x0]
    2681                      .dwattr $C$DW$266, DW_AT_accessibility(DW_ACCESS_public)
    2682              $C$DW$267       .dwtag  DW_TAG_member
    2683                      .dwattr $C$DW$267, DW_AT_type(*$C$DW$T$19)
TMS320C2000 Assembler PC v6.4.2 Thu Dec 14 13:36:46 2017

Tools Copyright (c) 1996-2015 Texas Instruments Incorporated
config.asm                                                           PAGE   52

    2684                      .dwattr $C$DW$267, DW_AT_name("INT2SEL")
    2685                      .dwattr $C$DW$267, DW_AT_TI_symbol_name("_INT2SEL")
    2686                      .dwattr $C$DW$267, DW_AT_bit_offset(0x04), DW_AT_bit_size(0x04)
    2687                      .dwattr $C$DW$267, DW_AT_data_member_location[DW_OP_plus_uconst 0x0]
    2688                      .dwattr $C$DW$267, DW_AT_accessibility(DW_ACCESS_public)
    2689              $C$DW$268       .dwtag  DW_TAG_member
    2690                      .dwattr $C$DW$268, DW_AT_type(*$C$DW$T$19)
    2691                      .dwattr $C$DW$268, DW_AT_name("rsvd3")
    2692                      .dwattr $C$DW$268, DW_AT_TI_symbol_name("_rsvd3")
    2693                      .dwattr $C$DW$268, DW_AT_bit_offset(0x03), DW_AT_bit_size(0x01)
    2694                      .dwattr $C$DW$268, DW_AT_data_member_location[DW_OP_plus_uconst 0x0]
    2695                      .dwattr $C$DW$268, DW_AT_accessibility(DW_ACCESS_public)
    2696              $C$DW$269       .dwtag  DW_TAG_member
    2697                      .dwattr $C$DW$269, DW_AT_type(*$C$DW$T$19)
    2698                      .dwattr $C$DW$269, DW_AT_name("INT2E")
    2699                      .dwattr $C$DW$269, DW_AT_TI_symbol_name("_INT2E")
    2700                      .dwattr $C$DW$269, DW_AT_bit_offset(0x02), DW_AT_bit_size(0x01)
    2701                      .dwattr $C$DW$269, DW_AT_data_member_location[DW_OP_plus_uconst 0x0]
    2702                      .dwattr $C$DW$269, DW_AT_accessibility(DW_ACCESS_public)
    2703              $C$DW$270       .dwtag  DW_TAG_member
    2704                      .dwattr $C$DW$270, DW_AT_type(*$C$DW$T$19)
    2705                      .dwattr $C$DW$270, DW_AT_name("INT2CONT")
    2706                      .dwattr $C$DW$270, DW_AT_TI_symbol_name("_INT2CONT")
    2707                      .dwattr $C$DW$270, DW_AT_bit_offset(0x01), DW_AT_bit_size(0x01)
    2708                      .dwattr $C$DW$270, DW_AT_data_member_location[DW_OP_plus_uconst 0x0]
    2709                      .dwattr $C$DW$270, DW_AT_accessibility(DW_ACCESS_public)
    2710              $C$DW$271       .dwtag  DW_TAG_member
    2711                      .dwattr $C$DW$271, DW_AT_type(*$C$DW$T$19)
    2712                      .dwattr $C$DW$271, DW_AT_name("rsvd4")
    2713                      .dwattr $C$DW$271, DW_AT_TI_symbol_name("_rsvd4")
    2714                      .dwattr $C$DW$271, DW_AT_bit_offset(0x00), DW_AT_bit_size(0x01)
    2715                      .dwattr $C$DW$271, DW_AT_data_member_location[DW_OP_plus_uconst 0x0]
    2716                      .dwattr $C$DW$271, DW_AT_accessibility(DW_ACCESS_public)
    2717                      .dwendtag $C$DW$T$44
    2718              
    2719              
    2720              $C$DW$T$45      .dwtag  DW_TAG_union_type
    2721                      .dwattr $C$DW$T$45, DW_AT_name("ADCINTSEL1N2_REG")
    2722                      .dwattr $C$DW$T$45, DW_AT_byte_size(0x01)
    2723              $C$DW$272       .dwtag  DW_TAG_member
    2724                      .dwattr $C$DW$272, DW_AT_type(*$C$DW$T$19)
    2725                      .dwattr $C$DW$272, DW_AT_name("all")
    2726                      .dwattr $C$DW$272, DW_AT_TI_symbol_name("_all")
    2727                      .dwattr $C$DW$272, DW_AT_data_member_location[DW_OP_plus_uconst 0x0]
    2728                      .dwattr $C$DW$272, DW_AT_accessibility(DW_ACCESS_public)
    2729              $C$DW$273       .dwtag  DW_TAG_member
    2730                      .dwattr $C$DW$273, DW_AT_type(*$C$DW$T$44)
    2731                      .dwattr $C$DW$273, DW_AT_name("bit")
    2732                      .dwattr $C$DW$273, DW_AT_TI_symbol_name("_bit")
    2733                      .dwattr $C$DW$273, DW_AT_data_member_location[DW_OP_plus_uconst 0x0]
    2734                      .dwattr $C$DW$273, DW_AT_accessibility(DW_ACCESS_public)
    2735                      .dwendtag $C$DW$T$45
    2736              
    2737              
    2738              $C$DW$T$46      .dwtag  DW_TAG_structure_type
TMS320C2000 Assembler PC v6.4.2 Thu Dec 14 13:36:46 2017

Tools Copyright (c) 1996-2015 Texas Instruments Incorporated
config.asm                                                           PAGE   53

    2739                      .dwattr $C$DW$T$46, DW_AT_name("ADCINTSEL3N4_BITS")
    2740                      .dwattr $C$DW$T$46, DW_AT_byte_size(0x01)
    2741              $C$DW$274       .dwtag  DW_TAG_member
    2742                      .dwattr $C$DW$274, DW_AT_type(*$C$DW$T$19)
    2743                      .dwattr $C$DW$274, DW_AT_name("INT3SEL")
    2744                      .dwattr $C$DW$274, DW_AT_TI_symbol_name("_INT3SEL")
    2745                      .dwattr $C$DW$274, DW_AT_bit_offset(0x0c), DW_AT_bit_size(0x04)
    2746                      .dwattr $C$DW$274, DW_AT_data_member_location[DW_OP_plus_uconst 0x0]
    2747                      .dwattr $C$DW$274, DW_AT_accessibility(DW_ACCESS_public)
    2748              $C$DW$275       .dwtag  DW_TAG_member
    2749                      .dwattr $C$DW$275, DW_AT_type(*$C$DW$T$19)
    2750                      .dwattr $C$DW$275, DW_AT_name("rsvd1")
    2751                      .dwattr $C$DW$275, DW_AT_TI_symbol_name("_rsvd1")
    2752                      .dwattr $C$DW$275, DW_AT_bit_offset(0x0b), DW_AT_bit_size(0x01)
    2753                      .dwattr $C$DW$275, DW_AT_data_member_location[DW_OP_plus_uconst 0x0]
    2754                      .dwattr $C$DW$275, DW_AT_accessibility(DW_ACCESS_public)
    2755              $C$DW$276       .dwtag  DW_TAG_member
    2756                      .dwattr $C$DW$276, DW_AT_type(*$C$DW$T$19)
    2757                      .dwattr $C$DW$276, DW_AT_name("INT3E")
    2758                      .dwattr $C$DW$276, DW_AT_TI_symbol_name("_INT3E")
    2759                      .dwattr $C$DW$276, DW_AT_bit_offset(0x0a), DW_AT_bit_size(0x01)
    2760                      .dwattr $C$DW$276, DW_AT_data_member_location[DW_OP_plus_uconst 0x0]
    2761                      .dwattr $C$DW$276, DW_AT_accessibility(DW_ACCESS_public)
    2762              $C$DW$277       .dwtag  DW_TAG_member
    2763                      .dwattr $C$DW$277, DW_AT_type(*$C$DW$T$19)
    2764                      .dwattr $C$DW$277, DW_AT_name("INT3CONT")
    2765                      .dwattr $C$DW$277, DW_AT_TI_symbol_name("_INT3CONT")
    2766                      .dwattr $C$DW$277, DW_AT_bit_offset(0x09), DW_AT_bit_size(0x01)
    2767                      .dwattr $C$DW$277, DW_AT_data_member_location[DW_OP_plus_uconst 0x0]
    2768                      .dwattr $C$DW$277, DW_AT_accessibility(DW_ACCESS_public)
    2769              $C$DW$278       .dwtag  DW_TAG_member
    2770                      .dwattr $C$DW$278, DW_AT_type(*$C$DW$T$19)
    2771                      .dwattr $C$DW$278, DW_AT_name("rsvd2")
    2772                      .dwattr $C$DW$278, DW_AT_TI_symbol_name("_rsvd2")
    2773                      .dwattr $C$DW$278, DW_AT_bit_offset(0x08), DW_AT_bit_size(0x01)
    2774                      .dwattr $C$DW$278, DW_AT_data_member_location[DW_OP_plus_uconst 0x0]
    2775                      .dwattr $C$DW$278, DW_AT_accessibility(DW_ACCESS_public)
    2776              $C$DW$279       .dwtag  DW_TAG_member
    2777                      .dwattr $C$DW$279, DW_AT_type(*$C$DW$T$19)
    2778                      .dwattr $C$DW$279, DW_AT_name("INT4SEL")
    2779                      .dwattr $C$DW$279, DW_AT_TI_symbol_name("_INT4SEL")
    2780                      .dwattr $C$DW$279, DW_AT_bit_offset(0x04), DW_AT_bit_size(0x04)
    2781                      .dwattr $C$DW$279, DW_AT_data_member_location[DW_OP_plus_uconst 0x0]
    2782                      .dwattr $C$DW$279, DW_AT_accessibility(DW_ACCESS_public)
    2783              $C$DW$280       .dwtag  DW_TAG_member
    2784                      .dwattr $C$DW$280, DW_AT_type(*$C$DW$T$19)
    2785                      .dwattr $C$DW$280, DW_AT_name("rsvd3")
    2786                      .dwattr $C$DW$280, DW_AT_TI_symbol_name("_rsvd3")
    2787                      .dwattr $C$DW$280, DW_AT_bit_offset(0x03), DW_AT_bit_size(0x01)
    2788                      .dwattr $C$DW$280, DW_AT_data_member_location[DW_OP_plus_uconst 0x0]
    2789                      .dwattr $C$DW$280, DW_AT_accessibility(DW_ACCESS_public)
    2790              $C$DW$281       .dwtag  DW_TAG_member
    2791                      .dwattr $C$DW$281, DW_AT_type(*$C$DW$T$19)
    2792                      .dwattr $C$DW$281, DW_AT_name("INT4E")
    2793                      .dwattr $C$DW$281, DW_AT_TI_symbol_name("_INT4E")
TMS320C2000 Assembler PC v6.4.2 Thu Dec 14 13:36:46 2017

Tools Copyright (c) 1996-2015 Texas Instruments Incorporated
config.asm                                                           PAGE   54

    2794                      .dwattr $C$DW$281, DW_AT_bit_offset(0x02), DW_AT_bit_size(0x01)
    2795                      .dwattr $C$DW$281, DW_AT_data_member_location[DW_OP_plus_uconst 0x0]
    2796                      .dwattr $C$DW$281, DW_AT_accessibility(DW_ACCESS_public)
    2797              $C$DW$282       .dwtag  DW_TAG_member
    2798                      .dwattr $C$DW$282, DW_AT_type(*$C$DW$T$19)
    2799                      .dwattr $C$DW$282, DW_AT_name("INT4CONT")
    2800                      .dwattr $C$DW$282, DW_AT_TI_symbol_name("_INT4CONT")
    2801                      .dwattr $C$DW$282, DW_AT_bit_offset(0x01), DW_AT_bit_size(0x01)
    2802                      .dwattr $C$DW$282, DW_AT_data_member_location[DW_OP_plus_uconst 0x0]
    2803                      .dwattr $C$DW$282, DW_AT_accessibility(DW_ACCESS_public)
    2804              $C$DW$283       .dwtag  DW_TAG_member
    2805                      .dwattr $C$DW$283, DW_AT_type(*$C$DW$T$19)
    2806                      .dwattr $C$DW$283, DW_AT_name("rsvd4")
    2807                      .dwattr $C$DW$283, DW_AT_TI_symbol_name("_rsvd4")
    2808                      .dwattr $C$DW$283, DW_AT_bit_offset(0x00), DW_AT_bit_size(0x01)
    2809                      .dwattr $C$DW$283, DW_AT_data_member_location[DW_OP_plus_uconst 0x0]
    2810                      .dwattr $C$DW$283, DW_AT_accessibility(DW_ACCESS_public)
    2811                      .dwendtag $C$DW$T$46
    2812              
    2813              
    2814              $C$DW$T$47      .dwtag  DW_TAG_union_type
    2815                      .dwattr $C$DW$T$47, DW_AT_name("ADCINTSEL3N4_REG")
    2816                      .dwattr $C$DW$T$47, DW_AT_byte_size(0x01)
    2817              $C$DW$284       .dwtag  DW_TAG_member
    2818                      .dwattr $C$DW$284, DW_AT_type(*$C$DW$T$19)
    2819                      .dwattr $C$DW$284, DW_AT_name("all")
    2820                      .dwattr $C$DW$284, DW_AT_TI_symbol_name("_all")
    2821                      .dwattr $C$DW$284, DW_AT_data_member_location[DW_OP_plus_uconst 0x0]
    2822                      .dwattr $C$DW$284, DW_AT_accessibility(DW_ACCESS_public)
    2823              $C$DW$285       .dwtag  DW_TAG_member
    2824                      .dwattr $C$DW$285, DW_AT_type(*$C$DW$T$46)
    2825                      .dwattr $C$DW$285, DW_AT_name("bit")
    2826                      .dwattr $C$DW$285, DW_AT_TI_symbol_name("_bit")
    2827                      .dwattr $C$DW$285, DW_AT_data_member_location[DW_OP_plus_uconst 0x0]
    2828                      .dwattr $C$DW$285, DW_AT_accessibility(DW_ACCESS_public)
    2829                      .dwendtag $C$DW$T$47
    2830              
    2831              
    2832              $C$DW$T$48      .dwtag  DW_TAG_structure_type
    2833                      .dwattr $C$DW$T$48, DW_AT_name("ADCINTSOCSEL1_BITS")
    2834                      .dwattr $C$DW$T$48, DW_AT_byte_size(0x01)
    2835              $C$DW$286       .dwtag  DW_TAG_member
    2836                      .dwattr $C$DW$286, DW_AT_type(*$C$DW$T$19)
    2837                      .dwattr $C$DW$286, DW_AT_name("SOC0")
    2838                      .dwattr $C$DW$286, DW_AT_TI_symbol_name("_SOC0")
    2839                      .dwattr $C$DW$286, DW_AT_bit_offset(0x0e), DW_AT_bit_size(0x02)
    2840                      .dwattr $C$DW$286, DW_AT_data_member_location[DW_OP_plus_uconst 0x0]
    2841                      .dwattr $C$DW$286, DW_AT_accessibility(DW_ACCESS_public)
    2842              $C$DW$287       .dwtag  DW_TAG_member
    2843                      .dwattr $C$DW$287, DW_AT_type(*$C$DW$T$19)
    2844                      .dwattr $C$DW$287, DW_AT_name("SOC1")
    2845                      .dwattr $C$DW$287, DW_AT_TI_symbol_name("_SOC1")
    2846                      .dwattr $C$DW$287, DW_AT_bit_offset(0x0c), DW_AT_bit_size(0x02)
    2847                      .dwattr $C$DW$287, DW_AT_data_member_location[DW_OP_plus_uconst 0x0]
    2848                      .dwattr $C$DW$287, DW_AT_accessibility(DW_ACCESS_public)
TMS320C2000 Assembler PC v6.4.2 Thu Dec 14 13:36:46 2017

Tools Copyright (c) 1996-2015 Texas Instruments Incorporated
config.asm                                                           PAGE   55

    2849              $C$DW$288       .dwtag  DW_TAG_member
    2850                      .dwattr $C$DW$288, DW_AT_type(*$C$DW$T$19)
    2851                      .dwattr $C$DW$288, DW_AT_name("SOC2")
    2852                      .dwattr $C$DW$288, DW_AT_TI_symbol_name("_SOC2")
    2853                      .dwattr $C$DW$288, DW_AT_bit_offset(0x0a), DW_AT_bit_size(0x02)
    2854                      .dwattr $C$DW$288, DW_AT_data_member_location[DW_OP_plus_uconst 0x0]
    2855                      .dwattr $C$DW$288, DW_AT_accessibility(DW_ACCESS_public)
    2856              $C$DW$289       .dwtag  DW_TAG_member
    2857                      .dwattr $C$DW$289, DW_AT_type(*$C$DW$T$19)
    2858                      .dwattr $C$DW$289, DW_AT_name("SOC3")
    2859                      .dwattr $C$DW$289, DW_AT_TI_symbol_name("_SOC3")
    2860                      .dwattr $C$DW$289, DW_AT_bit_offset(0x08), DW_AT_bit_size(0x02)
    2861                      .dwattr $C$DW$289, DW_AT_data_member_location[DW_OP_plus_uconst 0x0]
    2862                      .dwattr $C$DW$289, DW_AT_accessibility(DW_ACCESS_public)
    2863              $C$DW$290       .dwtag  DW_TAG_member
    2864                      .dwattr $C$DW$290, DW_AT_type(*$C$DW$T$19)
    2865                      .dwattr $C$DW$290, DW_AT_name("SOC4")
    2866                      .dwattr $C$DW$290, DW_AT_TI_symbol_name("_SOC4")
    2867                      .dwattr $C$DW$290, DW_AT_bit_offset(0x06), DW_AT_bit_size(0x02)
    2868                      .dwattr $C$DW$290, DW_AT_data_member_location[DW_OP_plus_uconst 0x0]
    2869                      .dwattr $C$DW$290, DW_AT_accessibility(DW_ACCESS_public)
    2870              $C$DW$291       .dwtag  DW_TAG_member
    2871                      .dwattr $C$DW$291, DW_AT_type(*$C$DW$T$19)
    2872                      .dwattr $C$DW$291, DW_AT_name("SOC5")
    2873                      .dwattr $C$DW$291, DW_AT_TI_symbol_name("_SOC5")
    2874                      .dwattr $C$DW$291, DW_AT_bit_offset(0x04), DW_AT_bit_size(0x02)
    2875                      .dwattr $C$DW$291, DW_AT_data_member_location[DW_OP_plus_uconst 0x0]
    2876                      .dwattr $C$DW$291, DW_AT_accessibility(DW_ACCESS_public)
    2877              $C$DW$292       .dwtag  DW_TAG_member
    2878                      .dwattr $C$DW$292, DW_AT_type(*$C$DW$T$19)
    2879                      .dwattr $C$DW$292, DW_AT_name("SOC6")
    2880                      .dwattr $C$DW$292, DW_AT_TI_symbol_name("_SOC6")
    2881                      .dwattr $C$DW$292, DW_AT_bit_offset(0x02), DW_AT_bit_size(0x02)
    2882                      .dwattr $C$DW$292, DW_AT_data_member_location[DW_OP_plus_uconst 0x0]
    2883                      .dwattr $C$DW$292, DW_AT_accessibility(DW_ACCESS_public)
    2884              $C$DW$293       .dwtag  DW_TAG_member
    2885                      .dwattr $C$DW$293, DW_AT_type(*$C$DW$T$19)
    2886                      .dwattr $C$DW$293, DW_AT_name("SOC7")
    2887                      .dwattr $C$DW$293, DW_AT_TI_symbol_name("_SOC7")
    2888                      .dwattr $C$DW$293, DW_AT_bit_offset(0x00), DW_AT_bit_size(0x02)
    2889                      .dwattr $C$DW$293, DW_AT_data_member_location[DW_OP_plus_uconst 0x0]
    2890                      .dwattr $C$DW$293, DW_AT_accessibility(DW_ACCESS_public)
    2891                      .dwendtag $C$DW$T$48
    2892              
    2893              
    2894              $C$DW$T$49      .dwtag  DW_TAG_union_type
    2895                      .dwattr $C$DW$T$49, DW_AT_name("ADCINTSOCSEL1_REG")
    2896                      .dwattr $C$DW$T$49, DW_AT_byte_size(0x01)
    2897              $C$DW$294       .dwtag  DW_TAG_member
    2898                      .dwattr $C$DW$294, DW_AT_type(*$C$DW$T$19)
    2899                      .dwattr $C$DW$294, DW_AT_name("all")
    2900                      .dwattr $C$DW$294, DW_AT_TI_symbol_name("_all")
    2901                      .dwattr $C$DW$294, DW_AT_data_member_location[DW_OP_plus_uconst 0x0]
    2902                      .dwattr $C$DW$294, DW_AT_accessibility(DW_ACCESS_public)
    2903              $C$DW$295       .dwtag  DW_TAG_member
TMS320C2000 Assembler PC v6.4.2 Thu Dec 14 13:36:46 2017

Tools Copyright (c) 1996-2015 Texas Instruments Incorporated
config.asm                                                           PAGE   56

    2904                      .dwattr $C$DW$295, DW_AT_type(*$C$DW$T$48)
    2905                      .dwattr $C$DW$295, DW_AT_name("bit")
    2906                      .dwattr $C$DW$295, DW_AT_TI_symbol_name("_bit")
    2907                      .dwattr $C$DW$295, DW_AT_data_member_location[DW_OP_plus_uconst 0x0]
    2908                      .dwattr $C$DW$295, DW_AT_accessibility(DW_ACCESS_public)
    2909                      .dwendtag $C$DW$T$49
    2910              
    2911              
    2912              $C$DW$T$50      .dwtag  DW_TAG_structure_type
    2913                      .dwattr $C$DW$T$50, DW_AT_name("ADCINTSOCSEL2_BITS")
    2914                      .dwattr $C$DW$T$50, DW_AT_byte_size(0x01)
    2915              $C$DW$296       .dwtag  DW_TAG_member
    2916                      .dwattr $C$DW$296, DW_AT_type(*$C$DW$T$19)
    2917                      .dwattr $C$DW$296, DW_AT_name("SOC8")
    2918                      .dwattr $C$DW$296, DW_AT_TI_symbol_name("_SOC8")
    2919                      .dwattr $C$DW$296, DW_AT_bit_offset(0x0e), DW_AT_bit_size(0x02)
    2920                      .dwattr $C$DW$296, DW_AT_data_member_location[DW_OP_plus_uconst 0x0]
    2921                      .dwattr $C$DW$296, DW_AT_accessibility(DW_ACCESS_public)
    2922              $C$DW$297       .dwtag  DW_TAG_member
    2923                      .dwattr $C$DW$297, DW_AT_type(*$C$DW$T$19)
    2924                      .dwattr $C$DW$297, DW_AT_name("SOC9")
    2925                      .dwattr $C$DW$297, DW_AT_TI_symbol_name("_SOC9")
    2926                      .dwattr $C$DW$297, DW_AT_bit_offset(0x0c), DW_AT_bit_size(0x02)
    2927                      .dwattr $C$DW$297, DW_AT_data_member_location[DW_OP_plus_uconst 0x0]
    2928                      .dwattr $C$DW$297, DW_AT_accessibility(DW_ACCESS_public)
    2929              $C$DW$298       .dwtag  DW_TAG_member
    2930                      .dwattr $C$DW$298, DW_AT_type(*$C$DW$T$19)
    2931                      .dwattr $C$DW$298, DW_AT_name("SOC10")
    2932                      .dwattr $C$DW$298, DW_AT_TI_symbol_name("_SOC10")
    2933                      .dwattr $C$DW$298, DW_AT_bit_offset(0x0a), DW_AT_bit_size(0x02)
    2934                      .dwattr $C$DW$298, DW_AT_data_member_location[DW_OP_plus_uconst 0x0]
    2935                      .dwattr $C$DW$298, DW_AT_accessibility(DW_ACCESS_public)
    2936              $C$DW$299       .dwtag  DW_TAG_member
    2937                      .dwattr $C$DW$299, DW_AT_type(*$C$DW$T$19)
    2938                      .dwattr $C$DW$299, DW_AT_name("SOC11")
    2939                      .dwattr $C$DW$299, DW_AT_TI_symbol_name("_SOC11")
    2940                      .dwattr $C$DW$299, DW_AT_bit_offset(0x08), DW_AT_bit_size(0x02)
    2941                      .dwattr $C$DW$299, DW_AT_data_member_location[DW_OP_plus_uconst 0x0]
    2942                      .dwattr $C$DW$299, DW_AT_accessibility(DW_ACCESS_public)
    2943              $C$DW$300       .dwtag  DW_TAG_member
    2944                      .dwattr $C$DW$300, DW_AT_type(*$C$DW$T$19)
    2945                      .dwattr $C$DW$300, DW_AT_name("SOC12")
    2946                      .dwattr $C$DW$300, DW_AT_TI_symbol_name("_SOC12")
    2947                      .dwattr $C$DW$300, DW_AT_bit_offset(0x06), DW_AT_bit_size(0x02)
    2948                      .dwattr $C$DW$300, DW_AT_data_member_location[DW_OP_plus_uconst 0x0]
    2949                      .dwattr $C$DW$300, DW_AT_accessibility(DW_ACCESS_public)
    2950              $C$DW$301       .dwtag  DW_TAG_member
    2951                      .dwattr $C$DW$301, DW_AT_type(*$C$DW$T$19)
    2952                      .dwattr $C$DW$301, DW_AT_name("SOC13")
    2953                      .dwattr $C$DW$301, DW_AT_TI_symbol_name("_SOC13")
    2954                      .dwattr $C$DW$301, DW_AT_bit_offset(0x04), DW_AT_bit_size(0x02)
    2955                      .dwattr $C$DW$301, DW_AT_data_member_location[DW_OP_plus_uconst 0x0]
    2956                      .dwattr $C$DW$301, DW_AT_accessibility(DW_ACCESS_public)
    2957              $C$DW$302       .dwtag  DW_TAG_member
    2958                      .dwattr $C$DW$302, DW_AT_type(*$C$DW$T$19)
TMS320C2000 Assembler PC v6.4.2 Thu Dec 14 13:36:46 2017

Tools Copyright (c) 1996-2015 Texas Instruments Incorporated
config.asm                                                           PAGE   57

    2959                      .dwattr $C$DW$302, DW_AT_name("SOC14")
    2960                      .dwattr $C$DW$302, DW_AT_TI_symbol_name("_SOC14")
    2961                      .dwattr $C$DW$302, DW_AT_bit_offset(0x02), DW_AT_bit_size(0x02)
    2962                      .dwattr $C$DW$302, DW_AT_data_member_location[DW_OP_plus_uconst 0x0]
    2963                      .dwattr $C$DW$302, DW_AT_accessibility(DW_ACCESS_public)
    2964              $C$DW$303       .dwtag  DW_TAG_member
    2965                      .dwattr $C$DW$303, DW_AT_type(*$C$DW$T$19)
    2966                      .dwattr $C$DW$303, DW_AT_name("SOC15")
    2967                      .dwattr $C$DW$303, DW_AT_TI_symbol_name("_SOC15")
    2968                      .dwattr $C$DW$303, DW_AT_bit_offset(0x00), DW_AT_bit_size(0x02)
    2969                      .dwattr $C$DW$303, DW_AT_data_member_location[DW_OP_plus_uconst 0x0]
    2970                      .dwattr $C$DW$303, DW_AT_accessibility(DW_ACCESS_public)
    2971                      .dwendtag $C$DW$T$50
    2972              
    2973              
    2974              $C$DW$T$51      .dwtag  DW_TAG_union_type
    2975                      .dwattr $C$DW$T$51, DW_AT_name("ADCINTSOCSEL2_REG")
    2976                      .dwattr $C$DW$T$51, DW_AT_byte_size(0x01)
    2977              $C$DW$304       .dwtag  DW_TAG_member
    2978                      .dwattr $C$DW$304, DW_AT_type(*$C$DW$T$19)
    2979                      .dwattr $C$DW$304, DW_AT_name("all")
    2980                      .dwattr $C$DW$304, DW_AT_TI_symbol_name("_all")
    2981                      .dwattr $C$DW$304, DW_AT_data_member_location[DW_OP_plus_uconst 0x0]
    2982                      .dwattr $C$DW$304, DW_AT_accessibility(DW_ACCESS_public)
    2983              $C$DW$305       .dwtag  DW_TAG_member
    2984                      .dwattr $C$DW$305, DW_AT_type(*$C$DW$T$50)
    2985                      .dwattr $C$DW$305, DW_AT_name("bit")
    2986                      .dwattr $C$DW$305, DW_AT_TI_symbol_name("_bit")
    2987                      .dwattr $C$DW$305, DW_AT_data_member_location[DW_OP_plus_uconst 0x0]
    2988                      .dwattr $C$DW$305, DW_AT_accessibility(DW_ACCESS_public)
    2989                      .dwendtag $C$DW$T$51
    2990              
    2991              
    2992              $C$DW$T$52      .dwtag  DW_TAG_structure_type
    2993                      .dwattr $C$DW$T$52, DW_AT_name("ADCOFFTRIM_BITS")
    2994                      .dwattr $C$DW$T$52, DW_AT_byte_size(0x01)
    2995              $C$DW$306       .dwtag  DW_TAG_member
    2996                      .dwattr $C$DW$306, DW_AT_type(*$C$DW$T$19)
    2997                      .dwattr $C$DW$306, DW_AT_name("OFFTRIM")
    2998                      .dwattr $C$DW$306, DW_AT_TI_symbol_name("_OFFTRIM")
    2999                      .dwattr $C$DW$306, DW_AT_bit_offset(0x08), DW_AT_bit_size(0x08)
    3000                      .dwattr $C$DW$306, DW_AT_data_member_location[DW_OP_plus_uconst 0x0]
    3001                      .dwattr $C$DW$306, DW_AT_accessibility(DW_ACCESS_public)
    3002              $C$DW$307       .dwtag  DW_TAG_member
    3003                      .dwattr $C$DW$307, DW_AT_type(*$C$DW$T$19)
    3004                      .dwattr $C$DW$307, DW_AT_name("rsvd1")
    3005                      .dwattr $C$DW$307, DW_AT_TI_symbol_name("_rsvd1")
    3006                      .dwattr $C$DW$307, DW_AT_bit_offset(0x00), DW_AT_bit_size(0x08)
    3007                      .dwattr $C$DW$307, DW_AT_data_member_location[DW_OP_plus_uconst 0x0]
    3008                      .dwattr $C$DW$307, DW_AT_accessibility(DW_ACCESS_public)
    3009                      .dwendtag $C$DW$T$52
    3010              
    3011              
    3012              $C$DW$T$53      .dwtag  DW_TAG_union_type
    3013                      .dwattr $C$DW$T$53, DW_AT_name("ADCOFFTRIM_REG")
TMS320C2000 Assembler PC v6.4.2 Thu Dec 14 13:36:46 2017

Tools Copyright (c) 1996-2015 Texas Instruments Incorporated
config.asm                                                           PAGE   58

    3014                      .dwattr $C$DW$T$53, DW_AT_byte_size(0x01)
    3015              $C$DW$308       .dwtag  DW_TAG_member
    3016                      .dwattr $C$DW$308, DW_AT_type(*$C$DW$T$19)
    3017                      .dwattr $C$DW$308, DW_AT_name("all")
    3018                      .dwattr $C$DW$308, DW_AT_TI_symbol_name("_all")
    3019                      .dwattr $C$DW$308, DW_AT_data_member_location[DW_OP_plus_uconst 0x0]
    3020                      .dwattr $C$DW$308, DW_AT_accessibility(DW_ACCESS_public)
    3021              $C$DW$309       .dwtag  DW_TAG_member
    3022                      .dwattr $C$DW$309, DW_AT_type(*$C$DW$T$52)
    3023                      .dwattr $C$DW$309, DW_AT_name("bit")
    3024                      .dwattr $C$DW$309, DW_AT_TI_symbol_name("_bit")
    3025                      .dwattr $C$DW$309, DW_AT_data_member_location[DW_OP_plus_uconst 0x0]
    3026                      .dwattr $C$DW$309, DW_AT_accessibility(DW_ACCESS_public)
    3027                      .dwendtag $C$DW$T$53
    3028              
    3029              
    3030              $C$DW$T$54      .dwtag  DW_TAG_structure_type
    3031                      .dwattr $C$DW$T$54, DW_AT_name("ADCPPB1CONFIG_BITS")
    3032                      .dwattr $C$DW$T$54, DW_AT_byte_size(0x01)
    3033              $C$DW$310       .dwtag  DW_TAG_member
    3034                      .dwattr $C$DW$310, DW_AT_type(*$C$DW$T$19)
    3035                      .dwattr $C$DW$310, DW_AT_name("CONFIG")
    3036                      .dwattr $C$DW$310, DW_AT_TI_symbol_name("_CONFIG")
    3037                      .dwattr $C$DW$310, DW_AT_bit_offset(0x0c), DW_AT_bit_size(0x04)
    3038                      .dwattr $C$DW$310, DW_AT_data_member_location[DW_OP_plus_uconst 0x0]
    3039                      .dwattr $C$DW$310, DW_AT_accessibility(DW_ACCESS_public)
    3040              $C$DW$311       .dwtag  DW_TAG_member
    3041                      .dwattr $C$DW$311, DW_AT_type(*$C$DW$T$19)
    3042                      .dwattr $C$DW$311, DW_AT_name("TWOSCOMPEN")
    3043                      .dwattr $C$DW$311, DW_AT_TI_symbol_name("_TWOSCOMPEN")
    3044                      .dwattr $C$DW$311, DW_AT_bit_offset(0x0b), DW_AT_bit_size(0x01)
    3045                      .dwattr $C$DW$311, DW_AT_data_member_location[DW_OP_plus_uconst 0x0]
    3046                      .dwattr $C$DW$311, DW_AT_accessibility(DW_ACCESS_public)
    3047              $C$DW$312       .dwtag  DW_TAG_member
    3048                      .dwattr $C$DW$312, DW_AT_type(*$C$DW$T$19)
    3049                      .dwattr $C$DW$312, DW_AT_name("rsvd1")
    3050                      .dwattr $C$DW$312, DW_AT_TI_symbol_name("_rsvd1")
    3051                      .dwattr $C$DW$312, DW_AT_bit_offset(0x00), DW_AT_bit_size(0x0b)
    3052                      .dwattr $C$DW$312, DW_AT_data_member_location[DW_OP_plus_uconst 0x0]
    3053                      .dwattr $C$DW$312, DW_AT_accessibility(DW_ACCESS_public)
    3054                      .dwendtag $C$DW$T$54
    3055              
    3056              
    3057              $C$DW$T$55      .dwtag  DW_TAG_union_type
    3058                      .dwattr $C$DW$T$55, DW_AT_name("ADCPPB1CONFIG_REG")
    3059                      .dwattr $C$DW$T$55, DW_AT_byte_size(0x01)
    3060              $C$DW$313       .dwtag  DW_TAG_member
    3061                      .dwattr $C$DW$313, DW_AT_type(*$C$DW$T$19)
    3062                      .dwattr $C$DW$313, DW_AT_name("all")
    3063                      .dwattr $C$DW$313, DW_AT_TI_symbol_name("_all")
    3064                      .dwattr $C$DW$313, DW_AT_data_member_location[DW_OP_plus_uconst 0x0]
    3065                      .dwattr $C$DW$313, DW_AT_accessibility(DW_ACCESS_public)
    3066              $C$DW$314       .dwtag  DW_TAG_member
    3067                      .dwattr $C$DW$314, DW_AT_type(*$C$DW$T$54)
    3068                      .dwattr $C$DW$314, DW_AT_name("bit")
TMS320C2000 Assembler PC v6.4.2 Thu Dec 14 13:36:46 2017

Tools Copyright (c) 1996-2015 Texas Instruments Incorporated
config.asm                                                           PAGE   59

    3069                      .dwattr $C$DW$314, DW_AT_TI_symbol_name("_bit")
    3070                      .dwattr $C$DW$314, DW_AT_data_member_location[DW_OP_plus_uconst 0x0]
    3071                      .dwattr $C$DW$314, DW_AT_accessibility(DW_ACCESS_public)
    3072                      .dwendtag $C$DW$T$55
    3073              
    3074              
    3075              $C$DW$T$56      .dwtag  DW_TAG_structure_type
    3076                      .dwattr $C$DW$T$56, DW_AT_name("ADCPPB1OFFCAL_BITS")
    3077                      .dwattr $C$DW$T$56, DW_AT_byte_size(0x01)
    3078              $C$DW$315       .dwtag  DW_TAG_member
    3079                      .dwattr $C$DW$315, DW_AT_type(*$C$DW$T$19)
    3080                      .dwattr $C$DW$315, DW_AT_name("OFFCAL")
    3081                      .dwattr $C$DW$315, DW_AT_TI_symbol_name("_OFFCAL")
    3082                      .dwattr $C$DW$315, DW_AT_bit_offset(0x06), DW_AT_bit_size(0x0a)
    3083                      .dwattr $C$DW$315, DW_AT_data_member_location[DW_OP_plus_uconst 0x0]
    3084                      .dwattr $C$DW$315, DW_AT_accessibility(DW_ACCESS_public)
    3085              $C$DW$316       .dwtag  DW_TAG_member
    3086                      .dwattr $C$DW$316, DW_AT_type(*$C$DW$T$19)
    3087                      .dwattr $C$DW$316, DW_AT_name("rsvd1")
    3088                      .dwattr $C$DW$316, DW_AT_TI_symbol_name("_rsvd1")
    3089                      .dwattr $C$DW$316, DW_AT_bit_offset(0x00), DW_AT_bit_size(0x06)
    3090                      .dwattr $C$DW$316, DW_AT_data_member_location[DW_OP_plus_uconst 0x0]
    3091                      .dwattr $C$DW$316, DW_AT_accessibility(DW_ACCESS_public)
    3092                      .dwendtag $C$DW$T$56
    3093              
    3094              
    3095              $C$DW$T$57      .dwtag  DW_TAG_union_type
    3096                      .dwattr $C$DW$T$57, DW_AT_name("ADCPPB1OFFCAL_REG")
    3097                      .dwattr $C$DW$T$57, DW_AT_byte_size(0x01)
    3098              $C$DW$317       .dwtag  DW_TAG_member
    3099                      .dwattr $C$DW$317, DW_AT_type(*$C$DW$T$19)
    3100                      .dwattr $C$DW$317, DW_AT_name("all")
    3101                      .dwattr $C$DW$317, DW_AT_TI_symbol_name("_all")
    3102                      .dwattr $C$DW$317, DW_AT_data_member_location[DW_OP_plus_uconst 0x0]
    3103                      .dwattr $C$DW$317, DW_AT_accessibility(DW_ACCESS_public)
    3104              $C$DW$318       .dwtag  DW_TAG_member
    3105                      .dwattr $C$DW$318, DW_AT_type(*$C$DW$T$56)
    3106                      .dwattr $C$DW$318, DW_AT_name("bit")
    3107                      .dwattr $C$DW$318, DW_AT_TI_symbol_name("_bit")
    3108                      .dwattr $C$DW$318, DW_AT_data_member_location[DW_OP_plus_uconst 0x0]
    3109                      .dwattr $C$DW$318, DW_AT_accessibility(DW_ACCESS_public)
    3110                      .dwendtag $C$DW$T$57
    3111              
    3112              
    3113              $C$DW$T$58      .dwtag  DW_TAG_structure_type
    3114                      .dwattr $C$DW$T$58, DW_AT_name("ADCPPB1STAMP_BITS")
    3115                      .dwattr $C$DW$T$58, DW_AT_byte_size(0x01)
    3116              $C$DW$319       .dwtag  DW_TAG_member
    3117                      .dwattr $C$DW$319, DW_AT_type(*$C$DW$T$19)
    3118                      .dwattr $C$DW$319, DW_AT_name("DLYSTAMP")
    3119                      .dwattr $C$DW$319, DW_AT_TI_symbol_name("_DLYSTAMP")
    3120                      .dwattr $C$DW$319, DW_AT_bit_offset(0x04), DW_AT_bit_size(0x0c)
    3121                      .dwattr $C$DW$319, DW_AT_data_member_location[DW_OP_plus_uconst 0x0]
    3122                      .dwattr $C$DW$319, DW_AT_accessibility(DW_ACCESS_public)
    3123              $C$DW$320       .dwtag  DW_TAG_member
TMS320C2000 Assembler PC v6.4.2 Thu Dec 14 13:36:46 2017

Tools Copyright (c) 1996-2015 Texas Instruments Incorporated
config.asm                                                           PAGE   60

    3124                      .dwattr $C$DW$320, DW_AT_type(*$C$DW$T$19)
    3125                      .dwattr $C$DW$320, DW_AT_name("rsvd1")
    3126                      .dwattr $C$DW$320, DW_AT_TI_symbol_name("_rsvd1")
    3127                      .dwattr $C$DW$320, DW_AT_bit_offset(0x00), DW_AT_bit_size(0x04)
    3128                      .dwattr $C$DW$320, DW_AT_data_member_location[DW_OP_plus_uconst 0x0]
    3129                      .dwattr $C$DW$320, DW_AT_accessibility(DW_ACCESS_public)
    3130                      .dwendtag $C$DW$T$58
    3131              
    3132              
    3133              $C$DW$T$59      .dwtag  DW_TAG_union_type
    3134                      .dwattr $C$DW$T$59, DW_AT_name("ADCPPB1STAMP_REG")
    3135                      .dwattr $C$DW$T$59, DW_AT_byte_size(0x01)
    3136              $C$DW$321       .dwtag  DW_TAG_member
    3137                      .dwattr $C$DW$321, DW_AT_type(*$C$DW$T$19)
    3138                      .dwattr $C$DW$321, DW_AT_name("all")
    3139                      .dwattr $C$DW$321, DW_AT_TI_symbol_name("_all")
    3140                      .dwattr $C$DW$321, DW_AT_data_member_location[DW_OP_plus_uconst 0x0]
    3141                      .dwattr $C$DW$321, DW_AT_accessibility(DW_ACCESS_public)
    3142              $C$DW$322       .dwtag  DW_TAG_member
    3143                      .dwattr $C$DW$322, DW_AT_type(*$C$DW$T$58)
    3144                      .dwattr $C$DW$322, DW_AT_name("bit")
    3145                      .dwattr $C$DW$322, DW_AT_TI_symbol_name("_bit")
    3146                      .dwattr $C$DW$322, DW_AT_data_member_location[DW_OP_plus_uconst 0x0]
    3147                      .dwattr $C$DW$322, DW_AT_accessibility(DW_ACCESS_public)
    3148                      .dwendtag $C$DW$T$59
    3149              
    3150              
