TMS320C2000 Assembler PC v6.4.2 Thu Dec 14 15:26:04 2017

Tools Copyright (c) 1996-2015 Texas Instruments Incorporated
drv8305.asm                                                          PAGE    1

       1              ;***************************************************************
       2              ;* TMS320C2000 C/C++ Codegen                         PC v6.4.2 *
       3              ;* Date/Time created: Thu Dec 14 15:26:02 2017                 *
       4              ;***************************************************************
       5                      .compiler_opts --cla_support=cla0 --float_support=fpu32 --hll_source=on --mem_model:code=flat --mem_m
       6        0002  FP      .set    XAR2
       7              
       8              $C$DW$CU        .dwtag  DW_TAG_compile_unit
       9                      .dwattr $C$DW$CU, DW_AT_name("../motors/HAL/drv8305.c")
      10                      .dwattr $C$DW$CU, DW_AT_producer("TI TMS320C2000 C/C++ Codegen PC v6.4.2 Copyright (c) 1996-2015 Texa
      11                      .dwattr $C$DW$CU, DW_AT_TI_version(0x01)
      12                      .dwattr $C$DW$CU, DW_AT_comp_dir("U:\02_MSE\MT\07_Software\CCS_workspace\DiffDrive_v0.93\F2837x_FLASH
      13              
      14              $C$DW$1 .dwtag  DW_TAG_subprogram, DW_AT_name("DRV8305_SPI_Read")
      15                      .dwattr $C$DW$1, DW_AT_TI_symbol_name("_DRV8305_SPI_Read")
      16                      .dwattr $C$DW$1, DW_AT_type(*$C$DW$T$31)
      17                      .dwattr $C$DW$1, DW_AT_declaration
      18                      .dwattr $C$DW$1, DW_AT_external
      19              $C$DW$2 .dwtag  DW_TAG_formal_parameter
      20                      .dwattr $C$DW$2, DW_AT_type(*$C$DW$T$281)
      21              $C$DW$3 .dwtag  DW_TAG_formal_parameter
      22                      .dwattr $C$DW$3, DW_AT_type(*$C$DW$T$31)
      23                      .dwendtag $C$DW$1
      24              
      25              
      26              $C$DW$4 .dwtag  DW_TAG_subprogram, DW_AT_name("DRV8305_SPI_Write")
      27                      .dwattr $C$DW$4, DW_AT_TI_symbol_name("_DRV8305_SPI_Write")
      28                      .dwattr $C$DW$4, DW_AT_type(*$C$DW$T$31)
      29                      .dwattr $C$DW$4, DW_AT_declaration
      30                      .dwattr $C$DW$4, DW_AT_external
      31              $C$DW$5 .dwtag  DW_TAG_formal_parameter
      32                      .dwattr $C$DW$5, DW_AT_type(*$C$DW$T$281)
      33              $C$DW$6 .dwtag  DW_TAG_formal_parameter
      34                      .dwattr $C$DW$6, DW_AT_type(*$C$DW$T$31)
      35                      .dwendtag $C$DW$4
      36              
      37              ;       C:\ti\ccsv6\tools\compiler\ti-cgt-c2000_6.4.2\bin\ac2000.exe -@C:\\Users\\ficm\\AppData\\Local\\Temp\
      38 00000000               .sect   ".text"
      39                      .clink
      40                      .global _InitDRV8305Regs
      41              
      42              $C$DW$7 .dwtag  DW_TAG_subprogram, DW_AT_name("InitDRV8305Regs")
      43                      .dwattr $C$DW$7, DW_AT_low_pc(_InitDRV8305Regs)
      44                      .dwattr $C$DW$7, DW_AT_high_pc(0x00)
      45                      .dwattr $C$DW$7, DW_AT_TI_symbol_name("_InitDRV8305Regs")
      46                      .dwattr $C$DW$7, DW_AT_external
      47                      .dwattr $C$DW$7, DW_AT_TI_begin_file("../motors/HAL/drv8305.c")
      48                      .dwattr $C$DW$7, DW_AT_TI_begin_line(0x18)
      49                      .dwattr $C$DW$7, DW_AT_TI_begin_column(0x06)
      50                      .dwattr $C$DW$7, DW_AT_TI_max_frame_size(-4)
      51                      .dwpsn  file "../motors/HAL/drv8305.c",line 25,column 1,is_stmt,address _InitDRV8305Regs,isa 0
      52              
      53                      .dwfde $C$DW$CIE, _InitDRV8305Regs
      54              $C$DW$8 .dwtag  DW_TAG_formal_parameter, DW_AT_name("motor")
      55                      .dwattr $C$DW$8, DW_AT_TI_symbol_name("_motor")
TMS320C2000 Assembler PC v6.4.2 Thu Dec 14 15:26:04 2017

Tools Copyright (c) 1996-2015 Texas Instruments Incorporated
drv8305.asm                                                          PAGE    2

      56                      .dwattr $C$DW$8, DW_AT_type(*$C$DW$T$281)
      57                      .dwattr $C$DW$8, DW_AT_location[DW_OP_reg12]
      58              
      59              ;***************************************************************
      60              ;* FNAME: _InitDRV8305Regs              FR SIZE:   2           *
      61              ;*                                                             *
      62              ;* FUNCTION ENVIRONMENT                                        *
      63              ;*                                                             *
      64              ;* FUNCTION PROPERTIES                                         *
      65              ;*                            0 Parameter,  2 Auto,  0 SOE     *
      66              ;***************************************************************
      67              
      68 00000000       _InitDRV8305Regs:
      69                      .dwcfi  cfa_offset, -2
      70                      .dwcfi  save_reg_to_mem, 26, 0
      71 00000000 FE02          ADDB      SP,#2                 ; [CPU_U] 
      72                      .dwcfi  cfa_offset, -4
      73              $C$DW$9 .dwtag  DW_TAG_variable, DW_AT_name("motor")
      74                      .dwattr $C$DW$9, DW_AT_TI_symbol_name("_motor")
      75                      .dwattr $C$DW$9, DW_AT_type(*$C$DW$T$281)
      76                      .dwattr $C$DW$9, DW_AT_location[DW_OP_breg20 -2]
      77 00000001 A842          MOVL      *-SP[2],XAR4          ; [CPU_] |25| 
      78                      .dwpsn  file "../motors/HAL/drv8305.c",line 26,column 2,is_stmt,isa 0
      79 00000002 8F00          MOVL      XAR4,#316             ; [CPU_U] |26| 
         00000003 013C 
      80 00000004 A8A9          MOVL      ACC,XAR4              ; [CPU_] |26| 
      81 00000005 0742          ADDL      ACC,*-SP[2]           ; [CPU_] |26| 
      82 00000006 8AA9          MOVL      XAR4,ACC              ; [CPU_] |26| 
      83 00000007 2BC4          MOV       *+XAR4[0],#0          ; [CPU_] |26| 
      84                      .dwpsn  file "../motors/HAL/drv8305.c",line 27,column 2,is_stmt,isa 0
      85 00000008 8F00          MOVL      XAR4,#317             ; [CPU_U] |27| 
         00000009 013D 
      86 0000000a A8A9          MOVL      ACC,XAR4              ; [CPU_] |27| 
      87 0000000b 0742          ADDL      ACC,*-SP[2]           ; [CPU_] |27| 
      88 0000000c 8AA9          MOVL      XAR4,ACC              ; [CPU_] |27| 
      89 0000000d 2BC4          MOV       *+XAR4[0],#0          ; [CPU_] |27| 
      90                      .dwpsn  file "../motors/HAL/drv8305.c",line 28,column 2,is_stmt,isa 0
      91 0000000e 8F00          MOVL      XAR4,#318             ; [CPU_U] |28| 
         0000000f 013E 
      92 00000010 A8A9          MOVL      ACC,XAR4              ; [CPU_] |28| 
      93 00000011 0742          ADDL      ACC,*-SP[2]           ; [CPU_] |28| 
      94 00000012 8AA9          MOVL      XAR4,ACC              ; [CPU_] |28| 
      95 00000013 2BC4          MOV       *+XAR4[0],#0          ; [CPU_] |28| 
      96                      .dwpsn  file "../motors/HAL/drv8305.c",line 29,column 2,is_stmt,isa 0
      97 00000014 8F00          MOVL      XAR4,#320             ; [CPU_U] |29| 
         00000015 0140 
      98 00000016 A8A9          MOVL      ACC,XAR4              ; [CPU_] |29| 
      99 00000017 0742          ADDL      ACC,*-SP[2]           ; [CPU_] |29| 
     100 00000018 8AA9          MOVL      XAR4,ACC              ; [CPU_] |29| 
     101 00000019 2BC4          MOV       *+XAR4[0],#0          ; [CPU_] |29| 
     102                      .dwpsn  file "../motors/HAL/drv8305.c",line 30,column 2,is_stmt,isa 0
     103 0000001a 8F00          MOVL      XAR4,#321             ; [CPU_U] |30| 
         0000001b 0141 
     104 0000001c A8A9          MOVL      ACC,XAR4              ; [CPU_] |30| 
     105 0000001d 0742          ADDL      ACC,*-SP[2]           ; [CPU_] |30| 
TMS320C2000 Assembler PC v6.4.2 Thu Dec 14 15:26:04 2017

Tools Copyright (c) 1996-2015 Texas Instruments Incorporated
drv8305.asm                                                          PAGE    3

     106 0000001e 8AA9          MOVL      XAR4,ACC              ; [CPU_] |30| 
     107 0000001f 2BC4          MOV       *+XAR4[0],#0          ; [CPU_] |30| 
     108                      .dwpsn  file "../motors/HAL/drv8305.c",line 31,column 2,is_stmt,isa 0
     109 00000020 8F00          MOVL      XAR4,#322             ; [CPU_U] |31| 
         00000021 0142 
     110 00000022 A8A9          MOVL      ACC,XAR4              ; [CPU_] |31| 
     111 00000023 0742          ADDL      ACC,*-SP[2]           ; [CPU_] |31| 
     112 00000024 8AA9          MOVL      XAR4,ACC              ; [CPU_] |31| 
     113 00000025 2BC4          MOV       *+XAR4[0],#0          ; [CPU_] |31| 
     114                      .dwpsn  file "../motors/HAL/drv8305.c",line 32,column 2,is_stmt,isa 0
     115 00000026 8F00          MOVL      XAR4,#323             ; [CPU_U] |32| 
         00000027 0143 
     116 00000028 A8A9          MOVL      ACC,XAR4              ; [CPU_] |32| 
     117 00000029 0742          ADDL      ACC,*-SP[2]           ; [CPU_] |32| 
     118 0000002a 8AA9          MOVL      XAR4,ACC              ; [CPU_] |32| 
     119 0000002b 2BC4          MOV       *+XAR4[0],#0          ; [CPU_] |32| 
     120                      .dwpsn  file "../motors/HAL/drv8305.c",line 34,column 2,is_stmt,isa 0
     121 0000002c 8F00          MOVL      XAR4,#316             ; [CPU_U] |34| 
         0000002d 013C 
     122 0000002e A8A9          MOVL      ACC,XAR4              ; [CPU_] |34| 
     123 0000002f 0742          ADDL      ACC,*-SP[2]           ; [CPU_] |34| 
     124 00000030 8AA9          MOVL      XAR4,ACC              ; [CPU_] |34| 
     125 00000031 CCC4          AND       AL,*+XAR4[0],#0xff0f  ; [CPU_] |34| 
         00000032 FF0F 
     126 00000033 5040          ORB       AL,#0x40              ; [CPU_] |34| 
     127 00000034 96C4          MOV       *+XAR4[0],AL          ; [CPU_] |34| 
     128                      .dwpsn  file "../motors/HAL/drv8305.c",line 35,column 2,is_stmt,isa 0
     129 00000035 8F00          MOVL      XAR4,#316             ; [CPU_U] |35| 
         00000036 013C 
     130 00000037 A8A9          MOVL      ACC,XAR4              ; [CPU_] |35| 
     131 00000038 0742          ADDL      ACC,*-SP[2]           ; [CPU_] |35| 
     132 00000039 8AA9          MOVL      XAR4,ACC              ; [CPU_] |35| 
     133 0000003a CCC4          AND       AL,*+XAR4[0],#0xfff0  ; [CPU_] |35| 
         0000003b FFF0 
     134 0000003c 5004          ORB       AL,#0x04              ; [CPU_] |35| 
     135 0000003d 96C4          MOV       *+XAR4[0],AL          ; [CPU_] |35| 
     136                      .dwpsn  file "../motors/HAL/drv8305.c",line 36,column 2,is_stmt,isa 0
     137 0000003e 8F00          MOVL      XAR4,#316             ; [CPU_U] |36| 
         0000003f 013C 
     138 00000040 A8A9          MOVL      ACC,XAR4              ; [CPU_] |36| 
     139 00000041 0742          ADDL      ACC,*-SP[2]           ; [CPU_] |36| 
     140 00000042 8AA9          MOVL      XAR4,ACC              ; [CPU_] |36| 
     141 00000043 18C4          AND       *+XAR4[0],#0xfcff     ; [CPU_] |36| 
         00000044 FCFF 
     142                      .dwpsn  file "../motors/HAL/drv8305.c",line 38,column 2,is_stmt,isa 0
     143 00000045 8F00          MOVL      XAR4,#317             ; [CPU_U] |38| 
         00000046 013D 
     144 00000047 A8A9          MOVL      ACC,XAR4              ; [CPU_] |38| 
     145 00000048 0742          ADDL      ACC,*-SP[2]           ; [CPU_] |38| 
     146 00000049 8AA9          MOVL      XAR4,ACC              ; [CPU_] |38| 
     147 0000004a CCC4          AND       AL,*+XAR4[0],#0xff0f  ; [CPU_] |38| 
         0000004b FF0F 
     148 0000004c 5040          ORB       AL,#0x40              ; [CPU_] |38| 
     149 0000004d 96C4          MOV       *+XAR4[0],AL          ; [CPU_] |38| 
     150                      .dwpsn  file "../motors/HAL/drv8305.c",line 39,column 2,is_stmt,isa 0
TMS320C2000 Assembler PC v6.4.2 Thu Dec 14 15:26:04 2017

Tools Copyright (c) 1996-2015 Texas Instruments Incorporated
drv8305.asm                                                          PAGE    4

     151 0000004e 8F00          MOVL      XAR4,#317             ; [CPU_U] |39| 
         0000004f 013D 
     152 00000050 A8A9          MOVL      ACC,XAR4              ; [CPU_] |39| 
     153 00000051 0742          ADDL      ACC,*-SP[2]           ; [CPU_] |39| 
     154 00000052 8AA9          MOVL      XAR4,ACC              ; [CPU_] |39| 
     155 00000053 CCC4          AND       AL,*+XAR4[0],#0xfff0  ; [CPU_] |39| 
         00000054 FFF0 
     156 00000055 5004          ORB       AL,#0x04              ; [CPU_] |39| 
     157 00000056 96C4          MOV       *+XAR4[0],AL          ; [CPU_] |39| 
     158                      .dwpsn  file "../motors/HAL/drv8305.c",line 40,column 2,is_stmt,isa 0
     159 00000057 8F00          MOVL      XAR4,#317             ; [CPU_U] |40| 
         00000058 013D 
     160 00000059 A8A9          MOVL      ACC,XAR4              ; [CPU_] |40| 
     161 0000005a 0742          ADDL      ACC,*-SP[2]           ; [CPU_] |40| 
     162 0000005b 8AA9          MOVL      XAR4,ACC              ; [CPU_] |40| 
     163 0000005c 18C4          AND       *+XAR4[0],#0xfcff     ; [CPU_] |40| 
         0000005d FCFF 
     164                      .dwpsn  file "../motors/HAL/drv8305.c",line 42,column 2,is_stmt,isa 0
     165 0000005e 8F00          MOVL      XAR4,#318             ; [CPU_U] |42| 
         0000005f 013E 
     166 00000060 A8A9          MOVL      ACC,XAR4              ; [CPU_] |42| 
     167 00000061 0742          ADDL      ACC,*-SP[2]           ; [CPU_] |42| 
     168 00000062 8AA9          MOVL      XAR4,ACC              ; [CPU_] |42| 
     169 00000063 18C4          AND       *+XAR4[0],#0xfdff     ; [CPU_] |42| 
         00000064 FDFF 
     170                      .dwpsn  file "../motors/HAL/drv8305.c",line 43,column 2,is_stmt,isa 0
     171 00000065 8F00          MOVL      XAR4,#318             ; [CPU_U] |43| 
         00000066 013E 
     172 00000067 A8A9          MOVL      ACC,XAR4              ; [CPU_] |43| 
     173 00000068 0742          ADDL      ACC,*-SP[2]           ; [CPU_] |43| 
     174 00000069 8AA9          MOVL      XAR4,ACC              ; [CPU_] |43| 
     175 0000006a CCC4          AND       AL,*+XAR4[0],#0xfe7f  ; [CPU_] |43| 
         0000006b FE7F 
     176 0000006c 5080          ORB       AL,#0x80              ; [CPU_] |43| 
     177 0000006d 96C4          MOV       *+XAR4[0],AL          ; [CPU_] |43| 
     178                      .dwpsn  file "../motors/HAL/drv8305.c",line 44,column 2,is_stmt,isa 0
     179 0000006e 8F00          MOVL      XAR4,#318             ; [CPU_U] |44| 
         0000006f 013E 
     180 00000070 A8A9          MOVL      ACC,XAR4              ; [CPU_] |44| 
     181 00000071 0742          ADDL      ACC,*-SP[2]           ; [CPU_] |44| 
     182 00000072 8AA9          MOVL      XAR4,ACC              ; [CPU_] |44| 
     183 00000073 CCC4          AND       AL,*+XAR4[0],#0xff8f  ; [CPU_] |44| 
         00000074 FF8F 
     184 00000075 5010          ORB       AL,#0x10              ; [CPU_] |44| 
     185 00000076 96C4          MOV       *+XAR4[0],AL          ; [CPU_] |44| 
     186                      .dwpsn  file "../motors/HAL/drv8305.c",line 45,column 2,is_stmt,isa 0
     187 00000077 8F00          MOVL      XAR4,#318             ; [CPU_U] |45| 
         00000078 013E 
     188 00000079 A8A9          MOVL      ACC,XAR4              ; [CPU_] |45| 
     189 0000007a 0742          ADDL      ACC,*-SP[2]           ; [CPU_] |45| 
     190 0000007b 8AA9          MOVL      XAR4,ACC              ; [CPU_] |45| 
     191 0000007c CCC4          AND       AL,*+XAR4[0],#0xfff3  ; [CPU_] |45| 
         0000007d FFF3 
     192 0000007e 5004          ORB       AL,#0x04              ; [CPU_] |45| 
     193 0000007f 96C4          MOV       *+XAR4[0],AL          ; [CPU_] |45| 
TMS320C2000 Assembler PC v6.4.2 Thu Dec 14 15:26:04 2017

Tools Copyright (c) 1996-2015 Texas Instruments Incorporated
drv8305.asm                                                          PAGE    5

     194                      .dwpsn  file "../motors/HAL/drv8305.c",line 46,column 2,is_stmt,isa 0
     195 00000080 8F00          MOVL      XAR4,#318             ; [CPU_U] |46| 
         00000081 013E 
     196 00000082 A8A9          MOVL      ACC,XAR4              ; [CPU_] |46| 
     197 00000083 0742          ADDL      ACC,*-SP[2]           ; [CPU_] |46| 
     198 00000084 8AA9          MOVL      XAR4,ACC              ; [CPU_] |46| 
     199 00000085 CCC4          AND       AL,*+XAR4[0],#0xfffc  ; [CPU_] |46| 
         00000086 FFFC 
     200 00000087 5002          ORB       AL,#0x02              ; [CPU_] |46| 
     201 00000088 96C4          MOV       *+XAR4[0],AL          ; [CPU_] |46| 
     202                      .dwpsn  file "../motors/HAL/drv8305.c",line 48,column 2,is_stmt,isa 0
     203 00000089 8F00          MOVL      XAR4,#320             ; [CPU_U] |48| 
         0000008a 0140 
     204 0000008b A8A9          MOVL      ACC,XAR4              ; [CPU_] |48| 
     205 0000008c 0742          ADDL      ACC,*-SP[2]           ; [CPU_] |48| 
     206 0000008d 8AA9          MOVL      XAR4,ACC              ; [CPU_] |48| 
     207 0000008e 18C4          AND       *+XAR4[0],#0xfbff     ; [CPU_] |48| 
         0000008f FBFF 
     208                      .dwpsn  file "../motors/HAL/drv8305.c",line 49,column 2,is_stmt,isa 0
     209 00000090 8F00          MOVL      XAR4,#320             ; [CPU_U] |49| 
         00000091 0140 
     210 00000092 A8A9          MOVL      ACC,XAR4              ; [CPU_] |49| 
     211 00000093 0742          ADDL      ACC,*-SP[2]           ; [CPU_] |49| 
     212 00000094 8AA9          MOVL      XAR4,ACC              ; [CPU_] |49| 
     213 00000095 18C4          AND       *+XAR4[0],#0xfdff     ; [CPU_] |49| 
         00000096 FDFF 
     214                      .dwpsn  file "../motors/HAL/drv8305.c",line 50,column 2,is_stmt,isa 0
     215 00000097 8F00          MOVL      XAR4,#320             ; [CPU_U] |50| 
         00000098 0140 
     216 00000099 A8A9          MOVL      ACC,XAR4              ; [CPU_] |50| 
     217 0000009a 0742          ADDL      ACC,*-SP[2]           ; [CPU_] |50| 
     218 0000009b 8AA9          MOVL      XAR4,ACC              ; [CPU_] |50| 
     219 0000009c 18C4          AND       *+XAR4[0],#0xfeff     ; [CPU_] |50| 
         0000009d FEFF 
     220                      .dwpsn  file "../motors/HAL/drv8305.c",line 51,column 2,is_stmt,isa 0
     221 0000009e 8F00          MOVL      XAR4,#320             ; [CPU_U] |51| 
         0000009f 0140 
     222 000000a0 A8A9          MOVL      ACC,XAR4              ; [CPU_] |51| 
     223 000000a1 0742          ADDL      ACC,*-SP[2]           ; [CPU_] |51| 
     224 000000a2 8AA9          MOVL      XAR4,ACC              ; [CPU_] |51| 
     225 000000a3 18C4          AND       *+XAR4[0],#0xff7f     ; [CPU_] |51| 
         000000a4 FF7F 
     226                      .dwpsn  file "../motors/HAL/drv8305.c",line 52,column 2,is_stmt,isa 0
     227 000000a5 8F00          MOVL      XAR4,#320             ; [CPU_U] |52| 
         000000a6 0140 
     228 000000a7 A8A9          MOVL      ACC,XAR4              ; [CPU_] |52| 
     229 000000a8 0742          ADDL      ACC,*-SP[2]           ; [CPU_] |52| 
     230 000000a9 8AA9          MOVL      XAR4,ACC              ; [CPU_] |52| 
     231 000000aa CCC4          AND       AL,*+XAR4[0],#0xff9f  ; [CPU_] |52| 
         000000ab FF9F 
     232 000000ac 5020          ORB       AL,#0x20              ; [CPU_] |52| 
     233 000000ad 96C4          MOV       *+XAR4[0],AL          ; [CPU_] |52| 
     234                      .dwpsn  file "../motors/HAL/drv8305.c",line 53,column 2,is_stmt,isa 0
     235 000000ae 8F00          MOVL      XAR4,#320             ; [CPU_U] |53| 
         000000af 0140 
TMS320C2000 Assembler PC v6.4.2 Thu Dec 14 15:26:04 2017

Tools Copyright (c) 1996-2015 Texas Instruments Incorporated
drv8305.asm                                                          PAGE    6

     236 000000b0 A8A9          MOVL      ACC,XAR4              ; [CPU_] |53| 
     237 000000b1 0742          ADDL      ACC,*-SP[2]           ; [CPU_] |53| 
     238 000000b2 8AA9          MOVL      XAR4,ACC              ; [CPU_] |53| 
     239 000000b3 18C4          AND       *+XAR4[0],#0xffef     ; [CPU_] |53| 
         000000b4 FFEF 
     240                      .dwpsn  file "../motors/HAL/drv8305.c",line 54,column 2,is_stmt,isa 0
     241 000000b5 8F00          MOVL      XAR4,#320             ; [CPU_U] |54| 
         000000b6 0140 
     242 000000b7 A8A9          MOVL      ACC,XAR4              ; [CPU_] |54| 
     243 000000b8 0742          ADDL      ACC,*-SP[2]           ; [CPU_] |54| 
     244 000000b9 8AA9          MOVL      XAR4,ACC              ; [CPU_] |54| 
     245 000000ba 18C4          AND       *+XAR4[0],#0xfff7     ; [CPU_] |54| 
         000000bb FFF7 
     246                      .dwpsn  file "../motors/HAL/drv8305.c",line 55,column 2,is_stmt,isa 0
     247 000000bc 8F00          MOVL      XAR4,#320             ; [CPU_U] |55| 
         000000bd 0140 
     248 000000be A8A9          MOVL      ACC,XAR4              ; [CPU_] |55| 
     249 000000bf 0742          ADDL      ACC,*-SP[2]           ; [CPU_] |55| 
     250 000000c0 8AA9          MOVL      XAR4,ACC              ; [CPU_] |55| 
     251 000000c1 18C4          AND       *+XAR4[0],#0xfffb     ; [CPU_] |55| 
         000000c2 FFFB 
     252                      .dwpsn  file "../motors/HAL/drv8305.c",line 56,column 2,is_stmt,isa 0
     253 000000c3 8F00          MOVL      XAR4,#320             ; [CPU_U] |56| 
         000000c4 0140 
     254 000000c5 A8A9          MOVL      ACC,XAR4              ; [CPU_] |56| 
     255 000000c6 0742          ADDL      ACC,*-SP[2]           ; [CPU_] |56| 
     256 000000c7 8AA9          MOVL      XAR4,ACC              ; [CPU_] |56| 
     257 000000c8 18C4          AND       *+XAR4[0],#0xfffd     ; [CPU_] |56| 
         000000c9 FFFD 
     258                      .dwpsn  file "../motors/HAL/drv8305.c",line 57,column 2,is_stmt,isa 0
     259 000000ca 8F00          MOVL      XAR4,#320             ; [CPU_U] |57| 
         000000cb 0140 
     260 000000cc A8A9          MOVL      ACC,XAR4              ; [CPU_] |57| 
     261 000000cd 0742          ADDL      ACC,*-SP[2]           ; [CPU_] |57| 
     262 000000ce 8AA9          MOVL      XAR4,ACC              ; [CPU_] |57| 
     263 000000cf 18C4          AND       *+XAR4[0],#0xfffe     ; [CPU_] |57| 
         000000d0 FFFE 
     264                      .dwpsn  file "../motors/HAL/drv8305.c",line 59,column 2,is_stmt,isa 0
     265 000000d1 8F00          MOVL      XAR4,#321             ; [CPU_U] |59| 
         000000d2 0141 
     266 000000d3 A8A9          MOVL      ACC,XAR4              ; [CPU_] |59| 
     267 000000d4 0742          ADDL      ACC,*-SP[2]           ; [CPU_] |59| 
     268 000000d5 8AA9          MOVL      XAR4,ACC              ; [CPU_] |59| 
     269 000000d6 CCC4          AND       AL,*+XAR4[0],#0xfffc  ; [CPU_] |59| 
         000000d7 FFFC 
     270 000000d8 5002          ORB       AL,#0x02              ; [CPU_] |59| 
     271 000000d9 96C4          MOV       *+XAR4[0],AL          ; [CPU_] |59| 
     272                      .dwpsn  file "../motors/HAL/drv8305.c",line 62,column 2,is_stmt,isa 0
     273 000000da 8F00          MOVL      XAR4,#321             ; [CPU_U] |62| 
         000000db 0141 
     274 000000dc A8A9          MOVL      ACC,XAR4              ; [CPU_] |62| 
     275 000000dd 0742          ADDL      ACC,*-SP[2]           ; [CPU_] |62| 
     276 000000de 8AA9          MOVL      XAR4,ACC              ; [CPU_] |62| 
     277 000000df CCC4          AND       AL,*+XAR4[0],#0xfff3  ; [CPU_] |62| 
         000000e0 FFF3 
TMS320C2000 Assembler PC v6.4.2 Thu Dec 14 15:26:04 2017

Tools Copyright (c) 1996-2015 Texas Instruments Incorporated
drv8305.asm                                                          PAGE    7

     278 000000e1 5008          ORB       AL,#0x08              ; [CPU_] |62| 
     279 000000e2 96C4          MOV       *+XAR4[0],AL          ; [CPU_] |62| 
     280                      .dwpsn  file "../motors/HAL/drv8305.c",line 65,column 2,is_stmt,isa 0
     281 000000e3 8F00          MOVL      XAR4,#321             ; [CPU_U] |65| 
         000000e4 0141 
     282 000000e5 A8A9          MOVL      ACC,XAR4              ; [CPU_] |65| 
     283 000000e6 0742          ADDL      ACC,*-SP[2]           ; [CPU_] |65| 
     284 000000e7 8AA9          MOVL      XAR4,ACC              ; [CPU_] |65| 
     285 000000e8 CCC4          AND       AL,*+XAR4[0],#0xffcf  ; [CPU_] |65| 
         000000e9 FFCF 
     286 000000ea 5020          ORB       AL,#0x20              ; [CPU_] |65| 
     287 000000eb 96C4          MOV       *+XAR4[0],AL          ; [CPU_] |65| 
     288                      .dwpsn  file "../motors/HAL/drv8305.c",line 68,column 2,is_stmt,isa 0
     289 000000ec 8F00          MOVL      XAR4,#321             ; [CPU_U] |68| 
         000000ed 0141 
     290 000000ee A8A9          MOVL      ACC,XAR4              ; [CPU_] |68| 
     291 000000ef 0742          ADDL      ACC,*-SP[2]           ; [CPU_] |68| 
     292 000000f0 8AA9          MOVL      XAR4,ACC              ; [CPU_] |68| 
     293 000000f1 18C4          AND       *+XAR4[0],#0xff3f     ; [CPU_] |68| 
         000000f2 FF3F 
     294                      .dwpsn  file "../motors/HAL/drv8305.c",line 69,column 2,is_stmt,isa 0
     295 000000f3 8F00          MOVL      XAR4,#321             ; [CPU_U] |69| 
         000000f4 0141 
     296 000000f5 A8A9          MOVL      ACC,XAR4              ; [CPU_] |69| 
     297 000000f6 0742          ADDL      ACC,*-SP[2]           ; [CPU_] |69| 
     298 000000f7 8AA9          MOVL      XAR4,ACC              ; [CPU_] |69| 
     299 000000f8 18C4          AND       *+XAR4[0],#0xfeff     ; [CPU_] |69| 
         000000f9 FEFF 
     300                      .dwpsn  file "../motors/HAL/drv8305.c",line 70,column 2,is_stmt,isa 0
     301 000000fa 8F00          MOVL      XAR4,#321             ; [CPU_U] |70| 
         000000fb 0141 
     302 000000fc A8A9          MOVL      ACC,XAR4              ; [CPU_] |70| 
     303 000000fd 0742          ADDL      ACC,*-SP[2]           ; [CPU_] |70| 
     304 000000fe 8AA9          MOVL      XAR4,ACC              ; [CPU_] |70| 
     305 000000ff 18C4          AND       *+XAR4[0],#0xfdff     ; [CPU_] |70| 
         00000100 FDFF 
     306                      .dwpsn  file "../motors/HAL/drv8305.c",line 71,column 2,is_stmt,isa 0
     307 00000101 8F00          MOVL      XAR4,#321             ; [CPU_U] |71| 
         00000102 0141 
     308 00000103 A8A9          MOVL      ACC,XAR4              ; [CPU_] |71| 
     309 00000104 0742          ADDL      ACC,*-SP[2]           ; [CPU_] |71| 
     310 00000105 8AA9          MOVL      XAR4,ACC              ; [CPU_] |71| 
     311 00000106 18C4          AND       *+XAR4[0],#0xfbff     ; [CPU_] |71| 
         00000107 FBFF 
     312                      .dwpsn  file "../motors/HAL/drv8305.c",line 73,column 2,is_stmt,isa 0
     313 00000108 8F00          MOVL      XAR4,#322             ; [CPU_U] |73| 
         00000109 0142 
     314 0000010a A8A9          MOVL      ACC,XAR4              ; [CPU_] |73| 
     315 0000010b 0742          ADDL      ACC,*-SP[2]           ; [CPU_] |73| 
     316 0000010c 8AA9          MOVL      XAR4,ACC              ; [CPU_] |73| 
     317 0000010d CCC4          AND       AL,*+XAR4[0],#0xfcff  ; [CPU_] |73| 
         0000010e FCFF 
     318 0000010f 1AA9          OR        AL,#0x0100            ; [CPU_] |73| 
         00000110 0100 
     319 00000111 96C4          MOV       *+XAR4[0],AL          ; [CPU_] |73| 
TMS320C2000 Assembler PC v6.4.2 Thu Dec 14 15:26:04 2017

Tools Copyright (c) 1996-2015 Texas Instruments Incorporated
drv8305.asm                                                          PAGE    8

     320                      .dwpsn  file "../motors/HAL/drv8305.c",line 74,column 2,is_stmt,isa 0
     321 00000112 8F00          MOVL      XAR4,#322             ; [CPU_U] |74| 
         00000113 0142 
     322 00000114 A8A9          MOVL      ACC,XAR4              ; [CPU_] |74| 
     323 00000115 0742          ADDL      ACC,*-SP[2]           ; [CPU_] |74| 
     324 00000116 8AA9          MOVL      XAR4,ACC              ; [CPU_] |74| 
     325 00000117 CCC4          AND       AL,*+XAR4[0],#0xffe7  ; [CPU_] |74| 
         00000118 FFE7 
     326 00000119 5008          ORB       AL,#0x08              ; [CPU_] |74| 
     327 0000011a 96C4          MOV       *+XAR4[0],AL          ; [CPU_] |74| 
     328                      .dwpsn  file "../motors/HAL/drv8305.c",line 75,column 2,is_stmt,isa 0
     329 0000011b 8F00          MOVL      XAR4,#322             ; [CPU_U] |75| 
         0000011c 0142 
     330 0000011d A8A9          MOVL      ACC,XAR4              ; [CPU_] |75| 
     331 0000011e 0742          ADDL      ACC,*-SP[2]           ; [CPU_] |75| 
     332 0000011f 8AA9          MOVL      XAR4,ACC              ; [CPU_] |75| 
     333 00000120 18C4          AND       *+XAR4[0],#0xfffb     ; [CPU_] |75| 
         00000121 FFFB 
     334                      .dwpsn  file "../motors/HAL/drv8305.c",line 76,column 2,is_stmt,isa 0
     335 00000122 8F00          MOVL      XAR4,#322             ; [CPU_U] |76| 
         00000123 0142 
     336 00000124 A8A9          MOVL      ACC,XAR4              ; [CPU_] |76| 
     337 00000125 0742          ADDL      ACC,*-SP[2]           ; [CPU_] |76| 
     338 00000126 8AA9          MOVL      XAR4,ACC              ; [CPU_] |76| 
     339 00000127 CCC4          AND       AL,*+XAR4[0],#0xfffc  ; [CPU_] |76| 
         00000128 FFFC 
     340 00000129 5002          ORB       AL,#0x02              ; [CPU_] |76| 
     341 0000012a 96C4          MOV       *+XAR4[0],AL          ; [CPU_] |76| 
     342                      .dwpsn  file "../motors/HAL/drv8305.c",line 78,column 2,is_stmt,isa 0
     343 0000012b 8F00          MOVL      XAR4,#323             ; [CPU_U] |78| 
         0000012c 0143 
     344 0000012d A8A9          MOVL      ACC,XAR4              ; [CPU_] |78| 
     345 0000012e 0742          ADDL      ACC,*-SP[2]           ; [CPU_] |78| 
     346 0000012f 8AA9          MOVL      XAR4,ACC              ; [CPU_] |78| 
     347 00000130 CCC4          AND       AL,*+XAR4[0],#0xff07  ; [CPU_] |78| 
         00000131 FF07 
     348 00000132 50C8          ORB       AL,#0xc8              ; [CPU_] |78| 
     349 00000133 96C4          MOV       *+XAR4[0],AL          ; [CPU_] |78| 
     350                      .dwpsn  file "../motors/HAL/drv8305.c",line 79,column 2,is_stmt,isa 0
     351 00000134 8F00          MOVL      XAR4,#323             ; [CPU_U] |79| 
         00000135 0143 
     352 00000136 A8A9          MOVL      ACC,XAR4              ; [CPU_] |79| 
     353 00000137 0742          ADDL      ACC,*-SP[2]           ; [CPU_] |79| 
     354 00000138 8AA9          MOVL      XAR4,ACC              ; [CPU_] |79| 
     355 00000139 18C4          AND       *+XAR4[0],#0xfff8     ; [CPU_] |79| 
         0000013a FFF8 
     356                      .dwpsn  file "../motors/HAL/drv8305.c",line 81,column 2,is_stmt,isa 0
     357                      .dwpsn  file "../motors/HAL/drv8305.c",line 82,column 1,is_stmt,isa 0
     358 0000013b FE82          SUBB      SP,#2                 ; [CPU_U] 
     359                      .dwcfi  cfa_offset, -2
     360              $C$DW$10        .dwtag  DW_TAG_TI_branch
     361                      .dwattr $C$DW$10, DW_AT_low_pc(0x00)
     362                      .dwattr $C$DW$10, DW_AT_TI_return
     363 0000013c 0006          LRETR     ; [CPU_] 
     364                      ; return occurs ; [] 
TMS320C2000 Assembler PC v6.4.2 Thu Dec 14 15:26:04 2017

Tools Copyright (c) 1996-2015 Texas Instruments Incorporated
drv8305.asm                                                          PAGE    9

     365                      .dwattr $C$DW$7, DW_AT_TI_end_file("../motors/HAL/drv8305.c")
     366                      .dwattr $C$DW$7, DW_AT_TI_end_line(0x52)
     367                      .dwattr $C$DW$7, DW_AT_TI_end_column(0x01)
     368                      .dwendentry
     369                      .dwendtag $C$DW$7
     370              
     371 0000013d               .sect   ".text"
     372                      .clink
     373                      .global _InitDRV8305
     374              
     375              $C$DW$11        .dwtag  DW_TAG_subprogram, DW_AT_name("InitDRV8305")
     376                      .dwattr $C$DW$11, DW_AT_low_pc(_InitDRV8305)
     377                      .dwattr $C$DW$11, DW_AT_high_pc(0x00)
     378                      .dwattr $C$DW$11, DW_AT_TI_symbol_name("_InitDRV8305")
     379                      .dwattr $C$DW$11, DW_AT_external
     380                      .dwattr $C$DW$11, DW_AT_TI_begin_file("../motors/HAL/drv8305.c")
     381                      .dwattr $C$DW$11, DW_AT_TI_begin_line(0x59)
     382                      .dwattr $C$DW$11, DW_AT_TI_begin_column(0x06)
     383                      .dwattr $C$DW$11, DW_AT_TI_max_frame_size(-10)
     384                      .dwpsn  file "../motors/HAL/drv8305.c",line 90,column 1,is_stmt,address _InitDRV8305,isa 0
     385              
     386                      .dwfde $C$DW$CIE, _InitDRV8305
     387              $C$DW$12        .dwtag  DW_TAG_formal_parameter, DW_AT_name("motor")
     388                      .dwattr $C$DW$12, DW_AT_TI_symbol_name("_motor")
     389                      .dwattr $C$DW$12, DW_AT_type(*$C$DW$T$281)
     390                      .dwattr $C$DW$12, DW_AT_location[DW_OP_reg12]
     391              
     392              ;***************************************************************
     393              ;* FNAME: _InitDRV8305                  FR SIZE:   8           *
     394              ;*                                                             *
     395              ;* FUNCTION ENVIRONMENT                                        *
     396              ;*                                                             *
     397              ;* FUNCTION PROPERTIES                                         *
     398              ;*                            0 Parameter,  8 Auto,  0 SOE     *
     399              ;***************************************************************
     400              
     401 0000013d       _InitDRV8305:
     402                      .dwcfi  cfa_offset, -2
     403                      .dwcfi  save_reg_to_mem, 26, 0
     404 0000013d FE08          ADDB      SP,#8                 ; [CPU_U] 
     405                      .dwcfi  cfa_offset, -10
     406              $C$DW$13        .dwtag  DW_TAG_variable, DW_AT_name("motor")
     407                      .dwattr $C$DW$13, DW_AT_TI_symbol_name("_motor")
     408                      .dwattr $C$DW$13, DW_AT_type(*$C$DW$T$281)
     409                      .dwattr $C$DW$13, DW_AT_location[DW_OP_breg20 -2]
     410              $C$DW$14        .dwtag  DW_TAG_variable, DW_AT_name("tmp1")
     411                      .dwattr $C$DW$14, DW_AT_TI_symbol_name("_tmp1")
     412                      .dwattr $C$DW$14, DW_AT_type(*$C$DW$T$31)
     413                      .dwattr $C$DW$14, DW_AT_location[DW_OP_breg20 -3]
     414              $C$DW$15        .dwtag  DW_TAG_variable, DW_AT_name("ptr1")
     415                      .dwattr $C$DW$15, DW_AT_TI_symbol_name("_ptr1")
     416                      .dwattr $C$DW$15, DW_AT_type(*$C$DW$T$285)
     417                      .dwattr $C$DW$15, DW_AT_location[DW_OP_breg20 -6]
     418              $C$DW$16        .dwtag  DW_TAG_variable, DW_AT_name("ptr2")
     419                      .dwattr $C$DW$16, DW_AT_TI_symbol_name("_ptr2")
TMS320C2000 Assembler PC v6.4.2 Thu Dec 14 15:26:04 2017

Tools Copyright (c) 1996-2015 Texas Instruments Incorporated
drv8305.asm                                                          PAGE   10

     420                      .dwattr $C$DW$16, DW_AT_type(*$C$DW$T$285)
     421                      .dwattr $C$DW$16, DW_AT_location[DW_OP_breg20 -8]
     422 0000013e A842          MOVL      *-SP[2],XAR4          ; [CPU_] |90| 
     423                      .dwpsn  file "../motors/HAL/drv8305.c",line 102,column 2,is_stmt,isa 0
     424 0000013f 9A05          MOVB      AL,#5                 ; [CPU_] |102| 
     425              $C$DW$17        .dwtag  DW_TAG_TI_branch
     426                      .dwattr $C$DW$17, DW_AT_low_pc(0x00)
     427                      .dwattr $C$DW$17, DW_AT_name("_DRV8305_SPI_Write")
     428                      .dwattr $C$DW$17, DW_AT_TI_call
     429 00000140 7640!         LCR       #_DRV8305_SPI_Write   ; [CPU_] |102| 
         00000141 0000 
     430                      ; call occurs [#_DRV8305_SPI_Write] ; [] |102| 
     431 00000142 9643          MOV       *-SP[3],AL            ; [CPU_] |102| 
     432                      .dwpsn  file "../motors/HAL/drv8305.c",line 103,column 2,is_stmt,isa 0
     433 00000143 8A42          MOVL      XAR4,*-SP[2]          ; [CPU_] |103| 
     434 00000144 9A06          MOVB      AL,#6                 ; [CPU_] |103| 
     435              $C$DW$18        .dwtag  DW_TAG_TI_branch
     436                      .dwattr $C$DW$18, DW_AT_low_pc(0x00)
     437                      .dwattr $C$DW$18, DW_AT_name("_DRV8305_SPI_Write")
     438                      .dwattr $C$DW$18, DW_AT_TI_call
     439 00000145 7640!         LCR       #_DRV8305_SPI_Write   ; [CPU_] |103| 
         00000146 0000 
     440                      ; call occurs [#_DRV8305_SPI_Write] ; [] |103| 
     441 00000147 9643          MOV       *-SP[3],AL            ; [CPU_] |103| 
     442                      .dwpsn  file "../motors/HAL/drv8305.c",line 104,column 2,is_stmt,isa 0
     443 00000148 8A42          MOVL      XAR4,*-SP[2]          ; [CPU_] |104| 
     444 00000149 9A07          MOVB      AL,#7                 ; [CPU_] |104| 
     445              $C$DW$19        .dwtag  DW_TAG_TI_branch
     446                      .dwattr $C$DW$19, DW_AT_low_pc(0x00)
     447                      .dwattr $C$DW$19, DW_AT_name("_DRV8305_SPI_Write")
     448                      .dwattr $C$DW$19, DW_AT_TI_call
     449 0000014a 7640!         LCR       #_DRV8305_SPI_Write   ; [CPU_] |104| 
         0000014b 0000 
     450                      ; call occurs [#_DRV8305_SPI_Write] ; [] |104| 
     451 0000014c 9643          MOV       *-SP[3],AL            ; [CPU_] |104| 
     452                      .dwpsn  file "../motors/HAL/drv8305.c",line 105,column 2,is_stmt,isa 0
     453 0000014d 8A42          MOVL      XAR4,*-SP[2]          ; [CPU_] |105| 
     454 0000014e 9A09          MOVB      AL,#9                 ; [CPU_] |105| 
     455              $C$DW$20        .dwtag  DW_TAG_TI_branch
     456                      .dwattr $C$DW$20, DW_AT_low_pc(0x00)
     457                      .dwattr $C$DW$20, DW_AT_name("_DRV8305_SPI_Write")
     458                      .dwattr $C$DW$20, DW_AT_TI_call
     459 0000014f 7640!         LCR       #_DRV8305_SPI_Write   ; [CPU_] |105| 
         00000150 0000 
     460                      ; call occurs [#_DRV8305_SPI_Write] ; [] |105| 
     461 00000151 9643          MOV       *-SP[3],AL            ; [CPU_] |105| 
     462                      .dwpsn  file "../motors/HAL/drv8305.c",line 106,column 2,is_stmt,isa 0
     463 00000152 8A42          MOVL      XAR4,*-SP[2]          ; [CPU_] |106| 
     464 00000153 9A0A          MOVB      AL,#10                ; [CPU_] |106| 
     465              $C$DW$21        .dwtag  DW_TAG_TI_branch
     466                      .dwattr $C$DW$21, DW_AT_low_pc(0x00)
     467                      .dwattr $C$DW$21, DW_AT_name("_DRV8305_SPI_Write")
     468                      .dwattr $C$DW$21, DW_AT_TI_call
     469 00000154 7640!         LCR       #_DRV8305_SPI_Write   ; [CPU_] |106| 
         00000155 0000 
TMS320C2000 Assembler PC v6.4.2 Thu Dec 14 15:26:04 2017

Tools Copyright (c) 1996-2015 Texas Instruments Incorporated
drv8305.asm                                                          PAGE   11

     470                      ; call occurs [#_DRV8305_SPI_Write] ; [] |106| 
     471 00000156 9643          MOV       *-SP[3],AL            ; [CPU_] |106| 
     472                      .dwpsn  file "../motors/HAL/drv8305.c",line 107,column 2,is_stmt,isa 0
     473 00000157 8A42          MOVL      XAR4,*-SP[2]          ; [CPU_] |107| 
     474 00000158 9A0B          MOVB      AL,#11                ; [CPU_] |107| 
     475              $C$DW$22        .dwtag  DW_TAG_TI_branch
     476                      .dwattr $C$DW$22, DW_AT_low_pc(0x00)
     477                      .dwattr $C$DW$22, DW_AT_name("_DRV8305_SPI_Write")
     478                      .dwattr $C$DW$22, DW_AT_TI_call
     479 00000159 7640!         LCR       #_DRV8305_SPI_Write   ; [CPU_] |107| 
         0000015a 0000 
     480                      ; call occurs [#_DRV8305_SPI_Write] ; [] |107| 
     481 0000015b 9643          MOV       *-SP[3],AL            ; [CPU_] |107| 
     482                      .dwpsn  file "../motors/HAL/drv8305.c",line 108,column 2,is_stmt,isa 0
     483 0000015c 8A42          MOVL      XAR4,*-SP[2]          ; [CPU_] |108| 
     484 0000015d 9A0C          MOVB      AL,#12                ; [CPU_] |108| 
     485              $C$DW$23        .dwtag  DW_TAG_TI_branch
     486                      .dwattr $C$DW$23, DW_AT_low_pc(0x00)
     487                      .dwattr $C$DW$23, DW_AT_name("_DRV8305_SPI_Write")
     488                      .dwattr $C$DW$23, DW_AT_TI_call
     489 0000015e 7640!         LCR       #_DRV8305_SPI_Write   ; [CPU_] |108| 
         0000015f 0000 
     490                      ; call occurs [#_DRV8305_SPI_Write] ; [] |108| 
     491 00000160 9643          MOV       *-SP[3],AL            ; [CPU_] |108| 
     492                      .dwpsn  file "../motors/HAL/drv8305.c",line 113,column 2,is_stmt,isa 0
     493 00000161 8A42          MOVL      XAR4,*-SP[2]          ; [CPU_] |113| 
     494 00000162 9A01          MOVB      AL,#1                 ; [CPU_] |113| 
     495              $C$DW$24        .dwtag  DW_TAG_TI_branch
     496                      .dwattr $C$DW$24, DW_AT_low_pc(0x00)
     497                      .dwattr $C$DW$24, DW_AT_name("_DRV8305_SPI_Read")
     498                      .dwattr $C$DW$24, DW_AT_TI_call
     499 00000163 7640!         LCR       #_DRV8305_SPI_Read    ; [CPU_] |113| 
         00000164 0000 
     500                      ; call occurs [#_DRV8305_SPI_Read] ; [] |113| 
     501 00000165 CCA9          AND       AL,AL,#0x05ff         ; [CPU_] |113| 
         00000166 05FF 
     502 00000167 8F00          MOVL      XAR4,#312             ; [CPU_U] |113| 
         00000168 0138 
     503 00000169 88A9          MOVZ      AR6,AL                ; [CPU_] |113| 
     504 0000016a A8A9          MOVL      ACC,XAR4              ; [CPU_] |113| 
     505 0000016b 0742          ADDL      ACC,*-SP[2]           ; [CPU_] |113| 
     506 0000016c 8AA9          MOVL      XAR4,ACC              ; [CPU_] |113| 
     507 0000016d 7EC4          MOV       *+XAR4[0],AR6         ; [CPU_] |113| 
     508                      .dwpsn  file "../motors/HAL/drv8305.c",line 114,column 2,is_stmt,isa 0
     509 0000016e 8A42          MOVL      XAR4,*-SP[2]          ; [CPU_] |114| 
     510 0000016f 9A02          MOVB      AL,#2                 ; [CPU_] |114| 
     511              $C$DW$25        .dwtag  DW_TAG_TI_branch
     512                      .dwattr $C$DW$25, DW_AT_low_pc(0x00)
     513                      .dwattr $C$DW$25, DW_AT_name("_DRV8305_SPI_Read")
     514                      .dwattr $C$DW$25, DW_AT_TI_call
     515 00000170 7640!         LCR       #_DRV8305_SPI_Read    ; [CPU_] |114| 
         00000171 0000 
     516                      ; call occurs [#_DRV8305_SPI_Read] ; [] |114| 
     517 00000172 CCA9          AND       AL,AL,#0x07e7         ; [CPU_] |114| 
         00000173 07E7 
TMS320C2000 Assembler PC v6.4.2 Thu Dec 14 15:26:04 2017

Tools Copyright (c) 1996-2015 Texas Instruments Incorporated
drv8305.asm                                                          PAGE   12

     518 00000174 8F00          MOVL      XAR4,#313             ; [CPU_U] |114| 
         00000175 0139 
     519 00000176 88A9          MOVZ      AR6,AL                ; [CPU_] |114| 
     520 00000177 A8A9          MOVL      ACC,XAR4              ; [CPU_] |114| 
     521 00000178 0742          ADDL      ACC,*-SP[2]           ; [CPU_] |114| 
     522 00000179 8AA9          MOVL      XAR4,ACC              ; [CPU_] |114| 
     523 0000017a 7EC4          MOV       *+XAR4[0],AR6         ; [CPU_] |114| 
     524                      .dwpsn  file "../motors/HAL/drv8305.c",line 115,column 2,is_stmt,isa 0
     525 0000017b 8A42          MOVL      XAR4,*-SP[2]          ; [CPU_] |115| 
     526 0000017c 9A03          MOVB      AL,#3                 ; [CPU_] |115| 
     527              $C$DW$26        .dwtag  DW_TAG_TI_branch
     528                      .dwattr $C$DW$26, DW_AT_low_pc(0x00)
     529                      .dwattr $C$DW$26, DW_AT_name("_DRV8305_SPI_Read")
     530                      .dwattr $C$DW$26, DW_AT_TI_call
     531 0000017d 7640!         LCR       #_DRV8305_SPI_Read    ; [CPU_] |115| 
         0000017e 0000 
     532                      ; call occurs [#_DRV8305_SPI_Read] ; [] |115| 
     533 0000017f CCA9          AND       AL,AL,#0x0777         ; [CPU_] |115| 
         00000180 0777 
     534 00000181 8F00          MOVL      XAR4,#314             ; [CPU_U] |115| 
         00000182 013A 
     535 00000183 88A9          MOVZ      AR6,AL                ; [CPU_] |115| 
     536 00000184 A8A9          MOVL      ACC,XAR4              ; [CPU_] |115| 
     537 00000185 0742          ADDL      ACC,*-SP[2]           ; [CPU_] |115| 
     538 00000186 8AA9          MOVL      XAR4,ACC              ; [CPU_] |115| 
     539 00000187 7EC4          MOV       *+XAR4[0],AR6         ; [CPU_] |115| 
     540                      .dwpsn  file "../motors/HAL/drv8305.c",line 116,column 2,is_stmt,isa 0
     541 00000188 8A42          MOVL      XAR4,*-SP[2]          ; [CPU_] |116| 
     542 00000189 9A04          MOVB      AL,#4                 ; [CPU_] |116| 
     543              $C$DW$27        .dwtag  DW_TAG_TI_branch
     544                      .dwattr $C$DW$27, DW_AT_low_pc(0x00)
     545                      .dwattr $C$DW$27, DW_AT_name("_DRV8305_SPI_Read")
     546                      .dwattr $C$DW$27, DW_AT_TI_call
     547 0000018a 7640!         LCR       #_DRV8305_SPI_Read    ; [CPU_] |116| 
         0000018b 0000 
     548                      ; call occurs [#_DRV8305_SPI_Read] ; [] |116| 
     549 0000018c CCA9          AND       AL,AL,#0x07e0         ; [CPU_] |116| 
         0000018d 07E0 
     550 0000018e 8F00          MOVL      XAR4,#315             ; [CPU_U] |116| 
         0000018f 013B 
     551 00000190 88A9          MOVZ      AR6,AL                ; [CPU_] |116| 
     552 00000191 A8A9          MOVL      ACC,XAR4              ; [CPU_] |116| 
     553 00000192 0742          ADDL      ACC,*-SP[2]           ; [CPU_] |116| 
     554 00000193 8AA9          MOVL      XAR4,ACC              ; [CPU_] |116| 
     555 00000194 7EC4          MOV       *+XAR4[0],AR6         ; [CPU_] |116| 
     556                      .dwpsn  file "../motors/HAL/drv8305.c",line 117,column 2,is_stmt,isa 0
     557 00000195 8A42          MOVL      XAR4,*-SP[2]          ; [CPU_] |117| 
     558 00000196 9A05          MOVB      AL,#5                 ; [CPU_] |117| 
     559              $C$DW$28        .dwtag  DW_TAG_TI_branch
     560                      .dwattr $C$DW$28, DW_AT_low_pc(0x00)
     561                      .dwattr $C$DW$28, DW_AT_name("_DRV8305_SPI_Write")
     562                      .dwattr $C$DW$28, DW_AT_TI_call
     563 00000197 7640!         LCR       #_DRV8305_SPI_Write   ; [CPU_] |117| 
         00000198 0000 
     564                      ; call occurs [#_DRV8305_SPI_Write] ; [] |117| 
TMS320C2000 Assembler PC v6.4.2 Thu Dec 14 15:26:04 2017

Tools Copyright (c) 1996-2015 Texas Instruments Incorporated
drv8305.asm                                                          PAGE   13

     565 00000199 CCA9          AND       AL,AL,#0x03ff         ; [CPU_] |117| 
         0000019a 03FF 
     566 0000019b 8F00          MOVL      XAR4,#324             ; [CPU_U] |117| 
         0000019c 0144 
     567 0000019d 88A9          MOVZ      AR6,AL                ; [CPU_] |117| 
     568 0000019e A8A9          MOVL      ACC,XAR4              ; [CPU_] |117| 
     569 0000019f 0742          ADDL      ACC,*-SP[2]           ; [CPU_] |117| 
     570 000001a0 8AA9          MOVL      XAR4,ACC              ; [CPU_] |117| 
     571 000001a1 7EC4          MOV       *+XAR4[0],AR6         ; [CPU_] |117| 
     572                      .dwpsn  file "../motors/HAL/drv8305.c",line 118,column 2,is_stmt,isa 0
     573 000001a2 8A42          MOVL      XAR4,*-SP[2]          ; [CPU_] |118| 
     574 000001a3 9A06          MOVB      AL,#6                 ; [CPU_] |118| 
     575              $C$DW$29        .dwtag  DW_TAG_TI_branch
     576                      .dwattr $C$DW$29, DW_AT_low_pc(0x00)
     577                      .dwattr $C$DW$29, DW_AT_name("_DRV8305_SPI_Write")
     578                      .dwattr $C$DW$29, DW_AT_TI_call
     579 000001a4 7640!         LCR       #_DRV8305_SPI_Write   ; [CPU_] |118| 
         000001a5 0000 
     580                      ; call occurs [#_DRV8305_SPI_Write] ; [] |118| 
     581 000001a6 CCA9          AND       AL,AL,#0x03ff         ; [CPU_] |118| 
         000001a7 03FF 
     582 000001a8 8F00          MOVL      XAR4,#325             ; [CPU_U] |118| 
         000001a9 0145 
     583 000001aa 88A9          MOVZ      AR6,AL                ; [CPU_] |118| 
     584 000001ab A8A9          MOVL      ACC,XAR4              ; [CPU_] |118| 
     585 000001ac 0742          ADDL      ACC,*-SP[2]           ; [CPU_] |118| 
     586 000001ad 8AA9          MOVL      XAR4,ACC              ; [CPU_] |118| 
     587 000001ae 7EC4          MOV       *+XAR4[0],AR6         ; [CPU_] |118| 
     588                      .dwpsn  file "../motors/HAL/drv8305.c",line 119,column 2,is_stmt,isa 0
     589 000001af 8A42          MOVL      XAR4,*-SP[2]          ; [CPU_] |119| 
     590 000001b0 9A07          MOVB      AL,#7                 ; [CPU_] |119| 
     591              $C$DW$30        .dwtag  DW_TAG_TI_branch
     592                      .dwattr $C$DW$30, DW_AT_low_pc(0x00)
     593                      .dwattr $C$DW$30, DW_AT_name("_DRV8305_SPI_Write")
     594                      .dwattr $C$DW$30, DW_AT_TI_call
     595 000001b1 7640!         LCR       #_DRV8305_SPI_Write   ; [CPU_] |119| 
         000001b2 0000 
     596                      ; call occurs [#_DRV8305_SPI_Write] ; [] |119| 
     597 000001b3 CCA9          AND       AL,AL,#0x03ff         ; [CPU_] |119| 
         000001b4 03FF 
     598 000001b5 8F00          MOVL      XAR4,#326             ; [CPU_U] |119| 
         000001b6 0146 
     599 000001b7 88A9          MOVZ      AR6,AL                ; [CPU_] |119| 
     600 000001b8 A8A9          MOVL      ACC,XAR4              ; [CPU_] |119| 
     601 000001b9 0742          ADDL      ACC,*-SP[2]           ; [CPU_] |119| 
     602 000001ba 8AA9          MOVL      XAR4,ACC              ; [CPU_] |119| 
     603 000001bb 7EC4          MOV       *+XAR4[0],AR6         ; [CPU_] |119| 
     604                      .dwpsn  file "../motors/HAL/drv8305.c",line 120,column 2,is_stmt,isa 0
     605 000001bc 8A42          MOVL      XAR4,*-SP[2]          ; [CPU_] |120| 
     606 000001bd 9A09          MOVB      AL,#9                 ; [CPU_] |120| 
     607              $C$DW$31        .dwtag  DW_TAG_TI_branch
     608                      .dwattr $C$DW$31, DW_AT_low_pc(0x00)
     609                      .dwattr $C$DW$31, DW_AT_name("_DRV8305_SPI_Write")
     610                      .dwattr $C$DW$31, DW_AT_TI_call
     611 000001be 7640!         LCR       #_DRV8305_SPI_Write   ; [CPU_] |120| 
TMS320C2000 Assembler PC v6.4.2 Thu Dec 14 15:26:04 2017

Tools Copyright (c) 1996-2015 Texas Instruments Incorporated
drv8305.asm                                                          PAGE   14

         000001bf 0000 
     612                      ; call occurs [#_DRV8305_SPI_Write] ; [] |120| 
     613 000001c0 CCA9          AND       AL,AL,#0x07ff         ; [CPU_] |120| 
         000001c1 07FF 
     614 000001c2 8F00          MOVL      XAR4,#327             ; [CPU_U] |120| 
         000001c3 0147 
     615 000001c4 88A9          MOVZ      AR6,AL                ; [CPU_] |120| 
     616 000001c5 A8A9          MOVL      ACC,XAR4              ; [CPU_] |120| 
     617 000001c6 0742          ADDL      ACC,*-SP[2]           ; [CPU_] |120| 
     618 000001c7 8AA9          MOVL      XAR4,ACC              ; [CPU_] |120| 
     619 000001c8 7EC4          MOV       *+XAR4[0],AR6         ; [CPU_] |120| 
     620                      .dwpsn  file "../motors/HAL/drv8305.c",line 121,column 2,is_stmt,isa 0
     621 000001c9 8A42          MOVL      XAR4,*-SP[2]          ; [CPU_] |121| 
     622 000001ca 9A0A          MOVB      AL,#10                ; [CPU_] |121| 
     623              $C$DW$32        .dwtag  DW_TAG_TI_branch
     624                      .dwattr $C$DW$32, DW_AT_low_pc(0x00)
     625                      .dwattr $C$DW$32, DW_AT_name("_DRV8305_SPI_Write")
     626                      .dwattr $C$DW$32, DW_AT_TI_call
     627 000001cb 7640!         LCR       #_DRV8305_SPI_Write   ; [CPU_] |121| 
         000001cc 0000 
     628                      ; call occurs [#_DRV8305_SPI_Write] ; [] |121| 
     629 000001cd CCA9          AND       AL,AL,#0x07ff         ; [CPU_] |121| 
         000001ce 07FF 
     630 000001cf 8F00          MOVL      XAR4,#328             ; [CPU_U] |121| 
         000001d0 0148 
     631 000001d1 88A9          MOVZ      AR6,AL                ; [CPU_] |121| 
     632 000001d2 A8A9          MOVL      ACC,XAR4              ; [CPU_] |121| 
     633 000001d3 0742          ADDL      ACC,*-SP[2]           ; [CPU_] |121| 
     634 000001d4 8AA9          MOVL      XAR4,ACC              ; [CPU_] |121| 
     635 000001d5 7EC4          MOV       *+XAR4[0],AR6         ; [CPU_] |121| 
     636                      .dwpsn  file "../motors/HAL/drv8305.c",line 122,column 2,is_stmt,isa 0
     637 000001d6 8A42          MOVL      XAR4,*-SP[2]          ; [CPU_] |122| 
     638 000001d7 9A0B          MOVB      AL,#11                ; [CPU_] |122| 
     639              $C$DW$33        .dwtag  DW_TAG_TI_branch
     640                      .dwattr $C$DW$33, DW_AT_low_pc(0x00)
     641                      .dwattr $C$DW$33, DW_AT_name("_DRV8305_SPI_Write")
     642                      .dwattr $C$DW$33, DW_AT_TI_call
     643 000001d8 7640!         LCR       #_DRV8305_SPI_Write   ; [CPU_] |122| 
         000001d9 0000 
     644                      ; call occurs [#_DRV8305_SPI_Write] ; [] |122| 
     645 000001da CCA9          AND       AL,AL,#0x031f         ; [CPU_] |122| 
         000001db 031F 
     646 000001dc 8F00          MOVL      XAR4,#329             ; [CPU_U] |122| 
         000001dd 0149 
     647 000001de 88A9          MOVZ      AR6,AL                ; [CPU_] |122| 
     648 000001df A8A9          MOVL      ACC,XAR4              ; [CPU_] |122| 
     649 000001e0 0742          ADDL      ACC,*-SP[2]           ; [CPU_] |122| 
     650 000001e1 8AA9          MOVL      XAR4,ACC              ; [CPU_] |122| 
     651 000001e2 7EC4          MOV       *+XAR4[0],AR6         ; [CPU_] |122| 
     652                      .dwpsn  file "../motors/HAL/drv8305.c",line 123,column 2,is_stmt,isa 0
     653 000001e3 8A42          MOVL      XAR4,*-SP[2]          ; [CPU_] |123| 
     654 000001e4 9A0C          MOVB      AL,#12                ; [CPU_] |123| 
     655              $C$DW$34        .dwtag  DW_TAG_TI_branch
     656                      .dwattr $C$DW$34, DW_AT_low_pc(0x00)
     657                      .dwattr $C$DW$34, DW_AT_name("_DRV8305_SPI_Write")
TMS320C2000 Assembler PC v6.4.2 Thu Dec 14 15:26:04 2017

Tools Copyright (c) 1996-2015 Texas Instruments Incorporated
drv8305.asm                                                          PAGE   15

     658                      .dwattr $C$DW$34, DW_AT_TI_call
     659 000001e5 7640!         LCR       #_DRV8305_SPI_Write   ; [CPU_] |123| 
         000001e6 0000 
     660                      ; call occurs [#_DRV8305_SPI_Write] ; [] |123| 
     661 000001e7 90FF          ANDB      AL,#255               ; [CPU_] |123| 
     662 000001e8 8F00          MOVL      XAR4,#330             ; [CPU_U] |123| 
         000001e9 014A 
     663 000001ea 88A9          MOVZ      AR6,AL                ; [CPU_] |123| 
     664 000001eb A8A9          MOVL      ACC,XAR4              ; [CPU_] |123| 
     665 000001ec 0742          ADDL      ACC,*-SP[2]           ; [CPU_] |123| 
     666 000001ed 8AA9          MOVL      XAR4,ACC              ; [CPU_] |123| 
     667 000001ee 7EC4          MOV       *+XAR4[0],AR6         ; [CPU_] |123| 
     668                      .dwpsn  file "../motors/HAL/drv8305.c",line 128,column 2,is_stmt,isa 0
     669 000001ef 8F00          MOVL      XAR4,#311             ; [CPU_U] |128| 
         000001f0 0137 
     670 000001f1 A8A9          MOVL      ACC,XAR4              ; [CPU_] |128| 
     671 000001f2 0742          ADDL      ACC,*-SP[2]           ; [CPU_] |128| 
     672 000001f3 1E46          MOVL      *-SP[6],ACC           ; [CPU_] |128| 
     673                      .dwpsn  file "../motors/HAL/drv8305.c",line 129,column 2,is_stmt,isa 0
     674 000001f4 8F00          MOVL      XAR4,#324             ; [CPU_U] |129| 
         000001f5 0144 
     675 000001f6 A8A9          MOVL      ACC,XAR4              ; [CPU_] |129| 
     676 000001f7 0742          ADDL      ACC,*-SP[2]           ; [CPU_] |129| 
     677 000001f8 1E48          MOVL      *-SP[8],ACC           ; [CPU_] |129| 
     678                      .dwpsn  file "../motors/HAL/drv8305.c",line 130,column 2,is_stmt,isa 0
     679 000001f9 8F00          MOVL      XAR4,#331             ; [CPU_U] |130| 
         000001fa 014B 
     680 000001fb A8A9          MOVL      ACC,XAR4              ; [CPU_] |130| 
     681 000001fc 0742          ADDL      ACC,*-SP[2]           ; [CPU_] |130| 
     682 000001fd 8AA9          MOVL      XAR4,ACC              ; [CPU_] |130| 
     683 000001fe 2BC4          MOV       *+XAR4[0],#0          ; [CPU_] |130| 
     684                      .dwpsn  file "../motors/HAL/drv8305.c",line 133,column 7,is_stmt,isa 0
     685 000001ff 56BF          MOVB      *-SP[3],#1,UNC        ; [CPU_] |133| 
         00000200 0143 
     686                      .dwpsn  file "../motors/HAL/drv8305.c",line 133,column 17,is_stmt,isa 0
     687 00000201 9243          MOV       AL,*-SP[3]            ; [CPU_] |133| 
     688 00000202 5204          CMPB      AL,#4                 ; [CPU_] |133| 
     689 00000203 56C6          BF        $C$L3,HI              ; [CPU_] |133| 
         00000204 0014 
     690                      ; branchcc occurs ; [] |133| 
     691 00000205       $C$L1:    
     692                      .dwpsn  file "../motors/HAL/drv8305.c",line 135,column 3,is_stmt,isa 0
     693 00000205 8A46          MOVL      XAR4,*-SP[6]          ; [CPU_] |135| 
     694 00000206 5843          MOVZ      AR0,*-SP[3]           ; [CPU_] |135| 
     695 00000207 9294          MOV       AL,*+XAR4[AR0]        ; [CPU_] |135| 
     696 00000208 EC0A          BF        $C$L2,EQ              ; [CPU_] |135| 
     697                      ; branchcc occurs ; [] |135| 
     698                      .dwpsn  file "../motors/HAL/drv8305.c",line 136,column 4,is_stmt,isa 0
     699 00000209 8F00          MOVL      XAR4,#331             ; [CPU_U] |136| 
         0000020a 014B 
     700 0000020b A8A9          MOVL      ACC,XAR4              ; [CPU_] |136| 
     701 0000020c 0742          ADDL      ACC,*-SP[2]           ; [CPU_] |136| 
     702 0000020d 8AA9          MOVL      XAR4,ACC              ; [CPU_] |136| 
     703 0000020e 2D43          MOV       T,*-SP[3]             ; [CPU_] |136| 
     704 0000020f 9A01          MOVB      AL,#1                 ; [CPU_] |136| 
TMS320C2000 Assembler PC v6.4.2 Thu Dec 14 15:26:04 2017

Tools Copyright (c) 1996-2015 Texas Instruments Incorporated
drv8305.asm                                                          PAGE   16

     705 00000210 FF66          LSL       AL,T                  ; [CPU_] |136| 
     706 00000211 98C4          OR        *+XAR4[0],AL          ; [CPU_] |136| 
     707 00000212       $C$L2:    
     708                      .dwpsn  file "../motors/HAL/drv8305.c",line 133,column 29,is_stmt,isa 0
     709 00000212 0A43          INC       *-SP[3]               ; [CPU_] |133| 
     710                      .dwpsn  file "../motors/HAL/drv8305.c",line 133,column 17,is_stmt,isa 0
     711 00000213 9243          MOV       AL,*-SP[3]            ; [CPU_] |133| 
     712 00000214 5204          CMPB      AL,#4                 ; [CPU_] |133| 
     713 00000215 56C9          BF        $C$L1,LOS             ; [CPU_] |133| 
         00000216 FFF0 
     714                      ; branchcc occurs ; [] |133| 
     715 00000217       $C$L3:    
     716                      .dwpsn  file "../motors/HAL/drv8305.c",line 140,column 9,is_stmt,isa 0
     717 00000217 520C          CMPB      AL,#12                ; [CPU_] |140| 
     718 00000218 56C6          BF        $C$L6,HI              ; [CPU_] |140| 
         00000219 001B 
     719                      ; branchcc occurs ; [] |140| 
     720 0000021a       $C$L4:    
     721                      .dwpsn  file "../motors/HAL/drv8305.c",line 142,column 3,is_stmt,isa 0
     722 0000021a 5208          CMPB      AL,#8                 ; [CPU_] |142| 
     723 0000021b EC13          BF        $C$L5,EQ              ; [CPU_] |142| 
     724                      ; branchcc occurs ; [] |142| 
     725                      .dwpsn  file "../motors/HAL/drv8305.c",line 143,column 4,is_stmt,isa 0
     726 0000021c 8A48          MOVL      XAR4,*-SP[8]          ; [CPU_] |143| 
     727 0000021d 8346          MOVL      XAR5,*-SP[6]          ; [CPU_] |143| 
     728 0000021e 5843          MOVZ      AR0,*-SP[3]           ; [CPU_] |143| 
     729 0000021f 9284          MOV       AL,*XAR4++            ; [CPU_] |143| 
     730 00000220 A848          MOVL      *-SP[8],XAR4          ; [CPU_] |143| 
     731 00000221 8895          MOVZ      AR6,*+XAR5[AR0]       ; [CPU_] |143| 
     732 00000222 0EA9          MOVU      ACC,AL                ; [CPU_] |143| 
     733 00000223 0FA6          CMPL      ACC,XAR6              ; [CPU_] |143| 
     734 00000224 EC0A          BF        $C$L5,EQ              ; [CPU_] |143| 
     735                      ; branchcc occurs ; [] |143| 
     736                      .dwpsn  file "../motors/HAL/drv8305.c",line 144,column 5,is_stmt,isa 0
     737 00000225 8F00          MOVL      XAR4,#331             ; [CPU_U] |144| 
         00000226 014B 
     738 00000227 A8A9          MOVL      ACC,XAR4              ; [CPU_] |144| 
     739 00000228 0742          ADDL      ACC,*-SP[2]           ; [CPU_] |144| 
     740 00000229 8AA9          MOVL      XAR4,ACC              ; [CPU_] |144| 
     741 0000022a 2D43          MOV       T,*-SP[3]             ; [CPU_] |144| 
     742 0000022b 9A01          MOVB      AL,#1                 ; [CPU_] |144| 
     743 0000022c FF66          LSL       AL,T                  ; [CPU_] |144| 
     744 0000022d 98C4          OR        *+XAR4[0],AL          ; [CPU_] |144| 
     745 0000022e       $C$L5:    
     746                      .dwpsn  file "../motors/HAL/drv8305.c",line 140,column 21,is_stmt,isa 0
     747 0000022e 0A43          INC       *-SP[3]               ; [CPU_] |140| 
     748                      .dwpsn  file "../motors/HAL/drv8305.c",line 140,column 9,is_stmt,isa 0
     749 0000022f 9243          MOV       AL,*-SP[3]            ; [CPU_] |140| 
     750 00000230 520C          CMPB      AL,#12                ; [CPU_] |140| 
     751 00000231 56C9          BF        $C$L4,LOS             ; [CPU_] |140| 
         00000232 FFE9 
     752                      ; branchcc occurs ; [] |140| 
     753                      .dwpsn  file "../motors/HAL/drv8305.c",line 147,column 2,is_stmt,isa 0
     754 00000233       $C$L6:    
     755                      .dwpsn  file "../motors/HAL/drv8305.c",line 148,column 1,is_stmt,isa 0
TMS320C2000 Assembler PC v6.4.2 Thu Dec 14 15:26:04 2017

Tools Copyright (c) 1996-2015 Texas Instruments Incorporated
drv8305.asm                                                          PAGE   17

     756 00000233 FE88          SUBB      SP,#8                 ; [CPU_U] 
     757                      .dwcfi  cfa_offset, -2
     758              $C$DW$35        .dwtag  DW_TAG_TI_branch
     759                      .dwattr $C$DW$35, DW_AT_low_pc(0x00)
     760                      .dwattr $C$DW$35, DW_AT_TI_return
     761 00000234 0006          LRETR     ; [CPU_] 
     762                      ; return occurs ; [] 
     763                      .dwattr $C$DW$11, DW_AT_TI_end_file("../motors/HAL/drv8305.c")
     764                      .dwattr $C$DW$11, DW_AT_TI_end_line(0x94)
     765                      .dwattr $C$DW$11, DW_AT_TI_end_column(0x01)
     766                      .dwendentry
     767                      .dwendtag $C$DW$11
     768              
     769 00000235               .sect   ".text"
     770                      .clink
     771                      .global _DRV8305_diagnostics
     772              
     773              $C$DW$36        .dwtag  DW_TAG_subprogram, DW_AT_name("DRV8305_diagnostics")
     774                      .dwattr $C$DW$36, DW_AT_low_pc(_DRV8305_diagnostics)
     775                      .dwattr $C$DW$36, DW_AT_high_pc(0x00)
     776                      .dwattr $C$DW$36, DW_AT_TI_symbol_name("_DRV8305_diagnostics")
     777                      .dwattr $C$DW$36, DW_AT_external
     778                      .dwattr $C$DW$36, DW_AT_TI_begin_file("../motors/HAL/drv8305.c")
     779                      .dwattr $C$DW$36, DW_AT_TI_begin_line(0x9b)
     780                      .dwattr $C$DW$36, DW_AT_TI_begin_column(0x06)
     781                      .dwattr $C$DW$36, DW_AT_TI_max_frame_size(-4)
     782                      .dwpsn  file "../motors/HAL/drv8305.c",line 156,column 1,is_stmt,address _DRV8305_diagnostics,isa 0
     783              
     784                      .dwfde $C$DW$CIE, _DRV8305_diagnostics
     785              $C$DW$37        .dwtag  DW_TAG_formal_parameter, DW_AT_name("motor")
     786                      .dwattr $C$DW$37, DW_AT_TI_symbol_name("_motor")
     787                      .dwattr $C$DW$37, DW_AT_type(*$C$DW$T$281)
     788                      .dwattr $C$DW$37, DW_AT_location[DW_OP_reg12]
     789              
     790              ;***************************************************************
     791              ;* FNAME: _DRV8305_diagnostics          FR SIZE:   2           *
     792              ;*                                                             *
     793              ;* FUNCTION ENVIRONMENT                                        *
     794              ;*                                                             *
     795              ;* FUNCTION PROPERTIES                                         *
     796              ;*                            0 Parameter,  2 Auto,  0 SOE     *
     797              ;***************************************************************
     798              
     799 00000235       _DRV8305_diagnostics:
     800                      .dwcfi  cfa_offset, -2
     801                      .dwcfi  save_reg_to_mem, 26, 0
     802 00000235 FE02          ADDB      SP,#2                 ; [CPU_U] 
     803                      .dwcfi  cfa_offset, -4
     804              $C$DW$38        .dwtag  DW_TAG_variable, DW_AT_name("motor")
     805                      .dwattr $C$DW$38, DW_AT_TI_symbol_name("_motor")
     806                      .dwattr $C$DW$38, DW_AT_type(*$C$DW$T$281)
     807                      .dwattr $C$DW$38, DW_AT_location[DW_OP_breg20 -2]
     808 00000236 A842          MOVL      *-SP[2],XAR4          ; [CPU_] |156| 
     809                      .dwpsn  file "../motors/HAL/drv8305.c",line 157,column 2,is_stmt,isa 0
     810 00000237 9A01          MOVB      AL,#1                 ; [CPU_] |157| 
TMS320C2000 Assembler PC v6.4.2 Thu Dec 14 15:26:04 2017

Tools Copyright (c) 1996-2015 Texas Instruments Incorporated
drv8305.asm                                                          PAGE   18

     811              $C$DW$39        .dwtag  DW_TAG_TI_branch
     812                      .dwattr $C$DW$39, DW_AT_low_pc(0x00)
     813                      .dwattr $C$DW$39, DW_AT_name("_DRV8305_SPI_Read")
     814                      .dwattr $C$DW$39, DW_AT_TI_call
     815 00000238 7640!         LCR       #_DRV8305_SPI_Read    ; [CPU_] |157| 
         00000239 0000 
     816                      ; call occurs [#_DRV8305_SPI_Read] ; [] |157| 
     817 0000023a CCA9          AND       AL,AL,#0x05ff         ; [CPU_] |157| 
         0000023b 05FF 
     818 0000023c 8F00          MOVL      XAR4,#312             ; [CPU_U] |157| 
         0000023d 0138 
     819 0000023e 88A9          MOVZ      AR6,AL                ; [CPU_] |157| 
     820 0000023f A8A9          MOVL      ACC,XAR4              ; [CPU_] |157| 
     821 00000240 0742          ADDL      ACC,*-SP[2]           ; [CPU_] |157| 
     822 00000241 8AA9          MOVL      XAR4,ACC              ; [CPU_] |157| 
     823 00000242 7EC4          MOV       *+XAR4[0],AR6         ; [CPU_] |157| 
     824                      .dwpsn  file "../motors/HAL/drv8305.c",line 158,column 2,is_stmt,isa 0
     825 00000243 8A42          MOVL      XAR4,*-SP[2]          ; [CPU_] |158| 
     826 00000244 9A02          MOVB      AL,#2                 ; [CPU_] |158| 
     827              $C$DW$40        .dwtag  DW_TAG_TI_branch
     828                      .dwattr $C$DW$40, DW_AT_low_pc(0x00)
     829                      .dwattr $C$DW$40, DW_AT_name("_DRV8305_SPI_Read")
     830                      .dwattr $C$DW$40, DW_AT_TI_call
     831 00000245 7640!         LCR       #_DRV8305_SPI_Read    ; [CPU_] |158| 
         00000246 0000 
     832                      ; call occurs [#_DRV8305_SPI_Read] ; [] |158| 
     833 00000247 CCA9          AND       AL,AL,#0x07e7         ; [CPU_] |158| 
         00000248 07E7 
     834 00000249 8F00          MOVL      XAR4,#313             ; [CPU_U] |158| 
         0000024a 0139 
     835 0000024b 88A9          MOVZ      AR6,AL                ; [CPU_] |158| 
     836 0000024c A8A9          MOVL      ACC,XAR4              ; [CPU_] |158| 
     837 0000024d 0742          ADDL      ACC,*-SP[2]           ; [CPU_] |158| 
     838 0000024e 8AA9          MOVL      XAR4,ACC              ; [CPU_] |158| 
     839 0000024f 7EC4          MOV       *+XAR4[0],AR6         ; [CPU_] |158| 
     840                      .dwpsn  file "../motors/HAL/drv8305.c",line 159,column 2,is_stmt,isa 0
     841 00000250 8A42          MOVL      XAR4,*-SP[2]          ; [CPU_] |159| 
     842 00000251 9A03          MOVB      AL,#3                 ; [CPU_] |159| 
     843              $C$DW$41        .dwtag  DW_TAG_TI_branch
     844                      .dwattr $C$DW$41, DW_AT_low_pc(0x00)
     845                      .dwattr $C$DW$41, DW_AT_name("_DRV8305_SPI_Read")
     846                      .dwattr $C$DW$41, DW_AT_TI_call
     847 00000252 7640!         LCR       #_DRV8305_SPI_Read    ; [CPU_] |159| 
         00000253 0000 
     848                      ; call occurs [#_DRV8305_SPI_Read] ; [] |159| 
     849 00000254 CCA9          AND       AL,AL,#0x0777         ; [CPU_] |159| 
         00000255 0777 
     850 00000256 8F00          MOVL      XAR4,#314             ; [CPU_U] |159| 
         00000257 013A 
     851 00000258 88A9          MOVZ      AR6,AL                ; [CPU_] |159| 
     852 00000259 A8A9          MOVL      ACC,XAR4              ; [CPU_] |159| 
     853 0000025a 0742          ADDL      ACC,*-SP[2]           ; [CPU_] |159| 
     854 0000025b 8AA9          MOVL      XAR4,ACC              ; [CPU_] |159| 
     855 0000025c 7EC4          MOV       *+XAR4[0],AR6         ; [CPU_] |159| 
     856                      .dwpsn  file "../motors/HAL/drv8305.c",line 160,column 2,is_stmt,isa 0
TMS320C2000 Assembler PC v6.4.2 Thu Dec 14 15:26:04 2017

Tools Copyright (c) 1996-2015 Texas Instruments Incorporated
drv8305.asm                                                          PAGE   19

     857 0000025d 8A42          MOVL      XAR4,*-SP[2]          ; [CPU_] |160| 
     858 0000025e 9A04          MOVB      AL,#4                 ; [CPU_] |160| 
     859              $C$DW$42        .dwtag  DW_TAG_TI_branch
     860                      .dwattr $C$DW$42, DW_AT_low_pc(0x00)
     861                      .dwattr $C$DW$42, DW_AT_name("_DRV8305_SPI_Read")
     862                      .dwattr $C$DW$42, DW_AT_TI_call
     863 0000025f 7640!         LCR       #_DRV8305_SPI_Read    ; [CPU_] |160| 
         00000260 0000 
     864                      ; call occurs [#_DRV8305_SPI_Read] ; [] |160| 
     865 00000261 CCA9          AND       AL,AL,#0x07e0         ; [CPU_] |160| 
         00000262 07E0 
     866 00000263 8F00          MOVL      XAR4,#315             ; [CPU_U] |160| 
         00000264 013B 
     867 00000265 88A9          MOVZ      AR6,AL                ; [CPU_] |160| 
     868 00000266 A8A9          MOVL      ACC,XAR4              ; [CPU_] |160| 
     869 00000267 0742          ADDL      ACC,*-SP[2]           ; [CPU_] |160| 
     870 00000268 8AA9          MOVL      XAR4,ACC              ; [CPU_] |160| 
     871 00000269 7EC4          MOV       *+XAR4[0],AR6         ; [CPU_] |160| 
     872                      .dwpsn  file "../motors/HAL/drv8305.c",line 162,column 2,is_stmt,isa 0
     873                      .dwpsn  file "../motors/HAL/drv8305.c",line 167,column 2,is_stmt,isa 0
     874                      .dwpsn  file "../motors/HAL/drv8305.c",line 172,column 2,is_stmt,isa 0
     875                      .dwpsn  file "../motors/HAL/drv8305.c",line 177,column 2,is_stmt,isa 0
     876 0000026a 8F00          MOVL      XAR4,#315             ; [CPU_U] |177| 
         0000026b 013B 
     877 0000026c A8A9          MOVL      ACC,XAR4              ; [CPU_] |177| 
     878 0000026d 0742          ADDL      ACC,*-SP[2]           ; [CPU_] |177| 
     879 0000026e 8AA9          MOVL      XAR4,ACC              ; [CPU_] |177| 
     880 0000026f 92C4          MOV       AL,*+XAR4[0]          ; [CPU_] |177| 
     881 00000270 ED01          BF        $C$L7,NEQ             ; [CPU_] |177| 
     882                      ; branchcc occurs ; [] |177| 
     883                      .dwpsn  file "../motors/HAL/drv8305.c",line 182,column 2,is_stmt,isa 0
     884 00000271       $C$L7:    
     885                      .dwpsn  file "../motors/HAL/drv8305.c",line 183,column 1,is_stmt,isa 0
     886 00000271 FE82          SUBB      SP,#2                 ; [CPU_U] 
     887                      .dwcfi  cfa_offset, -2
     888              $C$DW$43        .dwtag  DW_TAG_TI_branch
     889                      .dwattr $C$DW$43, DW_AT_low_pc(0x00)
     890                      .dwattr $C$DW$43, DW_AT_TI_return
     891 00000272 0006          LRETR     ; [CPU_] 
     892                      ; return occurs ; [] 
     893                      .dwattr $C$DW$36, DW_AT_TI_end_file("../motors/HAL/drv8305.c")
     894                      .dwattr $C$DW$36, DW_AT_TI_end_line(0xb7)
     895                      .dwattr $C$DW$36, DW_AT_TI_end_column(0x01)
     896                      .dwendentry
     897                      .dwendtag $C$DW$36
     898              
     899              ;**************************************************************
     900              ;* UNDEFINED EXTERNAL REFERENCES                              *
     901              ;**************************************************************
     902                      .global _DRV8305_SPI_Read
     903                      .global _DRV8305_SPI_Write
     904              
     905              ;***************************************************************
     906              ;* TYPE INFORMATION                                            *
     907              ;***************************************************************
TMS320C2000 Assembler PC v6.4.2 Thu Dec 14 15:26:04 2017

Tools Copyright (c) 1996-2015 Texas Instruments Incorporated
drv8305.asm                                                          PAGE   20

     908              
     909              $C$DW$T$20      .dwtag  DW_TAG_structure_type
     910                      .dwattr $C$DW$T$20, DW_AT_byte_size(0x0a)
     911              $C$DW$44        .dwtag  DW_TAG_member
     912                      .dwattr $C$DW$44, DW_AT_type(*$C$DW$T$19)
     913                      .dwattr $C$DW$44, DW_AT_name("As")
     914                      .dwattr $C$DW$44, DW_AT_TI_symbol_name("_As")
     915                      .dwattr $C$DW$44, DW_AT_data_member_location[DW_OP_plus_uconst 0x0]
     916                      .dwattr $C$DW$44, DW_AT_accessibility(DW_ACCESS_public)
     917              $C$DW$45        .dwtag  DW_TAG_member
     918                      .dwattr $C$DW$45, DW_AT_type(*$C$DW$T$19)
     919                      .dwattr $C$DW$45, DW_AT_name("Bs")
     920                      .dwattr $C$DW$45, DW_AT_TI_symbol_name("_Bs")
     921                      .dwattr $C$DW$45, DW_AT_data_member_location[DW_OP_plus_uconst 0x2]
     922                      .dwattr $C$DW$45, DW_AT_accessibility(DW_ACCESS_public)
     923              $C$DW$46        .dwtag  DW_TAG_member
     924                      .dwattr $C$DW$46, DW_AT_type(*$C$DW$T$19)
     925                      .dwattr $C$DW$46, DW_AT_name("Cs")
     926                      .dwattr $C$DW$46, DW_AT_TI_symbol_name("_Cs")
     927                      .dwattr $C$DW$46, DW_AT_data_member_location[DW_OP_plus_uconst 0x4]
     928                      .dwattr $C$DW$46, DW_AT_accessibility(DW_ACCESS_public)
     929              $C$DW$47        .dwtag  DW_TAG_member
     930                      .dwattr $C$DW$47, DW_AT_type(*$C$DW$T$19)
     931                      .dwattr $C$DW$47, DW_AT_name("Alpha")
     932                      .dwattr $C$DW$47, DW_AT_TI_symbol_name("_Alpha")
     933                      .dwattr $C$DW$47, DW_AT_data_member_location[DW_OP_plus_uconst 0x6]
     934                      .dwattr $C$DW$47, DW_AT_accessibility(DW_ACCESS_public)
     935              $C$DW$48        .dwtag  DW_TAG_member
     936                      .dwattr $C$DW$48, DW_AT_type(*$C$DW$T$19)
     937                      .dwattr $C$DW$48, DW_AT_name("Beta")
     938                      .dwattr $C$DW$48, DW_AT_TI_symbol_name("_Beta")
     939                      .dwattr $C$DW$48, DW_AT_data_member_location[DW_OP_plus_uconst 0x8]
     940                      .dwattr $C$DW$48, DW_AT_accessibility(DW_ACCESS_public)
     941                      .dwendtag $C$DW$T$20
     942              
     943              $C$DW$T$65      .dwtag  DW_TAG_typedef, DW_AT_name("CLARKE")
     944                      .dwattr $C$DW$T$65, DW_AT_type(*$C$DW$T$20)
     945                      .dwattr $C$DW$T$65, DW_AT_language(DW_LANG_C)
     946              
     947              $C$DW$T$21      .dwtag  DW_TAG_structure_type
     948                      .dwattr $C$DW$T$21, DW_AT_byte_size(0x0e)
     949              $C$DW$49        .dwtag  DW_TAG_member
     950                      .dwattr $C$DW$49, DW_AT_type(*$C$DW$T$19)
     951                      .dwattr $C$DW$49, DW_AT_name("Alpha")
     952                      .dwattr $C$DW$49, DW_AT_TI_symbol_name("_Alpha")
     953                      .dwattr $C$DW$49, DW_AT_data_member_location[DW_OP_plus_uconst 0x0]
     954                      .dwattr $C$DW$49, DW_AT_accessibility(DW_ACCESS_public)
     955              $C$DW$50        .dwtag  DW_TAG_member
     956                      .dwattr $C$DW$50, DW_AT_type(*$C$DW$T$19)
     957                      .dwattr $C$DW$50, DW_AT_name("Beta")
     958                      .dwattr $C$DW$50, DW_AT_TI_symbol_name("_Beta")
     959                      .dwattr $C$DW$50, DW_AT_data_member_location[DW_OP_plus_uconst 0x2]
     960                      .dwattr $C$DW$50, DW_AT_accessibility(DW_ACCESS_public)
     961              $C$DW$51        .dwtag  DW_TAG_member
     962                      .dwattr $C$DW$51, DW_AT_type(*$C$DW$T$19)
TMS320C2000 Assembler PC v6.4.2 Thu Dec 14 15:26:04 2017

Tools Copyright (c) 1996-2015 Texas Instruments Incorporated
drv8305.asm                                                          PAGE   21

     963                      .dwattr $C$DW$51, DW_AT_name("Angle")
     964                      .dwattr $C$DW$51, DW_AT_TI_symbol_name("_Angle")
     965                      .dwattr $C$DW$51, DW_AT_data_member_location[DW_OP_plus_uconst 0x4]
     966                      .dwattr $C$DW$51, DW_AT_accessibility(DW_ACCESS_public)
     967              $C$DW$52        .dwtag  DW_TAG_member
     968                      .dwattr $C$DW$52, DW_AT_type(*$C$DW$T$19)
     969                      .dwattr $C$DW$52, DW_AT_name("Ds")
     970                      .dwattr $C$DW$52, DW_AT_TI_symbol_name("_Ds")
     971                      .dwattr $C$DW$52, DW_AT_data_member_location[DW_OP_plus_uconst 0x6]
     972                      .dwattr $C$DW$52, DW_AT_accessibility(DW_ACCESS_public)
     973              $C$DW$53        .dwtag  DW_TAG_member
     974                      .dwattr $C$DW$53, DW_AT_type(*$C$DW$T$19)
     975                      .dwattr $C$DW$53, DW_AT_name("Qs")
     976                      .dwattr $C$DW$53, DW_AT_TI_symbol_name("_Qs")
     977                      .dwattr $C$DW$53, DW_AT_data_member_location[DW_OP_plus_uconst 0x8]
     978                      .dwattr $C$DW$53, DW_AT_accessibility(DW_ACCESS_public)
     979              $C$DW$54        .dwtag  DW_TAG_member
     980                      .dwattr $C$DW$54, DW_AT_type(*$C$DW$T$19)
     981                      .dwattr $C$DW$54, DW_AT_name("Sine")
     982                      .dwattr $C$DW$54, DW_AT_TI_symbol_name("_Sine")
     983                      .dwattr $C$DW$54, DW_AT_data_member_location[DW_OP_plus_uconst 0xa]
     984                      .dwattr $C$DW$54, DW_AT_accessibility(DW_ACCESS_public)
     985              $C$DW$55        .dwtag  DW_TAG_member
     986                      .dwattr $C$DW$55, DW_AT_type(*$C$DW$T$19)
     987                      .dwattr $C$DW$55, DW_AT_name("Cosine")
     988                      .dwattr $C$DW$55, DW_AT_TI_symbol_name("_Cosine")
     989                      .dwattr $C$DW$55, DW_AT_data_member_location[DW_OP_plus_uconst 0xc]
     990                      .dwattr $C$DW$55, DW_AT_accessibility(DW_ACCESS_public)
     991                      .dwendtag $C$DW$T$21
     992              
     993              $C$DW$T$66      .dwtag  DW_TAG_typedef, DW_AT_name("PARK")
     994                      .dwattr $C$DW$T$66, DW_AT_type(*$C$DW$T$21)
     995                      .dwattr $C$DW$T$66, DW_AT_language(DW_LANG_C)
     996              
     997              $C$DW$T$22      .dwtag  DW_TAG_structure_type
     998                      .dwattr $C$DW$T$22, DW_AT_byte_size(0x0e)
     999              $C$DW$56        .dwtag  DW_TAG_member
    1000                      .dwattr $C$DW$56, DW_AT_type(*$C$DW$T$19)
    1001                      .dwattr $C$DW$56, DW_AT_name("Alpha")
    1002                      .dwattr $C$DW$56, DW_AT_TI_symbol_name("_Alpha")
    1003                      .dwattr $C$DW$56, DW_AT_data_member_location[DW_OP_plus_uconst 0x0]
    1004                      .dwattr $C$DW$56, DW_AT_accessibility(DW_ACCESS_public)
    1005              $C$DW$57        .dwtag  DW_TAG_member
    1006                      .dwattr $C$DW$57, DW_AT_type(*$C$DW$T$19)
    1007                      .dwattr $C$DW$57, DW_AT_name("Beta")
    1008                      .dwattr $C$DW$57, DW_AT_TI_symbol_name("_Beta")
    1009                      .dwattr $C$DW$57, DW_AT_data_member_location[DW_OP_plus_uconst 0x2]
    1010                      .dwattr $C$DW$57, DW_AT_accessibility(DW_ACCESS_public)
    1011              $C$DW$58        .dwtag  DW_TAG_member
    1012                      .dwattr $C$DW$58, DW_AT_type(*$C$DW$T$19)
    1013                      .dwattr $C$DW$58, DW_AT_name("Angle")
    1014                      .dwattr $C$DW$58, DW_AT_TI_symbol_name("_Angle")
    1015                      .dwattr $C$DW$58, DW_AT_data_member_location[DW_OP_plus_uconst 0x4]
    1016                      .dwattr $C$DW$58, DW_AT_accessibility(DW_ACCESS_public)
    1017              $C$DW$59        .dwtag  DW_TAG_member
TMS320C2000 Assembler PC v6.4.2 Thu Dec 14 15:26:04 2017

Tools Copyright (c) 1996-2015 Texas Instruments Incorporated
drv8305.asm                                                          PAGE   22

    1018                      .dwattr $C$DW$59, DW_AT_type(*$C$DW$T$19)
    1019                      .dwattr $C$DW$59, DW_AT_name("Ds")
    1020                      .dwattr $C$DW$59, DW_AT_TI_symbol_name("_Ds")
    1021                      .dwattr $C$DW$59, DW_AT_data_member_location[DW_OP_plus_uconst 0x6]
    1022                      .dwattr $C$DW$59, DW_AT_accessibility(DW_ACCESS_public)
    1023              $C$DW$60        .dwtag  DW_TAG_member
    1024                      .dwattr $C$DW$60, DW_AT_type(*$C$DW$T$19)
    1025                      .dwattr $C$DW$60, DW_AT_name("Qs")
    1026                      .dwattr $C$DW$60, DW_AT_TI_symbol_name("_Qs")
    1027                      .dwattr $C$DW$60, DW_AT_data_member_location[DW_OP_plus_uconst 0x8]
    1028                      .dwattr $C$DW$60, DW_AT_accessibility(DW_ACCESS_public)
    1029              $C$DW$61        .dwtag  DW_TAG_member
    1030                      .dwattr $C$DW$61, DW_AT_type(*$C$DW$T$19)
    1031                      .dwattr $C$DW$61, DW_AT_name("Sine")
    1032                      .dwattr $C$DW$61, DW_AT_TI_symbol_name("_Sine")
    1033                      .dwattr $C$DW$61, DW_AT_data_member_location[DW_OP_plus_uconst 0xa]
    1034                      .dwattr $C$DW$61, DW_AT_accessibility(DW_ACCESS_public)
    1035              $C$DW$62        .dwtag  DW_TAG_member
    1036                      .dwattr $C$DW$62, DW_AT_type(*$C$DW$T$19)
    1037                      .dwattr $C$DW$62, DW_AT_name("Cosine")
    1038                      .dwattr $C$DW$62, DW_AT_TI_symbol_name("_Cosine")
    1039                      .dwattr $C$DW$62, DW_AT_data_member_location[DW_OP_plus_uconst 0xc]
    1040                      .dwattr $C$DW$62, DW_AT_accessibility(DW_ACCESS_public)
    1041                      .dwendtag $C$DW$T$22
    1042              
    1043              $C$DW$T$67      .dwtag  DW_TAG_typedef, DW_AT_name("IPARK")
    1044                      .dwattr $C$DW$T$67, DW_AT_type(*$C$DW$T$22)
    1045                      .dwattr $C$DW$T$67, DW_AT_language(DW_LANG_C)
    1046              
    1047              $C$DW$T$23      .dwtag  DW_TAG_structure_type
    1048                      .dwattr $C$DW$T$23, DW_AT_byte_size(0x18)
    1049              $C$DW$63        .dwtag  DW_TAG_member
    1050                      .dwattr $C$DW$63, DW_AT_type(*$C$DW$T$19)
    1051                      .dwattr $C$DW$63, DW_AT_name("Ref")
    1052                      .dwattr $C$DW$63, DW_AT_TI_symbol_name("_Ref")
    1053                      .dwattr $C$DW$63, DW_AT_data_member_location[DW_OP_plus_uconst 0x0]
    1054                      .dwattr $C$DW$63, DW_AT_accessibility(DW_ACCESS_public)
    1055              $C$DW$64        .dwtag  DW_TAG_member
    1056                      .dwattr $C$DW$64, DW_AT_type(*$C$DW$T$19)
    1057                      .dwattr $C$DW$64, DW_AT_name("Fbk")
    1058                      .dwattr $C$DW$64, DW_AT_TI_symbol_name("_Fbk")
    1059                      .dwattr $C$DW$64, DW_AT_data_member_location[DW_OP_plus_uconst 0x2]
    1060                      .dwattr $C$DW$64, DW_AT_accessibility(DW_ACCESS_public)
    1061              $C$DW$65        .dwtag  DW_TAG_member
    1062                      .dwattr $C$DW$65, DW_AT_type(*$C$DW$T$19)
    1063                      .dwattr $C$DW$65, DW_AT_name("Out")
    1064                      .dwattr $C$DW$65, DW_AT_TI_symbol_name("_Out")
    1065                      .dwattr $C$DW$65, DW_AT_data_member_location[DW_OP_plus_uconst 0x4]
    1066                      .dwattr $C$DW$65, DW_AT_accessibility(DW_ACCESS_public)
    1067              $C$DW$66        .dwtag  DW_TAG_member
    1068                      .dwattr $C$DW$66, DW_AT_type(*$C$DW$T$19)
    1069                      .dwattr $C$DW$66, DW_AT_name("Kp")
    1070                      .dwattr $C$DW$66, DW_AT_TI_symbol_name("_Kp")
    1071                      .dwattr $C$DW$66, DW_AT_data_member_location[DW_OP_plus_uconst 0x6]
    1072                      .dwattr $C$DW$66, DW_AT_accessibility(DW_ACCESS_public)
TMS320C2000 Assembler PC v6.4.2 Thu Dec 14 15:26:04 2017

Tools Copyright (c) 1996-2015 Texas Instruments Incorporated
drv8305.asm                                                          PAGE   23

    1073              $C$DW$67        .dwtag  DW_TAG_member
    1074                      .dwattr $C$DW$67, DW_AT_type(*$C$DW$T$19)
    1075                      .dwattr $C$DW$67, DW_AT_name("Ki")
    1076                      .dwattr $C$DW$67, DW_AT_TI_symbol_name("_Ki")
    1077                      .dwattr $C$DW$67, DW_AT_data_member_location[DW_OP_plus_uconst 0x8]
    1078                      .dwattr $C$DW$67, DW_AT_accessibility(DW_ACCESS_public)
    1079              $C$DW$68        .dwtag  DW_TAG_member
    1080                      .dwattr $C$DW$68, DW_AT_type(*$C$DW$T$19)
    1081                      .dwattr $C$DW$68, DW_AT_name("Umax")
    1082                      .dwattr $C$DW$68, DW_AT_TI_symbol_name("_Umax")
    1083                      .dwattr $C$DW$68, DW_AT_data_member_location[DW_OP_plus_uconst 0xa]
    1084                      .dwattr $C$DW$68, DW_AT_accessibility(DW_ACCESS_public)
    1085              $C$DW$69        .dwtag  DW_TAG_member
    1086                      .dwattr $C$DW$69, DW_AT_type(*$C$DW$T$19)
    1087                      .dwattr $C$DW$69, DW_AT_name("Umin")
    1088                      .dwattr $C$DW$69, DW_AT_TI_symbol_name("_Umin")
    1089                      .dwattr $C$DW$69, DW_AT_data_member_location[DW_OP_plus_uconst 0xc]
    1090                      .dwattr $C$DW$69, DW_AT_accessibility(DW_ACCESS_public)
    1091              $C$DW$70        .dwtag  DW_TAG_member
    1092                      .dwattr $C$DW$70, DW_AT_type(*$C$DW$T$19)
    1093                      .dwattr $C$DW$70, DW_AT_name("up")
    1094                      .dwattr $C$DW$70, DW_AT_TI_symbol_name("_up")
    1095                      .dwattr $C$DW$70, DW_AT_data_member_location[DW_OP_plus_uconst 0xe]
    1096                      .dwattr $C$DW$70, DW_AT_accessibility(DW_ACCESS_public)
    1097              $C$DW$71        .dwtag  DW_TAG_member
    1098                      .dwattr $C$DW$71, DW_AT_type(*$C$DW$T$19)
    1099                      .dwattr $C$DW$71, DW_AT_name("ui")
    1100                      .dwattr $C$DW$71, DW_AT_TI_symbol_name("_ui")
    1101                      .dwattr $C$DW$71, DW_AT_data_member_location[DW_OP_plus_uconst 0x10]
    1102                      .dwattr $C$DW$71, DW_AT_accessibility(DW_ACCESS_public)
    1103              $C$DW$72        .dwtag  DW_TAG_member
    1104                      .dwattr $C$DW$72, DW_AT_type(*$C$DW$T$19)
    1105                      .dwattr $C$DW$72, DW_AT_name("v1")
    1106                      .dwattr $C$DW$72, DW_AT_TI_symbol_name("_v1")
    1107                      .dwattr $C$DW$72, DW_AT_data_member_location[DW_OP_plus_uconst 0x12]
    1108                      .dwattr $C$DW$72, DW_AT_accessibility(DW_ACCESS_public)
    1109              $C$DW$73        .dwtag  DW_TAG_member
    1110                      .dwattr $C$DW$73, DW_AT_type(*$C$DW$T$19)
    1111                      .dwattr $C$DW$73, DW_AT_name("i1")
    1112                      .dwattr $C$DW$73, DW_AT_TI_symbol_name("_i1")
    1113                      .dwattr $C$DW$73, DW_AT_data_member_location[DW_OP_plus_uconst 0x14]
    1114                      .dwattr $C$DW$73, DW_AT_accessibility(DW_ACCESS_public)
    1115              $C$DW$74        .dwtag  DW_TAG_member
    1116                      .dwattr $C$DW$74, DW_AT_type(*$C$DW$T$19)
    1117                      .dwattr $C$DW$74, DW_AT_name("w1")
    1118                      .dwattr $C$DW$74, DW_AT_TI_symbol_name("_w1")
    1119                      .dwattr $C$DW$74, DW_AT_data_member_location[DW_OP_plus_uconst 0x16]
    1120                      .dwattr $C$DW$74, DW_AT_accessibility(DW_ACCESS_public)
    1121                      .dwendtag $C$DW$T$23
    1122              
    1123              $C$DW$T$68      .dwtag  DW_TAG_typedef, DW_AT_name("PI_CONTROLLER")
    1124                      .dwattr $C$DW$T$68, DW_AT_type(*$C$DW$T$23)
    1125                      .dwattr $C$DW$T$68, DW_AT_language(DW_LANG_C)
    1126              
    1127              $C$DW$T$24      .dwtag  DW_TAG_structure_type
TMS320C2000 Assembler PC v6.4.2 Thu Dec 14 15:26:04 2017

Tools Copyright (c) 1996-2015 Texas Instruments Incorporated
drv8305.asm                                                          PAGE   24

    1128                      .dwattr $C$DW$T$24, DW_AT_byte_size(0x0a)
    1129              $C$DW$75        .dwtag  DW_TAG_member
    1130                      .dwattr $C$DW$75, DW_AT_type(*$C$DW$T$19)
    1131                      .dwattr $C$DW$75, DW_AT_name("Ref")
    1132                      .dwattr $C$DW$75, DW_AT_TI_symbol_name("_Ref")
    1133                      .dwattr $C$DW$75, DW_AT_data_member_location[DW_OP_plus_uconst 0x0]
    1134                      .dwattr $C$DW$75, DW_AT_accessibility(DW_ACCESS_public)
    1135              $C$DW$76        .dwtag  DW_TAG_member
    1136                      .dwattr $C$DW$76, DW_AT_type(*$C$DW$T$19)
    1137                      .dwattr $C$DW$76, DW_AT_name("Fbk")
    1138                      .dwattr $C$DW$76, DW_AT_TI_symbol_name("_Fbk")
    1139                      .dwattr $C$DW$76, DW_AT_data_member_location[DW_OP_plus_uconst 0x2]
    1140                      .dwattr $C$DW$76, DW_AT_accessibility(DW_ACCESS_public)
    1141              $C$DW$77        .dwtag  DW_TAG_member
    1142                      .dwattr $C$DW$77, DW_AT_type(*$C$DW$T$19)
    1143                      .dwattr $C$DW$77, DW_AT_name("Out")
    1144                      .dwattr $C$DW$77, DW_AT_TI_symbol_name("_Out")
    1145                      .dwattr $C$DW$77, DW_AT_data_member_location[DW_OP_plus_uconst 0x4]
    1146                      .dwattr $C$DW$77, DW_AT_accessibility(DW_ACCESS_public)
    1147              $C$DW$78        .dwtag  DW_TAG_member
    1148                      .dwattr $C$DW$78, DW_AT_type(*$C$DW$T$19)
    1149                      .dwattr $C$DW$78, DW_AT_name("c1")
    1150                      .dwattr $C$DW$78, DW_AT_TI_symbol_name("_c1")
    1151                      .dwattr $C$DW$78, DW_AT_data_member_location[DW_OP_plus_uconst 0x6]
    1152                      .dwattr $C$DW$78, DW_AT_accessibility(DW_ACCESS_public)
    1153              $C$DW$79        .dwtag  DW_TAG_member
    1154                      .dwattr $C$DW$79, DW_AT_type(*$C$DW$T$19)
    1155                      .dwattr $C$DW$79, DW_AT_name("c2")
    1156                      .dwattr $C$DW$79, DW_AT_TI_symbol_name("_c2")
    1157                      .dwattr $C$DW$79, DW_AT_data_member_location[DW_OP_plus_uconst 0x8]
    1158                      .dwattr $C$DW$79, DW_AT_accessibility(DW_ACCESS_public)
    1159                      .dwendtag $C$DW$T$24
    1160              
    1161              $C$DW$T$27      .dwtag  DW_TAG_typedef, DW_AT_name("PID_TERMINALS")
    1162                      .dwattr $C$DW$T$27, DW_AT_type(*$C$DW$T$24)
    1163                      .dwattr $C$DW$T$27, DW_AT_language(DW_LANG_C)
    1164              
    1165              $C$DW$T$25      .dwtag  DW_TAG_structure_type
    1166                      .dwattr $C$DW$T$25, DW_AT_byte_size(0x0e)
    1167              $C$DW$80        .dwtag  DW_TAG_member
    1168                      .dwattr $C$DW$80, DW_AT_type(*$C$DW$T$19)
    1169                      .dwattr $C$DW$80, DW_AT_name("Kr")
    1170                      .dwattr $C$DW$80, DW_AT_TI_symbol_name("_Kr")
    1171                      .dwattr $C$DW$80, DW_AT_data_member_location[DW_OP_plus_uconst 0x0]
    1172                      .dwattr $C$DW$80, DW_AT_accessibility(DW_ACCESS_public)
    1173              $C$DW$81        .dwtag  DW_TAG_member
    1174                      .dwattr $C$DW$81, DW_AT_type(*$C$DW$T$19)
    1175                      .dwattr $C$DW$81, DW_AT_name("Kp")
    1176                      .dwattr $C$DW$81, DW_AT_TI_symbol_name("_Kp")
    1177                      .dwattr $C$DW$81, DW_AT_data_member_location[DW_OP_plus_uconst 0x2]
    1178                      .dwattr $C$DW$81, DW_AT_accessibility(DW_ACCESS_public)
    1179              $C$DW$82        .dwtag  DW_TAG_member
    1180                      .dwattr $C$DW$82, DW_AT_type(*$C$DW$T$19)
    1181                      .dwattr $C$DW$82, DW_AT_name("Ki")
    1182                      .dwattr $C$DW$82, DW_AT_TI_symbol_name("_Ki")
TMS320C2000 Assembler PC v6.4.2 Thu Dec 14 15:26:04 2017

Tools Copyright (c) 1996-2015 Texas Instruments Incorporated
drv8305.asm                                                          PAGE   25

    1183                      .dwattr $C$DW$82, DW_AT_data_member_location[DW_OP_plus_uconst 0x4]
    1184                      .dwattr $C$DW$82, DW_AT_accessibility(DW_ACCESS_public)
    1185              $C$DW$83        .dwtag  DW_TAG_member
    1186                      .dwattr $C$DW$83, DW_AT_type(*$C$DW$T$19)
    1187                      .dwattr $C$DW$83, DW_AT_name("Kd")
    1188                      .dwattr $C$DW$83, DW_AT_TI_symbol_name("_Kd")
    1189                      .dwattr $C$DW$83, DW_AT_data_member_location[DW_OP_plus_uconst 0x6]
    1190                      .dwattr $C$DW$83, DW_AT_accessibility(DW_ACCESS_public)
    1191              $C$DW$84        .dwtag  DW_TAG_member
    1192                      .dwattr $C$DW$84, DW_AT_type(*$C$DW$T$19)
    1193                      .dwattr $C$DW$84, DW_AT_name("Km")
    1194                      .dwattr $C$DW$84, DW_AT_TI_symbol_name("_Km")
    1195                      .dwattr $C$DW$84, DW_AT_data_member_location[DW_OP_plus_uconst 0x8]
    1196                      .dwattr $C$DW$84, DW_AT_accessibility(DW_ACCESS_public)
    1197              $C$DW$85        .dwtag  DW_TAG_member
    1198                      .dwattr $C$DW$85, DW_AT_type(*$C$DW$T$19)
    1199                      .dwattr $C$DW$85, DW_AT_name("Umax")
    1200                      .dwattr $C$DW$85, DW_AT_TI_symbol_name("_Umax")
    1201                      .dwattr $C$DW$85, DW_AT_data_member_location[DW_OP_plus_uconst 0xa]
    1202                      .dwattr $C$DW$85, DW_AT_accessibility(DW_ACCESS_public)
    1203              $C$DW$86        .dwtag  DW_TAG_member
    1204                      .dwattr $C$DW$86, DW_AT_type(*$C$DW$T$19)
    1205                      .dwattr $C$DW$86, DW_AT_name("Umin")
    1206                      .dwattr $C$DW$86, DW_AT_TI_symbol_name("_Umin")
    1207                      .dwattr $C$DW$86, DW_AT_data_member_location[DW_OP_plus_uconst 0xc]
    1208                      .dwattr $C$DW$86, DW_AT_accessibility(DW_ACCESS_public)
    1209                      .dwendtag $C$DW$T$25
    1210              
    1211              $C$DW$T$28      .dwtag  DW_TAG_typedef, DW_AT_name("PID_PARAMETERS")
    1212                      .dwattr $C$DW$T$28, DW_AT_type(*$C$DW$T$25)
    1213                      .dwattr $C$DW$T$28, DW_AT_language(DW_LANG_C)
    1214              
    1215              $C$DW$T$26      .dwtag  DW_TAG_structure_type
    1216                      .dwattr $C$DW$T$26, DW_AT_byte_size(0x10)
    1217              $C$DW$87        .dwtag  DW_TAG_member
    1218                      .dwattr $C$DW$87, DW_AT_type(*$C$DW$T$19)
    1219                      .dwattr $C$DW$87, DW_AT_name("up")
    1220                      .dwattr $C$DW$87, DW_AT_TI_symbol_name("_up")
    1221                      .dwattr $C$DW$87, DW_AT_data_member_location[DW_OP_plus_uconst 0x0]
    1222                      .dwattr $C$DW$87, DW_AT_accessibility(DW_ACCESS_public)
    1223              $C$DW$88        .dwtag  DW_TAG_member
    1224                      .dwattr $C$DW$88, DW_AT_type(*$C$DW$T$19)
    1225                      .dwattr $C$DW$88, DW_AT_name("ui")
    1226                      .dwattr $C$DW$88, DW_AT_TI_symbol_name("_ui")
    1227                      .dwattr $C$DW$88, DW_AT_data_member_location[DW_OP_plus_uconst 0x2]
    1228                      .dwattr $C$DW$88, DW_AT_accessibility(DW_ACCESS_public)
    1229              $C$DW$89        .dwtag  DW_TAG_member
    1230                      .dwattr $C$DW$89, DW_AT_type(*$C$DW$T$19)
    1231                      .dwattr $C$DW$89, DW_AT_name("ud")
    1232                      .dwattr $C$DW$89, DW_AT_TI_symbol_name("_ud")
    1233                      .dwattr $C$DW$89, DW_AT_data_member_location[DW_OP_plus_uconst 0x4]
    1234                      .dwattr $C$DW$89, DW_AT_accessibility(DW_ACCESS_public)
    1235              $C$DW$90        .dwtag  DW_TAG_member
    1236                      .dwattr $C$DW$90, DW_AT_type(*$C$DW$T$19)
    1237                      .dwattr $C$DW$90, DW_AT_name("v1")
TMS320C2000 Assembler PC v6.4.2 Thu Dec 14 15:26:04 2017

Tools Copyright (c) 1996-2015 Texas Instruments Incorporated
drv8305.asm                                                          PAGE   26

    1238                      .dwattr $C$DW$90, DW_AT_TI_symbol_name("_v1")
    1239                      .dwattr $C$DW$90, DW_AT_data_member_location[DW_OP_plus_uconst 0x6]
    1240                      .dwattr $C$DW$90, DW_AT_accessibility(DW_ACCESS_public)
    1241              $C$DW$91        .dwtag  DW_TAG_member
    1242                      .dwattr $C$DW$91, DW_AT_type(*$C$DW$T$19)
    1243                      .dwattr $C$DW$91, DW_AT_name("i1")
    1244                      .dwattr $C$DW$91, DW_AT_TI_symbol_name("_i1")
    1245                      .dwattr $C$DW$91, DW_AT_data_member_location[DW_OP_plus_uconst 0x8]
    1246                      .dwattr $C$DW$91, DW_AT_accessibility(DW_ACCESS_public)
    1247              $C$DW$92        .dwtag  DW_TAG_member
    1248                      .dwattr $C$DW$92, DW_AT_type(*$C$DW$T$19)
    1249                      .dwattr $C$DW$92, DW_AT_name("d1")
    1250                      .dwattr $C$DW$92, DW_AT_TI_symbol_name("_d1")
    1251                      .dwattr $C$DW$92, DW_AT_data_member_location[DW_OP_plus_uconst 0xa]
    1252                      .dwattr $C$DW$92, DW_AT_accessibility(DW_ACCESS_public)
    1253              $C$DW$93        .dwtag  DW_TAG_member
    1254                      .dwattr $C$DW$93, DW_AT_type(*$C$DW$T$19)
    1255                      .dwattr $C$DW$93, DW_AT_name("d2")
    1256                      .dwattr $C$DW$93, DW_AT_TI_symbol_name("_d2")
    1257                      .dwattr $C$DW$93, DW_AT_data_member_location[DW_OP_plus_uconst 0xc]
    1258                      .dwattr $C$DW$93, DW_AT_accessibility(DW_ACCESS_public)
    1259              $C$DW$94        .dwtag  DW_TAG_member
    1260                      .dwattr $C$DW$94, DW_AT_type(*$C$DW$T$19)
    1261                      .dwattr $C$DW$94, DW_AT_name("w1")
    1262                      .dwattr $C$DW$94, DW_AT_TI_symbol_name("_w1")
    1263                      .dwattr $C$DW$94, DW_AT_data_member_location[DW_OP_plus_uconst 0xe]
    1264                      .dwattr $C$DW$94, DW_AT_accessibility(DW_ACCESS_public)
    1265                      .dwendtag $C$DW$T$26
    1266              
    1267              $C$DW$T$29      .dwtag  DW_TAG_typedef, DW_AT_name("PID_DATA")
    1268                      .dwattr $C$DW$T$29, DW_AT_type(*$C$DW$T$26)
    1269                      .dwattr $C$DW$T$29, DW_AT_language(DW_LANG_C)
    1270              
    1271              $C$DW$T$30      .dwtag  DW_TAG_structure_type
    1272                      .dwattr $C$DW$T$30, DW_AT_byte_size(0x28)
    1273              $C$DW$95        .dwtag  DW_TAG_member
    1274                      .dwattr $C$DW$95, DW_AT_type(*$C$DW$T$27)
    1275                      .dwattr $C$DW$95, DW_AT_name("term")
    1276                      .dwattr $C$DW$95, DW_AT_TI_symbol_name("_term")
    1277                      .dwattr $C$DW$95, DW_AT_data_member_location[DW_OP_plus_uconst 0x0]
    1278                      .dwattr $C$DW$95, DW_AT_accessibility(DW_ACCESS_public)
    1279              $C$DW$96        .dwtag  DW_TAG_member
    1280                      .dwattr $C$DW$96, DW_AT_type(*$C$DW$T$28)
    1281                      .dwattr $C$DW$96, DW_AT_name("param")
    1282                      .dwattr $C$DW$96, DW_AT_TI_symbol_name("_param")
    1283                      .dwattr $C$DW$96, DW_AT_data_member_location[DW_OP_plus_uconst 0xa]
    1284                      .dwattr $C$DW$96, DW_AT_accessibility(DW_ACCESS_public)
    1285              $C$DW$97        .dwtag  DW_TAG_member
    1286                      .dwattr $C$DW$97, DW_AT_type(*$C$DW$T$29)
    1287                      .dwattr $C$DW$97, DW_AT_name("data")
    1288                      .dwattr $C$DW$97, DW_AT_TI_symbol_name("_data")
    1289                      .dwattr $C$DW$97, DW_AT_data_member_location[DW_OP_plus_uconst 0x18]
    1290                      .dwattr $C$DW$97, DW_AT_accessibility(DW_ACCESS_public)
    1291                      .dwendtag $C$DW$T$30
    1292              
TMS320C2000 Assembler PC v6.4.2 Thu Dec 14 15:26:04 2017

Tools Copyright (c) 1996-2015 Texas Instruments Incorporated
drv8305.asm                                                          PAGE   27

    1293              $C$DW$T$69      .dwtag  DW_TAG_typedef, DW_AT_name("PID_CONTROLLER")
    1294                      .dwattr $C$DW$T$69, DW_AT_type(*$C$DW$T$30)
    1295                      .dwattr $C$DW$T$69, DW_AT_language(DW_LANG_C)
    1296              
    1297              $C$DW$T$32      .dwtag  DW_TAG_structure_type
    1298                      .dwattr $C$DW$T$32, DW_AT_byte_size(0x12)
    1299              $C$DW$98        .dwtag  DW_TAG_member
    1300                      .dwattr $C$DW$98, DW_AT_type(*$C$DW$T$19)
    1301                      .dwattr $C$DW$98, DW_AT_name("Ualpha")
    1302                      .dwattr $C$DW$98, DW_AT_TI_symbol_name("_Ualpha")
    1303                      .dwattr $C$DW$98, DW_AT_data_member_location[DW_OP_plus_uconst 0x0]
    1304                      .dwattr $C$DW$98, DW_AT_accessibility(DW_ACCESS_public)
    1305              $C$DW$99        .dwtag  DW_TAG_member
    1306                      .dwattr $C$DW$99, DW_AT_type(*$C$DW$T$19)
    1307                      .dwattr $C$DW$99, DW_AT_name("Ubeta")
    1308                      .dwattr $C$DW$99, DW_AT_TI_symbol_name("_Ubeta")
    1309                      .dwattr $C$DW$99, DW_AT_data_member_location[DW_OP_plus_uconst 0x2]
    1310                      .dwattr $C$DW$99, DW_AT_accessibility(DW_ACCESS_public)
    1311              $C$DW$100       .dwtag  DW_TAG_member
    1312                      .dwattr $C$DW$100, DW_AT_type(*$C$DW$T$19)
    1313                      .dwattr $C$DW$100, DW_AT_name("Ta")
    1314                      .dwattr $C$DW$100, DW_AT_TI_symbol_name("_Ta")
    1315                      .dwattr $C$DW$100, DW_AT_data_member_location[DW_OP_plus_uconst 0x4]
    1316                      .dwattr $C$DW$100, DW_AT_accessibility(DW_ACCESS_public)
    1317              $C$DW$101       .dwtag  DW_TAG_member
    1318                      .dwattr $C$DW$101, DW_AT_type(*$C$DW$T$19)
    1319                      .dwattr $C$DW$101, DW_AT_name("Tb")
    1320                      .dwattr $C$DW$101, DW_AT_TI_symbol_name("_Tb")
    1321                      .dwattr $C$DW$101, DW_AT_data_member_location[DW_OP_plus_uconst 0x6]
    1322                      .dwattr $C$DW$101, DW_AT_accessibility(DW_ACCESS_public)
    1323              $C$DW$102       .dwtag  DW_TAG_member
    1324                      .dwattr $C$DW$102, DW_AT_type(*$C$DW$T$19)
    1325                      .dwattr $C$DW$102, DW_AT_name("Tc")
    1326                      .dwattr $C$DW$102, DW_AT_TI_symbol_name("_Tc")
    1327                      .dwattr $C$DW$102, DW_AT_data_member_location[DW_OP_plus_uconst 0x8]
    1328                      .dwattr $C$DW$102, DW_AT_accessibility(DW_ACCESS_public)
    1329              $C$DW$103       .dwtag  DW_TAG_member
    1330                      .dwattr $C$DW$103, DW_AT_type(*$C$DW$T$19)
    1331                      .dwattr $C$DW$103, DW_AT_name("tmp1")
    1332                      .dwattr $C$DW$103, DW_AT_TI_symbol_name("_tmp1")
    1333                      .dwattr $C$DW$103, DW_AT_data_member_location[DW_OP_plus_uconst 0xa]
    1334                      .dwattr $C$DW$103, DW_AT_accessibility(DW_ACCESS_public)
    1335              $C$DW$104       .dwtag  DW_TAG_member
    1336                      .dwattr $C$DW$104, DW_AT_type(*$C$DW$T$19)
    1337                      .dwattr $C$DW$104, DW_AT_name("tmp2")
    1338                      .dwattr $C$DW$104, DW_AT_TI_symbol_name("_tmp2")
    1339                      .dwattr $C$DW$104, DW_AT_data_member_location[DW_OP_plus_uconst 0xc]
    1340                      .dwattr $C$DW$104, DW_AT_accessibility(DW_ACCESS_public)
    1341              $C$DW$105       .dwtag  DW_TAG_member
    1342                      .dwattr $C$DW$105, DW_AT_type(*$C$DW$T$19)
    1343                      .dwattr $C$DW$105, DW_AT_name("tmp3")
    1344                      .dwattr $C$DW$105, DW_AT_TI_symbol_name("_tmp3")
    1345                      .dwattr $C$DW$105, DW_AT_data_member_location[DW_OP_plus_uconst 0xe]
    1346                      .dwattr $C$DW$105, DW_AT_accessibility(DW_ACCESS_public)
    1347              $C$DW$106       .dwtag  DW_TAG_member
TMS320C2000 Assembler PC v6.4.2 Thu Dec 14 15:26:04 2017

Tools Copyright (c) 1996-2015 Texas Instruments Incorporated
drv8305.asm                                                          PAGE   28

    1348                      .dwattr $C$DW$106, DW_AT_type(*$C$DW$T$31)
    1349                      .dwattr $C$DW$106, DW_AT_name("VecSector")
    1350                      .dwattr $C$DW$106, DW_AT_TI_symbol_name("_VecSector")
    1351                      .dwattr $C$DW$106, DW_AT_data_member_location[DW_OP_plus_uconst 0x10]
    1352                      .dwattr $C$DW$106, DW_AT_accessibility(DW_ACCESS_public)
    1353                      .dwendtag $C$DW$T$32
    1354              
    1355              $C$DW$T$70      .dwtag  DW_TAG_typedef, DW_AT_name("SVGEN")
    1356                      .dwattr $C$DW$T$70, DW_AT_type(*$C$DW$T$32)
    1357                      .dwattr $C$DW$T$70, DW_AT_language(DW_LANG_C)
    1358              
    1359              $C$DW$T$34      .dwtag  DW_TAG_structure_type
    1360                      .dwattr $C$DW$T$34, DW_AT_byte_size(0x10)
    1361              $C$DW$107       .dwtag  DW_TAG_member
    1362                      .dwattr $C$DW$107, DW_AT_type(*$C$DW$T$19)
    1363                      .dwattr $C$DW$107, DW_AT_name("TargetValue")
    1364                      .dwattr $C$DW$107, DW_AT_TI_symbol_name("_TargetValue")
    1365                      .dwattr $C$DW$107, DW_AT_data_member_location[DW_OP_plus_uconst 0x0]
    1366                      .dwattr $C$DW$107, DW_AT_accessibility(DW_ACCESS_public)
    1367              $C$DW$108       .dwtag  DW_TAG_member
    1368                      .dwattr $C$DW$108, DW_AT_type(*$C$DW$T$33)
    1369                      .dwattr $C$DW$108, DW_AT_name("RampDelayMax")
    1370                      .dwattr $C$DW$108, DW_AT_TI_symbol_name("_RampDelayMax")
    1371                      .dwattr $C$DW$108, DW_AT_data_member_location[DW_OP_plus_uconst 0x2]
    1372                      .dwattr $C$DW$108, DW_AT_accessibility(DW_ACCESS_public)
    1373              $C$DW$109       .dwtag  DW_TAG_member
    1374                      .dwattr $C$DW$109, DW_AT_type(*$C$DW$T$19)
    1375                      .dwattr $C$DW$109, DW_AT_name("RampLowLimit")
    1376                      .dwattr $C$DW$109, DW_AT_TI_symbol_name("_RampLowLimit")
    1377                      .dwattr $C$DW$109, DW_AT_data_member_location[DW_OP_plus_uconst 0x4]
    1378                      .dwattr $C$DW$109, DW_AT_accessibility(DW_ACCESS_public)
    1379              $C$DW$110       .dwtag  DW_TAG_member
    1380                      .dwattr $C$DW$110, DW_AT_type(*$C$DW$T$19)
    1381                      .dwattr $C$DW$110, DW_AT_name("RampHighLimit")
    1382                      .dwattr $C$DW$110, DW_AT_TI_symbol_name("_RampHighLimit")
    1383                      .dwattr $C$DW$110, DW_AT_data_member_location[DW_OP_plus_uconst 0x6]
    1384                      .dwattr $C$DW$110, DW_AT_accessibility(DW_ACCESS_public)
    1385              $C$DW$111       .dwtag  DW_TAG_member
    1386                      .dwattr $C$DW$111, DW_AT_type(*$C$DW$T$33)
    1387                      .dwattr $C$DW$111, DW_AT_name("RampDelayCount")
    1388                      .dwattr $C$DW$111, DW_AT_TI_symbol_name("_RampDelayCount")
    1389                      .dwattr $C$DW$111, DW_AT_data_member_location[DW_OP_plus_uconst 0x8]
    1390                      .dwattr $C$DW$111, DW_AT_accessibility(DW_ACCESS_public)
    1391              $C$DW$112       .dwtag  DW_TAG_member
    1392                      .dwattr $C$DW$112, DW_AT_type(*$C$DW$T$19)
    1393                      .dwattr $C$DW$112, DW_AT_name("SetpointValue")
    1394                      .dwattr $C$DW$112, DW_AT_TI_symbol_name("_SetpointValue")
    1395                      .dwattr $C$DW$112, DW_AT_data_member_location[DW_OP_plus_uconst 0xa]
    1396                      .dwattr $C$DW$112, DW_AT_accessibility(DW_ACCESS_public)
    1397              $C$DW$113       .dwtag  DW_TAG_member
    1398                      .dwattr $C$DW$113, DW_AT_type(*$C$DW$T$33)
    1399                      .dwattr $C$DW$113, DW_AT_name("EqualFlag")
    1400                      .dwattr $C$DW$113, DW_AT_TI_symbol_name("_EqualFlag")
    1401                      .dwattr $C$DW$113, DW_AT_data_member_location[DW_OP_plus_uconst 0xc]
    1402                      .dwattr $C$DW$113, DW_AT_accessibility(DW_ACCESS_public)
TMS320C2000 Assembler PC v6.4.2 Thu Dec 14 15:26:04 2017

Tools Copyright (c) 1996-2015 Texas Instruments Incorporated
drv8305.asm                                                          PAGE   29

    1403              $C$DW$114       .dwtag  DW_TAG_member
    1404                      .dwattr $C$DW$114, DW_AT_type(*$C$DW$T$19)
    1405                      .dwattr $C$DW$114, DW_AT_name("Tmp")
    1406                      .dwattr $C$DW$114, DW_AT_TI_symbol_name("_Tmp")
    1407                      .dwattr $C$DW$114, DW_AT_data_member_location[DW_OP_plus_uconst 0xe]
    1408                      .dwattr $C$DW$114, DW_AT_accessibility(DW_ACCESS_public)
    1409                      .dwendtag $C$DW$T$34
    1410              
    1411              $C$DW$T$71      .dwtag  DW_TAG_typedef, DW_AT_name("RMPCNTL")
    1412                      .dwattr $C$DW$T$71, DW_AT_type(*$C$DW$T$34)
    1413                      .dwattr $C$DW$T$71, DW_AT_language(DW_LANG_C)
    1414              
    1415              $C$DW$T$35      .dwtag  DW_TAG_structure_type
    1416                      .dwattr $C$DW$T$35, DW_AT_byte_size(0x0c)
    1417              $C$DW$115       .dwtag  DW_TAG_member
    1418                      .dwattr $C$DW$115, DW_AT_type(*$C$DW$T$19)
    1419                      .dwattr $C$DW$115, DW_AT_name("Freq")
    1420                      .dwattr $C$DW$115, DW_AT_TI_symbol_name("_Freq")
    1421                      .dwattr $C$DW$115, DW_AT_data_member_location[DW_OP_plus_uconst 0x0]
    1422                      .dwattr $C$DW$115, DW_AT_accessibility(DW_ACCESS_public)
    1423              $C$DW$116       .dwtag  DW_TAG_member
    1424                      .dwattr $C$DW$116, DW_AT_type(*$C$DW$T$19)
    1425                      .dwattr $C$DW$116, DW_AT_name("StepAngleMax")
    1426                      .dwattr $C$DW$116, DW_AT_TI_symbol_name("_StepAngleMax")
    1427                      .dwattr $C$DW$116, DW_AT_data_member_location[DW_OP_plus_uconst 0x2]
    1428                      .dwattr $C$DW$116, DW_AT_accessibility(DW_ACCESS_public)
    1429              $C$DW$117       .dwtag  DW_TAG_member
    1430                      .dwattr $C$DW$117, DW_AT_type(*$C$DW$T$19)
    1431                      .dwattr $C$DW$117, DW_AT_name("Angle")
    1432                      .dwattr $C$DW$117, DW_AT_TI_symbol_name("_Angle")
    1433                      .dwattr $C$DW$117, DW_AT_data_member_location[DW_OP_plus_uconst 0x4]
    1434                      .dwattr $C$DW$117, DW_AT_accessibility(DW_ACCESS_public)
    1435              $C$DW$118       .dwtag  DW_TAG_member
    1436                      .dwattr $C$DW$118, DW_AT_type(*$C$DW$T$19)
    1437                      .dwattr $C$DW$118, DW_AT_name("Gain")
    1438                      .dwattr $C$DW$118, DW_AT_TI_symbol_name("_Gain")
    1439                      .dwattr $C$DW$118, DW_AT_data_member_location[DW_OP_plus_uconst 0x6]
    1440                      .dwattr $C$DW$118, DW_AT_accessibility(DW_ACCESS_public)
    1441              $C$DW$119       .dwtag  DW_TAG_member
    1442                      .dwattr $C$DW$119, DW_AT_type(*$C$DW$T$19)
    1443                      .dwattr $C$DW$119, DW_AT_name("Out")
    1444                      .dwattr $C$DW$119, DW_AT_TI_symbol_name("_Out")
    1445                      .dwattr $C$DW$119, DW_AT_data_member_location[DW_OP_plus_uconst 0x8]
    1446                      .dwattr $C$DW$119, DW_AT_accessibility(DW_ACCESS_public)
    1447              $C$DW$120       .dwtag  DW_TAG_member
    1448                      .dwattr $C$DW$120, DW_AT_type(*$C$DW$T$19)
    1449                      .dwattr $C$DW$120, DW_AT_name("Offset")
    1450                      .dwattr $C$DW$120, DW_AT_TI_symbol_name("_Offset")
    1451                      .dwattr $C$DW$120, DW_AT_data_member_location[DW_OP_plus_uconst 0xa]
    1452                      .dwattr $C$DW$120, DW_AT_accessibility(DW_ACCESS_public)
    1453                      .dwendtag $C$DW$T$35
    1454              
    1455              $C$DW$T$72      .dwtag  DW_TAG_typedef, DW_AT_name("RAMPGEN")
    1456                      .dwattr $C$DW$T$72, DW_AT_type(*$C$DW$T$35)
    1457                      .dwattr $C$DW$T$72, DW_AT_language(DW_LANG_C)
TMS320C2000 Assembler PC v6.4.2 Thu Dec 14 15:26:04 2017

Tools Copyright (c) 1996-2015 Texas Instruments Incorporated
drv8305.asm                                                          PAGE   30

    1458              
    1459              $C$DW$T$36      .dwtag  DW_TAG_structure_type
    1460                      .dwattr $C$DW$T$36, DW_AT_byte_size(0x16)
    1461              $C$DW$121       .dwtag  DW_TAG_member
    1462                      .dwattr $C$DW$121, DW_AT_type(*$C$DW$T$19)
    1463                      .dwattr $C$DW$121, DW_AT_name("DcBusVolt")
    1464                      .dwattr $C$DW$121, DW_AT_TI_symbol_name("_DcBusVolt")
    1465                      .dwattr $C$DW$121, DW_AT_data_member_location[DW_OP_plus_uconst 0x0]
    1466                      .dwattr $C$DW$121, DW_AT_accessibility(DW_ACCESS_public)
    1467              $C$DW$122       .dwtag  DW_TAG_member
    1468                      .dwattr $C$DW$122, DW_AT_type(*$C$DW$T$19)
    1469                      .dwattr $C$DW$122, DW_AT_name("MfuncV1")
    1470                      .dwattr $C$DW$122, DW_AT_TI_symbol_name("_MfuncV1")
    1471                      .dwattr $C$DW$122, DW_AT_data_member_location[DW_OP_plus_uconst 0x2]
    1472                      .dwattr $C$DW$122, DW_AT_accessibility(DW_ACCESS_public)
    1473              $C$DW$123       .dwtag  DW_TAG_member
    1474                      .dwattr $C$DW$123, DW_AT_type(*$C$DW$T$19)
    1475                      .dwattr $C$DW$123, DW_AT_name("MfuncV2")
    1476                      .dwattr $C$DW$123, DW_AT_TI_symbol_name("_MfuncV2")
    1477                      .dwattr $C$DW$123, DW_AT_data_member_location[DW_OP_plus_uconst 0x4]
    1478                      .dwattr $C$DW$123, DW_AT_accessibility(DW_ACCESS_public)
    1479              $C$DW$124       .dwtag  DW_TAG_member
    1480                      .dwattr $C$DW$124, DW_AT_type(*$C$DW$T$19)
    1481                      .dwattr $C$DW$124, DW_AT_name("MfuncV3")
    1482                      .dwattr $C$DW$124, DW_AT_TI_symbol_name("_MfuncV3")
    1483                      .dwattr $C$DW$124, DW_AT_data_member_location[DW_OP_plus_uconst 0x6]
    1484                      .dwattr $C$DW$124, DW_AT_accessibility(DW_ACCESS_public)
    1485              $C$DW$125       .dwtag  DW_TAG_member
    1486                      .dwattr $C$DW$125, DW_AT_type(*$C$DW$T$31)
    1487                      .dwattr $C$DW$125, DW_AT_name("OutOfPhase")
    1488                      .dwattr $C$DW$125, DW_AT_TI_symbol_name("_OutOfPhase")
    1489                      .dwattr $C$DW$125, DW_AT_data_member_location[DW_OP_plus_uconst 0x8]
    1490                      .dwattr $C$DW$125, DW_AT_accessibility(DW_ACCESS_public)
    1491              $C$DW$126       .dwtag  DW_TAG_member
    1492                      .dwattr $C$DW$126, DW_AT_type(*$C$DW$T$19)
    1493                      .dwattr $C$DW$126, DW_AT_name("VphaseA")
    1494                      .dwattr $C$DW$126, DW_AT_TI_symbol_name("_VphaseA")
    1495                      .dwattr $C$DW$126, DW_AT_data_member_location[DW_OP_plus_uconst 0xa]
    1496                      .dwattr $C$DW$126, DW_AT_accessibility(DW_ACCESS_public)
    1497              $C$DW$127       .dwtag  DW_TAG_member
    1498                      .dwattr $C$DW$127, DW_AT_type(*$C$DW$T$19)
    1499                      .dwattr $C$DW$127, DW_AT_name("VphaseB")
    1500                      .dwattr $C$DW$127, DW_AT_TI_symbol_name("_VphaseB")
    1501                      .dwattr $C$DW$127, DW_AT_data_member_location[DW_OP_plus_uconst 0xc]
    1502                      .dwattr $C$DW$127, DW_AT_accessibility(DW_ACCESS_public)
    1503              $C$DW$128       .dwtag  DW_TAG_member
    1504                      .dwattr $C$DW$128, DW_AT_type(*$C$DW$T$19)
    1505                      .dwattr $C$DW$128, DW_AT_name("VphaseC")
    1506                      .dwattr $C$DW$128, DW_AT_TI_symbol_name("_VphaseC")
    1507                      .dwattr $C$DW$128, DW_AT_data_member_location[DW_OP_plus_uconst 0xe]
    1508                      .dwattr $C$DW$128, DW_AT_accessibility(DW_ACCESS_public)
    1509              $C$DW$129       .dwtag  DW_TAG_member
    1510                      .dwattr $C$DW$129, DW_AT_type(*$C$DW$T$19)
    1511                      .dwattr $C$DW$129, DW_AT_name("Valpha")
    1512                      .dwattr $C$DW$129, DW_AT_TI_symbol_name("_Valpha")
TMS320C2000 Assembler PC v6.4.2 Thu Dec 14 15:26:04 2017

Tools Copyright (c) 1996-2015 Texas Instruments Incorporated
drv8305.asm                                                          PAGE   31

    1513                      .dwattr $C$DW$129, DW_AT_data_member_location[DW_OP_plus_uconst 0x10]
    1514                      .dwattr $C$DW$129, DW_AT_accessibility(DW_ACCESS_public)
    1515              $C$DW$130       .dwtag  DW_TAG_member
    1516                      .dwattr $C$DW$130, DW_AT_type(*$C$DW$T$19)
    1517                      .dwattr $C$DW$130, DW_AT_name("Vbeta")
    1518                      .dwattr $C$DW$130, DW_AT_TI_symbol_name("_Vbeta")
    1519                      .dwattr $C$DW$130, DW_AT_data_member_location[DW_OP_plus_uconst 0x12]
    1520                      .dwattr $C$DW$130, DW_AT_accessibility(DW_ACCESS_public)
    1521              $C$DW$131       .dwtag  DW_TAG_member
    1522                      .dwattr $C$DW$131, DW_AT_type(*$C$DW$T$19)
    1523                      .dwattr $C$DW$131, DW_AT_name("temp")
    1524                      .dwattr $C$DW$131, DW_AT_TI_symbol_name("_temp")
    1525                      .dwattr $C$DW$131, DW_AT_data_member_location[DW_OP_plus_uconst 0x14]
    1526                      .dwattr $C$DW$131, DW_AT_accessibility(DW_ACCESS_public)
    1527                      .dwendtag $C$DW$T$36
    1528              
    1529              $C$DW$T$73      .dwtag  DW_TAG_typedef, DW_AT_name("PHASEVOLTAGE")
    1530                      .dwattr $C$DW$T$73, DW_AT_type(*$C$DW$T$36)
    1531                      .dwattr $C$DW$T$73, DW_AT_language(DW_LANG_C)
    1532              
    1533              $C$DW$T$39      .dwtag  DW_TAG_structure_type
    1534                      .dwattr $C$DW$T$39, DW_AT_byte_size(0x14)
    1535              $C$DW$132       .dwtag  DW_TAG_member
    1536                      .dwattr $C$DW$132, DW_AT_type(*$C$DW$T$19)
    1537                      .dwattr $C$DW$132, DW_AT_name("ElecTheta")
    1538                      .dwattr $C$DW$132, DW_AT_TI_symbol_name("_ElecTheta")
    1539                      .dwattr $C$DW$132, DW_AT_data_member_location[DW_OP_plus_uconst 0x0]
    1540                      .dwattr $C$DW$132, DW_AT_accessibility(DW_ACCESS_public)
    1541              $C$DW$133       .dwtag  DW_TAG_member
    1542                      .dwattr $C$DW$133, DW_AT_type(*$C$DW$T$33)
    1543                      .dwattr $C$DW$133, DW_AT_name("DirectionQep")
    1544                      .dwattr $C$DW$133, DW_AT_TI_symbol_name("_DirectionQep")
    1545                      .dwattr $C$DW$133, DW_AT_data_member_location[DW_OP_plus_uconst 0x2]
    1546                      .dwattr $C$DW$133, DW_AT_accessibility(DW_ACCESS_public)
    1547              $C$DW$134       .dwtag  DW_TAG_member
    1548                      .dwattr $C$DW$134, DW_AT_type(*$C$DW$T$19)
    1549                      .dwattr $C$DW$134, DW_AT_name("OldElecTheta")
    1550                      .dwattr $C$DW$134, DW_AT_TI_symbol_name("_OldElecTheta")
    1551                      .dwattr $C$DW$134, DW_AT_data_member_location[DW_OP_plus_uconst 0x4]
    1552                      .dwattr $C$DW$134, DW_AT_accessibility(DW_ACCESS_public)
    1553              $C$DW$135       .dwtag  DW_TAG_member
    1554                      .dwattr $C$DW$135, DW_AT_type(*$C$DW$T$19)
    1555                      .dwattr $C$DW$135, DW_AT_name("Speed")
    1556                      .dwattr $C$DW$135, DW_AT_TI_symbol_name("_Speed")
    1557                      .dwattr $C$DW$135, DW_AT_data_member_location[DW_OP_plus_uconst 0x6]
    1558                      .dwattr $C$DW$135, DW_AT_accessibility(DW_ACCESS_public)
    1559              $C$DW$136       .dwtag  DW_TAG_member
    1560                      .dwattr $C$DW$136, DW_AT_type(*$C$DW$T$33)
    1561                      .dwattr $C$DW$136, DW_AT_name("BaseRpm")
    1562                      .dwattr $C$DW$136, DW_AT_TI_symbol_name("_BaseRpm")
    1563                      .dwattr $C$DW$136, DW_AT_data_member_location[DW_OP_plus_uconst 0x8]
    1564                      .dwattr $C$DW$136, DW_AT_accessibility(DW_ACCESS_public)
    1565              $C$DW$137       .dwtag  DW_TAG_member
    1566                      .dwattr $C$DW$137, DW_AT_type(*$C$DW$T$37)
    1567                      .dwattr $C$DW$137, DW_AT_name("K1")
TMS320C2000 Assembler PC v6.4.2 Thu Dec 14 15:26:04 2017

Tools Copyright (c) 1996-2015 Texas Instruments Incorporated
drv8305.asm                                                          PAGE   32

    1568                      .dwattr $C$DW$137, DW_AT_TI_symbol_name("_K1")
    1569                      .dwattr $C$DW$137, DW_AT_data_member_location[DW_OP_plus_uconst 0xa]
    1570                      .dwattr $C$DW$137, DW_AT_accessibility(DW_ACCESS_public)
    1571              $C$DW$138       .dwtag  DW_TAG_member
    1572                      .dwattr $C$DW$138, DW_AT_type(*$C$DW$T$19)
    1573                      .dwattr $C$DW$138, DW_AT_name("K2")
    1574                      .dwattr $C$DW$138, DW_AT_TI_symbol_name("_K2")
    1575                      .dwattr $C$DW$138, DW_AT_data_member_location[DW_OP_plus_uconst 0xc]
    1576                      .dwattr $C$DW$138, DW_AT_accessibility(DW_ACCESS_public)
    1577              $C$DW$139       .dwtag  DW_TAG_member
    1578                      .dwattr $C$DW$139, DW_AT_type(*$C$DW$T$19)
    1579                      .dwattr $C$DW$139, DW_AT_name("K3")
    1580                      .dwattr $C$DW$139, DW_AT_TI_symbol_name("_K3")
    1581                      .dwattr $C$DW$139, DW_AT_data_member_location[DW_OP_plus_uconst 0xe]
    1582                      .dwattr $C$DW$139, DW_AT_accessibility(DW_ACCESS_public)
    1583              $C$DW$140       .dwtag  DW_TAG_member
    1584                      .dwattr $C$DW$140, DW_AT_type(*$C$DW$T$38)
    1585                      .dwattr $C$DW$140, DW_AT_name("SpeedRpm")
    1586                      .dwattr $C$DW$140, DW_AT_TI_symbol_name("_SpeedRpm")
    1587                      .dwattr $C$DW$140, DW_AT_data_member_location[DW_OP_plus_uconst 0x10]
    1588                      .dwattr $C$DW$140, DW_AT_accessibility(DW_ACCESS_public)
    1589              $C$DW$141       .dwtag  DW_TAG_member
    1590                      .dwattr $C$DW$141, DW_AT_type(*$C$DW$T$19)
    1591                      .dwattr $C$DW$141, DW_AT_name("Tmp")
    1592                      .dwattr $C$DW$141, DW_AT_TI_symbol_name("_Tmp")
    1593                      .dwattr $C$DW$141, DW_AT_data_member_location[DW_OP_plus_uconst 0x12]
    1594                      .dwattr $C$DW$141, DW_AT_accessibility(DW_ACCESS_public)
    1595                      .dwendtag $C$DW$T$39
    1596              
    1597              $C$DW$T$74      .dwtag  DW_TAG_typedef, DW_AT_name("SPEED_MEAS_QEP")
    1598                      .dwattr $C$DW$T$74, DW_AT_type(*$C$DW$T$39)
    1599                      .dwattr $C$DW$T$74, DW_AT_language(DW_LANG_C)
    1600              
    1601              $C$DW$T$41      .dwtag  DW_TAG_structure_type
    1602                      .dwattr $C$DW$T$41, DW_AT_byte_size(0x12)
    1603              $C$DW$142       .dwtag  DW_TAG_member
    1604                      .dwattr $C$DW$142, DW_AT_type(*$C$DW$T$40)
    1605                      .dwattr $C$DW$142, DW_AT_name("ElecTheta")
    1606                      .dwattr $C$DW$142, DW_AT_TI_symbol_name("_ElecTheta")
    1607                      .dwattr $C$DW$142, DW_AT_data_member_location[DW_OP_plus_uconst 0x0]
    1608                      .dwattr $C$DW$142, DW_AT_accessibility(DW_ACCESS_public)
    1609              $C$DW$143       .dwtag  DW_TAG_member
    1610                      .dwattr $C$DW$143, DW_AT_type(*$C$DW$T$40)
    1611                      .dwattr $C$DW$143, DW_AT_name("MechTheta")
    1612                      .dwattr $C$DW$143, DW_AT_TI_symbol_name("_MechTheta")
    1613                      .dwattr $C$DW$143, DW_AT_data_member_location[DW_OP_plus_uconst 0x2]
    1614                      .dwattr $C$DW$143, DW_AT_accessibility(DW_ACCESS_public)
    1615              $C$DW$144       .dwtag  DW_TAG_member
    1616                      .dwattr $C$DW$144, DW_AT_type(*$C$DW$T$31)
    1617                      .dwattr $C$DW$144, DW_AT_name("DirectionQep")
    1618                      .dwattr $C$DW$144, DW_AT_TI_symbol_name("_DirectionQep")
    1619                      .dwattr $C$DW$144, DW_AT_data_member_location[DW_OP_plus_uconst 0x4]
    1620                      .dwattr $C$DW$144, DW_AT_accessibility(DW_ACCESS_public)
    1621              $C$DW$145       .dwtag  DW_TAG_member
    1622                      .dwattr $C$DW$145, DW_AT_type(*$C$DW$T$31)
TMS320C2000 Assembler PC v6.4.2 Thu Dec 14 15:26:04 2017

Tools Copyright (c) 1996-2015 Texas Instruments Incorporated
drv8305.asm                                                          PAGE   33

    1623                      .dwattr $C$DW$145, DW_AT_name("QepPeriod")
    1624                      .dwattr $C$DW$145, DW_AT_TI_symbol_name("_QepPeriod")
    1625                      .dwattr $C$DW$145, DW_AT_data_member_location[DW_OP_plus_uconst 0x5]
    1626                      .dwattr $C$DW$145, DW_AT_accessibility(DW_ACCESS_public)
    1627              $C$DW$146       .dwtag  DW_TAG_member
    1628                      .dwattr $C$DW$146, DW_AT_type(*$C$DW$T$33)
    1629                      .dwattr $C$DW$146, DW_AT_name("QepCountIndex")
    1630                      .dwattr $C$DW$146, DW_AT_TI_symbol_name("_QepCountIndex")
    1631                      .dwattr $C$DW$146, DW_AT_data_member_location[DW_OP_plus_uconst 0x6]
    1632                      .dwattr $C$DW$146, DW_AT_accessibility(DW_ACCESS_public)
    1633              $C$DW$147       .dwtag  DW_TAG_member
    1634                      .dwattr $C$DW$147, DW_AT_type(*$C$DW$T$38)
    1635                      .dwattr $C$DW$147, DW_AT_name("RawTheta")
    1636                      .dwattr $C$DW$147, DW_AT_TI_symbol_name("_RawTheta")
    1637                      .dwattr $C$DW$147, DW_AT_data_member_location[DW_OP_plus_uconst 0x8]
    1638                      .dwattr $C$DW$147, DW_AT_accessibility(DW_ACCESS_public)
    1639              $C$DW$148       .dwtag  DW_TAG_member
    1640                      .dwattr $C$DW$148, DW_AT_type(*$C$DW$T$40)
    1641                      .dwattr $C$DW$148, DW_AT_name("MechScaler")
    1642                      .dwattr $C$DW$148, DW_AT_TI_symbol_name("_MechScaler")
    1643                      .dwattr $C$DW$148, DW_AT_data_member_location[DW_OP_plus_uconst 0xa]
    1644                      .dwattr $C$DW$148, DW_AT_accessibility(DW_ACCESS_public)
    1645              $C$DW$149       .dwtag  DW_TAG_member
    1646                      .dwattr $C$DW$149, DW_AT_type(*$C$DW$T$31)
    1647                      .dwattr $C$DW$149, DW_AT_name("LineEncoder")
    1648                      .dwattr $C$DW$149, DW_AT_TI_symbol_name("_LineEncoder")
    1649                      .dwattr $C$DW$149, DW_AT_data_member_location[DW_OP_plus_uconst 0xc]
    1650                      .dwattr $C$DW$149, DW_AT_accessibility(DW_ACCESS_public)
    1651              $C$DW$150       .dwtag  DW_TAG_member
    1652                      .dwattr $C$DW$150, DW_AT_type(*$C$DW$T$31)
    1653                      .dwattr $C$DW$150, DW_AT_name("PolePairs")
    1654                      .dwattr $C$DW$150, DW_AT_TI_symbol_name("_PolePairs")
    1655                      .dwattr $C$DW$150, DW_AT_data_member_location[DW_OP_plus_uconst 0xd]
    1656                      .dwattr $C$DW$150, DW_AT_accessibility(DW_ACCESS_public)
    1657              $C$DW$151       .dwtag  DW_TAG_member
    1658                      .dwattr $C$DW$151, DW_AT_type(*$C$DW$T$38)
    1659                      .dwattr $C$DW$151, DW_AT_name("CalibratedAngle")
    1660                      .dwattr $C$DW$151, DW_AT_TI_symbol_name("_CalibratedAngle")
    1661                      .dwattr $C$DW$151, DW_AT_data_member_location[DW_OP_plus_uconst 0xe]
    1662                      .dwattr $C$DW$151, DW_AT_accessibility(DW_ACCESS_public)
    1663              $C$DW$152       .dwtag  DW_TAG_member
    1664                      .dwattr $C$DW$152, DW_AT_type(*$C$DW$T$31)
    1665                      .dwattr $C$DW$152, DW_AT_name("IndexSyncFlag")
    1666                      .dwattr $C$DW$152, DW_AT_TI_symbol_name("_IndexSyncFlag")
    1667                      .dwattr $C$DW$152, DW_AT_data_member_location[DW_OP_plus_uconst 0x10]
    1668                      .dwattr $C$DW$152, DW_AT_accessibility(DW_ACCESS_public)
    1669                      .dwendtag $C$DW$T$41
    1670              
    1671              $C$DW$T$75      .dwtag  DW_TAG_typedef, DW_AT_name("QEP")
    1672                      .dwattr $C$DW$T$75, DW_AT_type(*$C$DW$T$41)
    1673                      .dwattr $C$DW$T$75, DW_AT_language(DW_LANG_C)
    1674              
    1675              $C$DW$T$46      .dwtag  DW_TAG_structure_type
    1676                      .dwattr $C$DW$T$46, DW_AT_byte_size(0x07)
    1677              $C$DW$153       .dwtag  DW_TAG_member
TMS320C2000 Assembler PC v6.4.2 Thu Dec 14 15:26:04 2017

Tools Copyright (c) 1996-2015 Texas Instruments Incorporated
drv8305.asm                                                          PAGE   34

    1678                      .dwattr $C$DW$153, DW_AT_type(*$C$DW$T$42)
    1679                      .dwattr $C$DW$153, DW_AT_name("stat_reg1")
    1680                      .dwattr $C$DW$153, DW_AT_TI_symbol_name("_stat_reg1")
    1681                      .dwattr $C$DW$153, DW_AT_data_member_location[DW_OP_plus_uconst 0x0]
    1682                      .dwattr $C$DW$153, DW_AT_accessibility(DW_ACCESS_public)
    1683              $C$DW$154       .dwtag  DW_TAG_member
    1684                      .dwattr $C$DW$154, DW_AT_type(*$C$DW$T$43)
    1685                      .dwattr $C$DW$154, DW_AT_name("stat_reg2")
    1686                      .dwattr $C$DW$154, DW_AT_TI_symbol_name("_stat_reg2")
    1687                      .dwattr $C$DW$154, DW_AT_data_member_location[DW_OP_plus_uconst 0x1]
    1688                      .dwattr $C$DW$154, DW_AT_accessibility(DW_ACCESS_public)
    1689              $C$DW$155       .dwtag  DW_TAG_member
    1690                      .dwattr $C$DW$155, DW_AT_type(*$C$DW$T$44)
    1691                      .dwattr $C$DW$155, DW_AT_name("cntrl_reg1")
    1692                      .dwattr $C$DW$155, DW_AT_TI_symbol_name("_cntrl_reg1")
    1693                      .dwattr $C$DW$155, DW_AT_data_member_location[DW_OP_plus_uconst 0x2]
    1694                      .dwattr $C$DW$155, DW_AT_accessibility(DW_ACCESS_public)
    1695              $C$DW$156       .dwtag  DW_TAG_member
    1696                      .dwattr $C$DW$156, DW_AT_type(*$C$DW$T$45)
    1697                      .dwattr $C$DW$156, DW_AT_name("cntrl_reg2")
    1698                      .dwattr $C$DW$156, DW_AT_TI_symbol_name("_cntrl_reg2")
    1699                      .dwattr $C$DW$156, DW_AT_data_member_location[DW_OP_plus_uconst 0x3]
    1700                      .dwattr $C$DW$156, DW_AT_accessibility(DW_ACCESS_public)
    1701              $C$DW$157       .dwtag  DW_TAG_member
    1702                      .dwattr $C$DW$157, DW_AT_type(*$C$DW$T$31)
    1703                      .dwattr $C$DW$157, DW_AT_name("readCntrl1")
    1704                      .dwattr $C$DW$157, DW_AT_TI_symbol_name("_readCntrl1")
    1705                      .dwattr $C$DW$157, DW_AT_data_member_location[DW_OP_plus_uconst 0x4]
    1706                      .dwattr $C$DW$157, DW_AT_accessibility(DW_ACCESS_public)
    1707              $C$DW$158       .dwtag  DW_TAG_member
    1708                      .dwattr $C$DW$158, DW_AT_type(*$C$DW$T$31)
    1709                      .dwattr $C$DW$158, DW_AT_name("readCntrl2")
    1710                      .dwattr $C$DW$158, DW_AT_TI_symbol_name("_readCntrl2")
    1711                      .dwattr $C$DW$158, DW_AT_data_member_location[DW_OP_plus_uconst 0x5]
    1712                      .dwattr $C$DW$158, DW_AT_accessibility(DW_ACCESS_public)
    1713              $C$DW$159       .dwtag  DW_TAG_member
    1714                      .dwattr $C$DW$159, DW_AT_type(*$C$DW$T$31)
    1715                      .dwattr $C$DW$159, DW_AT_name("DRV_fault")
    1716                      .dwattr $C$DW$159, DW_AT_TI_symbol_name("_DRV_fault")
    1717                      .dwattr $C$DW$159, DW_AT_data_member_location[DW_OP_plus_uconst 0x6]
    1718                      .dwattr $C$DW$159, DW_AT_accessibility(DW_ACCESS_public)
    1719                      .dwendtag $C$DW$T$46
    1720              
    1721              $C$DW$T$76      .dwtag  DW_TAG_typedef, DW_AT_name("DRV8301_Vars")
    1722                      .dwattr $C$DW$T$76, DW_AT_type(*$C$DW$T$46)
    1723                      .dwattr $C$DW$T$76, DW_AT_language(DW_LANG_C)
    1724              
    1725              $C$DW$T$58      .dwtag  DW_TAG_structure_type
    1726                      .dwattr $C$DW$T$58, DW_AT_byte_size(0x15)
    1727              $C$DW$160       .dwtag  DW_TAG_member
    1728                      .dwattr $C$DW$160, DW_AT_type(*$C$DW$T$31)
    1729                      .dwattr $C$DW$160, DW_AT_name("Rsvd0")
    1730                      .dwattr $C$DW$160, DW_AT_TI_symbol_name("_Rsvd0")
    1731                      .dwattr $C$DW$160, DW_AT_data_member_location[DW_OP_plus_uconst 0x0]
    1732                      .dwattr $C$DW$160, DW_AT_accessibility(DW_ACCESS_public)
TMS320C2000 Assembler PC v6.4.2 Thu Dec 14 15:26:04 2017

Tools Copyright (c) 1996-2015 Texas Instruments Incorporated
drv8305.asm                                                          PAGE   35

    1733              $C$DW$161       .dwtag  DW_TAG_member
    1734                      .dwattr $C$DW$161, DW_AT_type(*$C$DW$T$47)
    1735                      .dwattr $C$DW$161, DW_AT_name("status1_wwd")
    1736                      .dwattr $C$DW$161, DW_AT_TI_symbol_name("_status1_wwd")
    1737                      .dwattr $C$DW$161, DW_AT_data_member_location[DW_OP_plus_uconst 0x1]
    1738                      .dwattr $C$DW$161, DW_AT_accessibility(DW_ACCESS_public)
    1739              $C$DW$162       .dwtag  DW_TAG_member
    1740                      .dwattr $C$DW$162, DW_AT_type(*$C$DW$T$48)
    1741                      .dwattr $C$DW$162, DW_AT_name("status2_ov_vds")
    1742                      .dwattr $C$DW$162, DW_AT_TI_symbol_name("_status2_ov_vds")
    1743                      .dwattr $C$DW$162, DW_AT_data_member_location[DW_OP_plus_uconst 0x2]
    1744                      .dwattr $C$DW$162, DW_AT_accessibility(DW_ACCESS_public)
    1745              $C$DW$163       .dwtag  DW_TAG_member
    1746                      .dwattr $C$DW$163, DW_AT_type(*$C$DW$T$49)
    1747                      .dwattr $C$DW$163, DW_AT_name("status3_IC")
    1748                      .dwattr $C$DW$163, DW_AT_TI_symbol_name("_status3_IC")
    1749                      .dwattr $C$DW$163, DW_AT_data_member_location[DW_OP_plus_uconst 0x3]
    1750                      .dwattr $C$DW$163, DW_AT_accessibility(DW_ACCESS_public)
    1751              $C$DW$164       .dwtag  DW_TAG_member
    1752                      .dwattr $C$DW$164, DW_AT_type(*$C$DW$T$50)
    1753                      .dwattr $C$DW$164, DW_AT_name("status4_gd_Vgs")
    1754                      .dwattr $C$DW$164, DW_AT_TI_symbol_name("_status4_gd_Vgs")
    1755                      .dwattr $C$DW$164, DW_AT_data_member_location[DW_OP_plus_uconst 0x4]
    1756                      .dwattr $C$DW$164, DW_AT_accessibility(DW_ACCESS_public)
    1757              $C$DW$165       .dwtag  DW_TAG_member
    1758                      .dwattr $C$DW$165, DW_AT_type(*$C$DW$T$51)
    1759                      .dwattr $C$DW$165, DW_AT_name("cntrl5_hs_gd")
    1760                      .dwattr $C$DW$165, DW_AT_TI_symbol_name("_cntrl5_hs_gd")
    1761                      .dwattr $C$DW$165, DW_AT_data_member_location[DW_OP_plus_uconst 0x5]
    1762                      .dwattr $C$DW$165, DW_AT_accessibility(DW_ACCESS_public)
    1763              $C$DW$166       .dwtag  DW_TAG_member
    1764                      .dwattr $C$DW$166, DW_AT_type(*$C$DW$T$52)
    1765                      .dwattr $C$DW$166, DW_AT_name("cntrl6_ls_gd")
    1766                      .dwattr $C$DW$166, DW_AT_TI_symbol_name("_cntrl6_ls_gd")
    1767                      .dwattr $C$DW$166, DW_AT_data_member_location[DW_OP_plus_uconst 0x6]
    1768                      .dwattr $C$DW$166, DW_AT_accessibility(DW_ACCESS_public)
    1769              $C$DW$167       .dwtag  DW_TAG_member
    1770                      .dwattr $C$DW$167, DW_AT_type(*$C$DW$T$53)
    1771                      .dwattr $C$DW$167, DW_AT_name("cntrl7_gd")
    1772                      .dwattr $C$DW$167, DW_AT_TI_symbol_name("_cntrl7_gd")
    1773                      .dwattr $C$DW$167, DW_AT_data_member_location[DW_OP_plus_uconst 0x7]
    1774                      .dwattr $C$DW$167, DW_AT_accessibility(DW_ACCESS_public)
    1775              $C$DW$168       .dwtag  DW_TAG_member
    1776                      .dwattr $C$DW$168, DW_AT_type(*$C$DW$T$31)
    1777                      .dwattr $C$DW$168, DW_AT_name("Rsvd8")
    1778                      .dwattr $C$DW$168, DW_AT_TI_symbol_name("_Rsvd8")
    1779                      .dwattr $C$DW$168, DW_AT_data_member_location[DW_OP_plus_uconst 0x8]
    1780                      .dwattr $C$DW$168, DW_AT_accessibility(DW_ACCESS_public)
    1781              $C$DW$169       .dwtag  DW_TAG_member
    1782                      .dwattr $C$DW$169, DW_AT_type(*$C$DW$T$54)
    1783                      .dwattr $C$DW$169, DW_AT_name("cntrl9_IC_ops")
    1784                      .dwattr $C$DW$169, DW_AT_TI_symbol_name("_cntrl9_IC_ops")
    1785                      .dwattr $C$DW$169, DW_AT_data_member_location[DW_OP_plus_uconst 0x9]
    1786                      .dwattr $C$DW$169, DW_AT_accessibility(DW_ACCESS_public)
    1787              $C$DW$170       .dwtag  DW_TAG_member
TMS320C2000 Assembler PC v6.4.2 Thu Dec 14 15:26:04 2017

Tools Copyright (c) 1996-2015 Texas Instruments Incorporated
drv8305.asm                                                          PAGE   36

    1788                      .dwattr $C$DW$170, DW_AT_type(*$C$DW$T$55)
    1789                      .dwattr $C$DW$170, DW_AT_name("cntrlA_shunt_amp")
    1790                      .dwattr $C$DW$170, DW_AT_TI_symbol_name("_cntrlA_shunt_amp")
    1791                      .dwattr $C$DW$170, DW_AT_data_member_location[DW_OP_plus_uconst 0xa]
    1792                      .dwattr $C$DW$170, DW_AT_accessibility(DW_ACCESS_public)
    1793              $C$DW$171       .dwtag  DW_TAG_member
    1794                      .dwattr $C$DW$171, DW_AT_type(*$C$DW$T$56)
    1795                      .dwattr $C$DW$171, DW_AT_name("cntrlB_Vreg")
    1796                      .dwattr $C$DW$171, DW_AT_TI_symbol_name("_cntrlB_Vreg")
    1797                      .dwattr $C$DW$171, DW_AT_data_member_location[DW_OP_plus_uconst 0xb]
    1798                      .dwattr $C$DW$171, DW_AT_accessibility(DW_ACCESS_public)
    1799              $C$DW$172       .dwtag  DW_TAG_member
    1800                      .dwattr $C$DW$172, DW_AT_type(*$C$DW$T$57)
    1801                      .dwattr $C$DW$172, DW_AT_name("cntrlC_Vds_SNS")
    1802                      .dwattr $C$DW$172, DW_AT_TI_symbol_name("_cntrlC_Vds_SNS")
    1803                      .dwattr $C$DW$172, DW_AT_data_member_location[DW_OP_plus_uconst 0xc]
    1804                      .dwattr $C$DW$172, DW_AT_accessibility(DW_ACCESS_public)
    1805              $C$DW$173       .dwtag  DW_TAG_member
    1806                      .dwattr $C$DW$173, DW_AT_type(*$C$DW$T$31)
    1807                      .dwattr $C$DW$173, DW_AT_name("readCntrl5")
    1808                      .dwattr $C$DW$173, DW_AT_TI_symbol_name("_readCntrl5")
    1809                      .dwattr $C$DW$173, DW_AT_data_member_location[DW_OP_plus_uconst 0xd]
    1810                      .dwattr $C$DW$173, DW_AT_accessibility(DW_ACCESS_public)
    1811              $C$DW$174       .dwtag  DW_TAG_member
    1812                      .dwattr $C$DW$174, DW_AT_type(*$C$DW$T$31)
    1813                      .dwattr $C$DW$174, DW_AT_name("readCntrl6")
    1814                      .dwattr $C$DW$174, DW_AT_TI_symbol_name("_readCntrl6")
    1815                      .dwattr $C$DW$174, DW_AT_data_member_location[DW_OP_plus_uconst 0xe]
    1816                      .dwattr $C$DW$174, DW_AT_accessibility(DW_ACCESS_public)
    1817              $C$DW$175       .dwtag  DW_TAG_member
    1818                      .dwattr $C$DW$175, DW_AT_type(*$C$DW$T$31)
    1819                      .dwattr $C$DW$175, DW_AT_name("readCntrl7")
    1820                      .dwattr $C$DW$175, DW_AT_TI_symbol_name("_readCntrl7")
    1821                      .dwattr $C$DW$175, DW_AT_data_member_location[DW_OP_plus_uconst 0xf]
    1822                      .dwattr $C$DW$175, DW_AT_accessibility(DW_ACCESS_public)
    1823              $C$DW$176       .dwtag  DW_TAG_member
    1824                      .dwattr $C$DW$176, DW_AT_type(*$C$DW$T$31)
    1825                      .dwattr $C$DW$176, DW_AT_name("readCntrl9")
    1826                      .dwattr $C$DW$176, DW_AT_TI_symbol_name("_readCntrl9")
    1827                      .dwattr $C$DW$176, DW_AT_data_member_location[DW_OP_plus_uconst 0x10]
    1828                      .dwattr $C$DW$176, DW_AT_accessibility(DW_ACCESS_public)
    1829              $C$DW$177       .dwtag  DW_TAG_member
    1830                      .dwattr $C$DW$177, DW_AT_type(*$C$DW$T$31)
    1831                      .dwattr $C$DW$177, DW_AT_name("readCntrlA")
    1832                      .dwattr $C$DW$177, DW_AT_TI_symbol_name("_readCntrlA")
    1833                      .dwattr $C$DW$177, DW_AT_data_member_location[DW_OP_plus_uconst 0x11]
    1834                      .dwattr $C$DW$177, DW_AT_accessibility(DW_ACCESS_public)
    1835              $C$DW$178       .dwtag  DW_TAG_member
    1836                      .dwattr $C$DW$178, DW_AT_type(*$C$DW$T$31)
    1837                      .dwattr $C$DW$178, DW_AT_name("readCntrlB")
    1838                      .dwattr $C$DW$178, DW_AT_TI_symbol_name("_readCntrlB")
    1839                      .dwattr $C$DW$178, DW_AT_data_member_location[DW_OP_plus_uconst 0x12]
    1840                      .dwattr $C$DW$178, DW_AT_accessibility(DW_ACCESS_public)
    1841              $C$DW$179       .dwtag  DW_TAG_member
    1842                      .dwattr $C$DW$179, DW_AT_type(*$C$DW$T$31)
TMS320C2000 Assembler PC v6.4.2 Thu Dec 14 15:26:04 2017

Tools Copyright (c) 1996-2015 Texas Instruments Incorporated
drv8305.asm                                                          PAGE   37

    1843                      .dwattr $C$DW$179, DW_AT_name("readCntrlC")
    1844                      .dwattr $C$DW$179, DW_AT_TI_symbol_name("_readCntrlC")
    1845                      .dwattr $C$DW$179, DW_AT_data_member_location[DW_OP_plus_uconst 0x13]
    1846                      .dwattr $C$DW$179, DW_AT_accessibility(DW_ACCESS_public)
    1847              $C$DW$180       .dwtag  DW_TAG_member
    1848                      .dwattr $C$DW$180, DW_AT_type(*$C$DW$T$31)
    1849                      .dwattr $C$DW$180, DW_AT_name("DRV_fault")
    1850                      .dwattr $C$DW$180, DW_AT_TI_symbol_name("_DRV_fault")
    1851                      .dwattr $C$DW$180, DW_AT_data_member_location[DW_OP_plus_uconst 0x14]
    1852                      .dwattr $C$DW$180, DW_AT_accessibility(DW_ACCESS_public)
    1853                      .dwendtag $C$DW$T$58
    1854              
    1855              $C$DW$T$77      .dwtag  DW_TAG_typedef, DW_AT_name("DRV8305_Vars")
    1856                      .dwattr $C$DW$T$77, DW_AT_type(*$C$DW$T$58)
    1857                      .dwattr $C$DW$T$77, DW_AT_language(DW_LANG_C)
    1858              
    1859              $C$DW$T$78      .dwtag  DW_TAG_structure_type
    1860                      .dwattr $C$DW$T$78, DW_AT_byte_size(0x14c)
    1861              $C$DW$181       .dwtag  DW_TAG_member
    1862                      .dwattr $C$DW$181, DW_AT_type(*$C$DW$T$60)
    1863                      .dwattr $C$DW$181, DW_AT_name("PwmARegs")
    1864                      .dwattr $C$DW$181, DW_AT_TI_symbol_name("_PwmARegs")
    1865                      .dwattr $C$DW$181, DW_AT_data_member_location[DW_OP_plus_uconst 0x0]
    1866                      .dwattr $C$DW$181, DW_AT_accessibility(DW_ACCESS_public)
    1867              $C$DW$182       .dwtag  DW_TAG_member
    1868                      .dwattr $C$DW$182, DW_AT_type(*$C$DW$T$60)
    1869                      .dwattr $C$DW$182, DW_AT_name("PwmBRegs")
    1870                      .dwattr $C$DW$182, DW_AT_TI_symbol_name("_PwmBRegs")
    1871                      .dwattr $C$DW$182, DW_AT_data_member_location[DW_OP_plus_uconst 0x2]
    1872                      .dwattr $C$DW$182, DW_AT_accessibility(DW_ACCESS_public)
    1873              $C$DW$183       .dwtag  DW_TAG_member
    1874                      .dwattr $C$DW$183, DW_AT_type(*$C$DW$T$60)
    1875                      .dwattr $C$DW$183, DW_AT_name("PwmCRegs")
    1876                      .dwattr $C$DW$183, DW_AT_TI_symbol_name("_PwmCRegs")
    1877                      .dwattr $C$DW$183, DW_AT_data_member_location[DW_OP_plus_uconst 0x4]
    1878                      .dwattr $C$DW$183, DW_AT_accessibility(DW_ACCESS_public)
    1879              $C$DW$184       .dwtag  DW_TAG_member
    1880                      .dwattr $C$DW$184, DW_AT_type(*$C$DW$T$62)
    1881                      .dwattr $C$DW$184, DW_AT_name("QepRegs")
    1882                      .dwattr $C$DW$184, DW_AT_TI_symbol_name("_QepRegs")
    1883                      .dwattr $C$DW$184, DW_AT_data_member_location[DW_OP_plus_uconst 0x6]
    1884                      .dwattr $C$DW$184, DW_AT_accessibility(DW_ACCESS_public)
    1885              $C$DW$185       .dwtag  DW_TAG_member
    1886                      .dwattr $C$DW$185, DW_AT_type(*$C$DW$T$64)
    1887                      .dwattr $C$DW$185, DW_AT_name("SpiRegs")
    1888                      .dwattr $C$DW$185, DW_AT_TI_symbol_name("_SpiRegs")
    1889                      .dwattr $C$DW$185, DW_AT_data_member_location[DW_OP_plus_uconst 0x8]
    1890                      .dwattr $C$DW$185, DW_AT_accessibility(DW_ACCESS_public)
    1891              $C$DW$186       .dwtag  DW_TAG_member
    1892                      .dwattr $C$DW$186, DW_AT_type(*$C$DW$T$31)
    1893                      .dwattr $C$DW$186, DW_AT_name("drvScsPin")
    1894                      .dwattr $C$DW$186, DW_AT_TI_symbol_name("_drvScsPin")
    1895                      .dwattr $C$DW$186, DW_AT_data_member_location[DW_OP_plus_uconst 0xa]
    1896                      .dwattr $C$DW$186, DW_AT_accessibility(DW_ACCESS_public)
    1897              $C$DW$187       .dwtag  DW_TAG_member
TMS320C2000 Assembler PC v6.4.2 Thu Dec 14 15:26:04 2017

Tools Copyright (c) 1996-2015 Texas Instruments Incorporated
drv8305.asm                                                          PAGE   38

    1898                      .dwattr $C$DW$187, DW_AT_type(*$C$DW$T$19)
    1899                      .dwattr $C$DW$187, DW_AT_name("offset_shntA")
    1900                      .dwattr $C$DW$187, DW_AT_TI_symbol_name("_offset_shntA")
    1901                      .dwattr $C$DW$187, DW_AT_data_member_location[DW_OP_plus_uconst 0xc]
    1902                      .dwattr $C$DW$187, DW_AT_accessibility(DW_ACCESS_public)
    1903              $C$DW$188       .dwtag  DW_TAG_member
    1904                      .dwattr $C$DW$188, DW_AT_type(*$C$DW$T$19)
    1905                      .dwattr $C$DW$188, DW_AT_name("offset_shntB")
    1906                      .dwattr $C$DW$188, DW_AT_TI_symbol_name("_offset_shntB")
    1907                      .dwattr $C$DW$188, DW_AT_data_member_location[DW_OP_plus_uconst 0xe]
    1908                      .dwattr $C$DW$188, DW_AT_accessibility(DW_ACCESS_public)
    1909              $C$DW$189       .dwtag  DW_TAG_member
    1910                      .dwattr $C$DW$189, DW_AT_type(*$C$DW$T$19)
    1911                      .dwattr $C$DW$189, DW_AT_name("offset_shntC")
    1912                      .dwattr $C$DW$189, DW_AT_TI_symbol_name("_offset_shntC")
    1913                      .dwattr $C$DW$189, DW_AT_data_member_location[DW_OP_plus_uconst 0x10]
    1914                      .dwattr $C$DW$189, DW_AT_accessibility(DW_ACCESS_public)
    1915              $C$DW$190       .dwtag  DW_TAG_member
    1916                      .dwattr $C$DW$190, DW_AT_type(*$C$DW$T$19)
    1917                      .dwattr $C$DW$190, DW_AT_name("VdTesting")
    1918                      .dwattr $C$DW$190, DW_AT_TI_symbol_name("_VdTesting")
    1919                      .dwattr $C$DW$190, DW_AT_data_member_location[DW_OP_plus_uconst 0x12]
    1920                      .dwattr $C$DW$190, DW_AT_accessibility(DW_ACCESS_public)
    1921              $C$DW$191       .dwtag  DW_TAG_member
    1922                      .dwattr $C$DW$191, DW_AT_type(*$C$DW$T$19)
    1923                      .dwattr $C$DW$191, DW_AT_name("VqTesting")
    1924                      .dwattr $C$DW$191, DW_AT_TI_symbol_name("_VqTesting")
    1925                      .dwattr $C$DW$191, DW_AT_data_member_location[DW_OP_plus_uconst 0x14]
    1926                      .dwattr $C$DW$191, DW_AT_accessibility(DW_ACCESS_public)
    1927              $C$DW$192       .dwtag  DW_TAG_member
    1928                      .dwattr $C$DW$192, DW_AT_type(*$C$DW$T$19)
    1929                      .dwattr $C$DW$192, DW_AT_name("IdRef")
    1930                      .dwattr $C$DW$192, DW_AT_TI_symbol_name("_IdRef")
    1931                      .dwattr $C$DW$192, DW_AT_data_member_location[DW_OP_plus_uconst 0x16]
    1932                      .dwattr $C$DW$192, DW_AT_accessibility(DW_ACCESS_public)
    1933              $C$DW$193       .dwtag  DW_TAG_member
    1934                      .dwattr $C$DW$193, DW_AT_type(*$C$DW$T$19)
    1935                      .dwattr $C$DW$193, DW_AT_name("IqRef")
    1936                      .dwattr $C$DW$193, DW_AT_TI_symbol_name("_IqRef")
    1937                      .dwattr $C$DW$193, DW_AT_data_member_location[DW_OP_plus_uconst 0x18]
    1938                      .dwattr $C$DW$193, DW_AT_accessibility(DW_ACCESS_public)
    1939              $C$DW$194       .dwtag  DW_TAG_member
    1940                      .dwattr $C$DW$194, DW_AT_type(*$C$DW$T$19)
    1941                      .dwattr $C$DW$194, DW_AT_name("SpeedRef")
    1942                      .dwattr $C$DW$194, DW_AT_TI_symbol_name("_SpeedRef")
    1943                      .dwattr $C$DW$194, DW_AT_data_member_location[DW_OP_plus_uconst 0x1a]
    1944                      .dwattr $C$DW$194, DW_AT_accessibility(DW_ACCESS_public)
    1945              $C$DW$195       .dwtag  DW_TAG_member
    1946                      .dwattr $C$DW$195, DW_AT_type(*$C$DW$T$19)
    1947                      .dwattr $C$DW$195, DW_AT_name("ElecTheta")
    1948                      .dwattr $C$DW$195, DW_AT_TI_symbol_name("_ElecTheta")
    1949                      .dwattr $C$DW$195, DW_AT_data_member_location[DW_OP_plus_uconst 0x1c]
    1950                      .dwattr $C$DW$195, DW_AT_accessibility(DW_ACCESS_public)
    1951              $C$DW$196       .dwtag  DW_TAG_member
    1952                      .dwattr $C$DW$196, DW_AT_type(*$C$DW$T$19)
TMS320C2000 Assembler PC v6.4.2 Thu Dec 14 15:26:04 2017

Tools Copyright (c) 1996-2015 Texas Instruments Incorporated
drv8305.asm                                                          PAGE   39

    1953                      .dwattr $C$DW$196, DW_AT_name("MechTheta")
    1954                      .dwattr $C$DW$196, DW_AT_TI_symbol_name("_MechTheta")
    1955                      .dwattr $C$DW$196, DW_AT_data_member_location[DW_OP_plus_uconst 0x1e]
    1956                      .dwattr $C$DW$196, DW_AT_accessibility(DW_ACCESS_public)
    1957              $C$DW$197       .dwtag  DW_TAG_member
    1958                      .dwattr $C$DW$197, DW_AT_type(*$C$DW$T$40)
    1959                      .dwattr $C$DW$197, DW_AT_name("currentAs")
    1960                      .dwattr $C$DW$197, DW_AT_TI_symbol_name("_currentAs")
    1961                      .dwattr $C$DW$197, DW_AT_data_member_location[DW_OP_plus_uconst 0x20]
    1962                      .dwattr $C$DW$197, DW_AT_accessibility(DW_ACCESS_public)
    1963              $C$DW$198       .dwtag  DW_TAG_member
    1964                      .dwattr $C$DW$198, DW_AT_type(*$C$DW$T$40)
    1965                      .dwattr $C$DW$198, DW_AT_name("currentBs")
    1966                      .dwattr $C$DW$198, DW_AT_TI_symbol_name("_currentBs")
    1967                      .dwattr $C$DW$198, DW_AT_data_member_location[DW_OP_plus_uconst 0x22]
    1968                      .dwattr $C$DW$198, DW_AT_accessibility(DW_ACCESS_public)
    1969              $C$DW$199       .dwtag  DW_TAG_member
    1970                      .dwattr $C$DW$199, DW_AT_type(*$C$DW$T$40)
    1971                      .dwattr $C$DW$199, DW_AT_name("currentCs")
    1972                      .dwattr $C$DW$199, DW_AT_TI_symbol_name("_currentCs")
    1973                      .dwattr $C$DW$199, DW_AT_data_member_location[DW_OP_plus_uconst 0x24]
    1974                      .dwattr $C$DW$199, DW_AT_accessibility(DW_ACCESS_public)
    1975              $C$DW$200       .dwtag  DW_TAG_member
    1976                      .dwattr $C$DW$200, DW_AT_type(*$C$DW$T$38)
    1977                      .dwattr $C$DW$200, DW_AT_name("alignCntr")
    1978                      .dwattr $C$DW$200, DW_AT_TI_symbol_name("_alignCntr")
    1979                      .dwattr $C$DW$200, DW_AT_data_member_location[DW_OP_plus_uconst 0x26]
    1980                      .dwattr $C$DW$200, DW_AT_accessibility(DW_ACCESS_public)
    1981              $C$DW$201       .dwtag  DW_TAG_member
    1982                      .dwattr $C$DW$201, DW_AT_type(*$C$DW$T$38)
    1983                      .dwattr $C$DW$201, DW_AT_name("alignCnt")
    1984                      .dwattr $C$DW$201, DW_AT_TI_symbol_name("_alignCnt")
    1985                      .dwattr $C$DW$201, DW_AT_data_member_location[DW_OP_plus_uconst 0x28]
    1986                      .dwattr $C$DW$201, DW_AT_accessibility(DW_ACCESS_public)
    1987              $C$DW$202       .dwtag  DW_TAG_member
    1988                      .dwattr $C$DW$202, DW_AT_type(*$C$DW$T$31)
    1989                      .dwattr $C$DW$202, DW_AT_name("lsw")
    1990                      .dwattr $C$DW$202, DW_AT_TI_symbol_name("_lsw")
    1991                      .dwattr $C$DW$202, DW_AT_data_member_location[DW_OP_plus_uconst 0x2a]
    1992                      .dwattr $C$DW$202, DW_AT_accessibility(DW_ACCESS_public)
    1993              $C$DW$203       .dwtag  DW_TAG_member
    1994                      .dwattr $C$DW$203, DW_AT_type(*$C$DW$T$31)
    1995                      .dwattr $C$DW$203, DW_AT_name("TripFlagDMC")
    1996                      .dwattr $C$DW$203, DW_AT_TI_symbol_name("_TripFlagDMC")
    1997                      .dwattr $C$DW$203, DW_AT_data_member_location[DW_OP_plus_uconst 0x2b]
    1998                      .dwattr $C$DW$203, DW_AT_accessibility(DW_ACCESS_public)
    1999              $C$DW$204       .dwtag  DW_TAG_member
    2000                      .dwattr $C$DW$204, DW_AT_type(*$C$DW$T$31)
    2001                      .dwattr $C$DW$204, DW_AT_name("clearTripFlagDMC")
    2002                      .dwattr $C$DW$204, DW_AT_TI_symbol_name("_clearTripFlagDMC")
    2003                      .dwattr $C$DW$204, DW_AT_data_member_location[DW_OP_plus_uconst 0x2c]
    2004                      .dwattr $C$DW$204, DW_AT_accessibility(DW_ACCESS_public)
    2005              $C$DW$205       .dwtag  DW_TAG_member
    2006                      .dwattr $C$DW$205, DW_AT_type(*$C$DW$T$31)
    2007                      .dwattr $C$DW$205, DW_AT_name("RunMotor")
TMS320C2000 Assembler PC v6.4.2 Thu Dec 14 15:26:04 2017

Tools Copyright (c) 1996-2015 Texas Instruments Incorporated
drv8305.asm                                                          PAGE   40

    2008                      .dwattr $C$DW$205, DW_AT_TI_symbol_name("_RunMotor")
    2009                      .dwattr $C$DW$205, DW_AT_data_member_location[DW_OP_plus_uconst 0x2d]
    2010                      .dwattr $C$DW$205, DW_AT_accessibility(DW_ACCESS_public)
    2011              $C$DW$206       .dwtag  DW_TAG_member
    2012                      .dwattr $C$DW$206, DW_AT_type(*$C$DW$T$31)
    2013                      .dwattr $C$DW$206, DW_AT_name("SpeedLoopPrescaler")
    2014                      .dwattr $C$DW$206, DW_AT_TI_symbol_name("_SpeedLoopPrescaler")
    2015                      .dwattr $C$DW$206, DW_AT_data_member_location[DW_OP_plus_uconst 0x2e]
    2016                      .dwattr $C$DW$206, DW_AT_accessibility(DW_ACCESS_public)
    2017              $C$DW$207       .dwtag  DW_TAG_member
    2018                      .dwattr $C$DW$207, DW_AT_type(*$C$DW$T$31)
    2019                      .dwattr $C$DW$207, DW_AT_name("SpeedLoopCount")
    2020                      .dwattr $C$DW$207, DW_AT_TI_symbol_name("_SpeedLoopCount")
    2021                      .dwattr $C$DW$207, DW_AT_data_member_location[DW_OP_plus_uconst 0x2f]
    2022                      .dwattr $C$DW$207, DW_AT_accessibility(DW_ACCESS_public)
    2023              $C$DW$208       .dwtag  DW_TAG_member
    2024                      .dwattr $C$DW$208, DW_AT_type(*$C$DW$T$31)
    2025                      .dwattr $C$DW$208, DW_AT_name("PosSenseReverse")
    2026                      .dwattr $C$DW$208, DW_AT_TI_symbol_name("_PosSenseReverse")
    2027                      .dwattr $C$DW$208, DW_AT_data_member_location[DW_OP_plus_uconst 0x30]
    2028                      .dwattr $C$DW$208, DW_AT_accessibility(DW_ACCESS_public)
    2029              $C$DW$209       .dwtag  DW_TAG_member
    2030                      .dwattr $C$DW$209, DW_AT_type(*$C$DW$T$31)
    2031                      .dwattr $C$DW$209, DW_AT_name("newCmdDRV")
    2032                      .dwattr $C$DW$209, DW_AT_TI_symbol_name("_newCmdDRV")
    2033                      .dwattr $C$DW$209, DW_AT_data_member_location[DW_OP_plus_uconst 0x31]
    2034                      .dwattr $C$DW$209, DW_AT_accessibility(DW_ACCESS_public)
    2035              $C$DW$210       .dwtag  DW_TAG_member
    2036                      .dwattr $C$DW$210, DW_AT_type(*$C$DW$T$40)
    2037                      .dwattr $C$DW$210, DW_AT_name("T")
    2038                      .dwattr $C$DW$210, DW_AT_TI_symbol_name("_T")
    2039                      .dwattr $C$DW$210, DW_AT_data_member_location[DW_OP_plus_uconst 0x32]
    2040                      .dwattr $C$DW$210, DW_AT_accessibility(DW_ACCESS_public)
    2041              $C$DW$211       .dwtag  DW_TAG_member
    2042                      .dwattr $C$DW$211, DW_AT_type(*$C$DW$T$65)
    2043                      .dwattr $C$DW$211, DW_AT_name("clarke")
    2044                      .dwattr $C$DW$211, DW_AT_TI_symbol_name("_clarke")
    2045                      .dwattr $C$DW$211, DW_AT_data_member_location[DW_OP_plus_uconst 0x34]
    2046                      .dwattr $C$DW$211, DW_AT_accessibility(DW_ACCESS_public)
    2047              $C$DW$212       .dwtag  DW_TAG_member
    2048                      .dwattr $C$DW$212, DW_AT_type(*$C$DW$T$66)
    2049                      .dwattr $C$DW$212, DW_AT_name("park")
    2050                      .dwattr $C$DW$212, DW_AT_TI_symbol_name("_park")
    2051                      .dwattr $C$DW$212, DW_AT_data_member_location[DW_OP_plus_uconst 0x3e]
    2052                      .dwattr $C$DW$212, DW_AT_accessibility(DW_ACCESS_public)
    2053              $C$DW$213       .dwtag  DW_TAG_member
    2054                      .dwattr $C$DW$213, DW_AT_type(*$C$DW$T$67)
    2055                      .dwattr $C$DW$213, DW_AT_name("ipark")
    2056                      .dwattr $C$DW$213, DW_AT_TI_symbol_name("_ipark")
    2057                      .dwattr $C$DW$213, DW_AT_data_member_location[DW_OP_plus_uconst 0x4c]
    2058                      .dwattr $C$DW$213, DW_AT_accessibility(DW_ACCESS_public)
    2059              $C$DW$214       .dwtag  DW_TAG_member
    2060                      .dwattr $C$DW$214, DW_AT_type(*$C$DW$T$68)
    2061                      .dwattr $C$DW$214, DW_AT_name("pi_pos")
    2062                      .dwattr $C$DW$214, DW_AT_TI_symbol_name("_pi_pos")
TMS320C2000 Assembler PC v6.4.2 Thu Dec 14 15:26:04 2017

Tools Copyright (c) 1996-2015 Texas Instruments Incorporated
drv8305.asm                                                          PAGE   41

    2063                      .dwattr $C$DW$214, DW_AT_data_member_location[DW_OP_plus_uconst 0x5a]
    2064                      .dwattr $C$DW$214, DW_AT_accessibility(DW_ACCESS_public)
    2065              $C$DW$215       .dwtag  DW_TAG_member
    2066                      .dwattr $C$DW$215, DW_AT_type(*$C$DW$T$69)
    2067                      .dwattr $C$DW$215, DW_AT_name("pid_spd")
    2068                      .dwattr $C$DW$215, DW_AT_TI_symbol_name("_pid_spd")
    2069                      .dwattr $C$DW$215, DW_AT_data_member_location[DW_OP_plus_uconst 0x72]
    2070                      .dwattr $C$DW$215, DW_AT_accessibility(DW_ACCESS_public)
    2071              $C$DW$216       .dwtag  DW_TAG_member
    2072                      .dwattr $C$DW$216, DW_AT_type(*$C$DW$T$68)
    2073                      .dwattr $C$DW$216, DW_AT_name("pi_id")
    2074                      .dwattr $C$DW$216, DW_AT_TI_symbol_name("_pi_id")
    2075                      .dwattr $C$DW$216, DW_AT_data_member_location[DW_OP_plus_uconst 0x9a]
    2076                      .dwattr $C$DW$216, DW_AT_accessibility(DW_ACCESS_public)
    2077              $C$DW$217       .dwtag  DW_TAG_member
    2078                      .dwattr $C$DW$217, DW_AT_type(*$C$DW$T$279)
    2079                      .dwattr $C$DW$217, DW_AT_name("pi_iq")
    2080                      .dwattr $C$DW$217, DW_AT_TI_symbol_name("_pi_iq")
    2081                      .dwattr $C$DW$217, DW_AT_data_member_location[DW_OP_plus_uconst 0xb2]
    2082                      .dwattr $C$DW$217, DW_AT_accessibility(DW_ACCESS_public)
    2083              $C$DW$218       .dwtag  DW_TAG_member
    2084                      .dwattr $C$DW$218, DW_AT_type(*$C$DW$T$70)
    2085                      .dwattr $C$DW$218, DW_AT_name("svgen")
    2086                      .dwattr $C$DW$218, DW_AT_TI_symbol_name("_svgen")
    2087                      .dwattr $C$DW$218, DW_AT_data_member_location[DW_OP_plus_uconst 0xc6]
    2088                      .dwattr $C$DW$218, DW_AT_accessibility(DW_ACCESS_public)
    2089              $C$DW$219       .dwtag  DW_TAG_member
    2090                      .dwattr $C$DW$219, DW_AT_type(*$C$DW$T$71)
    2091                      .dwattr $C$DW$219, DW_AT_name("rc")
    2092                      .dwattr $C$DW$219, DW_AT_TI_symbol_name("_rc")
    2093                      .dwattr $C$DW$219, DW_AT_data_member_location[DW_OP_plus_uconst 0xd8]
    2094                      .dwattr $C$DW$219, DW_AT_accessibility(DW_ACCESS_public)
    2095              $C$DW$220       .dwtag  DW_TAG_member
    2096                      .dwattr $C$DW$220, DW_AT_type(*$C$DW$T$72)
    2097                      .dwattr $C$DW$220, DW_AT_name("rg")
    2098                      .dwattr $C$DW$220, DW_AT_TI_symbol_name("_rg")
    2099                      .dwattr $C$DW$220, DW_AT_data_member_location[DW_OP_plus_uconst 0xe8]
    2100                      .dwattr $C$DW$220, DW_AT_accessibility(DW_ACCESS_public)
    2101              $C$DW$221       .dwtag  DW_TAG_member
    2102                      .dwattr $C$DW$221, DW_AT_type(*$C$DW$T$73)
    2103                      .dwattr $C$DW$221, DW_AT_name("volt")
    2104                      .dwattr $C$DW$221, DW_AT_TI_symbol_name("_volt")
    2105                      .dwattr $C$DW$221, DW_AT_data_member_location[DW_OP_plus_uconst 0xf4]
    2106                      .dwattr $C$DW$221, DW_AT_accessibility(DW_ACCESS_public)
    2107              $C$DW$222       .dwtag  DW_TAG_member
    2108                      .dwattr $C$DW$222, DW_AT_type(*$C$DW$T$74)
    2109                      .dwattr $C$DW$222, DW_AT_name("speed")
    2110                      .dwattr $C$DW$222, DW_AT_TI_symbol_name("_speed")
    2111                      .dwattr $C$DW$222, DW_AT_data_member_location[DW_OP_plus_uconst 0x10a]
    2112                      .dwattr $C$DW$222, DW_AT_accessibility(DW_ACCESS_public)
    2113              $C$DW$223       .dwtag  DW_TAG_member
    2114                      .dwattr $C$DW$223, DW_AT_type(*$C$DW$T$75)
    2115                      .dwattr $C$DW$223, DW_AT_name("qep")
    2116                      .dwattr $C$DW$223, DW_AT_TI_symbol_name("_qep")
    2117                      .dwattr $C$DW$223, DW_AT_data_member_location[DW_OP_plus_uconst 0x11e]
TMS320C2000 Assembler PC v6.4.2 Thu Dec 14 15:26:04 2017

Tools Copyright (c) 1996-2015 Texas Instruments Incorporated
drv8305.asm                                                          PAGE   42

    2118                      .dwattr $C$DW$223, DW_AT_accessibility(DW_ACCESS_public)
    2119              $C$DW$224       .dwtag  DW_TAG_member
    2120                      .dwattr $C$DW$224, DW_AT_type(*$C$DW$T$76)
    2121                      .dwattr $C$DW$224, DW_AT_name("drv8301")
    2122                      .dwattr $C$DW$224, DW_AT_TI_symbol_name("_drv8301")
    2123                      .dwattr $C$DW$224, DW_AT_data_member_location[DW_OP_plus_uconst 0x130]
    2124                      .dwattr $C$DW$224, DW_AT_accessibility(DW_ACCESS_public)
    2125              $C$DW$225       .dwtag  DW_TAG_member
    2126                      .dwattr $C$DW$225, DW_AT_type(*$C$DW$T$77)
    2127                      .dwattr $C$DW$225, DW_AT_name("drv8305")
    2128                      .dwattr $C$DW$225, DW_AT_TI_symbol_name("_drv8305")
    2129                      .dwattr $C$DW$225, DW_AT_data_member_location[DW_OP_plus_uconst 0x137]
    2130                      .dwattr $C$DW$225, DW_AT_accessibility(DW_ACCESS_public)
    2131                      .dwendtag $C$DW$T$78
    2132              
    2133              $C$DW$T$280     .dwtag  DW_TAG_typedef, DW_AT_name("MOTOR_VARS")
    2134                      .dwattr $C$DW$T$280, DW_AT_type(*$C$DW$T$78)
    2135                      .dwattr $C$DW$T$280, DW_AT_language(DW_LANG_C)
    2136              $C$DW$T$281     .dwtag  DW_TAG_pointer_type
    2137                      .dwattr $C$DW$T$281, DW_AT_type(*$C$DW$T$280)
    2138                      .dwattr $C$DW$T$281, DW_AT_address_class(0x20)
    2139              
    2140              $C$DW$T$79      .dwtag  DW_TAG_union_type
    2141                      .dwattr $C$DW$T$79, DW_AT_byte_size(0x01)
    2142              $C$DW$226       .dwtag  DW_TAG_member
    2143                      .dwattr $C$DW$226, DW_AT_type(*$C$DW$T$31)
    2144                      .dwattr $C$DW$226, DW_AT_name("all")
    2145                      .dwattr $C$DW$226, DW_AT_TI_symbol_name("_all")
    2146                      .dwattr $C$DW$226, DW_AT_data_member_location[DW_OP_plus_uconst 0x0]
    2147                      .dwattr $C$DW$226, DW_AT_accessibility(DW_ACCESS_public)
    2148              $C$DW$227       .dwtag  DW_TAG_member
    2149                      .dwattr $C$DW$227, DW_AT_type(*$C$DW$T$146)
    2150                      .dwattr $C$DW$227, DW_AT_name("bit")
    2151                      .dwattr $C$DW$227, DW_AT_TI_symbol_name("_bit")
    2152                      .dwattr $C$DW$227, DW_AT_data_member_location[DW_OP_plus_uconst 0x0]
    2153                      .dwattr $C$DW$227, DW_AT_accessibility(DW_ACCESS_public)
    2154                      .dwendtag $C$DW$T$79
    2155              
    2156              $C$DW$T$42      .dwtag  DW_TAG_typedef, DW_AT_name("DRV8301_STATUS_REG_1")
    2157                      .dwattr $C$DW$T$42, DW_AT_type(*$C$DW$T$79)
    2158                      .dwattr $C$DW$T$42, DW_AT_language(DW_LANG_C)
    2159              
    2160              $C$DW$T$80      .dwtag  DW_TAG_union_type
    2161                      .dwattr $C$DW$T$80, DW_AT_byte_size(0x01)
    2162              $C$DW$228       .dwtag  DW_TAG_member
    2163                      .dwattr $C$DW$228, DW_AT_type(*$C$DW$T$31)
    2164                      .dwattr $C$DW$228, DW_AT_name("all")
    2165                      .dwattr $C$DW$228, DW_AT_TI_symbol_name("_all")
    2166                      .dwattr $C$DW$228, DW_AT_data_member_location[DW_OP_plus_uconst 0x0]
    2167                      .dwattr $C$DW$228, DW_AT_accessibility(DW_ACCESS_public)
    2168              $C$DW$229       .dwtag  DW_TAG_member
    2169                      .dwattr $C$DW$229, DW_AT_type(*$C$DW$T$147)
    2170                      .dwattr $C$DW$229, DW_AT_name("bit")
    2171                      .dwattr $C$DW$229, DW_AT_TI_symbol_name("_bit")
    2172                      .dwattr $C$DW$229, DW_AT_data_member_location[DW_OP_plus_uconst 0x0]
TMS320C2000 Assembler PC v6.4.2 Thu Dec 14 15:26:04 2017

Tools Copyright (c) 1996-2015 Texas Instruments Incorporated
drv8305.asm                                                          PAGE   43

    2173                      .dwattr $C$DW$229, DW_AT_accessibility(DW_ACCESS_public)
    2174                      .dwendtag $C$DW$T$80
    2175              
    2176              $C$DW$T$43      .dwtag  DW_TAG_typedef, DW_AT_name("DRV8301_STATUS_REG_2")
    2177                      .dwattr $C$DW$T$43, DW_AT_type(*$C$DW$T$80)
    2178                      .dwattr $C$DW$T$43, DW_AT_language(DW_LANG_C)
    2179              
    2180              $C$DW$T$81      .dwtag  DW_TAG_union_type
    2181                      .dwattr $C$DW$T$81, DW_AT_byte_size(0x01)
    2182              $C$DW$230       .dwtag  DW_TAG_member
    2183                      .dwattr $C$DW$230, DW_AT_type(*$C$DW$T$31)
    2184                      .dwattr $C$DW$230, DW_AT_name("all")
    2185                      .dwattr $C$DW$230, DW_AT_TI_symbol_name("_all")
    2186                      .dwattr $C$DW$230, DW_AT_data_member_location[DW_OP_plus_uconst 0x0]
    2187                      .dwattr $C$DW$230, DW_AT_accessibility(DW_ACCESS_public)
    2188              $C$DW$231       .dwtag  DW_TAG_member
    2189                      .dwattr $C$DW$231, DW_AT_type(*$C$DW$T$144)
    2190                      .dwattr $C$DW$231, DW_AT_name("bit")
    2191                      .dwattr $C$DW$231, DW_AT_TI_symbol_name("_bit")
    2192                      .dwattr $C$DW$231, DW_AT_data_member_location[DW_OP_plus_uconst 0x0]
    2193                      .dwattr $C$DW$231, DW_AT_accessibility(DW_ACCESS_public)
    2194                      .dwendtag $C$DW$T$81
    2195              
    2196              $C$DW$T$44      .dwtag  DW_TAG_typedef, DW_AT_name("DRV8301_CONTROL_REG_1")
    2197                      .dwattr $C$DW$T$44, DW_AT_type(*$C$DW$T$81)
    2198                      .dwattr $C$DW$T$44, DW_AT_language(DW_LANG_C)
    2199              
    2200              $C$DW$T$82      .dwtag  DW_TAG_union_type
    2201                      .dwattr $C$DW$T$82, DW_AT_byte_size(0x01)
    2202              $C$DW$232       .dwtag  DW_TAG_member
    2203                      .dwattr $C$DW$232, DW_AT_type(*$C$DW$T$31)
    2204                      .dwattr $C$DW$232, DW_AT_name("all")
    2205                      .dwattr $C$DW$232, DW_AT_TI_symbol_name("_all")
    2206                      .dwattr $C$DW$232, DW_AT_data_member_location[DW_OP_plus_uconst 0x0]
    2207                      .dwattr $C$DW$232, DW_AT_accessibility(DW_ACCESS_public)
    2208              $C$DW$233       .dwtag  DW_TAG_member
    2209                      .dwattr $C$DW$233, DW_AT_type(*$C$DW$T$145)
    2210                      .dwattr $C$DW$233, DW_AT_name("bit")
    2211                      .dwattr $C$DW$233, DW_AT_TI_symbol_name("_bit")
    2212                      .dwattr $C$DW$233, DW_AT_data_member_location[DW_OP_plus_uconst 0x0]
    2213                      .dwattr $C$DW$233, DW_AT_accessibility(DW_ACCESS_public)
    2214                      .dwendtag $C$DW$T$82
    2215              
    2216              $C$DW$T$45      .dwtag  DW_TAG_typedef, DW_AT_name("DRV8301_CONTROL_REG_2")
    2217                      .dwattr $C$DW$T$45, DW_AT_type(*$C$DW$T$82)
    2218                      .dwattr $C$DW$T$45, DW_AT_language(DW_LANG_C)
    2219              
    2220              $C$DW$T$83      .dwtag  DW_TAG_union_type
    2221                      .dwattr $C$DW$T$83, DW_AT_byte_size(0x01)
    2222              $C$DW$234       .dwtag  DW_TAG_member
    2223                      .dwattr $C$DW$234, DW_AT_type(*$C$DW$T$31)
    2224                      .dwattr $C$DW$234, DW_AT_name("all")
    2225                      .dwattr $C$DW$234, DW_AT_TI_symbol_name("_all")
    2226                      .dwattr $C$DW$234, DW_AT_data_member_location[DW_OP_plus_uconst 0x0]
    2227                      .dwattr $C$DW$234, DW_AT_accessibility(DW_ACCESS_public)
TMS320C2000 Assembler PC v6.4.2 Thu Dec 14 15:26:04 2017

Tools Copyright (c) 1996-2015 Texas Instruments Incorporated
drv8305.asm                                                          PAGE   44

    2228              $C$DW$235       .dwtag  DW_TAG_member
    2229                      .dwattr $C$DW$235, DW_AT_type(*$C$DW$T$158)
    2230                      .dwattr $C$DW$235, DW_AT_name("bit")
    2231                      .dwattr $C$DW$235, DW_AT_TI_symbol_name("_bit")
    2232                      .dwattr $C$DW$235, DW_AT_data_member_location[DW_OP_plus_uconst 0x0]
    2233                      .dwattr $C$DW$235, DW_AT_accessibility(DW_ACCESS_public)
    2234                      .dwendtag $C$DW$T$83
    2235              
    2236              $C$DW$T$47      .dwtag  DW_TAG_typedef, DW_AT_name("DRV8305_WWD_REG")
    2237                      .dwattr $C$DW$T$47, DW_AT_type(*$C$DW$T$83)
    2238                      .dwattr $C$DW$T$47, DW_AT_language(DW_LANG_C)
    2239              
    2240              $C$DW$T$84      .dwtag  DW_TAG_union_type
    2241                      .dwattr $C$DW$T$84, DW_AT_byte_size(0x01)
    2242              $C$DW$236       .dwtag  DW_TAG_member
    2243                      .dwattr $C$DW$236, DW_AT_type(*$C$DW$T$31)
    2244                      .dwattr $C$DW$236, DW_AT_name("all")
    2245                      .dwattr $C$DW$236, DW_AT_TI_symbol_name("_all")
    2246                      .dwattr $C$DW$236, DW_AT_data_member_location[DW_OP_plus_uconst 0x0]
    2247                      .dwattr $C$DW$236, DW_AT_accessibility(DW_ACCESS_public)
    2248              $C$DW$237       .dwtag  DW_TAG_member
    2249                      .dwattr $C$DW$237, DW_AT_type(*$C$DW$T$154)
    2250                      .dwattr $C$DW$237, DW_AT_name("bit")
    2251                      .dwattr $C$DW$237, DW_AT_TI_symbol_name("_bit")
    2252                      .dwattr $C$DW$237, DW_AT_data_member_location[DW_OP_plus_uconst 0x0]
    2253                      .dwattr $C$DW$237, DW_AT_accessibility(DW_ACCESS_public)
    2254                      .dwendtag $C$DW$T$84
    2255              
    2256              $C$DW$T$48      .dwtag  DW_TAG_typedef, DW_AT_name("DRV8305_OV_VDS_FAULTS_REG")
    2257                      .dwattr $C$DW$T$48, DW_AT_type(*$C$DW$T$84)
    2258                      .dwattr $C$DW$T$48, DW_AT_language(DW_LANG_C)
    2259              
    2260              $C$DW$T$85      .dwtag  DW_TAG_union_type
    2261                      .dwattr $C$DW$T$85, DW_AT_byte_size(0x01)
    2262              $C$DW$238       .dwtag  DW_TAG_member
    2263                      .dwattr $C$DW$238, DW_AT_type(*$C$DW$T$31)
    2264                      .dwattr $C$DW$238, DW_AT_name("all")
    2265                      .dwattr $C$DW$238, DW_AT_TI_symbol_name("_all")
    2266                      .dwattr $C$DW$238, DW_AT_data_member_location[DW_OP_plus_uconst 0x0]
    2267                      .dwattr $C$DW$238, DW_AT_accessibility(DW_ACCESS_public)
    2268              $C$DW$239       .dwtag  DW_TAG_member
    2269                      .dwattr $C$DW$239, DW_AT_type(*$C$DW$T$151)
    2270                      .dwattr $C$DW$239, DW_AT_name("bit")
    2271                      .dwattr $C$DW$239, DW_AT_TI_symbol_name("_bit")
    2272                      .dwattr $C$DW$239, DW_AT_data_member_location[DW_OP_plus_uconst 0x0]
    2273                      .dwattr $C$DW$239, DW_AT_accessibility(DW_ACCESS_public)
    2274                      .dwendtag $C$DW$T$85
    2275              
    2276              $C$DW$T$49      .dwtag  DW_TAG_typedef, DW_AT_name("DRV8305_IC_FAULTS_REG")
    2277                      .dwattr $C$DW$T$49, DW_AT_type(*$C$DW$T$85)
    2278                      .dwattr $C$DW$T$49, DW_AT_language(DW_LANG_C)
    2279              
    2280              $C$DW$T$86      .dwtag  DW_TAG_union_type
    2281                      .dwattr $C$DW$T$86, DW_AT_byte_size(0x01)
    2282              $C$DW$240       .dwtag  DW_TAG_member
TMS320C2000 Assembler PC v6.4.2 Thu Dec 14 15:26:04 2017

Tools Copyright (c) 1996-2015 Texas Instruments Incorporated
drv8305.asm                                                          PAGE   45

    2283                      .dwattr $C$DW$240, DW_AT_type(*$C$DW$T$31)
    2284                      .dwattr $C$DW$240, DW_AT_name("all")
    2285                      .dwattr $C$DW$240, DW_AT_TI_symbol_name("_all")
    2286                      .dwattr $C$DW$240, DW_AT_data_member_location[DW_OP_plus_uconst 0x0]
    2287                      .dwattr $C$DW$240, DW_AT_accessibility(DW_ACCESS_public)
    2288              $C$DW$241       .dwtag  DW_TAG_member
    2289                      .dwattr $C$DW$241, DW_AT_type(*$C$DW$T$149)
    2290                      .dwattr $C$DW$241, DW_AT_name("bit")
    2291                      .dwattr $C$DW$241, DW_AT_TI_symbol_name("_bit")
    2292                      .dwattr $C$DW$241, DW_AT_data_member_location[DW_OP_plus_uconst 0x0]
    2293                      .dwattr $C$DW$241, DW_AT_accessibility(DW_ACCESS_public)
    2294                      .dwendtag $C$DW$T$86
    2295              
    2296              $C$DW$T$50      .dwtag  DW_TAG_typedef, DW_AT_name("DRV8305_GD_VGS_FAULTS_REG")
    2297                      .dwattr $C$DW$T$50, DW_AT_type(*$C$DW$T$86)
    2298                      .dwattr $C$DW$T$50, DW_AT_language(DW_LANG_C)
    2299              
    2300              $C$DW$T$87      .dwtag  DW_TAG_union_type
    2301                      .dwattr $C$DW$T$87, DW_AT_byte_size(0x01)
    2302              $C$DW$242       .dwtag  DW_TAG_member
    2303                      .dwattr $C$DW$242, DW_AT_type(*$C$DW$T$31)
    2304                      .dwattr $C$DW$242, DW_AT_name("all")
    2305                      .dwattr $C$DW$242, DW_AT_TI_symbol_name("_all")
    2306                      .dwattr $C$DW$242, DW_AT_data_member_location[DW_OP_plus_uconst 0x0]
    2307                      .dwattr $C$DW$242, DW_AT_accessibility(DW_ACCESS_public)
    2308              $C$DW$243       .dwtag  DW_TAG_member
    2309                      .dwattr $C$DW$243, DW_AT_type(*$C$DW$T$150)
    2310                      .dwattr $C$DW$243, DW_AT_name("bit")
    2311                      .dwattr $C$DW$243, DW_AT_TI_symbol_name("_bit")
    2312                      .dwattr $C$DW$243, DW_AT_data_member_location[DW_OP_plus_uconst 0x0]
    2313                      .dwattr $C$DW$243, DW_AT_accessibility(DW_ACCESS_public)
    2314                      .dwendtag $C$DW$T$87
    2315              
    2316              $C$DW$T$51      .dwtag  DW_TAG_typedef, DW_AT_name("DRV8305_HS_GATE_DRIVER_CNTRL_REG")
    2317                      .dwattr $C$DW$T$51, DW_AT_type(*$C$DW$T$87)
    2318                      .dwattr $C$DW$T$51, DW_AT_language(DW_LANG_C)
    2319              
    2320              $C$DW$T$88      .dwtag  DW_TAG_union_type
    2321                      .dwattr $C$DW$T$88, DW_AT_byte_size(0x01)
    2322              $C$DW$244       .dwtag  DW_TAG_member
    2323                      .dwattr $C$DW$244, DW_AT_type(*$C$DW$T$31)
    2324                      .dwattr $C$DW$244, DW_AT_name("all")
    2325                      .dwattr $C$DW$244, DW_AT_TI_symbol_name("_all")
    2326                      .dwattr $C$DW$244, DW_AT_data_member_location[DW_OP_plus_uconst 0x0]
    2327                      .dwattr $C$DW$244, DW_AT_accessibility(DW_ACCESS_public)
    2328              $C$DW$245       .dwtag  DW_TAG_member
    2329                      .dwattr $C$DW$245, DW_AT_type(*$C$DW$T$153)
    2330                      .dwattr $C$DW$245, DW_AT_name("bit")
    2331                      .dwattr $C$DW$245, DW_AT_TI_symbol_name("_bit")
    2332                      .dwattr $C$DW$245, DW_AT_data_member_location[DW_OP_plus_uconst 0x0]
    2333                      .dwattr $C$DW$245, DW_AT_accessibility(DW_ACCESS_public)
    2334                      .dwendtag $C$DW$T$88
    2335              
    2336              $C$DW$T$52      .dwtag  DW_TAG_typedef, DW_AT_name("DRV8305_LS_GATE_DRIVER_CNTRL_REG")
    2337                      .dwattr $C$DW$T$52, DW_AT_type(*$C$DW$T$88)
TMS320C2000 Assembler PC v6.4.2 Thu Dec 14 15:26:04 2017

Tools Copyright (c) 1996-2015 Texas Instruments Incorporated
drv8305.asm                                                          PAGE   46

    2338                      .dwattr $C$DW$T$52, DW_AT_language(DW_LANG_C)
    2339              
    2340              $C$DW$T$89      .dwtag  DW_TAG_union_type
    2341                      .dwattr $C$DW$T$89, DW_AT_byte_size(0x01)
    2342              $C$DW$246       .dwtag  DW_TAG_member
    2343                      .dwattr $C$DW$246, DW_AT_type(*$C$DW$T$31)
    2344                      .dwattr $C$DW$246, DW_AT_name("all")
    2345                      .dwattr $C$DW$246, DW_AT_TI_symbol_name("_all")
    2346                      .dwattr $C$DW$246, DW_AT_data_member_location[DW_OP_plus_uconst 0x0]
    2347                      .dwattr $C$DW$246, DW_AT_accessibility(DW_ACCESS_public)
    2348              $C$DW$247       .dwtag  DW_TAG_member
    2349                      .dwattr $C$DW$247, DW_AT_type(*$C$DW$T$148)
    2350                      .dwattr $C$DW$247, DW_AT_name("bit")
    2351                      .dwattr $C$DW$247, DW_AT_TI_symbol_name("_bit")
    2352                      .dwattr $C$DW$247, DW_AT_data_member_location[DW_OP_plus_uconst 0x0]
    2353                      .dwattr $C$DW$247, DW_AT_accessibility(DW_ACCESS_public)
    2354                      .dwendtag $C$DW$T$89
    2355              
    2356              $C$DW$T$53      .dwtag  DW_TAG_typedef, DW_AT_name("DRV8305_GD_CNTRL_REG")
    2357                      .dwattr $C$DW$T$53, DW_AT_type(*$C$DW$T$89)
    2358                      .dwattr $C$DW$T$53, DW_AT_language(DW_LANG_C)
    2359              
    2360              $C$DW$T$90      .dwtag  DW_TAG_union_type
    2361                      .dwattr $C$DW$T$90, DW_AT_byte_size(0x01)
    2362              $C$DW$248       .dwtag  DW_TAG_member
    2363                      .dwattr $C$DW$248, DW_AT_type(*$C$DW$T$31)
    2364                      .dwattr $C$DW$248, DW_AT_name("all")
    2365                      .dwattr $C$DW$248, DW_AT_TI_symbol_name("_all")
    2366                      .dwattr $C$DW$248, DW_AT_data_member_location[DW_OP_plus_uconst 0x0]
    2367                      .dwattr $C$DW$248, DW_AT_accessibility(DW_ACCESS_public)
    2368              $C$DW$249       .dwtag  DW_TAG_member
    2369                      .dwattr $C$DW$249, DW_AT_type(*$C$DW$T$152)
    2370                      .dwattr $C$DW$249, DW_AT_name("bit")
    2371                      .dwattr $C$DW$249, DW_AT_TI_symbol_name("_bit")
    2372                      .dwattr $C$DW$249, DW_AT_data_member_location[DW_OP_plus_uconst 0x0]
    2373                      .dwattr $C$DW$249, DW_AT_accessibility(DW_ACCESS_public)
    2374                      .dwendtag $C$DW$T$90
    2375              
    2376              $C$DW$T$54      .dwtag  DW_TAG_typedef, DW_AT_name("DRV8305_IC_OPS_REG")
    2377                      .dwattr $C$DW$T$54, DW_AT_type(*$C$DW$T$90)
    2378                      .dwattr $C$DW$T$54, DW_AT_language(DW_LANG_C)
    2379              
    2380              $C$DW$T$91      .dwtag  DW_TAG_union_type
    2381                      .dwattr $C$DW$T$91, DW_AT_byte_size(0x01)
    2382              $C$DW$250       .dwtag  DW_TAG_member
    2383                      .dwattr $C$DW$250, DW_AT_type(*$C$DW$T$31)
    2384                      .dwattr $C$DW$250, DW_AT_name("all")
    2385                      .dwattr $C$DW$250, DW_AT_TI_symbol_name("_all")
    2386                      .dwattr $C$DW$250, DW_AT_data_member_location[DW_OP_plus_uconst 0x0]
    2387                      .dwattr $C$DW$250, DW_AT_accessibility(DW_ACCESS_public)
    2388              $C$DW$251       .dwtag  DW_TAG_member
    2389                      .dwattr $C$DW$251, DW_AT_type(*$C$DW$T$155)
    2390                      .dwattr $C$DW$251, DW_AT_name("bit")
    2391                      .dwattr $C$DW$251, DW_AT_TI_symbol_name("_bit")
    2392                      .dwattr $C$DW$251, DW_AT_data_member_location[DW_OP_plus_uconst 0x0]
TMS320C2000 Assembler PC v6.4.2 Thu Dec 14 15:26:04 2017

Tools Copyright (c) 1996-2015 Texas Instruments Incorporated
drv8305.asm                                                          PAGE   47

    2393                      .dwattr $C$DW$251, DW_AT_accessibility(DW_ACCESS_public)
    2394                      .dwendtag $C$DW$T$91
    2395              
    2396              $C$DW$T$55      .dwtag  DW_TAG_typedef, DW_AT_name("DRV8305_SHUNT_AMP_CNTRL_REG")
    2397                      .dwattr $C$DW$T$55, DW_AT_type(*$C$DW$T$91)
    2398                      .dwattr $C$DW$T$55, DW_AT_language(DW_LANG_C)
    2399              
    2400              $C$DW$T$92      .dwtag  DW_TAG_union_type
    2401                      .dwattr $C$DW$T$92, DW_AT_byte_size(0x01)
    2402              $C$DW$252       .dwtag  DW_TAG_member
    2403                      .dwattr $C$DW$252, DW_AT_type(*$C$DW$T$31)
    2404                      .dwattr $C$DW$252, DW_AT_name("all")
    2405                      .dwattr $C$DW$252, DW_AT_TI_symbol_name("_all")
    2406                      .dwattr $C$DW$252, DW_AT_data_member_location[DW_OP_plus_uconst 0x0]
    2407                      .dwattr $C$DW$252, DW_AT_accessibility(DW_ACCESS_public)
    2408              $C$DW$253       .dwtag  DW_TAG_member
    2409                      .dwattr $C$DW$253, DW_AT_type(*$C$DW$T$157)
    2410                      .dwattr $C$DW$253, DW_AT_name("bit")
    2411                      .dwattr $C$DW$253, DW_AT_TI_symbol_name("_bit")
    2412                      .dwattr $C$DW$253, DW_AT_data_member_location[DW_OP_plus_uconst 0x0]
    2413                      .dwattr $C$DW$253, DW_AT_accessibility(DW_ACCESS_public)
    2414                      .dwendtag $C$DW$T$92
    2415              
    2416              $C$DW$T$56      .dwtag  DW_TAG_typedef, DW_AT_name("DRV8305_VREG_CNTRL_REG")
    2417                      .dwattr $C$DW$T$56, DW_AT_type(*$C$DW$T$92)
    2418                      .dwattr $C$DW$T$56, DW_AT_language(DW_LANG_C)
    2419              
    2420              $C$DW$T$93      .dwtag  DW_TAG_union_type
    2421                      .dwattr $C$DW$T$93, DW_AT_byte_size(0x01)
    2422              $C$DW$254       .dwtag  DW_TAG_member
    2423                      .dwattr $C$DW$254, DW_AT_type(*$C$DW$T$31)
    2424                      .dwattr $C$DW$254, DW_AT_name("all")
    2425                      .dwattr $C$DW$254, DW_AT_TI_symbol_name("_all")
    2426                      .dwattr $C$DW$254, DW_AT_data_member_location[DW_OP_plus_uconst 0x0]
    2427                      .dwattr $C$DW$254, DW_AT_accessibility(DW_ACCESS_public)
    2428              $C$DW$255       .dwtag  DW_TAG_member
    2429                      .dwattr $C$DW$255, DW_AT_type(*$C$DW$T$156)
    2430                      .dwattr $C$DW$255, DW_AT_name("bit")
    2431                      .dwattr $C$DW$255, DW_AT_TI_symbol_name("_bit")
    2432                      .dwattr $C$DW$255, DW_AT_data_member_location[DW_OP_plus_uconst 0x0]
    2433                      .dwattr $C$DW$255, DW_AT_accessibility(DW_ACCESS_public)
    2434                      .dwendtag $C$DW$T$93
    2435              
    2436              $C$DW$T$57      .dwtag  DW_TAG_typedef, DW_AT_name("DRV8305_VDS_SNS_CNTRL_REG")
    2437                      .dwattr $C$DW$T$57, DW_AT_type(*$C$DW$T$93)
    2438                      .dwattr $C$DW$T$57, DW_AT_language(DW_LANG_C)
    2439              
    2440              $C$DW$T$94      .dwtag  DW_TAG_structure_type
    2441                      .dwattr $C$DW$T$94, DW_AT_name("AQCSFRC_BITS")
    2442                      .dwattr $C$DW$T$94, DW_AT_byte_size(0x01)
    2443              $C$DW$256       .dwtag  DW_TAG_member
    2444                      .dwattr $C$DW$256, DW_AT_type(*$C$DW$T$31)
    2445                      .dwattr $C$DW$256, DW_AT_name("CSFA")
    2446                      .dwattr $C$DW$256, DW_AT_TI_symbol_name("_CSFA")
    2447                      .dwattr $C$DW$256, DW_AT_bit_offset(0x0e), DW_AT_bit_size(0x02)
TMS320C2000 Assembler PC v6.4.2 Thu Dec 14 15:26:04 2017

Tools Copyright (c) 1996-2015 Texas Instruments Incorporated
drv8305.asm                                                          PAGE   48

    2448                      .dwattr $C$DW$256, DW_AT_data_member_location[DW_OP_plus_uconst 0x0]
    2449                      .dwattr $C$DW$256, DW_AT_accessibility(DW_ACCESS_public)
    2450              $C$DW$257       .dwtag  DW_TAG_member
    2451                      .dwattr $C$DW$257, DW_AT_type(*$C$DW$T$31)
    2452                      .dwattr $C$DW$257, DW_AT_name("CSFB")
    2453                      .dwattr $C$DW$257, DW_AT_TI_symbol_name("_CSFB")
    2454                      .dwattr $C$DW$257, DW_AT_bit_offset(0x0c), DW_AT_bit_size(0x02)
    2455                      .dwattr $C$DW$257, DW_AT_data_member_location[DW_OP_plus_uconst 0x0]
    2456                      .dwattr $C$DW$257, DW_AT_accessibility(DW_ACCESS_public)
    2457              $C$DW$258       .dwtag  DW_TAG_member
    2458                      .dwattr $C$DW$258, DW_AT_type(*$C$DW$T$31)
    2459                      .dwattr $C$DW$258, DW_AT_name("rsvd1")
    2460                      .dwattr $C$DW$258, DW_AT_TI_symbol_name("_rsvd1")
    2461                      .dwattr $C$DW$258, DW_AT_bit_offset(0x00), DW_AT_bit_size(0x0c)
    2462                      .dwattr $C$DW$258, DW_AT_data_member_location[DW_OP_plus_uconst 0x0]
    2463                      .dwattr $C$DW$258, DW_AT_accessibility(DW_ACCESS_public)
    2464                      .dwendtag $C$DW$T$94
    2465              
    2466              
    2467              $C$DW$T$95      .dwtag  DW_TAG_union_type
    2468                      .dwattr $C$DW$T$95, DW_AT_name("AQCSFRC_REG")
    2469                      .dwattr $C$DW$T$95, DW_AT_byte_size(0x01)
    2470              $C$DW$259       .dwtag  DW_TAG_member
    2471                      .dwattr $C$DW$259, DW_AT_type(*$C$DW$T$31)
    2472                      .dwattr $C$DW$259, DW_AT_name("all")
    2473                      .dwattr $C$DW$259, DW_AT_TI_symbol_name("_all")
    2474                      .dwattr $C$DW$259, DW_AT_data_member_location[DW_OP_plus_uconst 0x0]
    2475                      .dwattr $C$DW$259, DW_AT_accessibility(DW_ACCESS_public)
    2476              $C$DW$260       .dwtag  DW_TAG_member
    2477                      .dwattr $C$DW$260, DW_AT_type(*$C$DW$T$94)
    2478                      .dwattr $C$DW$260, DW_AT_name("bit")
    2479                      .dwattr $C$DW$260, DW_AT_TI_symbol_name("_bit")
    2480                      .dwattr $C$DW$260, DW_AT_data_member_location[DW_OP_plus_uconst 0x0]
    2481                      .dwattr $C$DW$260, DW_AT_accessibility(DW_ACCESS_public)
    2482                      .dwendtag $C$DW$T$95
    2483              
    2484              
    2485              $C$DW$T$96      .dwtag  DW_TAG_structure_type
    2486                      .dwattr $C$DW$T$96, DW_AT_name("AQCTLA2_BITS")
    2487                      .dwattr $C$DW$T$96, DW_AT_byte_size(0x01)
    2488              $C$DW$261       .dwtag  DW_TAG_member
    2489                      .dwattr $C$DW$261, DW_AT_type(*$C$DW$T$31)
    2490                      .dwattr $C$DW$261, DW_AT_name("T1U")
    2491                      .dwattr $C$DW$261, DW_AT_TI_symbol_name("_T1U")
    2492                      .dwattr $C$DW$261, DW_AT_bit_offset(0x0e), DW_AT_bit_size(0x02)
    2493                      .dwattr $C$DW$261, DW_AT_data_member_location[DW_OP_plus_uconst 0x0]
    2494                      .dwattr $C$DW$261, DW_AT_accessibility(DW_ACCESS_public)
    2495              $C$DW$262       .dwtag  DW_TAG_member
    2496                      .dwattr $C$DW$262, DW_AT_type(*$C$DW$T$31)
    2497                      .dwattr $C$DW$262, DW_AT_name("T1D")
    2498                      .dwattr $C$DW$262, DW_AT_TI_symbol_name("_T1D")
    2499                      .dwattr $C$DW$262, DW_AT_bit_offset(0x0c), DW_AT_bit_size(0x02)
    2500                      .dwattr $C$DW$262, DW_AT_data_member_location[DW_OP_plus_uconst 0x0]
    2501                      .dwattr $C$DW$262, DW_AT_accessibility(DW_ACCESS_public)
    2502              $C$DW$263       .dwtag  DW_TAG_member
TMS320C2000 Assembler PC v6.4.2 Thu Dec 14 15:26:04 2017

Tools Copyright (c) 1996-2015 Texas Instruments Incorporated
drv8305.asm                                                          PAGE   49

    2503                      .dwattr $C$DW$263, DW_AT_type(*$C$DW$T$31)
    2504                      .dwattr $C$DW$263, DW_AT_name("T2U")
    2505                      .dwattr $C$DW$263, DW_AT_TI_symbol_name("_T2U")
    2506                      .dwattr $C$DW$263, DW_AT_bit_offset(0x0a), DW_AT_bit_size(0x02)
    2507                      .dwattr $C$DW$263, DW_AT_data_member_location[DW_OP_plus_uconst 0x0]
    2508                      .dwattr $C$DW$263, DW_AT_accessibility(DW_ACCESS_public)
    2509              $C$DW$264       .dwtag  DW_TAG_member
    2510                      .dwattr $C$DW$264, DW_AT_type(*$C$DW$T$31)
    2511                      .dwattr $C$DW$264, DW_AT_name("T2D")
    2512                      .dwattr $C$DW$264, DW_AT_TI_symbol_name("_T2D")
    2513                      .dwattr $C$DW$264, DW_AT_bit_offset(0x08), DW_AT_bit_size(0x02)
    2514                      .dwattr $C$DW$264, DW_AT_data_member_location[DW_OP_plus_uconst 0x0]
    2515                      .dwattr $C$DW$264, DW_AT_accessibility(DW_ACCESS_public)
    2516              $C$DW$265       .dwtag  DW_TAG_member
    2517                      .dwattr $C$DW$265, DW_AT_type(*$C$DW$T$31)
    2518                      .dwattr $C$DW$265, DW_AT_name("rsvd1")
    2519                      .dwattr $C$DW$265, DW_AT_TI_symbol_name("_rsvd1")
    2520                      .dwattr $C$DW$265, DW_AT_bit_offset(0x00), DW_AT_bit_size(0x08)
    2521                      .dwattr $C$DW$265, DW_AT_data_member_location[DW_OP_plus_uconst 0x0]
    2522                      .dwattr $C$DW$265, DW_AT_accessibility(DW_ACCESS_public)
    2523                      .dwendtag $C$DW$T$96
    2524              
    2525              
    2526              $C$DW$T$97      .dwtag  DW_TAG_union_type
    2527                      .dwattr $C$DW$T$97, DW_AT_name("AQCTLA2_REG")
    2528                      .dwattr $C$DW$T$97, DW_AT_byte_size(0x01)
    2529              $C$DW$266       .dwtag  DW_TAG_member
    2530                      .dwattr $C$DW$266, DW_AT_type(*$C$DW$T$31)
    2531                      .dwattr $C$DW$266, DW_AT_name("all")
    2532                      .dwattr $C$DW$266, DW_AT_TI_symbol_name("_all")
    2533                      .dwattr $C$DW$266, DW_AT_data_member_location[DW_OP_plus_uconst 0x0]
    2534                      .dwattr $C$DW$266, DW_AT_accessibility(DW_ACCESS_public)
    2535              $C$DW$267       .dwtag  DW_TAG_member
    2536                      .dwattr $C$DW$267, DW_AT_type(*$C$DW$T$96)
    2537                      .dwattr $C$DW$267, DW_AT_name("bit")
    2538                      .dwattr $C$DW$267, DW_AT_TI_symbol_name("_bit")
    2539                      .dwattr $C$DW$267, DW_AT_data_member_location[DW_OP_plus_uconst 0x0]
    2540                      .dwattr $C$DW$267, DW_AT_accessibility(DW_ACCESS_public)
    2541                      .dwendtag $C$DW$T$97
    2542              
    2543              
    2544              $C$DW$T$98      .dwtag  DW_TAG_structure_type
    2545                      .dwattr $C$DW$T$98, DW_AT_name("AQCTLA_BITS")
    2546                      .dwattr $C$DW$T$98, DW_AT_byte_size(0x01)
    2547              $C$DW$268       .dwtag  DW_TAG_member
    2548                      .dwattr $C$DW$268, DW_AT_type(*$C$DW$T$31)
    2549                      .dwattr $C$DW$268, DW_AT_name("ZRO")
    2550                      .dwattr $C$DW$268, DW_AT_TI_symbol_name("_ZRO")
    2551                      .dwattr $C$DW$268, DW_AT_bit_offset(0x0e), DW_AT_bit_size(0x02)
    2552                      .dwattr $C$DW$268, DW_AT_data_member_location[DW_OP_plus_uconst 0x0]
    2553                      .dwattr $C$DW$268, DW_AT_accessibility(DW_ACCESS_public)
    2554              $C$DW$269       .dwtag  DW_TAG_member
    2555                      .dwattr $C$DW$269, DW_AT_type(*$C$DW$T$31)
    2556                      .dwattr $C$DW$269, DW_AT_name("PRD")
    2557                      .dwattr $C$DW$269, DW_AT_TI_symbol_name("_PRD")
TMS320C2000 Assembler PC v6.4.2 Thu Dec 14 15:26:04 2017

Tools Copyright (c) 1996-2015 Texas Instruments Incorporated
drv8305.asm                                                          PAGE   50

    2558                      .dwattr $C$DW$269, DW_AT_bit_offset(0x0c), DW_AT_bit_size(0x02)
    2559                      .dwattr $C$DW$269, DW_AT_data_member_location[DW_OP_plus_uconst 0x0]
    2560                      .dwattr $C$DW$269, DW_AT_accessibility(DW_ACCESS_public)
    2561              $C$DW$270       .dwtag  DW_TAG_member
    2562                      .dwattr $C$DW$270, DW_AT_type(*$C$DW$T$31)
    2563                      .dwattr $C$DW$270, DW_AT_name("CAU")
    2564                      .dwattr $C$DW$270, DW_AT_TI_symbol_name("_CAU")
    2565                      .dwattr $C$DW$270, DW_AT_bit_offset(0x0a), DW_AT_bit_size(0x02)
    2566                      .dwattr $C$DW$270, DW_AT_data_member_location[DW_OP_plus_uconst 0x0]
    2567                      .dwattr $C$DW$270, DW_AT_accessibility(DW_ACCESS_public)
    2568              $C$DW$271       .dwtag  DW_TAG_member
    2569                      .dwattr $C$DW$271, DW_AT_type(*$C$DW$T$31)
    2570                      .dwattr $C$DW$271, DW_AT_name("CAD")
    2571                      .dwattr $C$DW$271, DW_AT_TI_symbol_name("_CAD")
    2572                      .dwattr $C$DW$271, DW_AT_bit_offset(0x08), DW_AT_bit_size(0x02)
    2573                      .dwattr $C$DW$271, DW_AT_data_member_location[DW_OP_plus_uconst 0x0]
    2574                      .dwattr $C$DW$271, DW_AT_accessibility(DW_ACCESS_public)
    2575              $C$DW$272       .dwtag  DW_TAG_member
    2576                      .dwattr $C$DW$272, DW_AT_type(*$C$DW$T$31)
    2577                      .dwattr $C$DW$272, DW_AT_name("CBU")
    2578                      .dwattr $C$DW$272, DW_AT_TI_symbol_name("_CBU")
    2579                      .dwattr $C$DW$272, DW_AT_bit_offset(0x06), DW_AT_bit_size(0x02)
    2580                      .dwattr $C$DW$272, DW_AT_data_member_location[DW_OP_plus_uconst 0x0]
    2581                      .dwattr $C$DW$272, DW_AT_accessibility(DW_ACCESS_public)
    2582              $C$DW$273       .dwtag  DW_TAG_member
    2583                      .dwattr $C$DW$273, DW_AT_type(*$C$DW$T$31)
    2584                      .dwattr $C$DW$273, DW_AT_name("CBD")
    2585                      .dwattr $C$DW$273, DW_AT_TI_symbol_name("_CBD")
    2586                      .dwattr $C$DW$273, DW_AT_bit_offset(0x04), DW_AT_bit_size(0x02)
    2587                      .dwattr $C$DW$273, DW_AT_data_member_location[DW_OP_plus_uconst 0x0]
    2588                      .dwattr $C$DW$273, DW_AT_accessibility(DW_ACCESS_public)
    2589              $C$DW$274       .dwtag  DW_TAG_member
    2590                      .dwattr $C$DW$274, DW_AT_type(*$C$DW$T$31)
    2591                      .dwattr $C$DW$274, DW_AT_name("rsvd1")
    2592                      .dwattr $C$DW$274, DW_AT_TI_symbol_name("_rsvd1")
    2593                      .dwattr $C$DW$274, DW_AT_bit_offset(0x00), DW_AT_bit_size(0x04)
    2594                      .dwattr $C$DW$274, DW_AT_data_member_location[DW_OP_plus_uconst 0x0]
    2595                      .dwattr $C$DW$274, DW_AT_accessibility(DW_ACCESS_public)
    2596                      .dwendtag $C$DW$T$98
    2597              
    2598              
    2599              $C$DW$T$99      .dwtag  DW_TAG_union_type
    2600                      .dwattr $C$DW$T$99, DW_AT_name("AQCTLA_REG")
    2601                      .dwattr $C$DW$T$99, DW_AT_byte_size(0x01)
    2602              $C$DW$275       .dwtag  DW_TAG_member
    2603                      .dwattr $C$DW$275, DW_AT_type(*$C$DW$T$31)
    2604                      .dwattr $C$DW$275, DW_AT_name("all")
    2605                      .dwattr $C$DW$275, DW_AT_TI_symbol_name("_all")
    2606                      .dwattr $C$DW$275, DW_AT_data_member_location[DW_OP_plus_uconst 0x0]
    2607                      .dwattr $C$DW$275, DW_AT_accessibility(DW_ACCESS_public)
    2608              $C$DW$276       .dwtag  DW_TAG_member
    2609                      .dwattr $C$DW$276, DW_AT_type(*$C$DW$T$98)
    2610                      .dwattr $C$DW$276, DW_AT_name("bit")
    2611                      .dwattr $C$DW$276, DW_AT_TI_symbol_name("_bit")
    2612                      .dwattr $C$DW$276, DW_AT_data_member_location[DW_OP_plus_uconst 0x0]
TMS320C2000 Assembler PC v6.4.2 Thu Dec 14 15:26:04 2017

Tools Copyright (c) 1996-2015 Texas Instruments Incorporated
drv8305.asm                                                          PAGE   51

    2613                      .dwattr $C$DW$276, DW_AT_accessibility(DW_ACCESS_public)
    2614                      .dwendtag $C$DW$T$99
    2615              
    2616              
    2617              $C$DW$T$100     .dwtag  DW_TAG_structure_type
    2618                      .dwattr $C$DW$T$100, DW_AT_name("AQCTLB2_BITS")
    2619                      .dwattr $C$DW$T$100, DW_AT_byte_size(0x01)
    2620              $C$DW$277       .dwtag  DW_TAG_member
    2621                      .dwattr $C$DW$277, DW_AT_type(*$C$DW$T$31)
    2622                      .dwattr $C$DW$277, DW_AT_name("T1U")
    2623                      .dwattr $C$DW$277, DW_AT_TI_symbol_name("_T1U")
    2624                      .dwattr $C$DW$277, DW_AT_bit_offset(0x0e), DW_AT_bit_size(0x02)
    2625                      .dwattr $C$DW$277, DW_AT_data_member_location[DW_OP_plus_uconst 0x0]
    2626                      .dwattr $C$DW$277, DW_AT_accessibility(DW_ACCESS_public)
    2627              $C$DW$278       .dwtag  DW_TAG_member
    2628                      .dwattr $C$DW$278, DW_AT_type(*$C$DW$T$31)
    2629                      .dwattr $C$DW$278, DW_AT_name("T1D")
    2630                      .dwattr $C$DW$278, DW_AT_TI_symbol_name("_T1D")
    2631                      .dwattr $C$DW$278, DW_AT_bit_offset(0x0c), DW_AT_bit_size(0x02)
    2632                      .dwattr $C$DW$278, DW_AT_data_member_location[DW_OP_plus_uconst 0x0]
    2633                      .dwattr $C$DW$278, DW_AT_accessibility(DW_ACCESS_public)
    2634              $C$DW$279       .dwtag  DW_TAG_member
    2635                      .dwattr $C$DW$279, DW_AT_type(*$C$DW$T$31)
    2636                      .dwattr $C$DW$279, DW_AT_name("T2U")
    2637                      .dwattr $C$DW$279, DW_AT_TI_symbol_name("_T2U")
    2638                      .dwattr $C$DW$279, DW_AT_bit_offset(0x0a), DW_AT_bit_size(0x02)
    2639                      .dwattr $C$DW$279, DW_AT_data_member_location[DW_OP_plus_uconst 0x0]
    2640                      .dwattr $C$DW$279, DW_AT_accessibility(DW_ACCESS_public)
    2641              $C$DW$280       .dwtag  DW_TAG_member
    2642                      .dwattr $C$DW$280, DW_AT_type(*$C$DW$T$31)
    2643                      .dwattr $C$DW$280, DW_AT_name("T2D")
    2644                      .dwattr $C$DW$280, DW_AT_TI_symbol_name("_T2D")
    2645                      .dwattr $C$DW$280, DW_AT_bit_offset(0x08), DW_AT_bit_size(0x02)
    2646                      .dwattr $C$DW$280, DW_AT_data_member_location[DW_OP_plus_uconst 0x0]
    2647                      .dwattr $C$DW$280, DW_AT_accessibility(DW_ACCESS_public)
    2648              $C$DW$281       .dwtag  DW_TAG_member
    2649                      .dwattr $C$DW$281, DW_AT_type(*$C$DW$T$31)
    2650                      .dwattr $C$DW$281, DW_AT_name("rsvd1")
    2651                      .dwattr $C$DW$281, DW_AT_TI_symbol_name("_rsvd1")
    2652                      .dwattr $C$DW$281, DW_AT_bit_offset(0x00), DW_AT_bit_size(0x08)
    2653                      .dwattr $C$DW$281, DW_AT_data_member_location[DW_OP_plus_uconst 0x0]
    2654                      .dwattr $C$DW$281, DW_AT_accessibility(DW_ACCESS_public)
    2655                      .dwendtag $C$DW$T$100
    2656              
    2657              
    2658              $C$DW$T$101     .dwtag  DW_TAG_union_type
    2659                      .dwattr $C$DW$T$101, DW_AT_name("AQCTLB2_REG")
    2660                      .dwattr $C$DW$T$101, DW_AT_byte_size(0x01)
    2661              $C$DW$282       .dwtag  DW_TAG_member
    2662                      .dwattr $C$DW$282, DW_AT_type(*$C$DW$T$31)
    2663                      .dwattr $C$DW$282, DW_AT_name("all")
    2664                      .dwattr $C$DW$282, DW_AT_TI_symbol_name("_all")
    2665                      .dwattr $C$DW$282, DW_AT_data_member_location[DW_OP_plus_uconst 0x0]
    2666                      .dwattr $C$DW$282, DW_AT_accessibility(DW_ACCESS_public)
    2667              $C$DW$283       .dwtag  DW_TAG_member
TMS320C2000 Assembler PC v6.4.2 Thu Dec 14 15:26:04 2017

Tools Copyright (c) 1996-2015 Texas Instruments Incorporated
drv8305.asm                                                          PAGE   52

    2668                      .dwattr $C$DW$283, DW_AT_type(*$C$DW$T$100)
    2669                      .dwattr $C$DW$283, DW_AT_name("bit")
    2670                      .dwattr $C$DW$283, DW_AT_TI_symbol_name("_bit")
    2671                      .dwattr $C$DW$283, DW_AT_data_member_location[DW_OP_plus_uconst 0x0]
    2672                      .dwattr $C$DW$283, DW_AT_accessibility(DW_ACCESS_public)
    2673                      .dwendtag $C$DW$T$101
    2674              
    2675              
    2676              $C$DW$T$102     .dwtag  DW_TAG_structure_type
    2677                      .dwattr $C$DW$T$102, DW_AT_name("AQCTLB_BITS")
    2678                      .dwattr $C$DW$T$102, DW_AT_byte_size(0x01)
    2679              $C$DW$284       .dwtag  DW_TAG_member
    2680                      .dwattr $C$DW$284, DW_AT_type(*$C$DW$T$31)
    2681                      .dwattr $C$DW$284, DW_AT_name("ZRO")
    2682                      .dwattr $C$DW$284, DW_AT_TI_symbol_name("_ZRO")
    2683                      .dwattr $C$DW$284, DW_AT_bit_offset(0x0e), DW_AT_bit_size(0x02)
    2684                      .dwattr $C$DW$284, DW_AT_data_member_location[DW_OP_plus_uconst 0x0]
    2685                      .dwattr $C$DW$284, DW_AT_accessibility(DW_ACCESS_public)
    2686              $C$DW$285       .dwtag  DW_TAG_member
    2687                      .dwattr $C$DW$285, DW_AT_type(*$C$DW$T$31)
    2688                      .dwattr $C$DW$285, DW_AT_name("PRD")
    2689                      .dwattr $C$DW$285, DW_AT_TI_symbol_name("_PRD")
    2690                      .dwattr $C$DW$285, DW_AT_bit_offset(0x0c), DW_AT_bit_size(0x02)
    2691                      .dwattr $C$DW$285, DW_AT_data_member_location[DW_OP_plus_uconst 0x0]
    2692                      .dwattr $C$DW$285, DW_AT_accessibility(DW_ACCESS_public)
    2693              $C$DW$286       .dwtag  DW_TAG_member
    2694                      .dwattr $C$DW$286, DW_AT_type(*$C$DW$T$31)
    2695                      .dwattr $C$DW$286, DW_AT_name("CAU")
    2696                      .dwattr $C$DW$286, DW_AT_TI_symbol_name("_CAU")
    2697                      .dwattr $C$DW$286, DW_AT_bit_offset(0x0a), DW_AT_bit_size(0x02)
    2698                      .dwattr $C$DW$286, DW_AT_data_member_location[DW_OP_plus_uconst 0x0]
    2699                      .dwattr $C$DW$286, DW_AT_accessibility(DW_ACCESS_public)
    2700              $C$DW$287       .dwtag  DW_TAG_member
    2701                      .dwattr $C$DW$287, DW_AT_type(*$C$DW$T$31)
    2702                      .dwattr $C$DW$287, DW_AT_name("CAD")
    2703                      .dwattr $C$DW$287, DW_AT_TI_symbol_name("_CAD")
    2704                      .dwattr $C$DW$287, DW_AT_bit_offset(0x08), DW_AT_bit_size(0x02)
    2705                      .dwattr $C$DW$287, DW_AT_data_member_location[DW_OP_plus_uconst 0x0]
    2706                      .dwattr $C$DW$287, DW_AT_accessibility(DW_ACCESS_public)
    2707              $C$DW$288       .dwtag  DW_TAG_member
    2708                      .dwattr $C$DW$288, DW_AT_type(*$C$DW$T$31)
    2709                      .dwattr $C$DW$288, DW_AT_name("CBU")
    2710                      .dwattr $C$DW$288, DW_AT_TI_symbol_name("_CBU")
    2711                      .dwattr $C$DW$288, DW_AT_bit_offset(0x06), DW_AT_bit_size(0x02)
    2712                      .dwattr $C$DW$288, DW_AT_data_member_location[DW_OP_plus_uconst 0x0]
    2713                      .dwattr $C$DW$288, DW_AT_accessibility(DW_ACCESS_public)
    2714              $C$DW$289       .dwtag  DW_TAG_member
    2715                      .dwattr $C$DW$289, DW_AT_type(*$C$DW$T$31)
    2716                      .dwattr $C$DW$289, DW_AT_name("CBD")
    2717                      .dwattr $C$DW$289, DW_AT_TI_symbol_name("_CBD")
    2718                      .dwattr $C$DW$289, DW_AT_bit_offset(0x04), DW_AT_bit_size(0x02)
    2719                      .dwattr $C$DW$289, DW_AT_data_member_location[DW_OP_plus_uconst 0x0]
    2720                      .dwattr $C$DW$289, DW_AT_accessibility(DW_ACCESS_public)
    2721              $C$DW$290       .dwtag  DW_TAG_member
    2722                      .dwattr $C$DW$290, DW_AT_type(*$C$DW$T$31)
TMS320C2000 Assembler PC v6.4.2 Thu Dec 14 15:26:04 2017

Tools Copyright (c) 1996-2015 Texas Instruments Incorporated
drv8305.asm                                                          PAGE   53

    2723                      .dwattr $C$DW$290, DW_AT_name("rsvd1")
    2724                      .dwattr $C$DW$290, DW_AT_TI_symbol_name("_rsvd1")
    2725                      .dwattr $C$DW$290, DW_AT_bit_offset(0x00), DW_AT_bit_size(0x04)
    2726                      .dwattr $C$DW$290, DW_AT_data_member_location[DW_OP_plus_uconst 0x0]
    2727                      .dwattr $C$DW$290, DW_AT_accessibility(DW_ACCESS_public)
    2728                      .dwendtag $C$DW$T$102
    2729              
    2730              
    2731              $C$DW$T$103     .dwtag  DW_TAG_union_type
    2732                      .dwattr $C$DW$T$103, DW_AT_name("AQCTLB_REG")
    2733                      .dwattr $C$DW$T$103, DW_AT_byte_size(0x01)
    2734              $C$DW$291       .dwtag  DW_TAG_member
    2735                      .dwattr $C$DW$291, DW_AT_type(*$C$DW$T$31)
    2736                      .dwattr $C$DW$291, DW_AT_name("all")
    2737                      .dwattr $C$DW$291, DW_AT_TI_symbol_name("_all")
    2738                      .dwattr $C$DW$291, DW_AT_data_member_location[DW_OP_plus_uconst 0x0]
    2739                      .dwattr $C$DW$291, DW_AT_accessibility(DW_ACCESS_public)
    2740              $C$DW$292       .dwtag  DW_TAG_member
    2741                      .dwattr $C$DW$292, DW_AT_type(*$C$DW$T$102)
    2742                      .dwattr $C$DW$292, DW_AT_name("bit")
    2743                      .dwattr $C$DW$292, DW_AT_TI_symbol_name("_bit")
    2744                      .dwattr $C$DW$292, DW_AT_data_member_location[DW_OP_plus_uconst 0x0]
    2745                      .dwattr $C$DW$292, DW_AT_accessibility(DW_ACCESS_public)
    2746                      .dwendtag $C$DW$T$103
    2747              
    2748              
    2749              $C$DW$T$104     .dwtag  DW_TAG_structure_type
    2750                      .dwattr $C$DW$T$104, DW_AT_name("AQCTL_BITS")
    2751                      .dwattr $C$DW$T$104, DW_AT_byte_size(0x01)
    2752              $C$DW$293       .dwtag  DW_TAG_member
    2753                      .dwattr $C$DW$293, DW_AT_type(*$C$DW$T$31)
    2754                      .dwattr $C$DW$293, DW_AT_name("LDAQAMODE")
    2755                      .dwattr $C$DW$293, DW_AT_TI_symbol_name("_LDAQAMODE")
    2756                      .dwattr $C$DW$293, DW_AT_bit_offset(0x0e), DW_AT_bit_size(0x02)
    2757                      .dwattr $C$DW$293, DW_AT_data_member_location[DW_OP_plus_uconst 0x0]
    2758                      .dwattr $C$DW$293, DW_AT_accessibility(DW_ACCESS_public)
    2759              $C$DW$294       .dwtag  DW_TAG_member
    2760                      .dwattr $C$DW$294, DW_AT_type(*$C$DW$T$31)
    2761                      .dwattr $C$DW$294, DW_AT_name("LDAQBMODE")
    2762                      .dwattr $C$DW$294, DW_AT_TI_symbol_name("_LDAQBMODE")
    2763                      .dwattr $C$DW$294, DW_AT_bit_offset(0x0c), DW_AT_bit_size(0x02)
    2764                      .dwattr $C$DW$294, DW_AT_data_member_location[DW_OP_plus_uconst 0x0]
    2765                      .dwattr $C$DW$294, DW_AT_accessibility(DW_ACCESS_public)
    2766              $C$DW$295       .dwtag  DW_TAG_member
    2767                      .dwattr $C$DW$295, DW_AT_type(*$C$DW$T$31)
    2768                      .dwattr $C$DW$295, DW_AT_name("SHDWAQAMODE")
    2769                      .dwattr $C$DW$295, DW_AT_TI_symbol_name("_SHDWAQAMODE")
    2770                      .dwattr $C$DW$295, DW_AT_bit_offset(0x0b), DW_AT_bit_size(0x01)
    2771                      .dwattr $C$DW$295, DW_AT_data_member_location[DW_OP_plus_uconst 0x0]
    2772                      .dwattr $C$DW$295, DW_AT_accessibility(DW_ACCESS_public)
    2773              $C$DW$296       .dwtag  DW_TAG_member
    2774                      .dwattr $C$DW$296, DW_AT_type(*$C$DW$T$31)
    2775                      .dwattr $C$DW$296, DW_AT_name("rsvd1")
    2776                      .dwattr $C$DW$296, DW_AT_TI_symbol_name("_rsvd1")
    2777                      .dwattr $C$DW$296, DW_AT_bit_offset(0x0a), DW_AT_bit_size(0x01)
TMS320C2000 Assembler PC v6.4.2 Thu Dec 14 15:26:04 2017

Tools Copyright (c) 1996-2015 Texas Instruments Incorporated
drv8305.asm                                                          PAGE   54

    2778                      .dwattr $C$DW$296, DW_AT_data_member_location[DW_OP_plus_uconst 0x0]
    2779                      .dwattr $C$DW$296, DW_AT_accessibility(DW_ACCESS_public)
    2780              $C$DW$297       .dwtag  DW_TAG_member
    2781                      .dwattr $C$DW$297, DW_AT_type(*$C$DW$T$31)
    2782                      .dwattr $C$DW$297, DW_AT_name("SHDWAQBMODE")
    2783                      .dwattr $C$DW$297, DW_AT_TI_symbol_name("_SHDWAQBMODE")
    2784                      .dwattr $C$DW$297, DW_AT_bit_offset(0x09), DW_AT_bit_size(0x01)
    2785                      .dwattr $C$DW$297, DW_AT_data_member_location[DW_OP_plus_uconst 0x0]
    2786                      .dwattr $C$DW$297, DW_AT_accessibility(DW_ACCESS_public)
    2787              $C$DW$298       .dwtag  DW_TAG_member
    2788                      .dwattr $C$DW$298, DW_AT_type(*$C$DW$T$31)
    2789                      .dwattr $C$DW$298, DW_AT_name("rsvd2")
    2790                      .dwattr $C$DW$298, DW_AT_TI_symbol_name("_rsvd2")
    2791                      .dwattr $C$DW$298, DW_AT_bit_offset(0x08), DW_AT_bit_size(0x01)
    2792                      .dwattr $C$DW$298, DW_AT_data_member_location[DW_OP_plus_uconst 0x0]
    2793                      .dwattr $C$DW$298, DW_AT_accessibility(DW_ACCESS_public)
    2794              $C$DW$299       .dwtag  DW_TAG_member
    2795                      .dwattr $C$DW$299, DW_AT_type(*$C$DW$T$31)
    2796                      .dwattr $C$DW$299, DW_AT_name("LDAQASYNC")
    2797                      .dwattr $C$DW$299, DW_AT_TI_symbol_name("_LDAQASYNC")
    2798                      .dwattr $C$DW$299, DW_AT_bit_offset(0x06), DW_AT_bit_size(0x02)
    2799                      .dwattr $C$DW$299, DW_AT_data_member_location[DW_OP_plus_uconst 0x0]
    2800                      .dwattr $C$DW$299, DW_AT_accessibility(DW_ACCESS_public)
    2801              $C$DW$300       .dwtag  DW_TAG_member
    2802                      .dwattr $C$DW$300, DW_AT_type(*$C$DW$T$31)
    2803                      .dwattr $C$DW$300, DW_AT_name("LDAQBSYNC")
    2804                      .dwattr $C$DW$300, DW_AT_TI_symbol_name("_LDAQBSYNC")
    2805                      .dwattr $C$DW$300, DW_AT_bit_offset(0x04), DW_AT_bit_size(0x02)
    2806                      .dwattr $C$DW$300, DW_AT_data_member_location[DW_OP_plus_uconst 0x0]
    2807                      .dwattr $C$DW$300, DW_AT_accessibility(DW_ACCESS_public)
    2808              $C$DW$301       .dwtag  DW_TAG_member
    2809                      .dwattr $C$DW$301, DW_AT_type(*$C$DW$T$31)
    2810                      .dwattr $C$DW$301, DW_AT_name("rsvd3")
    2811                      .dwattr $C$DW$301, DW_AT_TI_symbol_name("_rsvd3")
    2812                      .dwattr $C$DW$301, DW_AT_bit_offset(0x00), DW_AT_bit_size(0x04)
    2813                      .dwattr $C$DW$301, DW_AT_data_member_location[DW_OP_plus_uconst 0x0]
    2814                      .dwattr $C$DW$301, DW_AT_accessibility(DW_ACCESS_public)
    2815                      .dwendtag $C$DW$T$104
    2816              
    2817              
    2818              $C$DW$T$105     .dwtag  DW_TAG_union_type
    2819                      .dwattr $C$DW$T$105, DW_AT_name("AQCTL_REG")
    2820                      .dwattr $C$DW$T$105, DW_AT_byte_size(0x01)
    2821              $C$DW$302       .dwtag  DW_TAG_member
    2822                      .dwattr $C$DW$302, DW_AT_type(*$C$DW$T$31)
    2823                      .dwattr $C$DW$302, DW_AT_name("all")
    2824                      .dwattr $C$DW$302, DW_AT_TI_symbol_name("_all")
    2825                      .dwattr $C$DW$302, DW_AT_data_member_location[DW_OP_plus_uconst 0x0]
    2826                      .dwattr $C$DW$302, DW_AT_accessibility(DW_ACCESS_public)
    2827              $C$DW$303       .dwtag  DW_TAG_member
    2828                      .dwattr $C$DW$303, DW_AT_type(*$C$DW$T$104)
    2829                      .dwattr $C$DW$303, DW_AT_name("bit")
    2830                      .dwattr $C$DW$303, DW_AT_TI_symbol_name("_bit")
    2831                      .dwattr $C$DW$303, DW_AT_data_member_location[DW_OP_plus_uconst 0x0]
    2832                      .dwattr $C$DW$303, DW_AT_accessibility(DW_ACCESS_public)
TMS320C2000 Assembler PC v6.4.2 Thu Dec 14 15:26:04 2017

Tools Copyright (c) 1996-2015 Texas Instruments Incorporated
drv8305.asm                                                          PAGE   55

    2833                      .dwendtag $C$DW$T$105
    2834              
    2835              
    2836              $C$DW$T$106     .dwtag  DW_TAG_structure_type
    2837                      .dwattr $C$DW$T$106, DW_AT_name("AQSFRC_BITS")
    2838                      .dwattr $C$DW$T$106, DW_AT_byte_size(0x01)
    2839              $C$DW$304       .dwtag  DW_TAG_member
    2840                      .dwattr $C$DW$304, DW_AT_type(*$C$DW$T$31)
    2841                      .dwattr $C$DW$304, DW_AT_name("ACTSFA")
    2842                      .dwattr $C$DW$304, DW_AT_TI_symbol_name("_ACTSFA")
    2843                      .dwattr $C$DW$304, DW_AT_bit_offset(0x0e), DW_AT_bit_size(0x02)
    2844                      .dwattr $C$DW$304, DW_AT_data_member_location[DW_OP_plus_uconst 0x0]
    2845                      .dwattr $C$DW$304, DW_AT_accessibility(DW_ACCESS_public)
    2846              $C$DW$305       .dwtag  DW_TAG_member
    2847                      .dwattr $C$DW$305, DW_AT_type(*$C$DW$T$31)
    2848                      .dwattr $C$DW$305, DW_AT_name("OTSFA")
    2849                      .dwattr $C$DW$305, DW_AT_TI_symbol_name("_OTSFA")
    2850                      .dwattr $C$DW$305, DW_AT_bit_offset(0x0d), DW_AT_bit_size(0x01)
    2851                      .dwattr $C$DW$305, DW_AT_data_member_location[DW_OP_plus_uconst 0x0]
    2852                      .dwattr $C$DW$305, DW_AT_accessibility(DW_ACCESS_public)
    2853              $C$DW$306       .dwtag  DW_TAG_member
    2854                      .dwattr $C$DW$306, DW_AT_type(*$C$DW$T$31)
    2855                      .dwattr $C$DW$306, DW_AT_name("ACTSFB")
    2856                      .dwattr $C$DW$306, DW_AT_TI_symbol_name("_ACTSFB")
    2857                      .dwattr $C$DW$306, DW_AT_bit_offset(0x0b), DW_AT_bit_size(0x02)
    2858                      .dwattr $C$DW$306, DW_AT_data_member_location[DW_OP_plus_uconst 0x0]
    2859                      .dwattr $C$DW$306, DW_AT_accessibility(DW_ACCESS_public)
    2860              $C$DW$307       .dwtag  DW_TAG_member
    2861                      .dwattr $C$DW$307, DW_AT_type(*$C$DW$T$31)
    2862                      .dwattr $C$DW$307, DW_AT_name("OTSFB")
    2863                      .dwattr $C$DW$307, DW_AT_TI_symbol_name("_OTSFB")
    2864                      .dwattr $C$DW$307, DW_AT_bit_offset(0x0a), DW_AT_bit_size(0x01)
    2865                      .dwattr $C$DW$307, DW_AT_data_member_location[DW_OP_plus_uconst 0x0]
    2866                      .dwattr $C$DW$307, DW_AT_accessibility(DW_ACCESS_public)
    2867              $C$DW$308       .dwtag  DW_TAG_member
    2868                      .dwattr $C$DW$308, DW_AT_type(*$C$DW$T$31)
    2869                      .dwattr $C$DW$308, DW_AT_name("RLDCSF")
    2870                      .dwattr $C$DW$308, DW_AT_TI_symbol_name("_RLDCSF")
    2871                      .dwattr $C$DW$308, DW_AT_bit_offset(0x08), DW_AT_bit_size(0x02)
    2872                      .dwattr $C$DW$308, DW_AT_data_member_location[DW_OP_plus_uconst 0x0]
    2873                      .dwattr $C$DW$308, DW_AT_accessibility(DW_ACCESS_public)
    2874              $C$DW$309       .dwtag  DW_TAG_member
    2875                      .dwattr $C$DW$309, DW_AT_type(*$C$DW$T$31)
    2876                      .dwattr $C$DW$309, DW_AT_name("rsvd1")
    2877                      .dwattr $C$DW$309, DW_AT_TI_symbol_name("_rsvd1")
    2878                      .dwattr $C$DW$309, DW_AT_bit_offset(0x00), DW_AT_bit_size(0x08)
    2879                      .dwattr $C$DW$309, DW_AT_data_member_location[DW_OP_plus_uconst 0x0]
    2880                      .dwattr $C$DW$309, DW_AT_accessibility(DW_ACCESS_public)
    2881                      .dwendtag $C$DW$T$106
    2882              
    2883              
    2884              $C$DW$T$107     .dwtag  DW_TAG_union_type
    2885                      .dwattr $C$DW$T$107, DW_AT_name("AQSFRC_REG")
    2886                      .dwattr $C$DW$T$107, DW_AT_byte_size(0x01)
    2887              $C$DW$310       .dwtag  DW_TAG_member
TMS320C2000 Assembler PC v6.4.2 Thu Dec 14 15:26:04 2017

Tools Copyright (c) 1996-2015 Texas Instruments Incorporated
drv8305.asm                                                          PAGE   56

    2888                      .dwattr $C$DW$310, DW_AT_type(*$C$DW$T$31)
    2889                      .dwattr $C$DW$310, DW_AT_name("all")
    2890                      .dwattr $C$DW$310, DW_AT_TI_symbol_name("_all")
    2891                      .dwattr $C$DW$310, DW_AT_data_member_location[DW_OP_plus_uconst 0x0]
    2892                      .dwattr $C$DW$310, DW_AT_accessibility(DW_ACCESS_public)
    2893              $C$DW$311       .dwtag  DW_TAG_member
    2894                      .dwattr $C$DW$311, DW_AT_type(*$C$DW$T$106)
    2895                      .dwattr $C$DW$311, DW_AT_name("bit")
    2896                      .dwattr $C$DW$311, DW_AT_TI_symbol_name("_bit")
    2897                      .dwattr $C$DW$311, DW_AT_data_member_location[DW_OP_plus_uconst 0x0]
    2898                      .dwattr $C$DW$311, DW_AT_accessibility(DW_ACCESS_public)
    2899                      .dwendtag $C$DW$T$107
    2900              
    2901              
    2902              $C$DW$T$108     .dwtag  DW_TAG_structure_type
    2903                      .dwattr $C$DW$T$108, DW_AT_name("AQTSRCSEL_BITS")
    2904                      .dwattr $C$DW$T$108, DW_AT_byte_size(0x01)
    2905              $C$DW$312       .dwtag  DW_TAG_member
    2906                      .dwattr $C$DW$312, DW_AT_type(*$C$DW$T$31)
    2907                      .dwattr $C$DW$312, DW_AT_name("T1SEL")
    2908                      .dwattr $C$DW$312, DW_AT_TI_symbol_name("_T1SEL")
    2909                      .dwattr $C$DW$312, DW_AT_bit_offset(0x0c), DW_AT_bit_size(0x04)
    2910                      .dwattr $C$DW$312, DW_AT_data_member_location[DW_OP_plus_uconst 0x0]
    2911                      .dwattr $C$DW$312, DW_AT_accessibility(DW_ACCESS_public)
    2912              $C$DW$313       .dwtag  DW_TAG_member
    2913                      .dwattr $C$DW$313, DW_AT_type(*$C$DW$T$31)
    2914                      .dwattr $C$DW$313, DW_AT_name("T2SEL")
    2915                      .dwattr $C$DW$313, DW_AT_TI_symbol_name("_T2SEL")
    2916                      .dwattr $C$DW$313, DW_AT_bit_offset(0x08), DW_AT_bit_size(0x04)
    2917                      .dwattr $C$DW$313, DW_AT_data_member_location[DW_OP_plus_uconst 0x0]
    2918                      .dwattr $C$DW$313, DW_AT_accessibility(DW_ACCESS_public)
    2919              $C$DW$314       .dwtag  DW_TAG_member
    2920                      .dwattr $C$DW$314, DW_AT_type(*$C$DW$T$31)
    2921                      .dwattr $C$DW$314, DW_AT_name("rsvd1")
    2922                      .dwattr $C$DW$314, DW_AT_TI_symbol_name("_rsvd1")
    2923                      .dwattr $C$DW$314, DW_AT_bit_offset(0x00), DW_AT_bit_size(0x08)
    2924                      .dwattr $C$DW$314, DW_AT_data_member_location[DW_OP_plus_uconst 0x0]
    2925                      .dwattr $C$DW$314, DW_AT_accessibility(DW_ACCESS_public)
    2926                      .dwendtag $C$DW$T$108
    2927              
    2928              
    2929              $C$DW$T$109     .dwtag  DW_TAG_union_type
    2930                      .dwattr $C$DW$T$109, DW_AT_name("AQTSRCSEL_REG")
    2931                      .dwattr $C$DW$T$109, DW_AT_byte_size(0x01)
    2932              $C$DW$315       .dwtag  DW_TAG_member
    2933                      .dwattr $C$DW$315, DW_AT_type(*$C$DW$T$31)
    2934                      .dwattr $C$DW$315, DW_AT_name("all")
    2935                      .dwattr $C$DW$315, DW_AT_TI_symbol_name("_all")
    2936                      .dwattr $C$DW$315, DW_AT_data_member_location[DW_OP_plus_uconst 0x0]
    2937                      .dwattr $C$DW$315, DW_AT_accessibility(DW_ACCESS_public)
    2938              $C$DW$316       .dwtag  DW_TAG_member
    2939                      .dwattr $C$DW$316, DW_AT_type(*$C$DW$T$108)
    2940                      .dwattr $C$DW$316, DW_AT_name("bit")
    2941                      .dwattr $C$DW$316, DW_AT_TI_symbol_name("_bit")
    2942                      .dwattr $C$DW$316, DW_AT_data_member_location[DW_OP_plus_uconst 0x0]
TMS320C2000 Assembler PC v6.4.2 Thu Dec 14 15:26:04 2017

Tools Copyright (c) 1996-2015 Texas Instruments Incorporated
drv8305.asm                                                          PAGE   57

    2943                      .dwattr $C$DW$316, DW_AT_accessibility(DW_ACCESS_public)
    2944                      .dwendtag $C$DW$T$109
    2945              
    2946              
    2947              $C$DW$T$110     .dwtag  DW_TAG_structure_type
    2948                      .dwattr $C$DW$T$110, DW_AT_name("CMPA_BITS")
    2949                      .dwattr $C$DW$T$110, DW_AT_byte_size(0x02)
    2950              $C$DW$317       .dwtag  DW_TAG_member
    2951                      .dwattr $C$DW$317, DW_AT_type(*$C$DW$T$31)
    2952                      .dwattr $C$DW$317, DW_AT_name("CMPAHR")
    2953                      .dwattr $C$DW$317, DW_AT_TI_symbol_name("_CMPAHR")
    2954                      .dwattr $C$DW$317, DW_AT_bit_offset(0x00), DW_AT_bit_size(0x10)
    2955                      .dwattr $C$DW$317, DW_AT_data_member_location[DW_OP_plus_uconst 0x0]
    2956                      .dwattr $C$DW$317, DW_AT_accessibility(DW_ACCESS_public)
    2957              $C$DW$318       .dwtag  DW_TAG_member
    2958                      .dwattr $C$DW$318, DW_AT_type(*$C$DW$T$31)
    2959                      .dwattr $C$DW$318, DW_AT_name("CMPA")
    2960                      .dwattr $C$DW$318, DW_AT_TI_symbol_name("_CMPA")
    2961                      .dwattr $C$DW$318, DW_AT_bit_offset(0x00), DW_AT_bit_size(0x10)
    2962                      .dwattr $C$DW$318, DW_AT_data_member_location[DW_OP_plus_uconst 0x1]
    2963                      .dwattr $C$DW$318, DW_AT_accessibility(DW_ACCESS_public)
    2964                      .dwendtag $C$DW$T$110
    2965              
    2966              
    2967              $C$DW$T$111     .dwtag  DW_TAG_union_type
    2968                      .dwattr $C$DW$T$111, DW_AT_name("CMPA_REG")
    2969                      .dwattr $C$DW$T$111, DW_AT_byte_size(0x02)
    2970              $C$DW$319       .dwtag  DW_TAG_member
    2971                      .dwattr $C$DW$319, DW_AT_type(*$C$DW$T$33)
    2972                      .dwattr $C$DW$319, DW_AT_name("all")
    2973                      .dwattr $C$DW$319, DW_AT_TI_symbol_name("_all")
    2974                      .dwattr $C$DW$319, DW_AT_data_member_location[DW_OP_plus_uconst 0x0]
    2975                      .dwattr $C$DW$319, DW_AT_accessibility(DW_ACCESS_public)
    2976              $C$DW$320       .dwtag  DW_TAG_member
    2977                      .dwattr $C$DW$320, DW_AT_type(*$C$DW$T$110)
    2978                      .dwattr $C$DW$320, DW_AT_name("bit")
    2979                      .dwattr $C$DW$320, DW_AT_TI_symbol_name("_bit")
    2980                      .dwattr $C$DW$320, DW_AT_data_member_location[DW_OP_plus_uconst 0x0]
    2981                      .dwattr $C$DW$320, DW_AT_accessibility(DW_ACCESS_public)
    2982                      .dwendtag $C$DW$T$111
    2983              
    2984              
    2985              $C$DW$T$112     .dwtag  DW_TAG_structure_type
    2986                      .dwattr $C$DW$T$112, DW_AT_name("CMPB_BITS")
    2987                      .dwattr $C$DW$T$112, DW_AT_byte_size(0x02)
    2988              $C$DW$321       .dwtag  DW_TAG_member
    2989                      .dwattr $C$DW$321, DW_AT_type(*$C$DW$T$31)
    2990                      .dwattr $C$DW$321, DW_AT_name("CMPBHR")
    2991                      .dwattr $C$DW$321, DW_AT_TI_symbol_name("_CMPBHR")
    2992                      .dwattr $C$DW$321, DW_AT_bit_offset(0x00), DW_AT_bit_size(0x10)
    2993                      .dwattr $C$DW$321, DW_AT_data_member_location[DW_OP_plus_uconst 0x0]
    2994                      .dwattr $C$DW$321, DW_AT_accessibility(DW_ACCESS_public)
    2995              $C$DW$322       .dwtag  DW_TAG_member
    2996                      .dwattr $C$DW$322, DW_AT_type(*$C$DW$T$31)
    2997                      .dwattr $C$DW$322, DW_AT_name("CMPB")
TMS320C2000 Assembler PC v6.4.2 Thu Dec 14 15:26:04 2017

Tools Copyright (c) 1996-2015 Texas Instruments Incorporated
drv8305.asm                                                          PAGE   58

    2998                      .dwattr $C$DW$322, DW_AT_TI_symbol_name("_CMPB")
    2999                      .dwattr $C$DW$322, DW_AT_bit_offset(0x00), DW_AT_bit_size(0x10)
    3000                      .dwattr $C$DW$322, DW_AT_data_member_location[DW_OP_plus_uconst 0x1]
    3001                      .dwattr $C$DW$322, DW_AT_accessibility(DW_ACCESS_public)
    3002                      .dwendtag $C$DW$T$112
    3003              
    3004              
    3005              $C$DW$T$113     .dwtag  DW_TAG_union_type
    3006                      .dwattr $C$DW$T$113, DW_AT_name("CMPB_REG")
    3007                      .dwattr $C$DW$T$113, DW_AT_byte_size(0x02)
    3008              $C$DW$323       .dwtag  DW_TAG_member
    3009                      .dwattr $C$DW$323, DW_AT_type(*$C$DW$T$33)
    3010                      .dwattr $C$DW$323, DW_AT_name("all")
    3011                      .dwattr $C$DW$323, DW_AT_TI_symbol_name("_all")
    3012                      .dwattr $C$DW$323, DW_AT_data_member_location[DW_OP_plus_uconst 0x0]
    3013                      .dwattr $C$DW$323, DW_AT_accessibility(DW_ACCESS_public)
    3014              $C$DW$324       .dwtag  DW_TAG_member
    3015                      .dwattr $C$DW$324, DW_AT_type(*$C$DW$T$112)
    3016                      .dwattr $C$DW$324, DW_AT_name("bit")
    3017                      .dwattr $C$DW$324, DW_AT_TI_symbol_name("_bit")
    3018                      .dwattr $C$DW$324, DW_AT_data_member_location[DW_OP_plus_uconst 0x0]
    3019                      .dwattr $C$DW$324, DW_AT_accessibility(DW_ACCESS_public)
    3020                      .dwendtag $C$DW$T$113
    3021              
    3022              
    3023              $C$DW$T$114     .dwtag  DW_TAG_structure_type
    3024                      .dwattr $C$DW$T$114, DW_AT_name("CMPCTL2_BITS")
    3025                      .dwattr $C$DW$T$114, DW_AT_byte_size(0x01)
    3026              $C$DW$325       .dwtag  DW_TAG_member
    3027                      .dwattr $C$DW$325, DW_AT_type(*$C$DW$T$31)
    3028                      .dwattr $C$DW$325, DW_AT_name("LOADCMODE")
    3029                      .dwattr $C$DW$325, DW_AT_TI_symbol_name("_LOADCMODE")
    3030                      .dwattr $C$DW$325, DW_AT_bit_offset(0x0e), DW_AT_bit_size(0x02)
    3031                      .dwattr $C$DW$325, DW_AT_data_member_location[DW_OP_plus_uconst 0x0]
    3032                      .dwattr $C$DW$325, DW_AT_accessibility(DW_ACCESS_public)
    3033              $C$DW$326       .dwtag  DW_TAG_member
    3034                      .dwattr $C$DW$326, DW_AT_type(*$C$DW$T$31)
    3035                      .dwattr $C$DW$326, DW_AT_name("LOADDMODE")
    3036                      .dwattr $C$DW$326, DW_AT_TI_symbol_name("_LOADDMODE")
    3037                      .dwattr $C$DW$326, DW_AT_bit_offset(0x0c), DW_AT_bit_size(0x02)
    3038                      .dwattr $C$DW$326, DW_AT_data_member_location[DW_OP_plus_uconst 0x0]
    3039                      .dwattr $C$DW$326, DW_AT_accessibility(DW_ACCESS_public)
    3040              $C$DW$327       .dwtag  DW_TAG_member
    3041                      .dwattr $C$DW$327, DW_AT_type(*$C$DW$T$31)
    3042                      .dwattr $C$DW$327, DW_AT_name("SHDWCMODE")
    3043                      .dwattr $C$DW$327, DW_AT_TI_symbol_name("_SHDWCMODE")
    3044                      .dwattr $C$DW$327, DW_AT_bit_offset(0x0b), DW_AT_bit_size(0x01)
    3045                      .dwattr $C$DW$327, DW_AT_data_member_location[DW_OP_plus_uconst 0x0]
    3046                      .dwattr $C$DW$327, DW_AT_accessibility(DW_ACCESS_public)
    3047              $C$DW$328       .dwtag  DW_TAG_member
    3048                      .dwattr $C$DW$328, DW_AT_type(*$C$DW$T$31)
    3049                      .dwattr $C$DW$328, DW_AT_name("rsvd1")
    3050                      .dwattr $C$DW$328, DW_AT_TI_symbol_name("_rsvd1")
    3051                      .dwattr $C$DW$328, DW_AT_bit_offset(0x0a), DW_AT_bit_size(0x01)
    3052                      .dwattr $C$DW$328, DW_AT_data_member_location[DW_OP_plus_uconst 0x0]
TMS320C2000 Assembler PC v6.4.2 Thu Dec 14 15:26:04 2017

Tools Copyright (c) 1996-2015 Texas Instruments Incorporated
drv8305.asm                                                          PAGE   59

    3053                      .dwattr $C$DW$328, DW_AT_accessibility(DW_ACCESS_public)
    3054              $C$DW$329       .dwtag  DW_TAG_member
    3055                      .dwattr $C$DW$329, DW_AT_type(*$C$DW$T$31)
    3056                      .dwattr $C$DW$329, DW_AT_name("SHDWDMODE")
    3057                      .dwattr $C$DW$329, DW_AT_TI_symbol_name("_SHDWDMODE")
    3058                      .dwattr $C$DW$329, DW_AT_bit_offset(0x09), DW_AT_bit_size(0x01)
    3059                      .dwattr $C$DW$329, DW_AT_data_member_location[DW_OP_plus_uconst 0x0]
    3060                      .dwattr $C$DW$329, DW_AT_accessibility(DW_ACCESS_public)
    3061              $C$DW$330       .dwtag  DW_TAG_member
    3062                      .dwattr $C$DW$330, DW_AT_type(*$C$DW$T$31)
    3063                      .dwattr $C$DW$330, DW_AT_name("rsvd2")
    3064                      .dwattr $C$DW$330, DW_AT_TI_symbol_name("_rsvd2")
    3065                      .dwattr $C$DW$330, DW_AT_bit_offset(0x06), DW_AT_bit_size(0x03)
    3066                      .dwattr $C$DW$330, DW_AT_data_member_location[DW_OP_plus_uconst 0x0]
    3067                      .dwattr $C$DW$330, DW_AT_accessibility(DW_ACCESS_public)
    3068              $C$DW$331       .dwtag  DW_TAG_member
    3069                      .dwattr $C$DW$331, DW_AT_type(*$C$DW$T$31)
    3070                      .dwattr $C$DW$331, DW_AT_name("LOADCSYNC")
    3071                      .dwattr $C$DW$331, DW_AT_TI_symbol_name("_LOADCSYNC")
    3072                      .dwattr $C$DW$331, DW_AT_bit_offset(0x04), DW_AT_bit_size(0x02)
    3073                      .dwattr $C$DW$331, DW_AT_data_member_location[DW_OP_plus_uconst 0x0]
    3074                      .dwattr $C$DW$331, DW_AT_accessibility(DW_ACCESS_public)
    3075              $C$DW$332       .dwtag  DW_TAG_member
    3076                      .dwattr $C$DW$332, DW_AT_type(*$C$DW$T$31)
    3077                      .dwattr $C$DW$332, DW_AT_name("LOADDSYNC")
    3078                      .dwattr $C$DW$332, DW_AT_TI_symbol_name("_LOADDSYNC")
    3079                      .dwattr $C$DW$332, DW_AT_bit_offset(0x02), DW_AT_bit_size(0x02)
    3080                      .dwattr $C$DW$332, DW_AT_data_member_location[DW_OP_plus_uconst 0x0]
    3081                      .dwattr $C$DW$332, DW_AT_accessibility(DW_ACCESS_public)
    3082              $C$DW$333       .dwtag  DW_TAG_member
    3083                      .dwattr $C$DW$333, DW_AT_type(*$C$DW$T$31)
    3084                      .dwattr $C$DW$333, DW_AT_name("rsvd3")
    3085                      .dwattr $C$DW$333, DW_AT_TI_symbol_name("_rsvd3")
    3086                      .dwattr $C$DW$333, DW_AT_bit_offset(0x00), DW_AT_bit_size(0x02)
    3087                      .dwattr $C$DW$333, DW_AT_data_member_location[DW_OP_plus_uconst 0x0]
    3088                      .dwattr $C$DW$333, DW_AT_accessibility(DW_ACCESS_public)
    3089                      .dwendtag $C$DW$T$114
    3090              
    3091              
    3092              $C$DW$T$115     .dwtag  DW_TAG_union_type
    3093                      .dwattr $C$DW$T$115, DW_AT_name("CMPCTL2_REG")
    3094                      .dwattr $C$DW$T$115, DW_AT_byte_size(0x01)
    3095              $C$DW$334       .dwtag  DW_TAG_member
    3096                      .dwattr $C$DW$334, DW_AT_type(*$C$DW$T$31)
    3097                      .dwattr $C$DW$334, DW_AT_name("all")
    3098                      .dwattr $C$DW$334, DW_AT_TI_symbol_name("_all")
    3099                      .dwattr $C$DW$334, DW_AT_data_member_location[DW_OP_plus_uconst 0x0]
    3100                      .dwattr $C$DW$334, DW_AT_accessibility(DW_ACCESS_public)
    3101              $C$DW$335       .dwtag  DW_TAG_member
    3102                      .dwattr $C$DW$335, DW_AT_type(*$C$DW$T$114)
    3103                      .dwattr $C$DW$335, DW_AT_name("bit")
    3104                      .dwattr $C$DW$335, DW_AT_TI_symbol_name("_bit")
    3105                      .dwattr $C$DW$335, DW_AT_data_member_location[DW_OP_plus_uconst 0x0]
