TMS320C2000 Assembler PC v6.4.2 Thu Dec 14 13:36:50 2017

Tools Copyright (c) 1996-2015 Texas Instruments Incorporated
DRV830x_SPI.asm                                                      PAGE    1

       1              ;***************************************************************
       2              ;* TMS320C2000 C/C++ Codegen                         PC v6.4.2 *
       3              ;* Date/Time created: Thu Dec 14 13:36:49 2017                 *
       4              ;***************************************************************
       5                      .compiler_opts --cla_support=cla0 --float_support=fpu32 --hll_source=on --mem_model:code=flat --mem_m
       6        0002  FP      .set    XAR2
       7              
       8              $C$DW$CU        .dwtag  DW_TAG_compile_unit
       9                      .dwattr $C$DW$CU, DW_AT_name("../motors/HAL/DRV830x_SPI.c")
      10                      .dwattr $C$DW$CU, DW_AT_producer("TI TMS320C2000 C/C++ Codegen PC v6.4.2 Copyright (c) 1996-2015 Texa
      11                      .dwattr $C$DW$CU, DW_AT_TI_version(0x01)
      12                      .dwattr $C$DW$CU, DW_AT_comp_dir("U:\02_MSE\MT\07_Software\CCS_workspace\DiffDrive_v0.93\F2837x_FLASH
      13              
      14              $C$DW$1 .dwtag  DW_TAG_subprogram, DW_AT_name("F28x_usDelay")
      15                      .dwattr $C$DW$1, DW_AT_TI_symbol_name("_F28x_usDelay")
      16                      .dwattr $C$DW$1, DW_AT_declaration
      17                      .dwattr $C$DW$1, DW_AT_external
      18              $C$DW$2 .dwtag  DW_TAG_formal_parameter
      19                      .dwattr $C$DW$2, DW_AT_type(*$C$DW$T$12)
      20                      .dwendtag $C$DW$1
      21              
      22              
      23              $C$DW$3 .dwtag  DW_TAG_subprogram, DW_AT_name("GPIO_WritePin")
      24                      .dwattr $C$DW$3, DW_AT_TI_symbol_name("_GPIO_WritePin")
      25                      .dwattr $C$DW$3, DW_AT_declaration
      26                      .dwattr $C$DW$3, DW_AT_external
      27              $C$DW$4 .dwtag  DW_TAG_formal_parameter
      28                      .dwattr $C$DW$4, DW_AT_type(*$C$DW$T$31)
      29              $C$DW$5 .dwtag  DW_TAG_formal_parameter
      30                      .dwattr $C$DW$5, DW_AT_type(*$C$DW$T$31)
      31                      .dwendtag $C$DW$3
      32              
      33              ;       C:\ti\ccsv6\tools\compiler\ti-cgt-c2000_6.4.2\bin\ac2000.exe -@C:\\Users\\ficm\\AppData\\Local\\Temp\
      34 00000000               .sect   ".text"
      35                      .clink
      36                      .global _SPI_Driver
      37              
      38              $C$DW$6 .dwtag  DW_TAG_subprogram, DW_AT_name("SPI_Driver")
      39                      .dwattr $C$DW$6, DW_AT_low_pc(_SPI_Driver)
      40                      .dwattr $C$DW$6, DW_AT_high_pc(0x00)
      41                      .dwattr $C$DW$6, DW_AT_TI_symbol_name("_SPI_Driver")
      42                      .dwattr $C$DW$6, DW_AT_external
      43                      .dwattr $C$DW$6, DW_AT_type(*$C$DW$T$31)
      44                      .dwattr $C$DW$6, DW_AT_TI_begin_file("../motors/HAL/DRV830x_SPI.c")
      45                      .dwattr $C$DW$6, DW_AT_TI_begin_line(0x1b)
      46                      .dwattr $C$DW$6, DW_AT_TI_begin_column(0x08)
      47                      .dwattr $C$DW$6, DW_AT_TI_max_frame_size(-6)
      48                      .dwpsn  file "../motors/HAL/DRV830x_SPI.c",line 28,column 1,is_stmt,address _SPI_Driver,isa 0
      49              
      50                      .dwfde $C$DW$CIE, _SPI_Driver
      51              $C$DW$7 .dwtag  DW_TAG_formal_parameter, DW_AT_name("s")
      52                      .dwattr $C$DW$7, DW_AT_TI_symbol_name("_s")
      53                      .dwattr $C$DW$7, DW_AT_type(*$C$DW$T$64)
      54                      .dwattr $C$DW$7, DW_AT_location[DW_OP_reg12]
      55              $C$DW$8 .dwtag  DW_TAG_formal_parameter, DW_AT_name("data")
TMS320C2000 Assembler PC v6.4.2 Thu Dec 14 13:36:50 2017

Tools Copyright (c) 1996-2015 Texas Instruments Incorporated
DRV830x_SPI.asm                                                      PAGE    2

      56                      .dwattr $C$DW$8, DW_AT_TI_symbol_name("_data")
      57                      .dwattr $C$DW$8, DW_AT_type(*$C$DW$T$31)
      58                      .dwattr $C$DW$8, DW_AT_location[DW_OP_reg0]
      59              $C$DW$9 .dwtag  DW_TAG_formal_parameter, DW_AT_name("scsPin")
      60                      .dwattr $C$DW$9, DW_AT_TI_symbol_name("_scsPin")
      61                      .dwattr $C$DW$9, DW_AT_type(*$C$DW$T$31)
      62                      .dwattr $C$DW$9, DW_AT_location[DW_OP_reg1]
      63              
      64              ;***************************************************************
      65              ;* FNAME: _SPI_Driver                   FR SIZE:   4           *
      66              ;*                                                             *
      67              ;* FUNCTION ENVIRONMENT                                        *
      68              ;*                                                             *
      69              ;* FUNCTION PROPERTIES                                         *
      70              ;*                            0 Parameter,  4 Auto,  0 SOE     *
      71              ;***************************************************************
      72              
      73 00000000       _SPI_Driver:
      74                      .dwcfi  cfa_offset, -2
      75                      .dwcfi  save_reg_to_mem, 26, 0
      76 00000000 FE04          ADDB      SP,#4                 ; [CPU_U] 
      77                      .dwcfi  cfa_offset, -6
      78              $C$DW$10        .dwtag  DW_TAG_variable, DW_AT_name("s")
      79                      .dwattr $C$DW$10, DW_AT_TI_symbol_name("_s")
      80                      .dwattr $C$DW$10, DW_AT_type(*$C$DW$T$64)
      81                      .dwattr $C$DW$10, DW_AT_location[DW_OP_breg20 -2]
      82              $C$DW$11        .dwtag  DW_TAG_variable, DW_AT_name("data")
      83                      .dwattr $C$DW$11, DW_AT_TI_symbol_name("_data")
      84                      .dwattr $C$DW$11, DW_AT_type(*$C$DW$T$31)
      85                      .dwattr $C$DW$11, DW_AT_location[DW_OP_breg20 -3]
      86              $C$DW$12        .dwtag  DW_TAG_variable, DW_AT_name("scsPin")
      87                      .dwattr $C$DW$12, DW_AT_TI_symbol_name("_scsPin")
      88                      .dwattr $C$DW$12, DW_AT_type(*$C$DW$T$31)
      89                      .dwattr $C$DW$12, DW_AT_location[DW_OP_breg20 -4]
      90 00000001 9744          MOV       *-SP[4],AH            ; [CPU_] |28| 
      91 00000002 9643          MOV       *-SP[3],AL            ; [CPU_] |28| 
      92 00000003 A842          MOVL      *-SP[2],XAR4          ; [CPU_] |28| 
      93                      .dwpsn  file "../motors/HAL/DRV830x_SPI.c",line 29,column 2,is_stmt,isa 0
      94 00000004 9244          MOV       AL,*-SP[4]            ; [CPU_] |29| 
      95 00000005 9B00          MOVB      AH,#0                 ; [CPU_] |29| 
      96              $C$DW$13        .dwtag  DW_TAG_TI_branch
      97                      .dwattr $C$DW$13, DW_AT_low_pc(0x00)
      98                      .dwattr $C$DW$13, DW_AT_name("_GPIO_WritePin")
      99                      .dwattr $C$DW$13, DW_AT_TI_call
     100 00000006 7640!         LCR       #_GPIO_WritePin       ; [CPU_] |29| 
         00000007 0000 
     101                      ; call occurs [#_GPIO_WritePin] ; [] |29| 
     102                      .dwpsn  file "../motors/HAL/DRV830x_SPI.c",line 30,column 2,is_stmt,isa 0
     103 00000008 8843          MOVZ      AR6,*-SP[3]           ; [CPU_] |30| 
     104 00000009 0208          MOVB      ACC,#8                ; [CPU_] |30| 
     105 0000000a 0742          ADDL      ACC,*-SP[2]           ; [CPU_] |30| 
     106 0000000b 8AA9          MOVL      XAR4,ACC              ; [CPU_] |30| 
     107 0000000c 7EC4          MOV       *+XAR4[0],AR6         ; [CPU_] |30| 
     108                      .dwpsn  file "../motors/HAL/DRV830x_SPI.c",line 31,column 2,is_stmt,isa 0
     109 0000000d       $C$L1:    
TMS320C2000 Assembler PC v6.4.2 Thu Dec 14 13:36:50 2017

Tools Copyright (c) 1996-2015 Texas Instruments Incorporated
DRV830x_SPI.asm                                                      PAGE    3

     110                      .dwpsn  file "../motors/HAL/DRV830x_SPI.c",line 31,column 8,is_stmt,isa 0
     111 0000000d 8A42          MOVL      XAR4,*-SP[2]          ; [CPU_] |31| 
     112 0000000e 46D4          TBIT      *+XAR4[2],#6          ; [CPU_] |31| 
     113 0000000f EFFE          BF        $C$L1,NTC             ; [CPU_] |31| 
     114                      ; branchcc occurs ; [] |31| 
     115                      .dwpsn  file "../motors/HAL/DRV830x_SPI.c",line 32,column 2,is_stmt,isa 0
     116 00000010 92FC          MOV       AL,*+XAR4[7]          ; [CPU_] |32| 
     117 00000011 9643          MOV       *-SP[3],AL            ; [CPU_] |32| 
     118                      .dwpsn  file "../motors/HAL/DRV830x_SPI.c",line 33,column 2,is_stmt,isa 0
     119 00000012 9244          MOV       AL,*-SP[4]            ; [CPU_] |33| 
     120 00000013 9B01          MOVB      AH,#1                 ; [CPU_] |33| 
     121              $C$DW$14        .dwtag  DW_TAG_TI_branch
     122                      .dwattr $C$DW$14, DW_AT_low_pc(0x00)
     123                      .dwattr $C$DW$14, DW_AT_name("_GPIO_WritePin")
     124                      .dwattr $C$DW$14, DW_AT_TI_call
     125 00000014 7640!         LCR       #_GPIO_WritePin       ; [CPU_] |33| 
         00000015 0000 
     126                      ; call occurs [#_GPIO_WritePin] ; [] |33| 
     127                      .dwpsn  file "../motors/HAL/DRV830x_SPI.c",line 35,column 2,is_stmt,isa 0
     128 00000016 9243          MOV       AL,*-SP[3]            ; [CPU_] |35| 
     129                      .dwpsn  file "../motors/HAL/DRV830x_SPI.c",line 36,column 1,is_stmt,isa 0
     130 00000017 FE84          SUBB      SP,#4                 ; [CPU_U] 
     131                      .dwcfi  cfa_offset, -2
     132              $C$DW$15        .dwtag  DW_TAG_TI_branch
     133                      .dwattr $C$DW$15, DW_AT_low_pc(0x00)
     134                      .dwattr $C$DW$15, DW_AT_TI_return
     135 00000018 0006          LRETR     ; [CPU_] 
     136                      ; return occurs ; [] 
     137                      .dwattr $C$DW$6, DW_AT_TI_end_file("../motors/HAL/DRV830x_SPI.c")
     138                      .dwattr $C$DW$6, DW_AT_TI_end_line(0x24)
     139                      .dwattr $C$DW$6, DW_AT_TI_end_column(0x01)
     140                      .dwendentry
     141                      .dwendtag $C$DW$6
     142              
     143 00000019               .sect   ".text"
     144                      .clink
     145                      .global _DRV8305_SPI_Read
     146              
     147              $C$DW$16        .dwtag  DW_TAG_subprogram, DW_AT_name("DRV8305_SPI_Read")
     148                      .dwattr $C$DW$16, DW_AT_low_pc(_DRV8305_SPI_Read)
     149                      .dwattr $C$DW$16, DW_AT_high_pc(0x00)
     150                      .dwattr $C$DW$16, DW_AT_TI_symbol_name("_DRV8305_SPI_Read")
     151                      .dwattr $C$DW$16, DW_AT_external
     152                      .dwattr $C$DW$16, DW_AT_type(*$C$DW$T$31)
     153                      .dwattr $C$DW$16, DW_AT_TI_begin_file("../motors/HAL/DRV830x_SPI.c")
     154                      .dwattr $C$DW$16, DW_AT_TI_begin_line(0x4b)
     155                      .dwattr $C$DW$16, DW_AT_TI_begin_column(0x08)
     156                      .dwattr $C$DW$16, DW_AT_TI_max_frame_size(-6)
     157                      .dwpsn  file "../motors/HAL/DRV830x_SPI.c",line 76,column 1,is_stmt,address _DRV8305_SPI_Read,isa 0
     158              
     159                      .dwfde $C$DW$CIE, _DRV8305_SPI_Read
     160              $C$DW$17        .dwtag  DW_TAG_formal_parameter, DW_AT_name("motor")
     161                      .dwattr $C$DW$17, DW_AT_TI_symbol_name("_motor")
     162                      .dwattr $C$DW$17, DW_AT_type(*$C$DW$T$282)
     163                      .dwattr $C$DW$17, DW_AT_location[DW_OP_reg12]
TMS320C2000 Assembler PC v6.4.2 Thu Dec 14 13:36:50 2017

Tools Copyright (c) 1996-2015 Texas Instruments Incorporated
DRV830x_SPI.asm                                                      PAGE    4

     164              $C$DW$18        .dwtag  DW_TAG_formal_parameter, DW_AT_name("address")
     165                      .dwattr $C$DW$18, DW_AT_TI_symbol_name("_address")
     166                      .dwattr $C$DW$18, DW_AT_type(*$C$DW$T$31)
     167                      .dwattr $C$DW$18, DW_AT_location[DW_OP_reg0]
     168              
     169              ;***************************************************************
     170              ;* FNAME: _DRV8305_SPI_Read             FR SIZE:   4           *
     171              ;*                                                             *
     172              ;* FUNCTION ENVIRONMENT                                        *
     173              ;*                                                             *
     174              ;* FUNCTION PROPERTIES                                         *
     175              ;*                            0 Parameter,  4 Auto,  0 SOE     *
     176              ;***************************************************************
     177              
     178 00000019       _DRV8305_SPI_Read:
     179                      .dwcfi  cfa_offset, -2
     180                      .dwcfi  save_reg_to_mem, 26, 0
     181 00000019 FE04          ADDB      SP,#4                 ; [CPU_U] 
     182                      .dwcfi  cfa_offset, -6
     183              $C$DW$19        .dwtag  DW_TAG_variable, DW_AT_name("motor")
     184                      .dwattr $C$DW$19, DW_AT_TI_symbol_name("_motor")
     185                      .dwattr $C$DW$19, DW_AT_type(*$C$DW$T$282)
     186                      .dwattr $C$DW$19, DW_AT_location[DW_OP_breg20 -2]
     187              $C$DW$20        .dwtag  DW_TAG_variable, DW_AT_name("address")
     188                      .dwattr $C$DW$20, DW_AT_TI_symbol_name("_address")
     189                      .dwattr $C$DW$20, DW_AT_type(*$C$DW$T$31)
     190                      .dwattr $C$DW$20, DW_AT_location[DW_OP_breg20 -3]
     191              $C$DW$21        .dwtag  DW_TAG_variable, DW_AT_name("w")
     192                      .dwattr $C$DW$21, DW_AT_TI_symbol_name("_w")
     193                      .dwattr $C$DW$21, DW_AT_type(*$C$DW$T$160)
     194                      .dwattr $C$DW$21, DW_AT_location[DW_OP_breg20 -4]
     195 0000001a 9643          MOV       *-SP[3],AL            ; [CPU_] |76| 
     196 0000001b A842          MOVL      *-SP[2],XAR4          ; [CPU_] |76| 
     197                      .dwpsn  file "../motors/HAL/DRV830x_SPI.c",line 79,column 2,is_stmt,isa 0
     198 0000001c 1A44          OR        *-SP[4],#0x8000       ; [CPU_] |79| 
         0000001d 8000 
     199                      .dwpsn  file "../motors/HAL/DRV830x_SPI.c",line 80,column 2,is_stmt,isa 0
     200 0000001e 900F          ANDB      AL,#0x0f              ; [CPU_] |80| 
     201 0000001f CD44          AND       AH,*-SP[4],#0x87ff    ; [CPU_] |80| 
         00000020 87FF 
     202 00000021 FF8A          LSL       AL,11                 ; [CPU_] |80| 
     203 00000022 CAA8          OR        AL,AH                 ; [CPU_] |80| 
     204 00000023 9644          MOV       *-SP[4],AL            ; [CPU_] |80| 
     205                      .dwpsn  file "../motors/HAL/DRV830x_SPI.c",line 81,column 2,is_stmt,isa 0
     206 00000024 1844          AND       *-SP[4],#0xf800       ; [CPU_] |81| 
         00000025 F800 
     207                      .dwpsn  file "../motors/HAL/DRV830x_SPI.c",line 83,column 2,is_stmt,isa 0
     208 00000026 0208          MOVB      ACC,#8                ; [CPU_] |83| 
     209 00000027 0742          ADDL      ACC,*-SP[2]           ; [CPU_] |83| 
     210 00000028 8AA9          MOVL      XAR4,ACC              ; [CPU_] |83| 
     211 00000029 020A          MOVB      ACC,#10               ; [CPU_] |83| 
     212 0000002a 0742          ADDL      ACC,*-SP[2]           ; [CPU_] |83| 
     213 0000002b 83A9          MOVL      XAR5,ACC              ; [CPU_] |83| 
     214 0000002c 9244          MOV       AL,*-SP[4]            ; [CPU_] |83| 
     215 0000002d 8AC4          MOVL      XAR4,*+XAR4[0]        ; [CPU_] |83| 
TMS320C2000 Assembler PC v6.4.2 Thu Dec 14 13:36:50 2017

Tools Copyright (c) 1996-2015 Texas Instruments Incorporated
DRV830x_SPI.asm                                                      PAGE    5

     216 0000002e 93C5          MOV       AH,*+XAR5[0]          ; [CPU_] |83| 
     217              $C$DW$22        .dwtag  DW_TAG_TI_branch
     218                      .dwattr $C$DW$22, DW_AT_low_pc(0x00)
     219                      .dwattr $C$DW$22, DW_AT_name("_SPI_Driver")
     220                      .dwattr $C$DW$22, DW_AT_TI_call
     221 0000002f 7640'         LCR       #_SPI_Driver          ; [CPU_] |83| 
         00000030 0000 
     222                      ; call occurs [#_SPI_Driver] ; [] |83| 
     223                      .dwpsn  file "../motors/HAL/DRV830x_SPI.c",line 84,column 1,is_stmt,isa 0
     224 00000031 FE84          SUBB      SP,#4                 ; [CPU_U] 
     225                      .dwcfi  cfa_offset, -2
     226              $C$DW$23        .dwtag  DW_TAG_TI_branch
     227                      .dwattr $C$DW$23, DW_AT_low_pc(0x00)
     228                      .dwattr $C$DW$23, DW_AT_TI_return
     229 00000032 0006          LRETR     ; [CPU_] 
     230                      ; return occurs ; [] 
     231                      .dwattr $C$DW$16, DW_AT_TI_end_file("../motors/HAL/DRV830x_SPI.c")
     232                      .dwattr $C$DW$16, DW_AT_TI_end_line(0x54)
     233                      .dwattr $C$DW$16, DW_AT_TI_end_column(0x01)
     234                      .dwendentry
     235                      .dwendtag $C$DW$16
     236              
     237 00000033               .sect   ".text"
     238                      .clink
     239                      .global _DRV8305_SPI_Write
     240              
     241              $C$DW$24        .dwtag  DW_TAG_subprogram, DW_AT_name("DRV8305_SPI_Write")
     242                      .dwattr $C$DW$24, DW_AT_low_pc(_DRV8305_SPI_Write)
     243                      .dwattr $C$DW$24, DW_AT_high_pc(0x00)
     244                      .dwattr $C$DW$24, DW_AT_TI_symbol_name("_DRV8305_SPI_Write")
     245                      .dwattr $C$DW$24, DW_AT_external
     246                      .dwattr $C$DW$24, DW_AT_type(*$C$DW$T$31)
     247                      .dwattr $C$DW$24, DW_AT_TI_begin_file("../motors/HAL/DRV830x_SPI.c")
     248                      .dwattr $C$DW$24, DW_AT_TI_begin_line(0x59)
     249                      .dwattr $C$DW$24, DW_AT_TI_begin_column(0x08)
     250                      .dwattr $C$DW$24, DW_AT_TI_max_frame_size(-8)
     251                      .dwpsn  file "../motors/HAL/DRV830x_SPI.c",line 90,column 1,is_stmt,address _DRV8305_SPI_Write,isa 0
     252              
     253                      .dwfde $C$DW$CIE, _DRV8305_SPI_Write
     254              $C$DW$25        .dwtag  DW_TAG_formal_parameter, DW_AT_name("motor")
     255                      .dwattr $C$DW$25, DW_AT_TI_symbol_name("_motor")
     256                      .dwattr $C$DW$25, DW_AT_type(*$C$DW$T$282)
     257                      .dwattr $C$DW$25, DW_AT_location[DW_OP_reg12]
     258              $C$DW$26        .dwtag  DW_TAG_formal_parameter, DW_AT_name("address")
     259                      .dwattr $C$DW$26, DW_AT_TI_symbol_name("_address")
     260                      .dwattr $C$DW$26, DW_AT_type(*$C$DW$T$31)
     261                      .dwattr $C$DW$26, DW_AT_location[DW_OP_reg0]
     262              
     263              ;***************************************************************
     264              ;* FNAME: _DRV8305_SPI_Write            FR SIZE:   6           *
     265              ;*                                                             *
     266              ;* FUNCTION ENVIRONMENT                                        *
     267              ;*                                                             *
     268              ;* FUNCTION PROPERTIES                                         *
     269              ;*                            0 Parameter,  6 Auto,  0 SOE     *
TMS320C2000 Assembler PC v6.4.2 Thu Dec 14 13:36:50 2017

Tools Copyright (c) 1996-2015 Texas Instruments Incorporated
DRV830x_SPI.asm                                                      PAGE    6

     270              ;***************************************************************
     271              
     272 00000033       _DRV8305_SPI_Write:
     273                      .dwcfi  cfa_offset, -2
     274                      .dwcfi  save_reg_to_mem, 26, 0
     275 00000033 FE06          ADDB      SP,#6                 ; [CPU_U] 
     276                      .dwcfi  cfa_offset, -8
     277              $C$DW$27        .dwtag  DW_TAG_variable, DW_AT_name("motor")
     278                      .dwattr $C$DW$27, DW_AT_TI_symbol_name("_motor")
     279                      .dwattr $C$DW$27, DW_AT_type(*$C$DW$T$282)
     280                      .dwattr $C$DW$27, DW_AT_location[DW_OP_breg20 -2]
     281              $C$DW$28        .dwtag  DW_TAG_variable, DW_AT_name("address")
     282                      .dwattr $C$DW$28, DW_AT_TI_symbol_name("_address")
     283                      .dwattr $C$DW$28, DW_AT_type(*$C$DW$T$31)
     284                      .dwattr $C$DW$28, DW_AT_location[DW_OP_breg20 -3]
     285              $C$DW$29        .dwtag  DW_TAG_variable, DW_AT_name("w")
     286                      .dwattr $C$DW$29, DW_AT_TI_symbol_name("_w")
     287                      .dwattr $C$DW$29, DW_AT_type(*$C$DW$T$160)
     288                      .dwattr $C$DW$29, DW_AT_location[DW_OP_breg20 -4]
     289              $C$DW$30        .dwtag  DW_TAG_variable, DW_AT_name("cntrlReg")
     290                      .dwattr $C$DW$30, DW_AT_TI_symbol_name("_cntrlReg")
     291                      .dwattr $C$DW$30, DW_AT_type(*$C$DW$T$294)
     292                      .dwattr $C$DW$30, DW_AT_location[DW_OP_breg20 -6]
     293 00000034 9643          MOV       *-SP[3],AL            ; [CPU_] |90| 
     294 00000035 A842          MOVL      *-SP[2],XAR4          ; [CPU_] |90| 
     295                      .dwpsn  file "../motors/HAL/DRV830x_SPI.c",line 94,column 5,is_stmt,isa 0
     296 00000036 8F00          MOVL      XAR4,#315             ; [CPU_U] |94| 
         00000037 013B 
     297 00000038 A8A9          MOVL      ACC,XAR4              ; [CPU_] |94| 
     298 00000039 0742          ADDL      ACC,*-SP[2]           ; [CPU_] |94| 
     299 0000003a 1E46          MOVL      *-SP[6],ACC           ; [CPU_] |94| 
     300                      .dwpsn  file "../motors/HAL/DRV830x_SPI.c",line 96,column 2,is_stmt,isa 0
     301 0000003b 1844          AND       *-SP[4],#0x7fff       ; [CPU_] |96| 
         0000003c 7FFF 
     302                      .dwpsn  file "../motors/HAL/DRV830x_SPI.c",line 97,column 2,is_stmt,isa 0
     303 0000003d 9243          MOV       AL,*-SP[3]            ; [CPU_] |97| 
     304 0000003e CD44          AND       AH,*-SP[4],#0x87ff    ; [CPU_] |97| 
         0000003f 87FF 
     305 00000040 900F          ANDB      AL,#0x0f              ; [CPU_] |97| 
     306 00000041 FF8A          LSL       AL,11                 ; [CPU_] |97| 
     307 00000042 CAA8          OR        AL,AH                 ; [CPU_] |97| 
     308 00000043 9644          MOV       *-SP[4],AL            ; [CPU_] |97| 
     309                      .dwpsn  file "../motors/HAL/DRV830x_SPI.c",line 98,column 2,is_stmt,isa 0
     310 00000044 5843          MOVZ      AR0,*-SP[3]           ; [CPU_] |98| 
     311 00000045 8A46          MOVL      XAR4,*-SP[6]          ; [CPU_] |98| 
     312 00000046 CD44          AND       AH,*-SP[4],#0xf800    ; [CPU_] |98| 
         00000047 F800 
     313 00000048 CC94          AND       AL,*+XAR4[AR0],#0x07ff ; [CPU_] |98| 
         00000049 07FF 
     314 0000004a CAA8          OR        AL,AH                 ; [CPU_] |98| 
     315 0000004b 9644          MOV       *-SP[4],AL            ; [CPU_] |98| 
     316                      .dwpsn  file "../motors/HAL/DRV830x_SPI.c",line 100,column 2,is_stmt,isa 0
     317 0000004c 0208          MOVB      ACC,#8                ; [CPU_] |100| 
     318 0000004d 0742          ADDL      ACC,*-SP[2]           ; [CPU_] |100| 
     319 0000004e 8AA9          MOVL      XAR4,ACC              ; [CPU_] |100| 
TMS320C2000 Assembler PC v6.4.2 Thu Dec 14 13:36:50 2017

Tools Copyright (c) 1996-2015 Texas Instruments Incorporated
DRV830x_SPI.asm                                                      PAGE    7

     320 0000004f 020A          MOVB      ACC,#10               ; [CPU_] |100| 
     321 00000050 0742          ADDL      ACC,*-SP[2]           ; [CPU_] |100| 
     322 00000051 83A9          MOVL      XAR5,ACC              ; [CPU_] |100| 
     323 00000052 9244          MOV       AL,*-SP[4]            ; [CPU_] |100| 
     324 00000053 8AC4          MOVL      XAR4,*+XAR4[0]        ; [CPU_] |100| 
     325 00000054 93C5          MOV       AH,*+XAR5[0]          ; [CPU_] |100| 
     326              $C$DW$31        .dwtag  DW_TAG_TI_branch
     327                      .dwattr $C$DW$31, DW_AT_low_pc(0x00)
     328                      .dwattr $C$DW$31, DW_AT_name("_SPI_Driver")
     329                      .dwattr $C$DW$31, DW_AT_TI_call
     330 00000055 7640'         LCR       #_SPI_Driver          ; [CPU_] |100| 
         00000056 0000 
     331                      ; call occurs [#_SPI_Driver] ; [] |100| 
     332                      .dwpsn  file "../motors/HAL/DRV830x_SPI.c",line 101,column 1,is_stmt,isa 0
     333 00000057 FE86          SUBB      SP,#6                 ; [CPU_U] 
     334                      .dwcfi  cfa_offset, -2
     335              $C$DW$32        .dwtag  DW_TAG_TI_branch
     336                      .dwattr $C$DW$32, DW_AT_low_pc(0x00)
     337                      .dwattr $C$DW$32, DW_AT_TI_return
     338 00000058 0006          LRETR     ; [CPU_] 
     339                      ; return occurs ; [] 
     340                      .dwattr $C$DW$24, DW_AT_TI_end_file("../motors/HAL/DRV830x_SPI.c")
     341                      .dwattr $C$DW$24, DW_AT_TI_end_line(0x65)
     342                      .dwattr $C$DW$24, DW_AT_TI_end_column(0x01)
     343                      .dwendentry
     344                      .dwendtag $C$DW$24
     345              
     346 00000059               .sect   ".text"
     347                      .clink
     348                      .global _DRV8301_SPI_Read
     349              
     350              $C$DW$33        .dwtag  DW_TAG_subprogram, DW_AT_name("DRV8301_SPI_Read")
     351                      .dwattr $C$DW$33, DW_AT_low_pc(_DRV8301_SPI_Read)
     352                      .dwattr $C$DW$33, DW_AT_high_pc(0x00)
     353                      .dwattr $C$DW$33, DW_AT_TI_symbol_name("_DRV8301_SPI_Read")
     354                      .dwattr $C$DW$33, DW_AT_external
     355                      .dwattr $C$DW$33, DW_AT_type(*$C$DW$T$31)
     356                      .dwattr $C$DW$33, DW_AT_TI_begin_file("../motors/HAL/DRV830x_SPI.c")
     357                      .dwattr $C$DW$33, DW_AT_TI_begin_line(0x6a)
     358                      .dwattr $C$DW$33, DW_AT_TI_begin_column(0x08)
     359                      .dwattr $C$DW$33, DW_AT_TI_max_frame_size(-8)
     360                      .dwpsn  file "../motors/HAL/DRV830x_SPI.c",line 107,column 1,is_stmt,address _DRV8301_SPI_Read,isa 0
     361              
     362                      .dwfde $C$DW$CIE, _DRV8301_SPI_Read
     363              $C$DW$34        .dwtag  DW_TAG_formal_parameter, DW_AT_name("motor")
     364                      .dwattr $C$DW$34, DW_AT_TI_symbol_name("_motor")
     365                      .dwattr $C$DW$34, DW_AT_type(*$C$DW$T$282)
     366                      .dwattr $C$DW$34, DW_AT_location[DW_OP_reg12]
     367              $C$DW$35        .dwtag  DW_TAG_formal_parameter, DW_AT_name("address")
     368                      .dwattr $C$DW$35, DW_AT_TI_symbol_name("_address")
     369                      .dwattr $C$DW$35, DW_AT_type(*$C$DW$T$31)
     370                      .dwattr $C$DW$35, DW_AT_location[DW_OP_reg0]
     371              
     372              ;***************************************************************
     373              ;* FNAME: _DRV8301_SPI_Read             FR SIZE:   6           *
TMS320C2000 Assembler PC v6.4.2 Thu Dec 14 13:36:50 2017

Tools Copyright (c) 1996-2015 Texas Instruments Incorporated
DRV830x_SPI.asm                                                      PAGE    8

     374              ;*                                                             *
     375              ;* FUNCTION ENVIRONMENT                                        *
     376              ;*                                                             *
     377              ;* FUNCTION PROPERTIES                                         *
     378              ;*                            0 Parameter,  5 Auto,  0 SOE     *
     379              ;***************************************************************
     380              
     381 00000059       _DRV8301_SPI_Read:
     382                      .dwcfi  cfa_offset, -2
     383                      .dwcfi  save_reg_to_mem, 26, 0
     384 00000059 FE06          ADDB      SP,#6                 ; [CPU_U] 
     385                      .dwcfi  cfa_offset, -8
     386              $C$DW$36        .dwtag  DW_TAG_variable, DW_AT_name("motor")
     387                      .dwattr $C$DW$36, DW_AT_TI_symbol_name("_motor")
     388                      .dwattr $C$DW$36, DW_AT_type(*$C$DW$T$282)
     389                      .dwattr $C$DW$36, DW_AT_location[DW_OP_breg20 -2]
     390              $C$DW$37        .dwtag  DW_TAG_variable, DW_AT_name("address")
     391                      .dwattr $C$DW$37, DW_AT_TI_symbol_name("_address")
     392                      .dwattr $C$DW$37, DW_AT_type(*$C$DW$T$31)
     393                      .dwattr $C$DW$37, DW_AT_location[DW_OP_breg20 -3]
     394              $C$DW$38        .dwtag  DW_TAG_variable, DW_AT_name("w")
     395                      .dwattr $C$DW$38, DW_AT_TI_symbol_name("_w")
     396                      .dwattr $C$DW$38, DW_AT_type(*$C$DW$T$160)
     397                      .dwattr $C$DW$38, DW_AT_location[DW_OP_breg20 -4]
     398              $C$DW$39        .dwtag  DW_TAG_variable, DW_AT_name("dummy")
     399                      .dwattr $C$DW$39, DW_AT_TI_symbol_name("_dummy")
     400                      .dwattr $C$DW$39, DW_AT_type(*$C$DW$T$290)
     401                      .dwattr $C$DW$39, DW_AT_location[DW_OP_breg20 -5]
     402 0000005a 9643          MOV       *-SP[3],AL            ; [CPU_] |107| 
     403 0000005b A842          MOVL      *-SP[2],XAR4          ; [CPU_] |107| 
     404                      .dwpsn  file "../motors/HAL/DRV830x_SPI.c",line 111,column 2,is_stmt,isa 0
     405 0000005c 1A44          OR        *-SP[4],#0x8000       ; [CPU_] |111| 
         0000005d 8000 
     406                      .dwpsn  file "../motors/HAL/DRV830x_SPI.c",line 112,column 2,is_stmt,isa 0
     407 0000005e 900F          ANDB      AL,#0x0f              ; [CPU_] |112| 
     408 0000005f CD44          AND       AH,*-SP[4],#0x87ff    ; [CPU_] |112| 
         00000060 87FF 
     409 00000061 FF8A          LSL       AL,11                 ; [CPU_] |112| 
     410 00000062 CAA8          OR        AL,AH                 ; [CPU_] |112| 
     411 00000063 9644          MOV       *-SP[4],AL            ; [CPU_] |112| 
     412                      .dwpsn  file "../motors/HAL/DRV830x_SPI.c",line 113,column 2,is_stmt,isa 0
     413 00000064 1844          AND       *-SP[4],#0xf800       ; [CPU_] |113| 
         00000065 F800 
     414                      .dwpsn  file "../motors/HAL/DRV830x_SPI.c",line 115,column 2,is_stmt,isa 0
     415 00000066 0208          MOVB      ACC,#8                ; [CPU_] |115| 
     416 00000067 0742          ADDL      ACC,*-SP[2]           ; [CPU_] |115| 
     417 00000068 8AA9          MOVL      XAR4,ACC              ; [CPU_] |115| 
     418 00000069 020A          MOVB      ACC,#10               ; [CPU_] |115| 
     419 0000006a 0742          ADDL      ACC,*-SP[2]           ; [CPU_] |115| 
     420 0000006b 83A9          MOVL      XAR5,ACC              ; [CPU_] |115| 
     421 0000006c 9244          MOV       AL,*-SP[4]            ; [CPU_] |115| 
     422 0000006d 8AC4          MOVL      XAR4,*+XAR4[0]        ; [CPU_] |115| 
     423 0000006e 93C5          MOV       AH,*+XAR5[0]          ; [CPU_] |115| 
     424              $C$DW$40        .dwtag  DW_TAG_TI_branch
     425                      .dwattr $C$DW$40, DW_AT_low_pc(0x00)
TMS320C2000 Assembler PC v6.4.2 Thu Dec 14 13:36:50 2017

Tools Copyright (c) 1996-2015 Texas Instruments Incorporated
DRV830x_SPI.asm                                                      PAGE    9

     426                      .dwattr $C$DW$40, DW_AT_name("_SPI_Driver")
     427                      .dwattr $C$DW$40, DW_AT_TI_call
     428 0000006f 7640'         LCR       #_SPI_Driver          ; [CPU_] |115| 
         00000070 0000 
     429                      ; call occurs [#_SPI_Driver] ; [] |115| 
     430 00000071 9645          MOV       *-SP[5],AL            ; [CPU_] |115| 
     431                      .dwpsn  file "../motors/HAL/DRV830x_SPI.c",line 116,column 2,is_stmt,isa 0
     432 00000072 0226          MOVB      ACC,#38               ; [CPU_] |116| 
     433              $C$DW$41        .dwtag  DW_TAG_TI_branch
     434                      .dwattr $C$DW$41, DW_AT_low_pc(0x00)
     435                      .dwattr $C$DW$41, DW_AT_name("_F28x_usDelay")
     436                      .dwattr $C$DW$41, DW_AT_TI_call
     437 00000073 7640!         LCR       #_F28x_usDelay        ; [CPU_] |116| 
         00000074 0000 
     438                      ; call occurs [#_F28x_usDelay] ; [] |116| 
     439                      .dwpsn  file "../motors/HAL/DRV830x_SPI.c",line 117,column 2,is_stmt,isa 0
     440 00000075 0208          MOVB      ACC,#8                ; [CPU_] |117| 
     441 00000076 0742          ADDL      ACC,*-SP[2]           ; [CPU_] |117| 
     442 00000077 8AA9          MOVL      XAR4,ACC              ; [CPU_] |117| 
     443 00000078 020A          MOVB      ACC,#10               ; [CPU_] |117| 
     444 00000079 0742          ADDL      ACC,*-SP[2]           ; [CPU_] |117| 
     445 0000007a 83A9          MOVL      XAR5,ACC              ; [CPU_] |117| 
     446 0000007b 8AC4          MOVL      XAR4,*+XAR4[0]        ; [CPU_] |117| 
     447 0000007c 9A00          MOVB      AL,#0                 ; [CPU_] |117| 
     448 0000007d 93C5          MOV       AH,*+XAR5[0]          ; [CPU_] |117| 
     449              $C$DW$42        .dwtag  DW_TAG_TI_branch
     450                      .dwattr $C$DW$42, DW_AT_low_pc(0x00)
     451                      .dwattr $C$DW$42, DW_AT_name("_SPI_Driver")
     452                      .dwattr $C$DW$42, DW_AT_TI_call
     453 0000007e 7640'         LCR       #_SPI_Driver          ; [CPU_] |117| 
         0000007f 0000 
     454                      ; call occurs [#_SPI_Driver] ; [] |117| 
     455                      .dwpsn  file "../motors/HAL/DRV830x_SPI.c",line 118,column 1,is_stmt,isa 0
     456 00000080 FE86          SUBB      SP,#6                 ; [CPU_U] 
     457                      .dwcfi  cfa_offset, -2
     458              $C$DW$43        .dwtag  DW_TAG_TI_branch
     459                      .dwattr $C$DW$43, DW_AT_low_pc(0x00)
     460                      .dwattr $C$DW$43, DW_AT_TI_return
     461 00000081 0006          LRETR     ; [CPU_] 
     462                      ; return occurs ; [] 
     463                      .dwattr $C$DW$33, DW_AT_TI_end_file("../motors/HAL/DRV830x_SPI.c")
     464                      .dwattr $C$DW$33, DW_AT_TI_end_line(0x76)
     465                      .dwattr $C$DW$33, DW_AT_TI_end_column(0x01)
     466                      .dwendentry
     467                      .dwendtag $C$DW$33
     468              
     469 00000082               .sect   ".text"
     470                      .clink
     471                      .global _DRV8301_SPI_Write
     472              
     473              $C$DW$44        .dwtag  DW_TAG_subprogram, DW_AT_name("DRV8301_SPI_Write")
     474                      .dwattr $C$DW$44, DW_AT_low_pc(_DRV8301_SPI_Write)
     475                      .dwattr $C$DW$44, DW_AT_high_pc(0x00)
     476                      .dwattr $C$DW$44, DW_AT_TI_symbol_name("_DRV8301_SPI_Write")
     477                      .dwattr $C$DW$44, DW_AT_external
TMS320C2000 Assembler PC v6.4.2 Thu Dec 14 13:36:50 2017

Tools Copyright (c) 1996-2015 Texas Instruments Incorporated
DRV830x_SPI.asm                                                      PAGE   10

     478                      .dwattr $C$DW$44, DW_AT_type(*$C$DW$T$31)
     479                      .dwattr $C$DW$44, DW_AT_TI_begin_file("../motors/HAL/DRV830x_SPI.c")
     480                      .dwattr $C$DW$44, DW_AT_TI_begin_line(0x7b)
     481                      .dwattr $C$DW$44, DW_AT_TI_begin_column(0x08)
     482                      .dwattr $C$DW$44, DW_AT_TI_max_frame_size(-8)
     483                      .dwpsn  file "../motors/HAL/DRV830x_SPI.c",line 124,column 1,is_stmt,address _DRV8301_SPI_Write,isa 0
     484              
     485                      .dwfde $C$DW$CIE, _DRV8301_SPI_Write
     486              $C$DW$45        .dwtag  DW_TAG_formal_parameter, DW_AT_name("motor")
     487                      .dwattr $C$DW$45, DW_AT_TI_symbol_name("_motor")
     488                      .dwattr $C$DW$45, DW_AT_type(*$C$DW$T$282)
     489                      .dwattr $C$DW$45, DW_AT_location[DW_OP_reg12]
     490              $C$DW$46        .dwtag  DW_TAG_formal_parameter, DW_AT_name("address")
     491                      .dwattr $C$DW$46, DW_AT_TI_symbol_name("_address")
     492                      .dwattr $C$DW$46, DW_AT_type(*$C$DW$T$31)
     493                      .dwattr $C$DW$46, DW_AT_location[DW_OP_reg0]
     494              
     495              ;***************************************************************
     496              ;* FNAME: _DRV8301_SPI_Write            FR SIZE:   6           *
     497              ;*                                                             *
     498              ;* FUNCTION ENVIRONMENT                                        *
     499              ;*                                                             *
     500              ;* FUNCTION PROPERTIES                                         *
     501              ;*                            0 Parameter,  6 Auto,  0 SOE     *
     502              ;***************************************************************
     503              
     504 00000082       _DRV8301_SPI_Write:
     505                      .dwcfi  cfa_offset, -2
     506                      .dwcfi  save_reg_to_mem, 26, 0
     507 00000082 FE06          ADDB      SP,#6                 ; [CPU_U] 
     508                      .dwcfi  cfa_offset, -8
     509              $C$DW$47        .dwtag  DW_TAG_variable, DW_AT_name("motor")
     510                      .dwattr $C$DW$47, DW_AT_TI_symbol_name("_motor")
     511                      .dwattr $C$DW$47, DW_AT_type(*$C$DW$T$282)
     512                      .dwattr $C$DW$47, DW_AT_location[DW_OP_breg20 -2]
     513              $C$DW$48        .dwtag  DW_TAG_variable, DW_AT_name("address")
     514                      .dwattr $C$DW$48, DW_AT_TI_symbol_name("_address")
     515                      .dwattr $C$DW$48, DW_AT_type(*$C$DW$T$31)
     516                      .dwattr $C$DW$48, DW_AT_location[DW_OP_breg20 -3]
     517              $C$DW$49        .dwtag  DW_TAG_variable, DW_AT_name("w")
     518                      .dwattr $C$DW$49, DW_AT_TI_symbol_name("_w")
     519                      .dwattr $C$DW$49, DW_AT_type(*$C$DW$T$160)
     520                      .dwattr $C$DW$49, DW_AT_location[DW_OP_breg20 -4]
     521              $C$DW$50        .dwtag  DW_TAG_variable, DW_AT_name("cntrlReg")
     522                      .dwattr $C$DW$50, DW_AT_TI_symbol_name("_cntrlReg")
     523                      .dwattr $C$DW$50, DW_AT_type(*$C$DW$T$294)
     524                      .dwattr $C$DW$50, DW_AT_location[DW_OP_breg20 -6]
     525 00000083 9643          MOV       *-SP[3],AL            ; [CPU_] |124| 
     526 00000084 A842          MOVL      *-SP[2],XAR4          ; [CPU_] |124| 
     527                      .dwpsn  file "../motors/HAL/DRV830x_SPI.c",line 128,column 5,is_stmt,isa 0
     528 00000085 8F00          MOVL      XAR4,#308             ; [CPU_U] |128| 
         00000086 0134 
     529 00000087 A8A9          MOVL      ACC,XAR4              ; [CPU_] |128| 
     530 00000088 0742          ADDL      ACC,*-SP[2]           ; [CPU_] |128| 
     531 00000089 1E46          MOVL      *-SP[6],ACC           ; [CPU_] |128| 
TMS320C2000 Assembler PC v6.4.2 Thu Dec 14 13:36:50 2017

Tools Copyright (c) 1996-2015 Texas Instruments Incorporated
DRV830x_SPI.asm                                                      PAGE   11

     532                      .dwpsn  file "../motors/HAL/DRV830x_SPI.c",line 130,column 2,is_stmt,isa 0
     533 0000008a 1844          AND       *-SP[4],#0x7fff       ; [CPU_] |130| 
         0000008b 7FFF 
     534                      .dwpsn  file "../motors/HAL/DRV830x_SPI.c",line 131,column 2,is_stmt,isa 0
     535 0000008c 9243          MOV       AL,*-SP[3]            ; [CPU_] |131| 
     536 0000008d CD44          AND       AH,*-SP[4],#0x87ff    ; [CPU_] |131| 
         0000008e 87FF 
     537 0000008f 900F          ANDB      AL,#0x0f              ; [CPU_] |131| 
     538 00000090 FF8A          LSL       AL,11                 ; [CPU_] |131| 
     539 00000091 CAA8          OR        AL,AH                 ; [CPU_] |131| 
     540 00000092 9644          MOV       *-SP[4],AL            ; [CPU_] |131| 
     541                      .dwpsn  file "../motors/HAL/DRV830x_SPI.c",line 132,column 2,is_stmt,isa 0
     542 00000093 5843          MOVZ      AR0,*-SP[3]           ; [CPU_] |132| 
     543 00000094 8A46          MOVL      XAR4,*-SP[6]          ; [CPU_] |132| 
     544 00000095 CD44          AND       AH,*-SP[4],#0xf800    ; [CPU_] |132| 
         00000096 F800 
     545 00000097 CC94          AND       AL,*+XAR4[AR0],#0x07ff ; [CPU_] |132| 
         00000098 07FF 
     546 00000099 CAA8          OR        AL,AH                 ; [CPU_] |132| 
     547 0000009a 9644          MOV       *-SP[4],AL            ; [CPU_] |132| 
     548                      .dwpsn  file "../motors/HAL/DRV830x_SPI.c",line 134,column 2,is_stmt,isa 0
     549 0000009b 0208          MOVB      ACC,#8                ; [CPU_] |134| 
     550 0000009c 0742          ADDL      ACC,*-SP[2]           ; [CPU_] |134| 
     551 0000009d 8AA9          MOVL      XAR4,ACC              ; [CPU_] |134| 
     552 0000009e 020A          MOVB      ACC,#10               ; [CPU_] |134| 
     553 0000009f 0742          ADDL      ACC,*-SP[2]           ; [CPU_] |134| 
     554 000000a0 83A9          MOVL      XAR5,ACC              ; [CPU_] |134| 
     555 000000a1 9244          MOV       AL,*-SP[4]            ; [CPU_] |134| 
     556 000000a2 8AC4          MOVL      XAR4,*+XAR4[0]        ; [CPU_] |134| 
     557 000000a3 93C5          MOV       AH,*+XAR5[0]          ; [CPU_] |134| 
     558              $C$DW$51        .dwtag  DW_TAG_TI_branch
     559                      .dwattr $C$DW$51, DW_AT_low_pc(0x00)
     560                      .dwattr $C$DW$51, DW_AT_name("_SPI_Driver")
     561                      .dwattr $C$DW$51, DW_AT_TI_call
     562 000000a4 7640'         LCR       #_SPI_Driver          ; [CPU_] |134| 
         000000a5 0000 
     563                      ; call occurs [#_SPI_Driver] ; [] |134| 
     564                      .dwpsn  file "../motors/HAL/DRV830x_SPI.c",line 135,column 1,is_stmt,isa 0
     565 000000a6 FE86          SUBB      SP,#6                 ; [CPU_U] 
     566                      .dwcfi  cfa_offset, -2
     567              $C$DW$52        .dwtag  DW_TAG_TI_branch
     568                      .dwattr $C$DW$52, DW_AT_low_pc(0x00)
     569                      .dwattr $C$DW$52, DW_AT_TI_return
     570 000000a7 0006          LRETR     ; [CPU_] 
     571                      ; return occurs ; [] 
     572                      .dwattr $C$DW$44, DW_AT_TI_end_file("../motors/HAL/DRV830x_SPI.c")
     573                      .dwattr $C$DW$44, DW_AT_TI_end_line(0x87)
     574                      .dwattr $C$DW$44, DW_AT_TI_end_column(0x01)
     575                      .dwendentry
     576                      .dwendtag $C$DW$44
     577              
     578              ;**************************************************************
     579              ;* UNDEFINED EXTERNAL REFERENCES                              *
     580              ;**************************************************************
     581                      .global _F28x_usDelay
TMS320C2000 Assembler PC v6.4.2 Thu Dec 14 13:36:50 2017

Tools Copyright (c) 1996-2015 Texas Instruments Incorporated
DRV830x_SPI.asm                                                      PAGE   12

     582                      .global _GPIO_WritePin
     583              
     584              ;***************************************************************
     585              ;* TYPE INFORMATION                                            *
     586              ;***************************************************************
     587              
     588              $C$DW$T$20      .dwtag  DW_TAG_structure_type
     589                      .dwattr $C$DW$T$20, DW_AT_byte_size(0x0a)
     590              $C$DW$53        .dwtag  DW_TAG_member
     591                      .dwattr $C$DW$53, DW_AT_type(*$C$DW$T$19)
     592                      .dwattr $C$DW$53, DW_AT_name("As")
     593                      .dwattr $C$DW$53, DW_AT_TI_symbol_name("_As")
     594                      .dwattr $C$DW$53, DW_AT_data_member_location[DW_OP_plus_uconst 0x0]
     595                      .dwattr $C$DW$53, DW_AT_accessibility(DW_ACCESS_public)
     596              $C$DW$54        .dwtag  DW_TAG_member
     597                      .dwattr $C$DW$54, DW_AT_type(*$C$DW$T$19)
     598                      .dwattr $C$DW$54, DW_AT_name("Bs")
     599                      .dwattr $C$DW$54, DW_AT_TI_symbol_name("_Bs")
     600                      .dwattr $C$DW$54, DW_AT_data_member_location[DW_OP_plus_uconst 0x2]
     601                      .dwattr $C$DW$54, DW_AT_accessibility(DW_ACCESS_public)
     602              $C$DW$55        .dwtag  DW_TAG_member
     603                      .dwattr $C$DW$55, DW_AT_type(*$C$DW$T$19)
     604                      .dwattr $C$DW$55, DW_AT_name("Cs")
     605                      .dwattr $C$DW$55, DW_AT_TI_symbol_name("_Cs")
     606                      .dwattr $C$DW$55, DW_AT_data_member_location[DW_OP_plus_uconst 0x4]
     607                      .dwattr $C$DW$55, DW_AT_accessibility(DW_ACCESS_public)
     608              $C$DW$56        .dwtag  DW_TAG_member
     609                      .dwattr $C$DW$56, DW_AT_type(*$C$DW$T$19)
     610                      .dwattr $C$DW$56, DW_AT_name("Alpha")
     611                      .dwattr $C$DW$56, DW_AT_TI_symbol_name("_Alpha")
     612                      .dwattr $C$DW$56, DW_AT_data_member_location[DW_OP_plus_uconst 0x6]
     613                      .dwattr $C$DW$56, DW_AT_accessibility(DW_ACCESS_public)
     614              $C$DW$57        .dwtag  DW_TAG_member
     615                      .dwattr $C$DW$57, DW_AT_type(*$C$DW$T$19)
     616                      .dwattr $C$DW$57, DW_AT_name("Beta")
     617                      .dwattr $C$DW$57, DW_AT_TI_symbol_name("_Beta")
     618                      .dwattr $C$DW$57, DW_AT_data_member_location[DW_OP_plus_uconst 0x8]
     619                      .dwattr $C$DW$57, DW_AT_accessibility(DW_ACCESS_public)
     620                      .dwendtag $C$DW$T$20
     621              
     622              $C$DW$T$65      .dwtag  DW_TAG_typedef, DW_AT_name("CLARKE")
     623                      .dwattr $C$DW$T$65, DW_AT_type(*$C$DW$T$20)
     624                      .dwattr $C$DW$T$65, DW_AT_language(DW_LANG_C)
     625              
     626              $C$DW$T$21      .dwtag  DW_TAG_structure_type
     627                      .dwattr $C$DW$T$21, DW_AT_byte_size(0x0e)
     628              $C$DW$58        .dwtag  DW_TAG_member
     629                      .dwattr $C$DW$58, DW_AT_type(*$C$DW$T$19)
     630                      .dwattr $C$DW$58, DW_AT_name("Alpha")
     631                      .dwattr $C$DW$58, DW_AT_TI_symbol_name("_Alpha")
     632                      .dwattr $C$DW$58, DW_AT_data_member_location[DW_OP_plus_uconst 0x0]
     633                      .dwattr $C$DW$58, DW_AT_accessibility(DW_ACCESS_public)
     634              $C$DW$59        .dwtag  DW_TAG_member
     635                      .dwattr $C$DW$59, DW_AT_type(*$C$DW$T$19)
     636                      .dwattr $C$DW$59, DW_AT_name("Beta")
TMS320C2000 Assembler PC v6.4.2 Thu Dec 14 13:36:50 2017

Tools Copyright (c) 1996-2015 Texas Instruments Incorporated
DRV830x_SPI.asm                                                      PAGE   13

     637                      .dwattr $C$DW$59, DW_AT_TI_symbol_name("_Beta")
     638                      .dwattr $C$DW$59, DW_AT_data_member_location[DW_OP_plus_uconst 0x2]
     639                      .dwattr $C$DW$59, DW_AT_accessibility(DW_ACCESS_public)
     640              $C$DW$60        .dwtag  DW_TAG_member
     641                      .dwattr $C$DW$60, DW_AT_type(*$C$DW$T$19)
     642                      .dwattr $C$DW$60, DW_AT_name("Angle")
     643                      .dwattr $C$DW$60, DW_AT_TI_symbol_name("_Angle")
     644                      .dwattr $C$DW$60, DW_AT_data_member_location[DW_OP_plus_uconst 0x4]
     645                      .dwattr $C$DW$60, DW_AT_accessibility(DW_ACCESS_public)
     646              $C$DW$61        .dwtag  DW_TAG_member
     647                      .dwattr $C$DW$61, DW_AT_type(*$C$DW$T$19)
     648                      .dwattr $C$DW$61, DW_AT_name("Ds")
     649                      .dwattr $C$DW$61, DW_AT_TI_symbol_name("_Ds")
     650                      .dwattr $C$DW$61, DW_AT_data_member_location[DW_OP_plus_uconst 0x6]
     651                      .dwattr $C$DW$61, DW_AT_accessibility(DW_ACCESS_public)
     652              $C$DW$62        .dwtag  DW_TAG_member
     653                      .dwattr $C$DW$62, DW_AT_type(*$C$DW$T$19)
     654                      .dwattr $C$DW$62, DW_AT_name("Qs")
     655                      .dwattr $C$DW$62, DW_AT_TI_symbol_name("_Qs")
     656                      .dwattr $C$DW$62, DW_AT_data_member_location[DW_OP_plus_uconst 0x8]
     657                      .dwattr $C$DW$62, DW_AT_accessibility(DW_ACCESS_public)
     658              $C$DW$63        .dwtag  DW_TAG_member
     659                      .dwattr $C$DW$63, DW_AT_type(*$C$DW$T$19)
     660                      .dwattr $C$DW$63, DW_AT_name("Sine")
     661                      .dwattr $C$DW$63, DW_AT_TI_symbol_name("_Sine")
     662                      .dwattr $C$DW$63, DW_AT_data_member_location[DW_OP_plus_uconst 0xa]
     663                      .dwattr $C$DW$63, DW_AT_accessibility(DW_ACCESS_public)
     664              $C$DW$64        .dwtag  DW_TAG_member
     665                      .dwattr $C$DW$64, DW_AT_type(*$C$DW$T$19)
     666                      .dwattr $C$DW$64, DW_AT_name("Cosine")
     667                      .dwattr $C$DW$64, DW_AT_TI_symbol_name("_Cosine")
     668                      .dwattr $C$DW$64, DW_AT_data_member_location[DW_OP_plus_uconst 0xc]
     669                      .dwattr $C$DW$64, DW_AT_accessibility(DW_ACCESS_public)
     670                      .dwendtag $C$DW$T$21
     671              
     672              $C$DW$T$66      .dwtag  DW_TAG_typedef, DW_AT_name("PARK")
     673                      .dwattr $C$DW$T$66, DW_AT_type(*$C$DW$T$21)
     674                      .dwattr $C$DW$T$66, DW_AT_language(DW_LANG_C)
     675              
     676              $C$DW$T$22      .dwtag  DW_TAG_structure_type
     677                      .dwattr $C$DW$T$22, DW_AT_byte_size(0x0e)
     678              $C$DW$65        .dwtag  DW_TAG_member
     679                      .dwattr $C$DW$65, DW_AT_type(*$C$DW$T$19)
     680                      .dwattr $C$DW$65, DW_AT_name("Alpha")
     681                      .dwattr $C$DW$65, DW_AT_TI_symbol_name("_Alpha")
     682                      .dwattr $C$DW$65, DW_AT_data_member_location[DW_OP_plus_uconst 0x0]
     683                      .dwattr $C$DW$65, DW_AT_accessibility(DW_ACCESS_public)
     684              $C$DW$66        .dwtag  DW_TAG_member
     685                      .dwattr $C$DW$66, DW_AT_type(*$C$DW$T$19)
     686                      .dwattr $C$DW$66, DW_AT_name("Beta")
     687                      .dwattr $C$DW$66, DW_AT_TI_symbol_name("_Beta")
     688                      .dwattr $C$DW$66, DW_AT_data_member_location[DW_OP_plus_uconst 0x2]
     689                      .dwattr $C$DW$66, DW_AT_accessibility(DW_ACCESS_public)
     690              $C$DW$67        .dwtag  DW_TAG_member
     691                      .dwattr $C$DW$67, DW_AT_type(*$C$DW$T$19)
TMS320C2000 Assembler PC v6.4.2 Thu Dec 14 13:36:50 2017

Tools Copyright (c) 1996-2015 Texas Instruments Incorporated
DRV830x_SPI.asm                                                      PAGE   14

     692                      .dwattr $C$DW$67, DW_AT_name("Angle")
     693                      .dwattr $C$DW$67, DW_AT_TI_symbol_name("_Angle")
     694                      .dwattr $C$DW$67, DW_AT_data_member_location[DW_OP_plus_uconst 0x4]
     695                      .dwattr $C$DW$67, DW_AT_accessibility(DW_ACCESS_public)
     696              $C$DW$68        .dwtag  DW_TAG_member
     697                      .dwattr $C$DW$68, DW_AT_type(*$C$DW$T$19)
     698                      .dwattr $C$DW$68, DW_AT_name("Ds")
     699                      .dwattr $C$DW$68, DW_AT_TI_symbol_name("_Ds")
     700                      .dwattr $C$DW$68, DW_AT_data_member_location[DW_OP_plus_uconst 0x6]
     701                      .dwattr $C$DW$68, DW_AT_accessibility(DW_ACCESS_public)
     702              $C$DW$69        .dwtag  DW_TAG_member
     703                      .dwattr $C$DW$69, DW_AT_type(*$C$DW$T$19)
     704                      .dwattr $C$DW$69, DW_AT_name("Qs")
     705                      .dwattr $C$DW$69, DW_AT_TI_symbol_name("_Qs")
     706                      .dwattr $C$DW$69, DW_AT_data_member_location[DW_OP_plus_uconst 0x8]
     707                      .dwattr $C$DW$69, DW_AT_accessibility(DW_ACCESS_public)
     708              $C$DW$70        .dwtag  DW_TAG_member
     709                      .dwattr $C$DW$70, DW_AT_type(*$C$DW$T$19)
     710                      .dwattr $C$DW$70, DW_AT_name("Sine")
     711                      .dwattr $C$DW$70, DW_AT_TI_symbol_name("_Sine")
     712                      .dwattr $C$DW$70, DW_AT_data_member_location[DW_OP_plus_uconst 0xa]
     713                      .dwattr $C$DW$70, DW_AT_accessibility(DW_ACCESS_public)
     714              $C$DW$71        .dwtag  DW_TAG_member
     715                      .dwattr $C$DW$71, DW_AT_type(*$C$DW$T$19)
     716                      .dwattr $C$DW$71, DW_AT_name("Cosine")
     717                      .dwattr $C$DW$71, DW_AT_TI_symbol_name("_Cosine")
     718                      .dwattr $C$DW$71, DW_AT_data_member_location[DW_OP_plus_uconst 0xc]
     719                      .dwattr $C$DW$71, DW_AT_accessibility(DW_ACCESS_public)
     720                      .dwendtag $C$DW$T$22
     721              
     722              $C$DW$T$67      .dwtag  DW_TAG_typedef, DW_AT_name("IPARK")
     723                      .dwattr $C$DW$T$67, DW_AT_type(*$C$DW$T$22)
     724                      .dwattr $C$DW$T$67, DW_AT_language(DW_LANG_C)
     725              
     726              $C$DW$T$23      .dwtag  DW_TAG_structure_type
     727                      .dwattr $C$DW$T$23, DW_AT_byte_size(0x18)
     728              $C$DW$72        .dwtag  DW_TAG_member
     729                      .dwattr $C$DW$72, DW_AT_type(*$C$DW$T$19)
     730                      .dwattr $C$DW$72, DW_AT_name("Ref")
     731                      .dwattr $C$DW$72, DW_AT_TI_symbol_name("_Ref")
     732                      .dwattr $C$DW$72, DW_AT_data_member_location[DW_OP_plus_uconst 0x0]
     733                      .dwattr $C$DW$72, DW_AT_accessibility(DW_ACCESS_public)
     734              $C$DW$73        .dwtag  DW_TAG_member
     735                      .dwattr $C$DW$73, DW_AT_type(*$C$DW$T$19)
     736                      .dwattr $C$DW$73, DW_AT_name("Fbk")
     737                      .dwattr $C$DW$73, DW_AT_TI_symbol_name("_Fbk")
     738                      .dwattr $C$DW$73, DW_AT_data_member_location[DW_OP_plus_uconst 0x2]
     739                      .dwattr $C$DW$73, DW_AT_accessibility(DW_ACCESS_public)
     740              $C$DW$74        .dwtag  DW_TAG_member
     741                      .dwattr $C$DW$74, DW_AT_type(*$C$DW$T$19)
     742                      .dwattr $C$DW$74, DW_AT_name("Out")
     743                      .dwattr $C$DW$74, DW_AT_TI_symbol_name("_Out")
     744                      .dwattr $C$DW$74, DW_AT_data_member_location[DW_OP_plus_uconst 0x4]
     745                      .dwattr $C$DW$74, DW_AT_accessibility(DW_ACCESS_public)
     746              $C$DW$75        .dwtag  DW_TAG_member
TMS320C2000 Assembler PC v6.4.2 Thu Dec 14 13:36:50 2017

Tools Copyright (c) 1996-2015 Texas Instruments Incorporated
DRV830x_SPI.asm                                                      PAGE   15

     747                      .dwattr $C$DW$75, DW_AT_type(*$C$DW$T$19)
     748                      .dwattr $C$DW$75, DW_AT_name("Kp")
     749                      .dwattr $C$DW$75, DW_AT_TI_symbol_name("_Kp")
     750                      .dwattr $C$DW$75, DW_AT_data_member_location[DW_OP_plus_uconst 0x6]
     751                      .dwattr $C$DW$75, DW_AT_accessibility(DW_ACCESS_public)
     752              $C$DW$76        .dwtag  DW_TAG_member
     753                      .dwattr $C$DW$76, DW_AT_type(*$C$DW$T$19)
     754                      .dwattr $C$DW$76, DW_AT_name("Ki")
     755                      .dwattr $C$DW$76, DW_AT_TI_symbol_name("_Ki")
     756                      .dwattr $C$DW$76, DW_AT_data_member_location[DW_OP_plus_uconst 0x8]
     757                      .dwattr $C$DW$76, DW_AT_accessibility(DW_ACCESS_public)
     758              $C$DW$77        .dwtag  DW_TAG_member
     759                      .dwattr $C$DW$77, DW_AT_type(*$C$DW$T$19)
     760                      .dwattr $C$DW$77, DW_AT_name("Umax")
     761                      .dwattr $C$DW$77, DW_AT_TI_symbol_name("_Umax")
     762                      .dwattr $C$DW$77, DW_AT_data_member_location[DW_OP_plus_uconst 0xa]
     763                      .dwattr $C$DW$77, DW_AT_accessibility(DW_ACCESS_public)
     764              $C$DW$78        .dwtag  DW_TAG_member
     765                      .dwattr $C$DW$78, DW_AT_type(*$C$DW$T$19)
     766                      .dwattr $C$DW$78, DW_AT_name("Umin")
     767                      .dwattr $C$DW$78, DW_AT_TI_symbol_name("_Umin")
     768                      .dwattr $C$DW$78, DW_AT_data_member_location[DW_OP_plus_uconst 0xc]
     769                      .dwattr $C$DW$78, DW_AT_accessibility(DW_ACCESS_public)
     770              $C$DW$79        .dwtag  DW_TAG_member
     771                      .dwattr $C$DW$79, DW_AT_type(*$C$DW$T$19)
     772                      .dwattr $C$DW$79, DW_AT_name("up")
     773                      .dwattr $C$DW$79, DW_AT_TI_symbol_name("_up")
     774                      .dwattr $C$DW$79, DW_AT_data_member_location[DW_OP_plus_uconst 0xe]
     775                      .dwattr $C$DW$79, DW_AT_accessibility(DW_ACCESS_public)
     776              $C$DW$80        .dwtag  DW_TAG_member
     777                      .dwattr $C$DW$80, DW_AT_type(*$C$DW$T$19)
     778                      .dwattr $C$DW$80, DW_AT_name("ui")
     779                      .dwattr $C$DW$80, DW_AT_TI_symbol_name("_ui")
     780                      .dwattr $C$DW$80, DW_AT_data_member_location[DW_OP_plus_uconst 0x10]
     781                      .dwattr $C$DW$80, DW_AT_accessibility(DW_ACCESS_public)
     782              $C$DW$81        .dwtag  DW_TAG_member
     783                      .dwattr $C$DW$81, DW_AT_type(*$C$DW$T$19)
     784                      .dwattr $C$DW$81, DW_AT_name("v1")
     785                      .dwattr $C$DW$81, DW_AT_TI_symbol_name("_v1")
     786                      .dwattr $C$DW$81, DW_AT_data_member_location[DW_OP_plus_uconst 0x12]
     787                      .dwattr $C$DW$81, DW_AT_accessibility(DW_ACCESS_public)
     788              $C$DW$82        .dwtag  DW_TAG_member
     789                      .dwattr $C$DW$82, DW_AT_type(*$C$DW$T$19)
     790                      .dwattr $C$DW$82, DW_AT_name("i1")
     791                      .dwattr $C$DW$82, DW_AT_TI_symbol_name("_i1")
     792                      .dwattr $C$DW$82, DW_AT_data_member_location[DW_OP_plus_uconst 0x14]
     793                      .dwattr $C$DW$82, DW_AT_accessibility(DW_ACCESS_public)
     794              $C$DW$83        .dwtag  DW_TAG_member
     795                      .dwattr $C$DW$83, DW_AT_type(*$C$DW$T$19)
     796                      .dwattr $C$DW$83, DW_AT_name("w1")
     797                      .dwattr $C$DW$83, DW_AT_TI_symbol_name("_w1")
     798                      .dwattr $C$DW$83, DW_AT_data_member_location[DW_OP_plus_uconst 0x16]
     799                      .dwattr $C$DW$83, DW_AT_accessibility(DW_ACCESS_public)
     800                      .dwendtag $C$DW$T$23
     801              
TMS320C2000 Assembler PC v6.4.2 Thu Dec 14 13:36:50 2017

Tools Copyright (c) 1996-2015 Texas Instruments Incorporated
DRV830x_SPI.asm                                                      PAGE   16

     802              $C$DW$T$68      .dwtag  DW_TAG_typedef, DW_AT_name("PI_CONTROLLER")
     803                      .dwattr $C$DW$T$68, DW_AT_type(*$C$DW$T$23)
     804                      .dwattr $C$DW$T$68, DW_AT_language(DW_LANG_C)
     805              
     806              $C$DW$T$24      .dwtag  DW_TAG_structure_type
     807                      .dwattr $C$DW$T$24, DW_AT_byte_size(0x0a)
     808              $C$DW$84        .dwtag  DW_TAG_member
     809                      .dwattr $C$DW$84, DW_AT_type(*$C$DW$T$19)
     810                      .dwattr $C$DW$84, DW_AT_name("Ref")
     811                      .dwattr $C$DW$84, DW_AT_TI_symbol_name("_Ref")
     812                      .dwattr $C$DW$84, DW_AT_data_member_location[DW_OP_plus_uconst 0x0]
     813                      .dwattr $C$DW$84, DW_AT_accessibility(DW_ACCESS_public)
     814              $C$DW$85        .dwtag  DW_TAG_member
     815                      .dwattr $C$DW$85, DW_AT_type(*$C$DW$T$19)
     816                      .dwattr $C$DW$85, DW_AT_name("Fbk")
     817                      .dwattr $C$DW$85, DW_AT_TI_symbol_name("_Fbk")
     818                      .dwattr $C$DW$85, DW_AT_data_member_location[DW_OP_plus_uconst 0x2]
     819                      .dwattr $C$DW$85, DW_AT_accessibility(DW_ACCESS_public)
     820              $C$DW$86        .dwtag  DW_TAG_member
     821                      .dwattr $C$DW$86, DW_AT_type(*$C$DW$T$19)
     822                      .dwattr $C$DW$86, DW_AT_name("Out")
     823                      .dwattr $C$DW$86, DW_AT_TI_symbol_name("_Out")
     824                      .dwattr $C$DW$86, DW_AT_data_member_location[DW_OP_plus_uconst 0x4]
     825                      .dwattr $C$DW$86, DW_AT_accessibility(DW_ACCESS_public)
     826              $C$DW$87        .dwtag  DW_TAG_member
     827                      .dwattr $C$DW$87, DW_AT_type(*$C$DW$T$19)
     828                      .dwattr $C$DW$87, DW_AT_name("c1")
     829                      .dwattr $C$DW$87, DW_AT_TI_symbol_name("_c1")
     830                      .dwattr $C$DW$87, DW_AT_data_member_location[DW_OP_plus_uconst 0x6]
     831                      .dwattr $C$DW$87, DW_AT_accessibility(DW_ACCESS_public)
     832              $C$DW$88        .dwtag  DW_TAG_member
     833                      .dwattr $C$DW$88, DW_AT_type(*$C$DW$T$19)
     834                      .dwattr $C$DW$88, DW_AT_name("c2")
     835                      .dwattr $C$DW$88, DW_AT_TI_symbol_name("_c2")
     836                      .dwattr $C$DW$88, DW_AT_data_member_location[DW_OP_plus_uconst 0x8]
     837                      .dwattr $C$DW$88, DW_AT_accessibility(DW_ACCESS_public)
     838                      .dwendtag $C$DW$T$24
     839              
     840              $C$DW$T$27      .dwtag  DW_TAG_typedef, DW_AT_name("PID_TERMINALS")
     841                      .dwattr $C$DW$T$27, DW_AT_type(*$C$DW$T$24)
     842                      .dwattr $C$DW$T$27, DW_AT_language(DW_LANG_C)
     843              
     844              $C$DW$T$25      .dwtag  DW_TAG_structure_type
     845                      .dwattr $C$DW$T$25, DW_AT_byte_size(0x0e)
     846              $C$DW$89        .dwtag  DW_TAG_member
     847                      .dwattr $C$DW$89, DW_AT_type(*$C$DW$T$19)
     848                      .dwattr $C$DW$89, DW_AT_name("Kr")
     849                      .dwattr $C$DW$89, DW_AT_TI_symbol_name("_Kr")
     850                      .dwattr $C$DW$89, DW_AT_data_member_location[DW_OP_plus_uconst 0x0]
     851                      .dwattr $C$DW$89, DW_AT_accessibility(DW_ACCESS_public)
     852              $C$DW$90        .dwtag  DW_TAG_member
     853                      .dwattr $C$DW$90, DW_AT_type(*$C$DW$T$19)
     854                      .dwattr $C$DW$90, DW_AT_name("Kp")
     855                      .dwattr $C$DW$90, DW_AT_TI_symbol_name("_Kp")
     856                      .dwattr $C$DW$90, DW_AT_data_member_location[DW_OP_plus_uconst 0x2]
TMS320C2000 Assembler PC v6.4.2 Thu Dec 14 13:36:50 2017

Tools Copyright (c) 1996-2015 Texas Instruments Incorporated
DRV830x_SPI.asm                                                      PAGE   17

     857                      .dwattr $C$DW$90, DW_AT_accessibility(DW_ACCESS_public)
     858              $C$DW$91        .dwtag  DW_TAG_member
     859                      .dwattr $C$DW$91, DW_AT_type(*$C$DW$T$19)
     860                      .dwattr $C$DW$91, DW_AT_name("Ki")
     861                      .dwattr $C$DW$91, DW_AT_TI_symbol_name("_Ki")
     862                      .dwattr $C$DW$91, DW_AT_data_member_location[DW_OP_plus_uconst 0x4]
     863                      .dwattr $C$DW$91, DW_AT_accessibility(DW_ACCESS_public)
     864              $C$DW$92        .dwtag  DW_TAG_member
     865                      .dwattr $C$DW$92, DW_AT_type(*$C$DW$T$19)
     866                      .dwattr $C$DW$92, DW_AT_name("Kd")
     867                      .dwattr $C$DW$92, DW_AT_TI_symbol_name("_Kd")
     868                      .dwattr $C$DW$92, DW_AT_data_member_location[DW_OP_plus_uconst 0x6]
     869                      .dwattr $C$DW$92, DW_AT_accessibility(DW_ACCESS_public)
     870              $C$DW$93        .dwtag  DW_TAG_member
     871                      .dwattr $C$DW$93, DW_AT_type(*$C$DW$T$19)
     872                      .dwattr $C$DW$93, DW_AT_name("Km")
     873                      .dwattr $C$DW$93, DW_AT_TI_symbol_name("_Km")
     874                      .dwattr $C$DW$93, DW_AT_data_member_location[DW_OP_plus_uconst 0x8]
     875                      .dwattr $C$DW$93, DW_AT_accessibility(DW_ACCESS_public)
     876              $C$DW$94        .dwtag  DW_TAG_member
     877                      .dwattr $C$DW$94, DW_AT_type(*$C$DW$T$19)
     878                      .dwattr $C$DW$94, DW_AT_name("Umax")
     879                      .dwattr $C$DW$94, DW_AT_TI_symbol_name("_Umax")
     880                      .dwattr $C$DW$94, DW_AT_data_member_location[DW_OP_plus_uconst 0xa]
     881                      .dwattr $C$DW$94, DW_AT_accessibility(DW_ACCESS_public)
     882              $C$DW$95        .dwtag  DW_TAG_member
     883                      .dwattr $C$DW$95, DW_AT_type(*$C$DW$T$19)
     884                      .dwattr $C$DW$95, DW_AT_name("Umin")
     885                      .dwattr $C$DW$95, DW_AT_TI_symbol_name("_Umin")
     886                      .dwattr $C$DW$95, DW_AT_data_member_location[DW_OP_plus_uconst 0xc]
     887                      .dwattr $C$DW$95, DW_AT_accessibility(DW_ACCESS_public)
     888                      .dwendtag $C$DW$T$25
     889              
     890              $C$DW$T$28      .dwtag  DW_TAG_typedef, DW_AT_name("PID_PARAMETERS")
     891                      .dwattr $C$DW$T$28, DW_AT_type(*$C$DW$T$25)
     892                      .dwattr $C$DW$T$28, DW_AT_language(DW_LANG_C)
     893              
     894              $C$DW$T$26      .dwtag  DW_TAG_structure_type
     895                      .dwattr $C$DW$T$26, DW_AT_byte_size(0x10)
     896              $C$DW$96        .dwtag  DW_TAG_member
     897                      .dwattr $C$DW$96, DW_AT_type(*$C$DW$T$19)
     898                      .dwattr $C$DW$96, DW_AT_name("up")
     899                      .dwattr $C$DW$96, DW_AT_TI_symbol_name("_up")
     900                      .dwattr $C$DW$96, DW_AT_data_member_location[DW_OP_plus_uconst 0x0]
     901                      .dwattr $C$DW$96, DW_AT_accessibility(DW_ACCESS_public)
     902              $C$DW$97        .dwtag  DW_TAG_member
     903                      .dwattr $C$DW$97, DW_AT_type(*$C$DW$T$19)
     904                      .dwattr $C$DW$97, DW_AT_name("ui")
     905                      .dwattr $C$DW$97, DW_AT_TI_symbol_name("_ui")
     906                      .dwattr $C$DW$97, DW_AT_data_member_location[DW_OP_plus_uconst 0x2]
     907                      .dwattr $C$DW$97, DW_AT_accessibility(DW_ACCESS_public)
     908              $C$DW$98        .dwtag  DW_TAG_member
     909                      .dwattr $C$DW$98, DW_AT_type(*$C$DW$T$19)
     910                      .dwattr $C$DW$98, DW_AT_name("ud")
     911                      .dwattr $C$DW$98, DW_AT_TI_symbol_name("_ud")
TMS320C2000 Assembler PC v6.4.2 Thu Dec 14 13:36:50 2017

Tools Copyright (c) 1996-2015 Texas Instruments Incorporated
DRV830x_SPI.asm                                                      PAGE   18

     912                      .dwattr $C$DW$98, DW_AT_data_member_location[DW_OP_plus_uconst 0x4]
     913                      .dwattr $C$DW$98, DW_AT_accessibility(DW_ACCESS_public)
     914              $C$DW$99        .dwtag  DW_TAG_member
     915                      .dwattr $C$DW$99, DW_AT_type(*$C$DW$T$19)
     916                      .dwattr $C$DW$99, DW_AT_name("v1")
     917                      .dwattr $C$DW$99, DW_AT_TI_symbol_name("_v1")
     918                      .dwattr $C$DW$99, DW_AT_data_member_location[DW_OP_plus_uconst 0x6]
     919                      .dwattr $C$DW$99, DW_AT_accessibility(DW_ACCESS_public)
     920              $C$DW$100       .dwtag  DW_TAG_member
     921                      .dwattr $C$DW$100, DW_AT_type(*$C$DW$T$19)
     922                      .dwattr $C$DW$100, DW_AT_name("i1")
     923                      .dwattr $C$DW$100, DW_AT_TI_symbol_name("_i1")
     924                      .dwattr $C$DW$100, DW_AT_data_member_location[DW_OP_plus_uconst 0x8]
     925                      .dwattr $C$DW$100, DW_AT_accessibility(DW_ACCESS_public)
     926              $C$DW$101       .dwtag  DW_TAG_member
     927                      .dwattr $C$DW$101, DW_AT_type(*$C$DW$T$19)
     928                      .dwattr $C$DW$101, DW_AT_name("d1")
     929                      .dwattr $C$DW$101, DW_AT_TI_symbol_name("_d1")
     930                      .dwattr $C$DW$101, DW_AT_data_member_location[DW_OP_plus_uconst 0xa]
     931                      .dwattr $C$DW$101, DW_AT_accessibility(DW_ACCESS_public)
     932              $C$DW$102       .dwtag  DW_TAG_member
     933                      .dwattr $C$DW$102, DW_AT_type(*$C$DW$T$19)
     934                      .dwattr $C$DW$102, DW_AT_name("d2")
     935                      .dwattr $C$DW$102, DW_AT_TI_symbol_name("_d2")
     936                      .dwattr $C$DW$102, DW_AT_data_member_location[DW_OP_plus_uconst 0xc]
     937                      .dwattr $C$DW$102, DW_AT_accessibility(DW_ACCESS_public)
     938              $C$DW$103       .dwtag  DW_TAG_member
     939                      .dwattr $C$DW$103, DW_AT_type(*$C$DW$T$19)
     940                      .dwattr $C$DW$103, DW_AT_name("w1")
     941                      .dwattr $C$DW$103, DW_AT_TI_symbol_name("_w1")
     942                      .dwattr $C$DW$103, DW_AT_data_member_location[DW_OP_plus_uconst 0xe]
     943                      .dwattr $C$DW$103, DW_AT_accessibility(DW_ACCESS_public)
     944                      .dwendtag $C$DW$T$26
     945              
     946              $C$DW$T$29      .dwtag  DW_TAG_typedef, DW_AT_name("PID_DATA")
     947                      .dwattr $C$DW$T$29, DW_AT_type(*$C$DW$T$26)
     948                      .dwattr $C$DW$T$29, DW_AT_language(DW_LANG_C)
     949              
     950              $C$DW$T$30      .dwtag  DW_TAG_structure_type
     951                      .dwattr $C$DW$T$30, DW_AT_byte_size(0x28)
     952              $C$DW$104       .dwtag  DW_TAG_member
     953                      .dwattr $C$DW$104, DW_AT_type(*$C$DW$T$27)
     954                      .dwattr $C$DW$104, DW_AT_name("term")
     955                      .dwattr $C$DW$104, DW_AT_TI_symbol_name("_term")
     956                      .dwattr $C$DW$104, DW_AT_data_member_location[DW_OP_plus_uconst 0x0]
     957                      .dwattr $C$DW$104, DW_AT_accessibility(DW_ACCESS_public)
     958              $C$DW$105       .dwtag  DW_TAG_member
     959                      .dwattr $C$DW$105, DW_AT_type(*$C$DW$T$28)
     960                      .dwattr $C$DW$105, DW_AT_name("param")
     961                      .dwattr $C$DW$105, DW_AT_TI_symbol_name("_param")
     962                      .dwattr $C$DW$105, DW_AT_data_member_location[DW_OP_plus_uconst 0xa]
     963                      .dwattr $C$DW$105, DW_AT_accessibility(DW_ACCESS_public)
     964              $C$DW$106       .dwtag  DW_TAG_member
     965                      .dwattr $C$DW$106, DW_AT_type(*$C$DW$T$29)
     966                      .dwattr $C$DW$106, DW_AT_name("data")
TMS320C2000 Assembler PC v6.4.2 Thu Dec 14 13:36:50 2017

Tools Copyright (c) 1996-2015 Texas Instruments Incorporated
DRV830x_SPI.asm                                                      PAGE   19

     967                      .dwattr $C$DW$106, DW_AT_TI_symbol_name("_data")
     968                      .dwattr $C$DW$106, DW_AT_data_member_location[DW_OP_plus_uconst 0x18]
     969                      .dwattr $C$DW$106, DW_AT_accessibility(DW_ACCESS_public)
     970                      .dwendtag $C$DW$T$30
     971              
     972              $C$DW$T$69      .dwtag  DW_TAG_typedef, DW_AT_name("PID_CONTROLLER")
     973                      .dwattr $C$DW$T$69, DW_AT_type(*$C$DW$T$30)
     974                      .dwattr $C$DW$T$69, DW_AT_language(DW_LANG_C)
     975              
     976              $C$DW$T$32      .dwtag  DW_TAG_structure_type
     977                      .dwattr $C$DW$T$32, DW_AT_byte_size(0x12)
     978              $C$DW$107       .dwtag  DW_TAG_member
     979                      .dwattr $C$DW$107, DW_AT_type(*$C$DW$T$19)
     980                      .dwattr $C$DW$107, DW_AT_name("Ualpha")
     981                      .dwattr $C$DW$107, DW_AT_TI_symbol_name("_Ualpha")
     982                      .dwattr $C$DW$107, DW_AT_data_member_location[DW_OP_plus_uconst 0x0]
     983                      .dwattr $C$DW$107, DW_AT_accessibility(DW_ACCESS_public)
     984              $C$DW$108       .dwtag  DW_TAG_member
     985                      .dwattr $C$DW$108, DW_AT_type(*$C$DW$T$19)
     986                      .dwattr $C$DW$108, DW_AT_name("Ubeta")
     987                      .dwattr $C$DW$108, DW_AT_TI_symbol_name("_Ubeta")
     988                      .dwattr $C$DW$108, DW_AT_data_member_location[DW_OP_plus_uconst 0x2]
     989                      .dwattr $C$DW$108, DW_AT_accessibility(DW_ACCESS_public)
     990              $C$DW$109       .dwtag  DW_TAG_member
     991                      .dwattr $C$DW$109, DW_AT_type(*$C$DW$T$19)
     992                      .dwattr $C$DW$109, DW_AT_name("Ta")
     993                      .dwattr $C$DW$109, DW_AT_TI_symbol_name("_Ta")
     994                      .dwattr $C$DW$109, DW_AT_data_member_location[DW_OP_plus_uconst 0x4]
     995                      .dwattr $C$DW$109, DW_AT_accessibility(DW_ACCESS_public)
     996              $C$DW$110       .dwtag  DW_TAG_member
     997                      .dwattr $C$DW$110, DW_AT_type(*$C$DW$T$19)
     998                      .dwattr $C$DW$110, DW_AT_name("Tb")
     999                      .dwattr $C$DW$110, DW_AT_TI_symbol_name("_Tb")
    1000                      .dwattr $C$DW$110, DW_AT_data_member_location[DW_OP_plus_uconst 0x6]
    1001                      .dwattr $C$DW$110, DW_AT_accessibility(DW_ACCESS_public)
    1002              $C$DW$111       .dwtag  DW_TAG_member
    1003                      .dwattr $C$DW$111, DW_AT_type(*$C$DW$T$19)
    1004                      .dwattr $C$DW$111, DW_AT_name("Tc")
    1005                      .dwattr $C$DW$111, DW_AT_TI_symbol_name("_Tc")
    1006                      .dwattr $C$DW$111, DW_AT_data_member_location[DW_OP_plus_uconst 0x8]
    1007                      .dwattr $C$DW$111, DW_AT_accessibility(DW_ACCESS_public)
    1008              $C$DW$112       .dwtag  DW_TAG_member
    1009                      .dwattr $C$DW$112, DW_AT_type(*$C$DW$T$19)
    1010                      .dwattr $C$DW$112, DW_AT_name("tmp1")
    1011                      .dwattr $C$DW$112, DW_AT_TI_symbol_name("_tmp1")
    1012                      .dwattr $C$DW$112, DW_AT_data_member_location[DW_OP_plus_uconst 0xa]
    1013                      .dwattr $C$DW$112, DW_AT_accessibility(DW_ACCESS_public)
    1014              $C$DW$113       .dwtag  DW_TAG_member
    1015                      .dwattr $C$DW$113, DW_AT_type(*$C$DW$T$19)
    1016                      .dwattr $C$DW$113, DW_AT_name("tmp2")
    1017                      .dwattr $C$DW$113, DW_AT_TI_symbol_name("_tmp2")
    1018                      .dwattr $C$DW$113, DW_AT_data_member_location[DW_OP_plus_uconst 0xc]
    1019                      .dwattr $C$DW$113, DW_AT_accessibility(DW_ACCESS_public)
    1020              $C$DW$114       .dwtag  DW_TAG_member
    1021                      .dwattr $C$DW$114, DW_AT_type(*$C$DW$T$19)
TMS320C2000 Assembler PC v6.4.2 Thu Dec 14 13:36:50 2017

Tools Copyright (c) 1996-2015 Texas Instruments Incorporated
DRV830x_SPI.asm                                                      PAGE   20

    1022                      .dwattr $C$DW$114, DW_AT_name("tmp3")
    1023                      .dwattr $C$DW$114, DW_AT_TI_symbol_name("_tmp3")
    1024                      .dwattr $C$DW$114, DW_AT_data_member_location[DW_OP_plus_uconst 0xe]
    1025                      .dwattr $C$DW$114, DW_AT_accessibility(DW_ACCESS_public)
    1026              $C$DW$115       .dwtag  DW_TAG_member
    1027                      .dwattr $C$DW$115, DW_AT_type(*$C$DW$T$31)
    1028                      .dwattr $C$DW$115, DW_AT_name("VecSector")
    1029                      .dwattr $C$DW$115, DW_AT_TI_symbol_name("_VecSector")
    1030                      .dwattr $C$DW$115, DW_AT_data_member_location[DW_OP_plus_uconst 0x10]
    1031                      .dwattr $C$DW$115, DW_AT_accessibility(DW_ACCESS_public)
    1032                      .dwendtag $C$DW$T$32
    1033              
    1034              $C$DW$T$70      .dwtag  DW_TAG_typedef, DW_AT_name("SVGEN")
    1035                      .dwattr $C$DW$T$70, DW_AT_type(*$C$DW$T$32)
    1036                      .dwattr $C$DW$T$70, DW_AT_language(DW_LANG_C)
    1037              
    1038              $C$DW$T$34      .dwtag  DW_TAG_structure_type
    1039                      .dwattr $C$DW$T$34, DW_AT_byte_size(0x10)
    1040              $C$DW$116       .dwtag  DW_TAG_member
    1041                      .dwattr $C$DW$116, DW_AT_type(*$C$DW$T$19)
    1042                      .dwattr $C$DW$116, DW_AT_name("TargetValue")
    1043                      .dwattr $C$DW$116, DW_AT_TI_symbol_name("_TargetValue")
    1044                      .dwattr $C$DW$116, DW_AT_data_member_location[DW_OP_plus_uconst 0x0]
    1045                      .dwattr $C$DW$116, DW_AT_accessibility(DW_ACCESS_public)
    1046              $C$DW$117       .dwtag  DW_TAG_member
    1047                      .dwattr $C$DW$117, DW_AT_type(*$C$DW$T$33)
    1048                      .dwattr $C$DW$117, DW_AT_name("RampDelayMax")
    1049                      .dwattr $C$DW$117, DW_AT_TI_symbol_name("_RampDelayMax")
    1050                      .dwattr $C$DW$117, DW_AT_data_member_location[DW_OP_plus_uconst 0x2]
    1051                      .dwattr $C$DW$117, DW_AT_accessibility(DW_ACCESS_public)
    1052              $C$DW$118       .dwtag  DW_TAG_member
    1053                      .dwattr $C$DW$118, DW_AT_type(*$C$DW$T$19)
    1054                      .dwattr $C$DW$118, DW_AT_name("RampLowLimit")
    1055                      .dwattr $C$DW$118, DW_AT_TI_symbol_name("_RampLowLimit")
    1056                      .dwattr $C$DW$118, DW_AT_data_member_location[DW_OP_plus_uconst 0x4]
    1057                      .dwattr $C$DW$118, DW_AT_accessibility(DW_ACCESS_public)
    1058              $C$DW$119       .dwtag  DW_TAG_member
    1059                      .dwattr $C$DW$119, DW_AT_type(*$C$DW$T$19)
    1060                      .dwattr $C$DW$119, DW_AT_name("RampHighLimit")
    1061                      .dwattr $C$DW$119, DW_AT_TI_symbol_name("_RampHighLimit")
    1062                      .dwattr $C$DW$119, DW_AT_data_member_location[DW_OP_plus_uconst 0x6]
    1063                      .dwattr $C$DW$119, DW_AT_accessibility(DW_ACCESS_public)
    1064              $C$DW$120       .dwtag  DW_TAG_member
    1065                      .dwattr $C$DW$120, DW_AT_type(*$C$DW$T$33)
    1066                      .dwattr $C$DW$120, DW_AT_name("RampDelayCount")
    1067                      .dwattr $C$DW$120, DW_AT_TI_symbol_name("_RampDelayCount")
    1068                      .dwattr $C$DW$120, DW_AT_data_member_location[DW_OP_plus_uconst 0x8]
    1069                      .dwattr $C$DW$120, DW_AT_accessibility(DW_ACCESS_public)
    1070              $C$DW$121       .dwtag  DW_TAG_member
    1071                      .dwattr $C$DW$121, DW_AT_type(*$C$DW$T$19)
    1072                      .dwattr $C$DW$121, DW_AT_name("SetpointValue")
    1073                      .dwattr $C$DW$121, DW_AT_TI_symbol_name("_SetpointValue")
    1074                      .dwattr $C$DW$121, DW_AT_data_member_location[DW_OP_plus_uconst 0xa]
    1075                      .dwattr $C$DW$121, DW_AT_accessibility(DW_ACCESS_public)
    1076              $C$DW$122       .dwtag  DW_TAG_member
TMS320C2000 Assembler PC v6.4.2 Thu Dec 14 13:36:50 2017

Tools Copyright (c) 1996-2015 Texas Instruments Incorporated
DRV830x_SPI.asm                                                      PAGE   21

    1077                      .dwattr $C$DW$122, DW_AT_type(*$C$DW$T$33)
    1078                      .dwattr $C$DW$122, DW_AT_name("EqualFlag")
    1079                      .dwattr $C$DW$122, DW_AT_TI_symbol_name("_EqualFlag")
    1080                      .dwattr $C$DW$122, DW_AT_data_member_location[DW_OP_plus_uconst 0xc]
    1081                      .dwattr $C$DW$122, DW_AT_accessibility(DW_ACCESS_public)
    1082              $C$DW$123       .dwtag  DW_TAG_member
    1083                      .dwattr $C$DW$123, DW_AT_type(*$C$DW$T$19)
    1084                      .dwattr $C$DW$123, DW_AT_name("Tmp")
    1085                      .dwattr $C$DW$123, DW_AT_TI_symbol_name("_Tmp")
    1086                      .dwattr $C$DW$123, DW_AT_data_member_location[DW_OP_plus_uconst 0xe]
    1087                      .dwattr $C$DW$123, DW_AT_accessibility(DW_ACCESS_public)
    1088                      .dwendtag $C$DW$T$34
    1089              
    1090              $C$DW$T$71      .dwtag  DW_TAG_typedef, DW_AT_name("RMPCNTL")
    1091                      .dwattr $C$DW$T$71, DW_AT_type(*$C$DW$T$34)
    1092                      .dwattr $C$DW$T$71, DW_AT_language(DW_LANG_C)
    1093              
    1094              $C$DW$T$35      .dwtag  DW_TAG_structure_type
    1095                      .dwattr $C$DW$T$35, DW_AT_byte_size(0x0c)
    1096              $C$DW$124       .dwtag  DW_TAG_member
    1097                      .dwattr $C$DW$124, DW_AT_type(*$C$DW$T$19)
    1098                      .dwattr $C$DW$124, DW_AT_name("Freq")
    1099                      .dwattr $C$DW$124, DW_AT_TI_symbol_name("_Freq")
    1100                      .dwattr $C$DW$124, DW_AT_data_member_location[DW_OP_plus_uconst 0x0]
    1101                      .dwattr $C$DW$124, DW_AT_accessibility(DW_ACCESS_public)
    1102              $C$DW$125       .dwtag  DW_TAG_member
    1103                      .dwattr $C$DW$125, DW_AT_type(*$C$DW$T$19)
    1104                      .dwattr $C$DW$125, DW_AT_name("StepAngleMax")
    1105                      .dwattr $C$DW$125, DW_AT_TI_symbol_name("_StepAngleMax")
    1106                      .dwattr $C$DW$125, DW_AT_data_member_location[DW_OP_plus_uconst 0x2]
    1107                      .dwattr $C$DW$125, DW_AT_accessibility(DW_ACCESS_public)
    1108              $C$DW$126       .dwtag  DW_TAG_member
    1109                      .dwattr $C$DW$126, DW_AT_type(*$C$DW$T$19)
    1110                      .dwattr $C$DW$126, DW_AT_name("Angle")
    1111                      .dwattr $C$DW$126, DW_AT_TI_symbol_name("_Angle")
    1112                      .dwattr $C$DW$126, DW_AT_data_member_location[DW_OP_plus_uconst 0x4]
    1113                      .dwattr $C$DW$126, DW_AT_accessibility(DW_ACCESS_public)
    1114              $C$DW$127       .dwtag  DW_TAG_member
    1115                      .dwattr $C$DW$127, DW_AT_type(*$C$DW$T$19)
    1116                      .dwattr $C$DW$127, DW_AT_name("Gain")
    1117                      .dwattr $C$DW$127, DW_AT_TI_symbol_name("_Gain")
    1118                      .dwattr $C$DW$127, DW_AT_data_member_location[DW_OP_plus_uconst 0x6]
    1119                      .dwattr $C$DW$127, DW_AT_accessibility(DW_ACCESS_public)
    1120              $C$DW$128       .dwtag  DW_TAG_member
    1121                      .dwattr $C$DW$128, DW_AT_type(*$C$DW$T$19)
    1122                      .dwattr $C$DW$128, DW_AT_name("Out")
    1123                      .dwattr $C$DW$128, DW_AT_TI_symbol_name("_Out")
    1124                      .dwattr $C$DW$128, DW_AT_data_member_location[DW_OP_plus_uconst 0x8]
    1125                      .dwattr $C$DW$128, DW_AT_accessibility(DW_ACCESS_public)
    1126              $C$DW$129       .dwtag  DW_TAG_member
    1127                      .dwattr $C$DW$129, DW_AT_type(*$C$DW$T$19)
    1128                      .dwattr $C$DW$129, DW_AT_name("Offset")
    1129                      .dwattr $C$DW$129, DW_AT_TI_symbol_name("_Offset")
    1130                      .dwattr $C$DW$129, DW_AT_data_member_location[DW_OP_plus_uconst 0xa]
    1131                      .dwattr $C$DW$129, DW_AT_accessibility(DW_ACCESS_public)
TMS320C2000 Assembler PC v6.4.2 Thu Dec 14 13:36:50 2017

Tools Copyright (c) 1996-2015 Texas Instruments Incorporated
DRV830x_SPI.asm                                                      PAGE   22

    1132                      .dwendtag $C$DW$T$35
    1133              
    1134              $C$DW$T$72      .dwtag  DW_TAG_typedef, DW_AT_name("RAMPGEN")
    1135                      .dwattr $C$DW$T$72, DW_AT_type(*$C$DW$T$35)
    1136                      .dwattr $C$DW$T$72, DW_AT_language(DW_LANG_C)
    1137              
    1138              $C$DW$T$36      .dwtag  DW_TAG_structure_type
    1139                      .dwattr $C$DW$T$36, DW_AT_byte_size(0x16)
    1140              $C$DW$130       .dwtag  DW_TAG_member
    1141                      .dwattr $C$DW$130, DW_AT_type(*$C$DW$T$19)
    1142                      .dwattr $C$DW$130, DW_AT_name("DcBusVolt")
    1143                      .dwattr $C$DW$130, DW_AT_TI_symbol_name("_DcBusVolt")
    1144                      .dwattr $C$DW$130, DW_AT_data_member_location[DW_OP_plus_uconst 0x0]
    1145                      .dwattr $C$DW$130, DW_AT_accessibility(DW_ACCESS_public)
    1146              $C$DW$131       .dwtag  DW_TAG_member
    1147                      .dwattr $C$DW$131, DW_AT_type(*$C$DW$T$19)
    1148                      .dwattr $C$DW$131, DW_AT_name("MfuncV1")
    1149                      .dwattr $C$DW$131, DW_AT_TI_symbol_name("_MfuncV1")
    1150                      .dwattr $C$DW$131, DW_AT_data_member_location[DW_OP_plus_uconst 0x2]
    1151                      .dwattr $C$DW$131, DW_AT_accessibility(DW_ACCESS_public)
    1152              $C$DW$132       .dwtag  DW_TAG_member
    1153                      .dwattr $C$DW$132, DW_AT_type(*$C$DW$T$19)
    1154                      .dwattr $C$DW$132, DW_AT_name("MfuncV2")
    1155                      .dwattr $C$DW$132, DW_AT_TI_symbol_name("_MfuncV2")
    1156                      .dwattr $C$DW$132, DW_AT_data_member_location[DW_OP_plus_uconst 0x4]
    1157                      .dwattr $C$DW$132, DW_AT_accessibility(DW_ACCESS_public)
    1158              $C$DW$133       .dwtag  DW_TAG_member
    1159                      .dwattr $C$DW$133, DW_AT_type(*$C$DW$T$19)
    1160                      .dwattr $C$DW$133, DW_AT_name("MfuncV3")
    1161                      .dwattr $C$DW$133, DW_AT_TI_symbol_name("_MfuncV3")
    1162                      .dwattr $C$DW$133, DW_AT_data_member_location[DW_OP_plus_uconst 0x6]
    1163                      .dwattr $C$DW$133, DW_AT_accessibility(DW_ACCESS_public)
    1164              $C$DW$134       .dwtag  DW_TAG_member
    1165                      .dwattr $C$DW$134, DW_AT_type(*$C$DW$T$31)
    1166                      .dwattr $C$DW$134, DW_AT_name("OutOfPhase")
    1167                      .dwattr $C$DW$134, DW_AT_TI_symbol_name("_OutOfPhase")
    1168                      .dwattr $C$DW$134, DW_AT_data_member_location[DW_OP_plus_uconst 0x8]
    1169                      .dwattr $C$DW$134, DW_AT_accessibility(DW_ACCESS_public)
    1170              $C$DW$135       .dwtag  DW_TAG_member
    1171                      .dwattr $C$DW$135, DW_AT_type(*$C$DW$T$19)
    1172                      .dwattr $C$DW$135, DW_AT_name("VphaseA")
    1173                      .dwattr $C$DW$135, DW_AT_TI_symbol_name("_VphaseA")
    1174                      .dwattr $C$DW$135, DW_AT_data_member_location[DW_OP_plus_uconst 0xa]
    1175                      .dwattr $C$DW$135, DW_AT_accessibility(DW_ACCESS_public)
    1176              $C$DW$136       .dwtag  DW_TAG_member
    1177                      .dwattr $C$DW$136, DW_AT_type(*$C$DW$T$19)
    1178                      .dwattr $C$DW$136, DW_AT_name("VphaseB")
    1179                      .dwattr $C$DW$136, DW_AT_TI_symbol_name("_VphaseB")
    1180                      .dwattr $C$DW$136, DW_AT_data_member_location[DW_OP_plus_uconst 0xc]
    1181                      .dwattr $C$DW$136, DW_AT_accessibility(DW_ACCESS_public)
    1182              $C$DW$137       .dwtag  DW_TAG_member
    1183                      .dwattr $C$DW$137, DW_AT_type(*$C$DW$T$19)
    1184                      .dwattr $C$DW$137, DW_AT_name("VphaseC")
    1185                      .dwattr $C$DW$137, DW_AT_TI_symbol_name("_VphaseC")
    1186                      .dwattr $C$DW$137, DW_AT_data_member_location[DW_OP_plus_uconst 0xe]
TMS320C2000 Assembler PC v6.4.2 Thu Dec 14 13:36:50 2017

Tools Copyright (c) 1996-2015 Texas Instruments Incorporated
DRV830x_SPI.asm                                                      PAGE   23

    1187                      .dwattr $C$DW$137, DW_AT_accessibility(DW_ACCESS_public)
    1188              $C$DW$138       .dwtag  DW_TAG_member
    1189                      .dwattr $C$DW$138, DW_AT_type(*$C$DW$T$19)
    1190                      .dwattr $C$DW$138, DW_AT_name("Valpha")
    1191                      .dwattr $C$DW$138, DW_AT_TI_symbol_name("_Valpha")
    1192                      .dwattr $C$DW$138, DW_AT_data_member_location[DW_OP_plus_uconst 0x10]
    1193                      .dwattr $C$DW$138, DW_AT_accessibility(DW_ACCESS_public)
    1194              $C$DW$139       .dwtag  DW_TAG_member
    1195                      .dwattr $C$DW$139, DW_AT_type(*$C$DW$T$19)
    1196                      .dwattr $C$DW$139, DW_AT_name("Vbeta")
    1197                      .dwattr $C$DW$139, DW_AT_TI_symbol_name("_Vbeta")
    1198                      .dwattr $C$DW$139, DW_AT_data_member_location[DW_OP_plus_uconst 0x12]
    1199                      .dwattr $C$DW$139, DW_AT_accessibility(DW_ACCESS_public)
    1200              $C$DW$140       .dwtag  DW_TAG_member
    1201                      .dwattr $C$DW$140, DW_AT_type(*$C$DW$T$19)
    1202                      .dwattr $C$DW$140, DW_AT_name("temp")
    1203                      .dwattr $C$DW$140, DW_AT_TI_symbol_name("_temp")
    1204                      .dwattr $C$DW$140, DW_AT_data_member_location[DW_OP_plus_uconst 0x14]
    1205                      .dwattr $C$DW$140, DW_AT_accessibility(DW_ACCESS_public)
    1206                      .dwendtag $C$DW$T$36
    1207              
    1208              $C$DW$T$73      .dwtag  DW_TAG_typedef, DW_AT_name("PHASEVOLTAGE")
    1209                      .dwattr $C$DW$T$73, DW_AT_type(*$C$DW$T$36)
    1210                      .dwattr $C$DW$T$73, DW_AT_language(DW_LANG_C)
    1211              
    1212              $C$DW$T$39      .dwtag  DW_TAG_structure_type
    1213                      .dwattr $C$DW$T$39, DW_AT_byte_size(0x14)
    1214              $C$DW$141       .dwtag  DW_TAG_member
    1215                      .dwattr $C$DW$141, DW_AT_type(*$C$DW$T$19)
    1216                      .dwattr $C$DW$141, DW_AT_name("ElecTheta")
    1217                      .dwattr $C$DW$141, DW_AT_TI_symbol_name("_ElecTheta")
    1218                      .dwattr $C$DW$141, DW_AT_data_member_location[DW_OP_plus_uconst 0x0]
    1219                      .dwattr $C$DW$141, DW_AT_accessibility(DW_ACCESS_public)
    1220              $C$DW$142       .dwtag  DW_TAG_member
    1221                      .dwattr $C$DW$142, DW_AT_type(*$C$DW$T$33)
    1222                      .dwattr $C$DW$142, DW_AT_name("DirectionQep")
    1223                      .dwattr $C$DW$142, DW_AT_TI_symbol_name("_DirectionQep")
    1224                      .dwattr $C$DW$142, DW_AT_data_member_location[DW_OP_plus_uconst 0x2]
    1225                      .dwattr $C$DW$142, DW_AT_accessibility(DW_ACCESS_public)
    1226              $C$DW$143       .dwtag  DW_TAG_member
    1227                      .dwattr $C$DW$143, DW_AT_type(*$C$DW$T$19)
    1228                      .dwattr $C$DW$143, DW_AT_name("OldElecTheta")
    1229                      .dwattr $C$DW$143, DW_AT_TI_symbol_name("_OldElecTheta")
    1230                      .dwattr $C$DW$143, DW_AT_data_member_location[DW_OP_plus_uconst 0x4]
    1231                      .dwattr $C$DW$143, DW_AT_accessibility(DW_ACCESS_public)
    1232              $C$DW$144       .dwtag  DW_TAG_member
    1233                      .dwattr $C$DW$144, DW_AT_type(*$C$DW$T$19)
    1234                      .dwattr $C$DW$144, DW_AT_name("Speed")
    1235                      .dwattr $C$DW$144, DW_AT_TI_symbol_name("_Speed")
    1236                      .dwattr $C$DW$144, DW_AT_data_member_location[DW_OP_plus_uconst 0x6]
    1237                      .dwattr $C$DW$144, DW_AT_accessibility(DW_ACCESS_public)
    1238              $C$DW$145       .dwtag  DW_TAG_member
    1239                      .dwattr $C$DW$145, DW_AT_type(*$C$DW$T$33)
    1240                      .dwattr $C$DW$145, DW_AT_name("BaseRpm")
    1241                      .dwattr $C$DW$145, DW_AT_TI_symbol_name("_BaseRpm")
TMS320C2000 Assembler PC v6.4.2 Thu Dec 14 13:36:50 2017

Tools Copyright (c) 1996-2015 Texas Instruments Incorporated
DRV830x_SPI.asm                                                      PAGE   24

    1242                      .dwattr $C$DW$145, DW_AT_data_member_location[DW_OP_plus_uconst 0x8]
    1243                      .dwattr $C$DW$145, DW_AT_accessibility(DW_ACCESS_public)
    1244              $C$DW$146       .dwtag  DW_TAG_member
    1245                      .dwattr $C$DW$146, DW_AT_type(*$C$DW$T$37)
    1246                      .dwattr $C$DW$146, DW_AT_name("K1")
    1247                      .dwattr $C$DW$146, DW_AT_TI_symbol_name("_K1")
    1248                      .dwattr $C$DW$146, DW_AT_data_member_location[DW_OP_plus_uconst 0xa]
    1249                      .dwattr $C$DW$146, DW_AT_accessibility(DW_ACCESS_public)
    1250              $C$DW$147       .dwtag  DW_TAG_member
    1251                      .dwattr $C$DW$147, DW_AT_type(*$C$DW$T$19)
    1252                      .dwattr $C$DW$147, DW_AT_name("K2")
    1253                      .dwattr $C$DW$147, DW_AT_TI_symbol_name("_K2")
    1254                      .dwattr $C$DW$147, DW_AT_data_member_location[DW_OP_plus_uconst 0xc]
    1255                      .dwattr $C$DW$147, DW_AT_accessibility(DW_ACCESS_public)
    1256              $C$DW$148       .dwtag  DW_TAG_member
    1257                      .dwattr $C$DW$148, DW_AT_type(*$C$DW$T$19)
    1258                      .dwattr $C$DW$148, DW_AT_name("K3")
    1259                      .dwattr $C$DW$148, DW_AT_TI_symbol_name("_K3")
    1260                      .dwattr $C$DW$148, DW_AT_data_member_location[DW_OP_plus_uconst 0xe]
    1261                      .dwattr $C$DW$148, DW_AT_accessibility(DW_ACCESS_public)
    1262              $C$DW$149       .dwtag  DW_TAG_member
    1263                      .dwattr $C$DW$149, DW_AT_type(*$C$DW$T$38)
    1264                      .dwattr $C$DW$149, DW_AT_name("SpeedRpm")
    1265                      .dwattr $C$DW$149, DW_AT_TI_symbol_name("_SpeedRpm")
    1266                      .dwattr $C$DW$149, DW_AT_data_member_location[DW_OP_plus_uconst 0x10]
    1267                      .dwattr $C$DW$149, DW_AT_accessibility(DW_ACCESS_public)
    1268              $C$DW$150       .dwtag  DW_TAG_member
    1269                      .dwattr $C$DW$150, DW_AT_type(*$C$DW$T$19)
    1270                      .dwattr $C$DW$150, DW_AT_name("Tmp")
    1271                      .dwattr $C$DW$150, DW_AT_TI_symbol_name("_Tmp")
    1272                      .dwattr $C$DW$150, DW_AT_data_member_location[DW_OP_plus_uconst 0x12]
    1273                      .dwattr $C$DW$150, DW_AT_accessibility(DW_ACCESS_public)
    1274                      .dwendtag $C$DW$T$39
    1275              
    1276              $C$DW$T$74      .dwtag  DW_TAG_typedef, DW_AT_name("SPEED_MEAS_QEP")
    1277                      .dwattr $C$DW$T$74, DW_AT_type(*$C$DW$T$39)
    1278                      .dwattr $C$DW$T$74, DW_AT_language(DW_LANG_C)
    1279              
    1280              $C$DW$T$41      .dwtag  DW_TAG_structure_type
    1281                      .dwattr $C$DW$T$41, DW_AT_byte_size(0x12)
    1282              $C$DW$151       .dwtag  DW_TAG_member
    1283                      .dwattr $C$DW$151, DW_AT_type(*$C$DW$T$40)
    1284                      .dwattr $C$DW$151, DW_AT_name("ElecTheta")
    1285                      .dwattr $C$DW$151, DW_AT_TI_symbol_name("_ElecTheta")
    1286                      .dwattr $C$DW$151, DW_AT_data_member_location[DW_OP_plus_uconst 0x0]
    1287                      .dwattr $C$DW$151, DW_AT_accessibility(DW_ACCESS_public)
    1288              $C$DW$152       .dwtag  DW_TAG_member
    1289                      .dwattr $C$DW$152, DW_AT_type(*$C$DW$T$40)
    1290                      .dwattr $C$DW$152, DW_AT_name("MechTheta")
    1291                      .dwattr $C$DW$152, DW_AT_TI_symbol_name("_MechTheta")
    1292                      .dwattr $C$DW$152, DW_AT_data_member_location[DW_OP_plus_uconst 0x2]
    1293                      .dwattr $C$DW$152, DW_AT_accessibility(DW_ACCESS_public)
    1294              $C$DW$153       .dwtag  DW_TAG_member
    1295                      .dwattr $C$DW$153, DW_AT_type(*$C$DW$T$31)
    1296                      .dwattr $C$DW$153, DW_AT_name("DirectionQep")
TMS320C2000 Assembler PC v6.4.2 Thu Dec 14 13:36:50 2017

Tools Copyright (c) 1996-2015 Texas Instruments Incorporated
DRV830x_SPI.asm                                                      PAGE   25

    1297                      .dwattr $C$DW$153, DW_AT_TI_symbol_name("_DirectionQep")
    1298                      .dwattr $C$DW$153, DW_AT_data_member_location[DW_OP_plus_uconst 0x4]
    1299                      .dwattr $C$DW$153, DW_AT_accessibility(DW_ACCESS_public)
    1300              $C$DW$154       .dwtag  DW_TAG_member
    1301                      .dwattr $C$DW$154, DW_AT_type(*$C$DW$T$31)
    1302                      .dwattr $C$DW$154, DW_AT_name("QepPeriod")
    1303                      .dwattr $C$DW$154, DW_AT_TI_symbol_name("_QepPeriod")
    1304                      .dwattr $C$DW$154, DW_AT_data_member_location[DW_OP_plus_uconst 0x5]
    1305                      .dwattr $C$DW$154, DW_AT_accessibility(DW_ACCESS_public)
    1306              $C$DW$155       .dwtag  DW_TAG_member
    1307                      .dwattr $C$DW$155, DW_AT_type(*$C$DW$T$33)
    1308                      .dwattr $C$DW$155, DW_AT_name("QepCountIndex")
    1309                      .dwattr $C$DW$155, DW_AT_TI_symbol_name("_QepCountIndex")
    1310                      .dwattr $C$DW$155, DW_AT_data_member_location[DW_OP_plus_uconst 0x6]
    1311                      .dwattr $C$DW$155, DW_AT_accessibility(DW_ACCESS_public)
    1312              $C$DW$156       .dwtag  DW_TAG_member
    1313                      .dwattr $C$DW$156, DW_AT_type(*$C$DW$T$38)
    1314                      .dwattr $C$DW$156, DW_AT_name("RawTheta")
    1315                      .dwattr $C$DW$156, DW_AT_TI_symbol_name("_RawTheta")
    1316                      .dwattr $C$DW$156, DW_AT_data_member_location[DW_OP_plus_uconst 0x8]
    1317                      .dwattr $C$DW$156, DW_AT_accessibility(DW_ACCESS_public)
    1318              $C$DW$157       .dwtag  DW_TAG_member
    1319                      .dwattr $C$DW$157, DW_AT_type(*$C$DW$T$40)
    1320                      .dwattr $C$DW$157, DW_AT_name("MechScaler")
    1321                      .dwattr $C$DW$157, DW_AT_TI_symbol_name("_MechScaler")
    1322                      .dwattr $C$DW$157, DW_AT_data_member_location[DW_OP_plus_uconst 0xa]
    1323                      .dwattr $C$DW$157, DW_AT_accessibility(DW_ACCESS_public)
    1324              $C$DW$158       .dwtag  DW_TAG_member
    1325                      .dwattr $C$DW$158, DW_AT_type(*$C$DW$T$31)
    1326                      .dwattr $C$DW$158, DW_AT_name("LineEncoder")
    1327                      .dwattr $C$DW$158, DW_AT_TI_symbol_name("_LineEncoder")
    1328                      .dwattr $C$DW$158, DW_AT_data_member_location[DW_OP_plus_uconst 0xc]
    1329                      .dwattr $C$DW$158, DW_AT_accessibility(DW_ACCESS_public)
    1330              $C$DW$159       .dwtag  DW_TAG_member
    1331                      .dwattr $C$DW$159, DW_AT_type(*$C$DW$T$31)
    1332                      .dwattr $C$DW$159, DW_AT_name("PolePairs")
    1333                      .dwattr $C$DW$159, DW_AT_TI_symbol_name("_PolePairs")
    1334                      .dwattr $C$DW$159, DW_AT_data_member_location[DW_OP_plus_uconst 0xd]
    1335                      .dwattr $C$DW$159, DW_AT_accessibility(DW_ACCESS_public)
    1336              $C$DW$160       .dwtag  DW_TAG_member
    1337                      .dwattr $C$DW$160, DW_AT_type(*$C$DW$T$38)
    1338                      .dwattr $C$DW$160, DW_AT_name("CalibratedAngle")
    1339                      .dwattr $C$DW$160, DW_AT_TI_symbol_name("_CalibratedAngle")
    1340                      .dwattr $C$DW$160, DW_AT_data_member_location[DW_OP_plus_uconst 0xe]
    1341                      .dwattr $C$DW$160, DW_AT_accessibility(DW_ACCESS_public)
    1342              $C$DW$161       .dwtag  DW_TAG_member
    1343                      .dwattr $C$DW$161, DW_AT_type(*$C$DW$T$31)
    1344                      .dwattr $C$DW$161, DW_AT_name("IndexSyncFlag")
    1345                      .dwattr $C$DW$161, DW_AT_TI_symbol_name("_IndexSyncFlag")
    1346                      .dwattr $C$DW$161, DW_AT_data_member_location[DW_OP_plus_uconst 0x10]
    1347                      .dwattr $C$DW$161, DW_AT_accessibility(DW_ACCESS_public)
    1348                      .dwendtag $C$DW$T$41
    1349              
    1350              $C$DW$T$75      .dwtag  DW_TAG_typedef, DW_AT_name("QEP")
    1351                      .dwattr $C$DW$T$75, DW_AT_type(*$C$DW$T$41)
TMS320C2000 Assembler PC v6.4.2 Thu Dec 14 13:36:50 2017

Tools Copyright (c) 1996-2015 Texas Instruments Incorporated
DRV830x_SPI.asm                                                      PAGE   26

    1352                      .dwattr $C$DW$T$75, DW_AT_language(DW_LANG_C)
    1353              
    1354              $C$DW$T$46      .dwtag  DW_TAG_structure_type
    1355                      .dwattr $C$DW$T$46, DW_AT_byte_size(0x07)
    1356              $C$DW$162       .dwtag  DW_TAG_member
    1357                      .dwattr $C$DW$162, DW_AT_type(*$C$DW$T$42)
    1358                      .dwattr $C$DW$162, DW_AT_name("stat_reg1")
    1359                      .dwattr $C$DW$162, DW_AT_TI_symbol_name("_stat_reg1")
    1360                      .dwattr $C$DW$162, DW_AT_data_member_location[DW_OP_plus_uconst 0x0]
    1361                      .dwattr $C$DW$162, DW_AT_accessibility(DW_ACCESS_public)
    1362              $C$DW$163       .dwtag  DW_TAG_member
    1363                      .dwattr $C$DW$163, DW_AT_type(*$C$DW$T$43)
    1364                      .dwattr $C$DW$163, DW_AT_name("stat_reg2")
    1365                      .dwattr $C$DW$163, DW_AT_TI_symbol_name("_stat_reg2")
    1366                      .dwattr $C$DW$163, DW_AT_data_member_location[DW_OP_plus_uconst 0x1]
    1367                      .dwattr $C$DW$163, DW_AT_accessibility(DW_ACCESS_public)
    1368              $C$DW$164       .dwtag  DW_TAG_member
    1369                      .dwattr $C$DW$164, DW_AT_type(*$C$DW$T$44)
    1370                      .dwattr $C$DW$164, DW_AT_name("cntrl_reg1")
    1371                      .dwattr $C$DW$164, DW_AT_TI_symbol_name("_cntrl_reg1")
    1372                      .dwattr $C$DW$164, DW_AT_data_member_location[DW_OP_plus_uconst 0x2]
    1373                      .dwattr $C$DW$164, DW_AT_accessibility(DW_ACCESS_public)
    1374              $C$DW$165       .dwtag  DW_TAG_member
    1375                      .dwattr $C$DW$165, DW_AT_type(*$C$DW$T$45)
    1376                      .dwattr $C$DW$165, DW_AT_name("cntrl_reg2")
    1377                      .dwattr $C$DW$165, DW_AT_TI_symbol_name("_cntrl_reg2")
    1378                      .dwattr $C$DW$165, DW_AT_data_member_location[DW_OP_plus_uconst 0x3]
    1379                      .dwattr $C$DW$165, DW_AT_accessibility(DW_ACCESS_public)
    1380              $C$DW$166       .dwtag  DW_TAG_member
    1381                      .dwattr $C$DW$166, DW_AT_type(*$C$DW$T$31)
    1382                      .dwattr $C$DW$166, DW_AT_name("readCntrl1")
    1383                      .dwattr $C$DW$166, DW_AT_TI_symbol_name("_readCntrl1")
    1384                      .dwattr $C$DW$166, DW_AT_data_member_location[DW_OP_plus_uconst 0x4]
    1385                      .dwattr $C$DW$166, DW_AT_accessibility(DW_ACCESS_public)
    1386              $C$DW$167       .dwtag  DW_TAG_member
    1387                      .dwattr $C$DW$167, DW_AT_type(*$C$DW$T$31)
    1388                      .dwattr $C$DW$167, DW_AT_name("readCntrl2")
    1389                      .dwattr $C$DW$167, DW_AT_TI_symbol_name("_readCntrl2")
    1390                      .dwattr $C$DW$167, DW_AT_data_member_location[DW_OP_plus_uconst 0x5]
    1391                      .dwattr $C$DW$167, DW_AT_accessibility(DW_ACCESS_public)
    1392              $C$DW$168       .dwtag  DW_TAG_member
    1393                      .dwattr $C$DW$168, DW_AT_type(*$C$DW$T$31)
    1394                      .dwattr $C$DW$168, DW_AT_name("DRV_fault")
    1395                      .dwattr $C$DW$168, DW_AT_TI_symbol_name("_DRV_fault")
    1396                      .dwattr $C$DW$168, DW_AT_data_member_location[DW_OP_plus_uconst 0x6]
    1397                      .dwattr $C$DW$168, DW_AT_accessibility(DW_ACCESS_public)
    1398                      .dwendtag $C$DW$T$46
    1399              
    1400              $C$DW$T$76      .dwtag  DW_TAG_typedef, DW_AT_name("DRV8301_Vars")
    1401                      .dwattr $C$DW$T$76, DW_AT_type(*$C$DW$T$46)
    1402                      .dwattr $C$DW$T$76, DW_AT_language(DW_LANG_C)
    1403              
    1404              $C$DW$T$58      .dwtag  DW_TAG_structure_type
    1405                      .dwattr $C$DW$T$58, DW_AT_byte_size(0x15)
    1406              $C$DW$169       .dwtag  DW_TAG_member
TMS320C2000 Assembler PC v6.4.2 Thu Dec 14 13:36:50 2017

Tools Copyright (c) 1996-2015 Texas Instruments Incorporated
DRV830x_SPI.asm                                                      PAGE   27

    1407                      .dwattr $C$DW$169, DW_AT_type(*$C$DW$T$31)
    1408                      .dwattr $C$DW$169, DW_AT_name("Rsvd0")
    1409                      .dwattr $C$DW$169, DW_AT_TI_symbol_name("_Rsvd0")
    1410                      .dwattr $C$DW$169, DW_AT_data_member_location[DW_OP_plus_uconst 0x0]
    1411                      .dwattr $C$DW$169, DW_AT_accessibility(DW_ACCESS_public)
    1412              $C$DW$170       .dwtag  DW_TAG_member
    1413                      .dwattr $C$DW$170, DW_AT_type(*$C$DW$T$47)
    1414                      .dwattr $C$DW$170, DW_AT_name("status1_wwd")
    1415                      .dwattr $C$DW$170, DW_AT_TI_symbol_name("_status1_wwd")
    1416                      .dwattr $C$DW$170, DW_AT_data_member_location[DW_OP_plus_uconst 0x1]
    1417                      .dwattr $C$DW$170, DW_AT_accessibility(DW_ACCESS_public)
    1418              $C$DW$171       .dwtag  DW_TAG_member
    1419                      .dwattr $C$DW$171, DW_AT_type(*$C$DW$T$48)
    1420                      .dwattr $C$DW$171, DW_AT_name("status2_ov_vds")
    1421                      .dwattr $C$DW$171, DW_AT_TI_symbol_name("_status2_ov_vds")
    1422                      .dwattr $C$DW$171, DW_AT_data_member_location[DW_OP_plus_uconst 0x2]
    1423                      .dwattr $C$DW$171, DW_AT_accessibility(DW_ACCESS_public)
    1424              $C$DW$172       .dwtag  DW_TAG_member
    1425                      .dwattr $C$DW$172, DW_AT_type(*$C$DW$T$49)
    1426                      .dwattr $C$DW$172, DW_AT_name("status3_IC")
    1427                      .dwattr $C$DW$172, DW_AT_TI_symbol_name("_status3_IC")
    1428                      .dwattr $C$DW$172, DW_AT_data_member_location[DW_OP_plus_uconst 0x3]
    1429                      .dwattr $C$DW$172, DW_AT_accessibility(DW_ACCESS_public)
    1430              $C$DW$173       .dwtag  DW_TAG_member
    1431                      .dwattr $C$DW$173, DW_AT_type(*$C$DW$T$50)
    1432                      .dwattr $C$DW$173, DW_AT_name("status4_gd_Vgs")
    1433                      .dwattr $C$DW$173, DW_AT_TI_symbol_name("_status4_gd_Vgs")
    1434                      .dwattr $C$DW$173, DW_AT_data_member_location[DW_OP_plus_uconst 0x4]
    1435                      .dwattr $C$DW$173, DW_AT_accessibility(DW_ACCESS_public)
    1436              $C$DW$174       .dwtag  DW_TAG_member
    1437                      .dwattr $C$DW$174, DW_AT_type(*$C$DW$T$51)
    1438                      .dwattr $C$DW$174, DW_AT_name("cntrl5_hs_gd")
    1439                      .dwattr $C$DW$174, DW_AT_TI_symbol_name("_cntrl5_hs_gd")
    1440                      .dwattr $C$DW$174, DW_AT_data_member_location[DW_OP_plus_uconst 0x5]
    1441                      .dwattr $C$DW$174, DW_AT_accessibility(DW_ACCESS_public)
    1442              $C$DW$175       .dwtag  DW_TAG_member
    1443                      .dwattr $C$DW$175, DW_AT_type(*$C$DW$T$52)
    1444                      .dwattr $C$DW$175, DW_AT_name("cntrl6_ls_gd")
    1445                      .dwattr $C$DW$175, DW_AT_TI_symbol_name("_cntrl6_ls_gd")
    1446                      .dwattr $C$DW$175, DW_AT_data_member_location[DW_OP_plus_uconst 0x6]
    1447                      .dwattr $C$DW$175, DW_AT_accessibility(DW_ACCESS_public)
    1448              $C$DW$176       .dwtag  DW_TAG_member
    1449                      .dwattr $C$DW$176, DW_AT_type(*$C$DW$T$53)
    1450                      .dwattr $C$DW$176, DW_AT_name("cntrl7_gd")
    1451                      .dwattr $C$DW$176, DW_AT_TI_symbol_name("_cntrl7_gd")
    1452                      .dwattr $C$DW$176, DW_AT_data_member_location[DW_OP_plus_uconst 0x7]
    1453                      .dwattr $C$DW$176, DW_AT_accessibility(DW_ACCESS_public)
    1454              $C$DW$177       .dwtag  DW_TAG_member
    1455                      .dwattr $C$DW$177, DW_AT_type(*$C$DW$T$31)
    1456                      .dwattr $C$DW$177, DW_AT_name("Rsvd8")
    1457                      .dwattr $C$DW$177, DW_AT_TI_symbol_name("_Rsvd8")
    1458                      .dwattr $C$DW$177, DW_AT_data_member_location[DW_OP_plus_uconst 0x8]
    1459                      .dwattr $C$DW$177, DW_AT_accessibility(DW_ACCESS_public)
    1460              $C$DW$178       .dwtag  DW_TAG_member
    1461                      .dwattr $C$DW$178, DW_AT_type(*$C$DW$T$54)
TMS320C2000 Assembler PC v6.4.2 Thu Dec 14 13:36:50 2017

Tools Copyright (c) 1996-2015 Texas Instruments Incorporated
DRV830x_SPI.asm                                                      PAGE   28

    1462                      .dwattr $C$DW$178, DW_AT_name("cntrl9_IC_ops")
    1463                      .dwattr $C$DW$178, DW_AT_TI_symbol_name("_cntrl9_IC_ops")
    1464                      .dwattr $C$DW$178, DW_AT_data_member_location[DW_OP_plus_uconst 0x9]
    1465                      .dwattr $C$DW$178, DW_AT_accessibility(DW_ACCESS_public)
    1466              $C$DW$179       .dwtag  DW_TAG_member
    1467                      .dwattr $C$DW$179, DW_AT_type(*$C$DW$T$55)
    1468                      .dwattr $C$DW$179, DW_AT_name("cntrlA_shunt_amp")
    1469                      .dwattr $C$DW$179, DW_AT_TI_symbol_name("_cntrlA_shunt_amp")
    1470                      .dwattr $C$DW$179, DW_AT_data_member_location[DW_OP_plus_uconst 0xa]
    1471                      .dwattr $C$DW$179, DW_AT_accessibility(DW_ACCESS_public)
    1472              $C$DW$180       .dwtag  DW_TAG_member
    1473                      .dwattr $C$DW$180, DW_AT_type(*$C$DW$T$56)
    1474                      .dwattr $C$DW$180, DW_AT_name("cntrlB_Vreg")
    1475                      .dwattr $C$DW$180, DW_AT_TI_symbol_name("_cntrlB_Vreg")
    1476                      .dwattr $C$DW$180, DW_AT_data_member_location[DW_OP_plus_uconst 0xb]
    1477                      .dwattr $C$DW$180, DW_AT_accessibility(DW_ACCESS_public)
    1478              $C$DW$181       .dwtag  DW_TAG_member
    1479                      .dwattr $C$DW$181, DW_AT_type(*$C$DW$T$57)
    1480                      .dwattr $C$DW$181, DW_AT_name("cntrlC_Vds_SNS")
    1481                      .dwattr $C$DW$181, DW_AT_TI_symbol_name("_cntrlC_Vds_SNS")
    1482                      .dwattr $C$DW$181, DW_AT_data_member_location[DW_OP_plus_uconst 0xc]
    1483                      .dwattr $C$DW$181, DW_AT_accessibility(DW_ACCESS_public)
    1484              $C$DW$182       .dwtag  DW_TAG_member
    1485                      .dwattr $C$DW$182, DW_AT_type(*$C$DW$T$31)
    1486                      .dwattr $C$DW$182, DW_AT_name("readCntrl5")
    1487                      .dwattr $C$DW$182, DW_AT_TI_symbol_name("_readCntrl5")
    1488                      .dwattr $C$DW$182, DW_AT_data_member_location[DW_OP_plus_uconst 0xd]
    1489                      .dwattr $C$DW$182, DW_AT_accessibility(DW_ACCESS_public)
    1490              $C$DW$183       .dwtag  DW_TAG_member
    1491                      .dwattr $C$DW$183, DW_AT_type(*$C$DW$T$31)
    1492                      .dwattr $C$DW$183, DW_AT_name("readCntrl6")
    1493                      .dwattr $C$DW$183, DW_AT_TI_symbol_name("_readCntrl6")
    1494                      .dwattr $C$DW$183, DW_AT_data_member_location[DW_OP_plus_uconst 0xe]
    1495                      .dwattr $C$DW$183, DW_AT_accessibility(DW_ACCESS_public)
    1496              $C$DW$184       .dwtag  DW_TAG_member
    1497                      .dwattr $C$DW$184, DW_AT_type(*$C$DW$T$31)
    1498                      .dwattr $C$DW$184, DW_AT_name("readCntrl7")
    1499                      .dwattr $C$DW$184, DW_AT_TI_symbol_name("_readCntrl7")
    1500                      .dwattr $C$DW$184, DW_AT_data_member_location[DW_OP_plus_uconst 0xf]
    1501                      .dwattr $C$DW$184, DW_AT_accessibility(DW_ACCESS_public)
    1502              $C$DW$185       .dwtag  DW_TAG_member
    1503                      .dwattr $C$DW$185, DW_AT_type(*$C$DW$T$31)
    1504                      .dwattr $C$DW$185, DW_AT_name("readCntrl9")
    1505                      .dwattr $C$DW$185, DW_AT_TI_symbol_name("_readCntrl9")
    1506                      .dwattr $C$DW$185, DW_AT_data_member_location[DW_OP_plus_uconst 0x10]
    1507                      .dwattr $C$DW$185, DW_AT_accessibility(DW_ACCESS_public)
    1508              $C$DW$186       .dwtag  DW_TAG_member
    1509                      .dwattr $C$DW$186, DW_AT_type(*$C$DW$T$31)
    1510                      .dwattr $C$DW$186, DW_AT_name("readCntrlA")
    1511                      .dwattr $C$DW$186, DW_AT_TI_symbol_name("_readCntrlA")
    1512                      .dwattr $C$DW$186, DW_AT_data_member_location[DW_OP_plus_uconst 0x11]
    1513                      .dwattr $C$DW$186, DW_AT_accessibility(DW_ACCESS_public)
    1514              $C$DW$187       .dwtag  DW_TAG_member
    1515                      .dwattr $C$DW$187, DW_AT_type(*$C$DW$T$31)
    1516                      .dwattr $C$DW$187, DW_AT_name("readCntrlB")
TMS320C2000 Assembler PC v6.4.2 Thu Dec 14 13:36:50 2017

Tools Copyright (c) 1996-2015 Texas Instruments Incorporated
DRV830x_SPI.asm                                                      PAGE   29

    1517                      .dwattr $C$DW$187, DW_AT_TI_symbol_name("_readCntrlB")
    1518                      .dwattr $C$DW$187, DW_AT_data_member_location[DW_OP_plus_uconst 0x12]
    1519                      .dwattr $C$DW$187, DW_AT_accessibility(DW_ACCESS_public)
    1520              $C$DW$188       .dwtag  DW_TAG_member
    1521                      .dwattr $C$DW$188, DW_AT_type(*$C$DW$T$31)
    1522                      .dwattr $C$DW$188, DW_AT_name("readCntrlC")
    1523                      .dwattr $C$DW$188, DW_AT_TI_symbol_name("_readCntrlC")
    1524                      .dwattr $C$DW$188, DW_AT_data_member_location[DW_OP_plus_uconst 0x13]
    1525                      .dwattr $C$DW$188, DW_AT_accessibility(DW_ACCESS_public)
    1526              $C$DW$189       .dwtag  DW_TAG_member
    1527                      .dwattr $C$DW$189, DW_AT_type(*$C$DW$T$31)
    1528                      .dwattr $C$DW$189, DW_AT_name("DRV_fault")
    1529                      .dwattr $C$DW$189, DW_AT_TI_symbol_name("_DRV_fault")
    1530                      .dwattr $C$DW$189, DW_AT_data_member_location[DW_OP_plus_uconst 0x14]
    1531                      .dwattr $C$DW$189, DW_AT_accessibility(DW_ACCESS_public)
    1532                      .dwendtag $C$DW$T$58
    1533              
    1534              $C$DW$T$77      .dwtag  DW_TAG_typedef, DW_AT_name("DRV8305_Vars")
    1535                      .dwattr $C$DW$T$77, DW_AT_type(*$C$DW$T$58)
    1536                      .dwattr $C$DW$T$77, DW_AT_language(DW_LANG_C)
    1537              
    1538              $C$DW$T$78      .dwtag  DW_TAG_structure_type
    1539                      .dwattr $C$DW$T$78, DW_AT_byte_size(0x150)
    1540              $C$DW$190       .dwtag  DW_TAG_member
    1541                      .dwattr $C$DW$190, DW_AT_type(*$C$DW$T$60)
    1542                      .dwattr $C$DW$190, DW_AT_name("PwmARegs")
    1543                      .dwattr $C$DW$190, DW_AT_TI_symbol_name("_PwmARegs")
    1544                      .dwattr $C$DW$190, DW_AT_data_member_location[DW_OP_plus_uconst 0x0]
    1545                      .dwattr $C$DW$190, DW_AT_accessibility(DW_ACCESS_public)
    1546              $C$DW$191       .dwtag  DW_TAG_member
    1547                      .dwattr $C$DW$191, DW_AT_type(*$C$DW$T$60)
    1548                      .dwattr $C$DW$191, DW_AT_name("PwmBRegs")
    1549                      .dwattr $C$DW$191, DW_AT_TI_symbol_name("_PwmBRegs")
    1550                      .dwattr $C$DW$191, DW_AT_data_member_location[DW_OP_plus_uconst 0x2]
    1551                      .dwattr $C$DW$191, DW_AT_accessibility(DW_ACCESS_public)
    1552              $C$DW$192       .dwtag  DW_TAG_member
    1553                      .dwattr $C$DW$192, DW_AT_type(*$C$DW$T$60)
    1554                      .dwattr $C$DW$192, DW_AT_name("PwmCRegs")
    1555                      .dwattr $C$DW$192, DW_AT_TI_symbol_name("_PwmCRegs")
    1556                      .dwattr $C$DW$192, DW_AT_data_member_location[DW_OP_plus_uconst 0x4]
    1557                      .dwattr $C$DW$192, DW_AT_accessibility(DW_ACCESS_public)
    1558              $C$DW$193       .dwtag  DW_TAG_member
    1559                      .dwattr $C$DW$193, DW_AT_type(*$C$DW$T$62)
    1560                      .dwattr $C$DW$193, DW_AT_name("QepRegs")
    1561                      .dwattr $C$DW$193, DW_AT_TI_symbol_name("_QepRegs")
    1562                      .dwattr $C$DW$193, DW_AT_data_member_location[DW_OP_plus_uconst 0x6]
    1563                      .dwattr $C$DW$193, DW_AT_accessibility(DW_ACCESS_public)
    1564              $C$DW$194       .dwtag  DW_TAG_member
    1565                      .dwattr $C$DW$194, DW_AT_type(*$C$DW$T$64)
    1566                      .dwattr $C$DW$194, DW_AT_name("SpiRegs")
    1567                      .dwattr $C$DW$194, DW_AT_TI_symbol_name("_SpiRegs")
    1568                      .dwattr $C$DW$194, DW_AT_data_member_location[DW_OP_plus_uconst 0x8]
    1569                      .dwattr $C$DW$194, DW_AT_accessibility(DW_ACCESS_public)
    1570              $C$DW$195       .dwtag  DW_TAG_member
    1571                      .dwattr $C$DW$195, DW_AT_type(*$C$DW$T$31)
TMS320C2000 Assembler PC v6.4.2 Thu Dec 14 13:36:50 2017

Tools Copyright (c) 1996-2015 Texas Instruments Incorporated
DRV830x_SPI.asm                                                      PAGE   30

    1572                      .dwattr $C$DW$195, DW_AT_name("drvScsPin")
    1573                      .dwattr $C$DW$195, DW_AT_TI_symbol_name("_drvScsPin")
    1574                      .dwattr $C$DW$195, DW_AT_data_member_location[DW_OP_plus_uconst 0xa]
    1575                      .dwattr $C$DW$195, DW_AT_accessibility(DW_ACCESS_public)
    1576              $C$DW$196       .dwtag  DW_TAG_member
    1577                      .dwattr $C$DW$196, DW_AT_type(*$C$DW$T$19)
    1578                      .dwattr $C$DW$196, DW_AT_name("offset_shntA")
    1579                      .dwattr $C$DW$196, DW_AT_TI_symbol_name("_offset_shntA")
    1580                      .dwattr $C$DW$196, DW_AT_data_member_location[DW_OP_plus_uconst 0xc]
    1581                      .dwattr $C$DW$196, DW_AT_accessibility(DW_ACCESS_public)
    1582              $C$DW$197       .dwtag  DW_TAG_member
    1583                      .dwattr $C$DW$197, DW_AT_type(*$C$DW$T$19)
    1584                      .dwattr $C$DW$197, DW_AT_name("offset_shntB")
    1585                      .dwattr $C$DW$197, DW_AT_TI_symbol_name("_offset_shntB")
    1586                      .dwattr $C$DW$197, DW_AT_data_member_location[DW_OP_plus_uconst 0xe]
    1587                      .dwattr $C$DW$197, DW_AT_accessibility(DW_ACCESS_public)
    1588              $C$DW$198       .dwtag  DW_TAG_member
    1589                      .dwattr $C$DW$198, DW_AT_type(*$C$DW$T$19)
    1590                      .dwattr $C$DW$198, DW_AT_name("offset_shntC")
    1591                      .dwattr $C$DW$198, DW_AT_TI_symbol_name("_offset_shntC")
    1592                      .dwattr $C$DW$198, DW_AT_data_member_location[DW_OP_plus_uconst 0x10]
    1593                      .dwattr $C$DW$198, DW_AT_accessibility(DW_ACCESS_public)
    1594              $C$DW$199       .dwtag  DW_TAG_member
    1595                      .dwattr $C$DW$199, DW_AT_type(*$C$DW$T$19)
    1596                      .dwattr $C$DW$199, DW_AT_name("VdTesting")
    1597                      .dwattr $C$DW$199, DW_AT_TI_symbol_name("_VdTesting")
    1598                      .dwattr $C$DW$199, DW_AT_data_member_location[DW_OP_plus_uconst 0x12]
    1599                      .dwattr $C$DW$199, DW_AT_accessibility(DW_ACCESS_public)
    1600              $C$DW$200       .dwtag  DW_TAG_member
    1601                      .dwattr $C$DW$200, DW_AT_type(*$C$DW$T$19)
    1602                      .dwattr $C$DW$200, DW_AT_name("VqTesting")
    1603                      .dwattr $C$DW$200, DW_AT_TI_symbol_name("_VqTesting")
    1604                      .dwattr $C$DW$200, DW_AT_data_member_location[DW_OP_plus_uconst 0x14]
    1605                      .dwattr $C$DW$200, DW_AT_accessibility(DW_ACCESS_public)
    1606              $C$DW$201       .dwtag  DW_TAG_member
    1607                      .dwattr $C$DW$201, DW_AT_type(*$C$DW$T$19)
    1608                      .dwattr $C$DW$201, DW_AT_name("IdRef")
    1609                      .dwattr $C$DW$201, DW_AT_TI_symbol_name("_IdRef")
    1610                      .dwattr $C$DW$201, DW_AT_data_member_location[DW_OP_plus_uconst 0x16]
    1611                      .dwattr $C$DW$201, DW_AT_accessibility(DW_ACCESS_public)
    1612              $C$DW$202       .dwtag  DW_TAG_member
    1613                      .dwattr $C$DW$202, DW_AT_type(*$C$DW$T$19)
    1614                      .dwattr $C$DW$202, DW_AT_name("IqRef")
    1615                      .dwattr $C$DW$202, DW_AT_TI_symbol_name("_IqRef")
    1616                      .dwattr $C$DW$202, DW_AT_data_member_location[DW_OP_plus_uconst 0x18]
    1617                      .dwattr $C$DW$202, DW_AT_accessibility(DW_ACCESS_public)
    1618              $C$DW$203       .dwtag  DW_TAG_member
    1619                      .dwattr $C$DW$203, DW_AT_type(*$C$DW$T$19)
    1620                      .dwattr $C$DW$203, DW_AT_name("SpeedRef")
    1621                      .dwattr $C$DW$203, DW_AT_TI_symbol_name("_SpeedRef")
    1622                      .dwattr $C$DW$203, DW_AT_data_member_location[DW_OP_plus_uconst 0x1a]
    1623                      .dwattr $C$DW$203, DW_AT_accessibility(DW_ACCESS_public)
    1624              $C$DW$204       .dwtag  DW_TAG_member
    1625                      .dwattr $C$DW$204, DW_AT_type(*$C$DW$T$19)
    1626                      .dwattr $C$DW$204, DW_AT_name("ElecTheta")
TMS320C2000 Assembler PC v6.4.2 Thu Dec 14 13:36:50 2017

Tools Copyright (c) 1996-2015 Texas Instruments Incorporated
DRV830x_SPI.asm                                                      PAGE   31

    1627                      .dwattr $C$DW$204, DW_AT_TI_symbol_name("_ElecTheta")
    1628                      .dwattr $C$DW$204, DW_AT_data_member_location[DW_OP_plus_uconst 0x1c]
    1629                      .dwattr $C$DW$204, DW_AT_accessibility(DW_ACCESS_public)
    1630              $C$DW$205       .dwtag  DW_TAG_member
    1631                      .dwattr $C$DW$205, DW_AT_type(*$C$DW$T$19)
    1632                      .dwattr $C$DW$205, DW_AT_name("MechTheta")
    1633                      .dwattr $C$DW$205, DW_AT_TI_symbol_name("_MechTheta")
    1634                      .dwattr $C$DW$205, DW_AT_data_member_location[DW_OP_plus_uconst 0x1e]
    1635                      .dwattr $C$DW$205, DW_AT_accessibility(DW_ACCESS_public)
    1636              $C$DW$206       .dwtag  DW_TAG_member
    1637                      .dwattr $C$DW$206, DW_AT_type(*$C$DW$T$40)
    1638                      .dwattr $C$DW$206, DW_AT_name("currentAs")
    1639                      .dwattr $C$DW$206, DW_AT_TI_symbol_name("_currentAs")
    1640                      .dwattr $C$DW$206, DW_AT_data_member_location[DW_OP_plus_uconst 0x20]
    1641                      .dwattr $C$DW$206, DW_AT_accessibility(DW_ACCESS_public)
    1642              $C$DW$207       .dwtag  DW_TAG_member
    1643                      .dwattr $C$DW$207, DW_AT_type(*$C$DW$T$40)
    1644                      .dwattr $C$DW$207, DW_AT_name("currentBs")
    1645                      .dwattr $C$DW$207, DW_AT_TI_symbol_name("_currentBs")
    1646                      .dwattr $C$DW$207, DW_AT_data_member_location[DW_OP_plus_uconst 0x22]
    1647                      .dwattr $C$DW$207, DW_AT_accessibility(DW_ACCESS_public)
    1648              $C$DW$208       .dwtag  DW_TAG_member
    1649                      .dwattr $C$DW$208, DW_AT_type(*$C$DW$T$40)
    1650                      .dwattr $C$DW$208, DW_AT_name("currentCs")
    1651                      .dwattr $C$DW$208, DW_AT_TI_symbol_name("_currentCs")
    1652                      .dwattr $C$DW$208, DW_AT_data_member_location[DW_OP_plus_uconst 0x24]
    1653                      .dwattr $C$DW$208, DW_AT_accessibility(DW_ACCESS_public)
    1654              $C$DW$209       .dwtag  DW_TAG_member
    1655                      .dwattr $C$DW$209, DW_AT_type(*$C$DW$T$38)
    1656                      .dwattr $C$DW$209, DW_AT_name("alignCntr")
    1657                      .dwattr $C$DW$209, DW_AT_TI_symbol_name("_alignCntr")
    1658                      .dwattr $C$DW$209, DW_AT_data_member_location[DW_OP_plus_uconst 0x26]
    1659                      .dwattr $C$DW$209, DW_AT_accessibility(DW_ACCESS_public)
    1660              $C$DW$210       .dwtag  DW_TAG_member
    1661                      .dwattr $C$DW$210, DW_AT_type(*$C$DW$T$38)
    1662                      .dwattr $C$DW$210, DW_AT_name("alignCnt")
    1663                      .dwattr $C$DW$210, DW_AT_TI_symbol_name("_alignCnt")
    1664                      .dwattr $C$DW$210, DW_AT_data_member_location[DW_OP_plus_uconst 0x28]
    1665                      .dwattr $C$DW$210, DW_AT_accessibility(DW_ACCESS_public)
    1666              $C$DW$211       .dwtag  DW_TAG_member
    1667                      .dwattr $C$DW$211, DW_AT_type(*$C$DW$T$31)
    1668                      .dwattr $C$DW$211, DW_AT_name("lsw")
    1669                      .dwattr $C$DW$211, DW_AT_TI_symbol_name("_lsw")
    1670                      .dwattr $C$DW$211, DW_AT_data_member_location[DW_OP_plus_uconst 0x2a]
    1671                      .dwattr $C$DW$211, DW_AT_accessibility(DW_ACCESS_public)
    1672              $C$DW$212       .dwtag  DW_TAG_member
    1673                      .dwattr $C$DW$212, DW_AT_type(*$C$DW$T$31)
    1674                      .dwattr $C$DW$212, DW_AT_name("TripFlagDMC")
    1675                      .dwattr $C$DW$212, DW_AT_TI_symbol_name("_TripFlagDMC")
    1676                      .dwattr $C$DW$212, DW_AT_data_member_location[DW_OP_plus_uconst 0x2b]
    1677                      .dwattr $C$DW$212, DW_AT_accessibility(DW_ACCESS_public)
    1678              $C$DW$213       .dwtag  DW_TAG_member
    1679                      .dwattr $C$DW$213, DW_AT_type(*$C$DW$T$31)
    1680                      .dwattr $C$DW$213, DW_AT_name("clearTripFlagDMC")
    1681                      .dwattr $C$DW$213, DW_AT_TI_symbol_name("_clearTripFlagDMC")
TMS320C2000 Assembler PC v6.4.2 Thu Dec 14 13:36:50 2017

Tools Copyright (c) 1996-2015 Texas Instruments Incorporated
DRV830x_SPI.asm                                                      PAGE   32

    1682                      .dwattr $C$DW$213, DW_AT_data_member_location[DW_OP_plus_uconst 0x2c]
    1683                      .dwattr $C$DW$213, DW_AT_accessibility(DW_ACCESS_public)
    1684              $C$DW$214       .dwtag  DW_TAG_member
    1685                      .dwattr $C$DW$214, DW_AT_type(*$C$DW$T$31)
    1686                      .dwattr $C$DW$214, DW_AT_name("RunMotor")
    1687                      .dwattr $C$DW$214, DW_AT_TI_symbol_name("_RunMotor")
    1688                      .dwattr $C$DW$214, DW_AT_data_member_location[DW_OP_plus_uconst 0x2d]
    1689                      .dwattr $C$DW$214, DW_AT_accessibility(DW_ACCESS_public)
    1690              $C$DW$215       .dwtag  DW_TAG_member
    1691                      .dwattr $C$DW$215, DW_AT_type(*$C$DW$T$31)
    1692                      .dwattr $C$DW$215, DW_AT_name("SpeedLoopPrescaler")
    1693                      .dwattr $C$DW$215, DW_AT_TI_symbol_name("_SpeedLoopPrescaler")
    1694                      .dwattr $C$DW$215, DW_AT_data_member_location[DW_OP_plus_uconst 0x2e]
    1695                      .dwattr $C$DW$215, DW_AT_accessibility(DW_ACCESS_public)
    1696              $C$DW$216       .dwtag  DW_TAG_member
    1697                      .dwattr $C$DW$216, DW_AT_type(*$C$DW$T$31)
    1698                      .dwattr $C$DW$216, DW_AT_name("SpeedLoopCount")
    1699                      .dwattr $C$DW$216, DW_AT_TI_symbol_name("_SpeedLoopCount")
    1700                      .dwattr $C$DW$216, DW_AT_data_member_location[DW_OP_plus_uconst 0x2f]
    1701                      .dwattr $C$DW$216, DW_AT_accessibility(DW_ACCESS_public)
    1702              $C$DW$217       .dwtag  DW_TAG_member
    1703                      .dwattr $C$DW$217, DW_AT_type(*$C$DW$T$31)
    1704                      .dwattr $C$DW$217, DW_AT_name("PosSenseReverse")
    1705                      .dwattr $C$DW$217, DW_AT_TI_symbol_name("_PosSenseReverse")
    1706                      .dwattr $C$DW$217, DW_AT_data_member_location[DW_OP_plus_uconst 0x30]
    1707                      .dwattr $C$DW$217, DW_AT_accessibility(DW_ACCESS_public)
    1708              $C$DW$218       .dwtag  DW_TAG_member
    1709                      .dwattr $C$DW$218, DW_AT_type(*$C$DW$T$31)
    1710                      .dwattr $C$DW$218, DW_AT_name("newCmdDRV")
    1711                      .dwattr $C$DW$218, DW_AT_TI_symbol_name("_newCmdDRV")
    1712                      .dwattr $C$DW$218, DW_AT_data_member_location[DW_OP_plus_uconst 0x31]
    1713                      .dwattr $C$DW$218, DW_AT_accessibility(DW_ACCESS_public)
    1714              $C$DW$219       .dwtag  DW_TAG_member
    1715                      .dwattr $C$DW$219, DW_AT_type(*$C$DW$T$40)
    1716                      .dwattr $C$DW$219, DW_AT_name("T")
    1717                      .dwattr $C$DW$219, DW_AT_TI_symbol_name("_T")
    1718                      .dwattr $C$DW$219, DW_AT_data_member_location[DW_OP_plus_uconst 0x32]
    1719                      .dwattr $C$DW$219, DW_AT_accessibility(DW_ACCESS_public)
    1720              $C$DW$220       .dwtag  DW_TAG_member
    1721                      .dwattr $C$DW$220, DW_AT_type(*$C$DW$T$65)
    1722                      .dwattr $C$DW$220, DW_AT_name("clarke")
    1723                      .dwattr $C$DW$220, DW_AT_TI_symbol_name("_clarke")
    1724                      .dwattr $C$DW$220, DW_AT_data_member_location[DW_OP_plus_uconst 0x34]
    1725                      .dwattr $C$DW$220, DW_AT_accessibility(DW_ACCESS_public)
    1726              $C$DW$221       .dwtag  DW_TAG_member
    1727                      .dwattr $C$DW$221, DW_AT_type(*$C$DW$T$66)
    1728                      .dwattr $C$DW$221, DW_AT_name("park")
    1729                      .dwattr $C$DW$221, DW_AT_TI_symbol_name("_park")
    1730                      .dwattr $C$DW$221, DW_AT_data_member_location[DW_OP_plus_uconst 0x3e]
    1731                      .dwattr $C$DW$221, DW_AT_accessibility(DW_ACCESS_public)
    1732              $C$DW$222       .dwtag  DW_TAG_member
    1733                      .dwattr $C$DW$222, DW_AT_type(*$C$DW$T$67)
    1734                      .dwattr $C$DW$222, DW_AT_name("ipark")
    1735                      .dwattr $C$DW$222, DW_AT_TI_symbol_name("_ipark")
    1736                      .dwattr $C$DW$222, DW_AT_data_member_location[DW_OP_plus_uconst 0x4c]
TMS320C2000 Assembler PC v6.4.2 Thu Dec 14 13:36:50 2017

Tools Copyright (c) 1996-2015 Texas Instruments Incorporated
DRV830x_SPI.asm                                                      PAGE   33

    1737                      .dwattr $C$DW$222, DW_AT_accessibility(DW_ACCESS_public)
    1738              $C$DW$223       .dwtag  DW_TAG_member
    1739                      .dwattr $C$DW$223, DW_AT_type(*$C$DW$T$68)
    1740                      .dwattr $C$DW$223, DW_AT_name("pi_pos")
    1741                      .dwattr $C$DW$223, DW_AT_TI_symbol_name("_pi_pos")
    1742                      .dwattr $C$DW$223, DW_AT_data_member_location[DW_OP_plus_uconst 0x5a]
    1743                      .dwattr $C$DW$223, DW_AT_accessibility(DW_ACCESS_public)
    1744              $C$DW$224       .dwtag  DW_TAG_member
    1745                      .dwattr $C$DW$224, DW_AT_type(*$C$DW$T$69)
    1746                      .dwattr $C$DW$224, DW_AT_name("pid_spd")
    1747                      .dwattr $C$DW$224, DW_AT_TI_symbol_name("_pid_spd")
    1748                      .dwattr $C$DW$224, DW_AT_data_member_location[DW_OP_plus_uconst 0x72]
    1749                      .dwattr $C$DW$224, DW_AT_accessibility(DW_ACCESS_public)
    1750              $C$DW$225       .dwtag  DW_TAG_member
    1751                      .dwattr $C$DW$225, DW_AT_type(*$C$DW$T$68)
    1752                      .dwattr $C$DW$225, DW_AT_name("pi_id")
    1753                      .dwattr $C$DW$225, DW_AT_TI_symbol_name("_pi_id")
    1754                      .dwattr $C$DW$225, DW_AT_data_member_location[DW_OP_plus_uconst 0x9a]
    1755                      .dwattr $C$DW$225, DW_AT_accessibility(DW_ACCESS_public)
    1756              $C$DW$226       .dwtag  DW_TAG_member
    1757                      .dwattr $C$DW$226, DW_AT_type(*$C$DW$T$68)
    1758                      .dwattr $C$DW$226, DW_AT_name("pi_iq")
    1759                      .dwattr $C$DW$226, DW_AT_TI_symbol_name("_pi_iq")
    1760                      .dwattr $C$DW$226, DW_AT_data_member_location[DW_OP_plus_uconst 0xb2]
    1761                      .dwattr $C$DW$226, DW_AT_accessibility(DW_ACCESS_public)
    1762              $C$DW$227       .dwtag  DW_TAG_member
    1763                      .dwattr $C$DW$227, DW_AT_type(*$C$DW$T$70)
    1764                      .dwattr $C$DW$227, DW_AT_name("svgen")
    1765                      .dwattr $C$DW$227, DW_AT_TI_symbol_name("_svgen")
    1766                      .dwattr $C$DW$227, DW_AT_data_member_location[DW_OP_plus_uconst 0xca]
    1767                      .dwattr $C$DW$227, DW_AT_accessibility(DW_ACCESS_public)
    1768              $C$DW$228       .dwtag  DW_TAG_member
    1769                      .dwattr $C$DW$228, DW_AT_type(*$C$DW$T$71)
    1770                      .dwattr $C$DW$228, DW_AT_name("rc")
    1771                      .dwattr $C$DW$228, DW_AT_TI_symbol_name("_rc")
    1772                      .dwattr $C$DW$228, DW_AT_data_member_location[DW_OP_plus_uconst 0xdc]
    1773                      .dwattr $C$DW$228, DW_AT_accessibility(DW_ACCESS_public)
    1774              $C$DW$229       .dwtag  DW_TAG_member
    1775                      .dwattr $C$DW$229, DW_AT_type(*$C$DW$T$72)
    1776                      .dwattr $C$DW$229, DW_AT_name("rg")
    1777                      .dwattr $C$DW$229, DW_AT_TI_symbol_name("_rg")
    1778                      .dwattr $C$DW$229, DW_AT_data_member_location[DW_OP_plus_uconst 0xec]
    1779                      .dwattr $C$DW$229, DW_AT_accessibility(DW_ACCESS_public)
    1780              $C$DW$230       .dwtag  DW_TAG_member
    1781                      .dwattr $C$DW$230, DW_AT_type(*$C$DW$T$73)
    1782                      .dwattr $C$DW$230, DW_AT_name("volt")
    1783                      .dwattr $C$DW$230, DW_AT_TI_symbol_name("_volt")
    1784                      .dwattr $C$DW$230, DW_AT_data_member_location[DW_OP_plus_uconst 0xf8]
    1785                      .dwattr $C$DW$230, DW_AT_accessibility(DW_ACCESS_public)
    1786              $C$DW$231       .dwtag  DW_TAG_member
    1787                      .dwattr $C$DW$231, DW_AT_type(*$C$DW$T$74)
    1788                      .dwattr $C$DW$231, DW_AT_name("speed")
    1789                      .dwattr $C$DW$231, DW_AT_TI_symbol_name("_speed")
    1790                      .dwattr $C$DW$231, DW_AT_data_member_location[DW_OP_plus_uconst 0x10e]
    1791                      .dwattr $C$DW$231, DW_AT_accessibility(DW_ACCESS_public)
TMS320C2000 Assembler PC v6.4.2 Thu Dec 14 13:36:50 2017

Tools Copyright (c) 1996-2015 Texas Instruments Incorporated
DRV830x_SPI.asm                                                      PAGE   34

    1792              $C$DW$232       .dwtag  DW_TAG_member
    1793                      .dwattr $C$DW$232, DW_AT_type(*$C$DW$T$75)
    1794                      .dwattr $C$DW$232, DW_AT_name("qep")
    1795                      .dwattr $C$DW$232, DW_AT_TI_symbol_name("_qep")
    1796                      .dwattr $C$DW$232, DW_AT_data_member_location[DW_OP_plus_uconst 0x122]
    1797                      .dwattr $C$DW$232, DW_AT_accessibility(DW_ACCESS_public)
    1798              $C$DW$233       .dwtag  DW_TAG_member
    1799                      .dwattr $C$DW$233, DW_AT_type(*$C$DW$T$76)
    1800                      .dwattr $C$DW$233, DW_AT_name("drv8301")
    1801                      .dwattr $C$DW$233, DW_AT_TI_symbol_name("_drv8301")
    1802                      .dwattr $C$DW$233, DW_AT_data_member_location[DW_OP_plus_uconst 0x134]
    1803                      .dwattr $C$DW$233, DW_AT_accessibility(DW_ACCESS_public)
    1804              $C$DW$234       .dwtag  DW_TAG_member
    1805                      .dwattr $C$DW$234, DW_AT_type(*$C$DW$T$77)
    1806                      .dwattr $C$DW$234, DW_AT_name("drv8305")
    1807                      .dwattr $C$DW$234, DW_AT_TI_symbol_name("_drv8305")
    1808                      .dwattr $C$DW$234, DW_AT_data_member_location[DW_OP_plus_uconst 0x13b]
    1809                      .dwattr $C$DW$234, DW_AT_accessibility(DW_ACCESS_public)
    1810                      .dwendtag $C$DW$T$78
    1811              
    1812              $C$DW$T$281     .dwtag  DW_TAG_typedef, DW_AT_name("MOTOR_VARS")
    1813                      .dwattr $C$DW$T$281, DW_AT_type(*$C$DW$T$78)
    1814                      .dwattr $C$DW$T$281, DW_AT_language(DW_LANG_C)
    1815              $C$DW$T$282     .dwtag  DW_TAG_pointer_type
    1816                      .dwattr $C$DW$T$282, DW_AT_type(*$C$DW$T$281)
    1817                      .dwattr $C$DW$T$282, DW_AT_address_class(0x20)
    1818              
    1819              $C$DW$T$79      .dwtag  DW_TAG_union_type
    1820                      .dwattr $C$DW$T$79, DW_AT_byte_size(0x01)
    1821              $C$DW$235       .dwtag  DW_TAG_member
    1822                      .dwattr $C$DW$235, DW_AT_type(*$C$DW$T$31)
    1823                      .dwattr $C$DW$235, DW_AT_name("all")
    1824                      .dwattr $C$DW$235, DW_AT_TI_symbol_name("_all")
    1825                      .dwattr $C$DW$235, DW_AT_data_member_location[DW_OP_plus_uconst 0x0]
    1826                      .dwattr $C$DW$235, DW_AT_accessibility(DW_ACCESS_public)
    1827              $C$DW$236       .dwtag  DW_TAG_member
    1828                      .dwattr $C$DW$236, DW_AT_type(*$C$DW$T$146)
    1829                      .dwattr $C$DW$236, DW_AT_name("bit")
    1830                      .dwattr $C$DW$236, DW_AT_TI_symbol_name("_bit")
    1831                      .dwattr $C$DW$236, DW_AT_data_member_location[DW_OP_plus_uconst 0x0]
    1832                      .dwattr $C$DW$236, DW_AT_accessibility(DW_ACCESS_public)
    1833                      .dwendtag $C$DW$T$79
    1834              
    1835              $C$DW$T$42      .dwtag  DW_TAG_typedef, DW_AT_name("DRV8301_STATUS_REG_1")
    1836                      .dwattr $C$DW$T$42, DW_AT_type(*$C$DW$T$79)
    1837                      .dwattr $C$DW$T$42, DW_AT_language(DW_LANG_C)
    1838              
    1839              $C$DW$T$80      .dwtag  DW_TAG_union_type
    1840                      .dwattr $C$DW$T$80, DW_AT_byte_size(0x01)
    1841              $C$DW$237       .dwtag  DW_TAG_member
    1842                      .dwattr $C$DW$237, DW_AT_type(*$C$DW$T$31)
    1843                      .dwattr $C$DW$237, DW_AT_name("all")
    1844                      .dwattr $C$DW$237, DW_AT_TI_symbol_name("_all")
    1845                      .dwattr $C$DW$237, DW_AT_data_member_location[DW_OP_plus_uconst 0x0]
    1846                      .dwattr $C$DW$237, DW_AT_accessibility(DW_ACCESS_public)
TMS320C2000 Assembler PC v6.4.2 Thu Dec 14 13:36:50 2017

Tools Copyright (c) 1996-2015 Texas Instruments Incorporated
DRV830x_SPI.asm                                                      PAGE   35

    1847              $C$DW$238       .dwtag  DW_TAG_member
    1848                      .dwattr $C$DW$238, DW_AT_type(*$C$DW$T$147)
    1849                      .dwattr $C$DW$238, DW_AT_name("bit")
    1850                      .dwattr $C$DW$238, DW_AT_TI_symbol_name("_bit")
    1851                      .dwattr $C$DW$238, DW_AT_data_member_location[DW_OP_plus_uconst 0x0]
    1852                      .dwattr $C$DW$238, DW_AT_accessibility(DW_ACCESS_public)
    1853                      .dwendtag $C$DW$T$80
    1854              
    1855              $C$DW$T$43      .dwtag  DW_TAG_typedef, DW_AT_name("DRV8301_STATUS_REG_2")
    1856                      .dwattr $C$DW$T$43, DW_AT_type(*$C$DW$T$80)
    1857                      .dwattr $C$DW$T$43, DW_AT_language(DW_LANG_C)
    1858              
    1859              $C$DW$T$81      .dwtag  DW_TAG_union_type
    1860                      .dwattr $C$DW$T$81, DW_AT_byte_size(0x01)
    1861              $C$DW$239       .dwtag  DW_TAG_member
    1862                      .dwattr $C$DW$239, DW_AT_type(*$C$DW$T$31)
    1863                      .dwattr $C$DW$239, DW_AT_name("all")
    1864                      .dwattr $C$DW$239, DW_AT_TI_symbol_name("_all")
    1865                      .dwattr $C$DW$239, DW_AT_data_member_location[DW_OP_plus_uconst 0x0]
    1866                      .dwattr $C$DW$239, DW_AT_accessibility(DW_ACCESS_public)
    1867              $C$DW$240       .dwtag  DW_TAG_member
    1868                      .dwattr $C$DW$240, DW_AT_type(*$C$DW$T$144)
    1869                      .dwattr $C$DW$240, DW_AT_name("bit")
    1870                      .dwattr $C$DW$240, DW_AT_TI_symbol_name("_bit")
    1871                      .dwattr $C$DW$240, DW_AT_data_member_location[DW_OP_plus_uconst 0x0]
    1872                      .dwattr $C$DW$240, DW_AT_accessibility(DW_ACCESS_public)
    1873                      .dwendtag $C$DW$T$81
    1874              
    1875              $C$DW$T$44      .dwtag  DW_TAG_typedef, DW_AT_name("DRV8301_CONTROL_REG_1")
    1876                      .dwattr $C$DW$T$44, DW_AT_type(*$C$DW$T$81)
    1877                      .dwattr $C$DW$T$44, DW_AT_language(DW_LANG_C)
    1878              
    1879              $C$DW$T$82      .dwtag  DW_TAG_union_type
    1880                      .dwattr $C$DW$T$82, DW_AT_byte_size(0x01)
    1881              $C$DW$241       .dwtag  DW_TAG_member
    1882                      .dwattr $C$DW$241, DW_AT_type(*$C$DW$T$31)
    1883                      .dwattr $C$DW$241, DW_AT_name("all")
    1884                      .dwattr $C$DW$241, DW_AT_TI_symbol_name("_all")
    1885                      .dwattr $C$DW$241, DW_AT_data_member_location[DW_OP_plus_uconst 0x0]
    1886                      .dwattr $C$DW$241, DW_AT_accessibility(DW_ACCESS_public)
    1887              $C$DW$242       .dwtag  DW_TAG_member
    1888                      .dwattr $C$DW$242, DW_AT_type(*$C$DW$T$145)
    1889                      .dwattr $C$DW$242, DW_AT_name("bit")
    1890                      .dwattr $C$DW$242, DW_AT_TI_symbol_name("_bit")
    1891                      .dwattr $C$DW$242, DW_AT_data_member_location[DW_OP_plus_uconst 0x0]
    1892                      .dwattr $C$DW$242, DW_AT_accessibility(DW_ACCESS_public)
    1893                      .dwendtag $C$DW$T$82
    1894              
    1895              $C$DW$T$45      .dwtag  DW_TAG_typedef, DW_AT_name("DRV8301_CONTROL_REG_2")
    1896                      .dwattr $C$DW$T$45, DW_AT_type(*$C$DW$T$82)
    1897                      .dwattr $C$DW$T$45, DW_AT_language(DW_LANG_C)
    1898              
    1899              $C$DW$T$83      .dwtag  DW_TAG_union_type
    1900                      .dwattr $C$DW$T$83, DW_AT_byte_size(0x01)
    1901              $C$DW$243       .dwtag  DW_TAG_member
TMS320C2000 Assembler PC v6.4.2 Thu Dec 14 13:36:50 2017

Tools Copyright (c) 1996-2015 Texas Instruments Incorporated
DRV830x_SPI.asm                                                      PAGE   36

    1902                      .dwattr $C$DW$243, DW_AT_type(*$C$DW$T$31)
    1903                      .dwattr $C$DW$243, DW_AT_name("all")
    1904                      .dwattr $C$DW$243, DW_AT_TI_symbol_name("_all")
    1905                      .dwattr $C$DW$243, DW_AT_data_member_location[DW_OP_plus_uconst 0x0]
    1906                      .dwattr $C$DW$243, DW_AT_accessibility(DW_ACCESS_public)
    1907              $C$DW$244       .dwtag  DW_TAG_member
    1908                      .dwattr $C$DW$244, DW_AT_type(*$C$DW$T$158)
    1909                      .dwattr $C$DW$244, DW_AT_name("bit")
    1910                      .dwattr $C$DW$244, DW_AT_TI_symbol_name("_bit")
    1911                      .dwattr $C$DW$244, DW_AT_data_member_location[DW_OP_plus_uconst 0x0]
    1912                      .dwattr $C$DW$244, DW_AT_accessibility(DW_ACCESS_public)
    1913                      .dwendtag $C$DW$T$83
    1914              
    1915              $C$DW$T$47      .dwtag  DW_TAG_typedef, DW_AT_name("DRV8305_WWD_REG")
    1916                      .dwattr $C$DW$T$47, DW_AT_type(*$C$DW$T$83)
    1917                      .dwattr $C$DW$T$47, DW_AT_language(DW_LANG_C)
    1918              
    1919              $C$DW$T$84      .dwtag  DW_TAG_union_type
    1920                      .dwattr $C$DW$T$84, DW_AT_byte_size(0x01)
    1921              $C$DW$245       .dwtag  DW_TAG_member
    1922                      .dwattr $C$DW$245, DW_AT_type(*$C$DW$T$31)
    1923                      .dwattr $C$DW$245, DW_AT_name("all")
    1924                      .dwattr $C$DW$245, DW_AT_TI_symbol_name("_all")
    1925                      .dwattr $C$DW$245, DW_AT_data_member_location[DW_OP_plus_uconst 0x0]
    1926                      .dwattr $C$DW$245, DW_AT_accessibility(DW_ACCESS_public)
    1927              $C$DW$246       .dwtag  DW_TAG_member
    1928                      .dwattr $C$DW$246, DW_AT_type(*$C$DW$T$154)
    1929                      .dwattr $C$DW$246, DW_AT_name("bit")
    1930                      .dwattr $C$DW$246, DW_AT_TI_symbol_name("_bit")
    1931                      .dwattr $C$DW$246, DW_AT_data_member_location[DW_OP_plus_uconst 0x0]
    1932                      .dwattr $C$DW$246, DW_AT_accessibility(DW_ACCESS_public)
    1933                      .dwendtag $C$DW$T$84
    1934              
    1935              $C$DW$T$48      .dwtag  DW_TAG_typedef, DW_AT_name("DRV8305_OV_VDS_FAULTS_REG")
    1936                      .dwattr $C$DW$T$48, DW_AT_type(*$C$DW$T$84)
    1937                      .dwattr $C$DW$T$48, DW_AT_language(DW_LANG_C)
    1938              
    1939              $C$DW$T$85      .dwtag  DW_TAG_union_type
    1940                      .dwattr $C$DW$T$85, DW_AT_byte_size(0x01)
    1941              $C$DW$247       .dwtag  DW_TAG_member
    1942                      .dwattr $C$DW$247, DW_AT_type(*$C$DW$T$31)
    1943                      .dwattr $C$DW$247, DW_AT_name("all")
    1944                      .dwattr $C$DW$247, DW_AT_TI_symbol_name("_all")
    1945                      .dwattr $C$DW$247, DW_AT_data_member_location[DW_OP_plus_uconst 0x0]
    1946                      .dwattr $C$DW$247, DW_AT_accessibility(DW_ACCESS_public)
    1947              $C$DW$248       .dwtag  DW_TAG_member
    1948                      .dwattr $C$DW$248, DW_AT_type(*$C$DW$T$151)
    1949                      .dwattr $C$DW$248, DW_AT_name("bit")
    1950                      .dwattr $C$DW$248, DW_AT_TI_symbol_name("_bit")
    1951                      .dwattr $C$DW$248, DW_AT_data_member_location[DW_OP_plus_uconst 0x0]
    1952                      .dwattr $C$DW$248, DW_AT_accessibility(DW_ACCESS_public)
    1953                      .dwendtag $C$DW$T$85
    1954              
    1955              $C$DW$T$49      .dwtag  DW_TAG_typedef, DW_AT_name("DRV8305_IC_FAULTS_REG")
    1956                      .dwattr $C$DW$T$49, DW_AT_type(*$C$DW$T$85)
TMS320C2000 Assembler PC v6.4.2 Thu Dec 14 13:36:50 2017

Tools Copyright (c) 1996-2015 Texas Instruments Incorporated
DRV830x_SPI.asm                                                      PAGE   37

    1957                      .dwattr $C$DW$T$49, DW_AT_language(DW_LANG_C)
    1958              
    1959              $C$DW$T$86      .dwtag  DW_TAG_union_type
    1960                      .dwattr $C$DW$T$86, DW_AT_byte_size(0x01)
    1961              $C$DW$249       .dwtag  DW_TAG_member
    1962                      .dwattr $C$DW$249, DW_AT_type(*$C$DW$T$31)
    1963                      .dwattr $C$DW$249, DW_AT_name("all")
    1964                      .dwattr $C$DW$249, DW_AT_TI_symbol_name("_all")
    1965                      .dwattr $C$DW$249, DW_AT_data_member_location[DW_OP_plus_uconst 0x0]
    1966                      .dwattr $C$DW$249, DW_AT_accessibility(DW_ACCESS_public)
    1967              $C$DW$250       .dwtag  DW_TAG_member
    1968                      .dwattr $C$DW$250, DW_AT_type(*$C$DW$T$149)
    1969                      .dwattr $C$DW$250, DW_AT_name("bit")
    1970                      .dwattr $C$DW$250, DW_AT_TI_symbol_name("_bit")
    1971                      .dwattr $C$DW$250, DW_AT_data_member_location[DW_OP_plus_uconst 0x0]
    1972                      .dwattr $C$DW$250, DW_AT_accessibility(DW_ACCESS_public)
    1973                      .dwendtag $C$DW$T$86
    1974              
    1975              $C$DW$T$50      .dwtag  DW_TAG_typedef, DW_AT_name("DRV8305_GD_VGS_FAULTS_REG")
    1976                      .dwattr $C$DW$T$50, DW_AT_type(*$C$DW$T$86)
    1977                      .dwattr $C$DW$T$50, DW_AT_language(DW_LANG_C)
    1978              
    1979              $C$DW$T$87      .dwtag  DW_TAG_union_type
    1980                      .dwattr $C$DW$T$87, DW_AT_byte_size(0x01)
    1981              $C$DW$251       .dwtag  DW_TAG_member
    1982                      .dwattr $C$DW$251, DW_AT_type(*$C$DW$T$31)
    1983                      .dwattr $C$DW$251, DW_AT_name("all")
    1984                      .dwattr $C$DW$251, DW_AT_TI_symbol_name("_all")
    1985                      .dwattr $C$DW$251, DW_AT_data_member_location[DW_OP_plus_uconst 0x0]
    1986                      .dwattr $C$DW$251, DW_AT_accessibility(DW_ACCESS_public)
    1987              $C$DW$252       .dwtag  DW_TAG_member
    1988                      .dwattr $C$DW$252, DW_AT_type(*$C$DW$T$150)
    1989                      .dwattr $C$DW$252, DW_AT_name("bit")
    1990                      .dwattr $C$DW$252, DW_AT_TI_symbol_name("_bit")
    1991                      .dwattr $C$DW$252, DW_AT_data_member_location[DW_OP_plus_uconst 0x0]
    1992                      .dwattr $C$DW$252, DW_AT_accessibility(DW_ACCESS_public)
    1993                      .dwendtag $C$DW$T$87
    1994              
    1995              $C$DW$T$51      .dwtag  DW_TAG_typedef, DW_AT_name("DRV8305_HS_GATE_DRIVER_CNTRL_REG")
    1996                      .dwattr $C$DW$T$51, DW_AT_type(*$C$DW$T$87)
    1997                      .dwattr $C$DW$T$51, DW_AT_language(DW_LANG_C)
    1998              
    1999              $C$DW$T$88      .dwtag  DW_TAG_union_type
    2000                      .dwattr $C$DW$T$88, DW_AT_byte_size(0x01)
    2001              $C$DW$253       .dwtag  DW_TAG_member
    2002                      .dwattr $C$DW$253, DW_AT_type(*$C$DW$T$31)
    2003                      .dwattr $C$DW$253, DW_AT_name("all")
    2004                      .dwattr $C$DW$253, DW_AT_TI_symbol_name("_all")
    2005                      .dwattr $C$DW$253, DW_AT_data_member_location[DW_OP_plus_uconst 0x0]
    2006                      .dwattr $C$DW$253, DW_AT_accessibility(DW_ACCESS_public)
    2007              $C$DW$254       .dwtag  DW_TAG_member
    2008                      .dwattr $C$DW$254, DW_AT_type(*$C$DW$T$153)
    2009                      .dwattr $C$DW$254, DW_AT_name("bit")
    2010                      .dwattr $C$DW$254, DW_AT_TI_symbol_name("_bit")
    2011                      .dwattr $C$DW$254, DW_AT_data_member_location[DW_OP_plus_uconst 0x0]
TMS320C2000 Assembler PC v6.4.2 Thu Dec 14 13:36:50 2017

Tools Copyright (c) 1996-2015 Texas Instruments Incorporated
DRV830x_SPI.asm                                                      PAGE   38

    2012                      .dwattr $C$DW$254, DW_AT_accessibility(DW_ACCESS_public)
    2013                      .dwendtag $C$DW$T$88
    2014              
    2015              $C$DW$T$52      .dwtag  DW_TAG_typedef, DW_AT_name("DRV8305_LS_GATE_DRIVER_CNTRL_REG")
    2016                      .dwattr $C$DW$T$52, DW_AT_type(*$C$DW$T$88)
    2017                      .dwattr $C$DW$T$52, DW_AT_language(DW_LANG_C)
    2018              
    2019              $C$DW$T$89      .dwtag  DW_TAG_union_type
    2020                      .dwattr $C$DW$T$89, DW_AT_byte_size(0x01)
    2021              $C$DW$255       .dwtag  DW_TAG_member
    2022                      .dwattr $C$DW$255, DW_AT_type(*$C$DW$T$31)
    2023                      .dwattr $C$DW$255, DW_AT_name("all")
    2024                      .dwattr $C$DW$255, DW_AT_TI_symbol_name("_all")
    2025                      .dwattr $C$DW$255, DW_AT_data_member_location[DW_OP_plus_uconst 0x0]
    2026                      .dwattr $C$DW$255, DW_AT_accessibility(DW_ACCESS_public)
    2027              $C$DW$256       .dwtag  DW_TAG_member
    2028                      .dwattr $C$DW$256, DW_AT_type(*$C$DW$T$148)
    2029                      .dwattr $C$DW$256, DW_AT_name("bit")
    2030                      .dwattr $C$DW$256, DW_AT_TI_symbol_name("_bit")
    2031                      .dwattr $C$DW$256, DW_AT_data_member_location[DW_OP_plus_uconst 0x0]
    2032                      .dwattr $C$DW$256, DW_AT_accessibility(DW_ACCESS_public)
    2033                      .dwendtag $C$DW$T$89
    2034              
    2035              $C$DW$T$53      .dwtag  DW_TAG_typedef, DW_AT_name("DRV8305_GD_CNTRL_REG")
    2036                      .dwattr $C$DW$T$53, DW_AT_type(*$C$DW$T$89)
    2037                      .dwattr $C$DW$T$53, DW_AT_language(DW_LANG_C)
    2038              
    2039              $C$DW$T$90      .dwtag  DW_TAG_union_type
    2040                      .dwattr $C$DW$T$90, DW_AT_byte_size(0x01)
    2041              $C$DW$257       .dwtag  DW_TAG_member
    2042                      .dwattr $C$DW$257, DW_AT_type(*$C$DW$T$31)
    2043                      .dwattr $C$DW$257, DW_AT_name("all")
    2044                      .dwattr $C$DW$257, DW_AT_TI_symbol_name("_all")
    2045                      .dwattr $C$DW$257, DW_AT_data_member_location[DW_OP_plus_uconst 0x0]
    2046                      .dwattr $C$DW$257, DW_AT_accessibility(DW_ACCESS_public)
    2047              $C$DW$258       .dwtag  DW_TAG_member
    2048                      .dwattr $C$DW$258, DW_AT_type(*$C$DW$T$152)
    2049                      .dwattr $C$DW$258, DW_AT_name("bit")
    2050                      .dwattr $C$DW$258, DW_AT_TI_symbol_name("_bit")
    2051                      .dwattr $C$DW$258, DW_AT_data_member_location[DW_OP_plus_uconst 0x0]
    2052                      .dwattr $C$DW$258, DW_AT_accessibility(DW_ACCESS_public)
    2053                      .dwendtag $C$DW$T$90
    2054              
    2055              $C$DW$T$54      .dwtag  DW_TAG_typedef, DW_AT_name("DRV8305_IC_OPS_REG")
    2056                      .dwattr $C$DW$T$54, DW_AT_type(*$C$DW$T$90)
    2057                      .dwattr $C$DW$T$54, DW_AT_language(DW_LANG_C)
    2058              
    2059              $C$DW$T$91      .dwtag  DW_TAG_union_type
    2060                      .dwattr $C$DW$T$91, DW_AT_byte_size(0x01)
    2061              $C$DW$259       .dwtag  DW_TAG_member
    2062                      .dwattr $C$DW$259, DW_AT_type(*$C$DW$T$31)
    2063                      .dwattr $C$DW$259, DW_AT_name("all")
    2064                      .dwattr $C$DW$259, DW_AT_TI_symbol_name("_all")
    2065                      .dwattr $C$DW$259, DW_AT_data_member_location[DW_OP_plus_uconst 0x0]
    2066                      .dwattr $C$DW$259, DW_AT_accessibility(DW_ACCESS_public)
TMS320C2000 Assembler PC v6.4.2 Thu Dec 14 13:36:50 2017

Tools Copyright (c) 1996-2015 Texas Instruments Incorporated
DRV830x_SPI.asm                                                      PAGE   39

    2067              $C$DW$260       .dwtag  DW_TAG_member
    2068                      .dwattr $C$DW$260, DW_AT_type(*$C$DW$T$155)
    2069                      .dwattr $C$DW$260, DW_AT_name("bit")
    2070                      .dwattr $C$DW$260, DW_AT_TI_symbol_name("_bit")
    2071                      .dwattr $C$DW$260, DW_AT_data_member_location[DW_OP_plus_uconst 0x0]
    2072                      .dwattr $C$DW$260, DW_AT_accessibility(DW_ACCESS_public)
    2073                      .dwendtag $C$DW$T$91
    2074              
    2075              $C$DW$T$55      .dwtag  DW_TAG_typedef, DW_AT_name("DRV8305_SHUNT_AMP_CNTRL_REG")
    2076                      .dwattr $C$DW$T$55, DW_AT_type(*$C$DW$T$91)
    2077                      .dwattr $C$DW$T$55, DW_AT_language(DW_LANG_C)
    2078              
    2079              $C$DW$T$92      .dwtag  DW_TAG_union_type
    2080                      .dwattr $C$DW$T$92, DW_AT_byte_size(0x01)
    2081              $C$DW$261       .dwtag  DW_TAG_member
    2082                      .dwattr $C$DW$261, DW_AT_type(*$C$DW$T$31)
    2083                      .dwattr $C$DW$261, DW_AT_name("all")
    2084                      .dwattr $C$DW$261, DW_AT_TI_symbol_name("_all")
    2085                      .dwattr $C$DW$261, DW_AT_data_member_location[DW_OP_plus_uconst 0x0]
    2086                      .dwattr $C$DW$261, DW_AT_accessibility(DW_ACCESS_public)
    2087              $C$DW$262       .dwtag  DW_TAG_member
    2088                      .dwattr $C$DW$262, DW_AT_type(*$C$DW$T$157)
    2089                      .dwattr $C$DW$262, DW_AT_name("bit")
    2090                      .dwattr $C$DW$262, DW_AT_TI_symbol_name("_bit")
    2091                      .dwattr $C$DW$262, DW_AT_data_member_location[DW_OP_plus_uconst 0x0]
    2092                      .dwattr $C$DW$262, DW_AT_accessibility(DW_ACCESS_public)
    2093                      .dwendtag $C$DW$T$92
    2094              
    2095              $C$DW$T$56      .dwtag  DW_TAG_typedef, DW_AT_name("DRV8305_VREG_CNTRL_REG")
    2096                      .dwattr $C$DW$T$56, DW_AT_type(*$C$DW$T$92)
    2097                      .dwattr $C$DW$T$56, DW_AT_language(DW_LANG_C)
    2098              
    2099              $C$DW$T$93      .dwtag  DW_TAG_union_type
    2100                      .dwattr $C$DW$T$93, DW_AT_byte_size(0x01)
    2101              $C$DW$263       .dwtag  DW_TAG_member
    2102                      .dwattr $C$DW$263, DW_AT_type(*$C$DW$T$31)
    2103                      .dwattr $C$DW$263, DW_AT_name("all")
    2104                      .dwattr $C$DW$263, DW_AT_TI_symbol_name("_all")
    2105                      .dwattr $C$DW$263, DW_AT_data_member_location[DW_OP_plus_uconst 0x0]
    2106                      .dwattr $C$DW$263, DW_AT_accessibility(DW_ACCESS_public)
    2107              $C$DW$264       .dwtag  DW_TAG_member
    2108                      .dwattr $C$DW$264, DW_AT_type(*$C$DW$T$156)
    2109                      .dwattr $C$DW$264, DW_AT_name("bit")
    2110                      .dwattr $C$DW$264, DW_AT_TI_symbol_name("_bit")
    2111                      .dwattr $C$DW$264, DW_AT_data_member_location[DW_OP_plus_uconst 0x0]
    2112                      .dwattr $C$DW$264, DW_AT_accessibility(DW_ACCESS_public)
    2113                      .dwendtag $C$DW$T$93
    2114              
    2115              $C$DW$T$57      .dwtag  DW_TAG_typedef, DW_AT_name("DRV8305_VDS_SNS_CNTRL_REG")
    2116                      .dwattr $C$DW$T$57, DW_AT_type(*$C$DW$T$93)
    2117                      .dwattr $C$DW$T$57, DW_AT_language(DW_LANG_C)
    2118              
    2119              $C$DW$T$94      .dwtag  DW_TAG_structure_type
    2120                      .dwattr $C$DW$T$94, DW_AT_name("AQCSFRC_BITS")
    2121                      .dwattr $C$DW$T$94, DW_AT_byte_size(0x01)
TMS320C2000 Assembler PC v6.4.2 Thu Dec 14 13:36:50 2017

Tools Copyright (c) 1996-2015 Texas Instruments Incorporated
DRV830x_SPI.asm                                                      PAGE   40

    2122              $C$DW$265       .dwtag  DW_TAG_member
    2123                      .dwattr $C$DW$265, DW_AT_type(*$C$DW$T$31)
    2124                      .dwattr $C$DW$265, DW_AT_name("CSFA")
    2125                      .dwattr $C$DW$265, DW_AT_TI_symbol_name("_CSFA")
    2126                      .dwattr $C$DW$265, DW_AT_bit_offset(0x0e), DW_AT_bit_size(0x02)
    2127                      .dwattr $C$DW$265, DW_AT_data_member_location[DW_OP_plus_uconst 0x0]
    2128                      .dwattr $C$DW$265, DW_AT_accessibility(DW_ACCESS_public)
    2129              $C$DW$266       .dwtag  DW_TAG_member
    2130                      .dwattr $C$DW$266, DW_AT_type(*$C$DW$T$31)
    2131                      .dwattr $C$DW$266, DW_AT_name("CSFB")
    2132                      .dwattr $C$DW$266, DW_AT_TI_symbol_name("_CSFB")
    2133                      .dwattr $C$DW$266, DW_AT_bit_offset(0x0c), DW_AT_bit_size(0x02)
    2134                      .dwattr $C$DW$266, DW_AT_data_member_location[DW_OP_plus_uconst 0x0]
    2135                      .dwattr $C$DW$266, DW_AT_accessibility(DW_ACCESS_public)
    2136              $C$DW$267       .dwtag  DW_TAG_member
    2137                      .dwattr $C$DW$267, DW_AT_type(*$C$DW$T$31)
    2138                      .dwattr $C$DW$267, DW_AT_name("rsvd1")
    2139                      .dwattr $C$DW$267, DW_AT_TI_symbol_name("_rsvd1")
    2140                      .dwattr $C$DW$267, DW_AT_bit_offset(0x00), DW_AT_bit_size(0x0c)
    2141                      .dwattr $C$DW$267, DW_AT_data_member_location[DW_OP_plus_uconst 0x0]
    2142                      .dwattr $C$DW$267, DW_AT_accessibility(DW_ACCESS_public)
    2143                      .dwendtag $C$DW$T$94
    2144              
    2145              
    2146              $C$DW$T$95      .dwtag  DW_TAG_union_type
    2147                      .dwattr $C$DW$T$95, DW_AT_name("AQCSFRC_REG")
    2148                      .dwattr $C$DW$T$95, DW_AT_byte_size(0x01)
    2149              $C$DW$268       .dwtag  DW_TAG_member
    2150                      .dwattr $C$DW$268, DW_AT_type(*$C$DW$T$31)
    2151                      .dwattr $C$DW$268, DW_AT_name("all")
    2152                      .dwattr $C$DW$268, DW_AT_TI_symbol_name("_all")
    2153                      .dwattr $C$DW$268, DW_AT_data_member_location[DW_OP_plus_uconst 0x0]
    2154                      .dwattr $C$DW$268, DW_AT_accessibility(DW_ACCESS_public)
    2155              $C$DW$269       .dwtag  DW_TAG_member
    2156                      .dwattr $C$DW$269, DW_AT_type(*$C$DW$T$94)
    2157                      .dwattr $C$DW$269, DW_AT_name("bit")
    2158                      .dwattr $C$DW$269, DW_AT_TI_symbol_name("_bit")
    2159                      .dwattr $C$DW$269, DW_AT_data_member_location[DW_OP_plus_uconst 0x0]
    2160                      .dwattr $C$DW$269, DW_AT_accessibility(DW_ACCESS_public)
    2161                      .dwendtag $C$DW$T$95
    2162              
    2163              
    2164              $C$DW$T$96      .dwtag  DW_TAG_structure_type
    2165                      .dwattr $C$DW$T$96, DW_AT_name("AQCTLA2_BITS")
    2166                      .dwattr $C$DW$T$96, DW_AT_byte_size(0x01)
    2167              $C$DW$270       .dwtag  DW_TAG_member
    2168                      .dwattr $C$DW$270, DW_AT_type(*$C$DW$T$31)
    2169                      .dwattr $C$DW$270, DW_AT_name("T1U")
    2170                      .dwattr $C$DW$270, DW_AT_TI_symbol_name("_T1U")
    2171                      .dwattr $C$DW$270, DW_AT_bit_offset(0x0e), DW_AT_bit_size(0x02)
    2172                      .dwattr $C$DW$270, DW_AT_data_member_location[DW_OP_plus_uconst 0x0]
    2173                      .dwattr $C$DW$270, DW_AT_accessibility(DW_ACCESS_public)
    2174              $C$DW$271       .dwtag  DW_TAG_member
    2175                      .dwattr $C$DW$271, DW_AT_type(*$C$DW$T$31)
    2176                      .dwattr $C$DW$271, DW_AT_name("T1D")
TMS320C2000 Assembler PC v6.4.2 Thu Dec 14 13:36:50 2017

Tools Copyright (c) 1996-2015 Texas Instruments Incorporated
DRV830x_SPI.asm                                                      PAGE   41

    2177                      .dwattr $C$DW$271, DW_AT_TI_symbol_name("_T1D")
    2178                      .dwattr $C$DW$271, DW_AT_bit_offset(0x0c), DW_AT_bit_size(0x02)
    2179                      .dwattr $C$DW$271, DW_AT_data_member_location[DW_OP_plus_uconst 0x0]
    2180                      .dwattr $C$DW$271, DW_AT_accessibility(DW_ACCESS_public)
    2181              $C$DW$272       .dwtag  DW_TAG_member
    2182                      .dwattr $C$DW$272, DW_AT_type(*$C$DW$T$31)
    2183                      .dwattr $C$DW$272, DW_AT_name("T2U")
    2184                      .dwattr $C$DW$272, DW_AT_TI_symbol_name("_T2U")
    2185                      .dwattr $C$DW$272, DW_AT_bit_offset(0x0a), DW_AT_bit_size(0x02)
    2186                      .dwattr $C$DW$272, DW_AT_data_member_location[DW_OP_plus_uconst 0x0]
    2187                      .dwattr $C$DW$272, DW_AT_accessibility(DW_ACCESS_public)
    2188              $C$DW$273       .dwtag  DW_TAG_member
    2189                      .dwattr $C$DW$273, DW_AT_type(*$C$DW$T$31)
    2190                      .dwattr $C$DW$273, DW_AT_name("T2D")
    2191                      .dwattr $C$DW$273, DW_AT_TI_symbol_name("_T2D")
    2192                      .dwattr $C$DW$273, DW_AT_bit_offset(0x08), DW_AT_bit_size(0x02)
    2193                      .dwattr $C$DW$273, DW_AT_data_member_location[DW_OP_plus_uconst 0x0]
    2194                      .dwattr $C$DW$273, DW_AT_accessibility(DW_ACCESS_public)
    2195              $C$DW$274       .dwtag  DW_TAG_member
    2196                      .dwattr $C$DW$274, DW_AT_type(*$C$DW$T$31)
    2197                      .dwattr $C$DW$274, DW_AT_name("rsvd1")
    2198                      .dwattr $C$DW$274, DW_AT_TI_symbol_name("_rsvd1")
    2199                      .dwattr $C$DW$274, DW_AT_bit_offset(0x00), DW_AT_bit_size(0x08)
    2200                      .dwattr $C$DW$274, DW_AT_data_member_location[DW_OP_plus_uconst 0x0]
    2201                      .dwattr $C$DW$274, DW_AT_accessibility(DW_ACCESS_public)
    2202                      .dwendtag $C$DW$T$96
    2203              
    2204              
    2205              $C$DW$T$97      .dwtag  DW_TAG_union_type
    2206                      .dwattr $C$DW$T$97, DW_AT_name("AQCTLA2_REG")
    2207                      .dwattr $C$DW$T$97, DW_AT_byte_size(0x01)
    2208              $C$DW$275       .dwtag  DW_TAG_member
    2209                      .dwattr $C$DW$275, DW_AT_type(*$C$DW$T$31)
    2210                      .dwattr $C$DW$275, DW_AT_name("all")
    2211                      .dwattr $C$DW$275, DW_AT_TI_symbol_name("_all")
    2212                      .dwattr $C$DW$275, DW_AT_data_member_location[DW_OP_plus_uconst 0x0]
    2213                      .dwattr $C$DW$275, DW_AT_accessibility(DW_ACCESS_public)
    2214              $C$DW$276       .dwtag  DW_TAG_member
    2215                      .dwattr $C$DW$276, DW_AT_type(*$C$DW$T$96)
    2216                      .dwattr $C$DW$276, DW_AT_name("bit")
    2217                      .dwattr $C$DW$276, DW_AT_TI_symbol_name("_bit")
    2218                      .dwattr $C$DW$276, DW_AT_data_member_location[DW_OP_plus_uconst 0x0]
    2219                      .dwattr $C$DW$276, DW_AT_accessibility(DW_ACCESS_public)
    2220                      .dwendtag $C$DW$T$97
    2221              
    2222              
    2223              $C$DW$T$98      .dwtag  DW_TAG_structure_type
    2224                      .dwattr $C$DW$T$98, DW_AT_name("AQCTLA_BITS")
    2225                      .dwattr $C$DW$T$98, DW_AT_byte_size(0x01)
    2226              $C$DW$277       .dwtag  DW_TAG_member
    2227                      .dwattr $C$DW$277, DW_AT_type(*$C$DW$T$31)
    2228                      .dwattr $C$DW$277, DW_AT_name("ZRO")
    2229                      .dwattr $C$DW$277, DW_AT_TI_symbol_name("_ZRO")
    2230                      .dwattr $C$DW$277, DW_AT_bit_offset(0x0e), DW_AT_bit_size(0x02)
    2231                      .dwattr $C$DW$277, DW_AT_data_member_location[DW_OP_plus_uconst 0x0]
TMS320C2000 Assembler PC v6.4.2 Thu Dec 14 13:36:50 2017

Tools Copyright (c) 1996-2015 Texas Instruments Incorporated
DRV830x_SPI.asm                                                      PAGE   42

    2232                      .dwattr $C$DW$277, DW_AT_accessibility(DW_ACCESS_public)
    2233              $C$DW$278       .dwtag  DW_TAG_member
    2234                      .dwattr $C$DW$278, DW_AT_type(*$C$DW$T$31)
    2235                      .dwattr $C$DW$278, DW_AT_name("PRD")
    2236                      .dwattr $C$DW$278, DW_AT_TI_symbol_name("_PRD")
    2237                      .dwattr $C$DW$278, DW_AT_bit_offset(0x0c), DW_AT_bit_size(0x02)
    2238                      .dwattr $C$DW$278, DW_AT_data_member_location[DW_OP_plus_uconst 0x0]
    2239                      .dwattr $C$DW$278, DW_AT_accessibility(DW_ACCESS_public)
    2240              $C$DW$279       .dwtag  DW_TAG_member
    2241                      .dwattr $C$DW$279, DW_AT_type(*$C$DW$T$31)
    2242                      .dwattr $C$DW$279, DW_AT_name("CAU")
    2243                      .dwattr $C$DW$279, DW_AT_TI_symbol_name("_CAU")
    2244                      .dwattr $C$DW$279, DW_AT_bit_offset(0x0a), DW_AT_bit_size(0x02)
    2245                      .dwattr $C$DW$279, DW_AT_data_member_location[DW_OP_plus_uconst 0x0]
    2246                      .dwattr $C$DW$279, DW_AT_accessibility(DW_ACCESS_public)
    2247              $C$DW$280       .dwtag  DW_TAG_member
    2248                      .dwattr $C$DW$280, DW_AT_type(*$C$DW$T$31)
    2249                      .dwattr $C$DW$280, DW_AT_name("CAD")
    2250                      .dwattr $C$DW$280, DW_AT_TI_symbol_name("_CAD")
    2251                      .dwattr $C$DW$280, DW_AT_bit_offset(0x08), DW_AT_bit_size(0x02)
    2252                      .dwattr $C$DW$280, DW_AT_data_member_location[DW_OP_plus_uconst 0x0]
    2253                      .dwattr $C$DW$280, DW_AT_accessibility(DW_ACCESS_public)
    2254              $C$DW$281       .dwtag  DW_TAG_member
    2255                      .dwattr $C$DW$281, DW_AT_type(*$C$DW$T$31)
    2256                      .dwattr $C$DW$281, DW_AT_name("CBU")
    2257                      .dwattr $C$DW$281, DW_AT_TI_symbol_name("_CBU")
    2258                      .dwattr $C$DW$281, DW_AT_bit_offset(0x06), DW_AT_bit_size(0x02)
    2259                      .dwattr $C$DW$281, DW_AT_data_member_location[DW_OP_plus_uconst 0x0]
    2260                      .dwattr $C$DW$281, DW_AT_accessibility(DW_ACCESS_public)
    2261              $C$DW$282       .dwtag  DW_TAG_member
    2262                      .dwattr $C$DW$282, DW_AT_type(*$C$DW$T$31)
    2263                      .dwattr $C$DW$282, DW_AT_name("CBD")
    2264                      .dwattr $C$DW$282, DW_AT_TI_symbol_name("_CBD")
    2265                      .dwattr $C$DW$282, DW_AT_bit_offset(0x04), DW_AT_bit_size(0x02)
    2266                      .dwattr $C$DW$282, DW_AT_data_member_location[DW_OP_plus_uconst 0x0]
    2267                      .dwattr $C$DW$282, DW_AT_accessibility(DW_ACCESS_public)
    2268              $C$DW$283       .dwtag  DW_TAG_member
    2269                      .dwattr $C$DW$283, DW_AT_type(*$C$DW$T$31)
    2270                      .dwattr $C$DW$283, DW_AT_name("rsvd1")
    2271                      .dwattr $C$DW$283, DW_AT_TI_symbol_name("_rsvd1")
    2272                      .dwattr $C$DW$283, DW_AT_bit_offset(0x00), DW_AT_bit_size(0x04)
    2273                      .dwattr $C$DW$283, DW_AT_data_member_location[DW_OP_plus_uconst 0x0]
    2274                      .dwattr $C$DW$283, DW_AT_accessibility(DW_ACCESS_public)
    2275                      .dwendtag $C$DW$T$98
    2276              
    2277              
    2278              $C$DW$T$99      .dwtag  DW_TAG_union_type
    2279                      .dwattr $C$DW$T$99, DW_AT_name("AQCTLA_REG")
    2280                      .dwattr $C$DW$T$99, DW_AT_byte_size(0x01)
    2281              $C$DW$284       .dwtag  DW_TAG_member
    2282                      .dwattr $C$DW$284, DW_AT_type(*$C$DW$T$31)
    2283                      .dwattr $C$DW$284, DW_AT_name("all")
    2284                      .dwattr $C$DW$284, DW_AT_TI_symbol_name("_all")
    2285                      .dwattr $C$DW$284, DW_AT_data_member_location[DW_OP_plus_uconst 0x0]
    2286                      .dwattr $C$DW$284, DW_AT_accessibility(DW_ACCESS_public)
TMS320C2000 Assembler PC v6.4.2 Thu Dec 14 13:36:50 2017

Tools Copyright (c) 1996-2015 Texas Instruments Incorporated
DRV830x_SPI.asm                                                      PAGE   43

    2287              $C$DW$285       .dwtag  DW_TAG_member
    2288                      .dwattr $C$DW$285, DW_AT_type(*$C$DW$T$98)
    2289                      .dwattr $C$DW$285, DW_AT_name("bit")
    2290                      .dwattr $C$DW$285, DW_AT_TI_symbol_name("_bit")
    2291                      .dwattr $C$DW$285, DW_AT_data_member_location[DW_OP_plus_uconst 0x0]
    2292                      .dwattr $C$DW$285, DW_AT_accessibility(DW_ACCESS_public)
    2293                      .dwendtag $C$DW$T$99
    2294              
    2295              
    2296              $C$DW$T$100     .dwtag  DW_TAG_structure_type
    2297                      .dwattr $C$DW$T$100, DW_AT_name("AQCTLB2_BITS")
    2298                      .dwattr $C$DW$T$100, DW_AT_byte_size(0x01)
    2299              $C$DW$286       .dwtag  DW_TAG_member
    2300                      .dwattr $C$DW$286, DW_AT_type(*$C$DW$T$31)
    2301                      .dwattr $C$DW$286, DW_AT_name("T1U")
    2302                      .dwattr $C$DW$286, DW_AT_TI_symbol_name("_T1U")
    2303                      .dwattr $C$DW$286, DW_AT_bit_offset(0x0e), DW_AT_bit_size(0x02)
    2304                      .dwattr $C$DW$286, DW_AT_data_member_location[DW_OP_plus_uconst 0x0]
    2305                      .dwattr $C$DW$286, DW_AT_accessibility(DW_ACCESS_public)
    2306              $C$DW$287       .dwtag  DW_TAG_member
    2307                      .dwattr $C$DW$287, DW_AT_type(*$C$DW$T$31)
    2308                      .dwattr $C$DW$287, DW_AT_name("T1D")
    2309                      .dwattr $C$DW$287, DW_AT_TI_symbol_name("_T1D")
    2310                      .dwattr $C$DW$287, DW_AT_bit_offset(0x0c), DW_AT_bit_size(0x02)
    2311                      .dwattr $C$DW$287, DW_AT_data_member_location[DW_OP_plus_uconst 0x0]
    2312                      .dwattr $C$DW$287, DW_AT_accessibility(DW_ACCESS_public)
    2313              $C$DW$288       .dwtag  DW_TAG_member
    2314                      .dwattr $C$DW$288, DW_AT_type(*$C$DW$T$31)
    2315                      .dwattr $C$DW$288, DW_AT_name("T2U")
    2316                      .dwattr $C$DW$288, DW_AT_TI_symbol_name("_T2U")
    2317                      .dwattr $C$DW$288, DW_AT_bit_offset(0x0a), DW_AT_bit_size(0x02)
    2318                      .dwattr $C$DW$288, DW_AT_data_member_location[DW_OP_plus_uconst 0x0]
    2319                      .dwattr $C$DW$288, DW_AT_accessibility(DW_ACCESS_public)
    2320              $C$DW$289       .dwtag  DW_TAG_member
    2321                      .dwattr $C$DW$289, DW_AT_type(*$C$DW$T$31)
    2322                      .dwattr $C$DW$289, DW_AT_name("T2D")
    2323                      .dwattr $C$DW$289, DW_AT_TI_symbol_name("_T2D")
    2324                      .dwattr $C$DW$289, DW_AT_bit_offset(0x08), DW_AT_bit_size(0x02)
    2325                      .dwattr $C$DW$289, DW_AT_data_member_location[DW_OP_plus_uconst 0x0]
    2326                      .dwattr $C$DW$289, DW_AT_accessibility(DW_ACCESS_public)
    2327              $C$DW$290       .dwtag  DW_TAG_member
    2328                      .dwattr $C$DW$290, DW_AT_type(*$C$DW$T$31)
    2329                      .dwattr $C$DW$290, DW_AT_name("rsvd1")
    2330                      .dwattr $C$DW$290, DW_AT_TI_symbol_name("_rsvd1")
    2331                      .dwattr $C$DW$290, DW_AT_bit_offset(0x00), DW_AT_bit_size(0x08)
    2332                      .dwattr $C$DW$290, DW_AT_data_member_location[DW_OP_plus_uconst 0x0]
    2333                      .dwattr $C$DW$290, DW_AT_accessibility(DW_ACCESS_public)
    2334                      .dwendtag $C$DW$T$100
    2335              
    2336              
    2337              $C$DW$T$101     .dwtag  DW_TAG_union_type
    2338                      .dwattr $C$DW$T$101, DW_AT_name("AQCTLB2_REG")
    2339                      .dwattr $C$DW$T$101, DW_AT_byte_size(0x01)
    2340              $C$DW$291       .dwtag  DW_TAG_member
    2341                      .dwattr $C$DW$291, DW_AT_type(*$C$DW$T$31)
TMS320C2000 Assembler PC v6.4.2 Thu Dec 14 13:36:50 2017

Tools Copyright (c) 1996-2015 Texas Instruments Incorporated
DRV830x_SPI.asm                                                      PAGE   44

    2342                      .dwattr $C$DW$291, DW_AT_name("all")
    2343                      .dwattr $C$DW$291, DW_AT_TI_symbol_name("_all")
    2344                      .dwattr $C$DW$291, DW_AT_data_member_location[DW_OP_plus_uconst 0x0]
    2345                      .dwattr $C$DW$291, DW_AT_accessibility(DW_ACCESS_public)
    2346              $C$DW$292       .dwtag  DW_TAG_member
    2347                      .dwattr $C$DW$292, DW_AT_type(*$C$DW$T$100)
    2348                      .dwattr $C$DW$292, DW_AT_name("bit")
    2349                      .dwattr $C$DW$292, DW_AT_TI_symbol_name("_bit")
    2350                      .dwattr $C$DW$292, DW_AT_data_member_location[DW_OP_plus_uconst 0x0]
    2351                      .dwattr $C$DW$292, DW_AT_accessibility(DW_ACCESS_public)
    2352                      .dwendtag $C$DW$T$101
    2353              
    2354              
    2355              $C$DW$T$102     .dwtag  DW_TAG_structure_type
    2356                      .dwattr $C$DW$T$102, DW_AT_name("AQCTLB_BITS")
    2357                      .dwattr $C$DW$T$102, DW_AT_byte_size(0x01)
    2358              $C$DW$293       .dwtag  DW_TAG_member
    2359                      .dwattr $C$DW$293, DW_AT_type(*$C$DW$T$31)
    2360                      .dwattr $C$DW$293, DW_AT_name("ZRO")
    2361                      .dwattr $C$DW$293, DW_AT_TI_symbol_name("_ZRO")
    2362                      .dwattr $C$DW$293, DW_AT_bit_offset(0x0e), DW_AT_bit_size(0x02)
    2363                      .dwattr $C$DW$293, DW_AT_data_member_location[DW_OP_plus_uconst 0x0]
    2364                      .dwattr $C$DW$293, DW_AT_accessibility(DW_ACCESS_public)
    2365              $C$DW$294       .dwtag  DW_TAG_member
    2366                      .dwattr $C$DW$294, DW_AT_type(*$C$DW$T$31)
    2367                      .dwattr $C$DW$294, DW_AT_name("PRD")
    2368                      .dwattr $C$DW$294, DW_AT_TI_symbol_name("_PRD")
    2369                      .dwattr $C$DW$294, DW_AT_bit_offset(0x0c), DW_AT_bit_size(0x02)
    2370                      .dwattr $C$DW$294, DW_AT_data_member_location[DW_OP_plus_uconst 0x0]
    2371                      .dwattr $C$DW$294, DW_AT_accessibility(DW_ACCESS_public)
    2372              $C$DW$295       .dwtag  DW_TAG_member
    2373                      .dwattr $C$DW$295, DW_AT_type(*$C$DW$T$31)
    2374                      .dwattr $C$DW$295, DW_AT_name("CAU")
    2375                      .dwattr $C$DW$295, DW_AT_TI_symbol_name("_CAU")
    2376                      .dwattr $C$DW$295, DW_AT_bit_offset(0x0a), DW_AT_bit_size(0x02)
    2377                      .dwattr $C$DW$295, DW_AT_data_member_location[DW_OP_plus_uconst 0x0]
    2378                      .dwattr $C$DW$295, DW_AT_accessibility(DW_ACCESS_public)
    2379              $C$DW$296       .dwtag  DW_TAG_member
    2380                      .dwattr $C$DW$296, DW_AT_type(*$C$DW$T$31)
    2381                      .dwattr $C$DW$296, DW_AT_name("CAD")
    2382                      .dwattr $C$DW$296, DW_AT_TI_symbol_name("_CAD")
    2383                      .dwattr $C$DW$296, DW_AT_bit_offset(0x08), DW_AT_bit_size(0x02)
    2384                      .dwattr $C$DW$296, DW_AT_data_member_location[DW_OP_plus_uconst 0x0]
    2385                      .dwattr $C$DW$296, DW_AT_accessibility(DW_ACCESS_public)
    2386              $C$DW$297       .dwtag  DW_TAG_member
    2387                      .dwattr $C$DW$297, DW_AT_type(*$C$DW$T$31)
    2388                      .dwattr $C$DW$297, DW_AT_name("CBU")
    2389                      .dwattr $C$DW$297, DW_AT_TI_symbol_name("_CBU")
    2390                      .dwattr $C$DW$297, DW_AT_bit_offset(0x06), DW_AT_bit_size(0x02)
    2391                      .dwattr $C$DW$297, DW_AT_data_member_location[DW_OP_plus_uconst 0x0]
    2392                      .dwattr $C$DW$297, DW_AT_accessibility(DW_ACCESS_public)
    2393              $C$DW$298       .dwtag  DW_TAG_member
    2394                      .dwattr $C$DW$298, DW_AT_type(*$C$DW$T$31)
    2395                      .dwattr $C$DW$298, DW_AT_name("CBD")
    2396                      .dwattr $C$DW$298, DW_AT_TI_symbol_name("_CBD")
TMS320C2000 Assembler PC v6.4.2 Thu Dec 14 13:36:50 2017

Tools Copyright (c) 1996-2015 Texas Instruments Incorporated
DRV830x_SPI.asm                                                      PAGE   45

    2397                      .dwattr $C$DW$298, DW_AT_bit_offset(0x04), DW_AT_bit_size(0x02)
    2398                      .dwattr $C$DW$298, DW_AT_data_member_location[DW_OP_plus_uconst 0x0]
    2399                      .dwattr $C$DW$298, DW_AT_accessibility(DW_ACCESS_public)
    2400              $C$DW$299       .dwtag  DW_TAG_member
    2401                      .dwattr $C$DW$299, DW_AT_type(*$C$DW$T$31)
    2402                      .dwattr $C$DW$299, DW_AT_name("rsvd1")
    2403                      .dwattr $C$DW$299, DW_AT_TI_symbol_name("_rsvd1")
    2404                      .dwattr $C$DW$299, DW_AT_bit_offset(0x00), DW_AT_bit_size(0x04)
    2405                      .dwattr $C$DW$299, DW_AT_data_member_location[DW_OP_plus_uconst 0x0]
    2406                      .dwattr $C$DW$299, DW_AT_accessibility(DW_ACCESS_public)
    2407                      .dwendtag $C$DW$T$102
    2408              
    2409              
    2410              $C$DW$T$103     .dwtag  DW_TAG_union_type
    2411                      .dwattr $C$DW$T$103, DW_AT_name("AQCTLB_REG")
    2412                      .dwattr $C$DW$T$103, DW_AT_byte_size(0x01)
    2413              $C$DW$300       .dwtag  DW_TAG_member
    2414                      .dwattr $C$DW$300, DW_AT_type(*$C$DW$T$31)
    2415                      .dwattr $C$DW$300, DW_AT_name("all")
    2416                      .dwattr $C$DW$300, DW_AT_TI_symbol_name("_all")
    2417                      .dwattr $C$DW$300, DW_AT_data_member_location[DW_OP_plus_uconst 0x0]
    2418                      .dwattr $C$DW$300, DW_AT_accessibility(DW_ACCESS_public)
    2419              $C$DW$301       .dwtag  DW_TAG_member
    2420                      .dwattr $C$DW$301, DW_AT_type(*$C$DW$T$102)
    2421                      .dwattr $C$DW$301, DW_AT_name("bit")
    2422                      .dwattr $C$DW$301, DW_AT_TI_symbol_name("_bit")
    2423                      .dwattr $C$DW$301, DW_AT_data_member_location[DW_OP_plus_uconst 0x0]
    2424                      .dwattr $C$DW$301, DW_AT_accessibility(DW_ACCESS_public)
    2425                      .dwendtag $C$DW$T$103
    2426              
    2427              
    2428              $C$DW$T$104     .dwtag  DW_TAG_structure_type
    2429                      .dwattr $C$DW$T$104, DW_AT_name("AQCTL_BITS")
    2430                      .dwattr $C$DW$T$104, DW_AT_byte_size(0x01)
    2431              $C$DW$302       .dwtag  DW_TAG_member
    2432                      .dwattr $C$DW$302, DW_AT_type(*$C$DW$T$31)
    2433                      .dwattr $C$DW$302, DW_AT_name("LDAQAMODE")
    2434                      .dwattr $C$DW$302, DW_AT_TI_symbol_name("_LDAQAMODE")
    2435                      .dwattr $C$DW$302, DW_AT_bit_offset(0x0e), DW_AT_bit_size(0x02)
    2436                      .dwattr $C$DW$302, DW_AT_data_member_location[DW_OP_plus_uconst 0x0]
    2437                      .dwattr $C$DW$302, DW_AT_accessibility(DW_ACCESS_public)
    2438              $C$DW$303       .dwtag  DW_TAG_member
    2439                      .dwattr $C$DW$303, DW_AT_type(*$C$DW$T$31)
    2440                      .dwattr $C$DW$303, DW_AT_name("LDAQBMODE")
    2441                      .dwattr $C$DW$303, DW_AT_TI_symbol_name("_LDAQBMODE")
    2442                      .dwattr $C$DW$303, DW_AT_bit_offset(0x0c), DW_AT_bit_size(0x02)
    2443                      .dwattr $C$DW$303, DW_AT_data_member_location[DW_OP_plus_uconst 0x0]
    2444                      .dwattr $C$DW$303, DW_AT_accessibility(DW_ACCESS_public)
    2445              $C$DW$304       .dwtag  DW_TAG_member
    2446                      .dwattr $C$DW$304, DW_AT_type(*$C$DW$T$31)
    2447                      .dwattr $C$DW$304, DW_AT_name("SHDWAQAMODE")
    2448                      .dwattr $C$DW$304, DW_AT_TI_symbol_name("_SHDWAQAMODE")
    2449                      .dwattr $C$DW$304, DW_AT_bit_offset(0x0b), DW_AT_bit_size(0x01)
    2450                      .dwattr $C$DW$304, DW_AT_data_member_location[DW_OP_plus_uconst 0x0]
    2451                      .dwattr $C$DW$304, DW_AT_accessibility(DW_ACCESS_public)
TMS320C2000 Assembler PC v6.4.2 Thu Dec 14 13:36:50 2017

Tools Copyright (c) 1996-2015 Texas Instruments Incorporated
DRV830x_SPI.asm                                                      PAGE   46

    2452              $C$DW$305       .dwtag  DW_TAG_member
    2453                      .dwattr $C$DW$305, DW_AT_type(*$C$DW$T$31)
    2454                      .dwattr $C$DW$305, DW_AT_name("rsvd1")
    2455                      .dwattr $C$DW$305, DW_AT_TI_symbol_name("_rsvd1")
    2456                      .dwattr $C$DW$305, DW_AT_bit_offset(0x0a), DW_AT_bit_size(0x01)
    2457                      .dwattr $C$DW$305, DW_AT_data_member_location[DW_OP_plus_uconst 0x0]
    2458                      .dwattr $C$DW$305, DW_AT_accessibility(DW_ACCESS_public)
    2459              $C$DW$306       .dwtag  DW_TAG_member
    2460                      .dwattr $C$DW$306, DW_AT_type(*$C$DW$T$31)
    2461                      .dwattr $C$DW$306, DW_AT_name("SHDWAQBMODE")
    2462                      .dwattr $C$DW$306, DW_AT_TI_symbol_name("_SHDWAQBMODE")
    2463                      .dwattr $C$DW$306, DW_AT_bit_offset(0x09), DW_AT_bit_size(0x01)
    2464                      .dwattr $C$DW$306, DW_AT_data_member_location[DW_OP_plus_uconst 0x0]
    2465                      .dwattr $C$DW$306, DW_AT_accessibility(DW_ACCESS_public)
    2466              $C$DW$307       .dwtag  DW_TAG_member
    2467                      .dwattr $C$DW$307, DW_AT_type(*$C$DW$T$31)
    2468                      .dwattr $C$DW$307, DW_AT_name("rsvd2")
    2469                      .dwattr $C$DW$307, DW_AT_TI_symbol_name("_rsvd2")
    2470                      .dwattr $C$DW$307, DW_AT_bit_offset(0x08), DW_AT_bit_size(0x01)
    2471                      .dwattr $C$DW$307, DW_AT_data_member_location[DW_OP_plus_uconst 0x0]
    2472                      .dwattr $C$DW$307, DW_AT_accessibility(DW_ACCESS_public)
    2473              $C$DW$308       .dwtag  DW_TAG_member
    2474                      .dwattr $C$DW$308, DW_AT_type(*$C$DW$T$31)
    2475                      .dwattr $C$DW$308, DW_AT_name("LDAQASYNC")
    2476                      .dwattr $C$DW$308, DW_AT_TI_symbol_name("_LDAQASYNC")
    2477                      .dwattr $C$DW$308, DW_AT_bit_offset(0x06), DW_AT_bit_size(0x02)
    2478                      .dwattr $C$DW$308, DW_AT_data_member_location[DW_OP_plus_uconst 0x0]
    2479                      .dwattr $C$DW$308, DW_AT_accessibility(DW_ACCESS_public)
    2480              $C$DW$309       .dwtag  DW_TAG_member
    2481                      .dwattr $C$DW$309, DW_AT_type(*$C$DW$T$31)
    2482                      .dwattr $C$DW$309, DW_AT_name("LDAQBSYNC")
    2483                      .dwattr $C$DW$309, DW_AT_TI_symbol_name("_LDAQBSYNC")
    2484                      .dwattr $C$DW$309, DW_AT_bit_offset(0x04), DW_AT_bit_size(0x02)
    2485                      .dwattr $C$DW$309, DW_AT_data_member_location[DW_OP_plus_uconst 0x0]
    2486                      .dwattr $C$DW$309, DW_AT_accessibility(DW_ACCESS_public)
    2487              $C$DW$310       .dwtag  DW_TAG_member
    2488                      .dwattr $C$DW$310, DW_AT_type(*$C$DW$T$31)
    2489                      .dwattr $C$DW$310, DW_AT_name("rsvd3")
    2490                      .dwattr $C$DW$310, DW_AT_TI_symbol_name("_rsvd3")
    2491                      .dwattr $C$DW$310, DW_AT_bit_offset(0x00), DW_AT_bit_size(0x04)
    2492                      .dwattr $C$DW$310, DW_AT_data_member_location[DW_OP_plus_uconst 0x0]
    2493                      .dwattr $C$DW$310, DW_AT_accessibility(DW_ACCESS_public)
    2494                      .dwendtag $C$DW$T$104
    2495              
    2496              
    2497              $C$DW$T$105     .dwtag  DW_TAG_union_type
    2498                      .dwattr $C$DW$T$105, DW_AT_name("AQCTL_REG")
    2499                      .dwattr $C$DW$T$105, DW_AT_byte_size(0x01)
    2500              $C$DW$311       .dwtag  DW_TAG_member
    2501                      .dwattr $C$DW$311, DW_AT_type(*$C$DW$T$31)
    2502                      .dwattr $C$DW$311, DW_AT_name("all")
    2503                      .dwattr $C$DW$311, DW_AT_TI_symbol_name("_all")
    2504                      .dwattr $C$DW$311, DW_AT_data_member_location[DW_OP_plus_uconst 0x0]
    2505                      .dwattr $C$DW$311, DW_AT_accessibility(DW_ACCESS_public)
    2506              $C$DW$312       .dwtag  DW_TAG_member
TMS320C2000 Assembler PC v6.4.2 Thu Dec 14 13:36:50 2017

Tools Copyright (c) 1996-2015 Texas Instruments Incorporated
DRV830x_SPI.asm                                                      PAGE   47

    2507                      .dwattr $C$DW$312, DW_AT_type(*$C$DW$T$104)
    2508                      .dwattr $C$DW$312, DW_AT_name("bit")
    2509                      .dwattr $C$DW$312, DW_AT_TI_symbol_name("_bit")
    2510                      .dwattr $C$DW$312, DW_AT_data_member_location[DW_OP_plus_uconst 0x0]
    2511                      .dwattr $C$DW$312, DW_AT_accessibility(DW_ACCESS_public)
    2512                      .dwendtag $C$DW$T$105
    2513              
    2514              
    2515              $C$DW$T$106     .dwtag  DW_TAG_structure_type
    2516                      .dwattr $C$DW$T$106, DW_AT_name("AQSFRC_BITS")
    2517                      .dwattr $C$DW$T$106, DW_AT_byte_size(0x01)
    2518              $C$DW$313       .dwtag  DW_TAG_member
    2519                      .dwattr $C$DW$313, DW_AT_type(*$C$DW$T$31)
    2520                      .dwattr $C$DW$313, DW_AT_name("ACTSFA")
    2521                      .dwattr $C$DW$313, DW_AT_TI_symbol_name("_ACTSFA")
    2522                      .dwattr $C$DW$313, DW_AT_bit_offset(0x0e), DW_AT_bit_size(0x02)
    2523                      .dwattr $C$DW$313, DW_AT_data_member_location[DW_OP_plus_uconst 0x0]
    2524                      .dwattr $C$DW$313, DW_AT_accessibility(DW_ACCESS_public)
    2525              $C$DW$314       .dwtag  DW_TAG_member
    2526                      .dwattr $C$DW$314, DW_AT_type(*$C$DW$T$31)
    2527                      .dwattr $C$DW$314, DW_AT_name("OTSFA")
    2528                      .dwattr $C$DW$314, DW_AT_TI_symbol_name("_OTSFA")
    2529                      .dwattr $C$DW$314, DW_AT_bit_offset(0x0d), DW_AT_bit_size(0x01)
    2530                      .dwattr $C$DW$314, DW_AT_data_member_location[DW_OP_plus_uconst 0x0]
    2531                      .dwattr $C$DW$314, DW_AT_accessibility(DW_ACCESS_public)
    2532              $C$DW$315       .dwtag  DW_TAG_member
    2533                      .dwattr $C$DW$315, DW_AT_type(*$C$DW$T$31)
    2534                      .dwattr $C$DW$315, DW_AT_name("ACTSFB")
    2535                      .dwattr $C$DW$315, DW_AT_TI_symbol_name("_ACTSFB")
    2536                      .dwattr $C$DW$315, DW_AT_bit_offset(0x0b), DW_AT_bit_size(0x02)
    2537                      .dwattr $C$DW$315, DW_AT_data_member_location[DW_OP_plus_uconst 0x0]
    2538                      .dwattr $C$DW$315, DW_AT_accessibility(DW_ACCESS_public)
    2539              $C$DW$316       .dwtag  DW_TAG_member
    2540                      .dwattr $C$DW$316, DW_AT_type(*$C$DW$T$31)
    2541                      .dwattr $C$DW$316, DW_AT_name("OTSFB")
    2542                      .dwattr $C$DW$316, DW_AT_TI_symbol_name("_OTSFB")
    2543                      .dwattr $C$DW$316, DW_AT_bit_offset(0x0a), DW_AT_bit_size(0x01)
    2544                      .dwattr $C$DW$316, DW_AT_data_member_location[DW_OP_plus_uconst 0x0]
    2545                      .dwattr $C$DW$316, DW_AT_accessibility(DW_ACCESS_public)
    2546              $C$DW$317       .dwtag  DW_TAG_member
    2547                      .dwattr $C$DW$317, DW_AT_type(*$C$DW$T$31)
    2548                      .dwattr $C$DW$317, DW_AT_name("RLDCSF")
    2549                      .dwattr $C$DW$317, DW_AT_TI_symbol_name("_RLDCSF")
    2550                      .dwattr $C$DW$317, DW_AT_bit_offset(0x08), DW_AT_bit_size(0x02)
    2551                      .dwattr $C$DW$317, DW_AT_data_member_location[DW_OP_plus_uconst 0x0]
    2552                      .dwattr $C$DW$317, DW_AT_accessibility(DW_ACCESS_public)
    2553              $C$DW$318       .dwtag  DW_TAG_member
    2554                      .dwattr $C$DW$318, DW_AT_type(*$C$DW$T$31)
    2555                      .dwattr $C$DW$318, DW_AT_name("rsvd1")
    2556                      .dwattr $C$DW$318, DW_AT_TI_symbol_name("_rsvd1")
    2557                      .dwattr $C$DW$318, DW_AT_bit_offset(0x00), DW_AT_bit_size(0x08)
    2558                      .dwattr $C$DW$318, DW_AT_data_member_location[DW_OP_plus_uconst 0x0]
    2559                      .dwattr $C$DW$318, DW_AT_accessibility(DW_ACCESS_public)
    2560                      .dwendtag $C$DW$T$106
    2561              
TMS320C2000 Assembler PC v6.4.2 Thu Dec 14 13:36:50 2017

Tools Copyright (c) 1996-2015 Texas Instruments Incorporated
DRV830x_SPI.asm                                                      PAGE   48

    2562              
    2563              $C$DW$T$107     .dwtag  DW_TAG_union_type
    2564                      .dwattr $C$DW$T$107, DW_AT_name("AQSFRC_REG")
    2565                      .dwattr $C$DW$T$107, DW_AT_byte_size(0x01)
    2566              $C$DW$319       .dwtag  DW_TAG_member
    2567                      .dwattr $C$DW$319, DW_AT_type(*$C$DW$T$31)
    2568                      .dwattr $C$DW$319, DW_AT_name("all")
    2569                      .dwattr $C$DW$319, DW_AT_TI_symbol_name("_all")
    2570                      .dwattr $C$DW$319, DW_AT_data_member_location[DW_OP_plus_uconst 0x0]
    2571                      .dwattr $C$DW$319, DW_AT_accessibility(DW_ACCESS_public)
    2572              $C$DW$320       .dwtag  DW_TAG_member
    2573                      .dwattr $C$DW$320, DW_AT_type(*$C$DW$T$106)
    2574                      .dwattr $C$DW$320, DW_AT_name("bit")
    2575                      .dwattr $C$DW$320, DW_AT_TI_symbol_name("_bit")
    2576                      .dwattr $C$DW$320, DW_AT_data_member_location[DW_OP_plus_uconst 0x0]
    2577                      .dwattr $C$DW$320, DW_AT_accessibility(DW_ACCESS_public)
    2578                      .dwendtag $C$DW$T$107
    2579              
    2580              
    2581              $C$DW$T$108     .dwtag  DW_TAG_structure_type
    2582                      .dwattr $C$DW$T$108, DW_AT_name("AQTSRCSEL_BITS")
    2583                      .dwattr $C$DW$T$108, DW_AT_byte_size(0x01)
    2584              $C$DW$321       .dwtag  DW_TAG_member
    2585                      .dwattr $C$DW$321, DW_AT_type(*$C$DW$T$31)
    2586                      .dwattr $C$DW$321, DW_AT_name("T1SEL")
    2587                      .dwattr $C$DW$321, DW_AT_TI_symbol_name("_T1SEL")
    2588                      .dwattr $C$DW$321, DW_AT_bit_offset(0x0c), DW_AT_bit_size(0x04)
    2589                      .dwattr $C$DW$321, DW_AT_data_member_location[DW_OP_plus_uconst 0x0]
    2590                      .dwattr $C$DW$321, DW_AT_accessibility(DW_ACCESS_public)
    2591              $C$DW$322       .dwtag  DW_TAG_member
    2592                      .dwattr $C$DW$322, DW_AT_type(*$C$DW$T$31)
    2593                      .dwattr $C$DW$322, DW_AT_name("T2SEL")
    2594                      .dwattr $C$DW$322, DW_AT_TI_symbol_name("_T2SEL")
    2595                      .dwattr $C$DW$322, DW_AT_bit_offset(0x08), DW_AT_bit_size(0x04)
    2596                      .dwattr $C$DW$322, DW_AT_data_member_location[DW_OP_plus_uconst 0x0]
    2597                      .dwattr $C$DW$322, DW_AT_accessibility(DW_ACCESS_public)
    2598              $C$DW$323       .dwtag  DW_TAG_member
    2599                      .dwattr $C$DW$323, DW_AT_type(*$C$DW$T$31)
    2600                      .dwattr $C$DW$323, DW_AT_name("rsvd1")
    2601                      .dwattr $C$DW$323, DW_AT_TI_symbol_name("_rsvd1")
    2602                      .dwattr $C$DW$323, DW_AT_bit_offset(0x00), DW_AT_bit_size(0x08)
    2603                      .dwattr $C$DW$323, DW_AT_data_member_location[DW_OP_plus_uconst 0x0]
    2604                      .dwattr $C$DW$323, DW_AT_accessibility(DW_ACCESS_public)
    2605                      .dwendtag $C$DW$T$108
    2606              
    2607              
    2608              $C$DW$T$109     .dwtag  DW_TAG_union_type
    2609                      .dwattr $C$DW$T$109, DW_AT_name("AQTSRCSEL_REG")
    2610                      .dwattr $C$DW$T$109, DW_AT_byte_size(0x01)
    2611              $C$DW$324       .dwtag  DW_TAG_member
    2612                      .dwattr $C$DW$324, DW_AT_type(*$C$DW$T$31)
    2613                      .dwattr $C$DW$324, DW_AT_name("all")
    2614                      .dwattr $C$DW$324, DW_AT_TI_symbol_name("_all")
    2615                      .dwattr $C$DW$324, DW_AT_data_member_location[DW_OP_plus_uconst 0x0]
    2616                      .dwattr $C$DW$324, DW_AT_accessibility(DW_ACCESS_public)
TMS320C2000 Assembler PC v6.4.2 Thu Dec 14 13:36:50 2017

Tools Copyright (c) 1996-2015 Texas Instruments Incorporated
DRV830x_SPI.asm                                                      PAGE   49

    2617              $C$DW$325       .dwtag  DW_TAG_member
    2618                      .dwattr $C$DW$325, DW_AT_type(*$C$DW$T$108)
    2619                      .dwattr $C$DW$325, DW_AT_name("bit")
    2620                      .dwattr $C$DW$325, DW_AT_TI_symbol_name("_bit")
    2621                      .dwattr $C$DW$325, DW_AT_data_member_location[DW_OP_plus_uconst 0x0]
    2622                      .dwattr $C$DW$325, DW_AT_accessibility(DW_ACCESS_public)
    2623                      .dwendtag $C$DW$T$109
    2624              
    2625              
    2626              $C$DW$T$110     .dwtag  DW_TAG_structure_type
    2627                      .dwattr $C$DW$T$110, DW_AT_name("CMPA_BITS")
    2628                      .dwattr $C$DW$T$110, DW_AT_byte_size(0x02)
    2629              $C$DW$326       .dwtag  DW_TAG_member
    2630                      .dwattr $C$DW$326, DW_AT_type(*$C$DW$T$31)
    2631                      .dwattr $C$DW$326, DW_AT_name("CMPAHR")
    2632                      .dwattr $C$DW$326, DW_AT_TI_symbol_name("_CMPAHR")
    2633                      .dwattr $C$DW$326, DW_AT_bit_offset(0x00), DW_AT_bit_size(0x10)
    2634                      .dwattr $C$DW$326, DW_AT_data_member_location[DW_OP_plus_uconst 0x0]
    2635                      .dwattr $C$DW$326, DW_AT_accessibility(DW_ACCESS_public)
    2636              $C$DW$327       .dwtag  DW_TAG_member
    2637                      .dwattr $C$DW$327, DW_AT_type(*$C$DW$T$31)
    2638                      .dwattr $C$DW$327, DW_AT_name("CMPA")
    2639                      .dwattr $C$DW$327, DW_AT_TI_symbol_name("_CMPA")
    2640                      .dwattr $C$DW$327, DW_AT_bit_offset(0x00), DW_AT_bit_size(0x10)
    2641                      .dwattr $C$DW$327, DW_AT_data_member_location[DW_OP_plus_uconst 0x1]
    2642                      .dwattr $C$DW$327, DW_AT_accessibility(DW_ACCESS_public)
    2643                      .dwendtag $C$DW$T$110
    2644              
    2645              
    2646              $C$DW$T$111     .dwtag  DW_TAG_union_type
    2647                      .dwattr $C$DW$T$111, DW_AT_name("CMPA_REG")
    2648                      .dwattr $C$DW$T$111, DW_AT_byte_size(0x02)
    2649              $C$DW$328       .dwtag  DW_TAG_member
    2650                      .dwattr $C$DW$328, DW_AT_type(*$C$DW$T$33)
    2651                      .dwattr $C$DW$328, DW_AT_name("all")
    2652                      .dwattr $C$DW$328, DW_AT_TI_symbol_name("_all")
    2653                      .dwattr $C$DW$328, DW_AT_data_member_location[DW_OP_plus_uconst 0x0]
    2654                      .dwattr $C$DW$328, DW_AT_accessibility(DW_ACCESS_public)
    2655              $C$DW$329       .dwtag  DW_TAG_member
    2656                      .dwattr $C$DW$329, DW_AT_type(*$C$DW$T$110)
    2657                      .dwattr $C$DW$329, DW_AT_name("bit")
    2658                      .dwattr $C$DW$329, DW_AT_TI_symbol_name("_bit")
    2659                      .dwattr $C$DW$329, DW_AT_data_member_location[DW_OP_plus_uconst 0x0]
    2660                      .dwattr $C$DW$329, DW_AT_accessibility(DW_ACCESS_public)
    2661                      .dwendtag $C$DW$T$111
    2662              
    2663              
    2664              $C$DW$T$112     .dwtag  DW_TAG_structure_type
    2665                      .dwattr $C$DW$T$112, DW_AT_name("CMPB_BITS")
    2666                      .dwattr $C$DW$T$112, DW_AT_byte_size(0x02)
    2667              $C$DW$330       .dwtag  DW_TAG_member
    2668                      .dwattr $C$DW$330, DW_AT_type(*$C$DW$T$31)
    2669                      .dwattr $C$DW$330, DW_AT_name("CMPBHR")
    2670                      .dwattr $C$DW$330, DW_AT_TI_symbol_name("_CMPBHR")
    2671                      .dwattr $C$DW$330, DW_AT_bit_offset(0x00), DW_AT_bit_size(0x10)
TMS320C2000 Assembler PC v6.4.2 Thu Dec 14 13:36:50 2017

Tools Copyright (c) 1996-2015 Texas Instruments Incorporated
DRV830x_SPI.asm                                                      PAGE   50

    2672                      .dwattr $C$DW$330, DW_AT_data_member_location[DW_OP_plus_uconst 0x0]
    2673                      .dwattr $C$DW$330, DW_AT_accessibility(DW_ACCESS_public)
    2674              $C$DW$331       .dwtag  DW_TAG_member
    2675                      .dwattr $C$DW$331, DW_AT_type(*$C$DW$T$31)
    2676                      .dwattr $C$DW$331, DW_AT_name("CMPB")
    2677                      .dwattr $C$DW$331, DW_AT_TI_symbol_name("_CMPB")
    2678                      .dwattr $C$DW$331, DW_AT_bit_offset(0x00), DW_AT_bit_size(0x10)
    2679                      .dwattr $C$DW$331, DW_AT_data_member_location[DW_OP_plus_uconst 0x1]
    2680                      .dwattr $C$DW$331, DW_AT_accessibility(DW_ACCESS_public)
    2681                      .dwendtag $C$DW$T$112
    2682              
    2683              
    2684              $C$DW$T$113     .dwtag  DW_TAG_union_type
    2685                      .dwattr $C$DW$T$113, DW_AT_name("CMPB_REG")
    2686                      .dwattr $C$DW$T$113, DW_AT_byte_size(0x02)
    2687              $C$DW$332       .dwtag  DW_TAG_member
    2688                      .dwattr $C$DW$332, DW_AT_type(*$C$DW$T$33)
    2689                      .dwattr $C$DW$332, DW_AT_name("all")
    2690                      .dwattr $C$DW$332, DW_AT_TI_symbol_name("_all")
    2691                      .dwattr $C$DW$332, DW_AT_data_member_location[DW_OP_plus_uconst 0x0]
    2692                      .dwattr $C$DW$332, DW_AT_accessibility(DW_ACCESS_public)
    2693              $C$DW$333       .dwtag  DW_TAG_member
    2694                      .dwattr $C$DW$333, DW_AT_type(*$C$DW$T$112)
    2695                      .dwattr $C$DW$333, DW_AT_name("bit")
    2696                      .dwattr $C$DW$333, DW_AT_TI_symbol_name("_bit")
    2697                      .dwattr $C$DW$333, DW_AT_data_member_location[DW_OP_plus_uconst 0x0]
    2698                      .dwattr $C$DW$333, DW_AT_accessibility(DW_ACCESS_public)
    2699                      .dwendtag $C$DW$T$113
    2700              
    2701              
    2702              $C$DW$T$114     .dwtag  DW_TAG_structure_type
    2703                      .dwattr $C$DW$T$114, DW_AT_name("CMPCTL2_BITS")
    2704                      .dwattr $C$DW$T$114, DW_AT_byte_size(0x01)
    2705              $C$DW$334       .dwtag  DW_TAG_member
    2706                      .dwattr $C$DW$334, DW_AT_type(*$C$DW$T$31)
    2707                      .dwattr $C$DW$334, DW_AT_name("LOADCMODE")
    2708                      .dwattr $C$DW$334, DW_AT_TI_symbol_name("_LOADCMODE")
    2709                      .dwattr $C$DW$334, DW_AT_bit_offset(0x0e), DW_AT_bit_size(0x02)
    2710                      .dwattr $C$DW$334, DW_AT_data_member_location[DW_OP_plus_uconst 0x0]
    2711                      .dwattr $C$DW$334, DW_AT_accessibility(DW_ACCESS_public)
    2712              $C$DW$335       .dwtag  DW_TAG_member
    2713                      .dwattr $C$DW$335, DW_AT_type(*$C$DW$T$31)
    2714                      .dwattr $C$DW$335, DW_AT_name("LOADDMODE")
    2715                      .dwattr $C$DW$335, DW_AT_TI_symbol_name("_LOADDMODE")
    2716                      .dwattr $C$DW$335, DW_AT_bit_offset(0x0c), DW_AT_bit_size(0x02)
    2717                      .dwattr $C$DW$335, DW_AT_data_member_location[DW_OP_plus_uconst 0x0]
    2718                      .dwattr $C$DW$335, DW_AT_accessibility(DW_ACCESS_public)
    2719              $C$DW$336       .dwtag  DW_TAG_member
    2720                      .dwattr $C$DW$336, DW_AT_type(*$C$DW$T$31)
    2721                      .dwattr $C$DW$336, DW_AT_name("SHDWCMODE")
    2722                      .dwattr $C$DW$336, DW_AT_TI_symbol_name("_SHDWCMODE")
    2723                      .dwattr $C$DW$336, DW_AT_bit_offset(0x0b), DW_AT_bit_size(0x01)
    2724                      .dwattr $C$DW$336, DW_AT_data_member_location[DW_OP_plus_uconst 0x0]
    2725                      .dwattr $C$DW$336, DW_AT_accessibility(DW_ACCESS_public)
    2726              $C$DW$337       .dwtag  DW_TAG_member
TMS320C2000 Assembler PC v6.4.2 Thu Dec 14 13:36:50 2017

Tools Copyright (c) 1996-2015 Texas Instruments Incorporated
DRV830x_SPI.asm                                                      PAGE   51

    2727                      .dwattr $C$DW$337, DW_AT_type(*$C$DW$T$31)
    2728                      .dwattr $C$DW$337, DW_AT_name("rsvd1")
    2729                      .dwattr $C$DW$337, DW_AT_TI_symbol_name("_rsvd1")
    2730                      .dwattr $C$DW$337, DW_AT_bit_offset(0x0a), DW_AT_bit_size(0x01)
    2731                      .dwattr $C$DW$337, DW_AT_data_member_location[DW_OP_plus_uconst 0x0]
    2732                      .dwattr $C$DW$337, DW_AT_accessibility(DW_ACCESS_public)
    2733              $C$DW$338       .dwtag  DW_TAG_member
    2734                      .dwattr $C$DW$338, DW_AT_type(*$C$DW$T$31)
    2735                      .dwattr $C$DW$338, DW_AT_name("SHDWDMODE")
    2736                      .dwattr $C$DW$338, DW_AT_TI_symbol_name("_SHDWDMODE")
    2737                      .dwattr $C$DW$338, DW_AT_bit_offset(0x09), DW_AT_bit_size(0x01)
    2738                      .dwattr $C$DW$338, DW_AT_data_member_location[DW_OP_plus_uconst 0x0]
    2739                      .dwattr $C$DW$338, DW_AT_accessibility(DW_ACCESS_public)
    2740              $C$DW$339       .dwtag  DW_TAG_member
    2741                      .dwattr $C$DW$339, DW_AT_type(*$C$DW$T$31)
    2742                      .dwattr $C$DW$339, DW_AT_name("rsvd2")
    2743                      .dwattr $C$DW$339, DW_AT_TI_symbol_name("_rsvd2")
    2744                      .dwattr $C$DW$339, DW_AT_bit_offset(0x06), DW_AT_bit_size(0x03)
    2745                      .dwattr $C$DW$339, DW_AT_data_member_location[DW_OP_plus_uconst 0x0]
    2746                      .dwattr $C$DW$339, DW_AT_accessibility(DW_ACCESS_public)
    2747              $C$DW$340       .dwtag  DW_TAG_member
    2748                      .dwattr $C$DW$340, DW_AT_type(*$C$DW$T$31)
    2749                      .dwattr $C$DW$340, DW_AT_name("LOADCSYNC")
    2750                      .dwattr $C$DW$340, DW_AT_TI_symbol_name("_LOADCSYNC")
    2751                      .dwattr $C$DW$340, DW_AT_bit_offset(0x04), DW_AT_bit_size(0x02)
    2752                      .dwattr $C$DW$340, DW_AT_data_member_location[DW_OP_plus_uconst 0x0]
    2753                      .dwattr $C$DW$340, DW_AT_accessibility(DW_ACCESS_public)
    2754              $C$DW$341       .dwtag  DW_TAG_member
    2755                      .dwattr $C$DW$341, DW_AT_type(*$C$DW$T$31)
    2756                      .dwattr $C$DW$341, DW_AT_name("LOADDSYNC")
    2757                      .dwattr $C$DW$341, DW_AT_TI_symbol_name("_LOADDSYNC")
    2758                      .dwattr $C$DW$341, DW_AT_bit_offset(0x02), DW_AT_bit_size(0x02)
    2759                      .dwattr $C$DW$341, DW_AT_data_member_location[DW_OP_plus_uconst 0x0]
    2760                      .dwattr $C$DW$341, DW_AT_accessibility(DW_ACCESS_public)
    2761              $C$DW$342       .dwtag  DW_TAG_member
    2762                      .dwattr $C$DW$342, DW_AT_type(*$C$DW$T$31)
    2763                      .dwattr $C$DW$342, DW_AT_name("rsvd3")
    2764                      .dwattr $C$DW$342, DW_AT_TI_symbol_name("_rsvd3")
    2765                      .dwattr $C$DW$342, DW_AT_bit_offset(0x00), DW_AT_bit_size(0x02)
    2766                      .dwattr $C$DW$342, DW_AT_data_member_location[DW_OP_plus_uconst 0x0]
    2767                      .dwattr $C$DW$342, DW_AT_accessibility(DW_ACCESS_public)
    2768                      .dwendtag $C$DW$T$114
    2769              
    2770              
    2771              $C$DW$T$115     .dwtag  DW_TAG_union_type
    2772                      .dwattr $C$DW$T$115, DW_AT_name("CMPCTL2_REG")
    2773                      .dwattr $C$DW$T$115, DW_AT_byte_size(0x01)
    2774              $C$DW$343       .dwtag  DW_TAG_member
    2775                      .dwattr $C$DW$343, DW_AT_type(*$C$DW$T$31)
    2776                      .dwattr $C$DW$343, DW_AT_name("all")
    2777                      .dwattr $C$DW$343, DW_AT_TI_symbol_name("_all")
    2778                      .dwattr $C$DW$343, DW_AT_data_member_location[DW_OP_plus_uconst 0x0]
    2779                      .dwattr $C$DW$343, DW_AT_accessibility(DW_ACCESS_public)
    2780              $C$DW$344       .dwtag  DW_TAG_member
    2781                      .dwattr $C$DW$344, DW_AT_type(*$C$DW$T$114)
TMS320C2000 Assembler PC v6.4.2 Thu Dec 14 13:36:50 2017

Tools Copyright (c) 1996-2015 Texas Instruments Incorporated
DRV830x_SPI.asm                                                      PAGE   52

    2782                      .dwattr $C$DW$344, DW_AT_name("bit")
    2783                      .dwattr $C$DW$344, DW_AT_TI_symbol_name("_bit")
    2784                      .dwattr $C$DW$344, DW_AT_data_member_location[DW_OP_plus_uconst 0x0]
    2785                      .dwattr $C$DW$344, DW_AT_accessibility(DW_ACCESS_public)
    2786                      .dwendtag $C$DW$T$115
    2787              
    2788              
    2789              $C$DW$T$116     .dwtag  DW_TAG_structure_type
    2790                      .dwattr $C$DW$T$116, DW_AT_name("CMPCTL_BITS")
    2791                      .dwattr $C$DW$T$116, DW_AT_byte_size(0x01)
    2792              $C$DW$345       .dwtag  DW_TAG_member
    2793                      .dwattr $C$DW$345, DW_AT_type(*$C$DW$T$31)
    2794                      .dwattr $C$DW$345, DW_AT_name("LOADAMODE")
    2795                      .dwattr $C$DW$345, DW_AT_TI_symbol_name("_LOADAMODE")
    2796                      .dwattr $C$DW$345, DW_AT_bit_offset(0x0e), DW_AT_bit_size(0x02)
    2797                      .dwattr $C$DW$345, DW_AT_data_member_location[DW_OP_plus_uconst 0x0]
    2798                      .dwattr $C$DW$345, DW_AT_accessibility(DW_ACCESS_public)
    2799              $C$DW$346       .dwtag  DW_TAG_member
    2800                      .dwattr $C$DW$346, DW_AT_type(*$C$DW$T$31)
    2801                      .dwattr $C$DW$346, DW_AT_name("LOADBMODE")
    2802                      .dwattr $C$DW$346, DW_AT_TI_symbol_name("_LOADBMODE")
    2803                      .dwattr $C$DW$346, DW_AT_bit_offset(0x0c), DW_AT_bit_size(0x02)
    2804                      .dwattr $C$DW$346, DW_AT_data_member_location[DW_OP_plus_uconst 0x0]
    2805                      .dwattr $C$DW$346, DW_AT_accessibility(DW_ACCESS_public)
    2806              $C$DW$347       .dwtag  DW_TAG_member
    2807                      .dwattr $C$DW$347, DW_AT_type(*$C$DW$T$31)
    2808                      .dwattr $C$DW$347, DW_AT_name("SHDWAMODE")
    2809                      .dwattr $C$DW$347, DW_AT_TI_symbol_name("_SHDWAMODE")
    2810                      .dwattr $C$DW$347, DW_AT_bit_offset(0x0b), DW_AT_bit_size(0x01)
    2811                      .dwattr $C$DW$347, DW_AT_data_member_location[DW_OP_plus_uconst 0x0]
    2812                      .dwattr $C$DW$347, DW_AT_accessibility(DW_ACCESS_public)
    2813              $C$DW$348       .dwtag  DW_TAG_member
    2814                      .dwattr $C$DW$348, DW_AT_type(*$C$DW$T$31)
    2815                      .dwattr $C$DW$348, DW_AT_name("rsvd1")
    2816                      .dwattr $C$DW$348, DW_AT_TI_symbol_name("_rsvd1")
    2817                      .dwattr $C$DW$348, DW_AT_bit_offset(0x0a), DW_AT_bit_size(0x01)
    2818                      .dwattr $C$DW$348, DW_AT_data_member_location[DW_OP_plus_uconst 0x0]
    2819                      .dwattr $C$DW$348, DW_AT_accessibility(DW_ACCESS_public)
    2820              $C$DW$349       .dwtag  DW_TAG_member
    2821                      .dwattr $C$DW$349, DW_AT_type(*$C$DW$T$31)
    2822                      .dwattr $C$DW$349, DW_AT_name("SHDWBMODE")
    2823                      .dwattr $C$DW$349, DW_AT_TI_symbol_name("_SHDWBMODE")
    2824                      .dwattr $C$DW$349, DW_AT_bit_offset(0x09), DW_AT_bit_size(0x01)
    2825                      .dwattr $C$DW$349, DW_AT_data_member_location[DW_OP_plus_uconst 0x0]
    2826                      .dwattr $C$DW$349, DW_AT_accessibility(DW_ACCESS_public)
    2827              $C$DW$350       .dwtag  DW_TAG_member
    2828                      .dwattr $C$DW$350, DW_AT_type(*$C$DW$T$31)
    2829                      .dwattr $C$DW$350, DW_AT_name("rsvd2")
    2830                      .dwattr $C$DW$350, DW_AT_TI_symbol_name("_rsvd2")
    2831                      .dwattr $C$DW$350, DW_AT_bit_offset(0x08), DW_AT_bit_size(0x01)
    2832                      .dwattr $C$DW$350, DW_AT_data_member_location[DW_OP_plus_uconst 0x0]
    2833                      .dwattr $C$DW$350, DW_AT_accessibility(DW_ACCESS_public)
    2834              $C$DW$351       .dwtag  DW_TAG_member
    2835                      .dwattr $C$DW$351, DW_AT_type(*$C$DW$T$31)
    2836                      .dwattr $C$DW$351, DW_AT_name("SHDWAFULL")
TMS320C2000 Assembler PC v6.4.2 Thu Dec 14 13:36:50 2017

Tools Copyright (c) 1996-2015 Texas Instruments Incorporated
DRV830x_SPI.asm                                                      PAGE   53

    2837                      .dwattr $C$DW$351, DW_AT_TI_symbol_name("_SHDWAFULL")
    2838                      .dwattr $C$DW$351, DW_AT_bit_offset(0x07), DW_AT_bit_size(0x01)
    2839                      .dwattr $C$DW$351, DW_AT_data_member_location[DW_OP_plus_uconst 0x0]
    2840                      .dwattr $C$DW$351, DW_AT_accessibility(DW_ACCESS_public)
    2841              $C$DW$352       .dwtag  DW_TAG_member
    2842                      .dwattr $C$DW$352, DW_AT_type(*$C$DW$T$31)
    2843                      .dwattr $C$DW$352, DW_AT_name("SHDWBFULL")
    2844                      .dwattr $C$DW$352, DW_AT_TI_symbol_name("_SHDWBFULL")
    2845                      .dwattr $C$DW$352, DW_AT_bit_offset(0x06), DW_AT_bit_size(0x01)
    2846                      .dwattr $C$DW$352, DW_AT_data_member_location[DW_OP_plus_uconst 0x0]
    2847                      .dwattr $C$DW$352, DW_AT_accessibility(DW_ACCESS_public)
    2848              $C$DW$353       .dwtag  DW_TAG_member
    2849                      .dwattr $C$DW$353, DW_AT_type(*$C$DW$T$31)
    2850                      .dwattr $C$DW$353, DW_AT_name("LOADASYNC")
    2851                      .dwattr $C$DW$353, DW_AT_TI_symbol_name("_LOADASYNC")
    2852                      .dwattr $C$DW$353, DW_AT_bit_offset(0x04), DW_AT_bit_size(0x02)
    2853                      .dwattr $C$DW$353, DW_AT_data_member_location[DW_OP_plus_uconst 0x0]
    2854                      .dwattr $C$DW$353, DW_AT_accessibility(DW_ACCESS_public)
    2855              $C$DW$354       .dwtag  DW_TAG_member
    2856                      .dwattr $C$DW$354, DW_AT_type(*$C$DW$T$31)
    2857                      .dwattr $C$DW$354, DW_AT_name("LOADBSYNC")
    2858                      .dwattr $C$DW$354, DW_AT_TI_symbol_name("_LOADBSYNC")
    2859                      .dwattr $C$DW$354, DW_AT_bit_offset(0x02), DW_AT_bit_size(0x02)
    2860                      .dwattr $C$DW$354, DW_AT_data_member_location[DW_OP_plus_uconst 0x0]
    2861                      .dwattr $C$DW$354, DW_AT_accessibility(DW_ACCESS_public)
    2862              $C$DW$355       .dwtag  DW_TAG_member
    2863                      .dwattr $C$DW$355, DW_AT_type(*$C$DW$T$31)
    2864                      .dwattr $C$DW$355, DW_AT_name("rsvd3")
    2865                      .dwattr $C$DW$355, DW_AT_TI_symbol_name("_rsvd3")
    2866                      .dwattr $C$DW$355, DW_AT_bit_offset(0x00), DW_AT_bit_size(0x02)
    2867                      .dwattr $C$DW$355, DW_AT_data_member_location[DW_OP_plus_uconst 0x0]
    2868                      .dwattr $C$DW$355, DW_AT_accessibility(DW_ACCESS_public)
    2869                      .dwendtag $C$DW$T$116
    2870              
    2871              
    2872              $C$DW$T$117     .dwtag  DW_TAG_union_type
    2873                      .dwattr $C$DW$T$117, DW_AT_name("CMPCTL_REG")
    2874                      .dwattr $C$DW$T$117, DW_AT_byte_size(0x01)
    2875              $C$DW$356       .dwtag  DW_TAG_member
    2876                      .dwattr $C$DW$356, DW_AT_type(*$C$DW$T$31)
    2877                      .dwattr $C$DW$356, DW_AT_name("all")
    2878                      .dwattr $C$DW$356, DW_AT_TI_symbol_name("_all")
    2879                      .dwattr $C$DW$356, DW_AT_data_member_location[DW_OP_plus_uconst 0x0]
    2880                      .dwattr $C$DW$356, DW_AT_accessibility(DW_ACCESS_public)
    2881              $C$DW$357       .dwtag  DW_TAG_member
    2882                      .dwattr $C$DW$357, DW_AT_type(*$C$DW$T$116)
    2883                      .dwattr $C$DW$357, DW_AT_name("bit")
    2884                      .dwattr $C$DW$357, DW_AT_TI_symbol_name("_bit")
    2885                      .dwattr $C$DW$357, DW_AT_data_member_location[DW_OP_plus_uconst 0x0]
    2886                      .dwattr $C$DW$357, DW_AT_accessibility(DW_ACCESS_public)
    2887                      .dwendtag $C$DW$T$117
    2888              
    2889              
    2890              $C$DW$T$118     .dwtag  DW_TAG_structure_type
    2891                      .dwattr $C$DW$T$118, DW_AT_name("DBCTL2_BITS")
TMS320C2000 Assembler PC v6.4.2 Thu Dec 14 13:36:50 2017

Tools Copyright (c) 1996-2015 Texas Instruments Incorporated
DRV830x_SPI.asm                                                      PAGE   54

    2892                      .dwattr $C$DW$T$118, DW_AT_byte_size(0x01)
    2893              $C$DW$358       .dwtag  DW_TAG_member
    2894                      .dwattr $C$DW$358, DW_AT_type(*$C$DW$T$31)
    2895                      .dwattr $C$DW$358, DW_AT_name("LOADDBCTLMODE")
    2896                      .dwattr $C$DW$358, DW_AT_TI_symbol_name("_LOADDBCTLMODE")
    2897                      .dwattr $C$DW$358, DW_AT_bit_offset(0x0e), DW_AT_bit_size(0x02)
    2898                      .dwattr $C$DW$358, DW_AT_data_member_location[DW_OP_plus_uconst 0x0]
    2899                      .dwattr $C$DW$358, DW_AT_accessibility(DW_ACCESS_public)
    2900              $C$DW$359       .dwtag  DW_TAG_member
    2901                      .dwattr $C$DW$359, DW_AT_type(*$C$DW$T$31)
    2902                      .dwattr $C$DW$359, DW_AT_name("SHDWDBCTLMODE")
    2903                      .dwattr $C$DW$359, DW_AT_TI_symbol_name("_SHDWDBCTLMODE")
    2904                      .dwattr $C$DW$359, DW_AT_bit_offset(0x0d), DW_AT_bit_size(0x01)
    2905                      .dwattr $C$DW$359, DW_AT_data_member_location[DW_OP_plus_uconst 0x0]
    2906                      .dwattr $C$DW$359, DW_AT_accessibility(DW_ACCESS_public)
    2907              $C$DW$360       .dwtag  DW_TAG_member
    2908                      .dwattr $C$DW$360, DW_AT_type(*$C$DW$T$31)
    2909                      .dwattr $C$DW$360, DW_AT_name("rsvd1")
    2910                      .dwattr $C$DW$360, DW_AT_TI_symbol_name("_rsvd1")
    2911                      .dwattr $C$DW$360, DW_AT_bit_offset(0x00), DW_AT_bit_size(0x0d)
    2912                      .dwattr $C$DW$360, DW_AT_data_member_location[DW_OP_plus_uconst 0x0]
    2913                      .dwattr $C$DW$360, DW_AT_accessibility(DW_ACCESS_public)
    2914                      .dwendtag $C$DW$T$118
    2915              
    2916              
    2917              $C$DW$T$119     .dwtag  DW_TAG_union_type
    2918                      .dwattr $C$DW$T$119, DW_AT_name("DBCTL2_REG")
    2919                      .dwattr $C$DW$T$119, DW_AT_byte_size(0x01)
    2920              $C$DW$361       .dwtag  DW_TAG_member
    2921                      .dwattr $C$DW$361, DW_AT_type(*$C$DW$T$31)
    2922                      .dwattr $C$DW$361, DW_AT_name("all")
    2923                      .dwattr $C$DW$361, DW_AT_TI_symbol_name("_all")
    2924                      .dwattr $C$DW$361, DW_AT_data_member_location[DW_OP_plus_uconst 0x0]
    2925                      .dwattr $C$DW$361, DW_AT_accessibility(DW_ACCESS_public)
    2926              $C$DW$362       .dwtag  DW_TAG_member
    2927                      .dwattr $C$DW$362, DW_AT_type(*$C$DW$T$118)
    2928                      .dwattr $C$DW$362, DW_AT_name("bit")
    2929                      .dwattr $C$DW$362, DW_AT_TI_symbol_name("_bit")
    2930                      .dwattr $C$DW$362, DW_AT_data_member_location[DW_OP_plus_uconst 0x0]
    2931                      .dwattr $C$DW$362, DW_AT_accessibility(DW_ACCESS_public)
    2932                      .dwendtag $C$DW$T$119
    2933              
    2934              
    2935              $C$DW$T$120     .dwtag  DW_TAG_structure_type
    2936                      .dwattr $C$DW$T$120, DW_AT_name("DBCTL_BITS")
    2937                      .dwattr $C$DW$T$120, DW_AT_byte_size(0x01)
    2938              $C$DW$363       .dwtag  DW_TAG_member
    2939                      .dwattr $C$DW$363, DW_AT_type(*$C$DW$T$31)
    2940                      .dwattr $C$DW$363, DW_AT_name("OUT_MODE")
    2941                      .dwattr $C$DW$363, DW_AT_TI_symbol_name("_OUT_MODE")
    2942                      .dwattr $C$DW$363, DW_AT_bit_offset(0x0e), DW_AT_bit_size(0x02)
    2943                      .dwattr $C$DW$363, DW_AT_data_member_location[DW_OP_plus_uconst 0x0]
    2944                      .dwattr $C$DW$363, DW_AT_accessibility(DW_ACCESS_public)
    2945              $C$DW$364       .dwtag  DW_TAG_member
    2946                      .dwattr $C$DW$364, DW_AT_type(*$C$DW$T$31)
TMS320C2000 Assembler PC v6.4.2 Thu Dec 14 13:36:50 2017

Tools Copyright (c) 1996-2015 Texas Instruments Incorporated
DRV830x_SPI.asm                                                      PAGE   55

    2947                      .dwattr $C$DW$364, DW_AT_name("POLSEL")
    2948                      .dwattr $C$DW$364, DW_AT_TI_symbol_name("_POLSEL")
    2949                      .dwattr $C$DW$364, DW_AT_bit_offset(0x0c), DW_AT_bit_size(0x02)
    2950                      .dwattr $C$DW$364, DW_AT_data_member_location[DW_OP_plus_uconst 0x0]
    2951                      .dwattr $C$DW$364, DW_AT_accessibility(DW_ACCESS_public)
    2952              $C$DW$365       .dwtag  DW_TAG_member
    2953                      .dwattr $C$DW$365, DW_AT_type(*$C$DW$T$31)
    2954                      .dwattr $C$DW$365, DW_AT_name("IN_MODE")
    2955                      .dwattr $C$DW$365, DW_AT_TI_symbol_name("_IN_MODE")
    2956                      .dwattr $C$DW$365, DW_AT_bit_offset(0x0a), DW_AT_bit_size(0x02)
    2957                      .dwattr $C$DW$365, DW_AT_data_member_location[DW_OP_plus_uconst 0x0]
    2958                      .dwattr $C$DW$365, DW_AT_accessibility(DW_ACCESS_public)
    2959              $C$DW$366       .dwtag  DW_TAG_member
    2960                      .dwattr $C$DW$366, DW_AT_type(*$C$DW$T$31)
    2961                      .dwattr $C$DW$366, DW_AT_name("LOADREDMODE")
    2962                      .dwattr $C$DW$366, DW_AT_TI_symbol_name("_LOADREDMODE")
    2963                      .dwattr $C$DW$366, DW_AT_bit_offset(0x08), DW_AT_bit_size(0x02)
    2964                      .dwattr $C$DW$366, DW_AT_data_member_location[DW_OP_plus_uconst 0x0]
    2965                      .dwattr $C$DW$366, DW_AT_accessibility(DW_ACCESS_public)
    2966              $C$DW$367       .dwtag  DW_TAG_member
    2967                      .dwattr $C$DW$367, DW_AT_type(*$C$DW$T$31)
    2968                      .dwattr $C$DW$367, DW_AT_name("LOADFEDMODE")
    2969                      .dwattr $C$DW$367, DW_AT_TI_symbol_name("_LOADFEDMODE")
    2970                      .dwattr $C$DW$367, DW_AT_bit_offset(0x06), DW_AT_bit_size(0x02)
    2971                      .dwattr $C$DW$367, DW_AT_data_member_location[DW_OP_plus_uconst 0x0]
    2972                      .dwattr $C$DW$367, DW_AT_accessibility(DW_ACCESS_public)
    2973              $C$DW$368       .dwtag  DW_TAG_member
    2974                      .dwattr $C$DW$368, DW_AT_type(*$C$DW$T$31)
    2975                      .dwattr $C$DW$368, DW_AT_name("SHDWDBREDMODE")
    2976                      .dwattr $C$DW$368, DW_AT_TI_symbol_name("_SHDWDBREDMODE")
    2977                      .dwattr $C$DW$368, DW_AT_bit_offset(0x05), DW_AT_bit_size(0x01)
    2978                      .dwattr $C$DW$368, DW_AT_data_member_location[DW_OP_plus_uconst 0x0]
    2979                      .dwattr $C$DW$368, DW_AT_accessibility(DW_ACCESS_public)
    2980              $C$DW$369       .dwtag  DW_TAG_member
    2981                      .dwattr $C$DW$369, DW_AT_type(*$C$DW$T$31)
    2982                      .dwattr $C$DW$369, DW_AT_name("SHDWDBFEDMODE")
    2983                      .dwattr $C$DW$369, DW_AT_TI_symbol_name("_SHDWDBFEDMODE")
    2984                      .dwattr $C$DW$369, DW_AT_bit_offset(0x04), DW_AT_bit_size(0x01)
    2985                      .dwattr $C$DW$369, DW_AT_data_member_location[DW_OP_plus_uconst 0x0]
    2986                      .dwattr $C$DW$369, DW_AT_accessibility(DW_ACCESS_public)
    2987              $C$DW$370       .dwtag  DW_TAG_member
    2988                      .dwattr $C$DW$370, DW_AT_type(*$C$DW$T$31)
    2989                      .dwattr $C$DW$370, DW_AT_name("OUTSWAP")
    2990                      .dwattr $C$DW$370, DW_AT_TI_symbol_name("_OUTSWAP")
    2991                      .dwattr $C$DW$370, DW_AT_bit_offset(0x02), DW_AT_bit_size(0x02)
    2992                      .dwattr $C$DW$370, DW_AT_data_member_location[DW_OP_plus_uconst 0x0]
    2993                      .dwattr $C$DW$370, DW_AT_accessibility(DW_ACCESS_public)
    2994              $C$DW$371       .dwtag  DW_TAG_member
    2995                      .dwattr $C$DW$371, DW_AT_type(*$C$DW$T$31)
    2996                      .dwattr $C$DW$371, DW_AT_name("DEDB_MODE")
    2997                      .dwattr $C$DW$371, DW_AT_TI_symbol_name("_DEDB_MODE")
    2998                      .dwattr $C$DW$371, DW_AT_bit_offset(0x01), DW_AT_bit_size(0x01)
    2999                      .dwattr $C$DW$371, DW_AT_data_member_location[DW_OP_plus_uconst 0x0]
    3000                      .dwattr $C$DW$371, DW_AT_accessibility(DW_ACCESS_public)
    3001              $C$DW$372       .dwtag  DW_TAG_member
TMS320C2000 Assembler PC v6.4.2 Thu Dec 14 13:36:50 2017

Tools Copyright (c) 1996-2015 Texas Instruments Incorporated
DRV830x_SPI.asm                                                      PAGE   56

    3002                      .dwattr $C$DW$372, DW_AT_type(*$C$DW$T$31)
    3003                      .dwattr $C$DW$372, DW_AT_name("HALFCYCLE")
    3004                      .dwattr $C$DW$372, DW_AT_TI_symbol_name("_HALFCYCLE")
    3005                      .dwattr $C$DW$372, DW_AT_bit_offset(0x00), DW_AT_bit_size(0x01)
    3006                      .dwattr $C$DW$372, DW_AT_data_member_location[DW_OP_plus_uconst 0x0]
    3007                      .dwattr $C$DW$372, DW_AT_accessibility(DW_ACCESS_public)
    3008                      .dwendtag $C$DW$T$120
    3009              
    3010              
    3011              $C$DW$T$121     .dwtag  DW_TAG_union_type
    3012                      .dwattr $C$DW$T$121, DW_AT_name("DBCTL_REG")
    3013                      .dwattr $C$DW$T$121, DW_AT_byte_size(0x01)
    3014              $C$DW$373       .dwtag  DW_TAG_member
    3015                      .dwattr $C$DW$373, DW_AT_type(*$C$DW$T$31)
    3016                      .dwattr $C$DW$373, DW_AT_name("all")
    3017                      .dwattr $C$DW$373, DW_AT_TI_symbol_name("_all")
    3018                      .dwattr $C$DW$373, DW_AT_data_member_location[DW_OP_plus_uconst 0x0]
    3019                      .dwattr $C$DW$373, DW_AT_accessibility(DW_ACCESS_public)
    3020              $C$DW$374       .dwtag  DW_TAG_member
    3021                      .dwattr $C$DW$374, DW_AT_type(*$C$DW$T$120)
    3022                      .dwattr $C$DW$374, DW_AT_name("bit")
    3023                      .dwattr $C$DW$374, DW_AT_TI_symbol_name("_bit")
    3024                      .dwattr $C$DW$374, DW_AT_data_member_location[DW_OP_plus_uconst 0x0]
    3025                      .dwattr $C$DW$374, DW_AT_accessibility(DW_ACCESS_public)
    3026                      .dwendtag $C$DW$T$121
    3027              
    3028              
    3029              $C$DW$T$122     .dwtag  DW_TAG_structure_type
    3030                      .dwattr $C$DW$T$122, DW_AT_name("DBFEDHR_BITS")
    3031                      .dwattr $C$DW$T$122, DW_AT_byte_size(0x01)
    3032              $C$DW$375       .dwtag  DW_TAG_member
    3033                      .dwattr $C$DW$375, DW_AT_type(*$C$DW$T$31)
    3034                      .dwattr $C$DW$375, DW_AT_name("rsvd1")
    3035                      .dwattr $C$DW$375, DW_AT_TI_symbol_name("_rsvd1")
    3036                      .dwattr $C$DW$375, DW_AT_bit_offset(0x0f), DW_AT_bit_size(0x01)
    3037                      .dwattr $C$DW$375, DW_AT_data_member_location[DW_OP_plus_uconst 0x0]
    3038                      .dwattr $C$DW$375, DW_AT_accessibility(DW_ACCESS_public)
    3039              $C$DW$376       .dwtag  DW_TAG_member
    3040                      .dwattr $C$DW$376, DW_AT_type(*$C$DW$T$31)
    3041                      .dwattr $C$DW$376, DW_AT_name("rsvd2")
    3042                      .dwattr $C$DW$376, DW_AT_TI_symbol_name("_rsvd2")
    3043                      .dwattr $C$DW$376, DW_AT_bit_offset(0x08), DW_AT_bit_size(0x07)
    3044                      .dwattr $C$DW$376, DW_AT_data_member_location[DW_OP_plus_uconst 0x0]
    3045                      .dwattr $C$DW$376, DW_AT_accessibility(DW_ACCESS_public)
    3046              $C$DW$377       .dwtag  DW_TAG_member
    3047                      .dwattr $C$DW$377, DW_AT_type(*$C$DW$T$31)
    3048                      .dwattr $C$DW$377, DW_AT_name("rsvd3")
    3049                      .dwattr $C$DW$377, DW_AT_TI_symbol_name("_rsvd3")
    3050                      .dwattr $C$DW$377, DW_AT_bit_offset(0x07), DW_AT_bit_size(0x01)
    3051                      .dwattr $C$DW$377, DW_AT_data_member_location[DW_OP_plus_uconst 0x0]
    3052                      .dwattr $C$DW$377, DW_AT_accessibility(DW_ACCESS_public)
    3053              $C$DW$378       .dwtag  DW_TAG_member
    3054                      .dwattr $C$DW$378, DW_AT_type(*$C$DW$T$31)
    3055                      .dwattr $C$DW$378, DW_AT_name("DBFEDHR")
    3056                      .dwattr $C$DW$378, DW_AT_TI_symbol_name("_DBFEDHR")
TMS320C2000 Assembler PC v6.4.2 Thu Dec 14 13:36:50 2017

Tools Copyright (c) 1996-2015 Texas Instruments Incorporated
DRV830x_SPI.asm                                                      PAGE   57

    3057                      .dwattr $C$DW$378, DW_AT_bit_offset(0x00), DW_AT_bit_size(0x07)
    3058                      .dwattr $C$DW$378, DW_AT_data_member_location[DW_OP_plus_uconst 0x0]
    3059                      .dwattr $C$DW$378, DW_AT_accessibility(DW_ACCESS_public)
    3060                      .dwendtag $C$DW$T$122
    3061              
    3062              
    3063              $C$DW$T$123     .dwtag  DW_TAG_union_type
    3064                      .dwattr $C$DW$T$123, DW_AT_name("DBFEDHR_REG")
    3065                      .dwattr $C$DW$T$123, DW_AT_byte_size(0x01)
    3066              $C$DW$379       .dwtag  DW_TAG_member
    3067                      .dwattr $C$DW$379, DW_AT_type(*$C$DW$T$31)
    3068                      .dwattr $C$DW$379, DW_AT_name("all")
    3069                      .dwattr $C$DW$379, DW_AT_TI_symbol_name("_all")
    3070                      .dwattr $C$DW$379, DW_AT_data_member_location[DW_OP_plus_uconst 0x0]
    3071                      .dwattr $C$DW$379, DW_AT_accessibility(DW_ACCESS_public)
    3072              $C$DW$380       .dwtag  DW_TAG_member
    3073                      .dwattr $C$DW$380, DW_AT_type(*$C$DW$T$122)
    3074                      .dwattr $C$DW$380, DW_AT_name("bit")
    3075                      .dwattr $C$DW$380, DW_AT_TI_symbol_name("_bit")
    3076                      .dwattr $C$DW$380, DW_AT_data_member_location[DW_OP_plus_uconst 0x0]
    3077                      .dwattr $C$DW$380, DW_AT_accessibility(DW_ACCESS_public)
    3078                      .dwendtag $C$DW$T$123
    3079              
    3080              
    3081              $C$DW$T$124     .dwtag  DW_TAG_structure_type
    3082                      .dwattr $C$DW$T$124, DW_AT_name("DBREDHR_BITS")
    3083                      .dwattr $C$DW$T$124, DW_AT_byte_size(0x01)
    3084              $C$DW$381       .dwtag  DW_TAG_member
    3085                      .dwattr $C$DW$381, DW_AT_type(*$C$DW$T$31)
    3086                      .dwattr $C$DW$381, DW_AT_name("rsvd1")
    3087                      .dwattr $C$DW$381, DW_AT_TI_symbol_name("_rsvd1")
    3088                      .dwattr $C$DW$381, DW_AT_bit_offset(0x0f), DW_AT_bit_size(0x01)
    3089                      .dwattr $C$DW$381, DW_AT_data_member_location[DW_OP_plus_uconst 0x0]
    3090                      .dwattr $C$DW$381, DW_AT_accessibility(DW_ACCESS_public)
    3091              $C$DW$382       .dwtag  DW_TAG_member
    3092                      .dwattr $C$DW$382, DW_AT_type(*$C$DW$T$31)
    3093                      .dwattr $C$DW$382, DW_AT_name("rsvd2")
    3094                      .dwattr $C$DW$382, DW_AT_TI_symbol_name("_rsvd2")
    3095                      .dwattr $C$DW$382, DW_AT_bit_offset(0x08), DW_AT_bit_size(0x07)
    3096                      .dwattr $C$DW$382, DW_AT_data_member_location[DW_OP_plus_uconst 0x0]
    3097                      .dwattr $C$DW$382, DW_AT_accessibility(DW_ACCESS_public)
    3098              $C$DW$383       .dwtag  DW_TAG_member
    3099                      .dwattr $C$DW$383, DW_AT_type(*$C$DW$T$31)
    3100                      .dwattr $C$DW$383, DW_AT_name("rsvd3")
    3101                      .dwattr $C$DW$383, DW_AT_TI_symbol_name("_rsvd3")
    3102                      .dwattr $C$DW$383, DW_AT_bit_offset(0x07), DW_AT_bit_size(0x01)
    3103                      .dwattr $C$DW$383, DW_AT_data_member_location[DW_OP_plus_uconst 0x0]
    3104                      .dwattr $C$DW$383, DW_AT_accessibility(DW_ACCESS_public)
    3105              $C$DW$384       .dwtag  DW_TAG_member
    3106                      .dwattr $C$DW$384, DW_AT_type(*$C$DW$T$31)
    3107                      .dwattr $C$DW$384, DW_AT_name("DBREDHR")
    3108                      .dwattr $C$DW$384, DW_AT_TI_symbol_name("_DBREDHR")
    3109                      .dwattr $C$DW$384, DW_AT_bit_offset(0x00), DW_AT_bit_size(0x07)
    3110                      .dwattr $C$DW$384, DW_AT_data_member_location[DW_OP_plus_uconst 0x0]
    3111                      .dwattr $C$DW$384, DW_AT_accessibility(DW_ACCESS_public)
TMS320C2000 Assembler PC v6.4.2 Thu Dec 14 13:36:50 2017

Tools Copyright (c) 1996-2015 Texas Instruments Incorporated
DRV830x_SPI.asm                                                      PAGE   58

    3112                      .dwendtag $C$DW$T$124
    3113              
    3114              
    3115              $C$DW$T$125     .dwtag  DW_TAG_union_type
    3116                      .dwattr $C$DW$T$125, DW_AT_name("DBREDHR_REG")
    3117                      .dwattr $C$DW$T$125, DW_AT_byte_size(0x01)
    3118              $C$DW$385       .dwtag  DW_TAG_member
    3119                      .dwattr $C$DW$385, DW_AT_type(*$C$DW$T$31)
    3120                      .dwattr $C$DW$385, DW_AT_name("all")
    3121                      .dwattr $C$DW$385, DW_AT_TI_symbol_name("_all")
    3122                      .dwattr $C$DW$385, DW_AT_data_member_location[DW_OP_plus_uconst 0x0]
    3123                      .dwattr $C$DW$385, DW_AT_accessibility(DW_ACCESS_public)
    3124              $C$DW$386       .dwtag  DW_TAG_member
    3125                      .dwattr $C$DW$386, DW_AT_type(*$C$DW$T$124)
    3126                      .dwattr $C$DW$386, DW_AT_name("bit")
    3127                      .dwattr $C$DW$386, DW_AT_TI_symbol_name("_bit")
    3128                      .dwattr $C$DW$386, DW_AT_data_member_location[DW_OP_plus_uconst 0x0]
    3129                      .dwattr $C$DW$386, DW_AT_accessibility(DW_ACCESS_public)
    3130                      .dwendtag $C$DW$T$125
    3131              
    3132              
    3133              $C$DW$T$126     .dwtag  DW_TAG_structure_type
    3134                      .dwattr $C$DW$T$126, DW_AT_name("DCACTL_BITS")
    3135                      .dwattr $C$DW$T$126, DW_AT_byte_size(0x01)
    3136              $C$DW$387       .dwtag  DW_TAG_member
    3137                      .dwattr $C$DW$387, DW_AT_type(*$C$DW$T$31)
    3138                      .dwattr $C$DW$387, DW_AT_name("EVT1SRCSEL")
    3139                      .dwattr $C$DW$387, DW_AT_TI_symbol_name("_EVT1SRCSEL")
    3140                      .dwattr $C$DW$387, DW_AT_bit_offset(0x0f), DW_AT_bit_size(0x01)
    3141                      .dwattr $C$DW$387, DW_AT_data_member_location[DW_OP_plus_uconst 0x0]
    3142                      .dwattr $C$DW$387, DW_AT_accessibility(DW_ACCESS_public)
    3143              $C$DW$388       .dwtag  DW_TAG_member
    3144                      .dwattr $C$DW$388, DW_AT_type(*$C$DW$T$31)
    3145                      .dwattr $C$DW$388, DW_AT_name("EVT1FRCSYNCSEL")
    3146                      .dwattr $C$DW$388, DW_AT_TI_symbol_name("_EVT1FRCSYNCSEL")
    3147                      .dwattr $C$DW$388, DW_AT_bit_offset(0x0e), DW_AT_bit_size(0x01)
    3148                      .dwattr $C$DW$388, DW_AT_data_member_location[DW_OP_plus_uconst 0x0]
    3149                      .dwattr $C$DW$388, DW_AT_accessibility(DW_ACCESS_public)
    3150              $C$DW$389       .dwtag  DW_TAG_member
    3151                      .dwattr $C$DW$389, DW_AT_type(*$C$DW$T$31)
    3152                      .dwattr $C$DW$389, DW_AT_name("EVT1SOCE")
    3153                      .dwattr $C$DW$389, DW_AT_TI_symbol_name("_EVT1SOCE")
    3154                      .dwattr $C$DW$389, DW_AT_bit_offset(0x0d), DW_AT_bit_size(0x01)
    3155                      .dwattr $C$DW$389, DW_AT_data_member_location[DW_OP_plus_uconst 0x0]
    3156                      .dwattr $C$DW$389, DW_AT_accessibility(DW_ACCESS_public)
    3157              $C$DW$390       .dwtag  DW_TAG_member
    3158                      .dwattr $C$DW$390, DW_AT_type(*$C$DW$T$31)
    3159                      .dwattr $C$DW$390, DW_AT_name("EVT1SYNCE")
    3160                      .dwattr $C$DW$390, DW_AT_TI_symbol_name("_EVT1SYNCE")
    3161                      .dwattr $C$DW$390, DW_AT_bit_offset(0x0c), DW_AT_bit_size(0x01)
    3162                      .dwattr $C$DW$390, DW_AT_data_member_location[DW_OP_plus_uconst 0x0]
    3163                      .dwattr $C$DW$390, DW_AT_accessibility(DW_ACCESS_public)
    3164              $C$DW$391       .dwtag  DW_TAG_member
    3165                      .dwattr $C$DW$391, DW_AT_type(*$C$DW$T$31)
    3166                      .dwattr $C$DW$391, DW_AT_name("rsvd1")
TMS320C2000 Assembler PC v6.4.2 Thu Dec 14 13:36:50 2017

Tools Copyright (c) 1996-2015 Texas Instruments Incorporated
DRV830x_SPI.asm                                                      PAGE   59

    3167                      .dwattr $C$DW$391, DW_AT_TI_symbol_name("_rsvd1")
    3168                      .dwattr $C$DW$391, DW_AT_bit_offset(0x08), DW_AT_bit_size(0x04)
    3169                      .dwattr $C$DW$391, DW_AT_data_member_location[DW_OP_plus_uconst 0x0]
    3170                      .dwattr $C$DW$391, DW_AT_accessibility(DW_ACCESS_public)
    3171              $C$DW$392       .dwtag  DW_TAG_member
    3172                      .dwattr $C$DW$392, DW_AT_type(*$C$DW$T$31)
    3173                      .dwattr $C$DW$392, DW_AT_name("EVT2SRCSEL")
    3174                      .dwattr $C$DW$392, DW_AT_TI_symbol_name("_EVT2SRCSEL")
