TMS320C2000 Assembler PC v6.4.2 Thu Dec 14 13:37:25 2017

Tools Copyright (c) 1996-2015 Texas Instruments Incorporated
F2837xS_Gpio.asm                                                     PAGE    1

       1              ;***************************************************************
       2              ;* TMS320C2000 C/C++ Codegen                         PC v6.4.2 *
       3              ;* Date/Time created: Thu Dec 14 13:37:23 2017                 *
       4              ;***************************************************************
       5                      .compiler_opts --cla_support=cla0 --float_support=fpu32 --hll_source=on --mem_model:code=flat --mem_m
       6        0002  FP      .set    XAR2
       7              
       8              $C$DW$CU        .dwtag  DW_TAG_compile_unit
       9                      .dwattr $C$DW$CU, DW_AT_name("C:/ti/controlSUITE/device_support/F2837xS/v170/F2837xS_common/source/F2
      10                      .dwattr $C$DW$CU, DW_AT_producer("TI TMS320C2000 C/C++ Codegen PC v6.4.2 Copyright (c) 1996-2015 Texa
      11                      .dwattr $C$DW$CU, DW_AT_TI_version(0x01)
      12                      .dwattr $C$DW$CU, DW_AT_comp_dir("U:\02_MSE\MT\07_Software\CCS_workspace\DiffDrive_v0.93\F2837x_FLASH
      13              $C$DW$1 .dwtag  DW_TAG_variable, DW_AT_name("InputXbarRegs")
      14                      .dwattr $C$DW$1, DW_AT_TI_symbol_name("_InputXbarRegs")
      15                      .dwattr $C$DW$1, DW_AT_type(*$C$DW$T$370)
      16                      .dwattr $C$DW$1, DW_AT_declaration
      17                      .dwattr $C$DW$1, DW_AT_external
      18              $C$DW$2 .dwtag  DW_TAG_variable, DW_AT_name("GpioDataRegs")
      19                      .dwattr $C$DW$2, DW_AT_TI_symbol_name("_GpioDataRegs")
      20                      .dwattr $C$DW$2, DW_AT_type(*$C$DW$T$368)
      21                      .dwattr $C$DW$2, DW_AT_declaration
      22                      .dwattr $C$DW$2, DW_AT_external
      23              $C$DW$3 .dwtag  DW_TAG_variable, DW_AT_name("DevCfgRegs")
      24                      .dwattr $C$DW$3, DW_AT_TI_symbol_name("_DevCfgRegs")
      25                      .dwattr $C$DW$3, DW_AT_type(*$C$DW$T$353)
      26                      .dwattr $C$DW$3, DW_AT_declaration
      27                      .dwattr $C$DW$3, DW_AT_external
      28              $C$DW$4 .dwtag  DW_TAG_variable, DW_AT_name("GpioCtrlRegs")
      29                      .dwattr $C$DW$4, DW_AT_TI_symbol_name("_GpioCtrlRegs")
      30                      .dwattr $C$DW$4, DW_AT_type(*$C$DW$T$366)
      31                      .dwattr $C$DW$4, DW_AT_declaration
      32                      .dwattr $C$DW$4, DW_AT_external
      33              ;       C:\ti\ccsv6\tools\compiler\ti-cgt-c2000_6.4.2\bin\ac2000.exe -@C:\\Users\\ficm\\AppData\\Local\\Temp\
      34 00000000               .sect   ".text"
      35                      .clink
      36                      .global _InitGpio
      37              
      38              $C$DW$5 .dwtag  DW_TAG_subprogram, DW_AT_name("InitGpio")
      39                      .dwattr $C$DW$5, DW_AT_low_pc(_InitGpio)
      40                      .dwattr $C$DW$5, DW_AT_high_pc(0x00)
      41                      .dwattr $C$DW$5, DW_AT_TI_symbol_name("_InitGpio")
      42                      .dwattr $C$DW$5, DW_AT_external
      43                      .dwattr $C$DW$5, DW_AT_TI_begin_file("C:/ti/controlSUITE/device_support/F2837xS/v170/F2837xS_common/s
      44                      .dwattr $C$DW$5, DW_AT_TI_begin_line(0x14)
      45                      .dwattr $C$DW$5, DW_AT_TI_begin_column(0x06)
      46                      .dwattr $C$DW$5, DW_AT_TI_max_frame_size(-6)
      47                      .dwpsn  file "C:/ti/controlSUITE/device_support/F2837xS/v170/F2837xS_common/source/F2837xS_Gpio.c",li
      48              
      49                      .dwfde $C$DW$CIE, _InitGpio
      50              
      51              ;***************************************************************
      52              ;* FNAME: _InitGpio                     FR SIZE:   4           *
      53              ;*                                                             *
      54              ;* FUNCTION ENVIRONMENT                                        *
      55              ;*                                                             *
TMS320C2000 Assembler PC v6.4.2 Thu Dec 14 13:37:25 2017

Tools Copyright (c) 1996-2015 Texas Instruments Incorporated
F2837xS_Gpio.asm                                                     PAGE    2

      56              ;* FUNCTION PROPERTIES                                         *
      57              ;*                            0 Parameter,  3 Auto,  0 SOE     *
      58              ;***************************************************************
      59              
      60 00000000       _InitGpio:
      61                      .dwcfi  cfa_offset, -2
      62                      .dwcfi  save_reg_to_mem, 26, 0
      63 00000000 FE04          ADDB      SP,#4                 ; [CPU_U] 
      64                      .dwcfi  cfa_offset, -6
      65              $C$DW$6 .dwtag  DW_TAG_variable, DW_AT_name("gpioBaseAddr")
      66                      .dwattr $C$DW$6, DW_AT_TI_symbol_name("_gpioBaseAddr")
      67                      .dwattr $C$DW$6, DW_AT_type(*$C$DW$T$382)
      68                      .dwattr $C$DW$6, DW_AT_location[DW_OP_breg20 -2]
      69              $C$DW$7 .dwtag  DW_TAG_variable, DW_AT_name("regOffset")
      70                      .dwattr $C$DW$7, DW_AT_TI_symbol_name("_regOffset")
      71                      .dwattr $C$DW$7, DW_AT_type(*$C$DW$T$19)
      72                      .dwattr $C$DW$7, DW_AT_location[DW_OP_breg20 -3]
      73                      .dwpsn  file "C:/ti/controlSUITE/device_support/F2837xS/v170/F2837xS_common/source/F2837xS_Gpio.c",li
      74 00000001 7622   EALLOW
      75                      .dwpsn  file "C:/ti/controlSUITE/device_support/F2837xS/v170/F2837xS_common/source/F2837xS_Gpio.c",li
      76 00000002 0200          MOVB      ACC,#0                ; [CPU_] |27| 
      77 00000003 761F!         MOVW      DP,#_GpioCtrlRegs+60  ; [CPU_U] 
         00000004 0000 
      78 00000005 1E3C!         MOVL      @_GpioCtrlRegs+60,ACC ; [CPU_] |27| 
      79                      .dwpsn  file "C:/ti/controlSUITE/device_support/F2837xS/v170/F2837xS_common/source/F2837xS_Gpio.c",li
      80 00000006 761F!         MOVW      DP,#_GpioCtrlRegs+124 ; [CPU_U] 
         00000007 0001 
      81 00000008 1E3C!         MOVL      @_GpioCtrlRegs+124,ACC ; [CPU_] |28| 
      82                      .dwpsn  file "C:/ti/controlSUITE/device_support/F2837xS/v170/F2837xS_common/source/F2837xS_Gpio.c",li
      83 00000009 761F!         MOVW      DP,#_GpioCtrlRegs+188 ; [CPU_U] 
         0000000a 0002 
      84 0000000b 1E3C!         MOVL      @_GpioCtrlRegs+188,ACC ; [CPU_] |29| 
      85                      .dwpsn  file "C:/ti/controlSUITE/device_support/F2837xS/v170/F2837xS_common/source/F2837xS_Gpio.c",li
      86 0000000c 761F!         MOVW      DP,#_GpioCtrlRegs+252 ; [CPU_U] 
         0000000d 0003 
      87 0000000e 1E3C!         MOVL      @_GpioCtrlRegs+252,ACC ; [CPU_] |30| 
      88                      .dwpsn  file "C:/ti/controlSUITE/device_support/F2837xS/v170/F2837xS_common/source/F2837xS_Gpio.c",li
      89 0000000f 761F!         MOVW      DP,#_GpioCtrlRegs+316 ; [CPU_U] 
         00000010 0004 
      90 00000011 1E3C!         MOVL      @_GpioCtrlRegs+316,ACC ; [CPU_] |31| 
      91                      .dwpsn  file "C:/ti/controlSUITE/device_support/F2837xS/v170/F2837xS_common/source/F2837xS_Gpio.c",li
      92 00000012 761F!         MOVW      DP,#_GpioCtrlRegs+380 ; [CPU_U] 
         00000013 0005 
      93 00000014 1E3C!         MOVL      @_GpioCtrlRegs+380,ACC ; [CPU_] |32| 
      94                      .dwpsn  file "C:/ti/controlSUITE/device_support/F2837xS/v170/F2837xS_common/source/F2837xS_Gpio.c",li
      95 00000015 8F00!         MOVL      XAR4,#_GpioCtrlRegs   ; [CPU_U] |37| 
         00000016 0000 
      96 00000017 A842          MOVL      *-SP[2],XAR4          ; [CPU_] |37| 
      97                      .dwpsn  file "C:/ti/controlSUITE/device_support/F2837xS/v170/F2837xS_common/source/F2837xS_Gpio.c",li
      98 00000018 2B43          MOV       *-SP[3],#0            ; [CPU_] |38| 
      99                      .dwpsn  file "C:/ti/controlSUITE/device_support/F2837xS/v170/F2837xS_common/source/F2837xS_Gpio.c",li
     100 00000019 9243          MOV       AL,*-SP[3]            ; [CPU_] |38| 
     101 0000001a 52C0          CMPB      AL,#192               ; [CPU_] |38| 
     102 0000001b 56C7          BF        $C$L3,HIS             ; [CPU_] |38| 
         0000001c 0011 
TMS320C2000 Assembler PC v6.4.2 Thu Dec 14 13:37:25 2017

Tools Copyright (c) 1996-2015 Texas Instruments Incorporated
F2837xS_Gpio.asm                                                     PAGE    3

     103                      ; branchcc occurs ; [] |38| 
     104 0000001d 2901          CLRC      SXM                   ; [CPU_] 
     105 0000001e BE00          MOVB      XAR6,#0               ; [CPU_] |44| 
     106 0000001f       $C$L1:    
     107                      .dwpsn  file "C:/ti/controlSUITE/device_support/F2837xS/v170/F2837xS_common/source/F2837xS_Gpio.c",li
     108 0000001f 901F          ANDB      AL,#0x1f              ; [CPU_] |43| 
     109 00000020 5206          CMPB      AL,#6                 ; [CPU_] |43| 
     110 00000021 EC06          BF        $C$L2,EQ              ; [CPU_] |43| 
     111                      ; branchcc occurs ; [] |43| 
     112                      .dwpsn  file "C:/ti/controlSUITE/device_support/F2837xS/v170/F2837xS_common/source/F2837xS_Gpio.c",li
     113 00000022 5603          MOV       ACC,*-SP[3] << 1      ; [CPU_] |44| 
         00000023 0143 
     114 00000024 0742          ADDL      ACC,*-SP[2]           ; [CPU_] |44| 
     115 00000025 8AA9          MOVL      XAR4,ACC              ; [CPU_] |44| 
     116 00000026 C2C4          MOVL      *+XAR4[0],XAR6        ; [CPU_] |44| 
     117 00000027       $C$L2:    
     118                      .dwpsn  file "C:/ti/controlSUITE/device_support/F2837xS/v170/F2837xS_common/source/F2837xS_Gpio.c",li
     119 00000027 0A43          INC       *-SP[3]               ; [CPU_] |38| 
     120                      .dwpsn  file "C:/ti/controlSUITE/device_support/F2837xS/v170/F2837xS_common/source/F2837xS_Gpio.c",li
     121 00000028 9243          MOV       AL,*-SP[3]            ; [CPU_] |38| 
     122 00000029 52C0          CMPB      AL,#192               ; [CPU_] |38| 
     123 0000002a 56C8          BF        $C$L1,LO              ; [CPU_] |38| 
         0000002b FFF5 
     124                      ; branchcc occurs ; [] |38| 
     125 0000002c       $C$L3:    
     126                      .dwpsn  file "C:/ti/controlSUITE/device_support/F2837xS/v170/F2837xS_common/source/F2837xS_Gpio.c",li
     127 0000002c 8F00!         MOVL      XAR4,#_GpioDataRegs   ; [CPU_U] |47| 
         0000002d 0000 
     128 0000002e A842          MOVL      *-SP[2],XAR4          ; [CPU_] |47| 
     129                      .dwpsn  file "C:/ti/controlSUITE/device_support/F2837xS/v170/F2837xS_common/source/F2837xS_Gpio.c",li
     130 0000002f 2B43          MOV       *-SP[3],#0            ; [CPU_] |48| 
     131                      .dwpsn  file "C:/ti/controlSUITE/device_support/F2837xS/v170/F2837xS_common/source/F2837xS_Gpio.c",li
     132 00000030 9243          MOV       AL,*-SP[3]            ; [CPU_] |48| 
     133 00000031 5218          CMPB      AL,#24                ; [CPU_] |48| 
     134 00000032 56C7          BF        $C$L5,HIS             ; [CPU_] |48| 
         00000033 000E 
     135                      ; branchcc occurs ; [] |48| 
     136 00000034 2901          CLRC      SXM                   ; [CPU_] 
     137 00000035 BE00          MOVB      XAR6,#0               ; [CPU_] |50| 
     138 00000036       $C$L4:    
     139                      .dwpsn  file "C:/ti/controlSUITE/device_support/F2837xS/v170/F2837xS_common/source/F2837xS_Gpio.c",li
     140 00000036 5603          MOV       ACC,*-SP[3] << 1      ; [CPU_] |50| 
         00000037 0143 
     141 00000038 0742          ADDL      ACC,*-SP[2]           ; [CPU_] |50| 
     142 00000039 8AA9          MOVL      XAR4,ACC              ; [CPU_] |50| 
     143 0000003a C2C4          MOVL      *+XAR4[0],XAR6        ; [CPU_] |50| 
     144                      .dwpsn  file "C:/ti/controlSUITE/device_support/F2837xS/v170/F2837xS_common/source/F2837xS_Gpio.c",li
     145 0000003b 0A43          INC       *-SP[3]               ; [CPU_] |48| 
     146                      .dwpsn  file "C:/ti/controlSUITE/device_support/F2837xS/v170/F2837xS_common/source/F2837xS_Gpio.c",li
     147 0000003c 9243          MOV       AL,*-SP[3]            ; [CPU_] |48| 
     148 0000003d 5218          CMPB      AL,#24                ; [CPU_] |48| 
     149 0000003e 56C8          BF        $C$L4,LO              ; [CPU_] |48| 
         0000003f FFF8 
     150                      ; branchcc occurs ; [] |48| 
     151 00000040       $C$L5:    
TMS320C2000 Assembler PC v6.4.2 Thu Dec 14 13:37:25 2017

Tools Copyright (c) 1996-2015 Texas Instruments Incorporated
F2837xS_Gpio.asm                                                     PAGE    4

     152                      .dwpsn  file "C:/ti/controlSUITE/device_support/F2837xS/v170/F2837xS_common/source/F2837xS_Gpio.c",li
     153 00000040 761A   EDIS
     154                      .dwpsn  file "C:/ti/controlSUITE/device_support/F2837xS/v170/F2837xS_common/source/F2837xS_Gpio.c",li
     155 00000041 FE84          SUBB      SP,#4                 ; [CPU_U] 
     156                      .dwcfi  cfa_offset, -2
     157 00000042 FF69          SPM       #0                    ; [CPU_] 
     158              $C$DW$8 .dwtag  DW_TAG_TI_branch
     159                      .dwattr $C$DW$8, DW_AT_low_pc(0x00)
     160                      .dwattr $C$DW$8, DW_AT_TI_return
     161 00000043 0006          LRETR     ; [CPU_] 
     162                      ; return occurs ; [] 
     163                      .dwattr $C$DW$5, DW_AT_TI_end_file("C:/ti/controlSUITE/device_support/F2837xS/v170/F2837xS_common/sou
     164                      .dwattr $C$DW$5, DW_AT_TI_end_line(0x36)
     165                      .dwattr $C$DW$5, DW_AT_TI_end_column(0x01)
     166                      .dwendentry
     167                      .dwendtag $C$DW$5
     168              
     169 00000044               .sect   ".text"
     170                      .clink
     171                      .global _GPIO_SetupPinMux
     172              
     173              $C$DW$9 .dwtag  DW_TAG_subprogram, DW_AT_name("GPIO_SetupPinMux")
     174                      .dwattr $C$DW$9, DW_AT_low_pc(_GPIO_SetupPinMux)
     175                      .dwattr $C$DW$9, DW_AT_high_pc(0x00)
     176                      .dwattr $C$DW$9, DW_AT_TI_symbol_name("_GPIO_SetupPinMux")
     177                      .dwattr $C$DW$9, DW_AT_external
     178                      .dwattr $C$DW$9, DW_AT_TI_begin_file("C:/ti/controlSUITE/device_support/F2837xS/v170/F2837xS_common/s
     179                      .dwattr $C$DW$9, DW_AT_TI_begin_line(0x3b)
     180                      .dwattr $C$DW$9, DW_AT_TI_begin_column(0x06)
     181                      .dwattr $C$DW$9, DW_AT_TI_max_frame_size(-18)
     182                      .dwpsn  file "C:/ti/controlSUITE/device_support/F2837xS/v170/F2837xS_common/source/F2837xS_Gpio.c",li
     183              
     184                      .dwfde $C$DW$CIE, _GPIO_SetupPinMux
     185              $C$DW$10        .dwtag  DW_TAG_formal_parameter, DW_AT_name("pin")
     186                      .dwattr $C$DW$10, DW_AT_TI_symbol_name("_pin")
     187                      .dwattr $C$DW$10, DW_AT_type(*$C$DW$T$19)
     188                      .dwattr $C$DW$10, DW_AT_location[DW_OP_reg0]
     189              $C$DW$11        .dwtag  DW_TAG_formal_parameter, DW_AT_name("cpu")
     190                      .dwattr $C$DW$11, DW_AT_TI_symbol_name("_cpu")
     191                      .dwattr $C$DW$11, DW_AT_type(*$C$DW$T$19)
     192                      .dwattr $C$DW$11, DW_AT_location[DW_OP_reg1]
     193              $C$DW$12        .dwtag  DW_TAG_formal_parameter, DW_AT_name("peripheral")
     194                      .dwattr $C$DW$12, DW_AT_TI_symbol_name("_peripheral")
     195                      .dwattr $C$DW$12, DW_AT_type(*$C$DW$T$19)
     196                      .dwattr $C$DW$12, DW_AT_location[DW_OP_reg12]
     197              
     198              ;***************************************************************
     199              ;* FNAME: _GPIO_SetupPinMux             FR SIZE:  16           *
     200              ;*                                                             *
     201              ;* FUNCTION ENVIRONMENT                                        *
     202              ;*                                                             *
     203              ;* FUNCTION PROPERTIES                                         *
     204              ;*                            0 Parameter, 15 Auto,  0 SOE     *
     205              ;***************************************************************
     206              
TMS320C2000 Assembler PC v6.4.2 Thu Dec 14 13:37:25 2017

Tools Copyright (c) 1996-2015 Texas Instruments Incorporated
F2837xS_Gpio.asm                                                     PAGE    5

     207 00000044       _GPIO_SetupPinMux:
     208                      .dwcfi  cfa_offset, -2
     209                      .dwcfi  save_reg_to_mem, 26, 0
     210 00000044 FE10          ADDB      SP,#16                ; [CPU_U] 
     211                      .dwcfi  cfa_offset, -18
     212              $C$DW$13        .dwtag  DW_TAG_variable, DW_AT_name("pin")
     213                      .dwattr $C$DW$13, DW_AT_TI_symbol_name("_pin")
     214                      .dwattr $C$DW$13, DW_AT_type(*$C$DW$T$19)
     215                      .dwattr $C$DW$13, DW_AT_location[DW_OP_breg20 -1]
     216              $C$DW$14        .dwtag  DW_TAG_variable, DW_AT_name("cpu")
     217                      .dwattr $C$DW$14, DW_AT_TI_symbol_name("_cpu")
     218                      .dwattr $C$DW$14, DW_AT_type(*$C$DW$T$19)
     219                      .dwattr $C$DW$14, DW_AT_location[DW_OP_breg20 -2]
     220              $C$DW$15        .dwtag  DW_TAG_variable, DW_AT_name("peripheral")
     221                      .dwattr $C$DW$15, DW_AT_TI_symbol_name("_peripheral")
     222                      .dwattr $C$DW$15, DW_AT_type(*$C$DW$T$19)
     223                      .dwattr $C$DW$15, DW_AT_location[DW_OP_breg20 -3]
     224              $C$DW$16        .dwtag  DW_TAG_variable, DW_AT_name("gpioBaseAddr")
     225                      .dwattr $C$DW$16, DW_AT_TI_symbol_name("_gpioBaseAddr")
     226                      .dwattr $C$DW$16, DW_AT_type(*$C$DW$T$382)
     227                      .dwattr $C$DW$16, DW_AT_location[DW_OP_breg20 -6]
     228              $C$DW$17        .dwtag  DW_TAG_variable, DW_AT_name("mux")
     229                      .dwattr $C$DW$17, DW_AT_TI_symbol_name("_mux")
     230                      .dwattr $C$DW$17, DW_AT_type(*$C$DW$T$382)
     231                      .dwattr $C$DW$17, DW_AT_location[DW_OP_breg20 -8]
     232              $C$DW$18        .dwtag  DW_TAG_variable, DW_AT_name("gmux")
     233                      .dwattr $C$DW$18, DW_AT_TI_symbol_name("_gmux")
     234                      .dwattr $C$DW$18, DW_AT_type(*$C$DW$T$382)
     235                      .dwattr $C$DW$18, DW_AT_location[DW_OP_breg20 -10]
     236              $C$DW$19        .dwtag  DW_TAG_variable, DW_AT_name("csel")
     237                      .dwattr $C$DW$19, DW_AT_TI_symbol_name("_csel")
     238                      .dwattr $C$DW$19, DW_AT_type(*$C$DW$T$382)
     239                      .dwattr $C$DW$19, DW_AT_location[DW_OP_breg20 -12]
     240              $C$DW$20        .dwtag  DW_TAG_variable, DW_AT_name("pin32")
     241                      .dwattr $C$DW$20, DW_AT_TI_symbol_name("_pin32")
     242                      .dwattr $C$DW$20, DW_AT_type(*$C$DW$T$19)
     243                      .dwattr $C$DW$20, DW_AT_location[DW_OP_breg20 -13]
     244              $C$DW$21        .dwtag  DW_TAG_variable, DW_AT_name("pin16")
     245                      .dwattr $C$DW$21, DW_AT_TI_symbol_name("_pin16")
     246                      .dwattr $C$DW$21, DW_AT_type(*$C$DW$T$19)
     247                      .dwattr $C$DW$21, DW_AT_location[DW_OP_breg20 -14]
     248              $C$DW$22        .dwtag  DW_TAG_variable, DW_AT_name("pin8")
     249                      .dwattr $C$DW$22, DW_AT_TI_symbol_name("_pin8")
     250                      .dwattr $C$DW$22, DW_AT_type(*$C$DW$T$19)
     251                      .dwattr $C$DW$22, DW_AT_location[DW_OP_breg20 -15]
     252 00000045 7C43          MOV       *-SP[3],AR4           ; [CPU_] |60| 
     253 00000046 9742          MOV       *-SP[2],AH            ; [CPU_] |60| 
     254 00000047 9641          MOV       *-SP[1],AL            ; [CPU_] |60| 
     255                      .dwpsn  file "C:/ti/controlSUITE/device_support/F2837xS/v170/F2837xS_common/source/F2837xS_Gpio.c",li
     256 00000048 901F          ANDB      AL,#0x1f              ; [CPU_] |65| 
     257 00000049 964D          MOV       *-SP[13],AL           ; [CPU_] |65| 
     258                      .dwpsn  file "C:/ti/controlSUITE/device_support/F2837xS/v170/F2837xS_common/source/F2837xS_Gpio.c",li
     259 0000004a 9241          MOV       AL,*-SP[1]            ; [CPU_] |66| 
     260 0000004b 900F          ANDB      AL,#0x0f              ; [CPU_] |66| 
     261 0000004c 964E          MOV       *-SP[14],AL           ; [CPU_] |66| 
TMS320C2000 Assembler PC v6.4.2 Thu Dec 14 13:37:25 2017

Tools Copyright (c) 1996-2015 Texas Instruments Incorporated
F2837xS_Gpio.asm                                                     PAGE    6

     262                      .dwpsn  file "C:/ti/controlSUITE/device_support/F2837xS/v170/F2837xS_common/source/F2837xS_Gpio.c",li
     263 0000004d 9241          MOV       AL,*-SP[1]            ; [CPU_] |67| 
     264 0000004e 9007          ANDB      AL,#0x07              ; [CPU_] |67| 
     265 0000004f 964F          MOV       *-SP[15],AL           ; [CPU_] |67| 
     266                      .dwpsn  file "C:/ti/controlSUITE/device_support/F2837xS/v170/F2837xS_common/source/F2837xS_Gpio.c",li
     267 00000050 2901          CLRC      SXM                   ; [CPU_] 
     268 00000051 8F00!         MOVL      XAR4,#_GpioCtrlRegs   ; [CPU_U] |68| 
         00000052 0000 
     269 00000053 9241          MOV       AL,*-SP[1]            ; [CPU_] |68| 
     270 00000054 FFC4          LSR       AL,5                  ; [CPU_] |68| 
     271 00000055 FF84          LSL       AL,5                  ; [CPU_] |68| 
     272 00000056 5603          MOV       ACC,AL << 1           ; [CPU_] |68| 
         00000057 01A9 
     273 00000058 5601          ADDL      XAR4,ACC              ; [CPU_] |68| 
         00000059 00A4 
     274 0000005a A846          MOVL      *-SP[6],XAR4          ; [CPU_] |68| 
     275                      .dwpsn  file "C:/ti/controlSUITE/device_support/F2837xS/v170/F2837xS_common/source/F2837xS_Gpio.c",li
     276 0000005b 9242          MOV       AL,*-SP[2]            ; [CPU_] |71| 
     277 0000005c 5203          CMPB      AL,#3                 ; [CPU_] |71| 
     278 0000005d 56C6          BF        $C$L7,HI              ; [CPU_] |71| 
         0000005e 0072 
     279                      ; branchcc occurs ; [] |71| 
     280 0000005f 9243          MOV       AL,*-SP[3]            ; [CPU_] |71| 
     281 00000060 520F          CMPB      AL,#15                ; [CPU_] |71| 
     282 00000061 56C9          BF        $C$L6,LOS             ; [CPU_] |71| 
         00000062 0003 
     283                      ; branchcc occurs ; [] |71| 
     284 00000063 6F6C          B         $C$L7,UNC             ; [CPU_] |71| 
     285                      ; branch occurs ; [] |71| 
     286 00000064       $C$L6:    
     287                      .dwpsn  file "C:/ti/controlSUITE/device_support/F2837xS/v170/F2837xS_common/source/F2837xS_Gpio.c",li
     288 00000064 924D          MOV       AL,*-SP[13]           ; [CPU_] |82| 
     289 00000065 FFC3          LSR       AL,4                  ; [CPU_] |82| 
     290 00000066 5603          MOV       ACC,AL << 1           ; [CPU_] |82| 
         00000067 01A9 
     291 00000068 0746          ADDL      ACC,*-SP[6]           ; [CPU_] |82| 
     292 00000069 0906          ADDB      ACC,#6                ; [CPU_] |82| 
     293 0000006a 1E48          MOVL      *-SP[8],ACC           ; [CPU_] |82| 
     294                      .dwpsn  file "C:/ti/controlSUITE/device_support/F2837xS/v170/F2837xS_common/source/F2837xS_Gpio.c",li
     295 0000006b 924D          MOV       AL,*-SP[13]           ; [CPU_] |83| 
     296 0000006c FFC3          LSR       AL,4                  ; [CPU_] |83| 
     297 0000006d 5603          MOV       ACC,AL << 1           ; [CPU_] |83| 
         0000006e 01A9 
     298 0000006f 0746          ADDL      ACC,*-SP[6]           ; [CPU_] |83| 
     299 00000070 0920          ADDB      ACC,#32               ; [CPU_] |83| 
     300 00000071 1E4A          MOVL      *-SP[10],ACC          ; [CPU_] |83| 
     301                      .dwpsn  file "C:/ti/controlSUITE/device_support/F2837xS/v170/F2837xS_common/source/F2837xS_Gpio.c",li
     302 00000072 924D          MOV       AL,*-SP[13]           ; [CPU_] |84| 
     303 00000073 FFC2          LSR       AL,3                  ; [CPU_] |84| 
     304 00000074 5603          MOV       ACC,AL << 1           ; [CPU_] |84| 
         00000075 01A9 
     305 00000076 0746          ADDL      ACC,*-SP[6]           ; [CPU_] |84| 
     306 00000077 0928          ADDB      ACC,#40               ; [CPU_] |84| 
     307 00000078 1E4C          MOVL      *-SP[12],ACC          ; [CPU_] |84| 
     308                      .dwpsn  file "C:/ti/controlSUITE/device_support/F2837xS/v170/F2837xS_common/source/F2837xS_Gpio.c",li
TMS320C2000 Assembler PC v6.4.2 Thu Dec 14 13:37:25 2017

Tools Copyright (c) 1996-2015 Texas Instruments Incorporated
F2837xS_Gpio.asm                                                     PAGE    7

     309 00000079 7622   EALLOW
     310                      .dwpsn  file "C:/ti/controlSUITE/device_support/F2837xS/v170/F2837xS_common/source/F2837xS_Gpio.c",li
     311 0000007a FF69          SPM       #0                    ; [CPU_] 
     312 0000007b 0203          MOVB      ACC,#3                ; [CPU_] |95| 
     313 0000007c 8A48          MOVL      XAR4,*-SP[8]          ; [CPU_] |95| 
     314 0000007d FF5A          MOVL      P,ACC                 ; [CPU_] |95| 
     315 0000007e 5603          MOV       ACC,*-SP[14] << #1    ; [CPU_] |95| 
         0000007f 014E 
     316 00000080 16A9          MOVP      T,AL                  ; [CPU_] 
     317 00000081 563B          LSLL      ACC,T                 ; [CPU_] |95| 
     318 00000082 FF55          NOT       ACC                   ; [CPU_] |95| 
     319 00000083 FF5A          MOVL      P,ACC                 ; [CPU_] |95| 
     320 00000084 92AB          MOV       AL,PL                 ; [CPU_] |95| 
     321 00000085 C0C4          AND       *+XAR4[0],AL          ; [CPU_] |95| 
     322 00000086 92AA          MOV       AL,PH                 ; [CPU_] |95| 
     323 00000087 C0CC          AND       *+XAR4[1],AL          ; [CPU_] |95| 
     324                      .dwpsn  file "C:/ti/controlSUITE/device_support/F2837xS/v170/F2837xS_common/source/F2837xS_Gpio.c",li
     325 00000088 0203          MOVB      ACC,#3                ; [CPU_] |96| 
     326 00000089 FF5A          MOVL      P,ACC                 ; [CPU_] |96| 
     327 0000008a 8A4A          MOVL      XAR4,*-SP[10]         ; [CPU_] |96| 
     328 0000008b 5603          MOV       ACC,*-SP[14] << #1    ; [CPU_] |96| 
         0000008c 014E 
     329 0000008d 16A9          MOVP      T,AL                  ; [CPU_] 
     330 0000008e 563B          LSLL      ACC,T                 ; [CPU_] |96| 
     331 0000008f FF55          NOT       ACC                   ; [CPU_] |96| 
     332 00000090 FF5A          MOVL      P,ACC                 ; [CPU_] |96| 
     333 00000091 92AB          MOV       AL,PL                 ; [CPU_] |96| 
     334 00000092 C0C4          AND       *+XAR4[0],AL          ; [CPU_] |96| 
     335 00000093 92AA          MOV       AL,PH                 ; [CPU_] |96| 
     336 00000094 C0CC          AND       *+XAR4[1],AL          ; [CPU_] |96| 
     337                      .dwpsn  file "C:/ti/controlSUITE/device_support/F2837xS/v170/F2837xS_common/source/F2837xS_Gpio.c",li
     338 00000095 0203          MOVB      ACC,#3                ; [CPU_] |97| 
     339 00000096 FF5A          MOVL      P,ACC                 ; [CPU_] |97| 
     340 00000097 9243          MOV       AL,*-SP[3]            ; [CPU_] |97| 
     341 00000098 FFC1          LSR       AL,2                  ; [CPU_] |97| 
     342 00000099 88A9          MOVZ      AR6,AL                ; [CPU_] |97| 
     343 0000009a 8A4A          MOVL      XAR4,*-SP[10]         ; [CPU_] |97| 
     344 0000009b A9A9          MOVL      ACC,P                 ; [CPU_] |97| 
     345 0000009c 89A6          AND       ACC,AR6               ; [CPU_] |97| 
     346 0000009d FF5A          MOVL      P,ACC                 ; [CPU_] |97| 
     347 0000009e 5603          MOV       ACC,*-SP[14] << #1    ; [CPU_] |97| 
         0000009f 014E 
     348 000000a0 16A9          MOVP      T,AL                  ; [CPU_] 
     349 000000a1 563B          LSLL      ACC,T                 ; [CPU_] |97| 
     350 000000a2 FF5A          MOVL      P,ACC                 ; [CPU_] |97| 
     351 000000a3 92AB          MOV       AL,PL                 ; [CPU_] |97| 
     352 000000a4 98C4          OR        *+XAR4[0],AL          ; [CPU_] |97| 
     353 000000a5 92AA          MOV       AL,PH                 ; [CPU_] |97| 
     354 000000a6 98CC          OR        *+XAR4[1],AL          ; [CPU_] |97| 
     355                      .dwpsn  file "C:/ti/controlSUITE/device_support/F2837xS/v170/F2837xS_common/source/F2837xS_Gpio.c",li
     356 000000a7 0203          MOVB      ACC,#3                ; [CPU_] |98| 
     357 000000a8 8943          AND       ACC,*-SP[3]           ; [CPU_] |98| 
     358 000000a9 8A48          MOVL      XAR4,*-SP[8]          ; [CPU_] |98| 
     359 000000aa FF5A          MOVL      P,ACC                 ; [CPU_] |98| 
     360 000000ab 5603          MOV       ACC,*-SP[14] << #1    ; [CPU_] |98| 
TMS320C2000 Assembler PC v6.4.2 Thu Dec 14 13:37:25 2017

Tools Copyright (c) 1996-2015 Texas Instruments Incorporated
F2837xS_Gpio.asm                                                     PAGE    8

         000000ac 014E 
     361 000000ad 16A9          MOVP      T,AL                  ; [CPU_] 
     362 000000ae 563B          LSLL      ACC,T                 ; [CPU_] |98| 
     363 000000af FF5A          MOVL      P,ACC                 ; [CPU_] |98| 
     364 000000b0 92AB          MOV       AL,PL                 ; [CPU_] |98| 
     365 000000b1 98C4          OR        *+XAR4[0],AL          ; [CPU_] |98| 
     366 000000b2 92AA          MOV       AL,PH                 ; [CPU_] |98| 
     367 000000b3 98CC          OR        *+XAR4[1],AL          ; [CPU_] |98| 
     368                      .dwpsn  file "C:/ti/controlSUITE/device_support/F2837xS/v170/F2837xS_common/source/F2837xS_Gpio.c",li
     369 000000b4 0203          MOVB      ACC,#3                ; [CPU_] |100| 
     370 000000b5 FF5A          MOVL      P,ACC                 ; [CPU_] |100| 
     371 000000b6 8A4C          MOVL      XAR4,*-SP[12]         ; [CPU_] |100| 
     372 000000b7 5603          MOV       ACC,*-SP[15] << #2    ; [CPU_] |100| 
         000000b8 024F 
     373 000000b9 16A9          MOVP      T,AL                  ; [CPU_] 
     374 000000ba 563B          LSLL      ACC,T                 ; [CPU_] |100| 
     375 000000bb FF55          NOT       ACC                   ; [CPU_] |100| 
     376 000000bc FF5A          MOVL      P,ACC                 ; [CPU_] |100| 
     377 000000bd 92AB          MOV       AL,PL                 ; [CPU_] |100| 
     378 000000be C0C4          AND       *+XAR4[0],AL          ; [CPU_] |100| 
     379 000000bf 92AA          MOV       AL,PH                 ; [CPU_] |100| 
     380 000000c0 C0CC          AND       *+XAR4[1],AL          ; [CPU_] |100| 
     381                      .dwpsn  file "C:/ti/controlSUITE/device_support/F2837xS/v170/F2837xS_common/source/F2837xS_Gpio.c",li
     382 000000c1 0203          MOVB      ACC,#3                ; [CPU_] |101| 
     383 000000c2 8942          AND       ACC,*-SP[2]           ; [CPU_] |101| 
     384 000000c3 8A4C          MOVL      XAR4,*-SP[12]         ; [CPU_] |101| 
     385 000000c4 FF5A          MOVL      P,ACC                 ; [CPU_] |101| 
     386 000000c5 5603          MOV       ACC,*-SP[15] << #2    ; [CPU_] |101| 
         000000c6 024F 
     387 000000c7 16A9          MOVP      T,AL                  ; [CPU_] 
     388 000000c8 563B          LSLL      ACC,T                 ; [CPU_] |101| 
     389 000000c9 FF5A          MOVL      P,ACC                 ; [CPU_] |101| 
     390 000000ca 92AB          MOV       AL,PL                 ; [CPU_] |101| 
     391 000000cb 98C4          OR        *+XAR4[0],AL          ; [CPU_] |101| 
     392 000000cc 92AA          MOV       AL,PH                 ; [CPU_] |101| 
     393 000000cd 98CC          OR        *+XAR4[1],AL          ; [CPU_] |101| 
     394                      .dwpsn  file "C:/ti/controlSUITE/device_support/F2837xS/v170/F2837xS_common/source/F2837xS_Gpio.c",li
     395 000000ce 761A   EDIS
     396                      .dwpsn  file "C:/ti/controlSUITE/device_support/F2837xS/v170/F2837xS_common/source/F2837xS_Gpio.c",li
     397 000000cf       $C$L7:    
     398 000000cf FE90          SUBB      SP,#16                ; [CPU_U] 
     399                      .dwcfi  cfa_offset, -2
     400 000000d0 FF69          SPM       #0                    ; [CPU_] 
     401              $C$DW$23        .dwtag  DW_TAG_TI_branch
     402                      .dwattr $C$DW$23, DW_AT_low_pc(0x00)
     403                      .dwattr $C$DW$23, DW_AT_TI_return
     404 000000d1 0006          LRETR     ; [CPU_] 
     405                      ; return occurs ; [] 
     406                      .dwattr $C$DW$9, DW_AT_TI_end_file("C:/ti/controlSUITE/device_support/F2837xS/v170/F2837xS_common/sou
     407                      .dwattr $C$DW$9, DW_AT_TI_end_line(0x6b)
     408                      .dwattr $C$DW$9, DW_AT_TI_end_column(0x01)
     409                      .dwendentry
     410                      .dwendtag $C$DW$9
     411              
     412 000000d2               .sect   ".text"
TMS320C2000 Assembler PC v6.4.2 Thu Dec 14 13:37:25 2017

Tools Copyright (c) 1996-2015 Texas Instruments Incorporated
F2837xS_Gpio.asm                                                     PAGE    9

     413                      .clink
     414                      .global _GPIO_SetupPinOptions
     415              
     416              $C$DW$24        .dwtag  DW_TAG_subprogram, DW_AT_name("GPIO_SetupPinOptions")
     417                      .dwattr $C$DW$24, DW_AT_low_pc(_GPIO_SetupPinOptions)
     418                      .dwattr $C$DW$24, DW_AT_high_pc(0x00)
     419                      .dwattr $C$DW$24, DW_AT_TI_symbol_name("_GPIO_SetupPinOptions")
     420                      .dwattr $C$DW$24, DW_AT_external
     421                      .dwattr $C$DW$24, DW_AT_TI_begin_file("C:/ti/controlSUITE/device_support/F2837xS/v170/F2837xS_common/
     422                      .dwattr $C$DW$24, DW_AT_TI_begin_line(0x81)
     423                      .dwattr $C$DW$24, DW_AT_TI_begin_column(0x06)
     424                      .dwattr $C$DW$24, DW_AT_TI_max_frame_size(-26)
     425                      .dwpsn  file "C:/ti/controlSUITE/device_support/F2837xS/v170/F2837xS_common/source/F2837xS_Gpio.c",li
     426              
     427                      .dwfde $C$DW$CIE, _GPIO_SetupPinOptions
     428              $C$DW$25        .dwtag  DW_TAG_formal_parameter, DW_AT_name("pin")
     429                      .dwattr $C$DW$25, DW_AT_TI_symbol_name("_pin")
     430                      .dwattr $C$DW$25, DW_AT_type(*$C$DW$T$19)
     431                      .dwattr $C$DW$25, DW_AT_location[DW_OP_reg0]
     432              $C$DW$26        .dwtag  DW_TAG_formal_parameter, DW_AT_name("output")
     433                      .dwattr $C$DW$26, DW_AT_TI_symbol_name("_output")
     434                      .dwattr $C$DW$26, DW_AT_type(*$C$DW$T$19)
     435                      .dwattr $C$DW$26, DW_AT_location[DW_OP_reg1]
     436              $C$DW$27        .dwtag  DW_TAG_formal_parameter, DW_AT_name("flags")
     437                      .dwattr $C$DW$27, DW_AT_TI_symbol_name("_flags")
     438                      .dwattr $C$DW$27, DW_AT_type(*$C$DW$T$19)
     439                      .dwattr $C$DW$27, DW_AT_location[DW_OP_reg12]
     440              
     441              ;***************************************************************
     442              ;* FNAME: _GPIO_SetupPinOptions         FR SIZE:  24           *
     443              ;*                                                             *
     444              ;* FUNCTION ENVIRONMENT                                        *
     445              ;*                                                             *
     446              ;* FUNCTION PROPERTIES                                         *
     447              ;*                            0 Parameter, 24 Auto,  0 SOE     *
     448              ;***************************************************************
     449              
     450 000000d2       _GPIO_SetupPinOptions:
     451                      .dwcfi  cfa_offset, -2
     452                      .dwcfi  save_reg_to_mem, 26, 0
     453 000000d2 FE18          ADDB      SP,#24                ; [CPU_U] 
     454                      .dwcfi  cfa_offset, -26
     455              $C$DW$28        .dwtag  DW_TAG_variable, DW_AT_name("pin")
     456                      .dwattr $C$DW$28, DW_AT_TI_symbol_name("_pin")
     457                      .dwattr $C$DW$28, DW_AT_type(*$C$DW$T$19)
     458                      .dwattr $C$DW$28, DW_AT_location[DW_OP_breg20 -1]
     459              $C$DW$29        .dwtag  DW_TAG_variable, DW_AT_name("output")
     460                      .dwattr $C$DW$29, DW_AT_TI_symbol_name("_output")
     461                      .dwattr $C$DW$29, DW_AT_type(*$C$DW$T$19)
     462                      .dwattr $C$DW$29, DW_AT_location[DW_OP_breg20 -2]
     463              $C$DW$30        .dwtag  DW_TAG_variable, DW_AT_name("flags")
     464                      .dwattr $C$DW$30, DW_AT_TI_symbol_name("_flags")
     465                      .dwattr $C$DW$30, DW_AT_type(*$C$DW$T$19)
     466                      .dwattr $C$DW$30, DW_AT_location[DW_OP_breg20 -3]
     467              $C$DW$31        .dwtag  DW_TAG_variable, DW_AT_name("gpioBaseAddr")
TMS320C2000 Assembler PC v6.4.2 Thu Dec 14 13:37:25 2017

Tools Copyright (c) 1996-2015 Texas Instruments Incorporated
F2837xS_Gpio.asm                                                     PAGE   10

     468                      .dwattr $C$DW$31, DW_AT_TI_symbol_name("_gpioBaseAddr")
     469                      .dwattr $C$DW$31, DW_AT_type(*$C$DW$T$382)
     470                      .dwattr $C$DW$31, DW_AT_location[DW_OP_breg20 -6]
     471              $C$DW$32        .dwtag  DW_TAG_variable, DW_AT_name("dir")
     472                      .dwattr $C$DW$32, DW_AT_TI_symbol_name("_dir")
     473                      .dwattr $C$DW$32, DW_AT_type(*$C$DW$T$382)
     474                      .dwattr $C$DW$32, DW_AT_location[DW_OP_breg20 -8]
     475              $C$DW$33        .dwtag  DW_TAG_variable, DW_AT_name("pud")
     476                      .dwattr $C$DW$33, DW_AT_TI_symbol_name("_pud")
     477                      .dwattr $C$DW$33, DW_AT_type(*$C$DW$T$382)
     478                      .dwattr $C$DW$33, DW_AT_location[DW_OP_breg20 -10]
     479              $C$DW$34        .dwtag  DW_TAG_variable, DW_AT_name("inv")
     480                      .dwattr $C$DW$34, DW_AT_TI_symbol_name("_inv")
     481                      .dwattr $C$DW$34, DW_AT_type(*$C$DW$T$382)
     482                      .dwattr $C$DW$34, DW_AT_location[DW_OP_breg20 -12]
     483              $C$DW$35        .dwtag  DW_TAG_variable, DW_AT_name("odr")
     484                      .dwattr $C$DW$35, DW_AT_TI_symbol_name("_odr")
     485                      .dwattr $C$DW$35, DW_AT_type(*$C$DW$T$382)
     486                      .dwattr $C$DW$35, DW_AT_location[DW_OP_breg20 -14]
     487              $C$DW$36        .dwtag  DW_TAG_variable, DW_AT_name("qsel")
     488                      .dwattr $C$DW$36, DW_AT_TI_symbol_name("_qsel")
     489                      .dwattr $C$DW$36, DW_AT_type(*$C$DW$T$382)
     490                      .dwattr $C$DW$36, DW_AT_location[DW_OP_breg20 -16]
     491              $C$DW$37        .dwtag  DW_TAG_variable, DW_AT_name("pin32")
     492                      .dwattr $C$DW$37, DW_AT_TI_symbol_name("_pin32")
     493                      .dwattr $C$DW$37, DW_AT_type(*$C$DW$T$21)
     494                      .dwattr $C$DW$37, DW_AT_location[DW_OP_breg20 -18]
     495              $C$DW$38        .dwtag  DW_TAG_variable, DW_AT_name("pin16")
     496                      .dwattr $C$DW$38, DW_AT_TI_symbol_name("_pin16")
     497                      .dwattr $C$DW$38, DW_AT_type(*$C$DW$T$21)
     498                      .dwattr $C$DW$38, DW_AT_location[DW_OP_breg20 -20]
     499              $C$DW$39        .dwtag  DW_TAG_variable, DW_AT_name("pinMask")
     500                      .dwattr $C$DW$39, DW_AT_TI_symbol_name("_pinMask")
     501                      .dwattr $C$DW$39, DW_AT_type(*$C$DW$T$21)
     502                      .dwattr $C$DW$39, DW_AT_location[DW_OP_breg20 -22]
     503              $C$DW$40        .dwtag  DW_TAG_variable, DW_AT_name("qual")
     504                      .dwattr $C$DW$40, DW_AT_TI_symbol_name("_qual")
     505                      .dwattr $C$DW$40, DW_AT_type(*$C$DW$T$21)
     506                      .dwattr $C$DW$40, DW_AT_location[DW_OP_breg20 -24]
     507 000000d3 7C43          MOV       *-SP[3],AR4           ; [CPU_] |130| 
     508 000000d4 9742          MOV       *-SP[2],AH            ; [CPU_] |130| 
     509 000000d5 9641          MOV       *-SP[1],AL            ; [CPU_] |130| 
     510                      .dwpsn  file "C:/ti/controlSUITE/device_support/F2837xS/v170/F2837xS_common/source/F2837xS_Gpio.c",li
     511 000000d6 901F          ANDB      AL,#0x1f              ; [CPU_] |135| 
     512 000000d7 0EA9          MOVU      ACC,AL                ; [CPU_] |135| 
     513 000000d8 1E52          MOVL      *-SP[18],ACC          ; [CPU_] |135| 
     514                      .dwpsn  file "C:/ti/controlSUITE/device_support/F2837xS/v170/F2837xS_common/source/F2837xS_Gpio.c",li
     515 000000d9 9241          MOV       AL,*-SP[1]            ; [CPU_] |136| 
     516 000000da 900F          ANDB      AL,#0x0f              ; [CPU_] |136| 
     517 000000db 0EA9          MOVU      ACC,AL                ; [CPU_] |136| 
     518 000000dc 1E54          MOVL      *-SP[20],ACC          ; [CPU_] |136| 
     519                      .dwpsn  file "C:/ti/controlSUITE/device_support/F2837xS/v170/F2837xS_common/source/F2837xS_Gpio.c",li
     520 000000dd 2D52          MOV       T,*-SP[18]            ; [CPU_] |137| 
     521 000000de 0201          MOVB      ACC,#1                ; [CPU_] |137| 
     522 000000df 563B          LSLL      ACC,T                 ; [CPU_] |137| 
TMS320C2000 Assembler PC v6.4.2 Thu Dec 14 13:37:25 2017

Tools Copyright (c) 1996-2015 Texas Instruments Incorporated
F2837xS_Gpio.asm                                                     PAGE   11

     523 000000e0 1E56          MOVL      *-SP[22],ACC          ; [CPU_] |137| 
     524                      .dwpsn  file "C:/ti/controlSUITE/device_support/F2837xS/v170/F2837xS_common/source/F2837xS_Gpio.c",li
     525 000000e1 2901          CLRC      SXM                   ; [CPU_] 
     526 000000e2 8F00!         MOVL      XAR4,#_GpioCtrlRegs   ; [CPU_U] |138| 
         000000e3 0000 
     527 000000e4 9241          MOV       AL,*-SP[1]            ; [CPU_] |138| 
     528 000000e5 FFC4          LSR       AL,5                  ; [CPU_] |138| 
     529 000000e6 FF84          LSL       AL,5                  ; [CPU_] |138| 
     530 000000e7 5603          MOV       ACC,AL << 1           ; [CPU_] |138| 
         000000e8 01A9 
     531 000000e9 5601          ADDL      XAR4,ACC              ; [CPU_] |138| 
         000000ea 00A4 
     532 000000eb A846          MOVL      *-SP[6],XAR4          ; [CPU_] |138| 
     533                      .dwpsn  file "C:/ti/controlSUITE/device_support/F2837xS/v170/F2837xS_common/source/F2837xS_Gpio.c",li
     534 000000ec 020A          MOVB      ACC,#10               ; [CPU_] |148| 
     535 000000ed 0746          ADDL      ACC,*-SP[6]           ; [CPU_] |148| 
     536 000000ee 1E48          MOVL      *-SP[8],ACC           ; [CPU_] |148| 
     537                      .dwpsn  file "C:/ti/controlSUITE/device_support/F2837xS/v170/F2837xS_common/source/F2837xS_Gpio.c",li
     538 000000ef 020C          MOVB      ACC,#12               ; [CPU_] |149| 
     539 000000f0 0746          ADDL      ACC,*-SP[6]           ; [CPU_] |149| 
     540 000000f1 1E4A          MOVL      *-SP[10],ACC          ; [CPU_] |149| 
     541                      .dwpsn  file "C:/ti/controlSUITE/device_support/F2837xS/v170/F2837xS_common/source/F2837xS_Gpio.c",li
     542 000000f2 0210          MOVB      ACC,#16               ; [CPU_] |150| 
     543 000000f3 0746          ADDL      ACC,*-SP[6]           ; [CPU_] |150| 
     544 000000f4 1E4C          MOVL      *-SP[12],ACC          ; [CPU_] |150| 
     545                      .dwpsn  file "C:/ti/controlSUITE/device_support/F2837xS/v170/F2837xS_common/source/F2837xS_Gpio.c",li
     546 000000f5 0212          MOVB      ACC,#18               ; [CPU_] |151| 
     547 000000f6 0746          ADDL      ACC,*-SP[6]           ; [CPU_] |151| 
     548 000000f7 1E4E          MOVL      *-SP[14],ACC          ; [CPU_] |151| 
     549                      .dwpsn  file "C:/ti/controlSUITE/device_support/F2837xS/v170/F2837xS_common/source/F2837xS_Gpio.c",li
     550 000000f8 0652          MOVL      ACC,*-SP[18]          ; [CPU_] |152| 
     551 000000f9 FF43          SFR       ACC,4                 ; [CPU_] |152| 
     552 000000fa FF30          LSL       ACC,1                 ; [CPU_] |152| 
     553 000000fb 0746          ADDL      ACC,*-SP[6]           ; [CPU_] |152| 
     554 000000fc 0902          ADDB      ACC,#2                ; [CPU_] |152| 
     555 000000fd 1E50          MOVL      *-SP[16],ACC          ; [CPU_] |152| 
     556                      .dwpsn  file "C:/ti/controlSUITE/device_support/F2837xS/v170/F2837xS_common/source/F2837xS_Gpio.c",li
     557 000000fe 7622   EALLOW
     558                      .dwpsn  file "C:/ti/controlSUITE/device_support/F2837xS/v170/F2837xS_common/source/F2837xS_Gpio.c",li
     559 000000ff 8A48          MOVL      XAR4,*-SP[8]          ; [CPU_] |157| 
     560 00000100 0656          MOVL      ACC,*-SP[22]          ; [CPU_] |157| 
     561 00000101 FF55          NOT       ACC                   ; [CPU_] |157| 
     562 00000102 C0C4          AND       *+XAR4[0],AL          ; [CPU_] |157| 
     563 00000103 C1CC          AND       *+XAR4[1],AH          ; [CPU_] |157| 
     564                      .dwpsn  file "C:/ti/controlSUITE/device_support/F2837xS/v170/F2837xS_common/source/F2837xS_Gpio.c",li
     565 00000104 9242          MOV       AL,*-SP[2]            ; [CPU_] |158| 
     566 00000105 5201          CMPB      AL,#1                 ; [CPU_] |158| 
     567 00000106 ED1F          BF        $C$L11,NEQ            ; [CPU_] |158| 
     568                      ; branchcc occurs ; [] |158| 
     569                      .dwpsn  file "C:/ti/controlSUITE/device_support/F2837xS/v170/F2837xS_common/source/F2837xS_Gpio.c",li
     570 00000107 8A48          MOVL      XAR4,*-SP[8]          ; [CPU_] |161| 
     571 00000108 0656          MOVL      ACC,*-SP[22]          ; [CPU_] |161| 
     572 00000109 98C4          OR        *+XAR4[0],AL          ; [CPU_] |161| 
     573 0000010a 99CC          OR        *+XAR4[1],AH          ; [CPU_] |161| 
     574                      .dwpsn  file "C:/ti/controlSUITE/device_support/F2837xS/v170/F2837xS_common/source/F2837xS_Gpio.c",li
TMS320C2000 Assembler PC v6.4.2 Thu Dec 14 13:37:25 2017

Tools Copyright (c) 1996-2015 Texas Instruments Incorporated
F2837xS_Gpio.asm                                                     PAGE   12

     575 0000010b 4243          TBIT      *-SP[3],#2            ; [CPU_] |164| 
     576 0000010c EF06          BF        $C$L8,NTC             ; [CPU_] |164| 
     577                      ; branchcc occurs ; [] |164| 
     578                      .dwpsn  file "C:/ti/controlSUITE/device_support/F2837xS/v170/F2837xS_common/source/F2837xS_Gpio.c",li
     579 0000010d 8A4E          MOVL      XAR4,*-SP[14]         ; [CPU_] |165| 
     580 0000010e 0656          MOVL      ACC,*-SP[22]          ; [CPU_] |165| 
     581 0000010f 98C4          OR        *+XAR4[0],AL          ; [CPU_] |165| 
     582 00000110 99CC          OR        *+XAR4[1],AH          ; [CPU_] |165| 
     583 00000111 6F06          B         $C$L9,UNC             ; [CPU_] |165| 
     584                      ; branch occurs ; [] |165| 
     585 00000112       $C$L8:    
     586                      .dwpsn  file "C:/ti/controlSUITE/device_support/F2837xS/v170/F2837xS_common/source/F2837xS_Gpio.c",li
     587 00000112 8A4E          MOVL      XAR4,*-SP[14]         ; [CPU_] |167| 
     588 00000113 0656          MOVL      ACC,*-SP[22]          ; [CPU_] |167| 
     589 00000114 FF55          NOT       ACC                   ; [CPU_] |167| 
     590 00000115 C0C4          AND       *+XAR4[0],AL          ; [CPU_] |167| 
     591 00000116 C1CC          AND       *+XAR4[1],AH          ; [CPU_] |167| 
     592 00000117       $C$L9:    
     593                      .dwpsn  file "C:/ti/controlSUITE/device_support/F2837xS/v170/F2837xS_common/source/F2837xS_Gpio.c",li
     594 00000117 9243          MOV       AL,*-SP[3]            ; [CPU_] |170| 
     595 00000118 9005          ANDB      AL,#0x05              ; [CPU_] |170| 
     596 00000119 EC07          BF        $C$L10,EQ             ; [CPU_] |170| 
     597                      ; branchcc occurs ; [] |170| 
     598                      .dwpsn  file "C:/ti/controlSUITE/device_support/F2837xS/v170/F2837xS_common/source/F2837xS_Gpio.c",li
     599 0000011a 8A4A          MOVL      XAR4,*-SP[10]         ; [CPU_] |171| 
     600 0000011b 0656          MOVL      ACC,*-SP[22]          ; [CPU_] |171| 
     601 0000011c FF55          NOT       ACC                   ; [CPU_] |171| 
     602 0000011d C0C4          AND       *+XAR4[0],AL          ; [CPU_] |171| 
     603 0000011e C1CC          AND       *+XAR4[1],AH          ; [CPU_] |171| 
     604 0000011f 6F23          B         $C$L15,UNC            ; [CPU_] |171| 
     605                      ; branch occurs ; [] |171| 
     606 00000120       $C$L10:    
     607                      .dwpsn  file "C:/ti/controlSUITE/device_support/F2837xS/v170/F2837xS_common/source/F2837xS_Gpio.c",li
     608 00000120 8A4A          MOVL      XAR4,*-SP[10]         ; [CPU_] |173| 
     609 00000121 0656          MOVL      ACC,*-SP[22]          ; [CPU_] |173| 
     610 00000122 98C4          OR        *+XAR4[0],AL          ; [CPU_] |173| 
     611 00000123 99CC          OR        *+XAR4[1],AH          ; [CPU_] |173| 
     612                      .dwpsn  file "C:/ti/controlSUITE/device_support/F2837xS/v170/F2837xS_common/source/F2837xS_Gpio.c",li
     613 00000124 6F1E          B         $C$L15,UNC            ; [CPU_] |174| 
     614                      ; branch occurs ; [] |174| 
     615 00000125       $C$L11:    
     616                      .dwpsn  file "C:/ti/controlSUITE/device_support/F2837xS/v170/F2837xS_common/source/F2837xS_Gpio.c",li
     617 00000125 8A48          MOVL      XAR4,*-SP[8]          ; [CPU_] |177| 
     618 00000126 0656          MOVL      ACC,*-SP[22]          ; [CPU_] |177| 
     619 00000127 FF55          NOT       ACC                   ; [CPU_] |177| 
     620 00000128 C0C4          AND       *+XAR4[0],AL          ; [CPU_] |177| 
     621 00000129 C1CC          AND       *+XAR4[1],AH          ; [CPU_] |177| 
     622                      .dwpsn  file "C:/ti/controlSUITE/device_support/F2837xS/v170/F2837xS_common/source/F2837xS_Gpio.c",li
     623 0000012a 4043          TBIT      *-SP[3],#0            ; [CPU_] |180| 
     624 0000012b EF07          BF        $C$L12,NTC            ; [CPU_] |180| 
     625                      ; branchcc occurs ; [] |180| 
     626                      .dwpsn  file "C:/ti/controlSUITE/device_support/F2837xS/v170/F2837xS_common/source/F2837xS_Gpio.c",li
     627 0000012c 8A4A          MOVL      XAR4,*-SP[10]         ; [CPU_] |181| 
     628 0000012d 0656          MOVL      ACC,*-SP[22]          ; [CPU_] |181| 
     629 0000012e FF55          NOT       ACC                   ; [CPU_] |181| 
TMS320C2000 Assembler PC v6.4.2 Thu Dec 14 13:37:25 2017

Tools Copyright (c) 1996-2015 Texas Instruments Incorporated
F2837xS_Gpio.asm                                                     PAGE   13

     630 0000012f C0C4          AND       *+XAR4[0],AL          ; [CPU_] |181| 
     631 00000130 C1CC          AND       *+XAR4[1],AH          ; [CPU_] |181| 
     632 00000131 6F05          B         $C$L13,UNC            ; [CPU_] |181| 
     633                      ; branch occurs ; [] |181| 
     634 00000132       $C$L12:    
     635                      .dwpsn  file "C:/ti/controlSUITE/device_support/F2837xS/v170/F2837xS_common/source/F2837xS_Gpio.c",li
     636 00000132 8A4A          MOVL      XAR4,*-SP[10]         ; [CPU_] |183| 
     637 00000133 0656          MOVL      ACC,*-SP[22]          ; [CPU_] |183| 
     638 00000134 98C4          OR        *+XAR4[0],AL          ; [CPU_] |183| 
     639 00000135 99CC          OR        *+XAR4[1],AH          ; [CPU_] |183| 
     640 00000136       $C$L13:    
     641                      .dwpsn  file "C:/ti/controlSUITE/device_support/F2837xS/v170/F2837xS_common/source/F2837xS_Gpio.c",li
     642 00000136 4143          TBIT      *-SP[3],#1            ; [CPU_] |186| 
     643 00000137 EF06          BF        $C$L14,NTC            ; [CPU_] |186| 
     644                      ; branchcc occurs ; [] |186| 
     645                      .dwpsn  file "C:/ti/controlSUITE/device_support/F2837xS/v170/F2837xS_common/source/F2837xS_Gpio.c",li
     646 00000138 8A4C          MOVL      XAR4,*-SP[12]         ; [CPU_] |187| 
     647 00000139 0656          MOVL      ACC,*-SP[22]          ; [CPU_] |187| 
     648 0000013a 98C4          OR        *+XAR4[0],AL          ; [CPU_] |187| 
     649 0000013b 99CC          OR        *+XAR4[1],AH          ; [CPU_] |187| 
     650 0000013c 6F06          B         $C$L15,UNC            ; [CPU_] |187| 
     651                      ; branch occurs ; [] |187| 
     652 0000013d       $C$L14:    
     653                      .dwpsn  file "C:/ti/controlSUITE/device_support/F2837xS/v170/F2837xS_common/source/F2837xS_Gpio.c",li
     654 0000013d 8A4C          MOVL      XAR4,*-SP[12]         ; [CPU_] |189| 
     655 0000013e 0656          MOVL      ACC,*-SP[22]          ; [CPU_] |189| 
     656 0000013f FF55          NOT       ACC                   ; [CPU_] |189| 
     657 00000140 C0C4          AND       *+XAR4[0],AL          ; [CPU_] |189| 
     658 00000141 C1CC          AND       *+XAR4[1],AH          ; [CPU_] |189| 
     659 00000142       $C$L15:    
     660                      .dwpsn  file "C:/ti/controlSUITE/device_support/F2837xS/v170/F2837xS_common/source/F2837xS_Gpio.c",li
     661 00000142 9243          MOV       AL,*-SP[3]            ; [CPU_] |194| 
     662 00000143 9030          ANDB      AL,#0x30              ; [CPU_] |194| 
     663 00000144 FFC3          LSR       AL,4                  ; [CPU_] |194| 
     664 00000145 0EA9          MOVU      ACC,AL                ; [CPU_] |194| 
     665 00000146 1E58          MOVL      *-SP[24],ACC          ; [CPU_] |194| 
     666                      .dwpsn  file "C:/ti/controlSUITE/device_support/F2837xS/v170/F2837xS_common/source/F2837xS_Gpio.c",li
     667 00000147 FF69          SPM       #0                    ; [CPU_] 
     668 00000148 0203          MOVB      ACC,#3                ; [CPU_] |195| 
     669 00000149 8A50          MOVL      XAR4,*-SP[16]         ; [CPU_] |195| 
     670 0000014a FF5A          MOVL      P,ACC                 ; [CPU_] |195| 
     671 0000014b 5603          MOV       ACC,*-SP[20] << #1    ; [CPU_] |195| 
         0000014c 0154 
     672 0000014d 16A9          MOVP      T,AL                  ; [CPU_] 
     673 0000014e 563B          LSLL      ACC,T                 ; [CPU_] |195| 
     674 0000014f FF55          NOT       ACC                   ; [CPU_] |195| 
     675 00000150 FF5A          MOVL      P,ACC                 ; [CPU_] |195| 
     676 00000151 92AB          MOV       AL,PL                 ; [CPU_] |195| 
     677 00000152 C0C4          AND       *+XAR4[0],AL          ; [CPU_] |195| 
     678 00000153 92AA          MOV       AL,PH                 ; [CPU_] |195| 
     679 00000154 C0CC          AND       *+XAR4[1],AL          ; [CPU_] |195| 
     680                      .dwpsn  file "C:/ti/controlSUITE/device_support/F2837xS/v170/F2837xS_common/source/F2837xS_Gpio.c",li
     681 00000155 0658          MOVL      ACC,*-SP[24]          ; [CPU_] |196| 
     682 00000156 EC0C          BF        $C$L16,EQ             ; [CPU_] |196| 
     683                      ; branchcc occurs ; [] |196| 
TMS320C2000 Assembler PC v6.4.2 Thu Dec 14 13:37:25 2017

Tools Copyright (c) 1996-2015 Texas Instruments Incorporated
F2837xS_Gpio.asm                                                     PAGE   14

     684                      .dwpsn  file "C:/ti/controlSUITE/device_support/F2837xS/v170/F2837xS_common/source/F2837xS_Gpio.c",li
     685 00000157 A358          MOVL      P,*-SP[24]            ; [CPU_] |197| 
     686 00000158 5603          MOV       ACC,*-SP[20] << #1    ; [CPU_] |197| 
         00000159 0154 
     687 0000015a 8A50          MOVL      XAR4,*-SP[16]         ; [CPU_] |197| 
     688 0000015b 16A9          MOVP      T,AL                  ; [CPU_] 
     689 0000015c 563B          LSLL      ACC,T                 ; [CPU_] |197| 
     690 0000015d FF5A          MOVL      P,ACC                 ; [CPU_] |197| 
     691 0000015e 92AB          MOV       AL,PL                 ; [CPU_] |197| 
     692 0000015f 98C4          OR        *+XAR4[0],AL          ; [CPU_] |197| 
     693 00000160 92AA          MOV       AL,PH                 ; [CPU_] |197| 
     694 00000161 98CC          OR        *+XAR4[1],AL          ; [CPU_] |197| 
     695 00000162       $C$L16:    
     696                      .dwpsn  file "C:/ti/controlSUITE/device_support/F2837xS/v170/F2837xS_common/source/F2837xS_Gpio.c",li
     697 00000162 761A   EDIS
     698                      .dwpsn  file "C:/ti/controlSUITE/device_support/F2837xS/v170/F2837xS_common/source/F2837xS_Gpio.c",li
     699 00000163 FE98          SUBB      SP,#24                ; [CPU_U] 
     700                      .dwcfi  cfa_offset, -2
     701 00000164 FF69          SPM       #0                    ; [CPU_] 
     702              $C$DW$41        .dwtag  DW_TAG_TI_branch
     703                      .dwattr $C$DW$41, DW_AT_low_pc(0x00)
     704                      .dwattr $C$DW$41, DW_AT_TI_return
     705 00000165 0006          LRETR     ; [CPU_] 
     706                      ; return occurs ; [] 
     707                      .dwattr $C$DW$24, DW_AT_TI_end_file("C:/ti/controlSUITE/device_support/F2837xS/v170/F2837xS_common/so
     708                      .dwattr $C$DW$24, DW_AT_TI_end_line(0xc8)
     709                      .dwattr $C$DW$24, DW_AT_TI_end_column(0x01)
     710                      .dwendentry
     711                      .dwendtag $C$DW$24
     712              
     713 00000166               .sect   ".text"
     714                      .clink
     715                      .global _GPIO_SetupLock
     716              
     717              $C$DW$42        .dwtag  DW_TAG_subprogram, DW_AT_name("GPIO_SetupLock")
     718                      .dwattr $C$DW$42, DW_AT_low_pc(_GPIO_SetupLock)
     719                      .dwattr $C$DW$42, DW_AT_high_pc(0x00)
     720                      .dwattr $C$DW$42, DW_AT_TI_symbol_name("_GPIO_SetupLock")
     721                      .dwattr $C$DW$42, DW_AT_external
     722                      .dwattr $C$DW$42, DW_AT_TI_begin_file("C:/ti/controlSUITE/device_support/F2837xS/v170/F2837xS_common/
     723                      .dwattr $C$DW$42, DW_AT_TI_begin_line(0xce)
     724                      .dwattr $C$DW$42, DW_AT_TI_begin_column(0x06)
     725                      .dwattr $C$DW$42, DW_AT_TI_max_frame_size(-12)
     726                      .dwpsn  file "C:/ti/controlSUITE/device_support/F2837xS/v170/F2837xS_common/source/F2837xS_Gpio.c",li
     727              
     728                      .dwfde $C$DW$CIE, _GPIO_SetupLock
     729              $C$DW$43        .dwtag  DW_TAG_formal_parameter, DW_AT_name("pin")
     730                      .dwattr $C$DW$43, DW_AT_TI_symbol_name("_pin")
     731                      .dwattr $C$DW$43, DW_AT_type(*$C$DW$T$19)
     732                      .dwattr $C$DW$43, DW_AT_location[DW_OP_reg0]
     733              $C$DW$44        .dwtag  DW_TAG_formal_parameter, DW_AT_name("flags")
     734                      .dwattr $C$DW$44, DW_AT_TI_symbol_name("_flags")
     735                      .dwattr $C$DW$44, DW_AT_type(*$C$DW$T$19)
     736                      .dwattr $C$DW$44, DW_AT_location[DW_OP_reg1]
     737              
TMS320C2000 Assembler PC v6.4.2 Thu Dec 14 13:37:25 2017

Tools Copyright (c) 1996-2015 Texas Instruments Incorporated
F2837xS_Gpio.asm                                                     PAGE   15

     738              ;***************************************************************
     739              ;* FNAME: _GPIO_SetupLock               FR SIZE:  10           *
     740              ;*                                                             *
     741              ;* FUNCTION ENVIRONMENT                                        *
     742              ;*                                                             *
     743              ;* FUNCTION PROPERTIES                                         *
     744              ;*                            0 Parameter, 10 Auto,  0 SOE     *
     745              ;***************************************************************
     746              
     747 00000166       _GPIO_SetupLock:
     748                      .dwcfi  cfa_offset, -2
     749                      .dwcfi  save_reg_to_mem, 26, 0
     750 00000166 FE0A          ADDB      SP,#10                ; [CPU_U] 
     751                      .dwcfi  cfa_offset, -12
     752              $C$DW$45        .dwtag  DW_TAG_variable, DW_AT_name("pin")
     753                      .dwattr $C$DW$45, DW_AT_TI_symbol_name("_pin")
     754                      .dwattr $C$DW$45, DW_AT_type(*$C$DW$T$19)
     755                      .dwattr $C$DW$45, DW_AT_location[DW_OP_breg20 -1]
     756              $C$DW$46        .dwtag  DW_TAG_variable, DW_AT_name("flags")
     757                      .dwattr $C$DW$46, DW_AT_TI_symbol_name("_flags")
     758                      .dwattr $C$DW$46, DW_AT_type(*$C$DW$T$19)
     759                      .dwattr $C$DW$46, DW_AT_location[DW_OP_breg20 -2]
     760              $C$DW$47        .dwtag  DW_TAG_variable, DW_AT_name("gpioBaseAddr")
     761                      .dwattr $C$DW$47, DW_AT_TI_symbol_name("_gpioBaseAddr")
     762                      .dwattr $C$DW$47, DW_AT_type(*$C$DW$T$382)
     763                      .dwattr $C$DW$47, DW_AT_location[DW_OP_breg20 -4]
     764              $C$DW$48        .dwtag  DW_TAG_variable, DW_AT_name("lock")
     765                      .dwattr $C$DW$48, DW_AT_TI_symbol_name("_lock")
     766                      .dwattr $C$DW$48, DW_AT_type(*$C$DW$T$382)
     767                      .dwattr $C$DW$48, DW_AT_location[DW_OP_breg20 -6]
     768              $C$DW$49        .dwtag  DW_TAG_variable, DW_AT_name("pin32")
     769                      .dwattr $C$DW$49, DW_AT_TI_symbol_name("_pin32")
     770                      .dwattr $C$DW$49, DW_AT_type(*$C$DW$T$21)
     771                      .dwattr $C$DW$49, DW_AT_location[DW_OP_breg20 -8]
     772              $C$DW$50        .dwtag  DW_TAG_variable, DW_AT_name("pinMask")
     773                      .dwattr $C$DW$50, DW_AT_TI_symbol_name("_pinMask")
     774                      .dwattr $C$DW$50, DW_AT_type(*$C$DW$T$21)
     775                      .dwattr $C$DW$50, DW_AT_location[DW_OP_breg20 -10]
     776 00000167 9742          MOV       *-SP[2],AH            ; [CPU_] |207| 
     777 00000168 9641          MOV       *-SP[1],AL            ; [CPU_] |207| 
     778                      .dwpsn  file "C:/ti/controlSUITE/device_support/F2837xS/v170/F2837xS_common/source/F2837xS_Gpio.c",li
     779 00000169 901F          ANDB      AL,#0x1f              ; [CPU_] |212| 
     780 0000016a 0EA9          MOVU      ACC,AL                ; [CPU_] |212| 
     781 0000016b 1E48          MOVL      *-SP[8],ACC           ; [CPU_] |212| 
     782                      .dwpsn  file "C:/ti/controlSUITE/device_support/F2837xS/v170/F2837xS_common/source/F2837xS_Gpio.c",li
     783 0000016c 2D48          MOV       T,*-SP[8]             ; [CPU_] |213| 
     784 0000016d 0201          MOVB      ACC,#1                ; [CPU_] |213| 
     785 0000016e 563B          LSLL      ACC,T                 ; [CPU_] |213| 
     786 0000016f 1E4A          MOVL      *-SP[10],ACC          ; [CPU_] |213| 
     787                      .dwpsn  file "C:/ti/controlSUITE/device_support/F2837xS/v170/F2837xS_common/source/F2837xS_Gpio.c",li
     788 00000170 2901          CLRC      SXM                   ; [CPU_] 
     789 00000171 8F00!         MOVL      XAR4,#_GpioCtrlRegs   ; [CPU_U] |214| 
         00000172 0000 
     790 00000173 9241          MOV       AL,*-SP[1]            ; [CPU_] |214| 
     791 00000174 FFC4          LSR       AL,5                  ; [CPU_] |214| 
TMS320C2000 Assembler PC v6.4.2 Thu Dec 14 13:37:25 2017

Tools Copyright (c) 1996-2015 Texas Instruments Incorporated
F2837xS_Gpio.asm                                                     PAGE   16

     792 00000175 FF84          LSL       AL,5                  ; [CPU_] |214| 
     793 00000176 5603          MOV       ACC,AL << 1           ; [CPU_] |214| 
         00000177 01A9 
     794 00000178 5601          ADDL      XAR4,ACC              ; [CPU_] |214| 
         00000179 00A4 
     795 0000017a A844          MOVL      *-SP[4],XAR4          ; [CPU_] |214| 
     796                      .dwpsn  file "C:/ti/controlSUITE/device_support/F2837xS/v170/F2837xS_common/source/F2837xS_Gpio.c",li
     797 0000017b 023C          MOVB      ACC,#60               ; [CPU_] |224| 
     798 0000017c 0744          ADDL      ACC,*-SP[4]           ; [CPU_] |224| 
     799 0000017d 1E46          MOVL      *-SP[6],ACC           ; [CPU_] |224| 
     800                      .dwpsn  file "C:/ti/controlSUITE/device_support/F2837xS/v170/F2837xS_common/source/F2837xS_Gpio.c",li
     801 0000017e 7622   EALLOW
     802                      .dwpsn  file "C:/ti/controlSUITE/device_support/F2837xS/v170/F2837xS_common/source/F2837xS_Gpio.c",li
     803 0000017f 9242          MOV       AL,*-SP[2]            ; [CPU_] |228| 
     804 00000180 EC06          BF        $C$L17,EQ             ; [CPU_] |228| 
     805                      ; branchcc occurs ; [] |228| 
     806                      .dwpsn  file "C:/ti/controlSUITE/device_support/F2837xS/v170/F2837xS_common/source/F2837xS_Gpio.c",li
     807 00000181 8A46          MOVL      XAR4,*-SP[6]          ; [CPU_] |230| 
     808 00000182 064A          MOVL      ACC,*-SP[10]          ; [CPU_] |230| 
     809 00000183 98C4          OR        *+XAR4[0],AL          ; [CPU_] |230| 
     810 00000184 99CC          OR        *+XAR4[1],AH          ; [CPU_] |230| 
     811                      .dwpsn  file "C:/ti/controlSUITE/device_support/F2837xS/v170/F2837xS_common/source/F2837xS_Gpio.c",li
     812 00000185 6F06          B         $C$L18,UNC            ; [CPU_] |231| 
     813                      ; branch occurs ; [] |231| 
     814 00000186       $C$L17:    
     815                      .dwpsn  file "C:/ti/controlSUITE/device_support/F2837xS/v170/F2837xS_common/source/F2837xS_Gpio.c",li
     816 00000186 8A46          MOVL      XAR4,*-SP[6]          ; [CPU_] |233| 
     817 00000187 064A          MOVL      ACC,*-SP[10]          ; [CPU_] |233| 
     818 00000188 FF55          NOT       ACC                   ; [CPU_] |233| 
     819 00000189 C0C4          AND       *+XAR4[0],AL          ; [CPU_] |233| 
     820 0000018a C1CC          AND       *+XAR4[1],AH          ; [CPU_] |233| 
     821 0000018b       $C$L18:    
     822                      .dwpsn  file "C:/ti/controlSUITE/device_support/F2837xS/v170/F2837xS_common/source/F2837xS_Gpio.c",li
     823 0000018b 761A   EDIS
     824                      .dwpsn  file "C:/ti/controlSUITE/device_support/F2837xS/v170/F2837xS_common/source/F2837xS_Gpio.c",li
     825 0000018c FE8A          SUBB      SP,#10                ; [CPU_U] 
     826                      .dwcfi  cfa_offset, -2
     827 0000018d FF69          SPM       #0                    ; [CPU_] 
     828              $C$DW$51        .dwtag  DW_TAG_TI_branch
     829                      .dwattr $C$DW$51, DW_AT_low_pc(0x00)
     830                      .dwattr $C$DW$51, DW_AT_TI_return
     831 0000018e 0006          LRETR     ; [CPU_] 
     832                      ; return occurs ; [] 
     833                      .dwattr $C$DW$42, DW_AT_TI_end_file("C:/ti/controlSUITE/device_support/F2837xS/v170/F2837xS_common/so
     834                      .dwattr $C$DW$42, DW_AT_TI_end_line(0xec)
     835                      .dwattr $C$DW$42, DW_AT_TI_end_column(0x01)
     836                      .dwendentry
     837                      .dwendtag $C$DW$42
     838              
     839 0000018f               .sect   ".text"
     840                      .clink
     841                      .global _GPIO_SetupXINT1Gpio
     842              
     843              $C$DW$52        .dwtag  DW_TAG_subprogram, DW_AT_name("GPIO_SetupXINT1Gpio")
     844                      .dwattr $C$DW$52, DW_AT_low_pc(_GPIO_SetupXINT1Gpio)
TMS320C2000 Assembler PC v6.4.2 Thu Dec 14 13:37:25 2017

Tools Copyright (c) 1996-2015 Texas Instruments Incorporated
F2837xS_Gpio.asm                                                     PAGE   17

     845                      .dwattr $C$DW$52, DW_AT_high_pc(0x00)
     846                      .dwattr $C$DW$52, DW_AT_TI_symbol_name("_GPIO_SetupXINT1Gpio")
     847                      .dwattr $C$DW$52, DW_AT_external
     848                      .dwattr $C$DW$52, DW_AT_TI_begin_file("C:/ti/controlSUITE/device_support/F2837xS/v170/F2837xS_common/
     849                      .dwattr $C$DW$52, DW_AT_TI_begin_line(0xef)
     850                      .dwattr $C$DW$52, DW_AT_TI_begin_column(0x06)
     851                      .dwattr $C$DW$52, DW_AT_TI_max_frame_size(-4)
     852                      .dwpsn  file "C:/ti/controlSUITE/device_support/F2837xS/v170/F2837xS_common/source/F2837xS_Gpio.c",li
     853              
     854                      .dwfde $C$DW$CIE, _GPIO_SetupXINT1Gpio
     855              $C$DW$53        .dwtag  DW_TAG_formal_parameter, DW_AT_name("pin")
     856                      .dwattr $C$DW$53, DW_AT_TI_symbol_name("_pin")
     857                      .dwattr $C$DW$53, DW_AT_type(*$C$DW$T$19)
     858                      .dwattr $C$DW$53, DW_AT_location[DW_OP_reg0]
     859              
     860              ;***************************************************************
     861              ;* FNAME: _GPIO_SetupXINT1Gpio          FR SIZE:   2           *
     862              ;*                                                             *
     863              ;* FUNCTION ENVIRONMENT                                        *
     864              ;*                                                             *
     865              ;* FUNCTION PROPERTIES                                         *
     866              ;*                            0 Parameter,  1 Auto,  0 SOE     *
     867              ;***************************************************************
     868              
     869 0000018f       _GPIO_SetupXINT1Gpio:
     870                      .dwcfi  cfa_offset, -2
     871                      .dwcfi  save_reg_to_mem, 26, 0
     872 0000018f FE02          ADDB      SP,#2                 ; [CPU_U] 
     873                      .dwcfi  cfa_offset, -4
     874              $C$DW$54        .dwtag  DW_TAG_variable, DW_AT_name("pin")
     875                      .dwattr $C$DW$54, DW_AT_TI_symbol_name("_pin")
     876                      .dwattr $C$DW$54, DW_AT_type(*$C$DW$T$19)
     877                      .dwattr $C$DW$54, DW_AT_location[DW_OP_breg20 -1]
     878 00000190 9641          MOV       *-SP[1],AL            ; [CPU_] |240| 
     879                      .dwpsn  file "C:/ti/controlSUITE/device_support/F2837xS/v170/F2837xS_common/source/F2837xS_Gpio.c",li
     880 00000191 7622   EALLOW
     881                      .dwpsn  file "C:/ti/controlSUITE/device_support/F2837xS/v170/F2837xS_common/source/F2837xS_Gpio.c",li
     882 00000192 761F!         MOVW      DP,#_InputXbarRegs+3  ; [CPU_U] 
         00000193 0000 
     883 00000194 9603!         MOV       @_InputXbarRegs+3,AL  ; [CPU_] |242| 
     884                      .dwpsn  file "C:/ti/controlSUITE/device_support/F2837xS/v170/F2837xS_common/source/F2837xS_Gpio.c",li
     885 00000195 761A   EDIS
     886                      .dwpsn  file "C:/ti/controlSUITE/device_support/F2837xS/v170/F2837xS_common/source/F2837xS_Gpio.c",li
     887 00000196 FF69          SPM       #0                    ; [CPU_] 
     888 00000197 FE82          SUBB      SP,#2                 ; [CPU_U] 
     889                      .dwcfi  cfa_offset, -2
     890              $C$DW$55        .dwtag  DW_TAG_TI_branch
     891                      .dwattr $C$DW$55, DW_AT_low_pc(0x00)
     892                      .dwattr $C$DW$55, DW_AT_TI_return
     893 00000198 0006          LRETR     ; [CPU_] 
     894                      ; return occurs ; [] 
     895                      .dwattr $C$DW$52, DW_AT_TI_end_file("C:/ti/controlSUITE/device_support/F2837xS/v170/F2837xS_common/so
     896                      .dwattr $C$DW$52, DW_AT_TI_end_line(0xf4)
     897                      .dwattr $C$DW$52, DW_AT_TI_end_column(0x01)
     898                      .dwendentry
TMS320C2000 Assembler PC v6.4.2 Thu Dec 14 13:37:25 2017

Tools Copyright (c) 1996-2015 Texas Instruments Incorporated
F2837xS_Gpio.asm                                                     PAGE   18

     899                      .dwendtag $C$DW$52
     900              
     901 00000199               .sect   ".text"
     902                      .clink
     903                      .global _GPIO_SetupXINT2Gpio
     904              
     905              $C$DW$56        .dwtag  DW_TAG_subprogram, DW_AT_name("GPIO_SetupXINT2Gpio")
     906                      .dwattr $C$DW$56, DW_AT_low_pc(_GPIO_SetupXINT2Gpio)
     907                      .dwattr $C$DW$56, DW_AT_high_pc(0x00)
     908                      .dwattr $C$DW$56, DW_AT_TI_symbol_name("_GPIO_SetupXINT2Gpio")
     909                      .dwattr $C$DW$56, DW_AT_external
     910                      .dwattr $C$DW$56, DW_AT_TI_begin_file("C:/ti/controlSUITE/device_support/F2837xS/v170/F2837xS_common/
     911                      .dwattr $C$DW$56, DW_AT_TI_begin_line(0xf5)
     912                      .dwattr $C$DW$56, DW_AT_TI_begin_column(0x06)
     913                      .dwattr $C$DW$56, DW_AT_TI_max_frame_size(-4)
     914                      .dwpsn  file "C:/ti/controlSUITE/device_support/F2837xS/v170/F2837xS_common/source/F2837xS_Gpio.c",li
     915              
     916                      .dwfde $C$DW$CIE, _GPIO_SetupXINT2Gpio
     917              $C$DW$57        .dwtag  DW_TAG_formal_parameter, DW_AT_name("pin")
     918                      .dwattr $C$DW$57, DW_AT_TI_symbol_name("_pin")
     919                      .dwattr $C$DW$57, DW_AT_type(*$C$DW$T$19)
     920                      .dwattr $C$DW$57, DW_AT_location[DW_OP_reg0]
     921              
     922              ;***************************************************************
     923              ;* FNAME: _GPIO_SetupXINT2Gpio          FR SIZE:   2           *
     924              ;*                                                             *
     925              ;* FUNCTION ENVIRONMENT                                        *
     926              ;*                                                             *
     927              ;* FUNCTION PROPERTIES                                         *
     928              ;*                            0 Parameter,  1 Auto,  0 SOE     *
     929              ;***************************************************************
     930              
     931 00000199       _GPIO_SetupXINT2Gpio:
     932                      .dwcfi  cfa_offset, -2
     933                      .dwcfi  save_reg_to_mem, 26, 0
     934 00000199 FE02          ADDB      SP,#2                 ; [CPU_U] 
     935                      .dwcfi  cfa_offset, -4
     936              $C$DW$58        .dwtag  DW_TAG_variable, DW_AT_name("pin")
     937                      .dwattr $C$DW$58, DW_AT_TI_symbol_name("_pin")
     938                      .dwattr $C$DW$58, DW_AT_type(*$C$DW$T$19)
     939                      .dwattr $C$DW$58, DW_AT_location[DW_OP_breg20 -1]
     940 0000019a 9641          MOV       *-SP[1],AL            ; [CPU_] |246| 
     941                      .dwpsn  file "C:/ti/controlSUITE/device_support/F2837xS/v170/F2837xS_common/source/F2837xS_Gpio.c",li
     942 0000019b 7622   EALLOW
     943                      .dwpsn  file "C:/ti/controlSUITE/device_support/F2837xS/v170/F2837xS_common/source/F2837xS_Gpio.c",li
     944 0000019c 761F!         MOVW      DP,#_InputXbarRegs+4  ; [CPU_U] 
         0000019d 0000 
     945 0000019e 9604!         MOV       @_InputXbarRegs+4,AL  ; [CPU_] |248| 
     946                      .dwpsn  file "C:/ti/controlSUITE/device_support/F2837xS/v170/F2837xS_common/source/F2837xS_Gpio.c",li
     947 0000019f 761A   EDIS
     948                      .dwpsn  file "C:/ti/controlSUITE/device_support/F2837xS/v170/F2837xS_common/source/F2837xS_Gpio.c",li
     949 000001a0 FF69          SPM       #0                    ; [CPU_] 
     950 000001a1 FE82          SUBB      SP,#2                 ; [CPU_U] 
     951                      .dwcfi  cfa_offset, -2
     952              $C$DW$59        .dwtag  DW_TAG_TI_branch
TMS320C2000 Assembler PC v6.4.2 Thu Dec 14 13:37:25 2017

Tools Copyright (c) 1996-2015 Texas Instruments Incorporated
F2837xS_Gpio.asm                                                     PAGE   19

     953                      .dwattr $C$DW$59, DW_AT_low_pc(0x00)
     954                      .dwattr $C$DW$59, DW_AT_TI_return
     955 000001a2 0006          LRETR     ; [CPU_] 
     956                      ; return occurs ; [] 
     957                      .dwattr $C$DW$56, DW_AT_TI_end_file("C:/ti/controlSUITE/device_support/F2837xS/v170/F2837xS_common/so
     958                      .dwattr $C$DW$56, DW_AT_TI_end_line(0xfa)
     959                      .dwattr $C$DW$56, DW_AT_TI_end_column(0x01)
     960                      .dwendentry
     961                      .dwendtag $C$DW$56
     962              
     963 000001a3               .sect   ".text"
     964                      .clink
     965                      .global _GPIO_SetupXINT3Gpio
     966              
     967              $C$DW$60        .dwtag  DW_TAG_subprogram, DW_AT_name("GPIO_SetupXINT3Gpio")
     968                      .dwattr $C$DW$60, DW_AT_low_pc(_GPIO_SetupXINT3Gpio)
     969                      .dwattr $C$DW$60, DW_AT_high_pc(0x00)
     970                      .dwattr $C$DW$60, DW_AT_TI_symbol_name("_GPIO_SetupXINT3Gpio")
     971                      .dwattr $C$DW$60, DW_AT_external
     972                      .dwattr $C$DW$60, DW_AT_TI_begin_file("C:/ti/controlSUITE/device_support/F2837xS/v170/F2837xS_common/
     973                      .dwattr $C$DW$60, DW_AT_TI_begin_line(0xfb)
     974                      .dwattr $C$DW$60, DW_AT_TI_begin_column(0x06)
     975                      .dwattr $C$DW$60, DW_AT_TI_max_frame_size(-4)
     976                      .dwpsn  file "C:/ti/controlSUITE/device_support/F2837xS/v170/F2837xS_common/source/F2837xS_Gpio.c",li
     977              
     978                      .dwfde $C$DW$CIE, _GPIO_SetupXINT3Gpio
     979              $C$DW$61        .dwtag  DW_TAG_formal_parameter, DW_AT_name("pin")
     980                      .dwattr $C$DW$61, DW_AT_TI_symbol_name("_pin")
     981                      .dwattr $C$DW$61, DW_AT_type(*$C$DW$T$19)
     982                      .dwattr $C$DW$61, DW_AT_location[DW_OP_reg0]
     983              
     984              ;***************************************************************
     985              ;* FNAME: _GPIO_SetupXINT3Gpio          FR SIZE:   2           *
     986              ;*                                                             *
     987              ;* FUNCTION ENVIRONMENT                                        *
     988              ;*                                                             *
     989              ;* FUNCTION PROPERTIES                                         *
     990              ;*                            0 Parameter,  1 Auto,  0 SOE     *
     991              ;***************************************************************
     992              
     993 000001a3       _GPIO_SetupXINT3Gpio:
     994                      .dwcfi  cfa_offset, -2
     995                      .dwcfi  save_reg_to_mem, 26, 0
     996 000001a3 FE02          ADDB      SP,#2                 ; [CPU_U] 
     997                      .dwcfi  cfa_offset, -4
     998              $C$DW$62        .dwtag  DW_TAG_variable, DW_AT_name("pin")
     999                      .dwattr $C$DW$62, DW_AT_TI_symbol_name("_pin")
    1000                      .dwattr $C$DW$62, DW_AT_type(*$C$DW$T$19)
    1001                      .dwattr $C$DW$62, DW_AT_location[DW_OP_breg20 -1]
    1002 000001a4 9641          MOV       *-SP[1],AL            ; [CPU_] |252| 
    1003                      .dwpsn  file "C:/ti/controlSUITE/device_support/F2837xS/v170/F2837xS_common/source/F2837xS_Gpio.c",li
    1004 000001a5 7622   EALLOW
    1005                      .dwpsn  file "C:/ti/controlSUITE/device_support/F2837xS/v170/F2837xS_common/source/F2837xS_Gpio.c",li
    1006 000001a6 761F!         MOVW      DP,#_InputXbarRegs+5  ; [CPU_U] 
         000001a7 0000 
TMS320C2000 Assembler PC v6.4.2 Thu Dec 14 13:37:25 2017

Tools Copyright (c) 1996-2015 Texas Instruments Incorporated
F2837xS_Gpio.asm                                                     PAGE   20

    1007 000001a8 9605!         MOV       @_InputXbarRegs+5,AL  ; [CPU_] |254| 
    1008                      .dwpsn  file "C:/ti/controlSUITE/device_support/F2837xS/v170/F2837xS_common/source/F2837xS_Gpio.c",li
    1009 000001a9 761A   EDIS
    1010                      .dwpsn  file "C:/ti/controlSUITE/device_support/F2837xS/v170/F2837xS_common/source/F2837xS_Gpio.c",li
    1011 000001aa FF69          SPM       #0                    ; [CPU_] 
    1012 000001ab FE82          SUBB      SP,#2                 ; [CPU_U] 
    1013                      .dwcfi  cfa_offset, -2
    1014              $C$DW$63        .dwtag  DW_TAG_TI_branch
    1015                      .dwattr $C$DW$63, DW_AT_low_pc(0x00)
    1016                      .dwattr $C$DW$63, DW_AT_TI_return
    1017 000001ac 0006          LRETR     ; [CPU_] 
    1018                      ; return occurs ; [] 
    1019                      .dwattr $C$DW$60, DW_AT_TI_end_file("C:/ti/controlSUITE/device_support/F2837xS/v170/F2837xS_common/so
    1020                      .dwattr $C$DW$60, DW_AT_TI_end_line(0x100)
    1021                      .dwattr $C$DW$60, DW_AT_TI_end_column(0x01)
    1022                      .dwendentry
    1023                      .dwendtag $C$DW$60
    1024              
    1025 000001ad               .sect   ".text"
    1026                      .clink
    1027                      .global _GPIO_SetupXINT4Gpio
    1028              
    1029              $C$DW$64        .dwtag  DW_TAG_subprogram, DW_AT_name("GPIO_SetupXINT4Gpio")
    1030                      .dwattr $C$DW$64, DW_AT_low_pc(_GPIO_SetupXINT4Gpio)
    1031                      .dwattr $C$DW$64, DW_AT_high_pc(0x00)
    1032                      .dwattr $C$DW$64, DW_AT_TI_symbol_name("_GPIO_SetupXINT4Gpio")
    1033                      .dwattr $C$DW$64, DW_AT_external
    1034                      .dwattr $C$DW$64, DW_AT_TI_begin_file("C:/ti/controlSUITE/device_support/F2837xS/v170/F2837xS_common/
    1035                      .dwattr $C$DW$64, DW_AT_TI_begin_line(0x101)
    1036                      .dwattr $C$DW$64, DW_AT_TI_begin_column(0x06)
    1037                      .dwattr $C$DW$64, DW_AT_TI_max_frame_size(-4)
    1038                      .dwpsn  file "C:/ti/controlSUITE/device_support/F2837xS/v170/F2837xS_common/source/F2837xS_Gpio.c",li
    1039              
    1040                      .dwfde $C$DW$CIE, _GPIO_SetupXINT4Gpio
    1041              $C$DW$65        .dwtag  DW_TAG_formal_parameter, DW_AT_name("pin")
    1042                      .dwattr $C$DW$65, DW_AT_TI_symbol_name("_pin")
    1043                      .dwattr $C$DW$65, DW_AT_type(*$C$DW$T$19)
    1044                      .dwattr $C$DW$65, DW_AT_location[DW_OP_reg0]
    1045              
    1046              ;***************************************************************
    1047              ;* FNAME: _GPIO_SetupXINT4Gpio          FR SIZE:   2           *
    1048              ;*                                                             *
    1049              ;* FUNCTION ENVIRONMENT                                        *
    1050              ;*                                                             *
    1051              ;* FUNCTION PROPERTIES                                         *
    1052              ;*                            0 Parameter,  1 Auto,  0 SOE     *
    1053              ;***************************************************************
    1054              
    1055 000001ad       _GPIO_SetupXINT4Gpio:
    1056                      .dwcfi  cfa_offset, -2
    1057                      .dwcfi  save_reg_to_mem, 26, 0
    1058 000001ad FE02          ADDB      SP,#2                 ; [CPU_U] 
    1059                      .dwcfi  cfa_offset, -4
    1060              $C$DW$66        .dwtag  DW_TAG_variable, DW_AT_name("pin")
    1061                      .dwattr $C$DW$66, DW_AT_TI_symbol_name("_pin")
TMS320C2000 Assembler PC v6.4.2 Thu Dec 14 13:37:25 2017

Tools Copyright (c) 1996-2015 Texas Instruments Incorporated
F2837xS_Gpio.asm                                                     PAGE   21

    1062                      .dwattr $C$DW$66, DW_AT_type(*$C$DW$T$19)
    1063                      .dwattr $C$DW$66, DW_AT_location[DW_OP_breg20 -1]
    1064 000001ae 9641          MOV       *-SP[1],AL            ; [CPU_] |258| 
    1065                      .dwpsn  file "C:/ti/controlSUITE/device_support/F2837xS/v170/F2837xS_common/source/F2837xS_Gpio.c",li
    1066 000001af 7622   EALLOW
    1067                      .dwpsn  file "C:/ti/controlSUITE/device_support/F2837xS/v170/F2837xS_common/source/F2837xS_Gpio.c",li
    1068 000001b0 761F!         MOVW      DP,#_InputXbarRegs+12 ; [CPU_U] 
         000001b1 0000 
    1069 000001b2 960C!         MOV       @_InputXbarRegs+12,AL ; [CPU_] |260| 
    1070                      .dwpsn  file "C:/ti/controlSUITE/device_support/F2837xS/v170/F2837xS_common/source/F2837xS_Gpio.c",li
    1071 000001b3 761A   EDIS
    1072                      .dwpsn  file "C:/ti/controlSUITE/device_support/F2837xS/v170/F2837xS_common/source/F2837xS_Gpio.c",li
    1073 000001b4 FF69          SPM       #0                    ; [CPU_] 
    1074 000001b5 FE82          SUBB      SP,#2                 ; [CPU_U] 
    1075                      .dwcfi  cfa_offset, -2
    1076              $C$DW$67        .dwtag  DW_TAG_TI_branch
    1077                      .dwattr $C$DW$67, DW_AT_low_pc(0x00)
    1078                      .dwattr $C$DW$67, DW_AT_TI_return
    1079 000001b6 0006          LRETR     ; [CPU_] 
    1080                      ; return occurs ; [] 
    1081                      .dwattr $C$DW$64, DW_AT_TI_end_file("C:/ti/controlSUITE/device_support/F2837xS/v170/F2837xS_common/so
    1082                      .dwattr $C$DW$64, DW_AT_TI_end_line(0x106)
    1083                      .dwattr $C$DW$64, DW_AT_TI_end_column(0x01)
    1084                      .dwendentry
    1085                      .dwendtag $C$DW$64
    1086              
    1087 000001b7               .sect   ".text"
    1088                      .clink
    1089                      .global _GPIO_SetupXINT5Gpio
    1090              
    1091              $C$DW$68        .dwtag  DW_TAG_subprogram, DW_AT_name("GPIO_SetupXINT5Gpio")
    1092                      .dwattr $C$DW$68, DW_AT_low_pc(_GPIO_SetupXINT5Gpio)
    1093                      .dwattr $C$DW$68, DW_AT_high_pc(0x00)
    1094                      .dwattr $C$DW$68, DW_AT_TI_symbol_name("_GPIO_SetupXINT5Gpio")
    1095                      .dwattr $C$DW$68, DW_AT_external
    1096                      .dwattr $C$DW$68, DW_AT_TI_begin_file("C:/ti/controlSUITE/device_support/F2837xS/v170/F2837xS_common/
    1097                      .dwattr $C$DW$68, DW_AT_TI_begin_line(0x107)
    1098                      .dwattr $C$DW$68, DW_AT_TI_begin_column(0x06)
    1099                      .dwattr $C$DW$68, DW_AT_TI_max_frame_size(-4)
    1100                      .dwpsn  file "C:/ti/controlSUITE/device_support/F2837xS/v170/F2837xS_common/source/F2837xS_Gpio.c",li
    1101              
    1102                      .dwfde $C$DW$CIE, _GPIO_SetupXINT5Gpio
    1103              $C$DW$69        .dwtag  DW_TAG_formal_parameter, DW_AT_name("pin")
    1104                      .dwattr $C$DW$69, DW_AT_TI_symbol_name("_pin")
    1105                      .dwattr $C$DW$69, DW_AT_type(*$C$DW$T$19)
    1106                      .dwattr $C$DW$69, DW_AT_location[DW_OP_reg0]
    1107              
    1108              ;***************************************************************
    1109              ;* FNAME: _GPIO_SetupXINT5Gpio          FR SIZE:   2           *
    1110              ;*                                                             *
    1111              ;* FUNCTION ENVIRONMENT                                        *
    1112              ;*                                                             *
    1113              ;* FUNCTION PROPERTIES                                         *
    1114              ;*                            0 Parameter,  1 Auto,  0 SOE     *
    1115              ;***************************************************************
TMS320C2000 Assembler PC v6.4.2 Thu Dec 14 13:37:25 2017

Tools Copyright (c) 1996-2015 Texas Instruments Incorporated
F2837xS_Gpio.asm                                                     PAGE   22

    1116              
    1117 000001b7       _GPIO_SetupXINT5Gpio:
    1118                      .dwcfi  cfa_offset, -2
    1119                      .dwcfi  save_reg_to_mem, 26, 0
    1120 000001b7 FE02          ADDB      SP,#2                 ; [CPU_U] 
    1121                      .dwcfi  cfa_offset, -4
    1122              $C$DW$70        .dwtag  DW_TAG_variable, DW_AT_name("pin")
    1123                      .dwattr $C$DW$70, DW_AT_TI_symbol_name("_pin")
    1124                      .dwattr $C$DW$70, DW_AT_type(*$C$DW$T$19)
    1125                      .dwattr $C$DW$70, DW_AT_location[DW_OP_breg20 -1]
    1126 000001b8 9641          MOV       *-SP[1],AL            ; [CPU_] |264| 
    1127                      .dwpsn  file "C:/ti/controlSUITE/device_support/F2837xS/v170/F2837xS_common/source/F2837xS_Gpio.c",li
    1128 000001b9 7622   EALLOW
    1129                      .dwpsn  file "C:/ti/controlSUITE/device_support/F2837xS/v170/F2837xS_common/source/F2837xS_Gpio.c",li
    1130 000001ba 761F!         MOVW      DP,#_InputXbarRegs+13 ; [CPU_U] 
         000001bb 0000 
    1131 000001bc 960D!         MOV       @_InputXbarRegs+13,AL ; [CPU_] |266| 
    1132                      .dwpsn  file "C:/ti/controlSUITE/device_support/F2837xS/v170/F2837xS_common/source/F2837xS_Gpio.c",li
    1133 000001bd 761A   EDIS
    1134                      .dwpsn  file "C:/ti/controlSUITE/device_support/F2837xS/v170/F2837xS_common/source/F2837xS_Gpio.c",li
    1135 000001be FF69          SPM       #0                    ; [CPU_] 
    1136 000001bf FE82          SUBB      SP,#2                 ; [CPU_U] 
    1137                      .dwcfi  cfa_offset, -2
    1138              $C$DW$71        .dwtag  DW_TAG_TI_branch
    1139                      .dwattr $C$DW$71, DW_AT_low_pc(0x00)
    1140                      .dwattr $C$DW$71, DW_AT_TI_return
    1141 000001c0 0006          LRETR     ; [CPU_] 
    1142                      ; return occurs ; [] 
    1143                      .dwattr $C$DW$68, DW_AT_TI_end_file("C:/ti/controlSUITE/device_support/F2837xS/v170/F2837xS_common/so
    1144                      .dwattr $C$DW$68, DW_AT_TI_end_line(0x10c)
    1145                      .dwattr $C$DW$68, DW_AT_TI_end_column(0x01)
    1146                      .dwendentry
    1147                      .dwendtag $C$DW$68
    1148              
    1149 000001c1               .sect   ".text"
    1150                      .clink
    1151                      .global _GPIO_EnableUnbondedIOPullupsFor176Pin
    1152              
    1153              $C$DW$72        .dwtag  DW_TAG_subprogram, DW_AT_name("GPIO_EnableUnbondedIOPullupsFor176Pin")
    1154                      .dwattr $C$DW$72, DW_AT_low_pc(_GPIO_EnableUnbondedIOPullupsFor176Pin)
    1155                      .dwattr $C$DW$72, DW_AT_high_pc(0x00)
    1156                      .dwattr $C$DW$72, DW_AT_TI_symbol_name("_GPIO_EnableUnbondedIOPullupsFor176Pin")
    1157                      .dwattr $C$DW$72, DW_AT_external
    1158                      .dwattr $C$DW$72, DW_AT_TI_begin_file("C:/ti/controlSUITE/device_support/F2837xS/v170/F2837xS_common/
    1159                      .dwattr $C$DW$72, DW_AT_TI_begin_line(0x116)
    1160                      .dwattr $C$DW$72, DW_AT_TI_begin_column(0x06)
    1161                      .dwattr $C$DW$72, DW_AT_TI_max_frame_size(-2)
    1162                      .dwpsn  file "C:/ti/controlSUITE/device_support/F2837xS/v170/F2837xS_common/source/F2837xS_Gpio.c",li
    1163              
    1164                      .dwfde $C$DW$CIE, _GPIO_EnableUnbondedIOPullupsFor176Pin
    1165              
    1166              ;***************************************************************
    1167              ;* FNAME: _GPIO_EnableUnbondedIOPullupsFor176Pin FR SIZE:   0           *
    1168              ;*                                                             *
    1169              ;* FUNCTION ENVIRONMENT                                        *
TMS320C2000 Assembler PC v6.4.2 Thu Dec 14 13:37:25 2017

Tools Copyright (c) 1996-2015 Texas Instruments Incorporated
F2837xS_Gpio.asm                                                     PAGE   23

    1170              ;*                                                             *
    1171              ;* FUNCTION PROPERTIES                                         *
    1172              ;*                            0 Parameter,  0 Auto,  0 SOE     *
    1173              ;***************************************************************
    1174              
    1175 000001c1       _GPIO_EnableUnbondedIOPullupsFor176Pin:
    1176                      .dwcfi  cfa_offset, -2
    1177                      .dwcfi  save_reg_to_mem, 26, 0
    1178                      .dwpsn  file "C:/ti/controlSUITE/device_support/F2837xS/v170/F2837xS_common/source/F2837xS_Gpio.c",li
    1179 000001c1 7622   EALLOW
    1180                      .dwpsn  file "C:/ti/controlSUITE/device_support/F2837xS/v170/F2837xS_common/source/F2837xS_Gpio.c",li
    1181 000001c2 28A9          MOV       AL,#65535             ; [CPU_] |281| 
         000001c3 FFFF 
    1182 000001c4 28A8          MOV       AH,#32767             ; [CPU_] |281| 
         000001c5 7FFF 
    1183 000001c6 761F!         MOVW      DP,#_GpioCtrlRegs+140 ; [CPU_U] 
         000001c7 0002 
    1184 000001c8 1E0C!         MOVL      @_GpioCtrlRegs+140,ACC ; [CPU_] |281| 
    1185                      .dwpsn  file "C:/ti/controlSUITE/device_support/F2837xS/v170/F2837xS_common/source/F2837xS_Gpio.c",li
    1186 000001c9 761F!         MOVW      DP,#_GpioCtrlRegs+204 ; [CPU_U] 
         000001ca 0003 
    1187 000001cb 0208          MOVB      ACC,#8                ; [CPU_] |282| 
    1188 000001cc 1E0C!         MOVL      @_GpioCtrlRegs+204,ACC ; [CPU_] |282| 
    1189                      .dwpsn  file "C:/ti/controlSUITE/device_support/F2837xS/v170/F2837xS_common/source/F2837xS_Gpio.c",li
    1190 000001cd 761F!         MOVW      DP,#_GpioCtrlRegs+268 ; [CPU_U] 
         000001ce 0004 
    1191 000001cf 0220          MOVB      ACC,#32               ; [CPU_] |283| 
    1192 000001d0 1E0C!         MOVL      @_GpioCtrlRegs+268,ACC ; [CPU_] |283| 
    1193                      .dwpsn  file "C:/ti/controlSUITE/device_support/F2837xS/v170/F2837xS_common/source/F2837xS_Gpio.c",li
    1194 000001d1 3B01          SETC      SXM                   ; [CPU_] 
    1195 000001d2 761F!         MOVW      DP,#_GpioCtrlRegs+332 ; [CPU_U] 
         000001d3 0005 
    1196 000001d4 FF29          MOV       ACC,#-1 << 9          ; [CPU_] |284| 
         000001d5 FFFF 
    1197 000001d6 1E0C!         MOVL      @_GpioCtrlRegs+332,ACC ; [CPU_] |284| 
    1198                      .dwpsn  file "C:/ti/controlSUITE/device_support/F2837xS/v170/F2837xS_common/source/F2837xS_Gpio.c",li
    1199 000001d7 761A   EDIS
    1200                      .dwpsn  file "C:/ti/controlSUITE/device_support/F2837xS/v170/F2837xS_common/source/F2837xS_Gpio.c",li
    1201 000001d8 FF69          SPM       #0                    ; [CPU_] 
    1202              $C$DW$73        .dwtag  DW_TAG_TI_branch
    1203                      .dwattr $C$DW$73, DW_AT_low_pc(0x00)
    1204                      .dwattr $C$DW$73, DW_AT_TI_return
    1205 000001d9 0006          LRETR     ; [CPU_] 
    1206                      ; return occurs ; [] 
    1207                      .dwattr $C$DW$72, DW_AT_TI_end_file("C:/ti/controlSUITE/device_support/F2837xS/v170/F2837xS_common/so
    1208                      .dwattr $C$DW$72, DW_AT_TI_end_line(0x11e)
    1209                      .dwattr $C$DW$72, DW_AT_TI_end_column(0x01)
    1210                      .dwendentry
    1211                      .dwendtag $C$DW$72
    1212              
    1213 000001da               .sect   ".text"
    1214                      .clink
    1215                      .global _GPIO_EnableUnbondedIOPullupsFor100Pin
    1216              
    1217              $C$DW$74        .dwtag  DW_TAG_subprogram, DW_AT_name("GPIO_EnableUnbondedIOPullupsFor100Pin")
TMS320C2000 Assembler PC v6.4.2 Thu Dec 14 13:37:25 2017

Tools Copyright (c) 1996-2015 Texas Instruments Incorporated
F2837xS_Gpio.asm                                                     PAGE   24

    1218                      .dwattr $C$DW$74, DW_AT_low_pc(_GPIO_EnableUnbondedIOPullupsFor100Pin)
    1219                      .dwattr $C$DW$74, DW_AT_high_pc(0x00)
    1220                      .dwattr $C$DW$74, DW_AT_TI_symbol_name("_GPIO_EnableUnbondedIOPullupsFor100Pin")
    1221                      .dwattr $C$DW$74, DW_AT_external
    1222                      .dwattr $C$DW$74, DW_AT_TI_begin_file("C:/ti/controlSUITE/device_support/F2837xS/v170/F2837xS_common/
    1223                      .dwattr $C$DW$74, DW_AT_TI_begin_line(0x12e)
    1224                      .dwattr $C$DW$74, DW_AT_TI_begin_column(0x06)
    1225                      .dwattr $C$DW$74, DW_AT_TI_max_frame_size(-2)
    1226                      .dwpsn  file "C:/ti/controlSUITE/device_support/F2837xS/v170/F2837xS_common/source/F2837xS_Gpio.c",li
    1227              
    1228                      .dwfde $C$DW$CIE, _GPIO_EnableUnbondedIOPullupsFor100Pin
    1229              
    1230              ;***************************************************************
    1231              ;* FNAME: _GPIO_EnableUnbondedIOPullupsFor100Pin FR SIZE:   0           *
    1232              ;*                                                             *
    1233              ;* FUNCTION ENVIRONMENT                                        *
    1234              ;*                                                             *
    1235              ;* FUNCTION PROPERTIES                                         *
    1236              ;*                            0 Parameter,  0 Auto,  0 SOE     *
    1237              ;***************************************************************
    1238              
    1239 000001da       _GPIO_EnableUnbondedIOPullupsFor100Pin:
    1240                      .dwcfi  cfa_offset, -2
    1241                      .dwcfi  save_reg_to_mem, 26, 0
    1242                      .dwpsn  file "C:/ti/controlSUITE/device_support/F2837xS/v170/F2837xS_common/source/F2837xS_Gpio.c",li
    1243 000001da 7622   EALLOW
    1244                      .dwpsn  file "C:/ti/controlSUITE/device_support/F2837xS/v170/F2837xS_common/source/F2837xS_Gpio.c",li
    1245 000001db 8F3F          MOVL      XAR4,#4193308         ; [CPU_U] |305| 
         000001dc FC1C 
    1246 000001dd 761F!         MOVW      DP,#_GpioCtrlRegs+12  ; [CPU_U] 
         000001de 0000 
    1247 000001df A80C!         MOVL      @_GpioCtrlRegs+12,XAR4 ; [CPU_] |305| 
    1248                      .dwpsn  file "C:/ti/controlSUITE/device_support/F2837xS/v170/F2837xS_common/source/F2837xS_Gpio.c",li
    1249 000001e0 28A9          MOV       AL,#3584              ; [CPU_] |306| 
         000001e1 0E00 
    1250 000001e2 28A8          MOV       AH,#64512             ; [CPU_] |306| 
         000001e3 FC00 
    1251 000001e4 761F!         MOVW      DP,#_GpioCtrlRegs+76  ; [CPU_U] 
         000001e5 0001 
    1252 000001e6 1E0C!         MOVL      @_GpioCtrlRegs+76,ACC ; [CPU_] |306| 
    1253                      .dwpsn  file "C:/ti/controlSUITE/device_support/F2837xS/v170/F2837xS_common/source/F2837xS_Gpio.c",li
    1254 000001e7 28A9          MOV       AL,#17383             ; [CPU_] |307| 
         000001e8 43E7 
    1255 000001e9 28A8          MOV       AH,#7920              ; [CPU_] |307| 
         000001ea 1EF0 
    1256 000001eb 761F!         MOVW      DP,#_GpioCtrlRegs+140 ; [CPU_U] 
         000001ec 0002 
    1257 000001ed 1E0C!         MOVL      @_GpioCtrlRegs+140,ACC ; [CPU_] |307| 
    1258                      .dwpsn  file "C:/ti/controlSUITE/device_support/F2837xS/v170/F2837xS_common/source/F2837xS_Gpio.c",li
    1259 000001ee 761F!         MOVW      DP,#_GpioCtrlRegs+204 ; [CPU_U] 
         000001ef 0003 
    1260 000001f0 0208          MOVB      ACC,#8                ; [CPU_] |308| 
    1261 000001f1 1E0C!         MOVL      @_GpioCtrlRegs+204,ACC ; [CPU_] |308| 
    1262                      .dwpsn  file "C:/ti/controlSUITE/device_support/F2837xS/v170/F2837xS_common/source/F2837xS_Gpio.c",li
    1263 000001f2 761F!         MOVW      DP,#_GpioCtrlRegs+268 ; [CPU_U] 
TMS320C2000 Assembler PC v6.4.2 Thu Dec 14 13:37:25 2017

Tools Copyright (c) 1996-2015 Texas Instruments Incorporated
F2837xS_Gpio.asm                                                     PAGE   25

         000001f3 0004 
    1264 000001f4 0200          MOVB      ACC,#0                ; [CPU_] |309| 
    1265 000001f5 1E0C!         MOVL      @_GpioCtrlRegs+268,ACC ; [CPU_] |309| 
    1266                      .dwpsn  file "C:/ti/controlSUITE/device_support/F2837xS/v170/F2837xS_common/source/F2837xS_Gpio.c",li
    1267 000001f6 3B01          SETC      SXM                   ; [CPU_] 
    1268 000001f7 761F!         MOVW      DP,#_GpioCtrlRegs+332 ; [CPU_U] 
         000001f8 0005 
    1269 000001f9 FF29          MOV       ACC,#-1 << 9          ; [CPU_] |310| 
         000001fa FFFF 
    1270 000001fb 1E0C!         MOVL      @_GpioCtrlRegs+332,ACC ; [CPU_] |310| 
    1271                      .dwpsn  file "C:/ti/controlSUITE/device_support/F2837xS/v170/F2837xS_common/source/F2837xS_Gpio.c",li
    1272 000001fc 761A   EDIS
    1273                      .dwpsn  file "C:/ti/controlSUITE/device_support/F2837xS/v170/F2837xS_common/source/F2837xS_Gpio.c",li
    1274 000001fd FF69          SPM       #0                    ; [CPU_] 
    1275              $C$DW$75        .dwtag  DW_TAG_TI_branch
    1276                      .dwattr $C$DW$75, DW_AT_low_pc(0x00)
    1277                      .dwattr $C$DW$75, DW_AT_TI_return
    1278 000001fe 0006          LRETR     ; [CPU_] 
    1279                      ; return occurs ; [] 
    1280                      .dwattr $C$DW$74, DW_AT_TI_end_file("C:/ti/controlSUITE/device_support/F2837xS/v170/F2837xS_common/so
    1281                      .dwattr $C$DW$74, DW_AT_TI_end_line(0x138)
    1282                      .dwattr $C$DW$74, DW_AT_TI_end_column(0x01)
    1283                      .dwendentry
    1284                      .dwendtag $C$DW$74
    1285              
    1286 000001ff               .sect   ".text"
    1287                      .clink
    1288                      .global _GPIO_EnableUnbondedIOPullups
    1289              
    1290              $C$DW$76        .dwtag  DW_TAG_subprogram, DW_AT_name("GPIO_EnableUnbondedIOPullups")
    1291                      .dwattr $C$DW$76, DW_AT_low_pc(_GPIO_EnableUnbondedIOPullups)
    1292                      .dwattr $C$DW$76, DW_AT_high_pc(0x00)
    1293                      .dwattr $C$DW$76, DW_AT_TI_symbol_name("_GPIO_EnableUnbondedIOPullups")
    1294                      .dwattr $C$DW$76, DW_AT_external
    1295                      .dwattr $C$DW$76, DW_AT_TI_begin_file("C:/ti/controlSUITE/device_support/F2837xS/v170/F2837xS_common/
    1296                      .dwattr $C$DW$76, DW_AT_TI_begin_line(0x13b)
    1297                      .dwattr $C$DW$76, DW_AT_TI_begin_column(0x06)
    1298                      .dwattr $C$DW$76, DW_AT_TI_max_frame_size(-4)
    1299                      .dwpsn  file "C:/ti/controlSUITE/device_support/F2837xS/v170/F2837xS_common/source/F2837xS_Gpio.c",li
    1300              
    1301                      .dwfde $C$DW$CIE, _GPIO_EnableUnbondedIOPullups
    1302              
    1303              ;***************************************************************
    1304              ;* FNAME: _GPIO_EnableUnbondedIOPullups FR SIZE:   2           *
    1305              ;*                                                             *
    1306              ;* FUNCTION ENVIRONMENT                                        *
    1307              ;*                                                             *
    1308              ;* FUNCTION PROPERTIES                                         *
    1309              ;*                            0 Parameter,  1 Auto,  0 SOE     *
    1310              ;***************************************************************
    1311              
    1312 000001ff       _GPIO_EnableUnbondedIOPullups:
    1313                      .dwcfi  cfa_offset, -2
    1314                      .dwcfi  save_reg_to_mem, 26, 0
    1315 000001ff FE02          ADDB      SP,#2                 ; [CPU_U] 
TMS320C2000 Assembler PC v6.4.2 Thu Dec 14 13:37:25 2017

Tools Copyright (c) 1996-2015 Texas Instruments Incorporated
F2837xS_Gpio.asm                                                     PAGE   26

    1316                      .dwcfi  cfa_offset, -4
    1317              $C$DW$77        .dwtag  DW_TAG_variable, DW_AT_name("pin_count")
    1318                      .dwattr $C$DW$77, DW_AT_TI_symbol_name("_pin_count")
    1319                      .dwattr $C$DW$77, DW_AT_type(*$C$DW$T$6)
    1320                      .dwattr $C$DW$77, DW_AT_location[DW_OP_breg20 -1]
    1321                      .dwpsn  file "C:/ti/controlSUITE/device_support/F2837xS/v170/F2837xS_common/source/F2837xS_Gpio.c",li
    1322 00000200 761F!         MOVW      DP,#_DevCfgRegs+8     ; [CPU_U] 
         00000201 0000 
    1323 00000202 0608!         MOVL      ACC,@_DevCfgRegs+8    ; [CPU_] |317| 
    1324 00000203 2901          CLRC      SXM                   ; [CPU_] 
    1325 00000204 9B00          MOVB      AH,#0                 ; [CPU_] |317| 
    1326 00000205 18A9          AND       AL,#0x0700            ; [CPU_] |317| 
         00000206 0700 
    1327 00000207 FF47          SFR       ACC,8                 ; [CPU_] |317| 
    1328 00000208 9641          MOV       *-SP[1],AL            ; [CPU_] |317| 
    1329                      .dwpsn  file "C:/ti/controlSUITE/device_support/F2837xS/v170/F2837xS_common/source/F2837xS_Gpio.c",li
    1330 00000209 5205          CMPB      AL,#5                 ; [CPU_] |324| 
    1331 0000020a ED04          BF        $C$L19,NEQ            ; [CPU_] |324| 
    1332                      ; branchcc occurs ; [] |324| 
    1333                      .dwpsn  file "C:/ti/controlSUITE/device_support/F2837xS/v170/F2837xS_common/source/F2837xS_Gpio.c",li
    1334              $C$DW$78        .dwtag  DW_TAG_TI_branch
    1335                      .dwattr $C$DW$78, DW_AT_low_pc(0x00)
    1336                      .dwattr $C$DW$78, DW_AT_name("_GPIO_EnableUnbondedIOPullupsFor100Pin")
    1337                      .dwattr $C$DW$78, DW_AT_TI_call
    1338 0000020b 7640'         LCR       #_GPIO_EnableUnbondedIOPullupsFor100Pin ; [CPU_] |326| 
         0000020c 01DA 
    1339                      ; call occurs [#_GPIO_EnableUnbondedIOPullupsFor100Pin] ; [] |326| 
    1340                      .dwpsn  file "C:/ti/controlSUITE/device_support/F2837xS/v170/F2837xS_common/source/F2837xS_Gpio.c",li
    1341 0000020d 6F06          B         $C$L20,UNC            ; [CPU_] |327| 
    1342                      ; branch occurs ; [] |327| 
    1343 0000020e       $C$L19:    
    1344                      .dwpsn  file "C:/ti/controlSUITE/device_support/F2837xS/v170/F2837xS_common/source/F2837xS_Gpio.c",li
    1345 0000020e 5206          CMPB      AL,#6                 ; [CPU_] |328| 
    1346 0000020f ED04          BF        $C$L20,NEQ            ; [CPU_] |328| 
    1347                      ; branchcc occurs ; [] |328| 
    1348                      .dwpsn  file "C:/ti/controlSUITE/device_support/F2837xS/v170/F2837xS_common/source/F2837xS_Gpio.c",li
    1349              $C$DW$79        .dwtag  DW_TAG_TI_branch
    1350                      .dwattr $C$DW$79, DW_AT_low_pc(0x00)
    1351                      .dwattr $C$DW$79, DW_AT_name("_GPIO_EnableUnbondedIOPullupsFor176Pin")
    1352                      .dwattr $C$DW$79, DW_AT_TI_call
    1353 00000210 7640'         LCR       #_GPIO_EnableUnbondedIOPullupsFor176Pin ; [CPU_] |330| 
         00000211 01C1 
    1354                      ; call occurs [#_GPIO_EnableUnbondedIOPullupsFor176Pin] ; [] |330| 
    1355                      .dwpsn  file "C:/ti/controlSUITE/device_support/F2837xS/v170/F2837xS_common/source/F2837xS_Gpio.c",li
    1356 00000212 6F01          B         $C$L20,UNC            ; [CPU_] |331| 
    1357                      ; branch occurs ; [] |331| 
    1358 00000213       $C$L20:    
    1359 00000213 FE82          SUBB      SP,#2                 ; [CPU_U] 
    1360                      .dwcfi  cfa_offset, -2
    1361              $C$DW$80        .dwtag  DW_TAG_TI_branch
    1362                      .dwattr $C$DW$80, DW_AT_low_pc(0x00)
    1363                      .dwattr $C$DW$80, DW_AT_TI_return
    1364 00000214 0006          LRETR     ; [CPU_] 
    1365                      ; return occurs ; [] 
    1366                      .dwattr $C$DW$76, DW_AT_TI_end_file("C:/ti/controlSUITE/device_support/F2837xS/v170/F2837xS_common/so
TMS320C2000 Assembler PC v6.4.2 Thu Dec 14 13:37:25 2017

Tools Copyright (c) 1996-2015 Texas Instruments Incorporated
F2837xS_Gpio.asm                                                     PAGE   27

    1367                      .dwattr $C$DW$76, DW_AT_TI_end_line(0x151)
    1368                      .dwattr $C$DW$76, DW_AT_TI_end_column(0x01)
    1369                      .dwendentry
    1370                      .dwendtag $C$DW$76
    1371              
    1372 00000215               .sect   ".text"
    1373                      .clink
    1374                      .global _GPIO_ReadPin
    1375              
    1376              $C$DW$81        .dwtag  DW_TAG_subprogram, DW_AT_name("GPIO_ReadPin")
    1377                      .dwattr $C$DW$81, DW_AT_low_pc(_GPIO_ReadPin)
    1378                      .dwattr $C$DW$81, DW_AT_high_pc(0x00)
    1379                      .dwattr $C$DW$81, DW_AT_TI_symbol_name("_GPIO_ReadPin")
    1380                      .dwattr $C$DW$81, DW_AT_external
    1381                      .dwattr $C$DW$81, DW_AT_type(*$C$DW$T$19)
    1382                      .dwattr $C$DW$81, DW_AT_TI_begin_file("C:/ti/controlSUITE/device_support/F2837xS/v170/F2837xS_common/
    1383                      .dwattr $C$DW$81, DW_AT_TI_begin_line(0x155)
    1384                      .dwattr $C$DW$81, DW_AT_TI_begin_column(0x08)
    1385                      .dwattr $C$DW$81, DW_AT_TI_max_frame_size(-8)
    1386                      .dwpsn  file "C:/ti/controlSUITE/device_support/F2837xS/v170/F2837xS_common/source/F2837xS_Gpio.c",li
    1387              
    1388                      .dwfde $C$DW$CIE, _GPIO_ReadPin
    1389              $C$DW$82        .dwtag  DW_TAG_formal_parameter, DW_AT_name("pin")
    1390                      .dwattr $C$DW$82, DW_AT_TI_symbol_name("_pin")
    1391                      .dwattr $C$DW$82, DW_AT_type(*$C$DW$T$19)
    1392                      .dwattr $C$DW$82, DW_AT_location[DW_OP_reg0]
    1393              
    1394              ;***************************************************************
    1395              ;* FNAME: _GPIO_ReadPin                 FR SIZE:   6           *
    1396              ;*                                                             *
    1397              ;* FUNCTION ENVIRONMENT                                        *
    1398              ;*                                                             *
    1399              ;* FUNCTION PROPERTIES                                         *
    1400              ;*                            0 Parameter,  5 Auto,  0 SOE     *
    1401              ;***************************************************************
    1402              
    1403 00000215       _GPIO_ReadPin:
    1404                      .dwcfi  cfa_offset, -2
    1405                      .dwcfi  save_reg_to_mem, 26, 0
    1406 00000215 FE06          ADDB      SP,#6                 ; [CPU_U] 
    1407                      .dwcfi  cfa_offset, -8
    1408              $C$DW$83        .dwtag  DW_TAG_variable, DW_AT_name("pin")
    1409                      .dwattr $C$DW$83, DW_AT_TI_symbol_name("_pin")
    1410                      .dwattr $C$DW$83, DW_AT_type(*$C$DW$T$19)
    1411                      .dwattr $C$DW$83, DW_AT_location[DW_OP_breg20 -1]
    1412              $C$DW$84        .dwtag  DW_TAG_variable, DW_AT_name("gpioDataReg")
    1413                      .dwattr $C$DW$84, DW_AT_TI_symbol_name("_gpioDataReg")
    1414                      .dwattr $C$DW$84, DW_AT_type(*$C$DW$T$382)
    1415                      .dwattr $C$DW$84, DW_AT_location[DW_OP_breg20 -4]
    1416              $C$DW$85        .dwtag  DW_TAG_variable, DW_AT_name("pinVal")
    1417                      .dwattr $C$DW$85, DW_AT_TI_symbol_name("_pinVal")
    1418                      .dwattr $C$DW$85, DW_AT_type(*$C$DW$T$19)
    1419                      .dwattr $C$DW$85, DW_AT_location[DW_OP_breg20 -5]
    1420 00000216 9641          MOV       *-SP[1],AL            ; [CPU_] |342| 
    1421                      .dwpsn  file "C:/ti/controlSUITE/device_support/F2837xS/v170/F2837xS_common/source/F2837xS_Gpio.c",li
TMS320C2000 Assembler PC v6.4.2 Thu Dec 14 13:37:25 2017

Tools Copyright (c) 1996-2015 Texas Instruments Incorporated
F2837xS_Gpio.asm                                                     PAGE   28

    1422 00000217 FFC4          LSR       AL,5                  ; [CPU_] |346| 
    1423 00000218 2901          CLRC      SXM                   ; [CPU_] 
    1424 00000219 8F00!         MOVL      XAR4,#_GpioDataRegs   ; [CPU_U] |346| 
         0000021a 0000 
    1425 0000021b FF81          LSL       AL,2                  ; [CPU_] |346| 
    1426 0000021c 5603          MOV       ACC,AL << 1           ; [CPU_] |346| 
         0000021d 01A9 
    1427 0000021e 5601          ADDL      XAR4,ACC              ; [CPU_] |346| 
         0000021f 00A4 
    1428 00000220 A844          MOVL      *-SP[4],XAR4          ; [CPU_] |346| 
    1429                      .dwpsn  file "C:/ti/controlSUITE/device_support/F2837xS/v170/F2837xS_common/source/F2837xS_Gpio.c",li
    1430 00000221 9241          MOV       AL,*-SP[1]            ; [CPU_] |347| 
    1431 00000222 901F          ANDB      AL,#0x1f              ; [CPU_] |347| 
    1432 00000223 2DA9          MOV       T,AL                  ; [CPU_] |347| 
    1433 00000224 06C4          MOVL      ACC,*+XAR4[0]         ; [CPU_] |347| 
    1434 00000225 5622          LSRL      ACC,T                 ; [CPU_] |347| 
    1435 00000226 1EA6          MOVL      XAR6,ACC              ; [CPU_] |347| 
    1436 00000227 92A6          MOV       AL,AR6                ; [CPU_] |347| 
    1437 00000228 9001          ANDB      AL,#0x01              ; [CPU_] |347| 
    1438 00000229 9645          MOV       *-SP[5],AL            ; [CPU_] |347| 
    1439                      .dwpsn  file "C:/ti/controlSUITE/device_support/F2837xS/v170/F2837xS_common/source/F2837xS_Gpio.c",li
    1440                      .dwpsn  file "C:/ti/controlSUITE/device_support/F2837xS/v170/F2837xS_common/source/F2837xS_Gpio.c",li
    1441 0000022a FE86          SUBB      SP,#6                 ; [CPU_U] 
    1442                      .dwcfi  cfa_offset, -2
    1443              $C$DW$86        .dwtag  DW_TAG_TI_branch
    1444                      .dwattr $C$DW$86, DW_AT_low_pc(0x00)
    1445                      .dwattr $C$DW$86, DW_AT_TI_return
    1446 0000022b 0006          LRETR     ; [CPU_] 
    1447                      ; return occurs ; [] 
    1448                      .dwattr $C$DW$81, DW_AT_TI_end_file("C:/ti/controlSUITE/device_support/F2837xS/v170/F2837xS_common/so
    1449                      .dwattr $C$DW$81, DW_AT_TI_end_line(0x15e)
    1450                      .dwattr $C$DW$81, DW_AT_TI_end_column(0x01)
    1451                      .dwendentry
    1452                      .dwendtag $C$DW$81
    1453              
    1454 0000022c               .sect   ".text"
    1455                      .clink
    1456                      .global _GPIO_WritePin
    1457              
    1458              $C$DW$87        .dwtag  DW_TAG_subprogram, DW_AT_name("GPIO_WritePin")
    1459                      .dwattr $C$DW$87, DW_AT_low_pc(_GPIO_WritePin)
    1460                      .dwattr $C$DW$87, DW_AT_high_pc(0x00)
    1461                      .dwattr $C$DW$87, DW_AT_TI_symbol_name("_GPIO_WritePin")
    1462                      .dwattr $C$DW$87, DW_AT_external
    1463                      .dwattr $C$DW$87, DW_AT_TI_begin_file("C:/ti/controlSUITE/device_support/F2837xS/v170/F2837xS_common/
    1464                      .dwattr $C$DW$87, DW_AT_TI_begin_line(0x161)
    1465                      .dwattr $C$DW$87, DW_AT_TI_begin_column(0x06)
    1466                      .dwattr $C$DW$87, DW_AT_TI_max_frame_size(-8)
    1467                      .dwpsn  file "C:/ti/controlSUITE/device_support/F2837xS/v170/F2837xS_common/source/F2837xS_Gpio.c",li
    1468              
    1469                      .dwfde $C$DW$CIE, _GPIO_WritePin
    1470              $C$DW$88        .dwtag  DW_TAG_formal_parameter, DW_AT_name("pin")
    1471                      .dwattr $C$DW$88, DW_AT_TI_symbol_name("_pin")
    1472                      .dwattr $C$DW$88, DW_AT_type(*$C$DW$T$19)
    1473                      .dwattr $C$DW$88, DW_AT_location[DW_OP_reg0]
TMS320C2000 Assembler PC v6.4.2 Thu Dec 14 13:37:25 2017

Tools Copyright (c) 1996-2015 Texas Instruments Incorporated
F2837xS_Gpio.asm                                                     PAGE   29

    1474              $C$DW$89        .dwtag  DW_TAG_formal_parameter, DW_AT_name("outVal")
    1475                      .dwattr $C$DW$89, DW_AT_TI_symbol_name("_outVal")
    1476                      .dwattr $C$DW$89, DW_AT_type(*$C$DW$T$19)
    1477                      .dwattr $C$DW$89, DW_AT_location[DW_OP_reg1]
    1478              
    1479              ;***************************************************************
    1480              ;* FNAME: _GPIO_WritePin                FR SIZE:   6           *
    1481              ;*                                                             *
    1482              ;* FUNCTION ENVIRONMENT                                        *
    1483              ;*                                                             *
    1484              ;* FUNCTION PROPERTIES                                         *
    1485              ;*                            0 Parameter,  6 Auto,  0 SOE     *
    1486              ;***************************************************************
    1487              
    1488 0000022c       _GPIO_WritePin:
    1489                      .dwcfi  cfa_offset, -2
    1490                      .dwcfi  save_reg_to_mem, 26, 0
    1491 0000022c FE06          ADDB      SP,#6                 ; [CPU_U] 
    1492                      .dwcfi  cfa_offset, -8
    1493              $C$DW$90        .dwtag  DW_TAG_variable, DW_AT_name("pin")
    1494                      .dwattr $C$DW$90, DW_AT_TI_symbol_name("_pin")
    1495                      .dwattr $C$DW$90, DW_AT_type(*$C$DW$T$19)
    1496                      .dwattr $C$DW$90, DW_AT_location[DW_OP_breg20 -1]
    1497              $C$DW$91        .dwtag  DW_TAG_variable, DW_AT_name("outVal")
    1498                      .dwattr $C$DW$91, DW_AT_TI_symbol_name("_outVal")
    1499                      .dwattr $C$DW$91, DW_AT_type(*$C$DW$T$19)
    1500                      .dwattr $C$DW$91, DW_AT_location[DW_OP_breg20 -2]
    1501              $C$DW$92        .dwtag  DW_TAG_variable, DW_AT_name("gpioDataReg")
    1502                      .dwattr $C$DW$92, DW_AT_TI_symbol_name("_gpioDataReg")
    1503                      .dwattr $C$DW$92, DW_AT_type(*$C$DW$T$382)
    1504                      .dwattr $C$DW$92, DW_AT_location[DW_OP_breg20 -4]
    1505              $C$DW$93        .dwtag  DW_TAG_variable, DW_AT_name("pinMask")
    1506                      .dwattr $C$DW$93, DW_AT_TI_symbol_name("_pinMask")
    1507                      .dwattr $C$DW$93, DW_AT_type(*$C$DW$T$21)
    1508                      .dwattr $C$DW$93, DW_AT_location[DW_OP_breg20 -6]
    1509 0000022d 9742          MOV       *-SP[2],AH            ; [CPU_] |354| 
    1510 0000022e 9641          MOV       *-SP[1],AL            ; [CPU_] |354| 
    1511                      .dwpsn  file "C:/ti/controlSUITE/device_support/F2837xS/v170/F2837xS_common/source/F2837xS_Gpio.c",li
    1512 0000022f FFC4          LSR       AL,5                  ; [CPU_] |358| 
    1513 00000230 2901          CLRC      SXM                   ; [CPU_] 
    1514 00000231 8F00!         MOVL      XAR4,#_GpioDataRegs   ; [CPU_U] |358| 
         00000232 0000 
    1515 00000233 FF81          LSL       AL,2                  ; [CPU_] |358| 
    1516 00000234 5603          MOV       ACC,AL << 1           ; [CPU_] |358| 
         00000235 01A9 
    1517 00000236 5601          ADDL      XAR4,ACC              ; [CPU_] |358| 
         00000237 00A4 
    1518 00000238 A844          MOVL      *-SP[4],XAR4          ; [CPU_] |358| 
    1519                      .dwpsn  file "C:/ti/controlSUITE/device_support/F2837xS/v170/F2837xS_common/source/F2837xS_Gpio.c",li
    1520 00000239 0201          MOVB      ACC,#1                ; [CPU_] |359| 
    1521 0000023a 1EA6          MOVL      XAR6,ACC              ; [CPU_] |359| 
    1522 0000023b 9241          MOV       AL,*-SP[1]            ; [CPU_] |359| 
    1523 0000023c 901F          ANDB      AL,#0x1f              ; [CPU_] |359| 
    1524 0000023d 2DA9          MOV       T,AL                  ; [CPU_] |359| 
    1525 0000023e 06A6          MOVL      ACC,XAR6              ; [CPU_] |359| 
TMS320C2000 Assembler PC v6.4.2 Thu Dec 14 13:37:25 2017

Tools Copyright (c) 1996-2015 Texas Instruments Incorporated
F2837xS_Gpio.asm                                                     PAGE   30

    1526 0000023f 563B          LSLL      ACC,T                 ; [CPU_] |359| 
    1527 00000240 1E46          MOVL      *-SP[6],ACC           ; [CPU_] |359| 
    1528                      .dwpsn  file "C:/ti/controlSUITE/device_support/F2837xS/v170/F2837xS_common/source/F2837xS_Gpio.c",li
    1529 00000241 9242          MOV       AL,*-SP[2]            ; [CPU_] |361| 
    1530 00000242 ED04          BF        $C$L21,NEQ            ; [CPU_] |361| 
    1531                      ; branchcc occurs ; [] |361| 
    1532                      .dwpsn  file "C:/ti/controlSUITE/device_support/F2837xS/v170/F2837xS_common/source/F2837xS_Gpio.c",li
    1533 00000243 0646          MOVL      ACC,*-SP[6]           ; [CPU_] |362| 
    1534 00000244 1EE4          MOVL      *+XAR4[4],ACC         ; [CPU_] |362| 
    1535 00000245 6F03          B         $C$L22,UNC            ; [CPU_] |362| 
    1536                      ; branch occurs ; [] |362| 
    1537 00000246       $C$L21:    
    1538                      .dwpsn  file "C:/ti/controlSUITE/device_support/F2837xS/v170/F2837xS_common/source/F2837xS_Gpio.c",li
    1539 00000246 0646          MOVL      ACC,*-SP[6]           ; [CPU_] |364| 
    1540 00000247 1ED4          MOVL      *+XAR4[2],ACC         ; [CPU_] |364| 
    1541                      .dwpsn  file "C:/ti/controlSUITE/device_support/F2837xS/v170/F2837xS_common/source/F2837xS_Gpio.c",li
    1542 00000248       $C$L22:    
    1543 00000248 FE86          SUBB      SP,#6                 ; [CPU_U] 
    1544                      .dwcfi  cfa_offset, -2
    1545              $C$DW$94        .dwtag  DW_TAG_TI_branch
    1546                      .dwattr $C$DW$94, DW_AT_low_pc(0x00)
    1547                      .dwattr $C$DW$94, DW_AT_TI_return
    1548 00000249 0006          LRETR     ; [CPU_] 
    1549                      ; return occurs ; [] 
    1550                      .dwattr $C$DW$87, DW_AT_TI_end_file("C:/ti/controlSUITE/device_support/F2837xS/v170/F2837xS_common/so
    1551                      .dwattr $C$DW$87, DW_AT_TI_end_line(0x16d)
    1552                      .dwattr $C$DW$87, DW_AT_TI_end_column(0x01)
    1553                      .dwendentry
    1554                      .dwendtag $C$DW$87
    1555              
    1556              ;**************************************************************
    1557              ;* UNDEFINED EXTERNAL REFERENCES                              *
    1558              ;**************************************************************
    1559                      .global _InputXbarRegs
    1560                      .global _GpioDataRegs
    1561                      .global _DevCfgRegs
    1562                      .global _GpioCtrlRegs
    1563              
    1564              ;***************************************************************
    1565              ;* TYPE INFORMATION                                            *
    1566              ;***************************************************************
    1567              
    1568              $C$DW$T$20      .dwtag  DW_TAG_structure_type
    1569                      .dwattr $C$DW$T$20, DW_AT_name("DC0_BITS")
    1570                      .dwattr $C$DW$T$20, DW_AT_byte_size(0x02)
    1571              $C$DW$95        .dwtag  DW_TAG_member
    1572                      .dwattr $C$DW$95, DW_AT_type(*$C$DW$T$19)
    1573                      .dwattr $C$DW$95, DW_AT_name("SINGLE_CORE")
    1574                      .dwattr $C$DW$95, DW_AT_TI_symbol_name("_SINGLE_CORE")
    1575                      .dwattr $C$DW$95, DW_AT_bit_offset(0x0f), DW_AT_bit_size(0x01)
    1576                      .dwattr $C$DW$95, DW_AT_data_member_location[DW_OP_plus_uconst 0x0]
    1577                      .dwattr $C$DW$95, DW_AT_accessibility(DW_ACCESS_public)
    1578              $C$DW$96        .dwtag  DW_TAG_member
    1579                      .dwattr $C$DW$96, DW_AT_type(*$C$DW$T$19)
    1580                      .dwattr $C$DW$96, DW_AT_name("rsvd1")
TMS320C2000 Assembler PC v6.4.2 Thu Dec 14 13:37:25 2017

Tools Copyright (c) 1996-2015 Texas Instruments Incorporated
F2837xS_Gpio.asm                                                     PAGE   31

    1581                      .dwattr $C$DW$96, DW_AT_TI_symbol_name("_rsvd1")
    1582                      .dwattr $C$DW$96, DW_AT_bit_offset(0x00), DW_AT_bit_size(0x0f)
    1583                      .dwattr $C$DW$96, DW_AT_data_member_location[DW_OP_plus_uconst 0x0]
    1584                      .dwattr $C$DW$96, DW_AT_accessibility(DW_ACCESS_public)
    1585              $C$DW$97        .dwtag  DW_TAG_member
    1586                      .dwattr $C$DW$97, DW_AT_type(*$C$DW$T$19)
    1587                      .dwattr $C$DW$97, DW_AT_name("rsvd2")
    1588                      .dwattr $C$DW$97, DW_AT_TI_symbol_name("_rsvd2")
    1589                      .dwattr $C$DW$97, DW_AT_bit_offset(0x00), DW_AT_bit_size(0x10)
    1590                      .dwattr $C$DW$97, DW_AT_data_member_location[DW_OP_plus_uconst 0x1]
    1591                      .dwattr $C$DW$97, DW_AT_accessibility(DW_ACCESS_public)
    1592                      .dwendtag $C$DW$T$20
    1593              
    1594              
    1595              $C$DW$T$22      .dwtag  DW_TAG_union_type
    1596                      .dwattr $C$DW$T$22, DW_AT_name("DC0_REG")
    1597                      .dwattr $C$DW$T$22, DW_AT_byte_size(0x02)
    1598              $C$DW$98        .dwtag  DW_TAG_member
    1599                      .dwattr $C$DW$98, DW_AT_type(*$C$DW$T$21)
    1600                      .dwattr $C$DW$98, DW_AT_name("all")
    1601                      .dwattr $C$DW$98, DW_AT_TI_symbol_name("_all")
    1602                      .dwattr $C$DW$98, DW_AT_data_member_location[DW_OP_plus_uconst 0x0]
    1603                      .dwattr $C$DW$98, DW_AT_accessibility(DW_ACCESS_public)
    1604              $C$DW$99        .dwtag  DW_TAG_member
    1605                      .dwattr $C$DW$99, DW_AT_type(*$C$DW$T$20)
    1606                      .dwattr $C$DW$99, DW_AT_name("bit")
    1607                      .dwattr $C$DW$99, DW_AT_TI_symbol_name("_bit")
    1608                      .dwattr $C$DW$99, DW_AT_data_member_location[DW_OP_plus_uconst 0x0]
    1609                      .dwattr $C$DW$99, DW_AT_accessibility(DW_ACCESS_public)
    1610                      .dwendtag $C$DW$T$22
    1611              
    1612              
    1613              $C$DW$T$23      .dwtag  DW_TAG_structure_type
    1614                      .dwattr $C$DW$T$23, DW_AT_name("DC10_BITS")
    1615                      .dwattr $C$DW$T$23, DW_AT_byte_size(0x02)
    1616              $C$DW$100       .dwtag  DW_TAG_member
    1617                      .dwattr $C$DW$100, DW_AT_type(*$C$DW$T$19)
    1618                      .dwattr $C$DW$100, DW_AT_name("I2C_A")
    1619                      .dwattr $C$DW$100, DW_AT_TI_symbol_name("_I2C_A")
    1620                      .dwattr $C$DW$100, DW_AT_bit_offset(0x0f), DW_AT_bit_size(0x01)
    1621                      .dwattr $C$DW$100, DW_AT_data_member_location[DW_OP_plus_uconst 0x0]
    1622                      .dwattr $C$DW$100, DW_AT_accessibility(DW_ACCESS_public)
    1623              $C$DW$101       .dwtag  DW_TAG_member
    1624                      .dwattr $C$DW$101, DW_AT_type(*$C$DW$T$19)
    1625                      .dwattr $C$DW$101, DW_AT_name("I2C_B")
    1626                      .dwattr $C$DW$101, DW_AT_TI_symbol_name("_I2C_B")
    1627                      .dwattr $C$DW$101, DW_AT_bit_offset(0x0e), DW_AT_bit_size(0x01)
    1628                      .dwattr $C$DW$101, DW_AT_data_member_location[DW_OP_plus_uconst 0x0]
    1629                      .dwattr $C$DW$101, DW_AT_accessibility(DW_ACCESS_public)
    1630              $C$DW$102       .dwtag  DW_TAG_member
    1631                      .dwattr $C$DW$102, DW_AT_type(*$C$DW$T$19)
    1632                      .dwattr $C$DW$102, DW_AT_name("rsvd1")
    1633                      .dwattr $C$DW$102, DW_AT_TI_symbol_name("_rsvd1")
    1634                      .dwattr $C$DW$102, DW_AT_bit_offset(0x00), DW_AT_bit_size(0x0e)
    1635                      .dwattr $C$DW$102, DW_AT_data_member_location[DW_OP_plus_uconst 0x0]
TMS320C2000 Assembler PC v6.4.2 Thu Dec 14 13:37:25 2017

Tools Copyright (c) 1996-2015 Texas Instruments Incorporated
F2837xS_Gpio.asm                                                     PAGE   32

    1636                      .dwattr $C$DW$102, DW_AT_accessibility(DW_ACCESS_public)
    1637              $C$DW$103       .dwtag  DW_TAG_member
    1638                      .dwattr $C$DW$103, DW_AT_type(*$C$DW$T$19)
    1639                      .dwattr $C$DW$103, DW_AT_name("rsvd2")
    1640                      .dwattr $C$DW$103, DW_AT_TI_symbol_name("_rsvd2")
    1641                      .dwattr $C$DW$103, DW_AT_bit_offset(0x0f), DW_AT_bit_size(0x01)
    1642                      .dwattr $C$DW$103, DW_AT_data_member_location[DW_OP_plus_uconst 0x1]
    1643                      .dwattr $C$DW$103, DW_AT_accessibility(DW_ACCESS_public)
    1644              $C$DW$104       .dwtag  DW_TAG_member
    1645                      .dwattr $C$DW$104, DW_AT_type(*$C$DW$T$19)
    1646                      .dwattr $C$DW$104, DW_AT_name("rsvd3")
    1647                      .dwattr $C$DW$104, DW_AT_TI_symbol_name("_rsvd3")
    1648                      .dwattr $C$DW$104, DW_AT_bit_offset(0x0e), DW_AT_bit_size(0x01)
    1649                      .dwattr $C$DW$104, DW_AT_data_member_location[DW_OP_plus_uconst 0x1]
    1650                      .dwattr $C$DW$104, DW_AT_accessibility(DW_ACCESS_public)
    1651              $C$DW$105       .dwtag  DW_TAG_member
    1652                      .dwattr $C$DW$105, DW_AT_type(*$C$DW$T$19)
    1653                      .dwattr $C$DW$105, DW_AT_name("rsvd4")
    1654                      .dwattr $C$DW$105, DW_AT_TI_symbol_name("_rsvd4")
    1655                      .dwattr $C$DW$105, DW_AT_bit_offset(0x00), DW_AT_bit_size(0x0e)
    1656                      .dwattr $C$DW$105, DW_AT_data_member_location[DW_OP_plus_uconst 0x1]
    1657                      .dwattr $C$DW$105, DW_AT_accessibility(DW_ACCESS_public)
    1658                      .dwendtag $C$DW$T$23
    1659              
    1660              
    1661              $C$DW$T$24      .dwtag  DW_TAG_union_type
    1662                      .dwattr $C$DW$T$24, DW_AT_name("DC10_REG")
    1663                      .dwattr $C$DW$T$24, DW_AT_byte_size(0x02)
    1664              $C$DW$106       .dwtag  DW_TAG_member
    1665                      .dwattr $C$DW$106, DW_AT_type(*$C$DW$T$21)
    1666                      .dwattr $C$DW$106, DW_AT_name("all")
    1667                      .dwattr $C$DW$106, DW_AT_TI_symbol_name("_all")
    1668                      .dwattr $C$DW$106, DW_AT_data_member_location[DW_OP_plus_uconst 0x0]
    1669                      .dwattr $C$DW$106, DW_AT_accessibility(DW_ACCESS_public)
    1670              $C$DW$107       .dwtag  DW_TAG_member
    1671                      .dwattr $C$DW$107, DW_AT_type(*$C$DW$T$23)
    1672                      .dwattr $C$DW$107, DW_AT_name("bit")
    1673                      .dwattr $C$DW$107, DW_AT_TI_symbol_name("_bit")
    1674                      .dwattr $C$DW$107, DW_AT_data_member_location[DW_OP_plus_uconst 0x0]
    1675                      .dwattr $C$DW$107, DW_AT_accessibility(DW_ACCESS_public)
    1676                      .dwendtag $C$DW$T$24
    1677              
    1678              
    1679              $C$DW$T$25      .dwtag  DW_TAG_structure_type
    1680                      .dwattr $C$DW$T$25, DW_AT_name("DC11_BITS")
    1681                      .dwattr $C$DW$T$25, DW_AT_byte_size(0x02)
    1682              $C$DW$108       .dwtag  DW_TAG_member
    1683                      .dwattr $C$DW$108, DW_AT_type(*$C$DW$T$19)
    1684                      .dwattr $C$DW$108, DW_AT_name("CAN_A")
    1685                      .dwattr $C$DW$108, DW_AT_TI_symbol_name("_CAN_A")
    1686                      .dwattr $C$DW$108, DW_AT_bit_offset(0x0f), DW_AT_bit_size(0x01)
    1687                      .dwattr $C$DW$108, DW_AT_data_member_location[DW_OP_plus_uconst 0x0]
    1688                      .dwattr $C$DW$108, DW_AT_accessibility(DW_ACCESS_public)
    1689              $C$DW$109       .dwtag  DW_TAG_member
    1690                      .dwattr $C$DW$109, DW_AT_type(*$C$DW$T$19)
TMS320C2000 Assembler PC v6.4.2 Thu Dec 14 13:37:25 2017

Tools Copyright (c) 1996-2015 Texas Instruments Incorporated
F2837xS_Gpio.asm                                                     PAGE   33

    1691                      .dwattr $C$DW$109, DW_AT_name("CAN_B")
    1692                      .dwattr $C$DW$109, DW_AT_TI_symbol_name("_CAN_B")
    1693                      .dwattr $C$DW$109, DW_AT_bit_offset(0x0e), DW_AT_bit_size(0x01)
    1694                      .dwattr $C$DW$109, DW_AT_data_member_location[DW_OP_plus_uconst 0x0]
    1695                      .dwattr $C$DW$109, DW_AT_accessibility(DW_ACCESS_public)
    1696              $C$DW$110       .dwtag  DW_TAG_member
    1697                      .dwattr $C$DW$110, DW_AT_type(*$C$DW$T$19)
    1698                      .dwattr $C$DW$110, DW_AT_name("rsvd1")
    1699                      .dwattr $C$DW$110, DW_AT_TI_symbol_name("_rsvd1")
    1700                      .dwattr $C$DW$110, DW_AT_bit_offset(0x0d), DW_AT_bit_size(0x01)
    1701                      .dwattr $C$DW$110, DW_AT_data_member_location[DW_OP_plus_uconst 0x0]
    1702                      .dwattr $C$DW$110, DW_AT_accessibility(DW_ACCESS_public)
    1703              $C$DW$111       .dwtag  DW_TAG_member
    1704                      .dwattr $C$DW$111, DW_AT_type(*$C$DW$T$19)
    1705                      .dwattr $C$DW$111, DW_AT_name("rsvd2")
    1706                      .dwattr $C$DW$111, DW_AT_TI_symbol_name("_rsvd2")
    1707                      .dwattr $C$DW$111, DW_AT_bit_offset(0x0c), DW_AT_bit_size(0x01)
    1708                      .dwattr $C$DW$111, DW_AT_data_member_location[DW_OP_plus_uconst 0x0]
    1709                      .dwattr $C$DW$111, DW_AT_accessibility(DW_ACCESS_public)
    1710              $C$DW$112       .dwtag  DW_TAG_member
    1711                      .dwattr $C$DW$112, DW_AT_type(*$C$DW$T$19)
    1712                      .dwattr $C$DW$112, DW_AT_name("rsvd3")
    1713                      .dwattr $C$DW$112, DW_AT_TI_symbol_name("_rsvd3")
    1714                      .dwattr $C$DW$112, DW_AT_bit_offset(0x00), DW_AT_bit_size(0x0c)
    1715                      .dwattr $C$DW$112, DW_AT_data_member_location[DW_OP_plus_uconst 0x0]
    1716                      .dwattr $C$DW$112, DW_AT_accessibility(DW_ACCESS_public)
    1717              $C$DW$113       .dwtag  DW_TAG_member
    1718                      .dwattr $C$DW$113, DW_AT_type(*$C$DW$T$19)
    1719                      .dwattr $C$DW$113, DW_AT_name("rsvd4")
    1720                      .dwattr $C$DW$113, DW_AT_TI_symbol_name("_rsvd4")
    1721                      .dwattr $C$DW$113, DW_AT_bit_offset(0x00), DW_AT_bit_size(0x10)
    1722                      .dwattr $C$DW$113, DW_AT_data_member_location[DW_OP_plus_uconst 0x1]
    1723                      .dwattr $C$DW$113, DW_AT_accessibility(DW_ACCESS_public)
    1724                      .dwendtag $C$DW$T$25
    1725              
    1726              
    1727              $C$DW$T$26      .dwtag  DW_TAG_union_type
    1728                      .dwattr $C$DW$T$26, DW_AT_name("DC11_REG")
    1729                      .dwattr $C$DW$T$26, DW_AT_byte_size(0x02)
    1730              $C$DW$114       .dwtag  DW_TAG_member
    1731                      .dwattr $C$DW$114, DW_AT_type(*$C$DW$T$21)
    1732                      .dwattr $C$DW$114, DW_AT_name("all")
    1733                      .dwattr $C$DW$114, DW_AT_TI_symbol_name("_all")
    1734                      .dwattr $C$DW$114, DW_AT_data_member_location[DW_OP_plus_uconst 0x0]
    1735                      .dwattr $C$DW$114, DW_AT_accessibility(DW_ACCESS_public)
    1736              $C$DW$115       .dwtag  DW_TAG_member
    1737                      .dwattr $C$DW$115, DW_AT_type(*$C$DW$T$25)
    1738                      .dwattr $C$DW$115, DW_AT_name("bit")
    1739                      .dwattr $C$DW$115, DW_AT_TI_symbol_name("_bit")
    1740                      .dwattr $C$DW$115, DW_AT_data_member_location[DW_OP_plus_uconst 0x0]
    1741                      .dwattr $C$DW$115, DW_AT_accessibility(DW_ACCESS_public)
    1742                      .dwendtag $C$DW$T$26
    1743              
    1744              
    1745              $C$DW$T$27      .dwtag  DW_TAG_structure_type
TMS320C2000 Assembler PC v6.4.2 Thu Dec 14 13:37:25 2017

Tools Copyright (c) 1996-2015 Texas Instruments Incorporated
F2837xS_Gpio.asm                                                     PAGE   34

    1746                      .dwattr $C$DW$T$27, DW_AT_name("DC12_BITS")
    1747                      .dwattr $C$DW$T$27, DW_AT_byte_size(0x02)
    1748              $C$DW$116       .dwtag  DW_TAG_member
    1749                      .dwattr $C$DW$116, DW_AT_type(*$C$DW$T$19)
    1750                      .dwattr $C$DW$116, DW_AT_name("McBSP_A")
    1751                      .dwattr $C$DW$116, DW_AT_TI_symbol_name("_McBSP_A")
    1752                      .dwattr $C$DW$116, DW_AT_bit_offset(0x0f), DW_AT_bit_size(0x01)
    1753                      .dwattr $C$DW$116, DW_AT_data_member_location[DW_OP_plus_uconst 0x0]
    1754                      .dwattr $C$DW$116, DW_AT_accessibility(DW_ACCESS_public)
    1755              $C$DW$117       .dwtag  DW_TAG_member
    1756                      .dwattr $C$DW$117, DW_AT_type(*$C$DW$T$19)
    1757                      .dwattr $C$DW$117, DW_AT_name("McBSP_B")
    1758                      .dwattr $C$DW$117, DW_AT_TI_symbol_name("_McBSP_B")
    1759                      .dwattr $C$DW$117, DW_AT_bit_offset(0x0e), DW_AT_bit_size(0x01)
    1760                      .dwattr $C$DW$117, DW_AT_data_member_location[DW_OP_plus_uconst 0x0]
    1761                      .dwattr $C$DW$117, DW_AT_accessibility(DW_ACCESS_public)
    1762              $C$DW$118       .dwtag  DW_TAG_member
    1763                      .dwattr $C$DW$118, DW_AT_type(*$C$DW$T$19)
    1764                      .dwattr $C$DW$118, DW_AT_name("rsvd1")
    1765                      .dwattr $C$DW$118, DW_AT_TI_symbol_name("_rsvd1")
    1766                      .dwattr $C$DW$118, DW_AT_bit_offset(0x00), DW_AT_bit_size(0x0e)
    1767                      .dwattr $C$DW$118, DW_AT_data_member_location[DW_OP_plus_uconst 0x0]
    1768                      .dwattr $C$DW$118, DW_AT_accessibility(DW_ACCESS_public)
    1769              $C$DW$119       .dwtag  DW_TAG_member
    1770                      .dwattr $C$DW$119, DW_AT_type(*$C$DW$T$19)
    1771                      .dwattr $C$DW$119, DW_AT_name("USB_A")
    1772                      .dwattr $C$DW$119, DW_AT_TI_symbol_name("_USB_A")
    1773                      .dwattr $C$DW$119, DW_AT_bit_offset(0x0e), DW_AT_bit_size(0x02)
    1774                      .dwattr $C$DW$119, DW_AT_data_member_location[DW_OP_plus_uconst 0x1]
    1775                      .dwattr $C$DW$119, DW_AT_accessibility(DW_ACCESS_public)
    1776              $C$DW$120       .dwtag  DW_TAG_member
    1777                      .dwattr $C$DW$120, DW_AT_type(*$C$DW$T$19)
    1778                      .dwattr $C$DW$120, DW_AT_name("rsvd2")
    1779                      .dwattr $C$DW$120, DW_AT_TI_symbol_name("_rsvd2")
    1780                      .dwattr $C$DW$120, DW_AT_bit_offset(0x0c), DW_AT_bit_size(0x02)
    1781                      .dwattr $C$DW$120, DW_AT_data_member_location[DW_OP_plus_uconst 0x1]
    1782                      .dwattr $C$DW$120, DW_AT_accessibility(DW_ACCESS_public)
    1783              $C$DW$121       .dwtag  DW_TAG_member
    1784                      .dwattr $C$DW$121, DW_AT_type(*$C$DW$T$19)
    1785                      .dwattr $C$DW$121, DW_AT_name("rsvd3")
    1786                      .dwattr $C$DW$121, DW_AT_TI_symbol_name("_rsvd3")
    1787                      .dwattr $C$DW$121, DW_AT_bit_offset(0x00), DW_AT_bit_size(0x0c)
    1788                      .dwattr $C$DW$121, DW_AT_data_member_location[DW_OP_plus_uconst 0x1]
    1789                      .dwattr $C$DW$121, DW_AT_accessibility(DW_ACCESS_public)
    1790                      .dwendtag $C$DW$T$27
    1791              
    1792              
    1793              $C$DW$T$28      .dwtag  DW_TAG_union_type
    1794                      .dwattr $C$DW$T$28, DW_AT_name("DC12_REG")
    1795                      .dwattr $C$DW$T$28, DW_AT_byte_size(0x02)
    1796              $C$DW$122       .dwtag  DW_TAG_member
    1797                      .dwattr $C$DW$122, DW_AT_type(*$C$DW$T$21)
    1798                      .dwattr $C$DW$122, DW_AT_name("all")
    1799                      .dwattr $C$DW$122, DW_AT_TI_symbol_name("_all")
    1800                      .dwattr $C$DW$122, DW_AT_data_member_location[DW_OP_plus_uconst 0x0]
TMS320C2000 Assembler PC v6.4.2 Thu Dec 14 13:37:25 2017

Tools Copyright (c) 1996-2015 Texas Instruments Incorporated
F2837xS_Gpio.asm                                                     PAGE   35

    1801                      .dwattr $C$DW$122, DW_AT_accessibility(DW_ACCESS_public)
    1802              $C$DW$123       .dwtag  DW_TAG_member
    1803                      .dwattr $C$DW$123, DW_AT_type(*$C$DW$T$27)
    1804                      .dwattr $C$DW$123, DW_AT_name("bit")
    1805                      .dwattr $C$DW$123, DW_AT_TI_symbol_name("_bit")
    1806                      .dwattr $C$DW$123, DW_AT_data_member_location[DW_OP_plus_uconst 0x0]
    1807                      .dwattr $C$DW$123, DW_AT_accessibility(DW_ACCESS_public)
    1808                      .dwendtag $C$DW$T$28
    1809              
    1810              
    1811              $C$DW$T$29      .dwtag  DW_TAG_structure_type
    1812                      .dwattr $C$DW$T$29, DW_AT_name("DC13_BITS")
    1813                      .dwattr $C$DW$T$29, DW_AT_byte_size(0x02)
    1814              $C$DW$124       .dwtag  DW_TAG_member
    1815                      .dwattr $C$DW$124, DW_AT_type(*$C$DW$T$19)
    1816                      .dwattr $C$DW$124, DW_AT_name("uPP_A")
    1817                      .dwattr $C$DW$124, DW_AT_TI_symbol_name("_uPP_A")
    1818                      .dwattr $C$DW$124, DW_AT_bit_offset(0x0f), DW_AT_bit_size(0x01)
    1819                      .dwattr $C$DW$124, DW_AT_data_member_location[DW_OP_plus_uconst 0x0]
    1820                      .dwattr $C$DW$124, DW_AT_accessibility(DW_ACCESS_public)
    1821              $C$DW$125       .dwtag  DW_TAG_member
    1822                      .dwattr $C$DW$125, DW_AT_type(*$C$DW$T$19)
    1823                      .dwattr $C$DW$125, DW_AT_name("rsvd1")
    1824                      .dwattr $C$DW$125, DW_AT_TI_symbol_name("_rsvd1")
    1825                      .dwattr $C$DW$125, DW_AT_bit_offset(0x0e), DW_AT_bit_size(0x01)
    1826                      .dwattr $C$DW$125, DW_AT_data_member_location[DW_OP_plus_uconst 0x0]
    1827                      .dwattr $C$DW$125, DW_AT_accessibility(DW_ACCESS_public)
    1828              $C$DW$126       .dwtag  DW_TAG_member
    1829                      .dwattr $C$DW$126, DW_AT_type(*$C$DW$T$19)
    1830                      .dwattr $C$DW$126, DW_AT_name("rsvd2")
    1831                      .dwattr $C$DW$126, DW_AT_TI_symbol_name("_rsvd2")
    1832                      .dwattr $C$DW$126, DW_AT_bit_offset(0x00), DW_AT_bit_size(0x0e)
    1833                      .dwattr $C$DW$126, DW_AT_data_member_location[DW_OP_plus_uconst 0x0]
    1834                      .dwattr $C$DW$126, DW_AT_accessibility(DW_ACCESS_public)
    1835              $C$DW$127       .dwtag  DW_TAG_member
    1836                      .dwattr $C$DW$127, DW_AT_type(*$C$DW$T$19)
    1837                      .dwattr $C$DW$127, DW_AT_name("rsvd3")
    1838                      .dwattr $C$DW$127, DW_AT_TI_symbol_name("_rsvd3")
    1839                      .dwattr $C$DW$127, DW_AT_bit_offset(0x00), DW_AT_bit_size(0x10)
    1840                      .dwattr $C$DW$127, DW_AT_data_member_location[DW_OP_plus_uconst 0x1]
    1841                      .dwattr $C$DW$127, DW_AT_accessibility(DW_ACCESS_public)
    1842                      .dwendtag $C$DW$T$29
    1843              
    1844              
    1845              $C$DW$T$30      .dwtag  DW_TAG_union_type
    1846                      .dwattr $C$DW$T$30, DW_AT_name("DC13_REG")
    1847                      .dwattr $C$DW$T$30, DW_AT_byte_size(0x02)
    1848              $C$DW$128       .dwtag  DW_TAG_member
    1849                      .dwattr $C$DW$128, DW_AT_type(*$C$DW$T$21)
    1850                      .dwattr $C$DW$128, DW_AT_name("all")
    1851                      .dwattr $C$DW$128, DW_AT_TI_symbol_name("_all")
    1852                      .dwattr $C$DW$128, DW_AT_data_member_location[DW_OP_plus_uconst 0x0]
    1853                      .dwattr $C$DW$128, DW_AT_accessibility(DW_ACCESS_public)
    1854              $C$DW$129       .dwtag  DW_TAG_member
    1855                      .dwattr $C$DW$129, DW_AT_type(*$C$DW$T$29)
TMS320C2000 Assembler PC v6.4.2 Thu Dec 14 13:37:25 2017

Tools Copyright (c) 1996-2015 Texas Instruments Incorporated
F2837xS_Gpio.asm                                                     PAGE   36

    1856                      .dwattr $C$DW$129, DW_AT_name("bit")
    1857                      .dwattr $C$DW$129, DW_AT_TI_symbol_name("_bit")
    1858                      .dwattr $C$DW$129, DW_AT_data_member_location[DW_OP_plus_uconst 0x0]
    1859                      .dwattr $C$DW$129, DW_AT_accessibility(DW_ACCESS_public)
    1860                      .dwendtag $C$DW$T$30
    1861              
    1862              
    1863              $C$DW$T$31      .dwtag  DW_TAG_structure_type
    1864                      .dwattr $C$DW$T$31, DW_AT_name("DC14_BITS")
    1865                      .dwattr $C$DW$T$31, DW_AT_byte_size(0x02)
    1866              $C$DW$130       .dwtag  DW_TAG_member
    1867                      .dwattr $C$DW$130, DW_AT_type(*$C$DW$T$19)
    1868                      .dwattr $C$DW$130, DW_AT_name("ADC_A")
    1869                      .dwattr $C$DW$130, DW_AT_TI_symbol_name("_ADC_A")
    1870                      .dwattr $C$DW$130, DW_AT_bit_offset(0x0f), DW_AT_bit_size(0x01)
    1871                      .dwattr $C$DW$130, DW_AT_data_member_location[DW_OP_plus_uconst 0x0]
    1872                      .dwattr $C$DW$130, DW_AT_accessibility(DW_ACCESS_public)
    1873              $C$DW$131       .dwtag  DW_TAG_member
    1874                      .dwattr $C$DW$131, DW_AT_type(*$C$DW$T$19)
    1875                      .dwattr $C$DW$131, DW_AT_name("ADC_B")
    1876                      .dwattr $C$DW$131, DW_AT_TI_symbol_name("_ADC_B")
    1877                      .dwattr $C$DW$131, DW_AT_bit_offset(0x0e), DW_AT_bit_size(0x01)
    1878                      .dwattr $C$DW$131, DW_AT_data_member_location[DW_OP_plus_uconst 0x0]
    1879                      .dwattr $C$DW$131, DW_AT_accessibility(DW_ACCESS_public)
    1880              $C$DW$132       .dwtag  DW_TAG_member
    1881                      .dwattr $C$DW$132, DW_AT_type(*$C$DW$T$19)
    1882                      .dwattr $C$DW$132, DW_AT_name("ADC_C")
    1883                      .dwattr $C$DW$132, DW_AT_TI_symbol_name("_ADC_C")
    1884                      .dwattr $C$DW$132, DW_AT_bit_offset(0x0d), DW_AT_bit_size(0x01)
    1885                      .dwattr $C$DW$132, DW_AT_data_member_location[DW_OP_plus_uconst 0x0]
    1886                      .dwattr $C$DW$132, DW_AT_accessibility(DW_ACCESS_public)
    1887              $C$DW$133       .dwtag  DW_TAG_member
    1888                      .dwattr $C$DW$133, DW_AT_type(*$C$DW$T$19)
    1889                      .dwattr $C$DW$133, DW_AT_name("ADC_D")
    1890                      .dwattr $C$DW$133, DW_AT_TI_symbol_name("_ADC_D")
    1891                      .dwattr $C$DW$133, DW_AT_bit_offset(0x0c), DW_AT_bit_size(0x01)
    1892                      .dwattr $C$DW$133, DW_AT_data_member_location[DW_OP_plus_uconst 0x0]
    1893                      .dwattr $C$DW$133, DW_AT_accessibility(DW_ACCESS_public)
    1894              $C$DW$134       .dwtag  DW_TAG_member
    1895                      .dwattr $C$DW$134, DW_AT_type(*$C$DW$T$19)
    1896                      .dwattr $C$DW$134, DW_AT_name("rsvd1")
    1897                      .dwattr $C$DW$134, DW_AT_TI_symbol_name("_rsvd1")
    1898                      .dwattr $C$DW$134, DW_AT_bit_offset(0x00), DW_AT_bit_size(0x0c)
    1899                      .dwattr $C$DW$134, DW_AT_data_member_location[DW_OP_plus_uconst 0x0]
    1900                      .dwattr $C$DW$134, DW_AT_accessibility(DW_ACCESS_public)
    1901              $C$DW$135       .dwtag  DW_TAG_member
    1902                      .dwattr $C$DW$135, DW_AT_type(*$C$DW$T$19)
    1903                      .dwattr $C$DW$135, DW_AT_name("rsvd2")
    1904                      .dwattr $C$DW$135, DW_AT_TI_symbol_name("_rsvd2")
    1905                      .dwattr $C$DW$135, DW_AT_bit_offset(0x00), DW_AT_bit_size(0x10)
    1906                      .dwattr $C$DW$135, DW_AT_data_member_location[DW_OP_plus_uconst 0x1]
    1907                      .dwattr $C$DW$135, DW_AT_accessibility(DW_ACCESS_public)
    1908                      .dwendtag $C$DW$T$31
    1909              
    1910              
TMS320C2000 Assembler PC v6.4.2 Thu Dec 14 13:37:25 2017

Tools Copyright (c) 1996-2015 Texas Instruments Incorporated
F2837xS_Gpio.asm                                                     PAGE   37

    1911              $C$DW$T$32      .dwtag  DW_TAG_union_type
    1912                      .dwattr $C$DW$T$32, DW_AT_name("DC14_REG")
    1913                      .dwattr $C$DW$T$32, DW_AT_byte_size(0x02)
    1914              $C$DW$136       .dwtag  DW_TAG_member
    1915                      .dwattr $C$DW$136, DW_AT_type(*$C$DW$T$21)
    1916                      .dwattr $C$DW$136, DW_AT_name("all")
    1917                      .dwattr $C$DW$136, DW_AT_TI_symbol_name("_all")
    1918                      .dwattr $C$DW$136, DW_AT_data_member_location[DW_OP_plus_uconst 0x0]
    1919                      .dwattr $C$DW$136, DW_AT_accessibility(DW_ACCESS_public)
    1920              $C$DW$137       .dwtag  DW_TAG_member
    1921                      .dwattr $C$DW$137, DW_AT_type(*$C$DW$T$31)
    1922                      .dwattr $C$DW$137, DW_AT_name("bit")
    1923                      .dwattr $C$DW$137, DW_AT_TI_symbol_name("_bit")
    1924                      .dwattr $C$DW$137, DW_AT_data_member_location[DW_OP_plus_uconst 0x0]
    1925                      .dwattr $C$DW$137, DW_AT_accessibility(DW_ACCESS_public)
    1926                      .dwendtag $C$DW$T$32
    1927              
    1928              
    1929              $C$DW$T$33      .dwtag  DW_TAG_structure_type
    1930                      .dwattr $C$DW$T$33, DW_AT_name("DC15_BITS")
    1931                      .dwattr $C$DW$T$33, DW_AT_byte_size(0x02)
    1932              $C$DW$138       .dwtag  DW_TAG_member
    1933                      .dwattr $C$DW$138, DW_AT_type(*$C$DW$T$19)
    1934                      .dwattr $C$DW$138, DW_AT_name("CMPSS1")
    1935                      .dwattr $C$DW$138, DW_AT_TI_symbol_name("_CMPSS1")
    1936                      .dwattr $C$DW$138, DW_AT_bit_offset(0x0f), DW_AT_bit_size(0x01)
    1937                      .dwattr $C$DW$138, DW_AT_data_member_location[DW_OP_plus_uconst 0x0]
    1938                      .dwattr $C$DW$138, DW_AT_accessibility(DW_ACCESS_public)
    1939              $C$DW$139       .dwtag  DW_TAG_member
    1940                      .dwattr $C$DW$139, DW_AT_type(*$C$DW$T$19)
    1941                      .dwattr $C$DW$139, DW_AT_name("CMPSS2")
    1942                      .dwattr $C$DW$139, DW_AT_TI_symbol_name("_CMPSS2")
    1943                      .dwattr $C$DW$139, DW_AT_bit_offset(0x0e), DW_AT_bit_size(0x01)
    1944                      .dwattr $C$DW$139, DW_AT_data_member_location[DW_OP_plus_uconst 0x0]
    1945                      .dwattr $C$DW$139, DW_AT_accessibility(DW_ACCESS_public)
    1946              $C$DW$140       .dwtag  DW_TAG_member
    1947                      .dwattr $C$DW$140, DW_AT_type(*$C$DW$T$19)
    1948                      .dwattr $C$DW$140, DW_AT_name("CMPSS3")
    1949                      .dwattr $C$DW$140, DW_AT_TI_symbol_name("_CMPSS3")
    1950                      .dwattr $C$DW$140, DW_AT_bit_offset(0x0d), DW_AT_bit_size(0x01)
    1951                      .dwattr $C$DW$140, DW_AT_data_member_location[DW_OP_plus_uconst 0x0]
    1952                      .dwattr $C$DW$140, DW_AT_accessibility(DW_ACCESS_public)
    1953              $C$DW$141       .dwtag  DW_TAG_member
    1954                      .dwattr $C$DW$141, DW_AT_type(*$C$DW$T$19)
    1955                      .dwattr $C$DW$141, DW_AT_name("CMPSS4")
    1956                      .dwattr $C$DW$141, DW_AT_TI_symbol_name("_CMPSS4")
    1957                      .dwattr $C$DW$141, DW_AT_bit_offset(0x0c), DW_AT_bit_size(0x01)
    1958                      .dwattr $C$DW$141, DW_AT_data_member_location[DW_OP_plus_uconst 0x0]
    1959                      .dwattr $C$DW$141, DW_AT_accessibility(DW_ACCESS_public)
    1960              $C$DW$142       .dwtag  DW_TAG_member
    1961                      .dwattr $C$DW$142, DW_AT_type(*$C$DW$T$19)
    1962                      .dwattr $C$DW$142, DW_AT_name("CMPSS5")
    1963                      .dwattr $C$DW$142, DW_AT_TI_symbol_name("_CMPSS5")
    1964                      .dwattr $C$DW$142, DW_AT_bit_offset(0x0b), DW_AT_bit_size(0x01)
    1965                      .dwattr $C$DW$142, DW_AT_data_member_location[DW_OP_plus_uconst 0x0]
TMS320C2000 Assembler PC v6.4.2 Thu Dec 14 13:37:25 2017

Tools Copyright (c) 1996-2015 Texas Instruments Incorporated
F2837xS_Gpio.asm                                                     PAGE   38

    1966                      .dwattr $C$DW$142, DW_AT_accessibility(DW_ACCESS_public)
    1967              $C$DW$143       .dwtag  DW_TAG_member
    1968                      .dwattr $C$DW$143, DW_AT_type(*$C$DW$T$19)
    1969                      .dwattr $C$DW$143, DW_AT_name("CMPSS6")
    1970                      .dwattr $C$DW$143, DW_AT_TI_symbol_name("_CMPSS6")
    1971                      .dwattr $C$DW$143, DW_AT_bit_offset(0x0a), DW_AT_bit_size(0x01)
    1972                      .dwattr $C$DW$143, DW_AT_data_member_location[DW_OP_plus_uconst 0x0]
    1973                      .dwattr $C$DW$143, DW_AT_accessibility(DW_ACCESS_public)
    1974              $C$DW$144       .dwtag  DW_TAG_member
    1975                      .dwattr $C$DW$144, DW_AT_type(*$C$DW$T$19)
    1976                      .dwattr $C$DW$144, DW_AT_name("CMPSS7")
    1977                      .dwattr $C$DW$144, DW_AT_TI_symbol_name("_CMPSS7")
    1978                      .dwattr $C$DW$144, DW_AT_bit_offset(0x09), DW_AT_bit_size(0x01)
    1979                      .dwattr $C$DW$144, DW_AT_data_member_location[DW_OP_plus_uconst 0x0]
    1980                      .dwattr $C$DW$144, DW_AT_accessibility(DW_ACCESS_public)
    1981              $C$DW$145       .dwtag  DW_TAG_member
    1982                      .dwattr $C$DW$145, DW_AT_type(*$C$DW$T$19)
    1983                      .dwattr $C$DW$145, DW_AT_name("CMPSS8")
    1984                      .dwattr $C$DW$145, DW_AT_TI_symbol_name("_CMPSS8")
    1985                      .dwattr $C$DW$145, DW_AT_bit_offset(0x08), DW_AT_bit_size(0x01)
    1986                      .dwattr $C$DW$145, DW_AT_data_member_location[DW_OP_plus_uconst 0x0]
    1987                      .dwattr $C$DW$145, DW_AT_accessibility(DW_ACCESS_public)
    1988              $C$DW$146       .dwtag  DW_TAG_member
    1989                      .dwattr $C$DW$146, DW_AT_type(*$C$DW$T$19)
    1990                      .dwattr $C$DW$146, DW_AT_name("rsvd1")
    1991                      .dwattr $C$DW$146, DW_AT_TI_symbol_name("_rsvd1")
    1992                      .dwattr $C$DW$146, DW_AT_bit_offset(0x00), DW_AT_bit_size(0x08)
    1993                      .dwattr $C$DW$146, DW_AT_data_member_location[DW_OP_plus_uconst 0x0]
    1994                      .dwattr $C$DW$146, DW_AT_accessibility(DW_ACCESS_public)
    1995              $C$DW$147       .dwtag  DW_TAG_member
    1996                      .dwattr $C$DW$147, DW_AT_type(*$C$DW$T$19)
    1997                      .dwattr $C$DW$147, DW_AT_name("rsvd2")
    1998                      .dwattr $C$DW$147, DW_AT_TI_symbol_name("_rsvd2")
    1999                      .dwattr $C$DW$147, DW_AT_bit_offset(0x00), DW_AT_bit_size(0x10)
    2000                      .dwattr $C$DW$147, DW_AT_data_member_location[DW_OP_plus_uconst 0x1]
    2001                      .dwattr $C$DW$147, DW_AT_accessibility(DW_ACCESS_public)
    2002                      .dwendtag $C$DW$T$33
    2003              
    2004              
    2005              $C$DW$T$34      .dwtag  DW_TAG_union_type
    2006                      .dwattr $C$DW$T$34, DW_AT_name("DC15_REG")
    2007                      .dwattr $C$DW$T$34, DW_AT_byte_size(0x02)
    2008              $C$DW$148       .dwtag  DW_TAG_member
    2009                      .dwattr $C$DW$148, DW_AT_type(*$C$DW$T$21)
    2010                      .dwattr $C$DW$148, DW_AT_name("all")
    2011                      .dwattr $C$DW$148, DW_AT_TI_symbol_name("_all")
    2012                      .dwattr $C$DW$148, DW_AT_data_member_location[DW_OP_plus_uconst 0x0]
    2013                      .dwattr $C$DW$148, DW_AT_accessibility(DW_ACCESS_public)
    2014              $C$DW$149       .dwtag  DW_TAG_member
    2015                      .dwattr $C$DW$149, DW_AT_type(*$C$DW$T$33)
    2016                      .dwattr $C$DW$149, DW_AT_name("bit")
    2017                      .dwattr $C$DW$149, DW_AT_TI_symbol_name("_bit")
    2018                      .dwattr $C$DW$149, DW_AT_data_member_location[DW_OP_plus_uconst 0x0]
    2019                      .dwattr $C$DW$149, DW_AT_accessibility(DW_ACCESS_public)
    2020                      .dwendtag $C$DW$T$34
TMS320C2000 Assembler PC v6.4.2 Thu Dec 14 13:37:25 2017

Tools Copyright (c) 1996-2015 Texas Instruments Incorporated
F2837xS_Gpio.asm                                                     PAGE   39

    2021              
    2022              
    2023              $C$DW$T$35      .dwtag  DW_TAG_structure_type
    2024                      .dwattr $C$DW$T$35, DW_AT_name("DC17_BITS")
    2025                      .dwattr $C$DW$T$35, DW_AT_byte_size(0x02)
    2026              $C$DW$150       .dwtag  DW_TAG_member
    2027                      .dwattr $C$DW$150, DW_AT_type(*$C$DW$T$19)
    2028                      .dwattr $C$DW$150, DW_AT_name("rsvd1")
    2029                      .dwattr $C$DW$150, DW_AT_TI_symbol_name("_rsvd1")
    2030                      .dwattr $C$DW$150, DW_AT_bit_offset(0x0f), DW_AT_bit_size(0x01)
    2031                      .dwattr $C$DW$150, DW_AT_data_member_location[DW_OP_plus_uconst 0x0]
    2032                      .dwattr $C$DW$150, DW_AT_accessibility(DW_ACCESS_public)
    2033              $C$DW$151       .dwtag  DW_TAG_member
    2034                      .dwattr $C$DW$151, DW_AT_type(*$C$DW$T$19)
    2035                      .dwattr $C$DW$151, DW_AT_name("rsvd2")
    2036                      .dwattr $C$DW$151, DW_AT_TI_symbol_name("_rsvd2")
    2037                      .dwattr $C$DW$151, DW_AT_bit_offset(0x0e), DW_AT_bit_size(0x01)
    2038                      .dwattr $C$DW$151, DW_AT_data_member_location[DW_OP_plus_uconst 0x0]
    2039                      .dwattr $C$DW$151, DW_AT_accessibility(DW_ACCESS_public)
    2040              $C$DW$152       .dwtag  DW_TAG_member
    2041                      .dwattr $C$DW$152, DW_AT_type(*$C$DW$T$19)
    2042                      .dwattr $C$DW$152, DW_AT_name("rsvd3")
    2043                      .dwattr $C$DW$152, DW_AT_TI_symbol_name("_rsvd3")
    2044                      .dwattr $C$DW$152, DW_AT_bit_offset(0x0d), DW_AT_bit_size(0x01)
    2045                      .dwattr $C$DW$152, DW_AT_data_member_location[DW_OP_plus_uconst 0x0]
    2046                      .dwattr $C$DW$152, DW_AT_accessibility(DW_ACCESS_public)
    2047              $C$DW$153       .dwtag  DW_TAG_member
    2048                      .dwattr $C$DW$153, DW_AT_type(*$C$DW$T$19)
    2049                      .dwattr $C$DW$153, DW_AT_name("rsvd4")
    2050                      .dwattr $C$DW$153, DW_AT_TI_symbol_name("_rsvd4")
    2051                      .dwattr $C$DW$153, DW_AT_bit_offset(0x0c), DW_AT_bit_size(0x01)
    2052                      .dwattr $C$DW$153, DW_AT_data_member_location[DW_OP_plus_uconst 0x0]
    2053                      .dwattr $C$DW$153, DW_AT_accessibility(DW_ACCESS_public)
    2054              $C$DW$154       .dwtag  DW_TAG_member
    2055                      .dwattr $C$DW$154, DW_AT_type(*$C$DW$T$19)
    2056                      .dwattr $C$DW$154, DW_AT_name("rsvd5")
    2057                      .dwattr $C$DW$154, DW_AT_TI_symbol_name("_rsvd5")
    2058                      .dwattr $C$DW$154, DW_AT_bit_offset(0x00), DW_AT_bit_size(0x0c)
    2059                      .dwattr $C$DW$154, DW_AT_data_member_location[DW_OP_plus_uconst 0x0]
    2060                      .dwattr $C$DW$154, DW_AT_accessibility(DW_ACCESS_public)
    2061              $C$DW$155       .dwtag  DW_TAG_member
    2062                      .dwattr $C$DW$155, DW_AT_type(*$C$DW$T$19)
    2063                      .dwattr $C$DW$155, DW_AT_name("DAC_A")
    2064                      .dwattr $C$DW$155, DW_AT_TI_symbol_name("_DAC_A")
    2065                      .dwattr $C$DW$155, DW_AT_bit_offset(0x0f), DW_AT_bit_size(0x01)
    2066                      .dwattr $C$DW$155, DW_AT_data_member_location[DW_OP_plus_uconst 0x1]
    2067                      .dwattr $C$DW$155, DW_AT_accessibility(DW_ACCESS_public)
    2068              $C$DW$156       .dwtag  DW_TAG_member
    2069                      .dwattr $C$DW$156, DW_AT_type(*$C$DW$T$19)
    2070                      .dwattr $C$DW$156, DW_AT_name("DAC_B")
    2071                      .dwattr $C$DW$156, DW_AT_TI_symbol_name("_DAC_B")
    2072                      .dwattr $C$DW$156, DW_AT_bit_offset(0x0e), DW_AT_bit_size(0x01)
    2073                      .dwattr $C$DW$156, DW_AT_data_member_location[DW_OP_plus_uconst 0x1]
    2074                      .dwattr $C$DW$156, DW_AT_accessibility(DW_ACCESS_public)
    2075              $C$DW$157       .dwtag  DW_TAG_member
TMS320C2000 Assembler PC v6.4.2 Thu Dec 14 13:37:25 2017

Tools Copyright (c) 1996-2015 Texas Instruments Incorporated
F2837xS_Gpio.asm                                                     PAGE   40

    2076                      .dwattr $C$DW$157, DW_AT_type(*$C$DW$T$19)
    2077                      .dwattr $C$DW$157, DW_AT_name("DAC_C")
    2078                      .dwattr $C$DW$157, DW_AT_TI_symbol_name("_DAC_C")
    2079                      .dwattr $C$DW$157, DW_AT_bit_offset(0x0d), DW_AT_bit_size(0x01)
    2080                      .dwattr $C$DW$157, DW_AT_data_member_location[DW_OP_plus_uconst 0x1]
    2081                      .dwattr $C$DW$157, DW_AT_accessibility(DW_ACCESS_public)
    2082              $C$DW$158       .dwtag  DW_TAG_member
    2083                      .dwattr $C$DW$158, DW_AT_type(*$C$DW$T$19)
    2084                      .dwattr $C$DW$158, DW_AT_name("rsvd6")
    2085                      .dwattr $C$DW$158, DW_AT_TI_symbol_name("_rsvd6")
    2086                      .dwattr $C$DW$158, DW_AT_bit_offset(0x0c), DW_AT_bit_size(0x01)
    2087                      .dwattr $C$DW$158, DW_AT_data_member_location[DW_OP_plus_uconst 0x1]
    2088                      .dwattr $C$DW$158, DW_AT_accessibility(DW_ACCESS_public)
    2089              $C$DW$159       .dwtag  DW_TAG_member
    2090                      .dwattr $C$DW$159, DW_AT_type(*$C$DW$T$19)
    2091                      .dwattr $C$DW$159, DW_AT_name("rsvd7")
    2092                      .dwattr $C$DW$159, DW_AT_TI_symbol_name("_rsvd7")
    2093                      .dwattr $C$DW$159, DW_AT_bit_offset(0x00), DW_AT_bit_size(0x0c)
    2094                      .dwattr $C$DW$159, DW_AT_data_member_location[DW_OP_plus_uconst 0x1]
    2095                      .dwattr $C$DW$159, DW_AT_accessibility(DW_ACCESS_public)
    2096                      .dwendtag $C$DW$T$35
    2097              
    2098              
    2099              $C$DW$T$36      .dwtag  DW_TAG_union_type
    2100                      .dwattr $C$DW$T$36, DW_AT_name("DC17_REG")
    2101                      .dwattr $C$DW$T$36, DW_AT_byte_size(0x02)
    2102              $C$DW$160       .dwtag  DW_TAG_member
    2103                      .dwattr $C$DW$160, DW_AT_type(*$C$DW$T$21)
    2104                      .dwattr $C$DW$160, DW_AT_name("all")
    2105                      .dwattr $C$DW$160, DW_AT_TI_symbol_name("_all")
    2106                      .dwattr $C$DW$160, DW_AT_data_member_location[DW_OP_plus_uconst 0x0]
    2107                      .dwattr $C$DW$160, DW_AT_accessibility(DW_ACCESS_public)
    2108              $C$DW$161       .dwtag  DW_TAG_member
    2109                      .dwattr $C$DW$161, DW_AT_type(*$C$DW$T$35)
    2110                      .dwattr $C$DW$161, DW_AT_name("bit")
    2111                      .dwattr $C$DW$161, DW_AT_TI_symbol_name("_bit")
    2112                      .dwattr $C$DW$161, DW_AT_data_member_location[DW_OP_plus_uconst 0x0]
    2113                      .dwattr $C$DW$161, DW_AT_accessibility(DW_ACCESS_public)
    2114                      .dwendtag $C$DW$T$36
    2115              
    2116              
    2117              $C$DW$T$37      .dwtag  DW_TAG_structure_type
    2118                      .dwattr $C$DW$T$37, DW_AT_name("DC18_BITS")
    2119                      .dwattr $C$DW$T$37, DW_AT_byte_size(0x02)
    2120              $C$DW$162       .dwtag  DW_TAG_member
    2121                      .dwattr $C$DW$162, DW_AT_type(*$C$DW$T$19)
    2122                      .dwattr $C$DW$162, DW_AT_name("LS0_1")
    2123                      .dwattr $C$DW$162, DW_AT_TI_symbol_name("_LS0_1")
    2124                      .dwattr $C$DW$162, DW_AT_bit_offset(0x0f), DW_AT_bit_size(0x01)
    2125                      .dwattr $C$DW$162, DW_AT_data_member_location[DW_OP_plus_uconst 0x0]
    2126                      .dwattr $C$DW$162, DW_AT_accessibility(DW_ACCESS_public)
    2127              $C$DW$163       .dwtag  DW_TAG_member
    2128                      .dwattr $C$DW$163, DW_AT_type(*$C$DW$T$19)
    2129                      .dwattr $C$DW$163, DW_AT_name("LS1_1")
    2130                      .dwattr $C$DW$163, DW_AT_TI_symbol_name("_LS1_1")
TMS320C2000 Assembler PC v6.4.2 Thu Dec 14 13:37:25 2017

Tools Copyright (c) 1996-2015 Texas Instruments Incorporated
F2837xS_Gpio.asm                                                     PAGE   41

    2131                      .dwattr $C$DW$163, DW_AT_bit_offset(0x0e), DW_AT_bit_size(0x01)
    2132                      .dwattr $C$DW$163, DW_AT_data_member_location[DW_OP_plus_uconst 0x0]
    2133                      .dwattr $C$DW$163, DW_AT_accessibility(DW_ACCESS_public)
    2134              $C$DW$164       .dwtag  DW_TAG_member
    2135                      .dwattr $C$DW$164, DW_AT_type(*$C$DW$T$19)
    2136                      .dwattr $C$DW$164, DW_AT_name("LS2_1")
    2137                      .dwattr $C$DW$164, DW_AT_TI_symbol_name("_LS2_1")
    2138                      .dwattr $C$DW$164, DW_AT_bit_offset(0x0d), DW_AT_bit_size(0x01)
    2139                      .dwattr $C$DW$164, DW_AT_data_member_location[DW_OP_plus_uconst 0x0]
    2140                      .dwattr $C$DW$164, DW_AT_accessibility(DW_ACCESS_public)
    2141              $C$DW$165       .dwtag  DW_TAG_member
    2142                      .dwattr $C$DW$165, DW_AT_type(*$C$DW$T$19)
    2143                      .dwattr $C$DW$165, DW_AT_name("LS3_1")
    2144                      .dwattr $C$DW$165, DW_AT_TI_symbol_name("_LS3_1")
    2145                      .dwattr $C$DW$165, DW_AT_bit_offset(0x0c), DW_AT_bit_size(0x01)
    2146                      .dwattr $C$DW$165, DW_AT_data_member_location[DW_OP_plus_uconst 0x0]
    2147                      .dwattr $C$DW$165, DW_AT_accessibility(DW_ACCESS_public)
    2148              $C$DW$166       .dwtag  DW_TAG_member
    2149                      .dwattr $C$DW$166, DW_AT_type(*$C$DW$T$19)
    2150                      .dwattr $C$DW$166, DW_AT_name("LS4_1")
    2151                      .dwattr $C$DW$166, DW_AT_TI_symbol_name("_LS4_1")
    2152                      .dwattr $C$DW$166, DW_AT_bit_offset(0x0b), DW_AT_bit_size(0x01)
    2153                      .dwattr $C$DW$166, DW_AT_data_member_location[DW_OP_plus_uconst 0x0]
    2154                      .dwattr $C$DW$166, DW_AT_accessibility(DW_ACCESS_public)
    2155              $C$DW$167       .dwtag  DW_TAG_member
    2156                      .dwattr $C$DW$167, DW_AT_type(*$C$DW$T$19)
    2157                      .dwattr $C$DW$167, DW_AT_name("LS5_1")
    2158                      .dwattr $C$DW$167, DW_AT_TI_symbol_name("_LS5_1")
    2159                      .dwattr $C$DW$167, DW_AT_bit_offset(0x0a), DW_AT_bit_size(0x01)
    2160                      .dwattr $C$DW$167, DW_AT_data_member_location[DW_OP_plus_uconst 0x0]
    2161                      .dwattr $C$DW$167, DW_AT_accessibility(DW_ACCESS_public)
    2162              $C$DW$168       .dwtag  DW_TAG_member
    2163                      .dwattr $C$DW$168, DW_AT_type(*$C$DW$T$19)
    2164                      .dwattr $C$DW$168, DW_AT_name("rsvd1")
    2165                      .dwattr $C$DW$168, DW_AT_TI_symbol_name("_rsvd1")
    2166                      .dwattr $C$DW$168, DW_AT_bit_offset(0x00), DW_AT_bit_size(0x0a)
    2167                      .dwattr $C$DW$168, DW_AT_data_member_location[DW_OP_plus_uconst 0x0]
    2168                      .dwattr $C$DW$168, DW_AT_accessibility(DW_ACCESS_public)
    2169              $C$DW$169       .dwtag  DW_TAG_member
    2170                      .dwattr $C$DW$169, DW_AT_type(*$C$DW$T$19)
    2171                      .dwattr $C$DW$169, DW_AT_name("rsvd2")
    2172                      .dwattr $C$DW$169, DW_AT_TI_symbol_name("_rsvd2")
    2173                      .dwattr $C$DW$169, DW_AT_bit_offset(0x00), DW_AT_bit_size(0x10)
    2174                      .dwattr $C$DW$169, DW_AT_data_member_location[DW_OP_plus_uconst 0x1]
    2175                      .dwattr $C$DW$169, DW_AT_accessibility(DW_ACCESS_public)
    2176                      .dwendtag $C$DW$T$37
    2177              
    2178              
    2179              $C$DW$T$38      .dwtag  DW_TAG_union_type
    2180                      .dwattr $C$DW$T$38, DW_AT_name("DC18_REG")
    2181                      .dwattr $C$DW$T$38, DW_AT_byte_size(0x02)
    2182              $C$DW$170       .dwtag  DW_TAG_member
    2183                      .dwattr $C$DW$170, DW_AT_type(*$C$DW$T$21)
    2184                      .dwattr $C$DW$170, DW_AT_name("all")
    2185                      .dwattr $C$DW$170, DW_AT_TI_symbol_name("_all")
TMS320C2000 Assembler PC v6.4.2 Thu Dec 14 13:37:25 2017

Tools Copyright (c) 1996-2015 Texas Instruments Incorporated
F2837xS_Gpio.asm                                                     PAGE   42

    2186                      .dwattr $C$DW$170, DW_AT_data_member_location[DW_OP_plus_uconst 0x0]
    2187                      .dwattr $C$DW$170, DW_AT_accessibility(DW_ACCESS_public)
    2188              $C$DW$171       .dwtag  DW_TAG_member
    2189                      .dwattr $C$DW$171, DW_AT_type(*$C$DW$T$37)
    2190                      .dwattr $C$DW$171, DW_AT_name("bit")
    2191                      .dwattr $C$DW$171, DW_AT_TI_symbol_name("_bit")
    2192                      .dwattr $C$DW$171, DW_AT_data_member_location[DW_OP_plus_uconst 0x0]
    2193                      .dwattr $C$DW$171, DW_AT_accessibility(DW_ACCESS_public)
    2194                      .dwendtag $C$DW$T$38
    2195              
    2196              
    2197              $C$DW$T$39      .dwtag  DW_TAG_structure_type
    2198                      .dwattr $C$DW$T$39, DW_AT_name("DC1_BITS")
    2199                      .dwattr $C$DW$T$39, DW_AT_byte_size(0x02)
    2200              $C$DW$172       .dwtag  DW_TAG_member
    2201                      .dwattr $C$DW$172, DW_AT_type(*$C$DW$T$19)
    2202                      .dwattr $C$DW$172, DW_AT_name("CPU1_FPU_TMU")
    2203                      .dwattr $C$DW$172, DW_AT_TI_symbol_name("_CPU1_FPU_TMU")
    2204                      .dwattr $C$DW$172, DW_AT_bit_offset(0x0f), DW_AT_bit_size(0x01)
    2205                      .dwattr $C$DW$172, DW_AT_data_member_location[DW_OP_plus_uconst 0x0]
    2206                      .dwattr $C$DW$172, DW_AT_accessibility(DW_ACCESS_public)
    2207              $C$DW$173       .dwtag  DW_TAG_member
    2208                      .dwattr $C$DW$173, DW_AT_type(*$C$DW$T$19)
    2209                      .dwattr $C$DW$173, DW_AT_name("rsvd1")
    2210                      .dwattr $C$DW$173, DW_AT_TI_symbol_name("_rsvd1")
    2211                      .dwattr $C$DW$173, DW_AT_bit_offset(0x0e), DW_AT_bit_size(0x01)
    2212                      .dwattr $C$DW$173, DW_AT_data_member_location[DW_OP_plus_uconst 0x0]
    2213                      .dwattr $C$DW$173, DW_AT_accessibility(DW_ACCESS_public)
    2214              $C$DW$174       .dwtag  DW_TAG_member
    2215                      .dwattr $C$DW$174, DW_AT_type(*$C$DW$T$19)
    2216                      .dwattr $C$DW$174, DW_AT_name("CPU1_VCU")
    2217                      .dwattr $C$DW$174, DW_AT_TI_symbol_name("_CPU1_VCU")
    2218                      .dwattr $C$DW$174, DW_AT_bit_offset(0x0d), DW_AT_bit_size(0x01)
    2219                      .dwattr $C$DW$174, DW_AT_data_member_location[DW_OP_plus_uconst 0x0]
    2220                      .dwattr $C$DW$174, DW_AT_accessibility(DW_ACCESS_public)
    2221              $C$DW$175       .dwtag  DW_TAG_member
    2222                      .dwattr $C$DW$175, DW_AT_type(*$C$DW$T$19)
    2223                      .dwattr $C$DW$175, DW_AT_name("rsvd2")
    2224                      .dwattr $C$DW$175, DW_AT_TI_symbol_name("_rsvd2")
    2225                      .dwattr $C$DW$175, DW_AT_bit_offset(0x0c), DW_AT_bit_size(0x01)
    2226                      .dwattr $C$DW$175, DW_AT_data_member_location[DW_OP_plus_uconst 0x0]
    2227                      .dwattr $C$DW$175, DW_AT_accessibility(DW_ACCESS_public)
    2228              $C$DW$176       .dwtag  DW_TAG_member
    2229                      .dwattr $C$DW$176, DW_AT_type(*$C$DW$T$19)
    2230                      .dwattr $C$DW$176, DW_AT_name("rsvd3")
    2231                      .dwattr $C$DW$176, DW_AT_TI_symbol_name("_rsvd3")
    2232                      .dwattr $C$DW$176, DW_AT_bit_offset(0x0a), DW_AT_bit_size(0x02)
    2233                      .dwattr $C$DW$176, DW_AT_data_member_location[DW_OP_plus_uconst 0x0]
    2234                      .dwattr $C$DW$176, DW_AT_accessibility(DW_ACCESS_public)
    2235              $C$DW$177       .dwtag  DW_TAG_member
    2236                      .dwattr $C$DW$177, DW_AT_type(*$C$DW$T$19)
    2237                      .dwattr $C$DW$177, DW_AT_name("CPU1_CLA1")
    2238                      .dwattr $C$DW$177, DW_AT_TI_symbol_name("_CPU1_CLA1")
    2239                      .dwattr $C$DW$177, DW_AT_bit_offset(0x09), DW_AT_bit_size(0x01)
    2240                      .dwattr $C$DW$177, DW_AT_data_member_location[DW_OP_plus_uconst 0x0]
TMS320C2000 Assembler PC v6.4.2 Thu Dec 14 13:37:25 2017

Tools Copyright (c) 1996-2015 Texas Instruments Incorporated
F2837xS_Gpio.asm                                                     PAGE   43

    2241                      .dwattr $C$DW$177, DW_AT_accessibility(DW_ACCESS_public)
    2242              $C$DW$178       .dwtag  DW_TAG_member
    2243                      .dwattr $C$DW$178, DW_AT_type(*$C$DW$T$19)
    2244                      .dwattr $C$DW$178, DW_AT_name("rsvd4")
    2245                      .dwattr $C$DW$178, DW_AT_TI_symbol_name("_rsvd4")
    2246                      .dwattr $C$DW$178, DW_AT_bit_offset(0x08), DW_AT_bit_size(0x01)
    2247                      .dwattr $C$DW$178, DW_AT_data_member_location[DW_OP_plus_uconst 0x0]
    2248                      .dwattr $C$DW$178, DW_AT_accessibility(DW_ACCESS_public)
    2249              $C$DW$179       .dwtag  DW_TAG_member
    2250                      .dwattr $C$DW$179, DW_AT_type(*$C$DW$T$19)
    2251                      .dwattr $C$DW$179, DW_AT_name("rsvd5")
    2252                      .dwattr $C$DW$179, DW_AT_TI_symbol_name("_rsvd5")
    2253                      .dwattr $C$DW$179, DW_AT_bit_offset(0x07), DW_AT_bit_size(0x01)
    2254                      .dwattr $C$DW$179, DW_AT_data_member_location[DW_OP_plus_uconst 0x0]
    2255                      .dwattr $C$DW$179, DW_AT_accessibility(DW_ACCESS_public)
    2256              $C$DW$180       .dwtag  DW_TAG_member
    2257                      .dwattr $C$DW$180, DW_AT_type(*$C$DW$T$19)
    2258                      .dwattr $C$DW$180, DW_AT_name("rsvd6")
    2259                      .dwattr $C$DW$180, DW_AT_TI_symbol_name("_rsvd6")
    2260                      .dwattr $C$DW$180, DW_AT_bit_offset(0x06), DW_AT_bit_size(0x01)
    2261                      .dwattr $C$DW$180, DW_AT_data_member_location[DW_OP_plus_uconst 0x0]
    2262                      .dwattr $C$DW$180, DW_AT_accessibility(DW_ACCESS_public)
    2263              $C$DW$181       .dwtag  DW_TAG_member
    2264                      .dwattr $C$DW$181, DW_AT_type(*$C$DW$T$19)
    2265                      .dwattr $C$DW$181, DW_AT_name("rsvd7")
    2266                      .dwattr $C$DW$181, DW_AT_TI_symbol_name("_rsvd7")
    2267                      .dwattr $C$DW$181, DW_AT_bit_offset(0x00), DW_AT_bit_size(0x06)
    2268                      .dwattr $C$DW$181, DW_AT_data_member_location[DW_OP_plus_uconst 0x0]
    2269                      .dwattr $C$DW$181, DW_AT_accessibility(DW_ACCESS_public)
    2270              $C$DW$182       .dwtag  DW_TAG_member
    2271                      .dwattr $C$DW$182, DW_AT_type(*$C$DW$T$19)
    2272                      .dwattr $C$DW$182, DW_AT_name("rsvd8")
    2273                      .dwattr $C$DW$182, DW_AT_TI_symbol_name("_rsvd8")
    2274                      .dwattr $C$DW$182, DW_AT_bit_offset(0x00), DW_AT_bit_size(0x10)
    2275                      .dwattr $C$DW$182, DW_AT_data_member_location[DW_OP_plus_uconst 0x1]
    2276                      .dwattr $C$DW$182, DW_AT_accessibility(DW_ACCESS_public)
    2277                      .dwendtag $C$DW$T$39
    2278              
    2279              
    2280              $C$DW$T$40      .dwtag  DW_TAG_union_type
    2281                      .dwattr $C$DW$T$40, DW_AT_name("DC1_REG")
    2282                      .dwattr $C$DW$T$40, DW_AT_byte_size(0x02)
    2283              $C$DW$183       .dwtag  DW_TAG_member
    2284                      .dwattr $C$DW$183, DW_AT_type(*$C$DW$T$21)
    2285                      .dwattr $C$DW$183, DW_AT_name("all")
    2286                      .dwattr $C$DW$183, DW_AT_TI_symbol_name("_all")
    2287                      .dwattr $C$DW$183, DW_AT_data_member_location[DW_OP_plus_uconst 0x0]
    2288                      .dwattr $C$DW$183, DW_AT_accessibility(DW_ACCESS_public)
    2289              $C$DW$184       .dwtag  DW_TAG_member
    2290                      .dwattr $C$DW$184, DW_AT_type(*$C$DW$T$39)
    2291                      .dwattr $C$DW$184, DW_AT_name("bit")
    2292                      .dwattr $C$DW$184, DW_AT_TI_symbol_name("_bit")
    2293                      .dwattr $C$DW$184, DW_AT_data_member_location[DW_OP_plus_uconst 0x0]
    2294                      .dwattr $C$DW$184, DW_AT_accessibility(DW_ACCESS_public)
    2295                      .dwendtag $C$DW$T$40
TMS320C2000 Assembler PC v6.4.2 Thu Dec 14 13:37:25 2017

Tools Copyright (c) 1996-2015 Texas Instruments Incorporated
F2837xS_Gpio.asm                                                     PAGE   44

    2296              
    2297              
    2298              $C$DW$T$41      .dwtag  DW_TAG_structure_type
    2299                      .dwattr $C$DW$T$41, DW_AT_name("DC20_BITS")
    2300                      .dwattr $C$DW$T$41, DW_AT_byte_size(0x02)
    2301              $C$DW$185       .dwtag  DW_TAG_member
    2302                      .dwattr $C$DW$185, DW_AT_type(*$C$DW$T$19)
    2303                      .dwattr $C$DW$185, DW_AT_name("GS0")
    2304                      .dwattr $C$DW$185, DW_AT_TI_symbol_name("_GS0")
    2305                      .dwattr $C$DW$185, DW_AT_bit_offset(0x0f), DW_AT_bit_size(0x01)
    2306                      .dwattr $C$DW$185, DW_AT_data_member_location[DW_OP_plus_uconst 0x0]
    2307                      .dwattr $C$DW$185, DW_AT_accessibility(DW_ACCESS_public)
    2308              $C$DW$186       .dwtag  DW_TAG_member
    2309                      .dwattr $C$DW$186, DW_AT_type(*$C$DW$T$19)
    2310                      .dwattr $C$DW$186, DW_AT_name("GS1")
    2311                      .dwattr $C$DW$186, DW_AT_TI_symbol_name("_GS1")
    2312                      .dwattr $C$DW$186, DW_AT_bit_offset(0x0e), DW_AT_bit_size(0x01)
    2313                      .dwattr $C$DW$186, DW_AT_data_member_location[DW_OP_plus_uconst 0x0]
    2314                      .dwattr $C$DW$186, DW_AT_accessibility(DW_ACCESS_public)
    2315              $C$DW$187       .dwtag  DW_TAG_member
    2316                      .dwattr $C$DW$187, DW_AT_type(*$C$DW$T$19)
    2317                      .dwattr $C$DW$187, DW_AT_name("GS2")
    2318                      .dwattr $C$DW$187, DW_AT_TI_symbol_name("_GS2")
    2319                      .dwattr $C$DW$187, DW_AT_bit_offset(0x0d), DW_AT_bit_size(0x01)
    2320                      .dwattr $C$DW$187, DW_AT_data_member_location[DW_OP_plus_uconst 0x0]
    2321                      .dwattr $C$DW$187, DW_AT_accessibility(DW_ACCESS_public)
    2322              $C$DW$188       .dwtag  DW_TAG_member
    2323                      .dwattr $C$DW$188, DW_AT_type(*$C$DW$T$19)
    2324                      .dwattr $C$DW$188, DW_AT_name("GS3")
    2325                      .dwattr $C$DW$188, DW_AT_TI_symbol_name("_GS3")
    2326                      .dwattr $C$DW$188, DW_AT_bit_offset(0x0c), DW_AT_bit_size(0x01)
    2327                      .dwattr $C$DW$188, DW_AT_data_member_location[DW_OP_plus_uconst 0x0]
    2328                      .dwattr $C$DW$188, DW_AT_accessibility(DW_ACCESS_public)
    2329              $C$DW$189       .dwtag  DW_TAG_member
    2330                      .dwattr $C$DW$189, DW_AT_type(*$C$DW$T$19)
    2331                      .dwattr $C$DW$189, DW_AT_name("GS4")
    2332                      .dwattr $C$DW$189, DW_AT_TI_symbol_name("_GS4")
    2333                      .dwattr $C$DW$189, DW_AT_bit_offset(0x0b), DW_AT_bit_size(0x01)
    2334                      .dwattr $C$DW$189, DW_AT_data_member_location[DW_OP_plus_uconst 0x0]
    2335                      .dwattr $C$DW$189, DW_AT_accessibility(DW_ACCESS_public)
    2336              $C$DW$190       .dwtag  DW_TAG_member
    2337                      .dwattr $C$DW$190, DW_AT_type(*$C$DW$T$19)
    2338                      .dwattr $C$DW$190, DW_AT_name("GS5")
    2339                      .dwattr $C$DW$190, DW_AT_TI_symbol_name("_GS5")
    2340                      .dwattr $C$DW$190, DW_AT_bit_offset(0x0a), DW_AT_bit_size(0x01)
    2341                      .dwattr $C$DW$190, DW_AT_data_member_location[DW_OP_plus_uconst 0x0]
    2342                      .dwattr $C$DW$190, DW_AT_accessibility(DW_ACCESS_public)
    2343              $C$DW$191       .dwtag  DW_TAG_member
    2344                      .dwattr $C$DW$191, DW_AT_type(*$C$DW$T$19)
    2345                      .dwattr $C$DW$191, DW_AT_name("GS6")
    2346                      .dwattr $C$DW$191, DW_AT_TI_symbol_name("_GS6")
    2347                      .dwattr $C$DW$191, DW_AT_bit_offset(0x09), DW_AT_bit_size(0x01)
    2348                      .dwattr $C$DW$191, DW_AT_data_member_location[DW_OP_plus_uconst 0x0]
    2349                      .dwattr $C$DW$191, DW_AT_accessibility(DW_ACCESS_public)
    2350              $C$DW$192       .dwtag  DW_TAG_member
TMS320C2000 Assembler PC v6.4.2 Thu Dec 14 13:37:25 2017

Tools Copyright (c) 1996-2015 Texas Instruments Incorporated
F2837xS_Gpio.asm                                                     PAGE   45

    2351                      .dwattr $C$DW$192, DW_AT_type(*$C$DW$T$19)
    2352                      .dwattr $C$DW$192, DW_AT_name("GS7")
    2353                      .dwattr $C$DW$192, DW_AT_TI_symbol_name("_GS7")
    2354                      .dwattr $C$DW$192, DW_AT_bit_offset(0x08), DW_AT_bit_size(0x01)
    2355                      .dwattr $C$DW$192, DW_AT_data_member_location[DW_OP_plus_uconst 0x0]
    2356                      .dwattr $C$DW$192, DW_AT_accessibility(DW_ACCESS_public)
    2357              $C$DW$193       .dwtag  DW_TAG_member
    2358                      .dwattr $C$DW$193, DW_AT_type(*$C$DW$T$19)
    2359                      .dwattr $C$DW$193, DW_AT_name("GS8")
    2360                      .dwattr $C$DW$193, DW_AT_TI_symbol_name("_GS8")
    2361                      .dwattr $C$DW$193, DW_AT_bit_offset(0x07), DW_AT_bit_size(0x01)
    2362                      .dwattr $C$DW$193, DW_AT_data_member_location[DW_OP_plus_uconst 0x0]
    2363                      .dwattr $C$DW$193, DW_AT_accessibility(DW_ACCESS_public)
    2364              $C$DW$194       .dwtag  DW_TAG_member
    2365                      .dwattr $C$DW$194, DW_AT_type(*$C$DW$T$19)
    2366                      .dwattr $C$DW$194, DW_AT_name("GS9")
    2367                      .dwattr $C$DW$194, DW_AT_TI_symbol_name("_GS9")
    2368                      .dwattr $C$DW$194, DW_AT_bit_offset(0x06), DW_AT_bit_size(0x01)
    2369                      .dwattr $C$DW$194, DW_AT_data_member_location[DW_OP_plus_uconst 0x0]
    2370                      .dwattr $C$DW$194, DW_AT_accessibility(DW_ACCESS_public)
    2371              $C$DW$195       .dwtag  DW_TAG_member
    2372                      .dwattr $C$DW$195, DW_AT_type(*$C$DW$T$19)
    2373                      .dwattr $C$DW$195, DW_AT_name("GS10")
    2374                      .dwattr $C$DW$195, DW_AT_TI_symbol_name("_GS10")
    2375                      .dwattr $C$DW$195, DW_AT_bit_offset(0x05), DW_AT_bit_size(0x01)
    2376                      .dwattr $C$DW$195, DW_AT_data_member_location[DW_OP_plus_uconst 0x0]
    2377                      .dwattr $C$DW$195, DW_AT_accessibility(DW_ACCESS_public)
    2378              $C$DW$196       .dwtag  DW_TAG_member
    2379                      .dwattr $C$DW$196, DW_AT_type(*$C$DW$T$19)
    2380                      .dwattr $C$DW$196, DW_AT_name("GS11")
    2381                      .dwattr $C$DW$196, DW_AT_TI_symbol_name("_GS11")
    2382                      .dwattr $C$DW$196, DW_AT_bit_offset(0x04), DW_AT_bit_size(0x01)
    2383                      .dwattr $C$DW$196, DW_AT_data_member_location[DW_OP_plus_uconst 0x0]
    2384                      .dwattr $C$DW$196, DW_AT_accessibility(DW_ACCESS_public)
    2385              $C$DW$197       .dwtag  DW_TAG_member
    2386                      .dwattr $C$DW$197, DW_AT_type(*$C$DW$T$19)
    2387                      .dwattr $C$DW$197, DW_AT_name("GS12")
    2388                      .dwattr $C$DW$197, DW_AT_TI_symbol_name("_GS12")
    2389                      .dwattr $C$DW$197, DW_AT_bit_offset(0x03), DW_AT_bit_size(0x01)
    2390                      .dwattr $C$DW$197, DW_AT_data_member_location[DW_OP_plus_uconst 0x0]
    2391                      .dwattr $C$DW$197, DW_AT_accessibility(DW_ACCESS_public)
    2392              $C$DW$198       .dwtag  DW_TAG_member
    2393                      .dwattr $C$DW$198, DW_AT_type(*$C$DW$T$19)
    2394                      .dwattr $C$DW$198, DW_AT_name("GS13")
    2395                      .dwattr $C$DW$198, DW_AT_TI_symbol_name("_GS13")
    2396                      .dwattr $C$DW$198, DW_AT_bit_offset(0x02), DW_AT_bit_size(0x01)
    2397                      .dwattr $C$DW$198, DW_AT_data_member_location[DW_OP_plus_uconst 0x0]
    2398                      .dwattr $C$DW$198, DW_AT_accessibility(DW_ACCESS_public)
    2399              $C$DW$199       .dwtag  DW_TAG_member
    2400                      .dwattr $C$DW$199, DW_AT_type(*$C$DW$T$19)
    2401                      .dwattr $C$DW$199, DW_AT_name("GS14")
    2402                      .dwattr $C$DW$199, DW_AT_TI_symbol_name("_GS14")
    2403                      .dwattr $C$DW$199, DW_AT_bit_offset(0x01), DW_AT_bit_size(0x01)
    2404                      .dwattr $C$DW$199, DW_AT_data_member_location[DW_OP_plus_uconst 0x0]
    2405                      .dwattr $C$DW$199, DW_AT_accessibility(DW_ACCESS_public)
TMS320C2000 Assembler PC v6.4.2 Thu Dec 14 13:37:25 2017

Tools Copyright (c) 1996-2015 Texas Instruments Incorporated
F2837xS_Gpio.asm                                                     PAGE   46

    2406              $C$DW$200       .dwtag  DW_TAG_member
    2407                      .dwattr $C$DW$200, DW_AT_type(*$C$DW$T$19)
    2408                      .dwattr $C$DW$200, DW_AT_name("GS15")
    2409                      .dwattr $C$DW$200, DW_AT_TI_symbol_name("_GS15")
    2410                      .dwattr $C$DW$200, DW_AT_bit_offset(0x00), DW_AT_bit_size(0x01)
    2411                      .dwattr $C$DW$200, DW_AT_data_member_location[DW_OP_plus_uconst 0x0]
    2412                      .dwattr $C$DW$200, DW_AT_accessibility(DW_ACCESS_public)
    2413              $C$DW$201       .dwtag  DW_TAG_member
    2414                      .dwattr $C$DW$201, DW_AT_type(*$C$DW$T$19)
    2415                      .dwattr $C$DW$201, DW_AT_name("rsvd1")
    2416                      .dwattr $C$DW$201, DW_AT_TI_symbol_name("_rsvd1")
    2417                      .dwattr $C$DW$201, DW_AT_bit_offset(0x00), DW_AT_bit_size(0x10)
    2418                      .dwattr $C$DW$201, DW_AT_data_member_location[DW_OP_plus_uconst 0x1]
    2419                      .dwattr $C$DW$201, DW_AT_accessibility(DW_ACCESS_public)
    2420                      .dwendtag $C$DW$T$41
    2421              
    2422              
    2423              $C$DW$T$42      .dwtag  DW_TAG_union_type
    2424                      .dwattr $C$DW$T$42, DW_AT_name("DC20_REG")
    2425                      .dwattr $C$DW$T$42, DW_AT_byte_size(0x02)
    2426              $C$DW$202       .dwtag  DW_TAG_member
    2427                      .dwattr $C$DW$202, DW_AT_type(*$C$DW$T$21)
    2428                      .dwattr $C$DW$202, DW_AT_name("all")
    2429                      .dwattr $C$DW$202, DW_AT_TI_symbol_name("_all")
    2430                      .dwattr $C$DW$202, DW_AT_data_member_location[DW_OP_plus_uconst 0x0]
    2431                      .dwattr $C$DW$202, DW_AT_accessibility(DW_ACCESS_public)
    2432              $C$DW$203       .dwtag  DW_TAG_member
    2433                      .dwattr $C$DW$203, DW_AT_type(*$C$DW$T$41)
    2434                      .dwattr $C$DW$203, DW_AT_name("bit")
    2435                      .dwattr $C$DW$203, DW_AT_TI_symbol_name("_bit")
    2436                      .dwattr $C$DW$203, DW_AT_data_member_location[DW_OP_plus_uconst 0x0]
    2437                      .dwattr $C$DW$203, DW_AT_accessibility(DW_ACCESS_public)
    2438                      .dwendtag $C$DW$T$42
    2439              
    2440              
    2441              $C$DW$T$43      .dwtag  DW_TAG_structure_type
    2442                      .dwattr $C$DW$T$43, DW_AT_name("DC2_BITS")
    2443                      .dwattr $C$DW$T$43, DW_AT_byte_size(0x02)
    2444              $C$DW$204       .dwtag  DW_TAG_member
    2445                      .dwattr $C$DW$204, DW_AT_type(*$C$DW$T$19)
    2446                      .dwattr $C$DW$204, DW_AT_name("EMIF1")
    2447                      .dwattr $C$DW$204, DW_AT_TI_symbol_name("_EMIF1")
    2448                      .dwattr $C$DW$204, DW_AT_bit_offset(0x0f), DW_AT_bit_size(0x01)
    2449                      .dwattr $C$DW$204, DW_AT_data_member_location[DW_OP_plus_uconst 0x0]
    2450                      .dwattr $C$DW$204, DW_AT_accessibility(DW_ACCESS_public)
    2451              $C$DW$205       .dwtag  DW_TAG_member
    2452                      .dwattr $C$DW$205, DW_AT_type(*$C$DW$T$19)
    2453                      .dwattr $C$DW$205, DW_AT_name("EMIF2")
    2454                      .dwattr $C$DW$205, DW_AT_TI_symbol_name("_EMIF2")
    2455                      .dwattr $C$DW$205, DW_AT_bit_offset(0x0e), DW_AT_bit_size(0x01)
    2456                      .dwattr $C$DW$205, DW_AT_data_member_location[DW_OP_plus_uconst 0x0]
    2457                      .dwattr $C$DW$205, DW_AT_accessibility(DW_ACCESS_public)
    2458              $C$DW$206       .dwtag  DW_TAG_member
    2459                      .dwattr $C$DW$206, DW_AT_type(*$C$DW$T$19)
    2460                      .dwattr $C$DW$206, DW_AT_name("rsvd1")
TMS320C2000 Assembler PC v6.4.2 Thu Dec 14 13:37:25 2017

Tools Copyright (c) 1996-2015 Texas Instruments Incorporated
F2837xS_Gpio.asm                                                     PAGE   47

    2461                      .dwattr $C$DW$206, DW_AT_TI_symbol_name("_rsvd1")
    2462                      .dwattr $C$DW$206, DW_AT_bit_offset(0x00), DW_AT_bit_size(0x0e)
    2463                      .dwattr $C$DW$206, DW_AT_data_member_location[DW_OP_plus_uconst 0x0]
    2464                      .dwattr $C$DW$206, DW_AT_accessibility(DW_ACCESS_public)
    2465              $C$DW$207       .dwtag  DW_TAG_member
    2466                      .dwattr $C$DW$207, DW_AT_type(*$C$DW$T$19)
    2467                      .dwattr $C$DW$207, DW_AT_name("rsvd2")
    2468                      .dwattr $C$DW$207, DW_AT_TI_symbol_name("_rsvd2")
    2469                      .dwattr $C$DW$207, DW_AT_bit_offset(0x00), DW_AT_bit_size(0x10)
    2470                      .dwattr $C$DW$207, DW_AT_data_member_location[DW_OP_plus_uconst 0x1]
    2471                      .dwattr $C$DW$207, DW_AT_accessibility(DW_ACCESS_public)
    2472                      .dwendtag $C$DW$T$43
    2473              
    2474              
    2475              $C$DW$T$44      .dwtag  DW_TAG_union_type
    2476                      .dwattr $C$DW$T$44, DW_AT_name("DC2_REG")
    2477                      .dwattr $C$DW$T$44, DW_AT_byte_size(0x02)
    2478              $C$DW$208       .dwtag  DW_TAG_member
    2479                      .dwattr $C$DW$208, DW_AT_type(*$C$DW$T$21)
    2480                      .dwattr $C$DW$208, DW_AT_name("all")
    2481                      .dwattr $C$DW$208, DW_AT_TI_symbol_name("_all")
    2482                      .dwattr $C$DW$208, DW_AT_data_member_location[DW_OP_plus_uconst 0x0]
    2483                      .dwattr $C$DW$208, DW_AT_accessibility(DW_ACCESS_public)
    2484              $C$DW$209       .dwtag  DW_TAG_member
    2485                      .dwattr $C$DW$209, DW_AT_type(*$C$DW$T$43)
    2486                      .dwattr $C$DW$209, DW_AT_name("bit")
    2487                      .dwattr $C$DW$209, DW_AT_TI_symbol_name("_bit")
    2488                      .dwattr $C$DW$209, DW_AT_data_member_location[DW_OP_plus_uconst 0x0]
    2489                      .dwattr $C$DW$209, DW_AT_accessibility(DW_ACCESS_public)
    2490                      .dwendtag $C$DW$T$44
    2491              
    2492              
    2493              $C$DW$T$45      .dwtag  DW_TAG_structure_type
    2494                      .dwattr $C$DW$T$45, DW_AT_name("DC3_BITS")
    2495                      .dwattr $C$DW$T$45, DW_AT_byte_size(0x02)
    2496              $C$DW$210       .dwtag  DW_TAG_member
    2497                      .dwattr $C$DW$210, DW_AT_type(*$C$DW$T$19)
    2498                      .dwattr $C$DW$210, DW_AT_name("EPWM1")
    2499                      .dwattr $C$DW$210, DW_AT_TI_symbol_name("_EPWM1")
    2500                      .dwattr $C$DW$210, DW_AT_bit_offset(0x0f), DW_AT_bit_size(0x01)
    2501                      .dwattr $C$DW$210, DW_AT_data_member_location[DW_OP_plus_uconst 0x0]
    2502                      .dwattr $C$DW$210, DW_AT_accessibility(DW_ACCESS_public)
    2503              $C$DW$211       .dwtag  DW_TAG_member
    2504                      .dwattr $C$DW$211, DW_AT_type(*$C$DW$T$19)
    2505                      .dwattr $C$DW$211, DW_AT_name("EPWM2")
    2506                      .dwattr $C$DW$211, DW_AT_TI_symbol_name("_EPWM2")
    2507                      .dwattr $C$DW$211, DW_AT_bit_offset(0x0e), DW_AT_bit_size(0x01)
    2508                      .dwattr $C$DW$211, DW_AT_data_member_location[DW_OP_plus_uconst 0x0]
    2509                      .dwattr $C$DW$211, DW_AT_accessibility(DW_ACCESS_public)
    2510              $C$DW$212       .dwtag  DW_TAG_member
    2511                      .dwattr $C$DW$212, DW_AT_type(*$C$DW$T$19)
    2512                      .dwattr $C$DW$212, DW_AT_name("EPWM3")
    2513                      .dwattr $C$DW$212, DW_AT_TI_symbol_name("_EPWM3")
    2514                      .dwattr $C$DW$212, DW_AT_bit_offset(0x0d), DW_AT_bit_size(0x01)
    2515                      .dwattr $C$DW$212, DW_AT_data_member_location[DW_OP_plus_uconst 0x0]
TMS320C2000 Assembler PC v6.4.2 Thu Dec 14 13:37:25 2017

Tools Copyright (c) 1996-2015 Texas Instruments Incorporated
F2837xS_Gpio.asm                                                     PAGE   48

    2516                      .dwattr $C$DW$212, DW_AT_accessibility(DW_ACCESS_public)
    2517              $C$DW$213       .dwtag  DW_TAG_member
    2518                      .dwattr $C$DW$213, DW_AT_type(*$C$DW$T$19)
    2519                      .dwattr $C$DW$213, DW_AT_name("EPWM4")
    2520                      .dwattr $C$DW$213, DW_AT_TI_symbol_name("_EPWM4")
    2521                      .dwattr $C$DW$213, DW_AT_bit_offset(0x0c), DW_AT_bit_size(0x01)
    2522                      .dwattr $C$DW$213, DW_AT_data_member_location[DW_OP_plus_uconst 0x0]
    2523                      .dwattr $C$DW$213, DW_AT_accessibility(DW_ACCESS_public)
    2524              $C$DW$214       .dwtag  DW_TAG_member
    2525                      .dwattr $C$DW$214, DW_AT_type(*$C$DW$T$19)
    2526                      .dwattr $C$DW$214, DW_AT_name("EPWM5")
    2527                      .dwattr $C$DW$214, DW_AT_TI_symbol_name("_EPWM5")
    2528                      .dwattr $C$DW$214, DW_AT_bit_offset(0x0b), DW_AT_bit_size(0x01)
    2529                      .dwattr $C$DW$214, DW_AT_data_member_location[DW_OP_plus_uconst 0x0]
    2530                      .dwattr $C$DW$214, DW_AT_accessibility(DW_ACCESS_public)
    2531              $C$DW$215       .dwtag  DW_TAG_member
    2532                      .dwattr $C$DW$215, DW_AT_type(*$C$DW$T$19)
    2533                      .dwattr $C$DW$215, DW_AT_name("EPWM6")
    2534                      .dwattr $C$DW$215, DW_AT_TI_symbol_name("_EPWM6")
    2535                      .dwattr $C$DW$215, DW_AT_bit_offset(0x0a), DW_AT_bit_size(0x01)
    2536                      .dwattr $C$DW$215, DW_AT_data_member_location[DW_OP_plus_uconst 0x0]
    2537                      .dwattr $C$DW$215, DW_AT_accessibility(DW_ACCESS_public)
    2538              $C$DW$216       .dwtag  DW_TAG_member
    2539                      .dwattr $C$DW$216, DW_AT_type(*$C$DW$T$19)
    2540                      .dwattr $C$DW$216, DW_AT_name("EPWM7")
    2541                      .dwattr $C$DW$216, DW_AT_TI_symbol_name("_EPWM7")
    2542                      .dwattr $C$DW$216, DW_AT_bit_offset(0x09), DW_AT_bit_size(0x01)
    2543                      .dwattr $C$DW$216, DW_AT_data_member_location[DW_OP_plus_uconst 0x0]
    2544                      .dwattr $C$DW$216, DW_AT_accessibility(DW_ACCESS_public)
    2545              $C$DW$217       .dwtag  DW_TAG_member
    2546                      .dwattr $C$DW$217, DW_AT_type(*$C$DW$T$19)
    2547                      .dwattr $C$DW$217, DW_AT_name("EPWM8")
    2548                      .dwattr $C$DW$217, DW_AT_TI_symbol_name("_EPWM8")
    2549                      .dwattr $C$DW$217, DW_AT_bit_offset(0x08), DW_AT_bit_size(0x01)
    2550                      .dwattr $C$DW$217, DW_AT_data_member_location[DW_OP_plus_uconst 0x0]
    2551                      .dwattr $C$DW$217, DW_AT_accessibility(DW_ACCESS_public)
    2552              $C$DW$218       .dwtag  DW_TAG_member
    2553                      .dwattr $C$DW$218, DW_AT_type(*$C$DW$T$19)
    2554                      .dwattr $C$DW$218, DW_AT_name("EPWM9")
    2555                      .dwattr $C$DW$218, DW_AT_TI_symbol_name("_EPWM9")
    2556                      .dwattr $C$DW$218, DW_AT_bit_offset(0x07), DW_AT_bit_size(0x01)
    2557                      .dwattr $C$DW$218, DW_AT_data_member_location[DW_OP_plus_uconst 0x0]
    2558                      .dwattr $C$DW$218, DW_AT_accessibility(DW_ACCESS_public)
    2559              $C$DW$219       .dwtag  DW_TAG_member
    2560                      .dwattr $C$DW$219, DW_AT_type(*$C$DW$T$19)
    2561                      .dwattr $C$DW$219, DW_AT_name("EPWM10")
    2562                      .dwattr $C$DW$219, DW_AT_TI_symbol_name("_EPWM10")
    2563                      .dwattr $C$DW$219, DW_AT_bit_offset(0x06), DW_AT_bit_size(0x01)
    2564                      .dwattr $C$DW$219, DW_AT_data_member_location[DW_OP_plus_uconst 0x0]
    2565                      .dwattr $C$DW$219, DW_AT_accessibility(DW_ACCESS_public)
    2566              $C$DW$220       .dwtag  DW_TAG_member
    2567                      .dwattr $C$DW$220, DW_AT_type(*$C$DW$T$19)
    2568                      .dwattr $C$DW$220, DW_AT_name("EPWM11")
    2569                      .dwattr $C$DW$220, DW_AT_TI_symbol_name("_EPWM11")
    2570                      .dwattr $C$DW$220, DW_AT_bit_offset(0x05), DW_AT_bit_size(0x01)
TMS320C2000 Assembler PC v6.4.2 Thu Dec 14 13:37:25 2017

Tools Copyright (c) 1996-2015 Texas Instruments Incorporated
F2837xS_Gpio.asm                                                     PAGE   49

    2571                      .dwattr $C$DW$220, DW_AT_data_member_location[DW_OP_plus_uconst 0x0]
    2572                      .dwattr $C$DW$220, DW_AT_accessibility(DW_ACCESS_public)
    2573              $C$DW$221       .dwtag  DW_TAG_member
    2574                      .dwattr $C$DW$221, DW_AT_type(*$C$DW$T$19)
    2575                      .dwattr $C$DW$221, DW_AT_name("EPWM12")
    2576                      .dwattr $C$DW$221, DW_AT_TI_symbol_name("_EPWM12")
    2577                      .dwattr $C$DW$221, DW_AT_bit_offset(0x04), DW_AT_bit_size(0x01)
    2578                      .dwattr $C$DW$221, DW_AT_data_member_location[DW_OP_plus_uconst 0x0]
    2579                      .dwattr $C$DW$221, DW_AT_accessibility(DW_ACCESS_public)
    2580              $C$DW$222       .dwtag  DW_TAG_member
    2581                      .dwattr $C$DW$222, DW_AT_type(*$C$DW$T$19)
    2582                      .dwattr $C$DW$222, DW_AT_name("rsvd1")
    2583                      .dwattr $C$DW$222, DW_AT_TI_symbol_name("_rsvd1")
    2584                      .dwattr $C$DW$222, DW_AT_bit_offset(0x03), DW_AT_bit_size(0x01)
    2585                      .dwattr $C$DW$222, DW_AT_data_member_location[DW_OP_plus_uconst 0x0]
    2586                      .dwattr $C$DW$222, DW_AT_accessibility(DW_ACCESS_public)
    2587              $C$DW$223       .dwtag  DW_TAG_member
    2588                      .dwattr $C$DW$223, DW_AT_type(*$C$DW$T$19)
    2589                      .dwattr $C$DW$223, DW_AT_name("rsvd2")
    2590                      .dwattr $C$DW$223, DW_AT_TI_symbol_name("_rsvd2")
    2591                      .dwattr $C$DW$223, DW_AT_bit_offset(0x02), DW_AT_bit_size(0x01)
    2592                      .dwattr $C$DW$223, DW_AT_data_member_location[DW_OP_plus_uconst 0x0]
    2593                      .dwattr $C$DW$223, DW_AT_accessibility(DW_ACCESS_public)
    2594              $C$DW$224       .dwtag  DW_TAG_member
    2595                      .dwattr $C$DW$224, DW_AT_type(*$C$DW$T$19)
    2596                      .dwattr $C$DW$224, DW_AT_name("rsvd3")
    2597                      .dwattr $C$DW$224, DW_AT_TI_symbol_name("_rsvd3")
    2598                      .dwattr $C$DW$224, DW_AT_bit_offset(0x01), DW_AT_bit_size(0x01)
    2599                      .dwattr $C$DW$224, DW_AT_data_member_location[DW_OP_plus_uconst 0x0]
    2600                      .dwattr $C$DW$224, DW_AT_accessibility(DW_ACCESS_public)
    2601              $C$DW$225       .dwtag  DW_TAG_member
    2602                      .dwattr $C$DW$225, DW_AT_type(*$C$DW$T$19)
    2603                      .dwattr $C$DW$225, DW_AT_name("rsvd4")
    2604                      .dwattr $C$DW$225, DW_AT_TI_symbol_name("_rsvd4")
    2605                      .dwattr $C$DW$225, DW_AT_bit_offset(0x00), DW_AT_bit_size(0x01)
    2606                      .dwattr $C$DW$225, DW_AT_data_member_location[DW_OP_plus_uconst 0x0]
    2607                      .dwattr $C$DW$225, DW_AT_accessibility(DW_ACCESS_public)
    2608              $C$DW$226       .dwtag  DW_TAG_member
    2609                      .dwattr $C$DW$226, DW_AT_type(*$C$DW$T$19)
    2610                      .dwattr $C$DW$226, DW_AT_name("rsvd5")
    2611                      .dwattr $C$DW$226, DW_AT_TI_symbol_name("_rsvd5")
    2612                      .dwattr $C$DW$226, DW_AT_bit_offset(0x00), DW_AT_bit_size(0x10)
    2613                      .dwattr $C$DW$226, DW_AT_data_member_location[DW_OP_plus_uconst 0x1]
    2614                      .dwattr $C$DW$226, DW_AT_accessibility(DW_ACCESS_public)
    2615                      .dwendtag $C$DW$T$45
    2616              
    2617              
    2618              $C$DW$T$46      .dwtag  DW_TAG_union_type
    2619                      .dwattr $C$DW$T$46, DW_AT_name("DC3_REG")
    2620                      .dwattr $C$DW$T$46, DW_AT_byte_size(0x02)
    2621              $C$DW$227       .dwtag  DW_TAG_member
    2622                      .dwattr $C$DW$227, DW_AT_type(*$C$DW$T$21)
    2623                      .dwattr $C$DW$227, DW_AT_name("all")
    2624                      .dwattr $C$DW$227, DW_AT_TI_symbol_name("_all")
    2625                      .dwattr $C$DW$227, DW_AT_data_member_location[DW_OP_plus_uconst 0x0]
TMS320C2000 Assembler PC v6.4.2 Thu Dec 14 13:37:25 2017

Tools Copyright (c) 1996-2015 Texas Instruments Incorporated
F2837xS_Gpio.asm                                                     PAGE   50

    2626                      .dwattr $C$DW$227, DW_AT_accessibility(DW_ACCESS_public)
    2627              $C$DW$228       .dwtag  DW_TAG_member
    2628                      .dwattr $C$DW$228, DW_AT_type(*$C$DW$T$45)
    2629                      .dwattr $C$DW$228, DW_AT_name("bit")
    2630                      .dwattr $C$DW$228, DW_AT_TI_symbol_name("_bit")
    2631                      .dwattr $C$DW$228, DW_AT_data_member_location[DW_OP_plus_uconst 0x0]
    2632                      .dwattr $C$DW$228, DW_AT_accessibility(DW_ACCESS_public)
    2633                      .dwendtag $C$DW$T$46
    2634              
    2635              
    2636              $C$DW$T$47      .dwtag  DW_TAG_structure_type
    2637                      .dwattr $C$DW$T$47, DW_AT_name("DC4_BITS")
    2638                      .dwattr $C$DW$T$47, DW_AT_byte_size(0x02)
    2639              $C$DW$229       .dwtag  DW_TAG_member
    2640                      .dwattr $C$DW$229, DW_AT_type(*$C$DW$T$19)
    2641                      .dwattr $C$DW$229, DW_AT_name("ECAP1")
    2642                      .dwattr $C$DW$229, DW_AT_TI_symbol_name("_ECAP1")
    2643                      .dwattr $C$DW$229, DW_AT_bit_offset(0x0f), DW_AT_bit_size(0x01)
    2644                      .dwattr $C$DW$229, DW_AT_data_member_location[DW_OP_plus_uconst 0x0]
    2645                      .dwattr $C$DW$229, DW_AT_accessibility(DW_ACCESS_public)
    2646              $C$DW$230       .dwtag  DW_TAG_member
    2647                      .dwattr $C$DW$230, DW_AT_type(*$C$DW$T$19)
    2648                      .dwattr $C$DW$230, DW_AT_name("ECAP2")
    2649                      .dwattr $C$DW$230, DW_AT_TI_symbol_name("_ECAP2")
    2650                      .dwattr $C$DW$230, DW_AT_bit_offset(0x0e), DW_AT_bit_size(0x01)
    2651                      .dwattr $C$DW$230, DW_AT_data_member_location[DW_OP_plus_uconst 0x0]
    2652                      .dwattr $C$DW$230, DW_AT_accessibility(DW_ACCESS_public)
    2653              $C$DW$231       .dwtag  DW_TAG_member
    2654                      .dwattr $C$DW$231, DW_AT_type(*$C$DW$T$19)
    2655                      .dwattr $C$DW$231, DW_AT_name("ECAP3")
    2656                      .dwattr $C$DW$231, DW_AT_TI_symbol_name("_ECAP3")
    2657                      .dwattr $C$DW$231, DW_AT_bit_offset(0x0d), DW_AT_bit_size(0x01)
    2658                      .dwattr $C$DW$231, DW_AT_data_member_location[DW_OP_plus_uconst 0x0]
    2659                      .dwattr $C$DW$231, DW_AT_accessibility(DW_ACCESS_public)
    2660              $C$DW$232       .dwtag  DW_TAG_member
    2661                      .dwattr $C$DW$232, DW_AT_type(*$C$DW$T$19)
    2662                      .dwattr $C$DW$232, DW_AT_name("ECAP4")
    2663                      .dwattr $C$DW$232, DW_AT_TI_symbol_name("_ECAP4")
    2664                      .dwattr $C$DW$232, DW_AT_bit_offset(0x0c), DW_AT_bit_size(0x01)
    2665                      .dwattr $C$DW$232, DW_AT_data_member_location[DW_OP_plus_uconst 0x0]
    2666                      .dwattr $C$DW$232, DW_AT_accessibility(DW_ACCESS_public)
    2667              $C$DW$233       .dwtag  DW_TAG_member
    2668                      .dwattr $C$DW$233, DW_AT_type(*$C$DW$T$19)
    2669                      .dwattr $C$DW$233, DW_AT_name("ECAP5")
    2670                      .dwattr $C$DW$233, DW_AT_TI_symbol_name("_ECAP5")
    2671                      .dwattr $C$DW$233, DW_AT_bit_offset(0x0b), DW_AT_bit_size(0x01)
    2672                      .dwattr $C$DW$233, DW_AT_data_member_location[DW_OP_plus_uconst 0x0]
    2673                      .dwattr $C$DW$233, DW_AT_accessibility(DW_ACCESS_public)
    2674              $C$DW$234       .dwtag  DW_TAG_member
    2675                      .dwattr $C$DW$234, DW_AT_type(*$C$DW$T$19)
    2676                      .dwattr $C$DW$234, DW_AT_name("ECAP6")
    2677                      .dwattr $C$DW$234, DW_AT_TI_symbol_name("_ECAP6")
    2678                      .dwattr $C$DW$234, DW_AT_bit_offset(0x0a), DW_AT_bit_size(0x01)
    2679                      .dwattr $C$DW$234, DW_AT_data_member_location[DW_OP_plus_uconst 0x0]
    2680                      .dwattr $C$DW$234, DW_AT_accessibility(DW_ACCESS_public)
TMS320C2000 Assembler PC v6.4.2 Thu Dec 14 13:37:25 2017

Tools Copyright (c) 1996-2015 Texas Instruments Incorporated
F2837xS_Gpio.asm                                                     PAGE   51

    2681              $C$DW$235       .dwtag  DW_TAG_member
    2682                      .dwattr $C$DW$235, DW_AT_type(*$C$DW$T$19)
    2683                      .dwattr $C$DW$235, DW_AT_name("rsvd1")
    2684                      .dwattr $C$DW$235, DW_AT_TI_symbol_name("_rsvd1")
    2685                      .dwattr $C$DW$235, DW_AT_bit_offset(0x09), DW_AT_bit_size(0x01)
    2686                      .dwattr $C$DW$235, DW_AT_data_member_location[DW_OP_plus_uconst 0x0]
    2687                      .dwattr $C$DW$235, DW_AT_accessibility(DW_ACCESS_public)
    2688              $C$DW$236       .dwtag  DW_TAG_member
    2689                      .dwattr $C$DW$236, DW_AT_type(*$C$DW$T$19)
    2690                      .dwattr $C$DW$236, DW_AT_name("rsvd2")
    2691                      .dwattr $C$DW$236, DW_AT_TI_symbol_name("_rsvd2")
    2692                      .dwattr $C$DW$236, DW_AT_bit_offset(0x08), DW_AT_bit_size(0x01)
    2693                      .dwattr $C$DW$236, DW_AT_data_member_location[DW_OP_plus_uconst 0x0]
    2694                      .dwattr $C$DW$236, DW_AT_accessibility(DW_ACCESS_public)
    2695              $C$DW$237       .dwtag  DW_TAG_member
    2696                      .dwattr $C$DW$237, DW_AT_type(*$C$DW$T$19)
    2697                      .dwattr $C$DW$237, DW_AT_name("rsvd3")
    2698                      .dwattr $C$DW$237, DW_AT_TI_symbol_name("_rsvd3")
    2699                      .dwattr $C$DW$237, DW_AT_bit_offset(0x00), DW_AT_bit_size(0x08)
    2700                      .dwattr $C$DW$237, DW_AT_data_member_location[DW_OP_plus_uconst 0x0]
    2701                      .dwattr $C$DW$237, DW_AT_accessibility(DW_ACCESS_public)
    2702              $C$DW$238       .dwtag  DW_TAG_member
    2703                      .dwattr $C$DW$238, DW_AT_type(*$C$DW$T$19)
    2704                      .dwattr $C$DW$238, DW_AT_name("rsvd4")
    2705                      .dwattr $C$DW$238, DW_AT_TI_symbol_name("_rsvd4")
    2706                      .dwattr $C$DW$238, DW_AT_bit_offset(0x00), DW_AT_bit_size(0x10)
    2707                      .dwattr $C$DW$238, DW_AT_data_member_location[DW_OP_plus_uconst 0x1]
    2708                      .dwattr $C$DW$238, DW_AT_accessibility(DW_ACCESS_public)
    2709                      .dwendtag $C$DW$T$47
    2710              
    2711              
    2712              $C$DW$T$48      .dwtag  DW_TAG_union_type
    2713                      .dwattr $C$DW$T$48, DW_AT_name("DC4_REG")
    2714                      .dwattr $C$DW$T$48, DW_AT_byte_size(0x02)
    2715              $C$DW$239       .dwtag  DW_TAG_member
    2716                      .dwattr $C$DW$239, DW_AT_type(*$C$DW$T$21)
    2717                      .dwattr $C$DW$239, DW_AT_name("all")
    2718                      .dwattr $C$DW$239, DW_AT_TI_symbol_name("_all")
    2719                      .dwattr $C$DW$239, DW_AT_data_member_location[DW_OP_plus_uconst 0x0]
    2720                      .dwattr $C$DW$239, DW_AT_accessibility(DW_ACCESS_public)
    2721              $C$DW$240       .dwtag  DW_TAG_member
    2722                      .dwattr $C$DW$240, DW_AT_type(*$C$DW$T$47)
    2723                      .dwattr $C$DW$240, DW_AT_name("bit")
    2724                      .dwattr $C$DW$240, DW_AT_TI_symbol_name("_bit")
    2725                      .dwattr $C$DW$240, DW_AT_data_member_location[DW_OP_plus_uconst 0x0]
    2726                      .dwattr $C$DW$240, DW_AT_accessibility(DW_ACCESS_public)
    2727                      .dwendtag $C$DW$T$48
    2728              
    2729              
    2730              $C$DW$T$49      .dwtag  DW_TAG_structure_type
    2731                      .dwattr $C$DW$T$49, DW_AT_name("DC5_BITS")
    2732                      .dwattr $C$DW$T$49, DW_AT_byte_size(0x02)
    2733              $C$DW$241       .dwtag  DW_TAG_member
    2734                      .dwattr $C$DW$241, DW_AT_type(*$C$DW$T$19)
    2735                      .dwattr $C$DW$241, DW_AT_name("EQEP1")
TMS320C2000 Assembler PC v6.4.2 Thu Dec 14 13:37:25 2017

Tools Copyright (c) 1996-2015 Texas Instruments Incorporated
F2837xS_Gpio.asm                                                     PAGE   52

    2736                      .dwattr $C$DW$241, DW_AT_TI_symbol_name("_EQEP1")
    2737                      .dwattr $C$DW$241, DW_AT_bit_offset(0x0f), DW_AT_bit_size(0x01)
    2738                      .dwattr $C$DW$241, DW_AT_data_member_location[DW_OP_plus_uconst 0x0]
    2739                      .dwattr $C$DW$241, DW_AT_accessibility(DW_ACCESS_public)
    2740              $C$DW$242       .dwtag  DW_TAG_member
    2741                      .dwattr $C$DW$242, DW_AT_type(*$C$DW$T$19)
    2742                      .dwattr $C$DW$242, DW_AT_name("EQEP2")
    2743                      .dwattr $C$DW$242, DW_AT_TI_symbol_name("_EQEP2")
    2744                      .dwattr $C$DW$242, DW_AT_bit_offset(0x0e), DW_AT_bit_size(0x01)
    2745                      .dwattr $C$DW$242, DW_AT_data_member_location[DW_OP_plus_uconst 0x0]
    2746                      .dwattr $C$DW$242, DW_AT_accessibility(DW_ACCESS_public)
    2747              $C$DW$243       .dwtag  DW_TAG_member
    2748                      .dwattr $C$DW$243, DW_AT_type(*$C$DW$T$19)
    2749                      .dwattr $C$DW$243, DW_AT_name("EQEP3")
    2750                      .dwattr $C$DW$243, DW_AT_TI_symbol_name("_EQEP3")
    2751                      .dwattr $C$DW$243, DW_AT_bit_offset(0x0d), DW_AT_bit_size(0x01)
    2752                      .dwattr $C$DW$243, DW_AT_data_member_location[DW_OP_plus_uconst 0x0]
    2753                      .dwattr $C$DW$243, DW_AT_accessibility(DW_ACCESS_public)
    2754              $C$DW$244       .dwtag  DW_TAG_member
    2755                      .dwattr $C$DW$244, DW_AT_type(*$C$DW$T$19)
    2756                      .dwattr $C$DW$244, DW_AT_name("rsvd1")
    2757                      .dwattr $C$DW$244, DW_AT_TI_symbol_name("_rsvd1")
    2758                      .dwattr $C$DW$244, DW_AT_bit_offset(0x0c), DW_AT_bit_size(0x01)
    2759                      .dwattr $C$DW$244, DW_AT_data_member_location[DW_OP_plus_uconst 0x0]
    2760                      .dwattr $C$DW$244, DW_AT_accessibility(DW_ACCESS_public)
    2761              $C$DW$245       .dwtag  DW_TAG_member
    2762                      .dwattr $C$DW$245, DW_AT_type(*$C$DW$T$19)
    2763                      .dwattr $C$DW$245, DW_AT_name("rsvd2")
    2764                      .dwattr $C$DW$245, DW_AT_TI_symbol_name("_rsvd2")
    2765                      .dwattr $C$DW$245, DW_AT_bit_offset(0x00), DW_AT_bit_size(0x0c)
    2766                      .dwattr $C$DW$245, DW_AT_data_member_location[DW_OP_plus_uconst 0x0]
    2767                      .dwattr $C$DW$245, DW_AT_accessibility(DW_ACCESS_public)
    2768              $C$DW$246       .dwtag  DW_TAG_member
    2769                      .dwattr $C$DW$246, DW_AT_type(*$C$DW$T$19)
    2770                      .dwattr $C$DW$246, DW_AT_name("rsvd3")
    2771                      .dwattr $C$DW$246, DW_AT_TI_symbol_name("_rsvd3")
    2772                      .dwattr $C$DW$246, DW_AT_bit_offset(0x00), DW_AT_bit_size(0x10)
    2773                      .dwattr $C$DW$246, DW_AT_data_member_location[DW_OP_plus_uconst 0x1]
    2774                      .dwattr $C$DW$246, DW_AT_accessibility(DW_ACCESS_public)
    2775                      .dwendtag $C$DW$T$49
    2776              
    2777              
    2778              $C$DW$T$50      .dwtag  DW_TAG_union_type
    2779                      .dwattr $C$DW$T$50, DW_AT_name("DC5_REG")
    2780                      .dwattr $C$DW$T$50, DW_AT_byte_size(0x02)
    2781              $C$DW$247       .dwtag  DW_TAG_member
    2782                      .dwattr $C$DW$247, DW_AT_type(*$C$DW$T$21)
    2783                      .dwattr $C$DW$247, DW_AT_name("all")
    2784                      .dwattr $C$DW$247, DW_AT_TI_symbol_name("_all")
    2785                      .dwattr $C$DW$247, DW_AT_data_member_location[DW_OP_plus_uconst 0x0]
    2786                      .dwattr $C$DW$247, DW_AT_accessibility(DW_ACCESS_public)
    2787              $C$DW$248       .dwtag  DW_TAG_member
    2788                      .dwattr $C$DW$248, DW_AT_type(*$C$DW$T$49)
    2789                      .dwattr $C$DW$248, DW_AT_name("bit")
    2790                      .dwattr $C$DW$248, DW_AT_TI_symbol_name("_bit")
TMS320C2000 Assembler PC v6.4.2 Thu Dec 14 13:37:25 2017

Tools Copyright (c) 1996-2015 Texas Instruments Incorporated
F2837xS_Gpio.asm                                                     PAGE   53

    2791                      .dwattr $C$DW$248, DW_AT_data_member_location[DW_OP_plus_uconst 0x0]
    2792                      .dwattr $C$DW$248, DW_AT_accessibility(DW_ACCESS_public)
    2793                      .dwendtag $C$DW$T$50
    2794              
    2795              
    2796              $C$DW$T$51      .dwtag  DW_TAG_structure_type
    2797                      .dwattr $C$DW$T$51, DW_AT_name("DC6_BITS")
    2798                      .dwattr $C$DW$T$51, DW_AT_byte_size(0x02)
    2799              $C$DW$249       .dwtag  DW_TAG_member
    2800                      .dwattr $C$DW$249, DW_AT_type(*$C$DW$T$19)
    2801                      .dwattr $C$DW$249, DW_AT_name("rsvd1")
    2802                      .dwattr $C$DW$249, DW_AT_TI_symbol_name("_rsvd1")
    2803                      .dwattr $C$DW$249, DW_AT_bit_offset(0x0f), DW_AT_bit_size(0x01)
    2804                      .dwattr $C$DW$249, DW_AT_data_member_location[DW_OP_plus_uconst 0x0]
    2805                      .dwattr $C$DW$249, DW_AT_accessibility(DW_ACCESS_public)
    2806              $C$DW$250       .dwtag  DW_TAG_member
    2807                      .dwattr $C$DW$250, DW_AT_type(*$C$DW$T$19)
    2808                      .dwattr $C$DW$250, DW_AT_name("rsvd2")
    2809                      .dwattr $C$DW$250, DW_AT_TI_symbol_name("_rsvd2")
    2810                      .dwattr $C$DW$250, DW_AT_bit_offset(0x0e), DW_AT_bit_size(0x01)
    2811                      .dwattr $C$DW$250, DW_AT_data_member_location[DW_OP_plus_uconst 0x0]
    2812                      .dwattr $C$DW$250, DW_AT_accessibility(DW_ACCESS_public)
    2813              $C$DW$251       .dwtag  DW_TAG_member
    2814                      .dwattr $C$DW$251, DW_AT_type(*$C$DW$T$19)
    2815                      .dwattr $C$DW$251, DW_AT_name("rsvd3")
    2816                      .dwattr $C$DW$251, DW_AT_TI_symbol_name("_rsvd3")
    2817                      .dwattr $C$DW$251, DW_AT_bit_offset(0x0d), DW_AT_bit_size(0x01)
    2818                      .dwattr $C$DW$251, DW_AT_data_member_location[DW_OP_plus_uconst 0x0]
    2819                      .dwattr $C$DW$251, DW_AT_accessibility(DW_ACCESS_public)
    2820              $C$DW$252       .dwtag  DW_TAG_member
    2821                      .dwattr $C$DW$252, DW_AT_type(*$C$DW$T$19)
    2822                      .dwattr $C$DW$252, DW_AT_name("rsvd4")
    2823                      .dwattr $C$DW$252, DW_AT_TI_symbol_name("_rsvd4")
    2824                      .dwattr $C$DW$252, DW_AT_bit_offset(0x0c), DW_AT_bit_size(0x01)
    2825                      .dwattr $C$DW$252, DW_AT_data_member_location[DW_OP_plus_uconst 0x0]
    2826                      .dwattr $C$DW$252, DW_AT_accessibility(DW_ACCESS_public)
    2827              $C$DW$253       .dwtag  DW_TAG_member
    2828                      .dwattr $C$DW$253, DW_AT_type(*$C$DW$T$19)
    2829                      .dwattr $C$DW$253, DW_AT_name("rsvd5")
    2830                      .dwattr $C$DW$253, DW_AT_TI_symbol_name("_rsvd5")
    2831                      .dwattr $C$DW$253, DW_AT_bit_offset(0x0b), DW_AT_bit_size(0x01)
    2832                      .dwattr $C$DW$253, DW_AT_data_member_location[DW_OP_plus_uconst 0x0]
    2833                      .dwattr $C$DW$253, DW_AT_accessibility(DW_ACCESS_public)
    2834              $C$DW$254       .dwtag  DW_TAG_member
    2835                      .dwattr $C$DW$254, DW_AT_type(*$C$DW$T$19)
    2836                      .dwattr $C$DW$254, DW_AT_name("rsvd6")
    2837                      .dwattr $C$DW$254, DW_AT_TI_symbol_name("_rsvd6")
    2838                      .dwattr $C$DW$254, DW_AT_bit_offset(0x0a), DW_AT_bit_size(0x01)
    2839                      .dwattr $C$DW$254, DW_AT_data_member_location[DW_OP_plus_uconst 0x0]
    2840                      .dwattr $C$DW$254, DW_AT_accessibility(DW_ACCESS_public)
    2841              $C$DW$255       .dwtag  DW_TAG_member
    2842                      .dwattr $C$DW$255, DW_AT_type(*$C$DW$T$19)
    2843                      .dwattr $C$DW$255, DW_AT_name("rsvd7")
    2844                      .dwattr $C$DW$255, DW_AT_TI_symbol_name("_rsvd7")
    2845                      .dwattr $C$DW$255, DW_AT_bit_offset(0x09), DW_AT_bit_size(0x01)
TMS320C2000 Assembler PC v6.4.2 Thu Dec 14 13:37:25 2017

Tools Copyright (c) 1996-2015 Texas Instruments Incorporated
F2837xS_Gpio.asm                                                     PAGE   54

    2846                      .dwattr $C$DW$255, DW_AT_data_member_location[DW_OP_plus_uconst 0x0]
    2847                      .dwattr $C$DW$255, DW_AT_accessibility(DW_ACCESS_public)
    2848              $C$DW$256       .dwtag  DW_TAG_member
    2849                      .dwattr $C$DW$256, DW_AT_type(*$C$DW$T$19)
    2850                      .dwattr $C$DW$256, DW_AT_name("rsvd8")
    2851                      .dwattr $C$DW$256, DW_AT_TI_symbol_name("_rsvd8")
    2852                      .dwattr $C$DW$256, DW_AT_bit_offset(0x08), DW_AT_bit_size(0x01)
    2853                      .dwattr $C$DW$256, DW_AT_data_member_location[DW_OP_plus_uconst 0x0]
    2854                      .dwattr $C$DW$256, DW_AT_accessibility(DW_ACCESS_public)
    2855              $C$DW$257       .dwtag  DW_TAG_member
    2856                      .dwattr $C$DW$257, DW_AT_type(*$C$DW$T$19)
    2857                      .dwattr $C$DW$257, DW_AT_name("rsvd9")
    2858                      .dwattr $C$DW$257, DW_AT_TI_symbol_name("_rsvd9")
    2859                      .dwattr $C$DW$257, DW_AT_bit_offset(0x00), DW_AT_bit_size(0x08)
    2860                      .dwattr $C$DW$257, DW_AT_data_member_location[DW_OP_plus_uconst 0x0]
    2861                      .dwattr $C$DW$257, DW_AT_accessibility(DW_ACCESS_public)
    2862              $C$DW$258       .dwtag  DW_TAG_member
    2863                      .dwattr $C$DW$258, DW_AT_type(*$C$DW$T$19)
    2864                      .dwattr $C$DW$258, DW_AT_name("rsvd10")
    2865                      .dwattr $C$DW$258, DW_AT_TI_symbol_name("_rsvd10")
    2866                      .dwattr $C$DW$258, DW_AT_bit_offset(0x00), DW_AT_bit_size(0x10)
    2867                      .dwattr $C$DW$258, DW_AT_data_member_location[DW_OP_plus_uconst 0x1]
    2868                      .dwattr $C$DW$258, DW_AT_accessibility(DW_ACCESS_public)
    2869                      .dwendtag $C$DW$T$51
    2870              
    2871              
    2872              $C$DW$T$52      .dwtag  DW_TAG_union_type
    2873                      .dwattr $C$DW$T$52, DW_AT_name("DC6_REG")
    2874                      .dwattr $C$DW$T$52, DW_AT_byte_size(0x02)
    2875              $C$DW$259       .dwtag  DW_TAG_member
    2876                      .dwattr $C$DW$259, DW_AT_type(*$C$DW$T$21)
    2877                      .dwattr $C$DW$259, DW_AT_name("all")
    2878                      .dwattr $C$DW$259, DW_AT_TI_symbol_name("_all")
    2879                      .dwattr $C$DW$259, DW_AT_data_member_location[DW_OP_plus_uconst 0x0]
    2880                      .dwattr $C$DW$259, DW_AT_accessibility(DW_ACCESS_public)
    2881              $C$DW$260       .dwtag  DW_TAG_member
    2882                      .dwattr $C$DW$260, DW_AT_type(*$C$DW$T$51)
    2883                      .dwattr $C$DW$260, DW_AT_name("bit")
    2884                      .dwattr $C$DW$260, DW_AT_TI_symbol_name("_bit")
    2885                      .dwattr $C$DW$260, DW_AT_data_member_location[DW_OP_plus_uconst 0x0]
    2886                      .dwattr $C$DW$260, DW_AT_accessibility(DW_ACCESS_public)
    2887                      .dwendtag $C$DW$T$52
    2888              
    2889              
    2890              $C$DW$T$53      .dwtag  DW_TAG_structure_type
    2891                      .dwattr $C$DW$T$53, DW_AT_name("DC7_BITS")
    2892                      .dwattr $C$DW$T$53, DW_AT_byte_size(0x02)
    2893              $C$DW$261       .dwtag  DW_TAG_member
    2894                      .dwattr $C$DW$261, DW_AT_type(*$C$DW$T$19)
    2895                      .dwattr $C$DW$261, DW_AT_name("SD1")
    2896                      .dwattr $C$DW$261, DW_AT_TI_symbol_name("_SD1")
    2897                      .dwattr $C$DW$261, DW_AT_bit_offset(0x0f), DW_AT_bit_size(0x01)
    2898                      .dwattr $C$DW$261, DW_AT_data_member_location[DW_OP_plus_uconst 0x0]
    2899                      .dwattr $C$DW$261, DW_AT_accessibility(DW_ACCESS_public)
    2900              $C$DW$262       .dwtag  DW_TAG_member
TMS320C2000 Assembler PC v6.4.2 Thu Dec 14 13:37:25 2017

Tools Copyright (c) 1996-2015 Texas Instruments Incorporated
F2837xS_Gpio.asm                                                     PAGE   55

    2901                      .dwattr $C$DW$262, DW_AT_type(*$C$DW$T$19)
    2902                      .dwattr $C$DW$262, DW_AT_name("SD2")
    2903                      .dwattr $C$DW$262, DW_AT_TI_symbol_name("_SD2")
    2904                      .dwattr $C$DW$262, DW_AT_bit_offset(0x0e), DW_AT_bit_size(0x01)
    2905                      .dwattr $C$DW$262, DW_AT_data_member_location[DW_OP_plus_uconst 0x0]
    2906                      .dwattr $C$DW$262, DW_AT_accessibility(DW_ACCESS_public)
    2907              $C$DW$263       .dwtag  DW_TAG_member
    2908                      .dwattr $C$DW$263, DW_AT_type(*$C$DW$T$19)
    2909                      .dwattr $C$DW$263, DW_AT_name("rsvd1")
    2910                      .dwattr $C$DW$263, DW_AT_TI_symbol_name("_rsvd1")
    2911                      .dwattr $C$DW$263, DW_AT_bit_offset(0x0d), DW_AT_bit_size(0x01)
    2912                      .dwattr $C$DW$263, DW_AT_data_member_location[DW_OP_plus_uconst 0x0]
    2913                      .dwattr $C$DW$263, DW_AT_accessibility(DW_ACCESS_public)
    2914              $C$DW$264       .dwtag  DW_TAG_member
    2915                      .dwattr $C$DW$264, DW_AT_type(*$C$DW$T$19)
    2916                      .dwattr $C$DW$264, DW_AT_name("rsvd2")
    2917                      .dwattr $C$DW$264, DW_AT_TI_symbol_name("_rsvd2")
    2918                      .dwattr $C$DW$264, DW_AT_bit_offset(0x0c), DW_AT_bit_size(0x01)
    2919                      .dwattr $C$DW$264, DW_AT_data_member_location[DW_OP_plus_uconst 0x0]
    2920                      .dwattr $C$DW$264, DW_AT_accessibility(DW_ACCESS_public)
    2921              $C$DW$265       .dwtag  DW_TAG_member
    2922                      .dwattr $C$DW$265, DW_AT_type(*$C$DW$T$19)
    2923                      .dwattr $C$DW$265, DW_AT_name("rsvd3")
    2924                      .dwattr $C$DW$265, DW_AT_TI_symbol_name("_rsvd3")
    2925                      .dwattr $C$DW$265, DW_AT_bit_offset(0x0b), DW_AT_bit_size(0x01)
    2926                      .dwattr $C$DW$265, DW_AT_data_member_location[DW_OP_plus_uconst 0x0]
    2927                      .dwattr $C$DW$265, DW_AT_accessibility(DW_ACCESS_public)
    2928              $C$DW$266       .dwtag  DW_TAG_member
    2929                      .dwattr $C$DW$266, DW_AT_type(*$C$DW$T$19)
    2930                      .dwattr $C$DW$266, DW_AT_name("rsvd4")
    2931                      .dwattr $C$DW$266, DW_AT_TI_symbol_name("_rsvd4")
    2932                      .dwattr $C$DW$266, DW_AT_bit_offset(0x0a), DW_AT_bit_size(0x01)
    2933                      .dwattr $C$DW$266, DW_AT_data_member_location[DW_OP_plus_uconst 0x0]
    2934                      .dwattr $C$DW$266, DW_AT_accessibility(DW_ACCESS_public)
    2935              $C$DW$267       .dwtag  DW_TAG_member
    2936                      .dwattr $C$DW$267, DW_AT_type(*$C$DW$T$19)
    2937                      .dwattr $C$DW$267, DW_AT_name("rsvd5")
    2938                      .dwattr $C$DW$267, DW_AT_TI_symbol_name("_rsvd5")
    2939                      .dwattr $C$DW$267, DW_AT_bit_offset(0x09), DW_AT_bit_size(0x01)
    2940                      .dwattr $C$DW$267, DW_AT_data_member_location[DW_OP_plus_uconst 0x0]
    2941                      .dwattr $C$DW$267, DW_AT_accessibility(DW_ACCESS_public)
    2942              $C$DW$268       .dwtag  DW_TAG_member
    2943                      .dwattr $C$DW$268, DW_AT_type(*$C$DW$T$19)
    2944                      .dwattr $C$DW$268, DW_AT_name("rsvd6")
    2945                      .dwattr $C$DW$268, DW_AT_TI_symbol_name("_rsvd6")
    2946                      .dwattr $C$DW$268, DW_AT_bit_offset(0x08), DW_AT_bit_size(0x01)
    2947                      .dwattr $C$DW$268, DW_AT_data_member_location[DW_OP_plus_uconst 0x0]
    2948                      .dwattr $C$DW$268, DW_AT_accessibility(DW_ACCESS_public)
    2949              $C$DW$269       .dwtag  DW_TAG_member
    2950                      .dwattr $C$DW$269, DW_AT_type(*$C$DW$T$19)
    2951                      .dwattr $C$DW$269, DW_AT_name("rsvd7")
    2952                      .dwattr $C$DW$269, DW_AT_TI_symbol_name("_rsvd7")
    2953                      .dwattr $C$DW$269, DW_AT_bit_offset(0x00), DW_AT_bit_size(0x08)
    2954                      .dwattr $C$DW$269, DW_AT_data_member_location[DW_OP_plus_uconst 0x0]
    2955                      .dwattr $C$DW$269, DW_AT_accessibility(DW_ACCESS_public)
TMS320C2000 Assembler PC v6.4.2 Thu Dec 14 13:37:25 2017

Tools Copyright (c) 1996-2015 Texas Instruments Incorporated
F2837xS_Gpio.asm                                                     PAGE   56

    2956              $C$DW$270       .dwtag  DW_TAG_member
    2957                      .dwattr $C$DW$270, DW_AT_type(*$C$DW$T$19)
    2958                      .dwattr $C$DW$270, DW_AT_name("rsvd8")
    2959                      .dwattr $C$DW$270, DW_AT_TI_symbol_name("_rsvd8")
    2960                      .dwattr $C$DW$270, DW_AT_bit_offset(0x00), DW_AT_bit_size(0x10)
    2961                      .dwattr $C$DW$270, DW_AT_data_member_location[DW_OP_plus_uconst 0x1]
    2962                      .dwattr $C$DW$270, DW_AT_accessibility(DW_ACCESS_public)
    2963                      .dwendtag $C$DW$T$53
    2964              
    2965              
    2966              $C$DW$T$54      .dwtag  DW_TAG_union_type
    2967                      .dwattr $C$DW$T$54, DW_AT_name("DC7_REG")
    2968                      .dwattr $C$DW$T$54, DW_AT_byte_size(0x02)
    2969              $C$DW$271       .dwtag  DW_TAG_member
    2970                      .dwattr $C$DW$271, DW_AT_type(*$C$DW$T$21)
    2971                      .dwattr $C$DW$271, DW_AT_name("all")
    2972                      .dwattr $C$DW$271, DW_AT_TI_symbol_name("_all")
    2973                      .dwattr $C$DW$271, DW_AT_data_member_location[DW_OP_plus_uconst 0x0]
    2974                      .dwattr $C$DW$271, DW_AT_accessibility(DW_ACCESS_public)
    2975              $C$DW$272       .dwtag  DW_TAG_member
    2976                      .dwattr $C$DW$272, DW_AT_type(*$C$DW$T$53)
    2977                      .dwattr $C$DW$272, DW_AT_name("bit")
    2978                      .dwattr $C$DW$272, DW_AT_TI_symbol_name("_bit")
    2979                      .dwattr $C$DW$272, DW_AT_data_member_location[DW_OP_plus_uconst 0x0]
    2980                      .dwattr $C$DW$272, DW_AT_accessibility(DW_ACCESS_public)
    2981                      .dwendtag $C$DW$T$54
    2982              
    2983              
    2984              $C$DW$T$55      .dwtag  DW_TAG_structure_type
    2985                      .dwattr $C$DW$T$55, DW_AT_name("DC8_BITS")
    2986                      .dwattr $C$DW$T$55, DW_AT_byte_size(0x02)
    2987              $C$DW$273       .dwtag  DW_TAG_member
    2988                      .dwattr $C$DW$273, DW_AT_type(*$C$DW$T$19)
    2989                      .dwattr $C$DW$273, DW_AT_name("SCI_A")
    2990                      .dwattr $C$DW$273, DW_AT_TI_symbol_name("_SCI_A")
    2991                      .dwattr $C$DW$273, DW_AT_bit_offset(0x0f), DW_AT_bit_size(0x01)
    2992                      .dwattr $C$DW$273, DW_AT_data_member_location[DW_OP_plus_uconst 0x0]
    2993                      .dwattr $C$DW$273, DW_AT_accessibility(DW_ACCESS_public)
    2994              $C$DW$274       .dwtag  DW_TAG_member
    2995                      .dwattr $C$DW$274, DW_AT_type(*$C$DW$T$19)
    2996                      .dwattr $C$DW$274, DW_AT_name("SCI_B")
    2997                      .dwattr $C$DW$274, DW_AT_TI_symbol_name("_SCI_B")
    2998                      .dwattr $C$DW$274, DW_AT_bit_offset(0x0e), DW_AT_bit_size(0x01)
    2999                      .dwattr $C$DW$274, DW_AT_data_member_location[DW_OP_plus_uconst 0x0]
    3000                      .dwattr $C$DW$274, DW_AT_accessibility(DW_ACCESS_public)
    3001              $C$DW$275       .dwtag  DW_TAG_member
    3002                      .dwattr $C$DW$275, DW_AT_type(*$C$DW$T$19)
    3003                      .dwattr $C$DW$275, DW_AT_name("SCI_C")
    3004                      .dwattr $C$DW$275, DW_AT_TI_symbol_name("_SCI_C")
    3005                      .dwattr $C$DW$275, DW_AT_bit_offset(0x0d), DW_AT_bit_size(0x01)
    3006                      .dwattr $C$DW$275, DW_AT_data_member_location[DW_OP_plus_uconst 0x0]
    3007                      .dwattr $C$DW$275, DW_AT_accessibility(DW_ACCESS_public)
    3008              $C$DW$276       .dwtag  DW_TAG_member
    3009                      .dwattr $C$DW$276, DW_AT_type(*$C$DW$T$19)
    3010                      .dwattr $C$DW$276, DW_AT_name("SCI_D")
TMS320C2000 Assembler PC v6.4.2 Thu Dec 14 13:37:25 2017

Tools Copyright (c) 1996-2015 Texas Instruments Incorporated
F2837xS_Gpio.asm                                                     PAGE   57

    3011                      .dwattr $C$DW$276, DW_AT_TI_symbol_name("_SCI_D")
    3012                      .dwattr $C$DW$276, DW_AT_bit_offset(0x0c), DW_AT_bit_size(0x01)
    3013                      .dwattr $C$DW$276, DW_AT_data_member_location[DW_OP_plus_uconst 0x0]
    3014                      .dwattr $C$DW$276, DW_AT_accessibility(DW_ACCESS_public)
    3015              $C$DW$277       .dwtag  DW_TAG_member
    3016                      .dwattr $C$DW$277, DW_AT_type(*$C$DW$T$19)
    3017                      .dwattr $C$DW$277, DW_AT_name("rsvd1")
    3018                      .dwattr $C$DW$277, DW_AT_TI_symbol_name("_rsvd1")
    3019                      .dwattr $C$DW$277, DW_AT_bit_offset(0x00), DW_AT_bit_size(0x0c)
    3020                      .dwattr $C$DW$277, DW_AT_data_member_location[DW_OP_plus_uconst 0x0]
    3021                      .dwattr $C$DW$277, DW_AT_accessibility(DW_ACCESS_public)
    3022              $C$DW$278       .dwtag  DW_TAG_member
    3023                      .dwattr $C$DW$278, DW_AT_type(*$C$DW$T$19)
    3024                      .dwattr $C$DW$278, DW_AT_name("rsvd2")
    3025                      .dwattr $C$DW$278, DW_AT_TI_symbol_name("_rsvd2")
    3026                      .dwattr $C$DW$278, DW_AT_bit_offset(0x00), DW_AT_bit_size(0x10)
    3027                      .dwattr $C$DW$278, DW_AT_data_member_location[DW_OP_plus_uconst 0x1]
    3028                      .dwattr $C$DW$278, DW_AT_accessibility(DW_ACCESS_public)
    3029                      .dwendtag $C$DW$T$55
    3030              
    3031              
    3032              $C$DW$T$56      .dwtag  DW_TAG_union_type
    3033                      .dwattr $C$DW$T$56, DW_AT_name("DC8_REG")
    3034                      .dwattr $C$DW$T$56, DW_AT_byte_size(0x02)
    3035              $C$DW$279       .dwtag  DW_TAG_member
    3036                      .dwattr $C$DW$279, DW_AT_type(*$C$DW$T$21)
    3037                      .dwattr $C$DW$279, DW_AT_name("all")
    3038                      .dwattr $C$DW$279, DW_AT_TI_symbol_name("_all")
    3039                      .dwattr $C$DW$279, DW_AT_data_member_location[DW_OP_plus_uconst 0x0]
    3040                      .dwattr $C$DW$279, DW_AT_accessibility(DW_ACCESS_public)
    3041              $C$DW$280       .dwtag  DW_TAG_member
    3042                      .dwattr $C$DW$280, DW_AT_type(*$C$DW$T$55)
    3043                      .dwattr $C$DW$280, DW_AT_name("bit")
    3044                      .dwattr $C$DW$280, DW_AT_TI_symbol_name("_bit")
    3045                      .dwattr $C$DW$280, DW_AT_data_member_location[DW_OP_plus_uconst 0x0]
    3046                      .dwattr $C$DW$280, DW_AT_accessibility(DW_ACCESS_public)
    3047                      .dwendtag $C$DW$T$56
    3048              
    3049              
    3050              $C$DW$T$57      .dwtag  DW_TAG_structure_type
    3051                      .dwattr $C$DW$T$57, DW_AT_name("DC9_BITS")
    3052                      .dwattr $C$DW$T$57, DW_AT_byte_size(0x02)
    3053              $C$DW$281       .dwtag  DW_TAG_member
    3054                      .dwattr $C$DW$281, DW_AT_type(*$C$DW$T$19)
    3055                      .dwattr $C$DW$281, DW_AT_name("SPI_A")
    3056                      .dwattr $C$DW$281, DW_AT_TI_symbol_name("_SPI_A")
    3057                      .dwattr $C$DW$281, DW_AT_bit_offset(0x0f), DW_AT_bit_size(0x01)
    3058                      .dwattr $C$DW$281, DW_AT_data_member_location[DW_OP_plus_uconst 0x0]
    3059                      .dwattr $C$DW$281, DW_AT_accessibility(DW_ACCESS_public)
    3060              $C$DW$282       .dwtag  DW_TAG_member
    3061                      .dwattr $C$DW$282, DW_AT_type(*$C$DW$T$19)
    3062                      .dwattr $C$DW$282, DW_AT_name("SPI_B")
    3063                      .dwattr $C$DW$282, DW_AT_TI_symbol_name("_SPI_B")
    3064                      .dwattr $C$DW$282, DW_AT_bit_offset(0x0e), DW_AT_bit_size(0x01)
    3065                      .dwattr $C$DW$282, DW_AT_data_member_location[DW_OP_plus_uconst 0x0]
TMS320C2000 Assembler PC v6.4.2 Thu Dec 14 13:37:25 2017

Tools Copyright (c) 1996-2015 Texas Instruments Incorporated
F2837xS_Gpio.asm                                                     PAGE   58

    3066                      .dwattr $C$DW$282, DW_AT_accessibility(DW_ACCESS_public)
    3067              $C$DW$283       .dwtag  DW_TAG_member
    3068                      .dwattr $C$DW$283, DW_AT_type(*$C$DW$T$19)
    3069                      .dwattr $C$DW$283, DW_AT_name("SPI_C")
    3070                      .dwattr $C$DW$283, DW_AT_TI_symbol_name("_SPI_C")
    3071                      .dwattr $C$DW$283, DW_AT_bit_offset(0x0d), DW_AT_bit_size(0x01)
    3072                      .dwattr $C$DW$283, DW_AT_data_member_location[DW_OP_plus_uconst 0x0]
    3073                      .dwattr $C$DW$283, DW_AT_accessibility(DW_ACCESS_public)
    3074              $C$DW$284       .dwtag  DW_TAG_member
    3075                      .dwattr $C$DW$284, DW_AT_type(*$C$DW$T$19)
    3076                      .dwattr $C$DW$284, DW_AT_name("rsvd1")
    3077                      .dwattr $C$DW$284, DW_AT_TI_symbol_name("_rsvd1")
    3078                      .dwattr $C$DW$284, DW_AT_bit_offset(0x0c), DW_AT_bit_size(0x01)
    3079                      .dwattr $C$DW$284, DW_AT_data_member_location[DW_OP_plus_uconst 0x0]
    3080                      .dwattr $C$DW$284, DW_AT_accessibility(DW_ACCESS_public)
    3081              $C$DW$285       .dwtag  DW_TAG_member
    3082                      .dwattr $C$DW$285, DW_AT_type(*$C$DW$T$19)
    3083                      .dwattr $C$DW$285, DW_AT_name("rsvd2")
