TMS320C2000 Assembler PC v6.4.2 Thu Dec 14 15:26:44 2017

Tools Copyright (c) 1996-2015 Texas Instruments Incorporated
F2837xS_SysCtrl.asm                                                  PAGE    1

       1              ;***************************************************************
       2              ;* TMS320C2000 C/C++ Codegen                         PC v6.4.2 *
       3              ;* Date/Time created: Thu Dec 14 15:26:43 2017                 *
       4              ;***************************************************************
       5                      .compiler_opts --cla_support=cla0 --float_support=fpu32 --hll_source=on --mem_model:code=flat --mem_m
       6        0002  FP      .set    XAR2
       7              
       8              $C$DW$CU        .dwtag  DW_TAG_compile_unit
       9                      .dwattr $C$DW$CU, DW_AT_name("C:/ti/controlSUITE/device_support/F2837xS/v170/F2837xS_common/source/F2
      10                      .dwattr $C$DW$CU, DW_AT_producer("TI TMS320C2000 C/C++ Codegen PC v6.4.2 Copyright (c) 1996-2015 Texa
      11                      .dwattr $C$DW$CU, DW_AT_TI_version(0x01)
      12                      .dwattr $C$DW$CU, DW_AT_comp_dir("U:\02_MSE\MT\07_Software\CCS_workspace\DiffDrive_v0.93\F2837x_FLASH
      13              
      14              $C$DW$1 .dwtag  DW_TAG_subprogram, DW_AT_name("F28x_usDelay")
      15                      .dwattr $C$DW$1, DW_AT_TI_symbol_name("_F28x_usDelay")
      16                      .dwattr $C$DW$1, DW_AT_declaration
      17                      .dwattr $C$DW$1, DW_AT_external
      18              $C$DW$2 .dwtag  DW_TAG_formal_parameter
      19                      .dwattr $C$DW$2, DW_AT_type(*$C$DW$T$12)
      20                      .dwendtag $C$DW$1
      21              
      22              
      23              $C$DW$3 .dwtag  DW_TAG_subprogram, DW_AT_name("GPIO_EnableUnbondedIOPullups")
      24                      .dwattr $C$DW$3, DW_AT_TI_symbol_name("_GPIO_EnableUnbondedIOPullups")
      25                      .dwattr $C$DW$3, DW_AT_declaration
      26                      .dwattr $C$DW$3, DW_AT_external
      27              $C$DW$4 .dwtag  DW_TAG_variable, DW_AT_name("RamfuncsRunStart")
      28                      .dwattr $C$DW$4, DW_AT_TI_symbol_name("_RamfuncsRunStart")
      29                      .dwattr $C$DW$4, DW_AT_type(*$C$DW$T$19)
      30                      .dwattr $C$DW$4, DW_AT_declaration
      31                      .dwattr $C$DW$4, DW_AT_external
      32              $C$DW$5 .dwtag  DW_TAG_variable, DW_AT_name("RamfuncsLoadStart")
      33                      .dwattr $C$DW$5, DW_AT_TI_symbol_name("_RamfuncsLoadStart")
      34                      .dwattr $C$DW$5, DW_AT_type(*$C$DW$T$19)
      35                      .dwattr $C$DW$5, DW_AT_declaration
      36                      .dwattr $C$DW$5, DW_AT_external
      37              $C$DW$6 .dwtag  DW_TAG_variable, DW_AT_name("RamfuncsLoadSize")
      38                      .dwattr $C$DW$6, DW_AT_TI_symbol_name("_RamfuncsLoadSize")
      39                      .dwattr $C$DW$6, DW_AT_type(*$C$DW$T$19)
      40                      .dwattr $C$DW$6, DW_AT_declaration
      41                      .dwattr $C$DW$6, DW_AT_external
      42              
      43              $C$DW$7 .dwtag  DW_TAG_subprogram, DW_AT_name("memcpy")
      44                      .dwattr $C$DW$7, DW_AT_TI_symbol_name("_memcpy")
      45                      .dwattr $C$DW$7, DW_AT_type(*$C$DW$T$3)
      46                      .dwattr $C$DW$7, DW_AT_declaration
      47                      .dwattr $C$DW$7, DW_AT_external
      48              $C$DW$8 .dwtag  DW_TAG_formal_parameter
      49                      .dwattr $C$DW$8, DW_AT_type(*$C$DW$T$3)
      50              $C$DW$9 .dwtag  DW_TAG_formal_parameter
      51                      .dwattr $C$DW$9, DW_AT_type(*$C$DW$T$302)
      52              $C$DW$10        .dwtag  DW_TAG_formal_parameter
      53                      .dwattr $C$DW$10, DW_AT_type(*$C$DW$T$13)
      54                      .dwendtag $C$DW$7
      55              
TMS320C2000 Assembler PC v6.4.2 Thu Dec 14 15:26:44 2017

Tools Copyright (c) 1996-2015 Texas Instruments Incorporated
F2837xS_SysCtrl.asm                                                  PAGE    2

      56              $C$DW$11        .dwtag  DW_TAG_variable, DW_AT_name("DcsmZ1Regs")
      57                      .dwattr $C$DW$11, DW_AT_TI_symbol_name("_DcsmZ1Regs")
      58                      .dwattr $C$DW$11, DW_AT_type(*$C$DW$T$243)
      59                      .dwattr $C$DW$11, DW_AT_declaration
      60                      .dwattr $C$DW$11, DW_AT_external
      61              $C$DW$12        .dwtag  DW_TAG_variable, DW_AT_name("DcsmZ2Regs")
      62                      .dwattr $C$DW$12, DW_AT_TI_symbol_name("_DcsmZ2Regs")
      63                      .dwattr $C$DW$12, DW_AT_type(*$C$DW$T$244)
      64                      .dwattr $C$DW$12, DW_AT_declaration
      65                      .dwattr $C$DW$12, DW_AT_external
      66              $C$DW$13        .dwtag  DW_TAG_variable, DW_AT_name("Flash0EccRegs")
      67                      .dwattr $C$DW$13, DW_AT_TI_symbol_name("_Flash0EccRegs")
      68                      .dwattr $C$DW$13, DW_AT_type(*$C$DW$T$250)
      69                      .dwattr $C$DW$13, DW_AT_declaration
      70                      .dwattr $C$DW$13, DW_AT_external
      71              $C$DW$14        .dwtag  DW_TAG_variable, DW_AT_name("Flash1EccRegs")
      72                      .dwattr $C$DW$14, DW_AT_TI_symbol_name("_Flash1EccRegs")
      73                      .dwattr $C$DW$14, DW_AT_type(*$C$DW$T$250)
      74                      .dwattr $C$DW$14, DW_AT_declaration
      75                      .dwattr $C$DW$14, DW_AT_external
      76              $C$DW$15        .dwtag  DW_TAG_variable, DW_AT_name("WdRegs")
      77                      .dwattr $C$DW$15, DW_AT_TI_symbol_name("_WdRegs")
      78                      .dwattr $C$DW$15, DW_AT_type(*$C$DW$T$300)
      79                      .dwattr $C$DW$15, DW_AT_declaration
      80                      .dwattr $C$DW$15, DW_AT_external
      81              $C$DW$16        .dwtag  DW_TAG_variable, DW_AT_name("ClkCfgRegs")
      82                      .dwattr $C$DW$16, DW_AT_TI_symbol_name("_ClkCfgRegs")
      83                      .dwattr $C$DW$16, DW_AT_type(*$C$DW$T$241)
      84                      .dwattr $C$DW$16, DW_AT_declaration
      85                      .dwattr $C$DW$16, DW_AT_external
      86              $C$DW$17        .dwtag  DW_TAG_variable, DW_AT_name("AnalogSubsysRegs")
      87                      .dwattr $C$DW$17, DW_AT_TI_symbol_name("_AnalogSubsysRegs")
      88                      .dwattr $C$DW$17, DW_AT_type(*$C$DW$T$224)
      89                      .dwattr $C$DW$17, DW_AT_declaration
      90                      .dwattr $C$DW$17, DW_AT_external
      91              $C$DW$18        .dwtag  DW_TAG_variable, DW_AT_name("CpuSysRegs")
      92                      .dwattr $C$DW$18, DW_AT_TI_symbol_name("_CpuSysRegs")
      93                      .dwattr $C$DW$18, DW_AT_type(*$C$DW$T$242)
      94                      .dwattr $C$DW$18, DW_AT_declaration
      95                      .dwattr $C$DW$18, DW_AT_external
      96              $C$DW$19        .dwtag  DW_TAG_variable, DW_AT_name("Flash1CtrlRegs")
      97                      .dwattr $C$DW$19, DW_AT_TI_symbol_name("_Flash1CtrlRegs")
      98                      .dwattr $C$DW$19, DW_AT_type(*$C$DW$T$249)
      99                      .dwattr $C$DW$19, DW_AT_declaration
     100                      .dwattr $C$DW$19, DW_AT_external
     101              $C$DW$20        .dwtag  DW_TAG_variable, DW_AT_name("Flash0CtrlRegs")
     102                      .dwattr $C$DW$20, DW_AT_TI_symbol_name("_Flash0CtrlRegs")
     103                      .dwattr $C$DW$20, DW_AT_type(*$C$DW$T$249)
     104                      .dwattr $C$DW$20, DW_AT_declaration
     105                      .dwattr $C$DW$20, DW_AT_external
     106              ;       C:\ti\ccsv6\tools\compiler\ti-cgt-c2000_6.4.2\bin\ac2000.exe -@C:\\Users\\ficm\\AppData\\Local\\Temp\
     107 00000000               .sect   ".text"
     108                      .clink
     109                      .global _InitSysCtrl
     110              
TMS320C2000 Assembler PC v6.4.2 Thu Dec 14 15:26:44 2017

Tools Copyright (c) 1996-2015 Texas Instruments Incorporated
F2837xS_SysCtrl.asm                                                  PAGE    3

     111              $C$DW$21        .dwtag  DW_TAG_subprogram, DW_AT_name("InitSysCtrl")
     112                      .dwattr $C$DW$21, DW_AT_low_pc(_InitSysCtrl)
     113                      .dwattr $C$DW$21, DW_AT_high_pc(0x00)
     114                      .dwattr $C$DW$21, DW_AT_TI_symbol_name("_InitSysCtrl")
     115                      .dwattr $C$DW$21, DW_AT_external
     116                      .dwattr $C$DW$21, DW_AT_TI_begin_file("C:/ti/controlSUITE/device_support/F2837xS/v170/F2837xS_common/
     117                      .dwattr $C$DW$21, DW_AT_TI_begin_line(0x21)
     118                      .dwattr $C$DW$21, DW_AT_TI_begin_column(0x06)
     119                      .dwattr $C$DW$21, DW_AT_TI_max_frame_size(-2)
     120                      .dwpsn  file "C:/ti/controlSUITE/device_support/F2837xS/v170/F2837xS_common/source/F2837xS_SysCtrl.c"
     121              
     122                      .dwfde $C$DW$CIE, _InitSysCtrl
     123              
     124              ;***************************************************************
     125              ;* FNAME: _InitSysCtrl                  FR SIZE:   0           *
     126              ;*                                                             *
     127              ;* FUNCTION ENVIRONMENT                                        *
     128              ;*                                                             *
     129              ;* FUNCTION PROPERTIES                                         *
     130              ;*                            0 Parameter,  0 Auto,  0 SOE     *
     131              ;***************************************************************
     132              
     133 00000000       _InitSysCtrl:
     134                      .dwcfi  cfa_offset, -2
     135                      .dwcfi  save_reg_to_mem, 26, 0
     136                      .dwpsn  file "C:/ti/controlSUITE/device_support/F2837xS/v170/F2837xS_common/source/F2837xS_SysCtrl.c"
     137              $C$DW$22        .dwtag  DW_TAG_TI_branch
     138                      .dwattr $C$DW$22, DW_AT_low_pc(0x00)
     139                      .dwattr $C$DW$22, DW_AT_name("_DisableDog")
     140                      .dwattr $C$DW$22, DW_AT_TI_call
     141 00000000 7640'         LCR       #_DisableDog          ; [CPU_] |36| 
         00000001 00E7 
     142                      ; call occurs [#_DisableDog] ; [] |36| 
     143                      .dwpsn  file "C:/ti/controlSUITE/device_support/F2837xS/v170/F2837xS_common/source/F2837xS_SysCtrl.c"
     144 00000002 8F00!         MOVL      XAR4,#_RamfuncsRunStart ; [CPU_U] |43| 
         00000003 0000 
     145 00000004 8F40!         MOVL      XAR5,#_RamfuncsLoadStart ; [CPU_U] |43| 
         00000005 0000 
     146 00000006 28A9!         MOV       AL,#_RamfuncsLoadSize+0 ; [CPU_] |43| 
         00000007 0000 
     147 00000008 28A8%         MOV       AH,#_RamfuncsLoadSize+0 >> 16 ; [CPU_] |43| 
         00000009 0000 
     148              $C$DW$23        .dwtag  DW_TAG_TI_branch
     149                      .dwattr $C$DW$23, DW_AT_low_pc(0x00)
     150                      .dwattr $C$DW$23, DW_AT_name("_memcpy")
     151                      .dwattr $C$DW$23, DW_AT_TI_call
     152 0000000a 7640!         LCR       #_memcpy              ; [CPU_] |43| 
         0000000b 0000 
     153                      ; call occurs [#_memcpy] ; [] |43| 
     154                      .dwpsn  file "C:/ti/controlSUITE/device_support/F2837xS/v170/F2837xS_common/source/F2837xS_SysCtrl.c"
     155              $C$DW$24        .dwtag  DW_TAG_TI_branch
     156                      .dwattr $C$DW$24, DW_AT_low_pc(0x00)
     157                      .dwattr $C$DW$24, DW_AT_name("_InitFlash_Bank0")
     158                      .dwattr $C$DW$24, DW_AT_TI_call
     159 0000000c 7640+         LCR       #_InitFlash_Bank0     ; [CPU_] |47| 
TMS320C2000 Assembler PC v6.4.2 Thu Dec 14 15:26:44 2017

Tools Copyright (c) 1996-2015 Texas Instruments Incorporated
F2837xS_SysCtrl.asm                                                  PAGE    4

         0000000d 0000 
     160                      ; call occurs [#_InitFlash_Bank0] ; [] |47| 
     161                      .dwpsn  file "C:/ti/controlSUITE/device_support/F2837xS/v170/F2837xS_common/source/F2837xS_SysCtrl.c"
     162 0000000e 7622   EALLOW
     163                      .dwpsn  file "C:/ti/controlSUITE/device_support/F2837xS/v170/F2837xS_common/source/F2837xS_SysCtrl.c"
     164 0000000f FF69          SPM       #0                    ; [CPU_] 
     165              $C$DW$25        .dwtag  DW_TAG_TI_branch
     166                      .dwattr $C$DW$25, DW_AT_low_pc(0x00)
     167                      .dwattr $C$DW$25, DW_AT_name("_GPIO_EnableUnbondedIOPullups")
     168                      .dwattr $C$DW$25, DW_AT_TI_call
     169 00000010 7640!         LCR       #_GPIO_EnableUnbondedIOPullups ; [CPU_] |63| 
         00000011 0000 
     170                      ; call occurs [#_GPIO_EnableUnbondedIOPullups] ; [] |63| 
     171                      .dwpsn  file "C:/ti/controlSUITE/device_support/F2837xS/v170/F2837xS_common/source/F2837xS_SysCtrl.c"
     172 00000012 761F!         MOVW      DP,#_CpuSysRegs+60    ; [CPU_U] 
         00000013 0000 
     173 00000014 1A3C!         OR        @_CpuSysRegs+60,#0x0001 ; [CPU_] |65| 
         00000015 0001 
     174                      .dwpsn  file "C:/ti/controlSUITE/device_support/F2837xS/v170/F2837xS_common/source/F2837xS_SysCtrl.c"
     175 00000016 1A3C!         OR        @_CpuSysRegs+60,#0x0002 ; [CPU_] |66| 
         00000017 0002 
     176                      .dwpsn  file "C:/ti/controlSUITE/device_support/F2837xS/v170/F2837xS_common/source/F2837xS_SysCtrl.c"
     177 00000018 1A3C!         OR        @_CpuSysRegs+60,#0x0004 ; [CPU_] |67| 
         00000019 0004 
     178                      .dwpsn  file "C:/ti/controlSUITE/device_support/F2837xS/v170/F2837xS_common/source/F2837xS_SysCtrl.c"
     179 0000001a 1A3C!         OR        @_CpuSysRegs+60,#0x0008 ; [CPU_] |68| 
         0000001b 0008 
     180                      .dwpsn  file "C:/ti/controlSUITE/device_support/F2837xS/v170/F2837xS_common/source/F2837xS_SysCtrl.c"
     181 0000001c 8F05          MOVL      XAR4,#381366          ; [CPU_U] |71| 
         0000001d D1B6 
     182 0000001e 92C4          MOV       AL,*+XAR4[0]          ; [CPU_] |71| 
     183 0000001f ED09          BF        $C$L1,NEQ             ; [CPU_] |71| 
     184                      ; branchcc occurs ; [] |71| 
     185                      .dwpsn  file "C:/ti/controlSUITE/device_support/F2837xS/v170/F2837xS_common/source/F2837xS_SysCtrl.c"
     186 00000020 8F00          MOVL      XAR4,#31709           ; [CPU_U] |73| 
         00000021 7BDD 
     187 00000022 761F!         MOVW      DP,#_AnalogSubsysRegs+54 ; [CPU_U] 
         00000023 0000 
     188 00000024 A836!         MOVL      @_AnalogSubsysRegs+54,XAR4 ; [CPU_] |73| 
     189                      .dwpsn  file "C:/ti/controlSUITE/device_support/F2837xS/v170/F2837xS_common/source/F2837xS_SysCtrl.c"
     190 00000025 A838!         MOVL      @_AnalogSubsysRegs+56,XAR4 ; [CPU_] |74| 
     191                      .dwpsn  file "C:/ti/controlSUITE/device_support/F2837xS/v170/F2837xS_common/source/F2837xS_SysCtrl.c"
     192 00000026 A83A!         MOVL      @_AnalogSubsysRegs+58,XAR4 ; [CPU_] |75| 
     193                      .dwpsn  file "C:/ti/controlSUITE/device_support/F2837xS/v170/F2837xS_common/source/F2837xS_SysCtrl.c"
     194 00000027 A83C!         MOVL      @_AnalogSubsysRegs+60,XAR4 ; [CPU_] |76| 
     195 00000028       $C$L1:    
     196                      .dwpsn  file "C:/ti/controlSUITE/device_support/F2837xS/v170/F2837xS_common/source/F2837xS_SysCtrl.c"
     197 00000028 761F!         MOVW      DP,#_CpuSysRegs+60    ; [CPU_U] 
         00000029 0000 
     198 0000002a 183C!         AND       @_CpuSysRegs+60,#0xfffe ; [CPU_] |79| 
         0000002b FFFE 
     199                      .dwpsn  file "C:/ti/controlSUITE/device_support/F2837xS/v170/F2837xS_common/source/F2837xS_SysCtrl.c"
     200 0000002c 183C!         AND       @_CpuSysRegs+60,#0xfffd ; [CPU_] |80| 
         0000002d FFFD 
     201                      .dwpsn  file "C:/ti/controlSUITE/device_support/F2837xS/v170/F2837xS_common/source/F2837xS_SysCtrl.c"
TMS320C2000 Assembler PC v6.4.2 Thu Dec 14 15:26:44 2017

Tools Copyright (c) 1996-2015 Texas Instruments Incorporated
F2837xS_SysCtrl.asm                                                  PAGE    5

     202 0000002e 183C!         AND       @_CpuSysRegs+60,#0xfffb ; [CPU_] |81| 
         0000002f FFFB 
     203                      .dwpsn  file "C:/ti/controlSUITE/device_support/F2837xS/v170/F2837xS_common/source/F2837xS_SysCtrl.c"
     204 00000030 183C!         AND       @_CpuSysRegs+60,#0xfff7 ; [CPU_] |82| 
         00000031 FFF7 
     205                      .dwpsn  file "C:/ti/controlSUITE/device_support/F2837xS/v170/F2837xS_common/source/F2837xS_SysCtrl.c"
     206 00000032 761A   EDIS
     207                      .dwpsn  file "C:/ti/controlSUITE/device_support/F2837xS/v170/F2837xS_common/source/F2837xS_SysCtrl.c"
     208 00000033 9A01          MOVB      AL,#1                 ; [CPU_] |89| 
     209 00000034 D501          MOVB      XAR5,#1               ; [CPU_] |89| 
     210 00000035 9B14          MOVB      AH,#20                ; [CPU_] |89| 
     211 00000036 D400          MOVB      XAR4,#0               ; [CPU_] |89| 
     212 00000037 FF69          SPM       #0                    ; [CPU_] 
     213              $C$DW$26        .dwtag  DW_TAG_TI_branch
     214                      .dwattr $C$DW$26, DW_AT_low_pc(0x00)
     215                      .dwattr $C$DW$26, DW_AT_name("_InitSysPll")
     216                      .dwattr $C$DW$26, DW_AT_TI_call
     217 00000038 7640'         LCR       #_InitSysPll          ; [CPU_] |89| 
         00000039 00F5 
     218                      ; call occurs [#_InitSysPll] ; [] |89| 
     219                      .dwpsn  file "C:/ti/controlSUITE/device_support/F2837xS/v170/F2837xS_common/source/F2837xS_SysCtrl.c"
     220              $C$DW$27        .dwtag  DW_TAG_TI_branch
     221                      .dwattr $C$DW$27, DW_AT_low_pc(0x00)
     222                      .dwattr $C$DW$27, DW_AT_name("_InitPeripheralClocks")
     223                      .dwattr $C$DW$27, DW_AT_TI_call
     224 0000003a 7640'         LCR       #_InitPeripheralClocks ; [CPU_] |92| 
         0000003b 003D 
     225                      ; call occurs [#_InitPeripheralClocks] ; [] |92| 
     226                      .dwpsn  file "C:/ti/controlSUITE/device_support/F2837xS/v170/F2837xS_common/source/F2837xS_SysCtrl.c"
     227              $C$DW$28        .dwtag  DW_TAG_TI_branch
     228                      .dwattr $C$DW$28, DW_AT_low_pc(0x00)
     229                      .dwattr $C$DW$28, DW_AT_TI_return
     230 0000003c 0006          LRETR     ; [CPU_] 
     231                      ; return occurs ; [] 
     232                      .dwattr $C$DW$21, DW_AT_TI_end_file("C:/ti/controlSUITE/device_support/F2837xS/v170/F2837xS_common/so
     233                      .dwattr $C$DW$21, DW_AT_TI_end_line(0x5e)
     234                      .dwattr $C$DW$21, DW_AT_TI_end_column(0x01)
     235                      .dwendentry
     236                      .dwendtag $C$DW$21
     237              
     238 0000003d               .sect   ".text"
     239                      .clink
     240                      .global _InitPeripheralClocks
     241              
     242              $C$DW$29        .dwtag  DW_TAG_subprogram, DW_AT_name("InitPeripheralClocks")
     243                      .dwattr $C$DW$29, DW_AT_low_pc(_InitPeripheralClocks)
     244                      .dwattr $C$DW$29, DW_AT_high_pc(0x00)
     245                      .dwattr $C$DW$29, DW_AT_TI_symbol_name("_InitPeripheralClocks")
     246                      .dwattr $C$DW$29, DW_AT_external
     247                      .dwattr $C$DW$29, DW_AT_TI_begin_file("C:/ti/controlSUITE/device_support/F2837xS/v170/F2837xS_common/
     248                      .dwattr $C$DW$29, DW_AT_TI_begin_line(0x68)
     249                      .dwattr $C$DW$29, DW_AT_TI_begin_column(0x06)
     250                      .dwattr $C$DW$29, DW_AT_TI_max_frame_size(-2)
     251                      .dwpsn  file "C:/ti/controlSUITE/device_support/F2837xS/v170/F2837xS_common/source/F2837xS_SysCtrl.c"
     252              
TMS320C2000 Assembler PC v6.4.2 Thu Dec 14 15:26:44 2017

Tools Copyright (c) 1996-2015 Texas Instruments Incorporated
F2837xS_SysCtrl.asm                                                  PAGE    6

     253                      .dwfde $C$DW$CIE, _InitPeripheralClocks
     254              
     255              ;***************************************************************
     256              ;* FNAME: _InitPeripheralClocks         FR SIZE:   0           *
     257              ;*                                                             *
     258              ;* FUNCTION ENVIRONMENT                                        *
     259              ;*                                                             *
     260              ;* FUNCTION PROPERTIES                                         *
     261              ;*                            0 Parameter,  0 Auto,  0 SOE     *
     262              ;***************************************************************
     263              
     264 0000003d       _InitPeripheralClocks:
     265                      .dwcfi  cfa_offset, -2
     266                      .dwcfi  save_reg_to_mem, 26, 0
     267                      .dwpsn  file "C:/ti/controlSUITE/device_support/F2837xS/v170/F2837xS_common/source/F2837xS_SysCtrl.c"
     268 0000003d 7622   EALLOW
     269                      .dwpsn  file "C:/ti/controlSUITE/device_support/F2837xS/v170/F2837xS_common/source/F2837xS_SysCtrl.c"
     270 0000003e 761F!         MOVW      DP,#_CpuSysRegs+34    ; [CPU_U] 
         0000003f 0000 
     271 00000040 1A22!         OR        @_CpuSysRegs+34,#0x0001 ; [CPU_] |108| 
         00000041 0001 
     272                      .dwpsn  file "C:/ti/controlSUITE/device_support/F2837xS/v170/F2837xS_common/source/F2837xS_SysCtrl.c"
     273 00000042 1A22!         OR        @_CpuSysRegs+34,#0x0004 ; [CPU_] |109| 
         00000043 0004 
     274                      .dwpsn  file "C:/ti/controlSUITE/device_support/F2837xS/v170/F2837xS_common/source/F2837xS_SysCtrl.c"
     275 00000044 1A22!         OR        @_CpuSysRegs+34,#0x0008 ; [CPU_] |110| 
         00000045 0008 
     276                      .dwpsn  file "C:/ti/controlSUITE/device_support/F2837xS/v170/F2837xS_common/source/F2837xS_SysCtrl.c"
     277 00000046 1A22!         OR        @_CpuSysRegs+34,#0x0010 ; [CPU_] |111| 
         00000047 0010 
     278                      .dwpsn  file "C:/ti/controlSUITE/device_support/F2837xS/v170/F2837xS_common/source/F2837xS_SysCtrl.c"
     279 00000048 1A22!         OR        @_CpuSysRegs+34,#0x0020 ; [CPU_] |112| 
         00000049 0020 
     280                      .dwpsn  file "C:/ti/controlSUITE/device_support/F2837xS/v170/F2837xS_common/source/F2837xS_SysCtrl.c"
     281 0000004a 1A23!         OR        @_CpuSysRegs+35,#0x0001 ; [CPU_] |113| 
         0000004b 0001 
     282                      .dwpsn  file "C:/ti/controlSUITE/device_support/F2837xS/v170/F2837xS_common/source/F2837xS_SysCtrl.c"
     283 0000004c 1A23!         OR        @_CpuSysRegs+35,#0x0004 ; [CPU_] |114| 
         0000004d 0004 
     284                      .dwpsn  file "C:/ti/controlSUITE/device_support/F2837xS/v170/F2837xS_common/source/F2837xS_SysCtrl.c"
     285 0000004e 1A24!         OR        @_CpuSysRegs+36,#0x0001 ; [CPU_] |116| 
         0000004f 0001 
     286                      .dwpsn  file "C:/ti/controlSUITE/device_support/F2837xS/v170/F2837xS_common/source/F2837xS_SysCtrl.c"
     287 00000050 1A24!         OR        @_CpuSysRegs+36,#0x0002 ; [CPU_] |117| 
         00000051 0002 
     288                      .dwpsn  file "C:/ti/controlSUITE/device_support/F2837xS/v170/F2837xS_common/source/F2837xS_SysCtrl.c"
     289 00000052 1A26!         OR        @_CpuSysRegs+38,#0x0001 ; [CPU_] |119| 
         00000053 0001 
     290                      .dwpsn  file "C:/ti/controlSUITE/device_support/F2837xS/v170/F2837xS_common/source/F2837xS_SysCtrl.c"
     291 00000054 1A26!         OR        @_CpuSysRegs+38,#0x0002 ; [CPU_] |120| 
         00000055 0002 
     292                      .dwpsn  file "C:/ti/controlSUITE/device_support/F2837xS/v170/F2837xS_common/source/F2837xS_SysCtrl.c"
     293 00000056 1A26!         OR        @_CpuSysRegs+38,#0x0004 ; [CPU_] |121| 
         00000057 0004 
     294                      .dwpsn  file "C:/ti/controlSUITE/device_support/F2837xS/v170/F2837xS_common/source/F2837xS_SysCtrl.c"
TMS320C2000 Assembler PC v6.4.2 Thu Dec 14 15:26:44 2017

Tools Copyright (c) 1996-2015 Texas Instruments Incorporated
F2837xS_SysCtrl.asm                                                  PAGE    7

     295 00000058 1A26!         OR        @_CpuSysRegs+38,#0x0008 ; [CPU_] |122| 
         00000059 0008 
     296                      .dwpsn  file "C:/ti/controlSUITE/device_support/F2837xS/v170/F2837xS_common/source/F2837xS_SysCtrl.c"
     297 0000005a 1A26!         OR        @_CpuSysRegs+38,#0x0010 ; [CPU_] |123| 
         0000005b 0010 
     298                      .dwpsn  file "C:/ti/controlSUITE/device_support/F2837xS/v170/F2837xS_common/source/F2837xS_SysCtrl.c"
     299 0000005c 1A26!         OR        @_CpuSysRegs+38,#0x0020 ; [CPU_] |124| 
         0000005d 0020 
     300                      .dwpsn  file "C:/ti/controlSUITE/device_support/F2837xS/v170/F2837xS_common/source/F2837xS_SysCtrl.c"
     301 0000005e 1A26!         OR        @_CpuSysRegs+38,#0x0040 ; [CPU_] |125| 
         0000005f 0040 
     302                      .dwpsn  file "C:/ti/controlSUITE/device_support/F2837xS/v170/F2837xS_common/source/F2837xS_SysCtrl.c"
     303 00000060 1A26!         OR        @_CpuSysRegs+38,#0x0080 ; [CPU_] |126| 
         00000061 0080 
     304                      .dwpsn  file "C:/ti/controlSUITE/device_support/F2837xS/v170/F2837xS_common/source/F2837xS_SysCtrl.c"
     305 00000062 1A26!         OR        @_CpuSysRegs+38,#0x0100 ; [CPU_] |127| 
         00000063 0100 
     306                      .dwpsn  file "C:/ti/controlSUITE/device_support/F2837xS/v170/F2837xS_common/source/F2837xS_SysCtrl.c"
     307 00000064 1A26!         OR        @_CpuSysRegs+38,#0x0200 ; [CPU_] |128| 
         00000065 0200 
     308                      .dwpsn  file "C:/ti/controlSUITE/device_support/F2837xS/v170/F2837xS_common/source/F2837xS_SysCtrl.c"
     309 00000066 1A26!         OR        @_CpuSysRegs+38,#0x0400 ; [CPU_] |129| 
         00000067 0400 
     310                      .dwpsn  file "C:/ti/controlSUITE/device_support/F2837xS/v170/F2837xS_common/source/F2837xS_SysCtrl.c"
     311 00000068 1A26!         OR        @_CpuSysRegs+38,#0x0800 ; [CPU_] |130| 
         00000069 0800 
     312                      .dwpsn  file "C:/ti/controlSUITE/device_support/F2837xS/v170/F2837xS_common/source/F2837xS_SysCtrl.c"
     313 0000006a 1A28!         OR        @_CpuSysRegs+40,#0x0001 ; [CPU_] |132| 
         0000006b 0001 
     314                      .dwpsn  file "C:/ti/controlSUITE/device_support/F2837xS/v170/F2837xS_common/source/F2837xS_SysCtrl.c"
     315 0000006c 1A28!         OR        @_CpuSysRegs+40,#0x0002 ; [CPU_] |133| 
         0000006d 0002 
     316                      .dwpsn  file "C:/ti/controlSUITE/device_support/F2837xS/v170/F2837xS_common/source/F2837xS_SysCtrl.c"
     317 0000006e 1A28!         OR        @_CpuSysRegs+40,#0x0004 ; [CPU_] |134| 
         0000006f 0004 
     318                      .dwpsn  file "C:/ti/controlSUITE/device_support/F2837xS/v170/F2837xS_common/source/F2837xS_SysCtrl.c"
     319 00000070 1A28!         OR        @_CpuSysRegs+40,#0x0008 ; [CPU_] |135| 
         00000071 0008 
     320                      .dwpsn  file "C:/ti/controlSUITE/device_support/F2837xS/v170/F2837xS_common/source/F2837xS_SysCtrl.c"
     321 00000072 1A28!         OR        @_CpuSysRegs+40,#0x0010 ; [CPU_] |136| 
         00000073 0010 
     322                      .dwpsn  file "C:/ti/controlSUITE/device_support/F2837xS/v170/F2837xS_common/source/F2837xS_SysCtrl.c"
     323 00000074 1A28!         OR        @_CpuSysRegs+40,#0x0020 ; [CPU_] |137| 
         00000075 0020 
     324                      .dwpsn  file "C:/ti/controlSUITE/device_support/F2837xS/v170/F2837xS_common/source/F2837xS_SysCtrl.c"
     325 00000076 1A2A!         OR        @_CpuSysRegs+42,#0x0001 ; [CPU_] |139| 
         00000077 0001 
     326                      .dwpsn  file "C:/ti/controlSUITE/device_support/F2837xS/v170/F2837xS_common/source/F2837xS_SysCtrl.c"
     327 00000078 1A2A!         OR        @_CpuSysRegs+42,#0x0002 ; [CPU_] |140| 
         00000079 0002 
     328                      .dwpsn  file "C:/ti/controlSUITE/device_support/F2837xS/v170/F2837xS_common/source/F2837xS_SysCtrl.c"
     329 0000007a 1A2A!         OR        @_CpuSysRegs+42,#0x0004 ; [CPU_] |141| 
         0000007b 0004 
     330                      .dwpsn  file "C:/ti/controlSUITE/device_support/F2837xS/v170/F2837xS_common/source/F2837xS_SysCtrl.c"
     331 0000007c 1A2E!         OR        @_CpuSysRegs+46,#0x0001 ; [CPU_] |143| 
TMS320C2000 Assembler PC v6.4.2 Thu Dec 14 15:26:44 2017

Tools Copyright (c) 1996-2015 Texas Instruments Incorporated
F2837xS_SysCtrl.asm                                                  PAGE    8

         0000007d 0001 
     332                      .dwpsn  file "C:/ti/controlSUITE/device_support/F2837xS/v170/F2837xS_common/source/F2837xS_SysCtrl.c"
     333 0000007e 1A2E!         OR        @_CpuSysRegs+46,#0x0002 ; [CPU_] |144| 
         0000007f 0002 
     334                      .dwpsn  file "C:/ti/controlSUITE/device_support/F2837xS/v170/F2837xS_common/source/F2837xS_SysCtrl.c"
     335 00000080 1A30!         OR        @_CpuSysRegs+48,#0x0001 ; [CPU_] |146| 
         00000081 0001 
     336                      .dwpsn  file "C:/ti/controlSUITE/device_support/F2837xS/v170/F2837xS_common/source/F2837xS_SysCtrl.c"
     337 00000082 1A30!         OR        @_CpuSysRegs+48,#0x0002 ; [CPU_] |147| 
         00000083 0002 
     338                      .dwpsn  file "C:/ti/controlSUITE/device_support/F2837xS/v170/F2837xS_common/source/F2837xS_SysCtrl.c"
     339 00000084 1A30!         OR        @_CpuSysRegs+48,#0x0004 ; [CPU_] |148| 
         00000085 0004 
     340                      .dwpsn  file "C:/ti/controlSUITE/device_support/F2837xS/v170/F2837xS_common/source/F2837xS_SysCtrl.c"
     341 00000086 1A30!         OR        @_CpuSysRegs+48,#0x0008 ; [CPU_] |149| 
         00000087 0008 
     342                      .dwpsn  file "C:/ti/controlSUITE/device_support/F2837xS/v170/F2837xS_common/source/F2837xS_SysCtrl.c"
     343 00000088 1A32!         OR        @_CpuSysRegs+50,#0x0001 ; [CPU_] |151| 
         00000089 0001 
     344                      .dwpsn  file "C:/ti/controlSUITE/device_support/F2837xS/v170/F2837xS_common/source/F2837xS_SysCtrl.c"
     345 0000008a 1A32!         OR        @_CpuSysRegs+50,#0x0002 ; [CPU_] |152| 
         0000008b 0002 
     346                      .dwpsn  file "C:/ti/controlSUITE/device_support/F2837xS/v170/F2837xS_common/source/F2837xS_SysCtrl.c"
     347 0000008c 1A32!         OR        @_CpuSysRegs+50,#0x0004 ; [CPU_] |153| 
         0000008d 0004 
     348                      .dwpsn  file "C:/ti/controlSUITE/device_support/F2837xS/v170/F2837xS_common/source/F2837xS_SysCtrl.c"
     349 0000008e 1A34!         OR        @_CpuSysRegs+52,#0x0001 ; [CPU_] |155| 
         0000008f 0001 
     350                      .dwpsn  file "C:/ti/controlSUITE/device_support/F2837xS/v170/F2837xS_common/source/F2837xS_SysCtrl.c"
     351 00000090 1A34!         OR        @_CpuSysRegs+52,#0x0002 ; [CPU_] |156| 
         00000091 0002 
     352                      .dwpsn  file "C:/ti/controlSUITE/device_support/F2837xS/v170/F2837xS_common/source/F2837xS_SysCtrl.c"
     353 00000092 1A36!         OR        @_CpuSysRegs+54,#0x0001 ; [CPU_] |158| 
         00000093 0001 
     354                      .dwpsn  file "C:/ti/controlSUITE/device_support/F2837xS/v170/F2837xS_common/source/F2837xS_SysCtrl.c"
     355 00000094 1A36!         OR        @_CpuSysRegs+54,#0x0002 ; [CPU_] |159| 
         00000095 0002 
     356                      .dwpsn  file "C:/ti/controlSUITE/device_support/F2837xS/v170/F2837xS_common/source/F2837xS_SysCtrl.c"
     357 00000096 1A38!         OR        @_CpuSysRegs+56,#0x0001 ; [CPU_] |161| 
         00000097 0001 
     358                      .dwpsn  file "C:/ti/controlSUITE/device_support/F2837xS/v170/F2837xS_common/source/F2837xS_SysCtrl.c"
     359 00000098 1A38!         OR        @_CpuSysRegs+56,#0x0002 ; [CPU_] |162| 
         00000099 0002 
     360                      .dwpsn  file "C:/ti/controlSUITE/device_support/F2837xS/v170/F2837xS_common/source/F2837xS_SysCtrl.c"
     361 0000009a 1A39!         OR        @_CpuSysRegs+57,#0x0001 ; [CPU_] |163| 
         0000009b 0001 
     362                      .dwpsn  file "C:/ti/controlSUITE/device_support/F2837xS/v170/F2837xS_common/source/F2837xS_SysCtrl.c"
     363 0000009c 1A3A!         OR        @_CpuSysRegs+58,#0x0001 ; [CPU_] |165| 
         0000009d 0001 
     364                      .dwpsn  file "C:/ti/controlSUITE/device_support/F2837xS/v170/F2837xS_common/source/F2837xS_SysCtrl.c"
     365 0000009e 1A3C!         OR        @_CpuSysRegs+60,#0x0001 ; [CPU_] |167| 
         0000009f 0001 
     366                      .dwpsn  file "C:/ti/controlSUITE/device_support/F2837xS/v170/F2837xS_common/source/F2837xS_SysCtrl.c"
     367 000000a0 1A3C!         OR        @_CpuSysRegs+60,#0x0002 ; [CPU_] |168| 
         000000a1 0002 
TMS320C2000 Assembler PC v6.4.2 Thu Dec 14 15:26:44 2017

Tools Copyright (c) 1996-2015 Texas Instruments Incorporated
F2837xS_SysCtrl.asm                                                  PAGE    9

     368                      .dwpsn  file "C:/ti/controlSUITE/device_support/F2837xS/v170/F2837xS_common/source/F2837xS_SysCtrl.c"
     369 000000a2 1A3C!         OR        @_CpuSysRegs+60,#0x0004 ; [CPU_] |169| 
         000000a3 0004 
     370                      .dwpsn  file "C:/ti/controlSUITE/device_support/F2837xS/v170/F2837xS_common/source/F2837xS_SysCtrl.c"
     371 000000a4 1A3C!         OR        @_CpuSysRegs+60,#0x0008 ; [CPU_] |170| 
         000000a5 0008 
     372                      .dwpsn  file "C:/ti/controlSUITE/device_support/F2837xS/v170/F2837xS_common/source/F2837xS_SysCtrl.c"
     373 000000a6 1A3E!         OR        @_CpuSysRegs+62,#0x0001 ; [CPU_] |172| 
         000000a7 0001 
     374                      .dwpsn  file "C:/ti/controlSUITE/device_support/F2837xS/v170/F2837xS_common/source/F2837xS_SysCtrl.c"
     375 000000a8 1A3E!         OR        @_CpuSysRegs+62,#0x0002 ; [CPU_] |173| 
         000000a9 0002 
     376                      .dwpsn  file "C:/ti/controlSUITE/device_support/F2837xS/v170/F2837xS_common/source/F2837xS_SysCtrl.c"
     377 000000aa 1A3E!         OR        @_CpuSysRegs+62,#0x0004 ; [CPU_] |174| 
         000000ab 0004 
     378                      .dwpsn  file "C:/ti/controlSUITE/device_support/F2837xS/v170/F2837xS_common/source/F2837xS_SysCtrl.c"
     379 000000ac 1A3E!         OR        @_CpuSysRegs+62,#0x0008 ; [CPU_] |175| 
         000000ad 0008 
     380                      .dwpsn  file "C:/ti/controlSUITE/device_support/F2837xS/v170/F2837xS_common/source/F2837xS_SysCtrl.c"
     381 000000ae 1A3E!         OR        @_CpuSysRegs+62,#0x0010 ; [CPU_] |176| 
         000000af 0010 
     382                      .dwpsn  file "C:/ti/controlSUITE/device_support/F2837xS/v170/F2837xS_common/source/F2837xS_SysCtrl.c"
     383 000000b0 1A3E!         OR        @_CpuSysRegs+62,#0x0020 ; [CPU_] |177| 
         000000b1 0020 
     384                      .dwpsn  file "C:/ti/controlSUITE/device_support/F2837xS/v170/F2837xS_common/source/F2837xS_SysCtrl.c"
     385 000000b2 1A3E!         OR        @_CpuSysRegs+62,#0x0040 ; [CPU_] |178| 
         000000b3 0040 
     386                      .dwpsn  file "C:/ti/controlSUITE/device_support/F2837xS/v170/F2837xS_common/source/F2837xS_SysCtrl.c"
     387 000000b4 1A3E!         OR        @_CpuSysRegs+62,#0x0080 ; [CPU_] |179| 
         000000b5 0080 
     388                      .dwpsn  file "C:/ti/controlSUITE/device_support/F2837xS/v170/F2837xS_common/source/F2837xS_SysCtrl.c"
     389 000000b6 761F!         MOVW      DP,#_CpuSysRegs+67    ; [CPU_U] 
         000000b7 0001 
     390 000000b8 1A03!         OR        @_CpuSysRegs+67,#0x0001 ; [CPU_] |181| 
         000000b9 0001 
     391                      .dwpsn  file "C:/ti/controlSUITE/device_support/F2837xS/v170/F2837xS_common/source/F2837xS_SysCtrl.c"
     392 000000ba 1A03!         OR        @_CpuSysRegs+67,#0x0002 ; [CPU_] |182| 
         000000bb 0002 
     393                      .dwpsn  file "C:/ti/controlSUITE/device_support/F2837xS/v170/F2837xS_common/source/F2837xS_SysCtrl.c"
     394 000000bc 1A03!         OR        @_CpuSysRegs+67,#0x0004 ; [CPU_] |183| 
         000000bd 0004 
     395                      .dwpsn  file "C:/ti/controlSUITE/device_support/F2837xS/v170/F2837xS_common/source/F2837xS_SysCtrl.c"
     396 000000be 761A   EDIS
     397                      .dwpsn  file "C:/ti/controlSUITE/device_support/F2837xS/v170/F2837xS_common/source/F2837xS_SysCtrl.c"
     398 000000bf FF69          SPM       #0                    ; [CPU_] 
     399              $C$DW$30        .dwtag  DW_TAG_TI_branch
     400                      .dwattr $C$DW$30, DW_AT_low_pc(0x00)
     401                      .dwattr $C$DW$30, DW_AT_TI_return
     402 000000c0 0006          LRETR     ; [CPU_] 
     403                      ; return occurs ; [] 
     404                      .dwattr $C$DW$29, DW_AT_TI_end_file("C:/ti/controlSUITE/device_support/F2837xS/v170/F2837xS_common/so
     405                      .dwattr $C$DW$29, DW_AT_TI_end_line(0xba)
     406                      .dwattr $C$DW$29, DW_AT_TI_end_column(0x01)
     407                      .dwendentry
     408                      .dwendtag $C$DW$29
TMS320C2000 Assembler PC v6.4.2 Thu Dec 14 15:26:44 2017

Tools Copyright (c) 1996-2015 Texas Instruments Incorporated
F2837xS_SysCtrl.asm                                                  PAGE   10

     409              
     410 000000c1               .sect   ".text"
     411                      .clink
     412                      .global _DisablePeripheralClocks
     413              
     414              $C$DW$31        .dwtag  DW_TAG_subprogram, DW_AT_name("DisablePeripheralClocks")
     415                      .dwattr $C$DW$31, DW_AT_low_pc(_DisablePeripheralClocks)
     416                      .dwattr $C$DW$31, DW_AT_high_pc(0x00)
     417                      .dwattr $C$DW$31, DW_AT_TI_symbol_name("_DisablePeripheralClocks")
     418                      .dwattr $C$DW$31, DW_AT_external
     419                      .dwattr $C$DW$31, DW_AT_TI_begin_file("C:/ti/controlSUITE/device_support/F2837xS/v170/F2837xS_common/
     420                      .dwattr $C$DW$31, DW_AT_TI_begin_line(0xbc)
     421                      .dwattr $C$DW$31, DW_AT_TI_begin_column(0x06)
     422                      .dwattr $C$DW$31, DW_AT_TI_max_frame_size(-2)
     423                      .dwpsn  file "C:/ti/controlSUITE/device_support/F2837xS/v170/F2837xS_common/source/F2837xS_SysCtrl.c"
     424              
     425                      .dwfde $C$DW$CIE, _DisablePeripheralClocks
     426              
     427              ;***************************************************************
     428              ;* FNAME: _DisablePeripheralClocks      FR SIZE:   0           *
     429              ;*                                                             *
     430              ;* FUNCTION ENVIRONMENT                                        *
     431              ;*                                                             *
     432              ;* FUNCTION PROPERTIES                                         *
     433              ;*                            0 Parameter,  0 Auto,  0 SOE     *
     434              ;***************************************************************
     435              
     436 000000c1       _DisablePeripheralClocks:
     437                      .dwcfi  cfa_offset, -2
     438                      .dwcfi  save_reg_to_mem, 26, 0
     439                      .dwpsn  file "C:/ti/controlSUITE/device_support/F2837xS/v170/F2837xS_common/source/F2837xS_SysCtrl.c"
     440 000000c1 7622   EALLOW
     441                      .dwpsn  file "C:/ti/controlSUITE/device_support/F2837xS/v170/F2837xS_common/source/F2837xS_SysCtrl.c"
     442 000000c2 0200          MOVB      ACC,#0                ; [CPU_] |192| 
     443 000000c3 761F!         MOVW      DP,#_CpuSysRegs+34    ; [CPU_U] 
         000000c4 0000 
     444 000000c5 1E22!         MOVL      @_CpuSysRegs+34,ACC   ; [CPU_] |192| 
     445                      .dwpsn  file "C:/ti/controlSUITE/device_support/F2837xS/v170/F2837xS_common/source/F2837xS_SysCtrl.c"
     446 000000c6 1E24!         MOVL      @_CpuSysRegs+36,ACC   ; [CPU_] |193| 
     447                      .dwpsn  file "C:/ti/controlSUITE/device_support/F2837xS/v170/F2837xS_common/source/F2837xS_SysCtrl.c"
     448 000000c7 1E26!         MOVL      @_CpuSysRegs+38,ACC   ; [CPU_] |194| 
     449                      .dwpsn  file "C:/ti/controlSUITE/device_support/F2837xS/v170/F2837xS_common/source/F2837xS_SysCtrl.c"
     450 000000c8 1E28!         MOVL      @_CpuSysRegs+40,ACC   ; [CPU_] |195| 
     451                      .dwpsn  file "C:/ti/controlSUITE/device_support/F2837xS/v170/F2837xS_common/source/F2837xS_SysCtrl.c"
     452 000000c9 1E2A!         MOVL      @_CpuSysRegs+42,ACC   ; [CPU_] |196| 
     453                      .dwpsn  file "C:/ti/controlSUITE/device_support/F2837xS/v170/F2837xS_common/source/F2837xS_SysCtrl.c"
     454 000000ca 1E2E!         MOVL      @_CpuSysRegs+46,ACC   ; [CPU_] |197| 
     455                      .dwpsn  file "C:/ti/controlSUITE/device_support/F2837xS/v170/F2837xS_common/source/F2837xS_SysCtrl.c"
     456 000000cb 1E30!         MOVL      @_CpuSysRegs+48,ACC   ; [CPU_] |198| 
     457                      .dwpsn  file "C:/ti/controlSUITE/device_support/F2837xS/v170/F2837xS_common/source/F2837xS_SysCtrl.c"
     458 000000cc 1E32!         MOVL      @_CpuSysRegs+50,ACC   ; [CPU_] |199| 
     459                      .dwpsn  file "C:/ti/controlSUITE/device_support/F2837xS/v170/F2837xS_common/source/F2837xS_SysCtrl.c"
     460 000000cd 1E34!         MOVL      @_CpuSysRegs+52,ACC   ; [CPU_] |200| 
     461                      .dwpsn  file "C:/ti/controlSUITE/device_support/F2837xS/v170/F2837xS_common/source/F2837xS_SysCtrl.c"
     462 000000ce 1E36!         MOVL      @_CpuSysRegs+54,ACC   ; [CPU_] |201| 
TMS320C2000 Assembler PC v6.4.2 Thu Dec 14 15:26:44 2017

Tools Copyright (c) 1996-2015 Texas Instruments Incorporated
F2837xS_SysCtrl.asm                                                  PAGE   11

     463                      .dwpsn  file "C:/ti/controlSUITE/device_support/F2837xS/v170/F2837xS_common/source/F2837xS_SysCtrl.c"
     464 000000cf 1E38!         MOVL      @_CpuSysRegs+56,ACC   ; [CPU_] |202| 
     465                      .dwpsn  file "C:/ti/controlSUITE/device_support/F2837xS/v170/F2837xS_common/source/F2837xS_SysCtrl.c"
     466 000000d0 1E3A!         MOVL      @_CpuSysRegs+58,ACC   ; [CPU_] |203| 
     467                      .dwpsn  file "C:/ti/controlSUITE/device_support/F2837xS/v170/F2837xS_common/source/F2837xS_SysCtrl.c"
     468 000000d1 1E3C!         MOVL      @_CpuSysRegs+60,ACC   ; [CPU_] |204| 
     469                      .dwpsn  file "C:/ti/controlSUITE/device_support/F2837xS/v170/F2837xS_common/source/F2837xS_SysCtrl.c"
     470 000000d2 1E3E!         MOVL      @_CpuSysRegs+62,ACC   ; [CPU_] |205| 
     471                      .dwpsn  file "C:/ti/controlSUITE/device_support/F2837xS/v170/F2837xS_common/source/F2837xS_SysCtrl.c"
     472 000000d3 761F!         MOVW      DP,#_CpuSysRegs+66    ; [CPU_U] 
         000000d4 0001 
     473 000000d5 1E02!         MOVL      @_CpuSysRegs+66,ACC   ; [CPU_] |206| 
     474                      .dwpsn  file "C:/ti/controlSUITE/device_support/F2837xS/v170/F2837xS_common/source/F2837xS_SysCtrl.c"
     475 000000d6 761A   EDIS
     476                      .dwpsn  file "C:/ti/controlSUITE/device_support/F2837xS/v170/F2837xS_common/source/F2837xS_SysCtrl.c"
     477 000000d7 FF69          SPM       #0                    ; [CPU_] 
     478              $C$DW$32        .dwtag  DW_TAG_TI_branch
     479                      .dwattr $C$DW$32, DW_AT_low_pc(0x00)
     480                      .dwattr $C$DW$32, DW_AT_TI_return
     481 000000d8 0006          LRETR     ; [CPU_] 
     482                      ; return occurs ; [] 
     483                      .dwattr $C$DW$31, DW_AT_TI_end_file("C:/ti/controlSUITE/device_support/F2837xS/v170/F2837xS_common/so
     484                      .dwattr $C$DW$31, DW_AT_TI_end_line(0xd1)
     485                      .dwattr $C$DW$31, DW_AT_TI_end_column(0x01)
     486                      .dwendentry
     487                      .dwendtag $C$DW$31
     488              
     489 00000000               .sect   "ramfuncs"
     490                      .clink
     491                      .global _InitFlash_Bank0
     492              
     493              $C$DW$33        .dwtag  DW_TAG_subprogram, DW_AT_name("InitFlash_Bank0")
     494                      .dwattr $C$DW$33, DW_AT_low_pc(_InitFlash_Bank0)
     495                      .dwattr $C$DW$33, DW_AT_high_pc(0x00)
     496                      .dwattr $C$DW$33, DW_AT_TI_symbol_name("_InitFlash_Bank0")
     497                      .dwattr $C$DW$33, DW_AT_external
     498                      .dwattr $C$DW$33, DW_AT_TI_begin_file("C:/ti/controlSUITE/device_support/F2837xS/v170/F2837xS_common/
     499                      .dwattr $C$DW$33, DW_AT_TI_begin_line(0xd8)
     500                      .dwattr $C$DW$33, DW_AT_TI_begin_column(0x06)
     501                      .dwattr $C$DW$33, DW_AT_TI_max_frame_size(-2)
     502                      .dwpsn  file "C:/ti/controlSUITE/device_support/F2837xS/v170/F2837xS_common/source/F2837xS_SysCtrl.c"
     503              
     504                      .dwfde $C$DW$CIE, _InitFlash_Bank0
     505              
     506              ;***************************************************************
     507              ;* FNAME: _InitFlash_Bank0              FR SIZE:   0           *
     508              ;*                                                             *
     509              ;* FUNCTION ENVIRONMENT                                        *
     510              ;*                                                             *
     511              ;* FUNCTION PROPERTIES                                         *
     512              ;*                            0 Parameter,  0 Auto,  0 SOE     *
     513              ;***************************************************************
     514              
     515 00000000       _InitFlash_Bank0:
     516                      .dwcfi  cfa_offset, -2
TMS320C2000 Assembler PC v6.4.2 Thu Dec 14 15:26:44 2017

Tools Copyright (c) 1996-2015 Texas Instruments Incorporated
F2837xS_SysCtrl.asm                                                  PAGE   12

     517                      .dwcfi  save_reg_to_mem, 26, 0
     518                      .dwpsn  file "C:/ti/controlSUITE/device_support/F2837xS/v170/F2837xS_common/source/F2837xS_SysCtrl.c"
     519 00000000 7622   EALLOW
     520                      .dwpsn  file "C:/ti/controlSUITE/device_support/F2837xS/v170/F2837xS_common/source/F2837xS_SysCtrl.c"
     521 00000001 761F!         MOVW      DP,#_Flash0CtrlRegs+36 ; [CPU_U] 
         00000002 0000 
     522 00000003 1A24!         OR        @_Flash0CtrlRegs+36,#0x0001 ; [CPU_] |225| 
         00000004 0001 
     523                      .dwpsn  file "C:/ti/controlSUITE/device_support/F2837xS/v170/F2837xS_common/source/F2837xS_SysCtrl.c"
     524 00000005 1A20!         OR        @_Flash0CtrlRegs+32,#0x0003 ; [CPU_] |226| 
         00000006 0003 
     525                      .dwpsn  file "C:/ti/controlSUITE/device_support/F2837xS/v170/F2837xS_common/source/F2837xS_SysCtrl.c"
     526 00000007 761F!         MOVW      DP,#_Flash0CtrlRegs+384 ; [CPU_U] 
         00000008 0006 
     527 00000009 1800!         AND       @_Flash0CtrlRegs+384,#0xfffd ; [CPU_] |229| 
         0000000a FFFD 
     528                      .dwpsn  file "C:/ti/controlSUITE/device_support/F2837xS/v170/F2837xS_common/source/F2837xS_SysCtrl.c"
     529 0000000b 1800!         AND       @_Flash0CtrlRegs+384,#0xfffe ; [CPU_] |230| 
         0000000c FFFE 
     530                      .dwpsn  file "C:/ti/controlSUITE/device_support/F2837xS/v170/F2837xS_common/source/F2837xS_SysCtrl.c"
     531 0000000d 761F!         MOVW      DP,#_Flash0CtrlRegs   ; [CPU_U] 
         0000000e 0000 
     532 0000000f CC00!         AND       AL,@_Flash0CtrlRegs,#0xf0ff ; [CPU_] |238| 
         00000010 F0FF 
     533 00000011 1AA9          OR        AL,#0x0300            ; [CPU_] |238| 
         00000012 0300 
     534 00000013 9600!         MOV       @_Flash0CtrlRegs,AL   ; [CPU_] |238| 
     535                      .dwpsn  file "C:/ti/controlSUITE/device_support/F2837xS/v170/F2837xS_common/source/F2837xS_SysCtrl.c"
     536 00000014 761F!         MOVW      DP,#_Flash0CtrlRegs+384 ; [CPU_U] 
         00000015 0006 
     537 00000016 1A00!         OR        @_Flash0CtrlRegs+384,#0x0002 ; [CPU_] |251| 
         00000017 0002 
     538                      .dwpsn  file "C:/ti/controlSUITE/device_support/F2837xS/v170/F2837xS_common/source/F2837xS_SysCtrl.c"
     539 00000018 1A00!         OR        @_Flash0CtrlRegs+384,#0x0001 ; [CPU_] |252| 
         00000019 0001 
     540                      .dwpsn  file "C:/ti/controlSUITE/device_support/F2837xS/v170/F2837xS_common/source/F2837xS_SysCtrl.c"
     541 0000001a 761F!         MOVW      DP,#_Flash0EccRegs    ; [CPU_U] 
         0000001b 0000 
     542 0000001c CC00!         AND       AL,@_Flash0EccRegs,#0xfff0 ; [CPU_] |256| 
         0000001d FFF0 
     543 0000001e 500A          ORB       AL,#0x0a              ; [CPU_] |256| 
     544 0000001f 9600!         MOV       @_Flash0EccRegs,AL    ; [CPU_] |256| 
     545                      .dwpsn  file "C:/ti/controlSUITE/device_support/F2837xS/v170/F2837xS_common/source/F2837xS_SysCtrl.c"
     546 00000020 761A   EDIS
     547                      .dwpsn  file "C:/ti/controlSUITE/device_support/F2837xS/v170/F2837xS_common/source/F2837xS_SysCtrl.c"
     548 00000021 F607   RPT #7 || NOP
         00000022 7700 
     549                      .dwpsn  file "C:/ti/controlSUITE/device_support/F2837xS/v170/F2837xS_common/source/F2837xS_SysCtrl.c"
     550 00000023 FF69          SPM       #0                    ; [CPU_] 
     551              $C$DW$34        .dwtag  DW_TAG_TI_branch
     552                      .dwattr $C$DW$34, DW_AT_low_pc(0x00)
     553                      .dwattr $C$DW$34, DW_AT_TI_return
     554 00000024 0006          LRETR     ; [CPU_] 
     555                      ; return occurs ; [] 
     556                      .dwattr $C$DW$33, DW_AT_TI_end_file("C:/ti/controlSUITE/device_support/F2837xS/v170/F2837xS_common/so
TMS320C2000 Assembler PC v6.4.2 Thu Dec 14 15:26:44 2017

Tools Copyright (c) 1996-2015 Texas Instruments Incorporated
F2837xS_SysCtrl.asm                                                  PAGE   13

     557                      .dwattr $C$DW$33, DW_AT_TI_end_line(0x109)
     558                      .dwattr $C$DW$33, DW_AT_TI_end_column(0x01)
     559                      .dwendentry
     560                      .dwendtag $C$DW$33
     561              
     562 00000025               .sect   "ramfuncs"
     563                      .clink
     564                      .global _InitFlash_Bank1
     565              
     566              $C$DW$35        .dwtag  DW_TAG_subprogram, DW_AT_name("InitFlash_Bank1")
     567                      .dwattr $C$DW$35, DW_AT_low_pc(_InitFlash_Bank1)
     568                      .dwattr $C$DW$35, DW_AT_high_pc(0x00)
     569                      .dwattr $C$DW$35, DW_AT_TI_symbol_name("_InitFlash_Bank1")
     570                      .dwattr $C$DW$35, DW_AT_external
     571                      .dwattr $C$DW$35, DW_AT_TI_begin_file("C:/ti/controlSUITE/device_support/F2837xS/v170/F2837xS_common/
     572                      .dwattr $C$DW$35, DW_AT_TI_begin_line(0x110)
     573                      .dwattr $C$DW$35, DW_AT_TI_begin_column(0x06)
     574                      .dwattr $C$DW$35, DW_AT_TI_max_frame_size(-2)
     575                      .dwpsn  file "C:/ti/controlSUITE/device_support/F2837xS/v170/F2837xS_common/source/F2837xS_SysCtrl.c"
     576              
     577                      .dwfde $C$DW$CIE, _InitFlash_Bank1
     578              
     579              ;***************************************************************
     580              ;* FNAME: _InitFlash_Bank1              FR SIZE:   0           *
     581              ;*                                                             *
     582              ;* FUNCTION ENVIRONMENT                                        *
     583              ;*                                                             *
     584              ;* FUNCTION PROPERTIES                                         *
     585              ;*                            0 Parameter,  0 Auto,  0 SOE     *
     586              ;***************************************************************
     587              
     588 00000025       _InitFlash_Bank1:
     589                      .dwcfi  cfa_offset, -2
     590                      .dwcfi  save_reg_to_mem, 26, 0
     591                      .dwpsn  file "C:/ti/controlSUITE/device_support/F2837xS/v170/F2837xS_common/source/F2837xS_SysCtrl.c"
     592 00000025 7622   EALLOW
     593                      .dwpsn  file "C:/ti/controlSUITE/device_support/F2837xS/v170/F2837xS_common/source/F2837xS_SysCtrl.c"
     594 00000026 761F!         MOVW      DP,#_Flash1CtrlRegs+36 ; [CPU_U] 
         00000027 0000 
     595 00000028 1A24!         OR        @_Flash1CtrlRegs+36,#0x0001 ; [CPU_] |281| 
         00000029 0001 
     596                      .dwpsn  file "C:/ti/controlSUITE/device_support/F2837xS/v170/F2837xS_common/source/F2837xS_SysCtrl.c"
     597 0000002a 1A20!         OR        @_Flash1CtrlRegs+32,#0x0003 ; [CPU_] |282| 
         0000002b 0003 
     598                      .dwpsn  file "C:/ti/controlSUITE/device_support/F2837xS/v170/F2837xS_common/source/F2837xS_SysCtrl.c"
     599 0000002c 761F!         MOVW      DP,#_Flash1CtrlRegs+384 ; [CPU_U] 
         0000002d 0006 
     600 0000002e 1800!         AND       @_Flash1CtrlRegs+384,#0xfffd ; [CPU_] |285| 
         0000002f FFFD 
     601                      .dwpsn  file "C:/ti/controlSUITE/device_support/F2837xS/v170/F2837xS_common/source/F2837xS_SysCtrl.c"
     602 00000030 1800!         AND       @_Flash1CtrlRegs+384,#0xfffe ; [CPU_] |286| 
         00000031 FFFE 
     603                      .dwpsn  file "C:/ti/controlSUITE/device_support/F2837xS/v170/F2837xS_common/source/F2837xS_SysCtrl.c"
     604 00000032 761F!         MOVW      DP,#_Flash1CtrlRegs   ; [CPU_U] 
         00000033 0000 
TMS320C2000 Assembler PC v6.4.2 Thu Dec 14 15:26:44 2017

Tools Copyright (c) 1996-2015 Texas Instruments Incorporated
F2837xS_SysCtrl.asm                                                  PAGE   14

     605 00000034 CC00!         AND       AL,@_Flash1CtrlRegs,#0xf0ff ; [CPU_] |294| 
         00000035 F0FF 
     606 00000036 1AA9          OR        AL,#0x0300            ; [CPU_] |294| 
         00000037 0300 
     607 00000038 9600!         MOV       @_Flash1CtrlRegs,AL   ; [CPU_] |294| 
     608                      .dwpsn  file "C:/ti/controlSUITE/device_support/F2837xS/v170/F2837xS_common/source/F2837xS_SysCtrl.c"
     609 00000039 761F!         MOVW      DP,#_Flash1CtrlRegs+384 ; [CPU_U] 
         0000003a 0006 
     610 0000003b 1A00!         OR        @_Flash1CtrlRegs+384,#0x0002 ; [CPU_] |307| 
         0000003c 0002 
     611                      .dwpsn  file "C:/ti/controlSUITE/device_support/F2837xS/v170/F2837xS_common/source/F2837xS_SysCtrl.c"
     612 0000003d 1A00!         OR        @_Flash1CtrlRegs+384,#0x0001 ; [CPU_] |308| 
         0000003e 0001 
     613                      .dwpsn  file "C:/ti/controlSUITE/device_support/F2837xS/v170/F2837xS_common/source/F2837xS_SysCtrl.c"
     614 0000003f 761F!         MOVW      DP,#_Flash1EccRegs    ; [CPU_U] 
         00000040 0000 
     615 00000041 CC00!         AND       AL,@_Flash1EccRegs,#0xfff0 ; [CPU_] |312| 
         00000042 FFF0 
     616 00000043 500A          ORB       AL,#0x0a              ; [CPU_] |312| 
     617 00000044 9600!         MOV       @_Flash1EccRegs,AL    ; [CPU_] |312| 
     618                      .dwpsn  file "C:/ti/controlSUITE/device_support/F2837xS/v170/F2837xS_common/source/F2837xS_SysCtrl.c"
     619 00000045 761A   EDIS
     620                      .dwpsn  file "C:/ti/controlSUITE/device_support/F2837xS/v170/F2837xS_common/source/F2837xS_SysCtrl.c"
     621 00000046 F607   RPT #7 || NOP
         00000047 7700 
     622                      .dwpsn  file "C:/ti/controlSUITE/device_support/F2837xS/v170/F2837xS_common/source/F2837xS_SysCtrl.c"
     623 00000048 FF69          SPM       #0                    ; [CPU_] 
     624              $C$DW$36        .dwtag  DW_TAG_TI_branch
     625                      .dwattr $C$DW$36, DW_AT_low_pc(0x00)
     626                      .dwattr $C$DW$36, DW_AT_TI_return
     627 00000049 0006          LRETR     ; [CPU_] 
     628                      ; return occurs ; [] 
     629                      .dwattr $C$DW$35, DW_AT_TI_end_file("C:/ti/controlSUITE/device_support/F2837xS/v170/F2837xS_common/so
     630                      .dwattr $C$DW$35, DW_AT_TI_end_line(0x141)
     631                      .dwattr $C$DW$35, DW_AT_TI_end_column(0x01)
     632                      .dwendentry
     633                      .dwendtag $C$DW$35
     634              
     635 000000d9               .sect   ".text"
     636                      .clink
     637                      .global _ServiceDog
     638              
     639              $C$DW$37        .dwtag  DW_TAG_subprogram, DW_AT_name("ServiceDog")
     640                      .dwattr $C$DW$37, DW_AT_low_pc(_ServiceDog)
     641                      .dwattr $C$DW$37, DW_AT_high_pc(0x00)
     642                      .dwattr $C$DW$37, DW_AT_TI_symbol_name("_ServiceDog")
     643                      .dwattr $C$DW$37, DW_AT_external
     644                      .dwattr $C$DW$37, DW_AT_TI_begin_file("C:/ti/controlSUITE/device_support/F2837xS/v170/F2837xS_common/
     645                      .dwattr $C$DW$37, DW_AT_TI_begin_line(0x149)
     646                      .dwattr $C$DW$37, DW_AT_TI_begin_column(0x06)
     647                      .dwattr $C$DW$37, DW_AT_TI_max_frame_size(-2)
     648                      .dwpsn  file "C:/ti/controlSUITE/device_support/F2837xS/v170/F2837xS_common/source/F2837xS_SysCtrl.c"
     649              
     650                      .dwfde $C$DW$CIE, _ServiceDog
     651              
TMS320C2000 Assembler PC v6.4.2 Thu Dec 14 15:26:44 2017

Tools Copyright (c) 1996-2015 Texas Instruments Incorporated
F2837xS_SysCtrl.asm                                                  PAGE   15

     652              ;***************************************************************
     653              ;* FNAME: _ServiceDog                   FR SIZE:   0           *
     654              ;*                                                             *
     655              ;* FUNCTION ENVIRONMENT                                        *
     656              ;*                                                             *
     657              ;* FUNCTION PROPERTIES                                         *
     658              ;*                            0 Parameter,  0 Auto,  0 SOE     *
     659              ;***************************************************************
     660              
     661 000000d9       _ServiceDog:
     662                      .dwcfi  cfa_offset, -2
     663                      .dwcfi  save_reg_to_mem, 26, 0
     664                      .dwpsn  file "C:/ti/controlSUITE/device_support/F2837xS/v170/F2837xS_common/source/F2837xS_SysCtrl.c"
     665 000000d9 7622   EALLOW
     666                      .dwpsn  file "C:/ti/controlSUITE/device_support/F2837xS/v170/F2837xS_common/source/F2837xS_SysCtrl.c"
     667 000000da 761F!         MOVW      DP,#_WdRegs+37        ; [CPU_U] 
         000000db 0000 
     668 000000dc CC25!         AND       AL,@_WdRegs+37,#0xff00 ; [CPU_] |332| 
         000000dd FF00 
     669 000000de 5055          ORB       AL,#0x55              ; [CPU_] |332| 
     670 000000df 9625!         MOV       @_WdRegs+37,AL        ; [CPU_] |332| 
     671                      .dwpsn  file "C:/ti/controlSUITE/device_support/F2837xS/v170/F2837xS_common/source/F2837xS_SysCtrl.c"
     672 000000e0 CC25!         AND       AL,@_WdRegs+37,#0xff00 ; [CPU_] |333| 
         000000e1 FF00 
     673 000000e2 50AA          ORB       AL,#0xaa              ; [CPU_] |333| 
     674 000000e3 9625!         MOV       @_WdRegs+37,AL        ; [CPU_] |333| 
     675                      .dwpsn  file "C:/ti/controlSUITE/device_support/F2837xS/v170/F2837xS_common/source/F2837xS_SysCtrl.c"
     676 000000e4 761A   EDIS
     677                      .dwpsn  file "C:/ti/controlSUITE/device_support/F2837xS/v170/F2837xS_common/source/F2837xS_SysCtrl.c"
     678 000000e5 FF69          SPM       #0                    ; [CPU_] 
     679              $C$DW$38        .dwtag  DW_TAG_TI_branch
     680                      .dwattr $C$DW$38, DW_AT_low_pc(0x00)
     681                      .dwattr $C$DW$38, DW_AT_TI_return
     682 000000e6 0006          LRETR     ; [CPU_] 
     683                      ; return occurs ; [] 
     684                      .dwattr $C$DW$37, DW_AT_TI_end_file("C:/ti/controlSUITE/device_support/F2837xS/v170/F2837xS_common/so
     685                      .dwattr $C$DW$37, DW_AT_TI_end_line(0x14f)
     686                      .dwattr $C$DW$37, DW_AT_TI_end_column(0x01)
     687                      .dwendentry
     688                      .dwendtag $C$DW$37
     689              
     690 000000e7               .sect   ".text"
     691                      .clink
     692                      .global _DisableDog
     693              
     694              $C$DW$39        .dwtag  DW_TAG_subprogram, DW_AT_name("DisableDog")
     695                      .dwattr $C$DW$39, DW_AT_low_pc(_DisableDog)
     696                      .dwattr $C$DW$39, DW_AT_high_pc(0x00)
     697                      .dwattr $C$DW$39, DW_AT_TI_symbol_name("_DisableDog")
     698                      .dwattr $C$DW$39, DW_AT_external
     699                      .dwattr $C$DW$39, DW_AT_TI_begin_file("C:/ti/controlSUITE/device_support/F2837xS/v170/F2837xS_common/
     700                      .dwattr $C$DW$39, DW_AT_TI_begin_line(0x156)
     701                      .dwattr $C$DW$39, DW_AT_TI_begin_column(0x06)
     702                      .dwattr $C$DW$39, DW_AT_TI_max_frame_size(-4)
     703                      .dwpsn  file "C:/ti/controlSUITE/device_support/F2837xS/v170/F2837xS_common/source/F2837xS_SysCtrl.c"
TMS320C2000 Assembler PC v6.4.2 Thu Dec 14 15:26:44 2017

Tools Copyright (c) 1996-2015 Texas Instruments Incorporated
F2837xS_SysCtrl.asm                                                  PAGE   16

     704              
     705                      .dwfde $C$DW$CIE, _DisableDog
     706              
     707              ;***************************************************************
     708              ;* FNAME: _DisableDog                   FR SIZE:   2           *
     709              ;*                                                             *
     710              ;* FUNCTION ENVIRONMENT                                        *
     711              ;*                                                             *
     712              ;* FUNCTION PROPERTIES                                         *
     713              ;*                            0 Parameter,  1 Auto,  0 SOE     *
     714              ;***************************************************************
     715              
     716 000000e7       _DisableDog:
     717                      .dwcfi  cfa_offset, -2
     718                      .dwcfi  save_reg_to_mem, 26, 0
     719 000000e7 FE02          ADDB      SP,#2                 ; [CPU_U] 
     720                      .dwcfi  cfa_offset, -4
     721              $C$DW$40        .dwtag  DW_TAG_variable, DW_AT_name("temp")
     722                      .dwattr $C$DW$40, DW_AT_TI_symbol_name("_temp")
     723                      .dwattr $C$DW$40, DW_AT_type(*$C$DW$T$311)
     724                      .dwattr $C$DW$40, DW_AT_location[DW_OP_breg20 -1]
     725                      .dwpsn  file "C:/ti/controlSUITE/device_support/F2837xS/v170/F2837xS_common/source/F2837xS_SysCtrl.c"
     726 000000e8 7622   EALLOW
     727                      .dwpsn  file "C:/ti/controlSUITE/device_support/F2837xS/v170/F2837xS_common/source/F2837xS_SysCtrl.c"
     728 000000e9 761F!         MOVW      DP,#_WdRegs+41        ; [CPU_U] 
         000000ea 0000 
     729 000000eb 9229!         MOV       AL,@_WdRegs+41        ; [CPU_] |347| 
     730 000000ec 9007          ANDB      AL,#0x07              ; [CPU_] |347| 
     731 000000ed 9641          MOV       *-SP[1],AL            ; [CPU_] |347| 
     732                      .dwpsn  file "C:/ti/controlSUITE/device_support/F2837xS/v170/F2837xS_common/source/F2837xS_SysCtrl.c"
     733 000000ee 9241          MOV       AL,*-SP[1]            ; [CPU_] |348| 
     734 000000ef 5068          ORB       AL,#0x68              ; [CPU_] |348| 
     735 000000f0 9629!         MOV       @_WdRegs+41,AL        ; [CPU_] |348| 
     736                      .dwpsn  file "C:/ti/controlSUITE/device_support/F2837xS/v170/F2837xS_common/source/F2837xS_SysCtrl.c"
     737 000000f1 761A   EDIS
     738                      .dwpsn  file "C:/ti/controlSUITE/device_support/F2837xS/v170/F2837xS_common/source/F2837xS_SysCtrl.c"
     739 000000f2 FF69          SPM       #0                    ; [CPU_] 
     740 000000f3 FE82          SUBB      SP,#2                 ; [CPU_U] 
     741                      .dwcfi  cfa_offset, -2
     742              $C$DW$41        .dwtag  DW_TAG_TI_branch
     743                      .dwattr $C$DW$41, DW_AT_low_pc(0x00)
     744                      .dwattr $C$DW$41, DW_AT_TI_return
     745 000000f4 0006          LRETR     ; [CPU_] 
     746                      ; return occurs ; [] 
     747                      .dwattr $C$DW$39, DW_AT_TI_end_file("C:/ti/controlSUITE/device_support/F2837xS/v170/F2837xS_common/so
     748                      .dwattr $C$DW$39, DW_AT_TI_end_line(0x15e)
     749                      .dwattr $C$DW$39, DW_AT_TI_end_column(0x01)
     750                      .dwendentry
     751                      .dwendtag $C$DW$39
     752              
     753 000000f5               .sect   ".text"
     754                      .clink
     755                      .global _InitSysPll
     756              
     757              $C$DW$42        .dwtag  DW_TAG_subprogram, DW_AT_name("InitSysPll")
TMS320C2000 Assembler PC v6.4.2 Thu Dec 14 15:26:44 2017

Tools Copyright (c) 1996-2015 Texas Instruments Incorporated
F2837xS_SysCtrl.asm                                                  PAGE   17

     758                      .dwattr $C$DW$42, DW_AT_low_pc(_InitSysPll)
     759                      .dwattr $C$DW$42, DW_AT_high_pc(0x00)
     760                      .dwattr $C$DW$42, DW_AT_TI_symbol_name("_InitSysPll")
     761                      .dwattr $C$DW$42, DW_AT_external
     762                      .dwattr $C$DW$42, DW_AT_TI_begin_file("C:/ti/controlSUITE/device_support/F2837xS/v170/F2837xS_common/
     763                      .dwattr $C$DW$42, DW_AT_TI_begin_line(0x168)
     764                      .dwattr $C$DW$42, DW_AT_TI_begin_column(0x06)
     765                      .dwattr $C$DW$42, DW_AT_TI_max_frame_size(-8)
     766                      .dwpsn  file "C:/ti/controlSUITE/device_support/F2837xS/v170/F2837xS_common/source/F2837xS_SysCtrl.c"
     767              
     768                      .dwfde $C$DW$CIE, _InitSysPll
     769              $C$DW$43        .dwtag  DW_TAG_formal_parameter, DW_AT_name("clock_source")
     770                      .dwattr $C$DW$43, DW_AT_TI_symbol_name("_clock_source")
     771                      .dwattr $C$DW$43, DW_AT_type(*$C$DW$T$19)
     772                      .dwattr $C$DW$43, DW_AT_location[DW_OP_reg0]
     773              $C$DW$44        .dwtag  DW_TAG_formal_parameter, DW_AT_name("imult")
     774                      .dwattr $C$DW$44, DW_AT_TI_symbol_name("_imult")
     775                      .dwattr $C$DW$44, DW_AT_type(*$C$DW$T$19)
     776                      .dwattr $C$DW$44, DW_AT_location[DW_OP_reg1]
     777              $C$DW$45        .dwtag  DW_TAG_formal_parameter, DW_AT_name("fmult")
     778                      .dwattr $C$DW$45, DW_AT_TI_symbol_name("_fmult")
     779                      .dwattr $C$DW$45, DW_AT_type(*$C$DW$T$19)
     780                      .dwattr $C$DW$45, DW_AT_location[DW_OP_reg12]
     781              $C$DW$46        .dwtag  DW_TAG_formal_parameter, DW_AT_name("divsel")
     782                      .dwattr $C$DW$46, DW_AT_TI_symbol_name("_divsel")
     783                      .dwattr $C$DW$46, DW_AT_type(*$C$DW$T$19)
     784                      .dwattr $C$DW$46, DW_AT_location[DW_OP_reg14]
     785              
     786              ;***************************************************************
     787              ;* FNAME: _InitSysPll                   FR SIZE:   6           *
     788              ;*                                                             *
     789              ;* FUNCTION ENVIRONMENT                                        *
     790              ;*                                                             *
     791              ;* FUNCTION PROPERTIES                                         *
     792              ;*                            0 Parameter,  6 Auto,  0 SOE     *
     793              ;***************************************************************
     794              
     795 000000f5       _InitSysPll:
     796                      .dwcfi  cfa_offset, -2
     797                      .dwcfi  save_reg_to_mem, 26, 0
     798 000000f5 FE06          ADDB      SP,#6                 ; [CPU_U] 
     799                      .dwcfi  cfa_offset, -8
     800              $C$DW$47        .dwtag  DW_TAG_variable, DW_AT_name("clock_source")
     801                      .dwattr $C$DW$47, DW_AT_TI_symbol_name("_clock_source")
     802                      .dwattr $C$DW$47, DW_AT_type(*$C$DW$T$19)
     803                      .dwattr $C$DW$47, DW_AT_location[DW_OP_breg20 -1]
     804              $C$DW$48        .dwtag  DW_TAG_variable, DW_AT_name("imult")
     805                      .dwattr $C$DW$48, DW_AT_TI_symbol_name("_imult")
     806                      .dwattr $C$DW$48, DW_AT_type(*$C$DW$T$19)
     807                      .dwattr $C$DW$48, DW_AT_location[DW_OP_breg20 -2]
     808              $C$DW$49        .dwtag  DW_TAG_variable, DW_AT_name("fmult")
     809                      .dwattr $C$DW$49, DW_AT_TI_symbol_name("_fmult")
     810                      .dwattr $C$DW$49, DW_AT_type(*$C$DW$T$19)
     811                      .dwattr $C$DW$49, DW_AT_location[DW_OP_breg20 -3]
     812              $C$DW$50        .dwtag  DW_TAG_variable, DW_AT_name("divsel")
TMS320C2000 Assembler PC v6.4.2 Thu Dec 14 15:26:44 2017

Tools Copyright (c) 1996-2015 Texas Instruments Incorporated
F2837xS_SysCtrl.asm                                                  PAGE   18

     813                      .dwattr $C$DW$50, DW_AT_TI_symbol_name("_divsel")
     814                      .dwattr $C$DW$50, DW_AT_type(*$C$DW$T$19)
     815                      .dwattr $C$DW$50, DW_AT_location[DW_OP_breg20 -4]
     816 000000f6 7D44          MOV       *-SP[4],AR5           ; [CPU_] |361| 
     817 000000f7 7C43          MOV       *-SP[3],AR4           ; [CPU_] |361| 
     818 000000f8 9742          MOV       *-SP[2],AH            ; [CPU_] |361| 
     819 000000f9 9641          MOV       *-SP[1],AL            ; [CPU_] |361| 
     820                      .dwpsn  file "C:/ti/controlSUITE/device_support/F2837xS/v170/F2837xS_common/source/F2837xS_SysCtrl.c"
     821 000000fa 761F!         MOVW      DP,#_ClkCfgRegs+8     ; [CPU_U] 
         000000fb 0000 
     822 000000fc 8841          MOVZ      AR6,*-SP[1]           ; [CPU_] |362| 
     823 000000fd 9208!         MOV       AL,@_ClkCfgRegs+8     ; [CPU_] |362| 
     824 000000fe 9003          ANDB      AL,#0x03              ; [CPU_] |362| 
     825 000000ff 0EA9          MOVU      ACC,AL                ; [CPU_] |362| 
     826 00000100 0FA6          CMPL      ACC,XAR6              ; [CPU_] |362| 
     827 00000101 ED14          BF        $C$L2,NEQ             ; [CPU_] |362| 
     828                      ; branchcc occurs ; [] |362| 
     829 00000102 8842          MOVZ      AR6,*-SP[2]           ; [CPU_] |362| 
     830 00000103 9214!         MOV       AL,@_ClkCfgRegs+20    ; [CPU_] |362| 
     831 00000104 907F          ANDB      AL,#0x7f              ; [CPU_] |362| 
     832 00000105 0EA9          MOVU      ACC,AL                ; [CPU_] |362| 
     833 00000106 0FA6          CMPL      ACC,XAR6              ; [CPU_] |362| 
     834 00000107 ED0E          BF        $C$L2,NEQ             ; [CPU_] |362| 
     835                      ; branchcc occurs ; [] |362| 
     836 00000108 8843          MOVZ      AR6,*-SP[3]           ; [CPU_] |362| 
     837 00000109 CC14!         AND       AL,@_ClkCfgRegs+20,#0x0300 ; [CPU_] |362| 
         0000010a 0300 
     838 0000010b FFC7          LSR       AL,8                  ; [CPU_] |362| 
     839 0000010c 0EA9          MOVU      ACC,AL                ; [CPU_] |362| 
     840 0000010d 0FA6          CMPL      ACC,XAR6              ; [CPU_] |362| 
     841 0000010e ED07          BF        $C$L2,NEQ             ; [CPU_] |362| 
     842                      ; branchcc occurs ; [] |362| 
     843 0000010f 8844          MOVZ      AR6,*-SP[4]           ; [CPU_] |362| 
     844 00000110 9222!         MOV       AL,@_ClkCfgRegs+34    ; [CPU_] |362| 
     845 00000111 903F          ANDB      AL,#0x3f              ; [CPU_] |362| 
     846 00000112 0EA9          MOVU      ACC,AL                ; [CPU_] |362| 
     847 00000113 0FA6          CMPL      ACC,XAR6              ; [CPU_] |362| 
     848 00000114 EC67          BF        $C$L14,EQ             ; [CPU_] |362| 
     849                      ; branchcc occurs ; [] |362| 
     850                      .dwpsn  file "C:/ti/controlSUITE/device_support/F2837xS/v170/F2837xS_common/source/F2837xS_SysCtrl.c"
     851 00000115       $C$L2:    
     852                      .dwpsn  file "C:/ti/controlSUITE/device_support/F2837xS/v170/F2837xS_common/source/F2837xS_SysCtrl.c"
     853 00000115 8841          MOVZ      AR6,*-SP[1]           ; [CPU_] |371| 
     854 00000116 9208!         MOV       AL,@_ClkCfgRegs+8     ; [CPU_] |371| 
     855 00000117 9003          ANDB      AL,#0x03              ; [CPU_] |371| 
     856 00000118 0EA9          MOVU      ACC,AL                ; [CPU_] |371| 
     857 00000119 0FA6          CMPL      ACC,XAR6              ; [CPU_] |371| 
     858 0000011a EC11          BF        $C$L7,EQ              ; [CPU_] |371| 
     859                      ; branchcc occurs ; [] |371| 
     860                      .dwpsn  file "C:/ti/controlSUITE/device_support/F2837xS/v170/F2837xS_common/source/F2837xS_SysCtrl.c"
     861 0000011b 6F0A          B         $C$L6,UNC             ; [CPU_] |373| 
     862                      ; branch occurs ; [] |373| 
     863 0000011c       $C$L3:    
     864                      .dwpsn  file "C:/ti/controlSUITE/device_support/F2837xS/v170/F2837xS_common/source/F2837xS_SysCtrl.c"
     865              $C$DW$51        .dwtag  DW_TAG_TI_branch
TMS320C2000 Assembler PC v6.4.2 Thu Dec 14 15:26:44 2017

Tools Copyright (c) 1996-2015 Texas Instruments Incorporated
F2837xS_SysCtrl.asm                                                  PAGE   19

     866                      .dwattr $C$DW$51, DW_AT_low_pc(0x00)
     867                      .dwattr $C$DW$51, DW_AT_name("_SysIntOsc1Sel")
     868                      .dwattr $C$DW$51, DW_AT_TI_call
     869 0000011c 7640'         LCR       #_SysIntOsc1Sel       ; [CPU_] |376| 
         0000011d 0236 
     870                      ; call occurs [#_SysIntOsc1Sel] ; [] |376| 
     871                      .dwpsn  file "C:/ti/controlSUITE/device_support/F2837xS/v170/F2837xS_common/source/F2837xS_SysCtrl.c"
     872 0000011e 6F0D          B         $C$L7,UNC             ; [CPU_] |377| 
     873                      ; branch occurs ; [] |377| 
     874 0000011f       $C$L4:    
     875                      .dwpsn  file "C:/ti/controlSUITE/device_support/F2837xS/v170/F2837xS_common/source/F2837xS_SysCtrl.c"
     876              $C$DW$52        .dwtag  DW_TAG_TI_branch
     877                      .dwattr $C$DW$52, DW_AT_low_pc(0x00)
     878                      .dwattr $C$DW$52, DW_AT_name("_SysIntOsc2Sel")
     879                      .dwattr $C$DW$52, DW_AT_TI_call
     880 0000011f 7640'         LCR       #_SysIntOsc2Sel       ; [CPU_] |380| 
         00000120 0240 
     881                      ; call occurs [#_SysIntOsc2Sel] ; [] |380| 
     882                      .dwpsn  file "C:/ti/controlSUITE/device_support/F2837xS/v170/F2837xS_common/source/F2837xS_SysCtrl.c"
     883 00000121 6F0A          B         $C$L7,UNC             ; [CPU_] |381| 
     884                      ; branch occurs ; [] |381| 
     885 00000122       $C$L5:    
     886                      .dwpsn  file "C:/ti/controlSUITE/device_support/F2837xS/v170/F2837xS_common/source/F2837xS_SysCtrl.c"
     887              $C$DW$53        .dwtag  DW_TAG_TI_branch
     888                      .dwattr $C$DW$53, DW_AT_low_pc(0x00)
     889                      .dwattr $C$DW$53, DW_AT_name("_SysXtalOscSel")
     890                      .dwattr $C$DW$53, DW_AT_TI_call
     891 00000122 7640'         LCR       #_SysXtalOscSel       ; [CPU_] |384| 
         00000123 024A 
     892                      ; call occurs [#_SysXtalOscSel] ; [] |384| 
     893                      .dwpsn  file "C:/ti/controlSUITE/device_support/F2837xS/v170/F2837xS_common/source/F2837xS_SysCtrl.c"
     894 00000124 6F07          B         $C$L7,UNC             ; [CPU_] |385| 
     895                      ; branch occurs ; [] |385| 
     896 00000125       $C$L6:    
     897                      .dwpsn  file "C:/ti/controlSUITE/device_support/F2837xS/v170/F2837xS_common/source/F2837xS_SysCtrl.c"
     898 00000125 9241          MOV       AL,*-SP[1]            ; [CPU_] |373| 
     899 00000126 ECF9          BF        $C$L4,EQ              ; [CPU_] |373| 
     900                      ; branchcc occurs ; [] |373| 
     901 00000127 5201          CMPB      AL,#1                 ; [CPU_] |373| 
     902 00000128 ECFA          BF        $C$L5,EQ              ; [CPU_] |373| 
     903                      ; branchcc occurs ; [] |373| 
     904 00000129 5202          CMPB      AL,#2                 ; [CPU_] |373| 
     905 0000012a ECF2          BF        $C$L3,EQ              ; [CPU_] |373| 
     906                      ; branchcc occurs ; [] |373| 
     907 0000012b       $C$L7:    
     908                      .dwpsn  file "C:/ti/controlSUITE/device_support/F2837xS/v170/F2837xS_common/source/F2837xS_SysCtrl.c"
     909 0000012b 7622   EALLOW
     910                      .dwpsn  file "C:/ti/controlSUITE/device_support/F2837xS/v170/F2837xS_common/source/F2837xS_SysCtrl.c"
     911 0000012c 761F!         MOVW      DP,#_ClkCfgRegs+20    ; [CPU_U] 
         0000012d 0000 
     912 0000012e 8842          MOVZ      AR6,*-SP[2]           ; [CPU_] |391| 
     913 0000012f 9214!         MOV       AL,@_ClkCfgRegs+20    ; [CPU_] |391| 
     914 00000130 907F          ANDB      AL,#0x7f              ; [CPU_] |391| 
     915 00000131 0EA9          MOVU      ACC,AL                ; [CPU_] |391| 
     916 00000132 0FA6          CMPL      ACC,XAR6              ; [CPU_] |391| 
TMS320C2000 Assembler PC v6.4.2 Thu Dec 14 15:26:44 2017

Tools Copyright (c) 1996-2015 Texas Instruments Incorporated
F2837xS_SysCtrl.asm                                                  PAGE   20

     917 00000133 ED08          BF        $C$L8,NEQ             ; [CPU_] |391| 
     918                      ; branchcc occurs ; [] |391| 
     919 00000134 8843          MOVZ      AR6,*-SP[3]           ; [CPU_] |391| 
     920 00000135 CC14!         AND       AL,@_ClkCfgRegs+20,#0x0300 ; [CPU_] |391| 
         00000136 0300 
     921 00000137 FFC7          LSR       AL,8                  ; [CPU_] |391| 
     922 00000138 0EA9          MOVU      ACC,AL                ; [CPU_] |391| 
     923 00000139 0FA6          CMPL      ACC,XAR6              ; [CPU_] |391| 
     924 0000013a EC27          BF        $C$L11,EQ             ; [CPU_] |391| 
     925                      ; branchcc occurs ; [] |391| 
     926 0000013b       $C$L8:    
     927              
     928              $C$DW$54        .dwtag  DW_TAG_lexical_block, DW_AT_low_pc(0x00), DW_AT_high_pc(0x00)
     929              $C$DW$55        .dwtag  DW_TAG_variable, DW_AT_name("temp_syspllmult")
     930                      .dwattr $C$DW$55, DW_AT_TI_symbol_name("_temp_syspllmult")
     931                      .dwattr $C$DW$55, DW_AT_type(*$C$DW$T$27)
     932                      .dwattr $C$DW$55, DW_AT_location[DW_OP_breg20 -6]
     933                      .dwpsn  file "C:/ti/controlSUITE/device_support/F2837xS/v170/F2837xS_common/source/F2837xS_SysCtrl.c"
     934 0000013b 180E!         AND       @_ClkCfgRegs+14,#0xfffd ; [CPU_] |394| 
         0000013c FFFD 
     935                      .dwpsn  file "C:/ti/controlSUITE/device_support/F2837xS/v170/F2837xS_common/source/F2837xS_SysCtrl.c"
     936 0000013d 1822!         AND       @_ClkCfgRegs+34,#0xffc0 ; [CPU_] |395| 
         0000013e FFC0 
     937                      .dwpsn  file "C:/ti/controlSUITE/device_support/F2837xS/v170/F2837xS_common/source/F2837xS_SysCtrl.c"
     938 0000013f 0614!         MOVL      ACC,@_ClkCfgRegs+20   ; [CPU_] |398| 
     939 00000140 1E46          MOVL      *-SP[6],ACC           ; [CPU_] |398| 
     940                      .dwpsn  file "C:/ti/controlSUITE/device_support/F2837xS/v170/F2837xS_common/source/F2837xS_SysCtrl.c"
     941 00000141 8F00          MOVL      XAR4,#64640           ; [CPU_U] |399| 
         00000142 FC80 
     942 00000143 A8AB          MOVL      P,XAR4                ; [CPU_] |399| 
     943 00000144 93AB          MOV       AH,PL                 ; [CPU_] |399| 
     944 00000145 92AA          MOV       AL,PH                 ; [CPU_] |399| 
     945 00000146 CF46          AND       AH,*-SP[6]            ; [CPU_] |399| 
     946 00000147 CE45          AND       AL,*-SP[5]            ; [CPU_] |399| 
     947 00000148 27A8          MOV       PL,AH                 ; [CPU_] |399| 
     948 00000149 2FA9          MOV       PH,AL                 ; [CPU_] |399| 
     949 0000014a 5603          MOV       ACC,*-SP[3] << #8     ; [CPU_] |399| 
         0000014b 0843 
     950 0000014c CA42          OR        AL,*-SP[2]            ; [CPU_] |399| 
     951 0000014d 88A9          MOVZ      AR6,AL                ; [CPU_] |399| 
     952 0000014e A9A9          MOVL      ACC,P                 ; [CPU_] |399| 
     953 0000014f AFA6          OR        ACC,AR6               ; [CPU_] |399| 
     954 00000150 1E14!         MOVL      @_ClkCfgRegs+20,ACC   ; [CPU_] |399| 
     955                      .dwpsn  file "C:/ti/controlSUITE/device_support/F2837xS/v170/F2837xS_common/source/F2837xS_SysCtrl.c"
     956 00000151 1A0E!         OR        @_ClkCfgRegs+14,#0x0001 ; [CPU_] |402| 
         00000152 0001 
     957                      .dwpsn  file "C:/ti/controlSUITE/device_support/F2837xS/v170/F2837xS_common/source/F2837xS_SysCtrl.c"
     958 00000153       $C$L9:    
     959                      .dwpsn  file "C:/ti/controlSUITE/device_support/F2837xS/v170/F2837xS_common/source/F2837xS_SysCtrl.c"
     960 00000153 9216!         MOV       AL,@_ClkCfgRegs+22    ; [CPU_] |405| 
     961 00000154 9001          ANDB      AL,#0x01              ; [CPU_] |405| 
     962 00000155 5201          CMPB      AL,#1                 ; [CPU_] |405| 
     963 00000156 EDFD          BF        $C$L9,NEQ             ; [CPU_] |405| 
     964                      ; branchcc occurs ; [] |405| 
     965                      .dwpsn  file "C:/ti/controlSUITE/device_support/F2837xS/v170/F2837xS_common/source/F2837xS_SysCtrl.c"
TMS320C2000 Assembler PC v6.4.2 Thu Dec 14 15:26:44 2017

Tools Copyright (c) 1996-2015 Texas Instruments Incorporated
F2837xS_SysCtrl.asm                                                  PAGE   21

     966 00000157 9242          MOV       AL,*-SP[2]            ; [CPU_] |413| 
     967 00000158 CD14!         AND       AH,@_ClkCfgRegs+20,#0xff80 ; [CPU_] |413| 
         00000159 FF80 
     968 0000015a 907F          ANDB      AL,#0x7f              ; [CPU_] |413| 
     969 0000015b CAA8          OR        AL,AH                 ; [CPU_] |413| 
     970 0000015c 9614!         MOV       @_ClkCfgRegs+20,AL    ; [CPU_] |413| 
     971                      .dwpsn  file "C:/ti/controlSUITE/device_support/F2837xS/v170/F2837xS_common/source/F2837xS_SysCtrl.c"
     972 0000015d       $C$L10:    
     973                      .dwpsn  file "C:/ti/controlSUITE/device_support/F2837xS/v170/F2837xS_common/source/F2837xS_SysCtrl.c"
     974 0000015d 9216!         MOV       AL,@_ClkCfgRegs+22    ; [CPU_] |416| 
     975 0000015e 9001          ANDB      AL,#0x01              ; [CPU_] |416| 
     976 0000015f 5201          CMPB      AL,#1                 ; [CPU_] |416| 
     977 00000160 EDFD          BF        $C$L10,NEQ            ; [CPU_] |416| 
     978                      ; branchcc occurs ; [] |416| 
     979                      .dwendtag $C$DW$54
     980              
     981 00000161       $C$L11:    
     982                      .dwpsn  file "C:/ti/controlSUITE/device_support/F2837xS/v170/F2837xS_common/source/F2837xS_SysCtrl.c"
     983 00000161 9244          MOV       AL,*-SP[4]            ; [CPU_] |424| 
     984 00000162 523F          CMPB      AL,#63                ; [CPU_] |424| 
     985 00000163 EC08          BF        $C$L12,EQ             ; [CPU_] |424| 
     986                      ; branchcc occurs ; [] |424| 
     987                      .dwpsn  file "C:/ti/controlSUITE/device_support/F2837xS/v170/F2837xS_common/source/F2837xS_SysCtrl.c"
     988 00000164 9C01          ADDB      AL,#1                 ; [CPU_] |426| 
     989 00000165 CD22!         AND       AH,@_ClkCfgRegs+34,#0xffc0 ; [CPU_] |426| 
         00000166 FFC0 
     990 00000167 903F          ANDB      AL,#0x3f              ; [CPU_] |426| 
     991 00000168 CAA8          OR        AL,AH                 ; [CPU_] |426| 
     992 00000169 9622!         MOV       @_ClkCfgRegs+34,AL    ; [CPU_] |426| 
     993                      .dwpsn  file "C:/ti/controlSUITE/device_support/F2837xS/v170/F2837xS_common/source/F2837xS_SysCtrl.c"
     994 0000016a 6F06          B         $C$L13,UNC            ; [CPU_] |427| 
     995                      ; branch occurs ; [] |427| 
     996 0000016b       $C$L12:    
     997                      .dwpsn  file "C:/ti/controlSUITE/device_support/F2837xS/v170/F2837xS_common/source/F2837xS_SysCtrl.c"
     998 0000016b CD22!         AND       AH,@_ClkCfgRegs+34,#0xffc0 ; [CPU_] |429| 
         0000016c FFC0 
     999 0000016d 903F          ANDB      AL,#0x3f              ; [CPU_] |429| 
    1000 0000016e CAA8          OR        AL,AH                 ; [CPU_] |429| 
    1001 0000016f 9622!         MOV       @_ClkCfgRegs+34,AL    ; [CPU_] |429| 
    1002 00000170       $C$L13:    
    1003                      .dwpsn  file "C:/ti/controlSUITE/device_support/F2837xS/v170/F2837xS_common/source/F2837xS_SysCtrl.c"
    1004 00000170 1A0E!         OR        @_ClkCfgRegs+14,#0x0002 ; [CPU_] |433| 
         00000171 0002 
    1005                      .dwpsn  file "C:/ti/controlSUITE/device_support/F2837xS/v170/F2837xS_common/source/F2837xS_SysCtrl.c"
    1006 00000172 F664   RPT #100 || NOP
         00000173 7700 
    1007                      .dwpsn  file "C:/ti/controlSUITE/device_support/F2837xS/v170/F2837xS_common/source/F2837xS_SysCtrl.c"
    1008 00000174 9244          MOV       AL,*-SP[4]            ; [CPU_] |439| 
    1009 00000175 CD22!         AND       AH,@_ClkCfgRegs+34,#0xffc0 ; [CPU_] |439| 
         00000176 FFC0 
    1010 00000177 903F          ANDB      AL,#0x3f              ; [CPU_] |439| 
    1011 00000178 CAA8          OR        AL,AH                 ; [CPU_] |439| 
    1012 00000179 9622!         MOV       @_ClkCfgRegs+34,AL    ; [CPU_] |439| 
    1013                      .dwpsn  file "C:/ti/controlSUITE/device_support/F2837xS/v170/F2837xS_common/source/F2837xS_SysCtrl.c"
    1014 0000017a 761A   EDIS
TMS320C2000 Assembler PC v6.4.2 Thu Dec 14 15:26:44 2017

Tools Copyright (c) 1996-2015 Texas Instruments Incorporated
F2837xS_SysCtrl.asm                                                  PAGE   22

    1015                      .dwpsn  file "C:/ti/controlSUITE/device_support/F2837xS/v170/F2837xS_common/source/F2837xS_SysCtrl.c"
    1016 0000017b       $C$L14:    
    1017 0000017b FE86          SUBB      SP,#6                 ; [CPU_U] 
    1018                      .dwcfi  cfa_offset, -2
    1019 0000017c FF69          SPM       #0                    ; [CPU_] 
    1020              $C$DW$56        .dwtag  DW_TAG_TI_branch
    1021                      .dwattr $C$DW$56, DW_AT_low_pc(0x00)
    1022                      .dwattr $C$DW$56, DW_AT_TI_return
    1023 0000017d 0006          LRETR     ; [CPU_] 
    1024                      ; return occurs ; [] 
    1025                      .dwattr $C$DW$42, DW_AT_TI_end_file("C:/ti/controlSUITE/device_support/F2837xS/v170/F2837xS_common/so
    1026                      .dwattr $C$DW$42, DW_AT_TI_end_line(0x1b9)
    1027                      .dwattr $C$DW$42, DW_AT_TI_end_column(0x01)
    1028                      .dwendentry
    1029                      .dwendtag $C$DW$42
    1030              
    1031 0000017e               .sect   ".text"
    1032                      .clink
    1033                      .global _InitAuxPll
    1034              
    1035              $C$DW$57        .dwtag  DW_TAG_subprogram, DW_AT_name("InitAuxPll")
    1036                      .dwattr $C$DW$57, DW_AT_low_pc(_InitAuxPll)
    1037                      .dwattr $C$DW$57, DW_AT_high_pc(0x00)
    1038                      .dwattr $C$DW$57, DW_AT_TI_symbol_name("_InitAuxPll")
    1039                      .dwattr $C$DW$57, DW_AT_external
    1040                      .dwattr $C$DW$57, DW_AT_TI_begin_file("C:/ti/controlSUITE/device_support/F2837xS/v170/F2837xS_common/
    1041                      .dwattr $C$DW$57, DW_AT_TI_begin_line(0x1c4)
    1042                      .dwattr $C$DW$57, DW_AT_TI_begin_column(0x06)
    1043                      .dwattr $C$DW$57, DW_AT_TI_max_frame_size(-10)
    1044                      .dwpsn  file "C:/ti/controlSUITE/device_support/F2837xS/v170/F2837xS_common/source/F2837xS_SysCtrl.c"
    1045              
    1046                      .dwfde $C$DW$CIE, _InitAuxPll
    1047              $C$DW$58        .dwtag  DW_TAG_formal_parameter, DW_AT_name("clock_source")
    1048                      .dwattr $C$DW$58, DW_AT_TI_symbol_name("_clock_source")
    1049                      .dwattr $C$DW$58, DW_AT_type(*$C$DW$T$19)
    1050                      .dwattr $C$DW$58, DW_AT_location[DW_OP_reg0]
    1051              $C$DW$59        .dwtag  DW_TAG_formal_parameter, DW_AT_name("imult")
    1052                      .dwattr $C$DW$59, DW_AT_TI_symbol_name("_imult")
    1053                      .dwattr $C$DW$59, DW_AT_type(*$C$DW$T$19)
    1054                      .dwattr $C$DW$59, DW_AT_location[DW_OP_reg1]
    1055              $C$DW$60        .dwtag  DW_TAG_formal_parameter, DW_AT_name("fmult")
    1056                      .dwattr $C$DW$60, DW_AT_TI_symbol_name("_fmult")
    1057                      .dwattr $C$DW$60, DW_AT_type(*$C$DW$T$19)
    1058                      .dwattr $C$DW$60, DW_AT_location[DW_OP_reg12]
    1059              $C$DW$61        .dwtag  DW_TAG_formal_parameter, DW_AT_name("divsel")
    1060                      .dwattr $C$DW$61, DW_AT_TI_symbol_name("_divsel")
    1061                      .dwattr $C$DW$61, DW_AT_type(*$C$DW$T$19)
    1062                      .dwattr $C$DW$61, DW_AT_location[DW_OP_reg14]
    1063              
    1064              ;***************************************************************
    1065              ;* FNAME: _InitAuxPll                   FR SIZE:   8           *
    1066              ;*                                                             *
    1067              ;* FUNCTION ENVIRONMENT                                        *
    1068              ;*                                                             *
    1069              ;* FUNCTION PROPERTIES                                         *
TMS320C2000 Assembler PC v6.4.2 Thu Dec 14 15:26:44 2017

Tools Copyright (c) 1996-2015 Texas Instruments Incorporated
F2837xS_SysCtrl.asm                                                  PAGE   23

    1070              ;*                            0 Parameter,  8 Auto,  0 SOE     *
    1071              ;***************************************************************
    1072              
    1073 0000017e       _InitAuxPll:
    1074                      .dwcfi  cfa_offset, -2
    1075                      .dwcfi  save_reg_to_mem, 26, 0
    1076 0000017e FE08          ADDB      SP,#8                 ; [CPU_U] 
    1077                      .dwcfi  cfa_offset, -10
    1078              $C$DW$62        .dwtag  DW_TAG_variable, DW_AT_name("clock_source")
    1079                      .dwattr $C$DW$62, DW_AT_TI_symbol_name("_clock_source")
    1080                      .dwattr $C$DW$62, DW_AT_type(*$C$DW$T$19)
    1081                      .dwattr $C$DW$62, DW_AT_location[DW_OP_breg20 -1]
    1082              $C$DW$63        .dwtag  DW_TAG_variable, DW_AT_name("imult")
    1083                      .dwattr $C$DW$63, DW_AT_TI_symbol_name("_imult")
    1084                      .dwattr $C$DW$63, DW_AT_type(*$C$DW$T$19)
    1085                      .dwattr $C$DW$63, DW_AT_location[DW_OP_breg20 -2]
    1086              $C$DW$64        .dwtag  DW_TAG_variable, DW_AT_name("fmult")
    1087                      .dwattr $C$DW$64, DW_AT_TI_symbol_name("_fmult")
    1088                      .dwattr $C$DW$64, DW_AT_type(*$C$DW$T$19)
    1089                      .dwattr $C$DW$64, DW_AT_location[DW_OP_breg20 -3]
    1090              $C$DW$65        .dwtag  DW_TAG_variable, DW_AT_name("divsel")
    1091                      .dwattr $C$DW$65, DW_AT_TI_symbol_name("_divsel")
    1092                      .dwattr $C$DW$65, DW_AT_type(*$C$DW$T$19)
    1093                      .dwattr $C$DW$65, DW_AT_location[DW_OP_breg20 -4]
    1094              $C$DW$66        .dwtag  DW_TAG_variable, DW_AT_name("temp_divsel")
    1095                      .dwattr $C$DW$66, DW_AT_TI_symbol_name("_temp_divsel")
    1096                      .dwattr $C$DW$66, DW_AT_type(*$C$DW$T$19)
    1097                      .dwattr $C$DW$66, DW_AT_location[DW_OP_breg20 -5]
    1098 0000017f 7D44          MOV       *-SP[4],AR5           ; [CPU_] |453| 
    1099 00000180 7C43          MOV       *-SP[3],AR4           ; [CPU_] |453| 
    1100 00000181 9742          MOV       *-SP[2],AH            ; [CPU_] |453| 
    1101 00000182 9641          MOV       *-SP[1],AL            ; [CPU_] |453| 
    1102                      .dwpsn  file "C:/ti/controlSUITE/device_support/F2837xS/v170/F2837xS_common/source/F2837xS_SysCtrl.c"
    1103 00000183 761F!         MOVW      DP,#_ClkCfgRegs+10    ; [CPU_U] 
         00000184 0000 
    1104 00000185 8841          MOVZ      AR6,*-SP[1]           ; [CPU_] |456| 
    1105 00000186 920A!         MOV       AL,@_ClkCfgRegs+10    ; [CPU_] |456| 
    1106 00000187 9003          ANDB      AL,#0x03              ; [CPU_] |456| 
    1107 00000188 0EA9          MOVU      ACC,AL                ; [CPU_] |456| 
    1108 00000189 0FA6          CMPL      ACC,XAR6              ; [CPU_] |456| 
    1109 0000018a ED1E          BF        $C$L18,NEQ            ; [CPU_] |456| 
    1110                      ; branchcc occurs ; [] |456| 
    1111 0000018b 8842          MOVZ      AR6,*-SP[2]           ; [CPU_] |456| 
    1112 0000018c 921E!         MOV       AL,@_ClkCfgRegs+30    ; [CPU_] |456| 
    1113 0000018d 907F          ANDB      AL,#0x7f              ; [CPU_] |456| 
    1114 0000018e 0EA9          MOVU      ACC,AL                ; [CPU_] |456| 
    1115 0000018f 0FA6          CMPL      ACC,XAR6              ; [CPU_] |456| 
    1116 00000190 ED18          BF        $C$L18,NEQ            ; [CPU_] |456| 
    1117                      ; branchcc occurs ; [] |456| 
    1118 00000191 8843          MOVZ      AR6,*-SP[3]           ; [CPU_] |456| 
    1119 00000192 CC1E!         AND       AL,@_ClkCfgRegs+30,#0x0300 ; [CPU_] |456| 
         00000193 0300 
    1120 00000194 FFC7          LSR       AL,8                  ; [CPU_] |456| 
    1121 00000195 0EA9          MOVU      ACC,AL                ; [CPU_] |456| 
    1122 00000196 0FA6          CMPL      ACC,XAR6              ; [CPU_] |456| 
TMS320C2000 Assembler PC v6.4.2 Thu Dec 14 15:26:44 2017

Tools Copyright (c) 1996-2015 Texas Instruments Incorporated
F2837xS_SysCtrl.asm                                                  PAGE   24

    1123 00000197 ED11          BF        $C$L18,NEQ            ; [CPU_] |456| 
    1124                      ; branchcc occurs ; [] |456| 
    1125 00000198 8844          MOVZ      AR6,*-SP[4]           ; [CPU_] |456| 
    1126 00000199 9224!         MOV       AL,@_ClkCfgRegs+36    ; [CPU_] |456| 
    1127 0000019a 9003          ANDB      AL,#0x03              ; [CPU_] |456| 
    1128 0000019b 0EA9          MOVU      ACC,AL                ; [CPU_] |456| 
    1129 0000019c 0FA6          CMPL      ACC,XAR6              ; [CPU_] |456| 
    1130 0000019d EC75          BF        $C$L26,EQ             ; [CPU_] |456| 
    1131                      ; branchcc occurs ; [] |456| 
    1132                      .dwpsn  file "C:/ti/controlSUITE/device_support/F2837xS/v170/F2837xS_common/source/F2837xS_SysCtrl.c"
    1133                      .dwpsn  file "C:/ti/controlSUITE/device_support/F2837xS/v170/F2837xS_common/source/F2837xS_SysCtrl.c"
    1134 0000019e 6F0A          B         $C$L18,UNC            ; [CPU_] |465| 
    1135                      ; branch occurs ; [] |465| 
    1136 0000019f       $C$L15:    
    1137                      .dwpsn  file "C:/ti/controlSUITE/device_support/F2837xS/v170/F2837xS_common/source/F2837xS_SysCtrl.c"
    1138              $C$DW$67        .dwtag  DW_TAG_TI_branch
    1139                      .dwattr $C$DW$67, DW_AT_low_pc(0x00)
    1140                      .dwattr $C$DW$67, DW_AT_name("_AuxIntOsc2Sel")
    1141                      .dwattr $C$DW$67, DW_AT_TI_call
    1142 0000019f 7640'         LCR       #_AuxIntOsc2Sel       ; [CPU_] |469| 
         000001a0 0256 
    1143                      ; call occurs [#_AuxIntOsc2Sel] ; [] |469| 
    1144                      .dwpsn  file "C:/ti/controlSUITE/device_support/F2837xS/v170/F2837xS_common/source/F2837xS_SysCtrl.c"
    1145 000001a1 6F0D          B         $C$L19,UNC            ; [CPU_] |470| 
    1146                      ; branch occurs ; [] |470| 
    1147 000001a2       $C$L16:    
    1148                      .dwpsn  file "C:/ti/controlSUITE/device_support/F2837xS/v170/F2837xS_common/source/F2837xS_SysCtrl.c"
    1149              $C$DW$68        .dwtag  DW_TAG_TI_branch
    1150                      .dwattr $C$DW$68, DW_AT_low_pc(0x00)
    1151                      .dwattr $C$DW$68, DW_AT_name("_AuxXtalOscSel")
    1152                      .dwattr $C$DW$68, DW_AT_TI_call
    1153 000001a2 7640'         LCR       #_AuxXtalOscSel       ; [CPU_] |473| 
         000001a3 0260 
    1154                      ; call occurs [#_AuxXtalOscSel] ; [] |473| 
    1155                      .dwpsn  file "C:/ti/controlSUITE/device_support/F2837xS/v170/F2837xS_common/source/F2837xS_SysCtrl.c"
    1156 000001a4 6F0A          B         $C$L19,UNC            ; [CPU_] |474| 
    1157                      ; branch occurs ; [] |474| 
    1158 000001a5       $C$L17:    
    1159                      .dwpsn  file "C:/ti/controlSUITE/device_support/F2837xS/v170/F2837xS_common/source/F2837xS_SysCtrl.c"
    1160              $C$DW$69        .dwtag  DW_TAG_TI_branch
    1161                      .dwattr $C$DW$69, DW_AT_low_pc(0x00)
    1162                      .dwattr $C$DW$69, DW_AT_name("_AuxAuxClkSel")
    1163                      .dwattr $C$DW$69, DW_AT_TI_call
    1164 000001a5 7640'         LCR       #_AuxAuxClkSel        ; [CPU_] |477| 
         000001a6 026C 
    1165                      ; call occurs [#_AuxAuxClkSel] ; [] |477| 
    1166                      .dwpsn  file "C:/ti/controlSUITE/device_support/F2837xS/v170/F2837xS_common/source/F2837xS_SysCtrl.c"
    1167 000001a7 6F07          B         $C$L19,UNC            ; [CPU_] |478| 
    1168                      ; branch occurs ; [] |478| 
    1169 000001a8       $C$L18:    
    1170                      .dwpsn  file "C:/ti/controlSUITE/device_support/F2837xS/v170/F2837xS_common/source/F2837xS_SysCtrl.c"
    1171 000001a8 9241          MOV       AL,*-SP[1]            ; [CPU_] |465| 
    1172 000001a9 ECF6          BF        $C$L15,EQ             ; [CPU_] |465| 
    1173                      ; branchcc occurs ; [] |465| 
    1174 000001aa 5201          CMPB      AL,#1                 ; [CPU_] |465| 
TMS320C2000 Assembler PC v6.4.2 Thu Dec 14 15:26:44 2017

Tools Copyright (c) 1996-2015 Texas Instruments Incorporated
F2837xS_SysCtrl.asm                                                  PAGE   25

    1175 000001ab ECF7          BF        $C$L16,EQ             ; [CPU_] |465| 
    1176                      ; branchcc occurs ; [] |465| 
    1177 000001ac 5204          CMPB      AL,#4                 ; [CPU_] |465| 
    1178 000001ad ECF8          BF        $C$L17,EQ             ; [CPU_] |465| 
    1179                      ; branchcc occurs ; [] |465| 
    1180 000001ae       $C$L19:    
    1181                      .dwpsn  file "C:/ti/controlSUITE/device_support/F2837xS/v170/F2837xS_common/source/F2837xS_SysCtrl.c"
    1182 000001ae 0E42          MOVU      ACC,*-SP[2]           ; [CPU_] |483| 
    1183 000001af 761F!         MOVW      DP,#_ClkCfgRegs+30    ; [CPU_U] 
         000001b0 0000 
    1184 000001b1 1EA6          MOVL      XAR6,ACC              ; [CPU_] |483| 
    1185 000001b2 921E!         MOV       AL,@_ClkCfgRegs+30    ; [CPU_] |483| 
    1186 000001b3 907F          ANDB      AL,#0x7f              ; [CPU_] |483| 
    1187 000001b4 80A9          MOVZ      AR7,AL                ; [CPU_] |483| 
    1188 000001b5 06A6          MOVL      ACC,XAR6              ; [CPU_] |483| 
    1189 000001b6 0FA7          CMPL      ACC,XAR7              ; [CPU_] |483| 
    1190 000001b7 ED0A          BF        $C$L20,NEQ            ; [CPU_] |483| 
    1191                      ; branchcc occurs ; [] |483| 
    1192 000001b8 0E43          MOVU      ACC,*-SP[3]           ; [CPU_] |483| 
    1193 000001b9 1EA6          MOVL      XAR6,ACC              ; [CPU_] |483| 
    1194 000001ba CC1E!         AND       AL,@_ClkCfgRegs+30,#0x0300 ; [CPU_] |483| 
         000001bb 0300 
    1195 000001bc FFC7          LSR       AL,8                  ; [CPU_] |483| 
    1196 000001bd 80A9          MOVZ      AR7,AL                ; [CPU_] |483| 
    1197 000001be 06A6          MOVL      ACC,XAR6              ; [CPU_] |483| 
    1198 000001bf 0FA7          CMPL      ACC,XAR7              ; [CPU_] |483| 
    1199 000001c0 EC29          BF        $C$L23,EQ             ; [CPU_] |483| 
    1200                      ; branchcc occurs ; [] |483| 
    1201 000001c1       $C$L20:    
    1202              
    1203              $C$DW$70        .dwtag  DW_TAG_lexical_block, DW_AT_low_pc(0x00), DW_AT_high_pc(0x00)
    1204              $C$DW$71        .dwtag  DW_TAG_variable, DW_AT_name("temp_auxpllmult")
    1205                      .dwattr $C$DW$71, DW_AT_TI_symbol_name("_temp_auxpllmult")
    1206                      .dwattr $C$DW$71, DW_AT_type(*$C$DW$T$27)
    1207                      .dwattr $C$DW$71, DW_AT_location[DW_OP_breg20 -8]
    1208                      .dwpsn  file "C:/ti/controlSUITE/device_support/F2837xS/v170/F2837xS_common/source/F2837xS_SysCtrl.c"
    1209 000001c1 7622   EALLOW
    1210                      .dwpsn  file "C:/ti/controlSUITE/device_support/F2837xS/v170/F2837xS_common/source/F2837xS_SysCtrl.c"
    1211 000001c2 1A24!         OR        @_ClkCfgRegs+36,#0x0003 ; [CPU_] |486| 
         000001c3 0003 
    1212                      .dwpsn  file "C:/ti/controlSUITE/device_support/F2837xS/v170/F2837xS_common/source/F2837xS_SysCtrl.c"
    1213 000001c4 061E!         MOVL      ACC,@_ClkCfgRegs+30   ; [CPU_] |489| 
    1214 000001c5 1E48          MOVL      *-SP[8],ACC           ; [CPU_] |489| 
    1215                      .dwpsn  file "C:/ti/controlSUITE/device_support/F2837xS/v170/F2837xS_common/source/F2837xS_SysCtrl.c"
    1216 000001c6 8F00          MOVL      XAR4,#64640           ; [CPU_U] |490| 
         000001c7 FC80 
    1217 000001c8 A8AB          MOVL      P,XAR4                ; [CPU_] |490| 
    1218 000001c9 93AB          MOV       AH,PL                 ; [CPU_] |490| 
    1219 000001ca 92AA          MOV       AL,PH                 ; [CPU_] |490| 
    1220 000001cb CF48          AND       AH,*-SP[8]            ; [CPU_] |490| 
    1221 000001cc CE47          AND       AL,*-SP[7]            ; [CPU_] |490| 
    1222 000001cd 27A8          MOV       PL,AH                 ; [CPU_] |490| 
    1223 000001ce 2FA9          MOV       PH,AL                 ; [CPU_] |490| 
    1224 000001cf 5603          MOV       ACC,*-SP[3] << #8     ; [CPU_] |490| 
         000001d0 0843 
TMS320C2000 Assembler PC v6.4.2 Thu Dec 14 15:26:44 2017

Tools Copyright (c) 1996-2015 Texas Instruments Incorporated
F2837xS_SysCtrl.asm                                                  PAGE   26

    1225 000001d1 CA42          OR        AL,*-SP[2]            ; [CPU_] |490| 
    1226 000001d2 88A9          MOVZ      AR6,AL                ; [CPU_] |490| 
    1227 000001d3 A9A9          MOVL      ACC,P                 ; [CPU_] |490| 
    1228 000001d4 AFA6          OR        ACC,AR6               ; [CPU_] |490| 
    1229 000001d5 1E1E!         MOVL      @_ClkCfgRegs+30,ACC   ; [CPU_] |490| 
    1230                      .dwpsn  file "C:/ti/controlSUITE/device_support/F2837xS/v170/F2837xS_common/source/F2837xS_SysCtrl.c"
    1231 000001d6 1A18!         OR        @_ClkCfgRegs+24,#0x0001 ; [CPU_] |493| 
         000001d7 0001 
    1232                      .dwpsn  file "C:/ti/controlSUITE/device_support/F2837xS/v170/F2837xS_common/source/F2837xS_SysCtrl.c"
    1233 000001d8 761A   EDIS
    1234                      .dwpsn  file "C:/ti/controlSUITE/device_support/F2837xS/v170/F2837xS_common/source/F2837xS_SysCtrl.c"
    1235 000001d9       $C$L21:    
    1236                      .dwpsn  file "C:/ti/controlSUITE/device_support/F2837xS/v170/F2837xS_common/source/F2837xS_SysCtrl.c"
    1237 000001d9 9220!         MOV       AL,@_ClkCfgRegs+32    ; [CPU_] |497| 
    1238 000001da 9001          ANDB      AL,#0x01              ; [CPU_] |497| 
    1239 000001db 5201          CMPB      AL,#1                 ; [CPU_] |497| 
    1240 000001dc EDFD          BF        $C$L21,NEQ            ; [CPU_] |497| 
    1241                      ; branchcc occurs ; [] |497| 
    1242                      .dwpsn  file "C:/ti/controlSUITE/device_support/F2837xS/v170/F2837xS_common/source/F2837xS_SysCtrl.c"
    1243 000001dd 7622   EALLOW
    1244                      .dwpsn  file "C:/ti/controlSUITE/device_support/F2837xS/v170/F2837xS_common/source/F2837xS_SysCtrl.c"
    1245 000001de 9242          MOV       AL,*-SP[2]            ; [CPU_] |506| 
    1246 000001df CD1E!         AND       AH,@_ClkCfgRegs+30,#0xff80 ; [CPU_] |506| 
         000001e0 FF80 
    1247 000001e1 907F          ANDB      AL,#0x7f              ; [CPU_] |506| 
    1248 000001e2 CAA8          OR        AL,AH                 ; [CPU_] |506| 
    1249 000001e3 961E!         MOV       @_ClkCfgRegs+30,AL    ; [CPU_] |506| 
    1250                      .dwpsn  file "C:/ti/controlSUITE/device_support/F2837xS/v170/F2837xS_common/source/F2837xS_SysCtrl.c"
    1251 000001e4 761A   EDIS
    1252                      .dwpsn  file "C:/ti/controlSUITE/device_support/F2837xS/v170/F2837xS_common/source/F2837xS_SysCtrl.c"
    1253 000001e5       $C$L22:    
    1254                      .dwpsn  file "C:/ti/controlSUITE/device_support/F2837xS/v170/F2837xS_common/source/F2837xS_SysCtrl.c"
    1255 000001e5 9220!         MOV       AL,@_ClkCfgRegs+32    ; [CPU_] |510| 
    1256 000001e6 9001          ANDB      AL,#0x01              ; [CPU_] |510| 
    1257 000001e7 5201          CMPB      AL,#1                 ; [CPU_] |510| 
    1258 000001e8 EDFD          BF        $C$L22,NEQ            ; [CPU_] |510| 
    1259                      ; branchcc occurs ; [] |510| 
    1260                      .dwendtag $C$DW$70
    1261              
    1262 000001e9       $C$L23:    
    1263                      .dwpsn  file "C:/ti/controlSUITE/device_support/F2837xS/v170/F2837xS_common/source/F2837xS_SysCtrl.c"
    1264 000001e9 56BF          MOVB      *-SP[5],#3,UNC        ; [CPU_] |518| 
         000001ea 0345 
    1265                      .dwpsn  file "C:/ti/controlSUITE/device_support/F2837xS/v170/F2837xS_common/source/F2837xS_SysCtrl.c"
    1266 000001eb 6F19          B         $C$L25,UNC            ; [CPU_] |519| 
    1267                      ; branch occurs ; [] |519| 
    1268 000001ec       $C$L24:    
    1269                      .dwpsn  file "C:/ti/controlSUITE/device_support/F2837xS/v170/F2837xS_common/source/F2837xS_SysCtrl.c"
    1270 000001ec 7622   EALLOW
    1271                      .dwpsn  file "C:/ti/controlSUITE/device_support/F2837xS/v170/F2837xS_common/source/F2837xS_SysCtrl.c"
    1272 000001ed 9245          MOV       AL,*-SP[5]            ; [CPU_] |522| 
    1273 000001ee CD24!         AND       AH,@_ClkCfgRegs+36,#0xfffc ; [CPU_] |522| 
         000001ef FFFC 
    1274 000001f0 9CFF          ADDB      AL,#-1                ; [CPU_] |522| 
    1275 000001f1 9003          ANDB      AL,#0x03              ; [CPU_] |522| 
TMS320C2000 Assembler PC v6.4.2 Thu Dec 14 15:26:44 2017

Tools Copyright (c) 1996-2015 Texas Instruments Incorporated
F2837xS_SysCtrl.asm                                                  PAGE   27

    1276 000001f2 CAA8          OR        AL,AH                 ; [CPU_] |522| 
    1277 000001f3 9624!         MOV       @_ClkCfgRegs+36,AL    ; [CPU_] |522| 
    1278                      .dwpsn  file "C:/ti/controlSUITE/device_support/F2837xS/v170/F2837xS_common/source/F2837xS_SysCtrl.c"
    1279 000001f4 761A   EDIS
    1280                      .dwpsn  file "C:/ti/controlSUITE/device_support/F2837xS/v170/F2837xS_common/source/F2837xS_SysCtrl.c"
    1281 000001f5 0B45          DEC       *-SP[5]               ; [CPU_] |525| 
    1282                      .dwpsn  file "C:/ti/controlSUITE/device_support/F2837xS/v170/F2837xS_common/source/F2837xS_SysCtrl.c"
    1283 000001f6 0E44          MOVU      ACC,*-SP[4]           ; [CPU_] |526| 
    1284 000001f7 1EA6          MOVL      XAR6,ACC              ; [CPU_] |526| 
    1285 000001f8 9224!         MOV       AL,@_ClkCfgRegs+36    ; [CPU_] |526| 
    1286 000001f9 9003          ANDB      AL,#0x03              ; [CPU_] |526| 
    1287 000001fa 80A9          MOVZ      AR7,AL                ; [CPU_] |526| 
    1288 000001fb 06A6          MOVL      ACC,XAR6              ; [CPU_] |526| 
    1289 000001fc 0FA7          CMPL      ACC,XAR7              ; [CPU_] |526| 
    1290 000001fd EC07          BF        $C$L25,EQ             ; [CPU_] |526| 
    1291                      ; branchcc occurs ; [] |526| 
    1292                      .dwpsn  file "C:/ti/controlSUITE/device_support/F2837xS/v170/F2837xS_common/source/F2837xS_SysCtrl.c"
    1293 000001fe 8F00          MOVL      XAR4,#598             ; [CPU_U] |528| 
         000001ff 0256 
    1294 00000200 FF69          SPM       #0                    ; [CPU_] 
    1295 00000201 A8A9          MOVL      ACC,XAR4              ; [CPU_] |528| 
    1296              $C$DW$72        .dwtag  DW_TAG_TI_branch
    1297                      .dwattr $C$DW$72, DW_AT_low_pc(0x00)
    1298                      .dwattr $C$DW$72, DW_AT_name("_F28x_usDelay")
    1299                      .dwattr $C$DW$72, DW_AT_TI_call
    1300 00000202 7640!         LCR       #_F28x_usDelay        ; [CPU_] |528| 
         00000203 0000 
    1301                      ; call occurs [#_F28x_usDelay] ; [] |528| 
    1302 00000204       $C$L25:    
    1303                      .dwpsn  file "C:/ti/controlSUITE/device_support/F2837xS/v170/F2837xS_common/source/F2837xS_SysCtrl.c"
    1304 00000204 0E44          MOVU      ACC,*-SP[4]           ; [CPU_] |519| 
    1305 00000205 761F!         MOVW      DP,#_ClkCfgRegs+36    ; [CPU_U] 
         00000206 0000 
    1306 00000207 1EA6          MOVL      XAR6,ACC              ; [CPU_] |519| 
    1307 00000208 9224!         MOV       AL,@_ClkCfgRegs+36    ; [CPU_] |519| 
    1308 00000209 9003          ANDB      AL,#0x03              ; [CPU_] |519| 
    1309 0000020a 80A9          MOVZ      AR7,AL                ; [CPU_] |519| 
    1310 0000020b 06A6          MOVL      ACC,XAR6              ; [CPU_] |519| 
    1311 0000020c 0FA7          CMPL      ACC,XAR7              ; [CPU_] |519| 
    1312 0000020d EDDF          BF        $C$L24,NEQ            ; [CPU_] |519| 
    1313                      ; branchcc occurs ; [] |519| 
    1314                      .dwpsn  file "C:/ti/controlSUITE/device_support/F2837xS/v170/F2837xS_common/source/F2837xS_SysCtrl.c"
    1315 0000020e 7622   EALLOW
    1316                      .dwpsn  file "C:/ti/controlSUITE/device_support/F2837xS/v170/F2837xS_common/source/F2837xS_SysCtrl.c"
    1317 0000020f 1A18!         OR        @_ClkCfgRegs+24,#0x0002 ; [CPU_] |533| 
         00000210 0002 
    1318                      .dwpsn  file "C:/ti/controlSUITE/device_support/F2837xS/v170/F2837xS_common/source/F2837xS_SysCtrl.c"
    1319 00000211 761A   EDIS
    1320                      .dwpsn  file "C:/ti/controlSUITE/device_support/F2837xS/v170/F2837xS_common/source/F2837xS_SysCtrl.c"
    1321 00000212       $C$L26:    
    1322 00000212 FE88          SUBB      SP,#8                 ; [CPU_U] 
    1323                      .dwcfi  cfa_offset, -2
    1324 00000213 FF69          SPM       #0                    ; [CPU_] 
    1325              $C$DW$73        .dwtag  DW_TAG_TI_branch
    1326                      .dwattr $C$DW$73, DW_AT_low_pc(0x00)
TMS320C2000 Assembler PC v6.4.2 Thu Dec 14 15:26:44 2017

Tools Copyright (c) 1996-2015 Texas Instruments Incorporated
F2837xS_SysCtrl.asm                                                  PAGE   28

    1327                      .dwattr $C$DW$73, DW_AT_TI_return
    1328 00000214 0006          LRETR     ; [CPU_] 
    1329                      ; return occurs ; [] 
    1330                      .dwattr $C$DW$57, DW_AT_TI_end_file("C:/ti/controlSUITE/device_support/F2837xS/v170/F2837xS_common/so
    1331                      .dwattr $C$DW$57, DW_AT_TI_end_line(0x217)
    1332                      .dwattr $C$DW$57, DW_AT_TI_end_column(0x01)
    1333                      .dwendentry
    1334                      .dwendtag $C$DW$57
    1335              
    1336 00000215               .sect   ".text"
    1337                      .clink
    1338                      .global _CsmUnlock
    1339              
    1340              $C$DW$74        .dwtag  DW_TAG_subprogram, DW_AT_name("CsmUnlock")
    1341                      .dwattr $C$DW$74, DW_AT_low_pc(_CsmUnlock)
    1342                      .dwattr $C$DW$74, DW_AT_high_pc(0x00)
    1343                      .dwattr $C$DW$74, DW_AT_TI_symbol_name("_CsmUnlock")
    1344                      .dwattr $C$DW$74, DW_AT_external
    1345                      .dwattr $C$DW$74, DW_AT_type(*$C$DW$T$19)
    1346                      .dwattr $C$DW$74, DW_AT_TI_begin_file("C:/ti/controlSUITE/device_support/F2837xS/v170/F2837xS_common/
    1347                      .dwattr $C$DW$74, DW_AT_TI_begin_line(0x222)
    1348                      .dwattr $C$DW$74, DW_AT_TI_begin_column(0x08)
    1349                      .dwattr $C$DW$74, DW_AT_TI_max_frame_size(-2)
    1350                      .dwpsn  file "C:/ti/controlSUITE/device_support/F2837xS/v170/F2837xS_common/source/F2837xS_SysCtrl.c"
    1351              
    1352                      .dwfde $C$DW$CIE, _CsmUnlock
    1353              
    1354              ;***************************************************************
    1355              ;* FNAME: _CsmUnlock                    FR SIZE:   0           *
    1356              ;*                                                             *
    1357              ;* FUNCTION ENVIRONMENT                                        *
    1358              ;*                                                             *
    1359              ;* FUNCTION PROPERTIES                                         *
    1360              ;*                            0 Parameter,  0 Auto,  0 SOE     *
    1361              ;***************************************************************
    1362              
    1363 00000215       _CsmUnlock:
    1364                      .dwcfi  cfa_offset, -2
    1365                      .dwcfi  save_reg_to_mem, 26, 0
    1366                      .dwpsn  file "C:/ti/controlSUITE/device_support/F2837xS/v170/F2837xS_common/source/F2837xS_SysCtrl.c"
    1367 00000215 7622   EALLOW
    1368                      .dwpsn  file "C:/ti/controlSUITE/device_support/F2837xS/v170/F2837xS_common/source/F2837xS_SysCtrl.c"
    1369 00000216 0200          MOVB      ACC,#0                ; [CPU_] |563| 
    1370 00000217 761F!         MOVW      DP,#_DcsmZ1Regs+16    ; [CPU_U] 
         00000218 0000 
    1371 00000219 1901          SUBB      ACC,#1                ; [CPU_] |563| 
    1372 0000021a 1E10!         MOVL      @_DcsmZ1Regs+16,ACC   ; [CPU_] |563| 
    1373                      .dwpsn  file "C:/ti/controlSUITE/device_support/F2837xS/v170/F2837xS_common/source/F2837xS_SysCtrl.c"
    1374 0000021b 0200          MOVB      ACC,#0                ; [CPU_] |564| 
    1375 0000021c 1901          SUBB      ACC,#1                ; [CPU_] |564| 
    1376 0000021d 1E12!         MOVL      @_DcsmZ1Regs+18,ACC   ; [CPU_] |564| 
    1377                      .dwpsn  file "C:/ti/controlSUITE/device_support/F2837xS/v170/F2837xS_common/source/F2837xS_SysCtrl.c"
    1378 0000021e 0200          MOVB      ACC,#0                ; [CPU_] |565| 
    1379 0000021f 1901          SUBB      ACC,#1                ; [CPU_] |565| 
    1380 00000220 1E14!         MOVL      @_DcsmZ1Regs+20,ACC   ; [CPU_] |565| 
TMS320C2000 Assembler PC v6.4.2 Thu Dec 14 15:26:44 2017

Tools Copyright (c) 1996-2015 Texas Instruments Incorporated
F2837xS_SysCtrl.asm                                                  PAGE   29

    1381                      .dwpsn  file "C:/ti/controlSUITE/device_support/F2837xS/v170/F2837xS_common/source/F2837xS_SysCtrl.c"
    1382 00000221 0200          MOVB      ACC,#0                ; [CPU_] |566| 
    1383 00000222 1901          SUBB      ACC,#1                ; [CPU_] |566| 
    1384 00000223 1E16!         MOVL      @_DcsmZ1Regs+22,ACC   ; [CPU_] |566| 
    1385                      .dwpsn  file "C:/ti/controlSUITE/device_support/F2837xS/v170/F2837xS_common/source/F2837xS_SysCtrl.c"
    1386 00000224 0200          MOVB      ACC,#0                ; [CPU_] |568| 
    1387 00000225 761F!         MOVW      DP,#_DcsmZ2Regs+16    ; [CPU_U] 
         00000226 0000 
    1388 00000227 1901          SUBB      ACC,#1                ; [CPU_] |568| 
    1389 00000228 1E10!         MOVL      @_DcsmZ2Regs+16,ACC   ; [CPU_] |568| 
    1390                      .dwpsn  file "C:/ti/controlSUITE/device_support/F2837xS/v170/F2837xS_common/source/F2837xS_SysCtrl.c"
    1391 00000229 0200          MOVB      ACC,#0                ; [CPU_] |569| 
    1392 0000022a 1901          SUBB      ACC,#1                ; [CPU_] |569| 
    1393 0000022b 1E12!         MOVL      @_DcsmZ2Regs+18,ACC   ; [CPU_] |569| 
    1394                      .dwpsn  file "C:/ti/controlSUITE/device_support/F2837xS/v170/F2837xS_common/source/F2837xS_SysCtrl.c"
    1395 0000022c 0200          MOVB      ACC,#0                ; [CPU_] |570| 
    1396 0000022d 1901          SUBB      ACC,#1                ; [CPU_] |570| 
    1397 0000022e 1E14!         MOVL      @_DcsmZ2Regs+20,ACC   ; [CPU_] |570| 
    1398                      .dwpsn  file "C:/ti/controlSUITE/device_support/F2837xS/v170/F2837xS_common/source/F2837xS_SysCtrl.c"
    1399 0000022f 0200          MOVB      ACC,#0                ; [CPU_] |571| 
    1400 00000230 1901          SUBB      ACC,#1                ; [CPU_] |571| 
    1401 00000231 1E16!         MOVL      @_DcsmZ2Regs+22,ACC   ; [CPU_] |571| 
    1402                      .dwpsn  file "C:/ti/controlSUITE/device_support/F2837xS/v170/F2837xS_common/source/F2837xS_SysCtrl.c"
    1403 00000232 761A   EDIS
    1404                      .dwpsn  file "C:/ti/controlSUITE/device_support/F2837xS/v170/F2837xS_common/source/F2837xS_SysCtrl.c"
    1405 00000233 9A00          MOVB      AL,#0                 ; [CPU_] |591| 
    1406                      .dwpsn  file "C:/ti/controlSUITE/device_support/F2837xS/v170/F2837xS_common/source/F2837xS_SysCtrl.c"
    1407 00000234 FF69          SPM       #0                    ; [CPU_] 
    1408              $C$DW$75        .dwtag  DW_TAG_TI_branch
    1409                      .dwattr $C$DW$75, DW_AT_low_pc(0x00)
    1410                      .dwattr $C$DW$75, DW_AT_TI_return
    1411 00000235 0006          LRETR     ; [CPU_] 
    1412                      ; return occurs ; [] 
    1413                      .dwattr $C$DW$74, DW_AT_TI_end_file("C:/ti/controlSUITE/device_support/F2837xS/v170/F2837xS_common/so
    1414                      .dwattr $C$DW$74, DW_AT_TI_end_line(0x251)
    1415                      .dwattr $C$DW$74, DW_AT_TI_end_column(0x01)
    1416                      .dwendentry
    1417                      .dwendtag $C$DW$74
    1418              
    1419 00000236               .sect   ".text"
    1420                      .clink
    1421                      .global _SysIntOsc1Sel
    1422              
    1423              $C$DW$76        .dwtag  DW_TAG_subprogram, DW_AT_name("SysIntOsc1Sel")
    1424                      .dwattr $C$DW$76, DW_AT_low_pc(_SysIntOsc1Sel)
    1425                      .dwattr $C$DW$76, DW_AT_high_pc(0x00)
    1426                      .dwattr $C$DW$76, DW_AT_TI_symbol_name("_SysIntOsc1Sel")
    1427                      .dwattr $C$DW$76, DW_AT_external
    1428                      .dwattr $C$DW$76, DW_AT_TI_begin_file("C:/ti/controlSUITE/device_support/F2837xS/v170/F2837xS_common/
    1429                      .dwattr $C$DW$76, DW_AT_TI_begin_line(0x259)
    1430                      .dwattr $C$DW$76, DW_AT_TI_begin_column(0x06)
    1431                      .dwattr $C$DW$76, DW_AT_TI_max_frame_size(-2)
    1432                      .dwpsn  file "C:/ti/controlSUITE/device_support/F2837xS/v170/F2837xS_common/source/F2837xS_SysCtrl.c"
    1433              
    1434                      .dwfde $C$DW$CIE, _SysIntOsc1Sel
TMS320C2000 Assembler PC v6.4.2 Thu Dec 14 15:26:44 2017

Tools Copyright (c) 1996-2015 Texas Instruments Incorporated
F2837xS_SysCtrl.asm                                                  PAGE   30

    1435              
    1436              ;***************************************************************
    1437              ;* FNAME: _SysIntOsc1Sel                FR SIZE:   0           *
    1438              ;*                                                             *
    1439              ;* FUNCTION ENVIRONMENT                                        *
    1440              ;*                                                             *
    1441              ;* FUNCTION PROPERTIES                                         *
    1442              ;*                            0 Parameter,  0 Auto,  0 SOE     *
    1443              ;***************************************************************
    1444              
    1445 00000236       _SysIntOsc1Sel:
    1446                      .dwcfi  cfa_offset, -2
    1447                      .dwcfi  save_reg_to_mem, 26, 0
    1448                      .dwpsn  file "C:/ti/controlSUITE/device_support/F2837xS/v170/F2837xS_common/source/F2837xS_SysCtrl.c"
    1449 00000236 7622   EALLOW
    1450                      .dwpsn  file "C:/ti/controlSUITE/device_support/F2837xS/v170/F2837xS_common/source/F2837xS_SysCtrl.c"
    1451 00000237 761F!         MOVW      DP,#_ClkCfgRegs+8     ; [CPU_U] 
         00000238 0000 
    1452 00000239 CC08!         AND       AL,@_ClkCfgRegs+8,#0xfffc ; [CPU_] |603| 
         0000023a FFFC 
    1453 0000023b 5002          ORB       AL,#0x02              ; [CPU_] |603| 
    1454 0000023c 9608!         MOV       @_ClkCfgRegs+8,AL     ; [CPU_] |603| 
    1455                      .dwpsn  file "C:/ti/controlSUITE/device_support/F2837xS/v170/F2837xS_common/source/F2837xS_SysCtrl.c"
    1456 0000023d 761A   EDIS
    1457                      .dwpsn  file "C:/ti/controlSUITE/device_support/F2837xS/v170/F2837xS_common/source/F2837xS_SysCtrl.c"
    1458 0000023e FF69          SPM       #0                    ; [CPU_] 
    1459              $C$DW$77        .dwtag  DW_TAG_TI_branch
    1460                      .dwattr $C$DW$77, DW_AT_low_pc(0x00)
    1461                      .dwattr $C$DW$77, DW_AT_TI_return
    1462 0000023f 0006          LRETR     ; [CPU_] 
    1463                      ; return occurs ; [] 
    1464                      .dwattr $C$DW$76, DW_AT_TI_end_file("C:/ti/controlSUITE/device_support/F2837xS/v170/F2837xS_common/so
    1465                      .dwattr $C$DW$76, DW_AT_TI_end_line(0x25d)
    1466                      .dwattr $C$DW$76, DW_AT_TI_end_column(0x01)
    1467                      .dwendentry
    1468                      .dwendtag $C$DW$76
    1469              
    1470 00000240               .sect   ".text"
    1471                      .clink
    1472                      .global _SysIntOsc2Sel
    1473              
    1474              $C$DW$78        .dwtag  DW_TAG_subprogram, DW_AT_name("SysIntOsc2Sel")
    1475                      .dwattr $C$DW$78, DW_AT_low_pc(_SysIntOsc2Sel)
    1476                      .dwattr $C$DW$78, DW_AT_high_pc(0x00)
    1477                      .dwattr $C$DW$78, DW_AT_TI_symbol_name("_SysIntOsc2Sel")
    1478                      .dwattr $C$DW$78, DW_AT_external
    1479                      .dwattr $C$DW$78, DW_AT_TI_begin_file("C:/ti/controlSUITE/device_support/F2837xS/v170/F2837xS_common/
    1480                      .dwattr $C$DW$78, DW_AT_TI_begin_line(0x268)
    1481                      .dwattr $C$DW$78, DW_AT_TI_begin_column(0x06)
    1482                      .dwattr $C$DW$78, DW_AT_TI_max_frame_size(-2)
    1483                      .dwpsn  file "C:/ti/controlSUITE/device_support/F2837xS/v170/F2837xS_common/source/F2837xS_SysCtrl.c"
    1484              
    1485                      .dwfde $C$DW$CIE, _SysIntOsc2Sel
    1486              
    1487              ;***************************************************************
TMS320C2000 Assembler PC v6.4.2 Thu Dec 14 15:26:44 2017

Tools Copyright (c) 1996-2015 Texas Instruments Incorporated
F2837xS_SysCtrl.asm                                                  PAGE   31

    1488              ;* FNAME: _SysIntOsc2Sel                FR SIZE:   0           *
    1489              ;*                                                             *
    1490              ;* FUNCTION ENVIRONMENT                                        *
    1491              ;*                                                             *
    1492              ;* FUNCTION PROPERTIES                                         *
    1493              ;*                            0 Parameter,  0 Auto,  0 SOE     *
    1494              ;***************************************************************
    1495              
    1496 00000240       _SysIntOsc2Sel:
    1497                      .dwcfi  cfa_offset, -2
    1498                      .dwcfi  save_reg_to_mem, 26, 0
    1499                      .dwpsn  file "C:/ti/controlSUITE/device_support/F2837xS/v170/F2837xS_common/source/F2837xS_SysCtrl.c"
    1500 00000240 7622   EALLOW
    1501                      .dwpsn  file "C:/ti/controlSUITE/device_support/F2837xS/v170/F2837xS_common/source/F2837xS_SysCtrl.c"
    1502 00000241 761F!         MOVW      DP,#_ClkCfgRegs+8     ; [CPU_U] 
         00000242 0000 
    1503 00000243 1808!         AND       @_ClkCfgRegs+8,#0xfff7 ; [CPU_] |619| 
         00000244 FFF7 
    1504                      .dwpsn  file "C:/ti/controlSUITE/device_support/F2837xS/v170/F2837xS_common/source/F2837xS_SysCtrl.c"
    1505 00000245 1808!         AND       @_ClkCfgRegs+8,#0xfffc ; [CPU_] |620| 
         00000246 FFFC 
    1506                      .dwpsn  file "C:/ti/controlSUITE/device_support/F2837xS/v170/F2837xS_common/source/F2837xS_SysCtrl.c"
    1507 00000247 761A   EDIS
    1508                      .dwpsn  file "C:/ti/controlSUITE/device_support/F2837xS/v170/F2837xS_common/source/F2837xS_SysCtrl.c"
    1509 00000248 FF69          SPM       #0                    ; [CPU_] 
    1510              $C$DW$79        .dwtag  DW_TAG_TI_branch
    1511                      .dwattr $C$DW$79, DW_AT_low_pc(0x00)
    1512                      .dwattr $C$DW$79, DW_AT_TI_return
    1513 00000249 0006          LRETR     ; [CPU_] 
    1514                      ; return occurs ; [] 
    1515                      .dwattr $C$DW$78, DW_AT_TI_end_file("C:/ti/controlSUITE/device_support/F2837xS/v170/F2837xS_common/so
    1516                      .dwattr $C$DW$78, DW_AT_TI_end_line(0x26f)
    1517                      .dwattr $C$DW$78, DW_AT_TI_end_column(0x01)
    1518                      .dwendentry
    1519                      .dwendtag $C$DW$78
    1520              
    1521 0000024a               .sect   ".text"
    1522                      .clink
    1523                      .global _SysXtalOscSel
    1524              
    1525              $C$DW$80        .dwtag  DW_TAG_subprogram, DW_AT_name("SysXtalOscSel")
    1526                      .dwattr $C$DW$80, DW_AT_low_pc(_SysXtalOscSel)
    1527                      .dwattr $C$DW$80, DW_AT_high_pc(0x00)
    1528                      .dwattr $C$DW$80, DW_AT_TI_symbol_name("_SysXtalOscSel")
    1529                      .dwattr $C$DW$80, DW_AT_external
    1530                      .dwattr $C$DW$80, DW_AT_TI_begin_file("C:/ti/controlSUITE/device_support/F2837xS/v170/F2837xS_common/
    1531                      .dwattr $C$DW$80, DW_AT_TI_begin_line(0x278)
    1532                      .dwattr $C$DW$80, DW_AT_TI_begin_column(0x06)
    1533                      .dwattr $C$DW$80, DW_AT_TI_max_frame_size(-2)
    1534                      .dwpsn  file "C:/ti/controlSUITE/device_support/F2837xS/v170/F2837xS_common/source/F2837xS_SysCtrl.c"
    1535              
    1536                      .dwfde $C$DW$CIE, _SysXtalOscSel
    1537              
    1538              ;***************************************************************
    1539              ;* FNAME: _SysXtalOscSel                FR SIZE:   0           *
TMS320C2000 Assembler PC v6.4.2 Thu Dec 14 15:26:44 2017

Tools Copyright (c) 1996-2015 Texas Instruments Incorporated
F2837xS_SysCtrl.asm                                                  PAGE   32

    1540              ;*                                                             *
    1541              ;* FUNCTION ENVIRONMENT                                        *
    1542              ;*                                                             *
    1543              ;* FUNCTION PROPERTIES                                         *
    1544              ;*                            0 Parameter,  0 Auto,  0 SOE     *
    1545              ;***************************************************************
    1546              
    1547 0000024a       _SysXtalOscSel:
    1548                      .dwcfi  cfa_offset, -2
    1549                      .dwcfi  save_reg_to_mem, 26, 0
    1550                      .dwpsn  file "C:/ti/controlSUITE/device_support/F2837xS/v170/F2837xS_common/source/F2837xS_SysCtrl.c"
    1551 0000024a 7622   EALLOW
    1552                      .dwpsn  file "C:/ti/controlSUITE/device_support/F2837xS/v170/F2837xS_common/source/F2837xS_SysCtrl.c"
    1553 0000024b 761F!         MOVW      DP,#_ClkCfgRegs+8     ; [CPU_U] 
         0000024c 0000 
    1554 0000024d 1808!         AND       @_ClkCfgRegs+8,#0xffef ; [CPU_] |635| 
         0000024e FFEF 
    1555                      .dwpsn  file "C:/ti/controlSUITE/device_support/F2837xS/v170/F2837xS_common/source/F2837xS_SysCtrl.c"
    1556 0000024f CC08!         AND       AL,@_ClkCfgRegs+8,#0xfffc ; [CPU_] |636| 
         00000250 FFFC 
    1557 00000251 5001          ORB       AL,#0x01              ; [CPU_] |636| 
    1558 00000252 9608!         MOV       @_ClkCfgRegs+8,AL     ; [CPU_] |636| 
    1559                      .dwpsn  file "C:/ti/controlSUITE/device_support/F2837xS/v170/F2837xS_common/source/F2837xS_SysCtrl.c"
    1560 00000253 761A   EDIS
    1561                      .dwpsn  file "C:/ti/controlSUITE/device_support/F2837xS/v170/F2837xS_common/source/F2837xS_SysCtrl.c"
    1562 00000254 FF69          SPM       #0                    ; [CPU_] 
    1563              $C$DW$81        .dwtag  DW_TAG_TI_branch
    1564                      .dwattr $C$DW$81, DW_AT_low_pc(0x00)
    1565                      .dwattr $C$DW$81, DW_AT_TI_return
    1566 00000255 0006          LRETR     ; [CPU_] 
    1567                      ; return occurs ; [] 
    1568                      .dwattr $C$DW$80, DW_AT_TI_end_file("C:/ti/controlSUITE/device_support/F2837xS/v170/F2837xS_common/so
    1569                      .dwattr $C$DW$80, DW_AT_TI_end_line(0x27f)
    1570                      .dwattr $C$DW$80, DW_AT_TI_end_column(0x01)
    1571                      .dwendentry
    1572                      .dwendtag $C$DW$80
    1573              
    1574 00000256               .sect   ".text"
    1575                      .clink
    1576                      .global _AuxIntOsc2Sel
    1577              
    1578              $C$DW$82        .dwtag  DW_TAG_subprogram, DW_AT_name("AuxIntOsc2Sel")
    1579                      .dwattr $C$DW$82, DW_AT_low_pc(_AuxIntOsc2Sel)
    1580                      .dwattr $C$DW$82, DW_AT_high_pc(0x00)
    1581                      .dwattr $C$DW$82, DW_AT_TI_symbol_name("_AuxIntOsc2Sel")
    1582                      .dwattr $C$DW$82, DW_AT_external
    1583                      .dwattr $C$DW$82, DW_AT_TI_begin_file("C:/ti/controlSUITE/device_support/F2837xS/v170/F2837xS_common/
    1584                      .dwattr $C$DW$82, DW_AT_TI_begin_line(0x28a)
    1585                      .dwattr $C$DW$82, DW_AT_TI_begin_column(0x06)
    1586                      .dwattr $C$DW$82, DW_AT_TI_max_frame_size(-2)
    1587                      .dwpsn  file "C:/ti/controlSUITE/device_support/F2837xS/v170/F2837xS_common/source/F2837xS_SysCtrl.c"
    1588              
    1589                      .dwfde $C$DW$CIE, _AuxIntOsc2Sel
    1590              
    1591              ;***************************************************************
TMS320C2000 Assembler PC v6.4.2 Thu Dec 14 15:26:44 2017

Tools Copyright (c) 1996-2015 Texas Instruments Incorporated
F2837xS_SysCtrl.asm                                                  PAGE   33

    1592              ;* FNAME: _AuxIntOsc2Sel                FR SIZE:   0           *
    1593              ;*                                                             *
    1594              ;* FUNCTION ENVIRONMENT                                        *
    1595              ;*                                                             *
    1596              ;* FUNCTION PROPERTIES                                         *
    1597              ;*                            0 Parameter,  0 Auto,  0 SOE     *
    1598              ;***************************************************************
    1599              
    1600 00000256       _AuxIntOsc2Sel:
    1601                      .dwcfi  cfa_offset, -2
    1602                      .dwcfi  save_reg_to_mem, 26, 0
    1603                      .dwpsn  file "C:/ti/controlSUITE/device_support/F2837xS/v170/F2837xS_common/source/F2837xS_SysCtrl.c"
    1604 00000256 7622   EALLOW
    1605                      .dwpsn  file "C:/ti/controlSUITE/device_support/F2837xS/v170/F2837xS_common/source/F2837xS_SysCtrl.c"
    1606 00000257 761F!         MOVW      DP,#_ClkCfgRegs+8     ; [CPU_U] 
         00000258 0000 
    1607 00000259 1808!         AND       @_ClkCfgRegs+8,#0xfff7 ; [CPU_] |653| 
         0000025a FFF7 
    1608                      .dwpsn  file "C:/ti/controlSUITE/device_support/F2837xS/v170/F2837xS_common/source/F2837xS_SysCtrl.c"
    1609 0000025b 180A!         AND       @_ClkCfgRegs+10,#0xfffc ; [CPU_] |654| 
         0000025c FFFC 
    1610                      .dwpsn  file "C:/ti/controlSUITE/device_support/F2837xS/v170/F2837xS_common/source/F2837xS_SysCtrl.c"
    1611 0000025d 761A   EDIS
    1612                      .dwpsn  file "C:/ti/controlSUITE/device_support/F2837xS/v170/F2837xS_common/source/F2837xS_SysCtrl.c"
    1613 0000025e FF69          SPM       #0                    ; [CPU_] 
    1614              $C$DW$83        .dwtag  DW_TAG_TI_branch
    1615                      .dwattr $C$DW$83, DW_AT_low_pc(0x00)
    1616                      .dwattr $C$DW$83, DW_AT_TI_return
    1617 0000025f 0006          LRETR     ; [CPU_] 
    1618                      ; return occurs ; [] 
    1619                      .dwattr $C$DW$82, DW_AT_TI_end_file("C:/ti/controlSUITE/device_support/F2837xS/v170/F2837xS_common/so
    1620                      .dwattr $C$DW$82, DW_AT_TI_end_line(0x291)
    1621                      .dwattr $C$DW$82, DW_AT_TI_end_column(0x01)
    1622                      .dwendentry
    1623                      .dwendtag $C$DW$82
    1624              
    1625 00000260               .sect   ".text"
    1626                      .clink
    1627                      .global _AuxXtalOscSel
    1628              
    1629              $C$DW$84        .dwtag  DW_TAG_subprogram, DW_AT_name("AuxXtalOscSel")
    1630                      .dwattr $C$DW$84, DW_AT_low_pc(_AuxXtalOscSel)
    1631                      .dwattr $C$DW$84, DW_AT_high_pc(0x00)
    1632                      .dwattr $C$DW$84, DW_AT_TI_symbol_name("_AuxXtalOscSel")
    1633                      .dwattr $C$DW$84, DW_AT_external
    1634                      .dwattr $C$DW$84, DW_AT_TI_begin_file("C:/ti/controlSUITE/device_support/F2837xS/v170/F2837xS_common/
    1635                      .dwattr $C$DW$84, DW_AT_TI_begin_line(0x29a)
    1636                      .dwattr $C$DW$84, DW_AT_TI_begin_column(0x06)
    1637                      .dwattr $C$DW$84, DW_AT_TI_max_frame_size(-2)
    1638                      .dwpsn  file "C:/ti/controlSUITE/device_support/F2837xS/v170/F2837xS_common/source/F2837xS_SysCtrl.c"
    1639              
    1640                      .dwfde $C$DW$CIE, _AuxXtalOscSel
    1641              
    1642              ;***************************************************************
    1643              ;* FNAME: _AuxXtalOscSel                FR SIZE:   0           *
TMS320C2000 Assembler PC v6.4.2 Thu Dec 14 15:26:44 2017

Tools Copyright (c) 1996-2015 Texas Instruments Incorporated
F2837xS_SysCtrl.asm                                                  PAGE   34

    1644              ;*                                                             *
    1645              ;* FUNCTION ENVIRONMENT                                        *
    1646              ;*                                                             *
    1647              ;* FUNCTION PROPERTIES                                         *
    1648              ;*                            0 Parameter,  0 Auto,  0 SOE     *
    1649              ;***************************************************************
    1650              
    1651 00000260       _AuxXtalOscSel:
    1652                      .dwcfi  cfa_offset, -2
    1653                      .dwcfi  save_reg_to_mem, 26, 0
    1654                      .dwpsn  file "C:/ti/controlSUITE/device_support/F2837xS/v170/F2837xS_common/source/F2837xS_SysCtrl.c"
    1655 00000260 7622   EALLOW
    1656                      .dwpsn  file "C:/ti/controlSUITE/device_support/F2837xS/v170/F2837xS_common/source/F2837xS_SysCtrl.c"
    1657 00000261 761F!         MOVW      DP,#_ClkCfgRegs+8     ; [CPU_U] 
         00000262 0000 
    1658 00000263 1808!         AND       @_ClkCfgRegs+8,#0xffef ; [CPU_] |669| 
         00000264 FFEF 
    1659                      .dwpsn  file "C:/ti/controlSUITE/device_support/F2837xS/v170/F2837xS_common/source/F2837xS_SysCtrl.c"
    1660 00000265 CC0A!         AND       AL,@_ClkCfgRegs+10,#0xfffc ; [CPU_] |670| 
         00000266 FFFC 
    1661 00000267 5001          ORB       AL,#0x01              ; [CPU_] |670| 
    1662 00000268 960A!         MOV       @_ClkCfgRegs+10,AL    ; [CPU_] |670| 
    1663                      .dwpsn  file "C:/ti/controlSUITE/device_support/F2837xS/v170/F2837xS_common/source/F2837xS_SysCtrl.c"
    1664 00000269 761A   EDIS
    1665                      .dwpsn  file "C:/ti/controlSUITE/device_support/F2837xS/v170/F2837xS_common/source/F2837xS_SysCtrl.c"
    1666 0000026a FF69          SPM       #0                    ; [CPU_] 
    1667              $C$DW$85        .dwtag  DW_TAG_TI_branch
    1668                      .dwattr $C$DW$85, DW_AT_low_pc(0x00)
    1669                      .dwattr $C$DW$85, DW_AT_TI_return
    1670 0000026b 0006          LRETR     ; [CPU_] 
    1671                      ; return occurs ; [] 
    1672                      .dwattr $C$DW$84, DW_AT_TI_end_file("C:/ti/controlSUITE/device_support/F2837xS/v170/F2837xS_common/so
    1673                      .dwattr $C$DW$84, DW_AT_TI_end_line(0x2a1)
    1674                      .dwattr $C$DW$84, DW_AT_TI_end_column(0x01)
    1675                      .dwendentry
    1676                      .dwendtag $C$DW$84
    1677              
    1678 0000026c               .sect   ".text"
    1679                      .clink
    1680                      .global _AuxAuxClkSel
    1681              
    1682              $C$DW$86        .dwtag  DW_TAG_subprogram, DW_AT_name("AuxAuxClkSel")
    1683                      .dwattr $C$DW$86, DW_AT_low_pc(_AuxAuxClkSel)
    1684                      .dwattr $C$DW$86, DW_AT_high_pc(0x00)
    1685                      .dwattr $C$DW$86, DW_AT_TI_symbol_name("_AuxAuxClkSel")
    1686                      .dwattr $C$DW$86, DW_AT_external
    1687                      .dwattr $C$DW$86, DW_AT_TI_begin_file("C:/ti/controlSUITE/device_support/F2837xS/v170/F2837xS_common/
    1688                      .dwattr $C$DW$86, DW_AT_TI_begin_line(0x2aa)
    1689                      .dwattr $C$DW$86, DW_AT_TI_begin_column(0x06)
    1690                      .dwattr $C$DW$86, DW_AT_TI_max_frame_size(-2)
    1691                      .dwpsn  file "C:/ti/controlSUITE/device_support/F2837xS/v170/F2837xS_common/source/F2837xS_SysCtrl.c"
    1692              
    1693                      .dwfde $C$DW$CIE, _AuxAuxClkSel
    1694              
    1695              ;***************************************************************
TMS320C2000 Assembler PC v6.4.2 Thu Dec 14 15:26:44 2017

Tools Copyright (c) 1996-2015 Texas Instruments Incorporated
F2837xS_SysCtrl.asm                                                  PAGE   35

    1696              ;* FNAME: _AuxAuxClkSel                 FR SIZE:   0           *
    1697              ;*                                                             *
    1698              ;* FUNCTION ENVIRONMENT                                        *
    1699              ;*                                                             *
    1700              ;* FUNCTION PROPERTIES                                         *
    1701              ;*                            0 Parameter,  0 Auto,  0 SOE     *
    1702              ;***************************************************************
    1703              
    1704 0000026c       _AuxAuxClkSel:
    1705                      .dwcfi  cfa_offset, -2
    1706                      .dwcfi  save_reg_to_mem, 26, 0
    1707                      .dwpsn  file "C:/ti/controlSUITE/device_support/F2837xS/v170/F2837xS_common/source/F2837xS_SysCtrl.c"
    1708 0000026c 7622   EALLOW
    1709                      .dwpsn  file "C:/ti/controlSUITE/device_support/F2837xS/v170/F2837xS_common/source/F2837xS_SysCtrl.c"
    1710 0000026d 761F!         MOVW      DP,#_ClkCfgRegs+10    ; [CPU_U] 
         0000026e 0000 
    1711 0000026f CC0A!         AND       AL,@_ClkCfgRegs+10,#0xfffc ; [CPU_] |685| 
         00000270 FFFC 
    1712 00000271 5002          ORB       AL,#0x02              ; [CPU_] |685| 
    1713 00000272 960A!         MOV       @_ClkCfgRegs+10,AL    ; [CPU_] |685| 
    1714                      .dwpsn  file "C:/ti/controlSUITE/device_support/F2837xS/v170/F2837xS_common/source/F2837xS_SysCtrl.c"
    1715 00000273 761A   EDIS
    1716                      .dwpsn  file "C:/ti/controlSUITE/device_support/F2837xS/v170/F2837xS_common/source/F2837xS_SysCtrl.c"
    1717 00000274 FF69          SPM       #0                    ; [CPU_] 
    1718              $C$DW$87        .dwtag  DW_TAG_TI_branch
    1719                      .dwattr $C$DW$87, DW_AT_low_pc(0x00)
    1720                      .dwattr $C$DW$87, DW_AT_TI_return
    1721 00000275 0006          LRETR     ; [CPU_] 
    1722                      ; return occurs ; [] 
    1723                      .dwattr $C$DW$86, DW_AT_TI_end_file("C:/ti/controlSUITE/device_support/F2837xS/v170/F2837xS_common/so
    1724                      .dwattr $C$DW$86, DW_AT_TI_end_line(0x2b0)
    1725                      .dwattr $C$DW$86, DW_AT_TI_end_column(0x01)
    1726                      .dwendentry
    1727                      .dwendtag $C$DW$86
    1728              
    1729 00000276               .sect   ".text"
    1730                      .clink
    1731                      .global _IDLE
    1732              
    1733              $C$DW$88        .dwtag  DW_TAG_subprogram, DW_AT_name("IDLE")
    1734                      .dwattr $C$DW$88, DW_AT_low_pc(_IDLE)
    1735                      .dwattr $C$DW$88, DW_AT_high_pc(0x00)
    1736                      .dwattr $C$DW$88, DW_AT_TI_symbol_name("_IDLE")
    1737                      .dwattr $C$DW$88, DW_AT_external
    1738                      .dwattr $C$DW$88, DW_AT_TI_begin_file("C:/ti/controlSUITE/device_support/F2837xS/v170/F2837xS_common/
    1739                      .dwattr $C$DW$88, DW_AT_TI_begin_line(0x2b4)
    1740                      .dwattr $C$DW$88, DW_AT_TI_begin_column(0x06)
    1741                      .dwattr $C$DW$88, DW_AT_TI_max_frame_size(-2)
    1742                      .dwpsn  file "C:/ti/controlSUITE/device_support/F2837xS/v170/F2837xS_common/source/F2837xS_SysCtrl.c"
    1743              
    1744                      .dwfde $C$DW$CIE, _IDLE
    1745              
    1746              ;***************************************************************
    1747              ;* FNAME: _IDLE                         FR SIZE:   0           *
    1748              ;*                                                             *
TMS320C2000 Assembler PC v6.4.2 Thu Dec 14 15:26:44 2017

Tools Copyright (c) 1996-2015 Texas Instruments Incorporated
F2837xS_SysCtrl.asm                                                  PAGE   36

    1749              ;* FUNCTION ENVIRONMENT                                        *
    1750              ;*                                                             *
    1751              ;* FUNCTION PROPERTIES                                         *
    1752              ;*                            0 Parameter,  0 Auto,  0 SOE     *
    1753              ;***************************************************************
    1754              
    1755 00000276       _IDLE:
    1756                      .dwcfi  cfa_offset, -2
    1757                      .dwcfi  save_reg_to_mem, 26, 0
    1758                      .dwpsn  file "C:/ti/controlSUITE/device_support/F2837xS/v170/F2837xS_common/source/F2837xS_SysCtrl.c"
    1759 00000276 7622   EALLOW
    1760                      .dwpsn  file "C:/ti/controlSUITE/device_support/F2837xS/v170/F2837xS_common/source/F2837xS_SysCtrl.c"
    1761 00000277 761F!         MOVW      DP,#_CpuSysRegs+118   ; [CPU_U] 
         00000278 0001 
    1762 00000279 1836!         AND       @_CpuSysRegs+118,#0xfffc ; [CPU_] |695| 
         0000027a FFFC 
    1763                      .dwpsn  file "C:/ti/controlSUITE/device_support/F2837xS/v170/F2837xS_common/source/F2837xS_SysCtrl.c"
    1764 0000027b 761A   EDIS
    1765                      .dwpsn  file "C:/ti/controlSUITE/device_support/F2837xS/v170/F2837xS_common/source/F2837xS_SysCtrl.c"
    1766 0000027c 7621   IDLE
    1767                      .dwpsn  file "C:/ti/controlSUITE/device_support/F2837xS/v170/F2837xS_common/source/F2837xS_SysCtrl.c"
    1768 0000027d FF69          SPM       #0                    ; [CPU_] 
    1769              $C$DW$89        .dwtag  DW_TAG_TI_branch
    1770                      .dwattr $C$DW$89, DW_AT_low_pc(0x00)
    1771                      .dwattr $C$DW$89, DW_AT_TI_return
    1772 0000027e 0006          LRETR     ; [CPU_] 
    1773                      ; return occurs ; [] 
    1774                      .dwattr $C$DW$88, DW_AT_TI_end_file("C:/ti/controlSUITE/device_support/F2837xS/v170/F2837xS_common/so
    1775                      .dwattr $C$DW$88, DW_AT_TI_end_line(0x2ba)
    1776                      .dwattr $C$DW$88, DW_AT_TI_end_column(0x01)
    1777                      .dwendentry
    1778                      .dwendtag $C$DW$88
    1779              
    1780 0000027f               .sect   ".text"
    1781                      .clink
    1782                      .global _STANDBY
    1783              
    1784              $C$DW$90        .dwtag  DW_TAG_subprogram, DW_AT_name("STANDBY")
    1785                      .dwattr $C$DW$90, DW_AT_low_pc(_STANDBY)
    1786                      .dwattr $C$DW$90, DW_AT_high_pc(0x00)
    1787                      .dwattr $C$DW$90, DW_AT_TI_symbol_name("_STANDBY")
    1788                      .dwattr $C$DW$90, DW_AT_external
    1789                      .dwattr $C$DW$90, DW_AT_TI_begin_file("C:/ti/controlSUITE/device_support/F2837xS/v170/F2837xS_common/
    1790                      .dwattr $C$DW$90, DW_AT_TI_begin_line(0x2bd)
    1791                      .dwattr $C$DW$90, DW_AT_TI_begin_column(0x06)
    1792                      .dwattr $C$DW$90, DW_AT_TI_max_frame_size(-2)
    1793                      .dwpsn  file "C:/ti/controlSUITE/device_support/F2837xS/v170/F2837xS_common/source/F2837xS_SysCtrl.c"
    1794              
    1795                      .dwfde $C$DW$CIE, _STANDBY
    1796              
    1797              ;***************************************************************
    1798              ;* FNAME: _STANDBY                      FR SIZE:   0           *
    1799              ;*                                                             *
    1800              ;* FUNCTION ENVIRONMENT                                        *
    1801              ;*                                                             *
TMS320C2000 Assembler PC v6.4.2 Thu Dec 14 15:26:44 2017

Tools Copyright (c) 1996-2015 Texas Instruments Incorporated
F2837xS_SysCtrl.asm                                                  PAGE   37

    1802              ;* FUNCTION PROPERTIES                                         *
    1803              ;*                            0 Parameter,  0 Auto,  0 SOE     *
    1804              ;***************************************************************
    1805              
    1806 0000027f       _STANDBY:
    1807                      .dwcfi  cfa_offset, -2
    1808                      .dwcfi  save_reg_to_mem, 26, 0
    1809                      .dwpsn  file "C:/ti/controlSUITE/device_support/F2837xS/v170/F2837xS_common/source/F2837xS_SysCtrl.c"
    1810 0000027f 7622   EALLOW
    1811                      .dwpsn  file "C:/ti/controlSUITE/device_support/F2837xS/v170/F2837xS_common/source/F2837xS_SysCtrl.c"
    1812 00000280 761F!         MOVW      DP,#_CpuSysRegs+118   ; [CPU_U] 
         00000281 0001 
    1813 00000282 CC36!         AND       AL,@_CpuSysRegs+118,#0xfffc ; [CPU_] |704| 
         00000283 FFFC 
    1814 00000284 5001          ORB       AL,#0x01              ; [CPU_] |704| 
    1815 00000285 9636!         MOV       @_CpuSysRegs+118,AL   ; [CPU_] |704| 
    1816                      .dwpsn  file "C:/ti/controlSUITE/device_support/F2837xS/v170/F2837xS_common/source/F2837xS_SysCtrl.c"
    1817 00000286 761A   EDIS
    1818                      .dwpsn  file "C:/ti/controlSUITE/device_support/F2837xS/v170/F2837xS_common/source/F2837xS_SysCtrl.c"
    1819 00000287 7621   IDLE
    1820                      .dwpsn  file "C:/ti/controlSUITE/device_support/F2837xS/v170/F2837xS_common/source/F2837xS_SysCtrl.c"
    1821 00000288 FF69          SPM       #0                    ; [CPU_] 
    1822              $C$DW$91        .dwtag  DW_TAG_TI_branch
    1823                      .dwattr $C$DW$91, DW_AT_low_pc(0x00)
    1824                      .dwattr $C$DW$91, DW_AT_TI_return
    1825 00000289 0006          LRETR     ; [CPU_] 
    1826                      ; return occurs ; [] 
    1827                      .dwattr $C$DW$90, DW_AT_TI_end_file("C:/ti/controlSUITE/device_support/F2837xS/v170/F2837xS_common/so
    1828                      .dwattr $C$DW$90, DW_AT_TI_end_line(0x2c3)
    1829                      .dwattr $C$DW$90, DW_AT_TI_end_column(0x01)
    1830                      .dwendentry
    1831                      .dwendtag $C$DW$90
    1832              
    1833 0000028a               .sect   ".text"
    1834                      .clink
    1835                      .global _HALT
    1836              
    1837              $C$DW$92        .dwtag  DW_TAG_subprogram, DW_AT_name("HALT")
    1838                      .dwattr $C$DW$92, DW_AT_low_pc(_HALT)
    1839                      .dwattr $C$DW$92, DW_AT_high_pc(0x00)
    1840                      .dwattr $C$DW$92, DW_AT_TI_symbol_name("_HALT")
    1841                      .dwattr $C$DW$92, DW_AT_external
    1842                      .dwattr $C$DW$92, DW_AT_TI_begin_file("C:/ti/controlSUITE/device_support/F2837xS/v170/F2837xS_common/
    1843                      .dwattr $C$DW$92, DW_AT_TI_begin_line(0x2c6)
    1844                      .dwattr $C$DW$92, DW_AT_TI_begin_column(0x06)
    1845                      .dwattr $C$DW$92, DW_AT_TI_max_frame_size(-2)
    1846                      .dwpsn  file "C:/ti/controlSUITE/device_support/F2837xS/v170/F2837xS_common/source/F2837xS_SysCtrl.c"
    1847              
    1848                      .dwfde $C$DW$CIE, _HALT
    1849              
    1850              ;***************************************************************
    1851              ;* FNAME: _HALT                         FR SIZE:   0           *
    1852              ;*                                                             *
    1853              ;* FUNCTION ENVIRONMENT                                        *
    1854              ;*                                                             *
TMS320C2000 Assembler PC v6.4.2 Thu Dec 14 15:26:44 2017

Tools Copyright (c) 1996-2015 Texas Instruments Incorporated
F2837xS_SysCtrl.asm                                                  PAGE   38

    1855              ;* FUNCTION PROPERTIES                                         *
    1856              ;*                            0 Parameter,  0 Auto,  0 SOE     *
    1857              ;***************************************************************
    1858              
    1859 0000028a       _HALT:
    1860                      .dwcfi  cfa_offset, -2
    1861                      .dwcfi  save_reg_to_mem, 26, 0
    1862                      .dwpsn  file "C:/ti/controlSUITE/device_support/F2837xS/v170/F2837xS_common/source/F2837xS_SysCtrl.c"
    1863 0000028a 7622   EALLOW
    1864                      .dwpsn  file "C:/ti/controlSUITE/device_support/F2837xS/v170/F2837xS_common/source/F2837xS_SysCtrl.c"
    1865 0000028b 761F!         MOVW      DP,#_CpuSysRegs+118   ; [CPU_U] 
         0000028c 0001 
    1866 0000028d CC36!         AND       AL,@_CpuSysRegs+118,#0xfffc ; [CPU_] |713| 
         0000028e FFFC 
    1867 0000028f 5002          ORB       AL,#0x02              ; [CPU_] |713| 
    1868 00000290 9636!         MOV       @_CpuSysRegs+118,AL   ; [CPU_] |713| 
    1869                      .dwpsn  file "C:/ti/controlSUITE/device_support/F2837xS/v170/F2837xS_common/source/F2837xS_SysCtrl.c"
    1870 00000291 761F!         MOVW      DP,#_ClkCfgRegs+14    ; [CPU_U] 
         00000292 0000 
    1871 00000293 180E!         AND       @_ClkCfgRegs+14,#0xfffd ; [CPU_] |714| 
         00000294 FFFD 
    1872                      .dwpsn  file "C:/ti/controlSUITE/device_support/F2837xS/v170/F2837xS_common/source/F2837xS_SysCtrl.c"
    1873 00000295 180E!         AND       @_ClkCfgRegs+14,#0xfffe ; [CPU_] |715| 
         00000296 FFFE 
    1874                      .dwpsn  file "C:/ti/controlSUITE/device_support/F2837xS/v170/F2837xS_common/source/F2837xS_SysCtrl.c"
    1875 00000297 761A   EDIS
    1876                      .dwpsn  file "C:/ti/controlSUITE/device_support/F2837xS/v170/F2837xS_common/source/F2837xS_SysCtrl.c"
    1877 00000298 7621   IDLE
    1878                      .dwpsn  file "C:/ti/controlSUITE/device_support/F2837xS/v170/F2837xS_common/source/F2837xS_SysCtrl.c"
    1879 00000299 FF69          SPM       #0                    ; [CPU_] 
    1880              $C$DW$93        .dwtag  DW_TAG_TI_branch
    1881                      .dwattr $C$DW$93, DW_AT_low_pc(0x00)
    1882                      .dwattr $C$DW$93, DW_AT_TI_return
    1883 0000029a 0006          LRETR     ; [CPU_] 
    1884                      ; return occurs ; [] 
    1885                      .dwattr $C$DW$92, DW_AT_TI_end_file("C:/ti/controlSUITE/device_support/F2837xS/v170/F2837xS_common/so
    1886                      .dwattr $C$DW$92, DW_AT_TI_end_line(0x2ce)
    1887                      .dwattr $C$DW$92, DW_AT_TI_end_column(0x01)
    1888                      .dwendentry
    1889                      .dwendtag $C$DW$92
    1890              
    1891 0000029b               .sect   ".text"
    1892                      .clink
    1893                      .global _HIB
    1894              
    1895              $C$DW$94        .dwtag  DW_TAG_subprogram, DW_AT_name("HIB")
    1896                      .dwattr $C$DW$94, DW_AT_low_pc(_HIB)
    1897                      .dwattr $C$DW$94, DW_AT_high_pc(0x00)
    1898                      .dwattr $C$DW$94, DW_AT_TI_symbol_name("_HIB")
    1899                      .dwattr $C$DW$94, DW_AT_external
    1900                      .dwattr $C$DW$94, DW_AT_TI_begin_file("C:/ti/controlSUITE/device_support/F2837xS/v170/F2837xS_common/
    1901                      .dwattr $C$DW$94, DW_AT_TI_begin_line(0x2d1)
    1902                      .dwattr $C$DW$94, DW_AT_TI_begin_column(0x06)
    1903                      .dwattr $C$DW$94, DW_AT_TI_max_frame_size(-2)
    1904                      .dwpsn  file "C:/ti/controlSUITE/device_support/F2837xS/v170/F2837xS_common/source/F2837xS_SysCtrl.c"
TMS320C2000 Assembler PC v6.4.2 Thu Dec 14 15:26:44 2017

Tools Copyright (c) 1996-2015 Texas Instruments Incorporated
F2837xS_SysCtrl.asm                                                  PAGE   39

    1905              
    1906                      .dwfde $C$DW$CIE, _HIB
    1907              
    1908              ;***************************************************************
    1909              ;* FNAME: _HIB                          FR SIZE:   0           *
    1910              ;*                                                             *
    1911              ;* FUNCTION ENVIRONMENT                                        *
    1912              ;*                                                             *
    1913              ;* FUNCTION PROPERTIES                                         *
    1914              ;*                            0 Parameter,  0 Auto,  0 SOE     *
    1915              ;***************************************************************
    1916              
    1917 0000029b       _HIB:
    1918                      .dwcfi  cfa_offset, -2
    1919                      .dwcfi  save_reg_to_mem, 26, 0
    1920                      .dwpsn  file "C:/ti/controlSUITE/device_support/F2837xS/v170/F2837xS_common/source/F2837xS_SysCtrl.c"
    1921 0000029b 7622   EALLOW
    1922                      .dwpsn  file "C:/ti/controlSUITE/device_support/F2837xS/v170/F2837xS_common/source/F2837xS_SysCtrl.c"
    1923 0000029c 761F!         MOVW      DP,#_CpuSysRegs+118   ; [CPU_U] 
         0000029d 0001 
    1924 0000029e 1A36!         OR        @_CpuSysRegs+118,#0x0003 ; [CPU_] |724| 
         0000029f 0003 
    1925                      .dwpsn  file "C:/ti/controlSUITE/device_support/F2837xS/v170/F2837xS_common/source/F2837xS_SysCtrl.c"
    1926 000002a0 761A   EDIS
    1927                      .dwpsn  file "C:/ti/controlSUITE/device_support/F2837xS/v170/F2837xS_common/source/F2837xS_SysCtrl.c"
    1928 000002a1 FF69          SPM       #0                    ; [CPU_] 
    1929              $C$DW$95        .dwtag  DW_TAG_TI_branch
    1930                      .dwattr $C$DW$95, DW_AT_low_pc(0x00)
    1931                      .dwattr $C$DW$95, DW_AT_name("_DisablePeripheralClocks")
    1932                      .dwattr $C$DW$95, DW_AT_TI_call
    1933 000002a2 7640'         LCR       #_DisablePeripheralClocks ; [CPU_] |726| 
         000002a3 00C1 
    1934                      ; call occurs [#_DisablePeripheralClocks] ; [] |726| 
    1935                      .dwpsn  file "C:/ti/controlSUITE/device_support/F2837xS/v170/F2837xS_common/source/F2837xS_SysCtrl.c"
    1936 000002a4 7622   EALLOW
    1937                      .dwpsn  file "C:/ti/controlSUITE/device_support/F2837xS/v170/F2837xS_common/source/F2837xS_SysCtrl.c"
    1938 000002a5 761F!         MOVW      DP,#_ClkCfgRegs+14    ; [CPU_U] 
         000002a6 0000 
    1939 000002a7 180E!         AND       @_ClkCfgRegs+14,#0xfffd ; [CPU_] |728| 
         000002a8 FFFD 
    1940                      .dwpsn  file "C:/ti/controlSUITE/device_support/F2837xS/v170/F2837xS_common/source/F2837xS_SysCtrl.c"
    1941 000002a9 180E!         AND       @_ClkCfgRegs+14,#0xfffe ; [CPU_] |729| 
         000002aa FFFE 
    1942                      .dwpsn  file "C:/ti/controlSUITE/device_support/F2837xS/v170/F2837xS_common/source/F2837xS_SysCtrl.c"
    1943 000002ab 761A   EDIS
    1944                      .dwpsn  file "C:/ti/controlSUITE/device_support/F2837xS/v170/F2837xS_common/source/F2837xS_SysCtrl.c"
    1945 000002ac 7621   IDLE
    1946                      .dwpsn  file "C:/ti/controlSUITE/device_support/F2837xS/v170/F2837xS_common/source/F2837xS_SysCtrl.c"
    1947 000002ad FF69          SPM       #0                    ; [CPU_] 
    1948              $C$DW$96        .dwtag  DW_TAG_TI_branch
    1949                      .dwattr $C$DW$96, DW_AT_low_pc(0x00)
    1950                      .dwattr $C$DW$96, DW_AT_TI_return
    1951 000002ae 0006          LRETR     ; [CPU_] 
    1952                      ; return occurs ; [] 
    1953                      .dwattr $C$DW$94, DW_AT_TI_end_file("C:/ti/controlSUITE/device_support/F2837xS/v170/F2837xS_common/so
TMS320C2000 Assembler PC v6.4.2 Thu Dec 14 15:26:44 2017

Tools Copyright (c) 1996-2015 Texas Instruments Incorporated
F2837xS_SysCtrl.asm                                                  PAGE   40

    1954                      .dwattr $C$DW$94, DW_AT_TI_end_line(0x2dc)
    1955                      .dwattr $C$DW$94, DW_AT_TI_end_column(0x01)
    1956                      .dwendentry
    1957                      .dwendtag $C$DW$94
    1958              
    1959              ;**************************************************************
    1960              ;* UNDEFINED EXTERNAL REFERENCES                              *
    1961              ;**************************************************************
    1962                      .global _F28x_usDelay
    1963                      .global _GPIO_EnableUnbondedIOPullups
    1964                      .global _RamfuncsRunStart
    1965                      .global _RamfuncsLoadStart
    1966                      .global _RamfuncsLoadSize
    1967                      .global _DcsmZ1Regs
    1968                      .global _DcsmZ2Regs
    1969                      .global _Flash0EccRegs
    1970                      .global _Flash1EccRegs
    1971                      .global _WdRegs
    1972                      .global _ClkCfgRegs
    1973                      .global _AnalogSubsysRegs
    1974                      .global _CpuSysRegs
    1975                      .global _Flash1CtrlRegs
    1976                      .global _Flash0CtrlRegs
    1977                      .global _memcpy
    1978              
    1979              ;***************************************************************
    1980              ;* TYPE INFORMATION                                            *
    1981              ;***************************************************************
    1982              
    1983              $C$DW$T$25      .dwtag  DW_TAG_structure_type
    1984                      .dwattr $C$DW$T$25, DW_AT_name("ANALOG_SUBSYS_REGS")
    1985                      .dwattr $C$DW$T$25, DW_AT_byte_size(0x48)
    1986              $C$DW$97        .dwtag  DW_TAG_member
    1987                      .dwattr $C$DW$97, DW_AT_type(*$C$DW$T$20)
    1988                      .dwattr $C$DW$97, DW_AT_name("rsvd1")
    1989                      .dwattr $C$DW$97, DW_AT_TI_symbol_name("_rsvd1")
    1990                      .dwattr $C$DW$97, DW_AT_data_member_location[DW_OP_plus_uconst 0x0]
    1991                      .dwattr $C$DW$97, DW_AT_accessibility(DW_ACCESS_public)
    1992              $C$DW$98        .dwtag  DW_TAG_member
    1993                      .dwattr $C$DW$98, DW_AT_type(*$C$DW$T$112)
    1994                      .dwattr $C$DW$98, DW_AT_name("INTOSC1TRIM")
    1995                      .dwattr $C$DW$98, DW_AT_TI_symbol_name("_INTOSC1TRIM")
    1996                      .dwattr $C$DW$98, DW_AT_data_member_location[DW_OP_plus_uconst 0x20]
    1997                      .dwattr $C$DW$98, DW_AT_accessibility(DW_ACCESS_public)
    1998              $C$DW$99        .dwtag  DW_TAG_member
    1999                      .dwattr $C$DW$99, DW_AT_type(*$C$DW$T$114)
    2000                      .dwattr $C$DW$99, DW_AT_name("INTOSC2TRIM")
    2001                      .dwattr $C$DW$99, DW_AT_TI_symbol_name("_INTOSC2TRIM")
    2002                      .dwattr $C$DW$99, DW_AT_data_member_location[DW_OP_plus_uconst 0x22]
    2003                      .dwattr $C$DW$99, DW_AT_accessibility(DW_ACCESS_public)
    2004              $C$DW$100       .dwtag  DW_TAG_member
    2005                      .dwattr $C$DW$100, DW_AT_type(*$C$DW$T$21)
    2006                      .dwattr $C$DW$100, DW_AT_name("rsvd2")
    2007                      .dwattr $C$DW$100, DW_AT_TI_symbol_name("_rsvd2")
    2008                      .dwattr $C$DW$100, DW_AT_data_member_location[DW_OP_plus_uconst 0x24]
TMS320C2000 Assembler PC v6.4.2 Thu Dec 14 15:26:44 2017

Tools Copyright (c) 1996-2015 Texas Instruments Incorporated
F2837xS_SysCtrl.asm                                                  PAGE   41

    2009                      .dwattr $C$DW$100, DW_AT_accessibility(DW_ACCESS_public)
    2010              $C$DW$101       .dwtag  DW_TAG_member
    2011                      .dwattr $C$DW$101, DW_AT_type(*$C$DW$T$176)
    2012                      .dwattr $C$DW$101, DW_AT_name("TSNSCTL")
    2013                      .dwattr $C$DW$101, DW_AT_TI_symbol_name("_TSNSCTL")
    2014                      .dwattr $C$DW$101, DW_AT_data_member_location[DW_OP_plus_uconst 0x26]
    2015                      .dwattr $C$DW$101, DW_AT_accessibility(DW_ACCESS_public)
    2016              $C$DW$102       .dwtag  DW_TAG_member
    2017                      .dwattr $C$DW$102, DW_AT_type(*$C$DW$T$22)
    2018                      .dwattr $C$DW$102, DW_AT_name("rsvd3")
    2019                      .dwattr $C$DW$102, DW_AT_TI_symbol_name("_rsvd3")
    2020                      .dwattr $C$DW$102, DW_AT_data_member_location[DW_OP_plus_uconst 0x27]
    2021                      .dwattr $C$DW$102, DW_AT_accessibility(DW_ACCESS_public)
    2022              $C$DW$103       .dwtag  DW_TAG_member
    2023                      .dwattr $C$DW$103, DW_AT_type(*$C$DW$T$118)
    2024                      .dwattr $C$DW$103, DW_AT_name("LOCK")
    2025                      .dwattr $C$DW$103, DW_AT_TI_symbol_name("_LOCK")
    2026                      .dwattr $C$DW$103, DW_AT_data_member_location[DW_OP_plus_uconst 0x2e]
    2027                      .dwattr $C$DW$103, DW_AT_accessibility(DW_ACCESS_public)
    2028              $C$DW$104       .dwtag  DW_TAG_member
    2029                      .dwattr $C$DW$104, DW_AT_type(*$C$DW$T$23)
    2030                      .dwattr $C$DW$104, DW_AT_name("rsvd4")
    2031                      .dwattr $C$DW$104, DW_AT_TI_symbol_name("_rsvd4")
    2032                      .dwattr $C$DW$104, DW_AT_data_member_location[DW_OP_plus_uconst 0x30]
    2033                      .dwattr $C$DW$104, DW_AT_accessibility(DW_ACCESS_public)
    2034              $C$DW$105       .dwtag  DW_TAG_member
    2035                      .dwattr $C$DW$105, DW_AT_type(*$C$DW$T$28)
    2036                      .dwattr $C$DW$105, DW_AT_name("ANAREFTRIMA")
    2037                      .dwattr $C$DW$105, DW_AT_TI_symbol_name("_ANAREFTRIMA")
    2038                      .dwattr $C$DW$105, DW_AT_data_member_location[DW_OP_plus_uconst 0x36]
    2039                      .dwattr $C$DW$105, DW_AT_accessibility(DW_ACCESS_public)
    2040              $C$DW$106       .dwtag  DW_TAG_member
    2041                      .dwattr $C$DW$106, DW_AT_type(*$C$DW$T$30)
    2042                      .dwattr $C$DW$106, DW_AT_name("ANAREFTRIMB")
    2043                      .dwattr $C$DW$106, DW_AT_TI_symbol_name("_ANAREFTRIMB")
    2044                      .dwattr $C$DW$106, DW_AT_data_member_location[DW_OP_plus_uconst 0x38]
    2045                      .dwattr $C$DW$106, DW_AT_accessibility(DW_ACCESS_public)
    2046              $C$DW$107       .dwtag  DW_TAG_member
    2047                      .dwattr $C$DW$107, DW_AT_type(*$C$DW$T$32)
    2048                      .dwattr $C$DW$107, DW_AT_name("ANAREFTRIMC")
    2049                      .dwattr $C$DW$107, DW_AT_TI_symbol_name("_ANAREFTRIMC")
    2050                      .dwattr $C$DW$107, DW_AT_data_member_location[DW_OP_plus_uconst 0x3a]
    2051                      .dwattr $C$DW$107, DW_AT_accessibility(DW_ACCESS_public)
    2052              $C$DW$108       .dwtag  DW_TAG_member
    2053                      .dwattr $C$DW$108, DW_AT_type(*$C$DW$T$34)
    2054                      .dwattr $C$DW$108, DW_AT_name("ANAREFTRIMD")
    2055                      .dwattr $C$DW$108, DW_AT_TI_symbol_name("_ANAREFTRIMD")
    2056                      .dwattr $C$DW$108, DW_AT_data_member_location[DW_OP_plus_uconst 0x3c]
    2057                      .dwattr $C$DW$108, DW_AT_accessibility(DW_ACCESS_public)
    2058              $C$DW$109       .dwtag  DW_TAG_member
    2059                      .dwattr $C$DW$109, DW_AT_type(*$C$DW$T$24)
    2060                      .dwattr $C$DW$109, DW_AT_name("rsvd5")
    2061                      .dwattr $C$DW$109, DW_AT_TI_symbol_name("_rsvd5")
    2062                      .dwattr $C$DW$109, DW_AT_data_member_location[DW_OP_plus_uconst 0x3e]
    2063                      .dwattr $C$DW$109, DW_AT_accessibility(DW_ACCESS_public)
TMS320C2000 Assembler PC v6.4.2 Thu Dec 14 15:26:44 2017

Tools Copyright (c) 1996-2015 Texas Instruments Incorporated
F2837xS_SysCtrl.asm                                                  PAGE   42

    2064                      .dwendtag $C$DW$T$25
    2065              
    2066              $C$DW$110       .dwtag  DW_TAG_TI_far_type
    2067                      .dwattr $C$DW$110, DW_AT_type(*$C$DW$T$25)
    2068              $C$DW$T$224     .dwtag  DW_TAG_volatile_type
    2069                      .dwattr $C$DW$T$224, DW_AT_type(*$C$DW$110)
    2070              
    2071              $C$DW$T$26      .dwtag  DW_TAG_structure_type
    2072                      .dwattr $C$DW$T$26, DW_AT_name("ANAREFTRIMA_BITS")
    2073                      .dwattr $C$DW$T$26, DW_AT_byte_size(0x02)
    2074              $C$DW$111       .dwtag  DW_TAG_member
    2075                      .dwattr $C$DW$111, DW_AT_type(*$C$DW$T$19)
    2076                      .dwattr $C$DW$111, DW_AT_name("BGVALTRIM")
    2077                      .dwattr $C$DW$111, DW_AT_TI_symbol_name("_BGVALTRIM")
    2078                      .dwattr $C$DW$111, DW_AT_bit_offset(0x0a), DW_AT_bit_size(0x06)
    2079                      .dwattr $C$DW$111, DW_AT_data_member_location[DW_OP_plus_uconst 0x0]
    2080                      .dwattr $C$DW$111, DW_AT_accessibility(DW_ACCESS_public)
    2081              $C$DW$112       .dwtag  DW_TAG_member
    2082                      .dwattr $C$DW$112, DW_AT_type(*$C$DW$T$19)
    2083                      .dwattr $C$DW$112, DW_AT_name("BGSLOPETRIM")
    2084                      .dwattr $C$DW$112, DW_AT_TI_symbol_name("_BGSLOPETRIM")
    2085                      .dwattr $C$DW$112, DW_AT_bit_offset(0x05), DW_AT_bit_size(0x05)
    2086                      .dwattr $C$DW$112, DW_AT_data_member_location[DW_OP_plus_uconst 0x0]
    2087                      .dwattr $C$DW$112, DW_AT_accessibility(DW_ACCESS_public)
    2088              $C$DW$113       .dwtag  DW_TAG_member
    2089                      .dwattr $C$DW$113, DW_AT_type(*$C$DW$T$19)
    2090                      .dwattr $C$DW$113, DW_AT_name("IREFTRIM")
    2091                      .dwattr $C$DW$113, DW_AT_TI_symbol_name("_IREFTRIM")
    2092                      .dwattr $C$DW$113, DW_AT_bit_offset(0x00), DW_AT_bit_size(0x05)
    2093                      .dwattr $C$DW$113, DW_AT_data_member_location[DW_OP_plus_uconst 0x0]
    2094                      .dwattr $C$DW$113, DW_AT_accessibility(DW_ACCESS_public)
    2095              $C$DW$114       .dwtag  DW_TAG_member
    2096                      .dwattr $C$DW$114, DW_AT_type(*$C$DW$T$19)
    2097                      .dwattr $C$DW$114, DW_AT_name("rsvd1")
    2098                      .dwattr $C$DW$114, DW_AT_TI_symbol_name("_rsvd1")
    2099                      .dwattr $C$DW$114, DW_AT_bit_offset(0x08), DW_AT_bit_size(0x08)
    2100                      .dwattr $C$DW$114, DW_AT_data_member_location[DW_OP_plus_uconst 0x1]
    2101                      .dwattr $C$DW$114, DW_AT_accessibility(DW_ACCESS_public)
    2102              $C$DW$115       .dwtag  DW_TAG_member
    2103                      .dwattr $C$DW$115, DW_AT_type(*$C$DW$T$19)
    2104                      .dwattr $C$DW$115, DW_AT_name("rsvd2")
    2105                      .dwattr $C$DW$115, DW_AT_TI_symbol_name("_rsvd2")
    2106                      .dwattr $C$DW$115, DW_AT_bit_offset(0x00), DW_AT_bit_size(0x08)
    2107                      .dwattr $C$DW$115, DW_AT_data_member_location[DW_OP_plus_uconst 0x1]
    2108                      .dwattr $C$DW$115, DW_AT_accessibility(DW_ACCESS_public)
    2109                      .dwendtag $C$DW$T$26
    2110              
    2111              
    2112              $C$DW$T$28      .dwtag  DW_TAG_union_type
    2113                      .dwattr $C$DW$T$28, DW_AT_name("ANAREFTRIMA_REG")
    2114                      .dwattr $C$DW$T$28, DW_AT_byte_size(0x02)
    2115              $C$DW$116       .dwtag  DW_TAG_member
    2116                      .dwattr $C$DW$116, DW_AT_type(*$C$DW$T$27)
    2117                      .dwattr $C$DW$116, DW_AT_name("all")
    2118                      .dwattr $C$DW$116, DW_AT_TI_symbol_name("_all")
TMS320C2000 Assembler PC v6.4.2 Thu Dec 14 15:26:44 2017

Tools Copyright (c) 1996-2015 Texas Instruments Incorporated
F2837xS_SysCtrl.asm                                                  PAGE   43

    2119                      .dwattr $C$DW$116, DW_AT_data_member_location[DW_OP_plus_uconst 0x0]
    2120                      .dwattr $C$DW$116, DW_AT_accessibility(DW_ACCESS_public)
    2121              $C$DW$117       .dwtag  DW_TAG_member
    2122                      .dwattr $C$DW$117, DW_AT_type(*$C$DW$T$26)
    2123                      .dwattr $C$DW$117, DW_AT_name("bit")
    2124                      .dwattr $C$DW$117, DW_AT_TI_symbol_name("_bit")
    2125                      .dwattr $C$DW$117, DW_AT_data_member_location[DW_OP_plus_uconst 0x0]
    2126                      .dwattr $C$DW$117, DW_AT_accessibility(DW_ACCESS_public)
    2127                      .dwendtag $C$DW$T$28
    2128              
    2129              
    2130              $C$DW$T$29      .dwtag  DW_TAG_structure_type
    2131                      .dwattr $C$DW$T$29, DW_AT_name("ANAREFTRIMB_BITS")
    2132                      .dwattr $C$DW$T$29, DW_AT_byte_size(0x02)
    2133              $C$DW$118       .dwtag  DW_TAG_member
    2134                      .dwattr $C$DW$118, DW_AT_type(*$C$DW$T$19)
    2135                      .dwattr $C$DW$118, DW_AT_name("BGVALTRIM")
    2136                      .dwattr $C$DW$118, DW_AT_TI_symbol_name("_BGVALTRIM")
    2137                      .dwattr $C$DW$118, DW_AT_bit_offset(0x0a), DW_AT_bit_size(0x06)
    2138                      .dwattr $C$DW$118, DW_AT_data_member_location[DW_OP_plus_uconst 0x0]
    2139                      .dwattr $C$DW$118, DW_AT_accessibility(DW_ACCESS_public)
    2140              $C$DW$119       .dwtag  DW_TAG_member
    2141                      .dwattr $C$DW$119, DW_AT_type(*$C$DW$T$19)
    2142                      .dwattr $C$DW$119, DW_AT_name("BGSLOPETRIM")
    2143                      .dwattr $C$DW$119, DW_AT_TI_symbol_name("_BGSLOPETRIM")
    2144                      .dwattr $C$DW$119, DW_AT_bit_offset(0x05), DW_AT_bit_size(0x05)
    2145                      .dwattr $C$DW$119, DW_AT_data_member_location[DW_OP_plus_uconst 0x0]
    2146                      .dwattr $C$DW$119, DW_AT_accessibility(DW_ACCESS_public)
    2147              $C$DW$120       .dwtag  DW_TAG_member
    2148                      .dwattr $C$DW$120, DW_AT_type(*$C$DW$T$19)
    2149                      .dwattr $C$DW$120, DW_AT_name("IREFTRIM")
    2150                      .dwattr $C$DW$120, DW_AT_TI_symbol_name("_IREFTRIM")
    2151                      .dwattr $C$DW$120, DW_AT_bit_offset(0x00), DW_AT_bit_size(0x05)
    2152                      .dwattr $C$DW$120, DW_AT_data_member_location[DW_OP_plus_uconst 0x0]
    2153                      .dwattr $C$DW$120, DW_AT_accessibility(DW_ACCESS_public)
    2154              $C$DW$121       .dwtag  DW_TAG_member
    2155                      .dwattr $C$DW$121, DW_AT_type(*$C$DW$T$19)
    2156                      .dwattr $C$DW$121, DW_AT_name("rsvd1")
    2157                      .dwattr $C$DW$121, DW_AT_TI_symbol_name("_rsvd1")
    2158                      .dwattr $C$DW$121, DW_AT_bit_offset(0x08), DW_AT_bit_size(0x08)
    2159                      .dwattr $C$DW$121, DW_AT_data_member_location[DW_OP_plus_uconst 0x1]
    2160                      .dwattr $C$DW$121, DW_AT_accessibility(DW_ACCESS_public)
    2161              $C$DW$122       .dwtag  DW_TAG_member
    2162                      .dwattr $C$DW$122, DW_AT_type(*$C$DW$T$19)
    2163                      .dwattr $C$DW$122, DW_AT_name("rsvd2")
    2164                      .dwattr $C$DW$122, DW_AT_TI_symbol_name("_rsvd2")
    2165                      .dwattr $C$DW$122, DW_AT_bit_offset(0x00), DW_AT_bit_size(0x08)
    2166                      .dwattr $C$DW$122, DW_AT_data_member_location[DW_OP_plus_uconst 0x1]
    2167                      .dwattr $C$DW$122, DW_AT_accessibility(DW_ACCESS_public)
    2168                      .dwendtag $C$DW$T$29
    2169              
    2170              
    2171              $C$DW$T$30      .dwtag  DW_TAG_union_type
    2172                      .dwattr $C$DW$T$30, DW_AT_name("ANAREFTRIMB_REG")
    2173                      .dwattr $C$DW$T$30, DW_AT_byte_size(0x02)
TMS320C2000 Assembler PC v6.4.2 Thu Dec 14 15:26:44 2017

Tools Copyright (c) 1996-2015 Texas Instruments Incorporated
F2837xS_SysCtrl.asm                                                  PAGE   44

    2174              $C$DW$123       .dwtag  DW_TAG_member
    2175                      .dwattr $C$DW$123, DW_AT_type(*$C$DW$T$27)
    2176                      .dwattr $C$DW$123, DW_AT_name("all")
    2177                      .dwattr $C$DW$123, DW_AT_TI_symbol_name("_all")
    2178                      .dwattr $C$DW$123, DW_AT_data_member_location[DW_OP_plus_uconst 0x0]
    2179                      .dwattr $C$DW$123, DW_AT_accessibility(DW_ACCESS_public)
    2180              $C$DW$124       .dwtag  DW_TAG_member
    2181                      .dwattr $C$DW$124, DW_AT_type(*$C$DW$T$29)
    2182                      .dwattr $C$DW$124, DW_AT_name("bit")
    2183                      .dwattr $C$DW$124, DW_AT_TI_symbol_name("_bit")
    2184                      .dwattr $C$DW$124, DW_AT_data_member_location[DW_OP_plus_uconst 0x0]
    2185                      .dwattr $C$DW$124, DW_AT_accessibility(DW_ACCESS_public)
    2186                      .dwendtag $C$DW$T$30
    2187              
    2188              
    2189              $C$DW$T$31      .dwtag  DW_TAG_structure_type
    2190                      .dwattr $C$DW$T$31, DW_AT_name("ANAREFTRIMC_BITS")
    2191                      .dwattr $C$DW$T$31, DW_AT_byte_size(0x02)
    2192              $C$DW$125       .dwtag  DW_TAG_member
    2193                      .dwattr $C$DW$125, DW_AT_type(*$C$DW$T$19)
    2194                      .dwattr $C$DW$125, DW_AT_name("BGVALTRIM")
    2195                      .dwattr $C$DW$125, DW_AT_TI_symbol_name("_BGVALTRIM")
    2196                      .dwattr $C$DW$125, DW_AT_bit_offset(0x0a), DW_AT_bit_size(0x06)
    2197                      .dwattr $C$DW$125, DW_AT_data_member_location[DW_OP_plus_uconst 0x0]
    2198                      .dwattr $C$DW$125, DW_AT_accessibility(DW_ACCESS_public)
    2199              $C$DW$126       .dwtag  DW_TAG_member
    2200                      .dwattr $C$DW$126, DW_AT_type(*$C$DW$T$19)
    2201                      .dwattr $C$DW$126, DW_AT_name("BGSLOPETRIM")
    2202                      .dwattr $C$DW$126, DW_AT_TI_symbol_name("_BGSLOPETRIM")
    2203                      .dwattr $C$DW$126, DW_AT_bit_offset(0x05), DW_AT_bit_size(0x05)
    2204                      .dwattr $C$DW$126, DW_AT_data_member_location[DW_OP_plus_uconst 0x0]
    2205                      .dwattr $C$DW$126, DW_AT_accessibility(DW_ACCESS_public)
    2206              $C$DW$127       .dwtag  DW_TAG_member
    2207                      .dwattr $C$DW$127, DW_AT_type(*$C$DW$T$19)
    2208                      .dwattr $C$DW$127, DW_AT_name("IREFTRIM")
    2209                      .dwattr $C$DW$127, DW_AT_TI_symbol_name("_IREFTRIM")
    2210                      .dwattr $C$DW$127, DW_AT_bit_offset(0x00), DW_AT_bit_size(0x05)
    2211                      .dwattr $C$DW$127, DW_AT_data_member_location[DW_OP_plus_uconst 0x0]
    2212                      .dwattr $C$DW$127, DW_AT_accessibility(DW_ACCESS_public)
    2213              $C$DW$128       .dwtag  DW_TAG_member
    2214                      .dwattr $C$DW$128, DW_AT_type(*$C$DW$T$19)
    2215                      .dwattr $C$DW$128, DW_AT_name("rsvd1")
    2216                      .dwattr $C$DW$128, DW_AT_TI_symbol_name("_rsvd1")
    2217                      .dwattr $C$DW$128, DW_AT_bit_offset(0x08), DW_AT_bit_size(0x08)
    2218                      .dwattr $C$DW$128, DW_AT_data_member_location[DW_OP_plus_uconst 0x1]
    2219                      .dwattr $C$DW$128, DW_AT_accessibility(DW_ACCESS_public)
    2220              $C$DW$129       .dwtag  DW_TAG_member
    2221                      .dwattr $C$DW$129, DW_AT_type(*$C$DW$T$19)
    2222                      .dwattr $C$DW$129, DW_AT_name("rsvd2")
    2223                      .dwattr $C$DW$129, DW_AT_TI_symbol_name("_rsvd2")
    2224                      .dwattr $C$DW$129, DW_AT_bit_offset(0x00), DW_AT_bit_size(0x08)
    2225                      .dwattr $C$DW$129, DW_AT_data_member_location[DW_OP_plus_uconst 0x1]
    2226                      .dwattr $C$DW$129, DW_AT_accessibility(DW_ACCESS_public)
    2227                      .dwendtag $C$DW$T$31
    2228              
TMS320C2000 Assembler PC v6.4.2 Thu Dec 14 15:26:44 2017

Tools Copyright (c) 1996-2015 Texas Instruments Incorporated
F2837xS_SysCtrl.asm                                                  PAGE   45

    2229              
    2230              $C$DW$T$32      .dwtag  DW_TAG_union_type
    2231                      .dwattr $C$DW$T$32, DW_AT_name("ANAREFTRIMC_REG")
    2232                      .dwattr $C$DW$T$32, DW_AT_byte_size(0x02)
    2233              $C$DW$130       .dwtag  DW_TAG_member
    2234                      .dwattr $C$DW$130, DW_AT_type(*$C$DW$T$27)
    2235                      .dwattr $C$DW$130, DW_AT_name("all")
    2236                      .dwattr $C$DW$130, DW_AT_TI_symbol_name("_all")
    2237                      .dwattr $C$DW$130, DW_AT_data_member_location[DW_OP_plus_uconst 0x0]
    2238                      .dwattr $C$DW$130, DW_AT_accessibility(DW_ACCESS_public)
    2239              $C$DW$131       .dwtag  DW_TAG_member
    2240                      .dwattr $C$DW$131, DW_AT_type(*$C$DW$T$31)
    2241                      .dwattr $C$DW$131, DW_AT_name("bit")
    2242                      .dwattr $C$DW$131, DW_AT_TI_symbol_name("_bit")
    2243                      .dwattr $C$DW$131, DW_AT_data_member_location[DW_OP_plus_uconst 0x0]
    2244                      .dwattr $C$DW$131, DW_AT_accessibility(DW_ACCESS_public)
    2245                      .dwendtag $C$DW$T$32
    2246              
    2247              
    2248              $C$DW$T$33      .dwtag  DW_TAG_structure_type
    2249                      .dwattr $C$DW$T$33, DW_AT_name("ANAREFTRIMD_BITS")
    2250                      .dwattr $C$DW$T$33, DW_AT_byte_size(0x02)
    2251              $C$DW$132       .dwtag  DW_TAG_member
    2252                      .dwattr $C$DW$132, DW_AT_type(*$C$DW$T$19)
    2253                      .dwattr $C$DW$132, DW_AT_name("BGVALTRIM")
    2254                      .dwattr $C$DW$132, DW_AT_TI_symbol_name("_BGVALTRIM")
    2255                      .dwattr $C$DW$132, DW_AT_bit_offset(0x0a), DW_AT_bit_size(0x06)
    2256                      .dwattr $C$DW$132, DW_AT_data_member_location[DW_OP_plus_uconst 0x0]
    2257                      .dwattr $C$DW$132, DW_AT_accessibility(DW_ACCESS_public)
    2258              $C$DW$133       .dwtag  DW_TAG_member
    2259                      .dwattr $C$DW$133, DW_AT_type(*$C$DW$T$19)
    2260                      .dwattr $C$DW$133, DW_AT_name("BGSLOPETRIM")
    2261                      .dwattr $C$DW$133, DW_AT_TI_symbol_name("_BGSLOPETRIM")
    2262                      .dwattr $C$DW$133, DW_AT_bit_offset(0x05), DW_AT_bit_size(0x05)
    2263                      .dwattr $C$DW$133, DW_AT_data_member_location[DW_OP_plus_uconst 0x0]
    2264                      .dwattr $C$DW$133, DW_AT_accessibility(DW_ACCESS_public)
    2265              $C$DW$134       .dwtag  DW_TAG_member
    2266                      .dwattr $C$DW$134, DW_AT_type(*$C$DW$T$19)
    2267                      .dwattr $C$DW$134, DW_AT_name("IREFTRIM")
    2268                      .dwattr $C$DW$134, DW_AT_TI_symbol_name("_IREFTRIM")
    2269                      .dwattr $C$DW$134, DW_AT_bit_offset(0x00), DW_AT_bit_size(0x05)
    2270                      .dwattr $C$DW$134, DW_AT_data_member_location[DW_OP_plus_uconst 0x0]
    2271                      .dwattr $C$DW$134, DW_AT_accessibility(DW_ACCESS_public)
    2272              $C$DW$135       .dwtag  DW_TAG_member
    2273                      .dwattr $C$DW$135, DW_AT_type(*$C$DW$T$19)
    2274                      .dwattr $C$DW$135, DW_AT_name("rsvd1")
    2275                      .dwattr $C$DW$135, DW_AT_TI_symbol_name("_rsvd1")
    2276                      .dwattr $C$DW$135, DW_AT_bit_offset(0x08), DW_AT_bit_size(0x08)
    2277                      .dwattr $C$DW$135, DW_AT_data_member_location[DW_OP_plus_uconst 0x1]
    2278                      .dwattr $C$DW$135, DW_AT_accessibility(DW_ACCESS_public)
    2279              $C$DW$136       .dwtag  DW_TAG_member
    2280                      .dwattr $C$DW$136, DW_AT_type(*$C$DW$T$19)
    2281                      .dwattr $C$DW$136, DW_AT_name("rsvd2")
    2282                      .dwattr $C$DW$136, DW_AT_TI_symbol_name("_rsvd2")
    2283                      .dwattr $C$DW$136, DW_AT_bit_offset(0x00), DW_AT_bit_size(0x08)
TMS320C2000 Assembler PC v6.4.2 Thu Dec 14 15:26:44 2017

Tools Copyright (c) 1996-2015 Texas Instruments Incorporated
F2837xS_SysCtrl.asm                                                  PAGE   46

    2284                      .dwattr $C$DW$136, DW_AT_data_member_location[DW_OP_plus_uconst 0x1]
    2285                      .dwattr $C$DW$136, DW_AT_accessibility(DW_ACCESS_public)
    2286                      .dwendtag $C$DW$T$33
    2287              
    2288              
    2289              $C$DW$T$34      .dwtag  DW_TAG_union_type
    2290                      .dwattr $C$DW$T$34, DW_AT_name("ANAREFTRIMD_REG")
    2291                      .dwattr $C$DW$T$34, DW_AT_byte_size(0x02)
    2292              $C$DW$137       .dwtag  DW_TAG_member
    2293                      .dwattr $C$DW$137, DW_AT_type(*$C$DW$T$27)
    2294                      .dwattr $C$DW$137, DW_AT_name("all")
    2295                      .dwattr $C$DW$137, DW_AT_TI_symbol_name("_all")
    2296                      .dwattr $C$DW$137, DW_AT_data_member_location[DW_OP_plus_uconst 0x0]
    2297                      .dwattr $C$DW$137, DW_AT_accessibility(DW_ACCESS_public)
    2298              $C$DW$138       .dwtag  DW_TAG_member
    2299                      .dwattr $C$DW$138, DW_AT_type(*$C$DW$T$33)
    2300                      .dwattr $C$DW$138, DW_AT_name("bit")
    2301                      .dwattr $C$DW$138, DW_AT_TI_symbol_name("_bit")
    2302                      .dwattr $C$DW$138, DW_AT_data_member_location[DW_OP_plus_uconst 0x0]
    2303                      .dwattr $C$DW$138, DW_AT_accessibility(DW_ACCESS_public)
    2304                      .dwendtag $C$DW$T$34
    2305              
    2306              
    2307              $C$DW$T$35      .dwtag  DW_TAG_structure_type
    2308                      .dwattr $C$DW$T$35, DW_AT_name("AUXCLKDIVSEL_BITS")
    2309                      .dwattr $C$DW$T$35, DW_AT_byte_size(0x02)
    2310              $C$DW$139       .dwtag  DW_TAG_member
    2311                      .dwattr $C$DW$139, DW_AT_type(*$C$DW$T$19)
    2312                      .dwattr $C$DW$139, DW_AT_name("AUXPLLDIV")
    2313                      .dwattr $C$DW$139, DW_AT_TI_symbol_name("_AUXPLLDIV")
    2314                      .dwattr $C$DW$139, DW_AT_bit_offset(0x0e), DW_AT_bit_size(0x02)
    2315                      .dwattr $C$DW$139, DW_AT_data_member_location[DW_OP_plus_uconst 0x0]
    2316                      .dwattr $C$DW$139, DW_AT_accessibility(DW_ACCESS_public)
    2317              $C$DW$140       .dwtag  DW_TAG_member
    2318                      .dwattr $C$DW$140, DW_AT_type(*$C$DW$T$19)
    2319                      .dwattr $C$DW$140, DW_AT_name("rsvd1")
    2320                      .dwattr $C$DW$140, DW_AT_TI_symbol_name("_rsvd1")
    2321                      .dwattr $C$DW$140, DW_AT_bit_offset(0x00), DW_AT_bit_size(0x0e)
    2322                      .dwattr $C$DW$140, DW_AT_data_member_location[DW_OP_plus_uconst 0x0]
    2323                      .dwattr $C$DW$140, DW_AT_accessibility(DW_ACCESS_public)
    2324              $C$DW$141       .dwtag  DW_TAG_member
    2325                      .dwattr $C$DW$141, DW_AT_type(*$C$DW$T$19)
    2326                      .dwattr $C$DW$141, DW_AT_name("rsvd2")
    2327                      .dwattr $C$DW$141, DW_AT_TI_symbol_name("_rsvd2")
    2328                      .dwattr $C$DW$141, DW_AT_bit_offset(0x00), DW_AT_bit_size(0x10)
    2329                      .dwattr $C$DW$141, DW_AT_data_member_location[DW_OP_plus_uconst 0x1]
    2330                      .dwattr $C$DW$141, DW_AT_accessibility(DW_ACCESS_public)
    2331                      .dwendtag $C$DW$T$35
    2332              
    2333              
    2334              $C$DW$T$36      .dwtag  DW_TAG_union_type
    2335                      .dwattr $C$DW$T$36, DW_AT_name("AUXCLKDIVSEL_REG")
    2336                      .dwattr $C$DW$T$36, DW_AT_byte_size(0x02)
    2337              $C$DW$142       .dwtag  DW_TAG_member
    2338                      .dwattr $C$DW$142, DW_AT_type(*$C$DW$T$27)
TMS320C2000 Assembler PC v6.4.2 Thu Dec 14 15:26:44 2017

Tools Copyright (c) 1996-2015 Texas Instruments Incorporated
F2837xS_SysCtrl.asm                                                  PAGE   47

    2339                      .dwattr $C$DW$142, DW_AT_name("all")
    2340                      .dwattr $C$DW$142, DW_AT_TI_symbol_name("_all")
    2341                      .dwattr $C$DW$142, DW_AT_data_member_location[DW_OP_plus_uconst 0x0]
    2342                      .dwattr $C$DW$142, DW_AT_accessibility(DW_ACCESS_public)
    2343              $C$DW$143       .dwtag  DW_TAG_member
    2344                      .dwattr $C$DW$143, DW_AT_type(*$C$DW$T$35)
    2345                      .dwattr $C$DW$143, DW_AT_name("bit")
    2346                      .dwattr $C$DW$143, DW_AT_TI_symbol_name("_bit")
    2347                      .dwattr $C$DW$143, DW_AT_data_member_location[DW_OP_plus_uconst 0x0]
    2348                      .dwattr $C$DW$143, DW_AT_accessibility(DW_ACCESS_public)
    2349                      .dwendtag $C$DW$T$36
    2350              
    2351              
    2352              $C$DW$T$37      .dwtag  DW_TAG_structure_type
    2353                      .dwattr $C$DW$T$37, DW_AT_name("AUXPLLCTL1_BITS")
    2354                      .dwattr $C$DW$T$37, DW_AT_byte_size(0x02)
    2355              $C$DW$144       .dwtag  DW_TAG_member
    2356                      .dwattr $C$DW$144, DW_AT_type(*$C$DW$T$19)
    2357                      .dwattr $C$DW$144, DW_AT_name("PLLEN")
    2358                      .dwattr $C$DW$144, DW_AT_TI_symbol_name("_PLLEN")
    2359                      .dwattr $C$DW$144, DW_AT_bit_offset(0x0f), DW_AT_bit_size(0x01)
    2360                      .dwattr $C$DW$144, DW_AT_data_member_location[DW_OP_plus_uconst 0x0]
    2361                      .dwattr $C$DW$144, DW_AT_accessibility(DW_ACCESS_public)
    2362              $C$DW$145       .dwtag  DW_TAG_member
    2363                      .dwattr $C$DW$145, DW_AT_type(*$C$DW$T$19)
    2364                      .dwattr $C$DW$145, DW_AT_name("PLLCLKEN")
    2365                      .dwattr $C$DW$145, DW_AT_TI_symbol_name("_PLLCLKEN")
    2366                      .dwattr $C$DW$145, DW_AT_bit_offset(0x0e), DW_AT_bit_size(0x01)
    2367                      .dwattr $C$DW$145, DW_AT_data_member_location[DW_OP_plus_uconst 0x0]
    2368                      .dwattr $C$DW$145, DW_AT_accessibility(DW_ACCESS_public)
    2369              $C$DW$146       .dwtag  DW_TAG_member
    2370                      .dwattr $C$DW$146, DW_AT_type(*$C$DW$T$19)
    2371                      .dwattr $C$DW$146, DW_AT_name("rsvd1")
    2372                      .dwattr $C$DW$146, DW_AT_TI_symbol_name("_rsvd1")
    2373                      .dwattr $C$DW$146, DW_AT_bit_offset(0x00), DW_AT_bit_size(0x0e)
    2374                      .dwattr $C$DW$146, DW_AT_data_member_location[DW_OP_plus_uconst 0x0]
    2375                      .dwattr $C$DW$146, DW_AT_accessibility(DW_ACCESS_public)
    2376              $C$DW$147       .dwtag  DW_TAG_member
    2377                      .dwattr $C$DW$147, DW_AT_type(*$C$DW$T$19)
    2378                      .dwattr $C$DW$147, DW_AT_name("rsvd2")
    2379                      .dwattr $C$DW$147, DW_AT_TI_symbol_name("_rsvd2")
    2380                      .dwattr $C$DW$147, DW_AT_bit_offset(0x00), DW_AT_bit_size(0x10)
    2381                      .dwattr $C$DW$147, DW_AT_data_member_location[DW_OP_plus_uconst 0x1]
    2382                      .dwattr $C$DW$147, DW_AT_accessibility(DW_ACCESS_public)
    2383                      .dwendtag $C$DW$T$37
    2384              
    2385              
    2386              $C$DW$T$38      .dwtag  DW_TAG_union_type
    2387                      .dwattr $C$DW$T$38, DW_AT_name("AUXPLLCTL1_REG")
    2388                      .dwattr $C$DW$T$38, DW_AT_byte_size(0x02)
    2389              $C$DW$148       .dwtag  DW_TAG_member
    2390                      .dwattr $C$DW$148, DW_AT_type(*$C$DW$T$27)
    2391                      .dwattr $C$DW$148, DW_AT_name("all")
    2392                      .dwattr $C$DW$148, DW_AT_TI_symbol_name("_all")
    2393                      .dwattr $C$DW$148, DW_AT_data_member_location[DW_OP_plus_uconst 0x0]
TMS320C2000 Assembler PC v6.4.2 Thu Dec 14 15:26:44 2017

Tools Copyright (c) 1996-2015 Texas Instruments Incorporated
F2837xS_SysCtrl.asm                                                  PAGE   48

    2394                      .dwattr $C$DW$148, DW_AT_accessibility(DW_ACCESS_public)
    2395              $C$DW$149       .dwtag  DW_TAG_member
    2396                      .dwattr $C$DW$149, DW_AT_type(*$C$DW$T$37)
    2397                      .dwattr $C$DW$149, DW_AT_name("bit")
    2398                      .dwattr $C$DW$149, DW_AT_TI_symbol_name("_bit")
    2399                      .dwattr $C$DW$149, DW_AT_data_member_location[DW_OP_plus_uconst 0x0]
    2400                      .dwattr $C$DW$149, DW_AT_accessibility(DW_ACCESS_public)
    2401                      .dwendtag $C$DW$T$38
    2402              
    2403              
    2404              $C$DW$T$39      .dwtag  DW_TAG_structure_type
    2405                      .dwattr $C$DW$T$39, DW_AT_name("AUXPLLMULT_BITS")
    2406                      .dwattr $C$DW$T$39, DW_AT_byte_size(0x02)
    2407              $C$DW$150       .dwtag  DW_TAG_member
    2408                      .dwattr $C$DW$150, DW_AT_type(*$C$DW$T$19)
    2409                      .dwattr $C$DW$150, DW_AT_name("IMULT")
    2410                      .dwattr $C$DW$150, DW_AT_TI_symbol_name("_IMULT")
    2411                      .dwattr $C$DW$150, DW_AT_bit_offset(0x09), DW_AT_bit_size(0x07)
    2412                      .dwattr $C$DW$150, DW_AT_data_member_location[DW_OP_plus_uconst 0x0]
    2413                      .dwattr $C$DW$150, DW_AT_accessibility(DW_ACCESS_public)
    2414              $C$DW$151       .dwtag  DW_TAG_member
    2415                      .dwattr $C$DW$151, DW_AT_type(*$C$DW$T$19)
    2416                      .dwattr $C$DW$151, DW_AT_name("rsvd1")
    2417                      .dwattr $C$DW$151, DW_AT_TI_symbol_name("_rsvd1")
    2418                      .dwattr $C$DW$151, DW_AT_bit_offset(0x08), DW_AT_bit_size(0x01)
    2419                      .dwattr $C$DW$151, DW_AT_data_member_location[DW_OP_plus_uconst 0x0]
    2420                      .dwattr $C$DW$151, DW_AT_accessibility(DW_ACCESS_public)
    2421              $C$DW$152       .dwtag  DW_TAG_member
    2422                      .dwattr $C$DW$152, DW_AT_type(*$C$DW$T$19)
    2423                      .dwattr $C$DW$152, DW_AT_name("FMULT")
    2424                      .dwattr $C$DW$152, DW_AT_TI_symbol_name("_FMULT")
    2425                      .dwattr $C$DW$152, DW_AT_bit_offset(0x06), DW_AT_bit_size(0x02)
    2426                      .dwattr $C$DW$152, DW_AT_data_member_location[DW_OP_plus_uconst 0x0]
    2427                      .dwattr $C$DW$152, DW_AT_accessibility(DW_ACCESS_public)
    2428              $C$DW$153       .dwtag  DW_TAG_member
    2429                      .dwattr $C$DW$153, DW_AT_type(*$C$DW$T$19)
    2430                      .dwattr $C$DW$153, DW_AT_name("rsvd2")
    2431                      .dwattr $C$DW$153, DW_AT_TI_symbol_name("_rsvd2")
    2432                      .dwattr $C$DW$153, DW_AT_bit_offset(0x00), DW_AT_bit_size(0x06)
    2433                      .dwattr $C$DW$153, DW_AT_data_member_location[DW_OP_plus_uconst 0x0]
    2434                      .dwattr $C$DW$153, DW_AT_accessibility(DW_ACCESS_public)
    2435              $C$DW$154       .dwtag  DW_TAG_member
    2436                      .dwattr $C$DW$154, DW_AT_type(*$C$DW$T$19)
    2437                      .dwattr $C$DW$154, DW_AT_name("rsvd3")
    2438                      .dwattr $C$DW$154, DW_AT_TI_symbol_name("_rsvd3")
    2439                      .dwattr $C$DW$154, DW_AT_bit_offset(0x00), DW_AT_bit_size(0x10)
    2440                      .dwattr $C$DW$154, DW_AT_data_member_location[DW_OP_plus_uconst 0x1]
    2441                      .dwattr $C$DW$154, DW_AT_accessibility(DW_ACCESS_public)
    2442                      .dwendtag $C$DW$T$39
    2443              
    2444              
    2445              $C$DW$T$40      .dwtag  DW_TAG_union_type
    2446                      .dwattr $C$DW$T$40, DW_AT_name("AUXPLLMULT_REG")
    2447                      .dwattr $C$DW$T$40, DW_AT_byte_size(0x02)
    2448              $C$DW$155       .dwtag  DW_TAG_member
TMS320C2000 Assembler PC v6.4.2 Thu Dec 14 15:26:44 2017

Tools Copyright (c) 1996-2015 Texas Instruments Incorporated
F2837xS_SysCtrl.asm                                                  PAGE   49

    2449                      .dwattr $C$DW$155, DW_AT_type(*$C$DW$T$27)
    2450                      .dwattr $C$DW$155, DW_AT_name("all")
    2451                      .dwattr $C$DW$155, DW_AT_TI_symbol_name("_all")
    2452                      .dwattr $C$DW$155, DW_AT_data_member_location[DW_OP_plus_uconst 0x0]
    2453                      .dwattr $C$DW$155, DW_AT_accessibility(DW_ACCESS_public)
    2454              $C$DW$156       .dwtag  DW_TAG_member
    2455                      .dwattr $C$DW$156, DW_AT_type(*$C$DW$T$39)
    2456                      .dwattr $C$DW$156, DW_AT_name("bit")
    2457                      .dwattr $C$DW$156, DW_AT_TI_symbol_name("_bit")
    2458                      .dwattr $C$DW$156, DW_AT_data_member_location[DW_OP_plus_uconst 0x0]
    2459                      .dwattr $C$DW$156, DW_AT_accessibility(DW_ACCESS_public)
    2460                      .dwendtag $C$DW$T$40
    2461              
    2462              
    2463              $C$DW$T$41      .dwtag  DW_TAG_structure_type
    2464                      .dwattr $C$DW$T$41, DW_AT_name("AUXPLLSTS_BITS")
    2465                      .dwattr $C$DW$T$41, DW_AT_byte_size(0x02)
    2466              $C$DW$157       .dwtag  DW_TAG_member
    2467                      .dwattr $C$DW$157, DW_AT_type(*$C$DW$T$19)
    2468                      .dwattr $C$DW$157, DW_AT_name("LOCKS")
    2469                      .dwattr $C$DW$157, DW_AT_TI_symbol_name("_LOCKS")
    2470                      .dwattr $C$DW$157, DW_AT_bit_offset(0x0f), DW_AT_bit_size(0x01)
    2471                      .dwattr $C$DW$157, DW_AT_data_member_location[DW_OP_plus_uconst 0x0]
    2472                      .dwattr $C$DW$157, DW_AT_accessibility(DW_ACCESS_public)
    2473              $C$DW$158       .dwtag  DW_TAG_member
    2474                      .dwattr $C$DW$158, DW_AT_type(*$C$DW$T$19)
    2475                      .dwattr $C$DW$158, DW_AT_name("SLIPS")
    2476                      .dwattr $C$DW$158, DW_AT_TI_symbol_name("_SLIPS")
    2477                      .dwattr $C$DW$158, DW_AT_bit_offset(0x0e), DW_AT_bit_size(0x01)
    2478                      .dwattr $C$DW$158, DW_AT_data_member_location[DW_OP_plus_uconst 0x0]
    2479                      .dwattr $C$DW$158, DW_AT_accessibility(DW_ACCESS_public)
    2480              $C$DW$159       .dwtag  DW_TAG_member
    2481                      .dwattr $C$DW$159, DW_AT_type(*$C$DW$T$19)
    2482                      .dwattr $C$DW$159, DW_AT_name("rsvd1")
    2483                      .dwattr $C$DW$159, DW_AT_TI_symbol_name("_rsvd1")
    2484                      .dwattr $C$DW$159, DW_AT_bit_offset(0x00), DW_AT_bit_size(0x0e)
    2485                      .dwattr $C$DW$159, DW_AT_data_member_location[DW_OP_plus_uconst 0x0]
    2486                      .dwattr $C$DW$159, DW_AT_accessibility(DW_ACCESS_public)
    2487              $C$DW$160       .dwtag  DW_TAG_member
    2488                      .dwattr $C$DW$160, DW_AT_type(*$C$DW$T$19)
    2489                      .dwattr $C$DW$160, DW_AT_name("rsvd2")
    2490                      .dwattr $C$DW$160, DW_AT_TI_symbol_name("_rsvd2")
    2491                      .dwattr $C$DW$160, DW_AT_bit_offset(0x00), DW_AT_bit_size(0x10)
    2492                      .dwattr $C$DW$160, DW_AT_data_member_location[DW_OP_plus_uconst 0x1]
    2493                      .dwattr $C$DW$160, DW_AT_accessibility(DW_ACCESS_public)
    2494                      .dwendtag $C$DW$T$41
    2495              
    2496              
    2497              $C$DW$T$42      .dwtag  DW_TAG_union_type
    2498                      .dwattr $C$DW$T$42, DW_AT_name("AUXPLLSTS_REG")
    2499                      .dwattr $C$DW$T$42, DW_AT_byte_size(0x02)
    2500              $C$DW$161       .dwtag  DW_TAG_member
    2501                      .dwattr $C$DW$161, DW_AT_type(*$C$DW$T$27)
    2502                      .dwattr $C$DW$161, DW_AT_name("all")
    2503                      .dwattr $C$DW$161, DW_AT_TI_symbol_name("_all")
TMS320C2000 Assembler PC v6.4.2 Thu Dec 14 15:26:44 2017

Tools Copyright (c) 1996-2015 Texas Instruments Incorporated
F2837xS_SysCtrl.asm                                                  PAGE   50

    2504                      .dwattr $C$DW$161, DW_AT_data_member_location[DW_OP_plus_uconst 0x0]
    2505                      .dwattr $C$DW$161, DW_AT_accessibility(DW_ACCESS_public)
    2506              $C$DW$162       .dwtag  DW_TAG_member
    2507                      .dwattr $C$DW$162, DW_AT_type(*$C$DW$T$41)
    2508                      .dwattr $C$DW$162, DW_AT_name("bit")
    2509                      .dwattr $C$DW$162, DW_AT_TI_symbol_name("_bit")
    2510                      .dwattr $C$DW$162, DW_AT_data_member_location[DW_OP_plus_uconst 0x0]
    2511                      .dwattr $C$DW$162, DW_AT_accessibility(DW_ACCESS_public)
    2512                      .dwendtag $C$DW$T$42
    2513              
    2514              
    2515              $C$DW$T$43      .dwtag  DW_TAG_structure_type
    2516                      .dwattr $C$DW$T$43, DW_AT_name("CLKCFGLOCK1_BITS")
    2517                      .dwattr $C$DW$T$43, DW_AT_byte_size(0x02)
    2518              $C$DW$163       .dwtag  DW_TAG_member
    2519                      .dwattr $C$DW$163, DW_AT_type(*$C$DW$T$19)
    2520                      .dwattr $C$DW$163, DW_AT_name("CLKSRCCTL1")
    2521                      .dwattr $C$DW$163, DW_AT_TI_symbol_name("_CLKSRCCTL1")
    2522                      .dwattr $C$DW$163, DW_AT_bit_offset(0x0f), DW_AT_bit_size(0x01)
    2523                      .dwattr $C$DW$163, DW_AT_data_member_location[DW_OP_plus_uconst 0x0]
    2524                      .dwattr $C$DW$163, DW_AT_accessibility(DW_ACCESS_public)
    2525              $C$DW$164       .dwtag  DW_TAG_member
    2526                      .dwattr $C$DW$164, DW_AT_type(*$C$DW$T$19)
    2527                      .dwattr $C$DW$164, DW_AT_name("CLKSRCCTL2")
    2528                      .dwattr $C$DW$164, DW_AT_TI_symbol_name("_CLKSRCCTL2")
    2529                      .dwattr $C$DW$164, DW_AT_bit_offset(0x0e), DW_AT_bit_size(0x01)
    2530                      .dwattr $C$DW$164, DW_AT_data_member_location[DW_OP_plus_uconst 0x0]
    2531                      .dwattr $C$DW$164, DW_AT_accessibility(DW_ACCESS_public)
    2532              $C$DW$165       .dwtag  DW_TAG_member
    2533                      .dwattr $C$DW$165, DW_AT_type(*$C$DW$T$19)
    2534                      .dwattr $C$DW$165, DW_AT_name("CLKSRCCTL3")
    2535                      .dwattr $C$DW$165, DW_AT_TI_symbol_name("_CLKSRCCTL3")
    2536                      .dwattr $C$DW$165, DW_AT_bit_offset(0x0d), DW_AT_bit_size(0x01)
    2537                      .dwattr $C$DW$165, DW_AT_data_member_location[DW_OP_plus_uconst 0x0]
    2538                      .dwattr $C$DW$165, DW_AT_accessibility(DW_ACCESS_public)
    2539              $C$DW$166       .dwtag  DW_TAG_member
    2540                      .dwattr $C$DW$166, DW_AT_type(*$C$DW$T$19)
    2541                      .dwattr $C$DW$166, DW_AT_name("SYSPLLCTL1")
    2542                      .dwattr $C$DW$166, DW_AT_TI_symbol_name("_SYSPLLCTL1")
    2543                      .dwattr $C$DW$166, DW_AT_bit_offset(0x0c), DW_AT_bit_size(0x01)
    2544                      .dwattr $C$DW$166, DW_AT_data_member_location[DW_OP_plus_uconst 0x0]
    2545                      .dwattr $C$DW$166, DW_AT_accessibility(DW_ACCESS_public)
    2546              $C$DW$167       .dwtag  DW_TAG_member
    2547                      .dwattr $C$DW$167, DW_AT_type(*$C$DW$T$19)
    2548                      .dwattr $C$DW$167, DW_AT_name("SYSPLLCTL2")
    2549                      .dwattr $C$DW$167, DW_AT_TI_symbol_name("_SYSPLLCTL2")
    2550                      .dwattr $C$DW$167, DW_AT_bit_offset(0x0b), DW_AT_bit_size(0x01)
    2551                      .dwattr $C$DW$167, DW_AT_data_member_location[DW_OP_plus_uconst 0x0]
    2552                      .dwattr $C$DW$167, DW_AT_accessibility(DW_ACCESS_public)
    2553              $C$DW$168       .dwtag  DW_TAG_member
    2554                      .dwattr $C$DW$168, DW_AT_type(*$C$DW$T$19)
    2555                      .dwattr $C$DW$168, DW_AT_name("SYSPLLCTL3")
    2556                      .dwattr $C$DW$168, DW_AT_TI_symbol_name("_SYSPLLCTL3")
    2557                      .dwattr $C$DW$168, DW_AT_bit_offset(0x0a), DW_AT_bit_size(0x01)
    2558                      .dwattr $C$DW$168, DW_AT_data_member_location[DW_OP_plus_uconst 0x0]
TMS320C2000 Assembler PC v6.4.2 Thu Dec 14 15:26:44 2017

Tools Copyright (c) 1996-2015 Texas Instruments Incorporated
F2837xS_SysCtrl.asm                                                  PAGE   51

    2559                      .dwattr $C$DW$168, DW_AT_accessibility(DW_ACCESS_public)
    2560              $C$DW$169       .dwtag  DW_TAG_member
    2561                      .dwattr $C$DW$169, DW_AT_type(*$C$DW$T$19)
    2562                      .dwattr $C$DW$169, DW_AT_name("SYSPLLMULT")
    2563                      .dwattr $C$DW$169, DW_AT_TI_symbol_name("_SYSPLLMULT")
    2564                      .dwattr $C$DW$169, DW_AT_bit_offset(0x09), DW_AT_bit_size(0x01)
    2565                      .dwattr $C$DW$169, DW_AT_data_member_location[DW_OP_plus_uconst 0x0]
    2566                      .dwattr $C$DW$169, DW_AT_accessibility(DW_ACCESS_public)
    2567              $C$DW$170       .dwtag  DW_TAG_member
    2568                      .dwattr $C$DW$170, DW_AT_type(*$C$DW$T$19)
    2569                      .dwattr $C$DW$170, DW_AT_name("AUXPLLCTL1")
    2570                      .dwattr $C$DW$170, DW_AT_TI_symbol_name("_AUXPLLCTL1")
    2571                      .dwattr $C$DW$170, DW_AT_bit_offset(0x08), DW_AT_bit_size(0x01)
    2572                      .dwattr $C$DW$170, DW_AT_data_member_location[DW_OP_plus_uconst 0x0]
    2573                      .dwattr $C$DW$170, DW_AT_accessibility(DW_ACCESS_public)
    2574              $C$DW$171       .dwtag  DW_TAG_member
    2575                      .dwattr $C$DW$171, DW_AT_type(*$C$DW$T$19)
    2576                      .dwattr $C$DW$171, DW_AT_name("rsvd1")
    2577                      .dwattr $C$DW$171, DW_AT_TI_symbol_name("_rsvd1")
    2578                      .dwattr $C$DW$171, DW_AT_bit_offset(0x07), DW_AT_bit_size(0x01)
    2579                      .dwattr $C$DW$171, DW_AT_data_member_location[DW_OP_plus_uconst 0x0]
    2580                      .dwattr $C$DW$171, DW_AT_accessibility(DW_ACCESS_public)
    2581              $C$DW$172       .dwtag  DW_TAG_member
    2582                      .dwattr $C$DW$172, DW_AT_type(*$C$DW$T$19)
    2583                      .dwattr $C$DW$172, DW_AT_name("rsvd2")
    2584                      .dwattr $C$DW$172, DW_AT_TI_symbol_name("_rsvd2")
    2585                      .dwattr $C$DW$172, DW_AT_bit_offset(0x06), DW_AT_bit_size(0x01)
    2586                      .dwattr $C$DW$172, DW_AT_data_member_location[DW_OP_plus_uconst 0x0]
    2587                      .dwattr $C$DW$172, DW_AT_accessibility(DW_ACCESS_public)
    2588              $C$DW$173       .dwtag  DW_TAG_member
    2589                      .dwattr $C$DW$173, DW_AT_type(*$C$DW$T$19)
    2590                      .dwattr $C$DW$173, DW_AT_name("AUXPLLMULT")
    2591                      .dwattr $C$DW$173, DW_AT_TI_symbol_name("_AUXPLLMULT")
    2592                      .dwattr $C$DW$173, DW_AT_bit_offset(0x05), DW_AT_bit_size(0x01)
    2593                      .dwattr $C$DW$173, DW_AT_data_member_location[DW_OP_plus_uconst 0x0]
    2594                      .dwattr $C$DW$173, DW_AT_accessibility(DW_ACCESS_public)
    2595              $C$DW$174       .dwtag  DW_TAG_member
    2596                      .dwattr $C$DW$174, DW_AT_type(*$C$DW$T$19)
    2597                      .dwattr $C$DW$174, DW_AT_name("SYSCLKDIVSEL")
    2598                      .dwattr $C$DW$174, DW_AT_TI_symbol_name("_SYSCLKDIVSEL")
    2599                      .dwattr $C$DW$174, DW_AT_bit_offset(0x04), DW_AT_bit_size(0x01)
    2600                      .dwattr $C$DW$174, DW_AT_data_member_location[DW_OP_plus_uconst 0x0]
    2601                      .dwattr $C$DW$174, DW_AT_accessibility(DW_ACCESS_public)
    2602              $C$DW$175       .dwtag  DW_TAG_member
    2603                      .dwattr $C$DW$175, DW_AT_type(*$C$DW$T$19)
    2604                      .dwattr $C$DW$175, DW_AT_name("AUXCLKDIVSEL")
    2605                      .dwattr $C$DW$175, DW_AT_TI_symbol_name("_AUXCLKDIVSEL")
    2606                      .dwattr $C$DW$175, DW_AT_bit_offset(0x03), DW_AT_bit_size(0x01)
    2607                      .dwattr $C$DW$175, DW_AT_data_member_location[DW_OP_plus_uconst 0x0]
    2608                      .dwattr $C$DW$175, DW_AT_accessibility(DW_ACCESS_public)
    2609              $C$DW$176       .dwtag  DW_TAG_member
    2610                      .dwattr $C$DW$176, DW_AT_type(*$C$DW$T$19)
    2611                      .dwattr $C$DW$176, DW_AT_name("PERCLKDIVSEL")
    2612                      .dwattr $C$DW$176, DW_AT_TI_symbol_name("_PERCLKDIVSEL")
    2613                      .dwattr $C$DW$176, DW_AT_bit_offset(0x02), DW_AT_bit_size(0x01)
TMS320C2000 Assembler PC v6.4.2 Thu Dec 14 15:26:44 2017

Tools Copyright (c) 1996-2015 Texas Instruments Incorporated
F2837xS_SysCtrl.asm                                                  PAGE   52

    2614                      .dwattr $C$DW$176, DW_AT_data_member_location[DW_OP_plus_uconst 0x0]
    2615                      .dwattr $C$DW$176, DW_AT_accessibility(DW_ACCESS_public)
    2616              $C$DW$177       .dwtag  DW_TAG_member
    2617                      .dwattr $C$DW$177, DW_AT_type(*$C$DW$T$19)
    2618                      .dwattr $C$DW$177, DW_AT_name("rsvd3")
    2619                      .dwattr $C$DW$177, DW_AT_TI_symbol_name("_rsvd3")
    2620                      .dwattr $C$DW$177, DW_AT_bit_offset(0x01), DW_AT_bit_size(0x01)
    2621                      .dwattr $C$DW$177, DW_AT_data_member_location[DW_OP_plus_uconst 0x0]
    2622                      .dwattr $C$DW$177, DW_AT_accessibility(DW_ACCESS_public)
    2623              $C$DW$178       .dwtag  DW_TAG_member
    2624                      .dwattr $C$DW$178, DW_AT_type(*$C$DW$T$19)
    2625                      .dwattr $C$DW$178, DW_AT_name("LOSPCP")
    2626                      .dwattr $C$DW$178, DW_AT_TI_symbol_name("_LOSPCP")
    2627                      .dwattr $C$DW$178, DW_AT_bit_offset(0x00), DW_AT_bit_size(0x01)
    2628                      .dwattr $C$DW$178, DW_AT_data_member_location[DW_OP_plus_uconst 0x0]
    2629                      .dwattr $C$DW$178, DW_AT_accessibility(DW_ACCESS_public)
    2630              $C$DW$179       .dwtag  DW_TAG_member
    2631                      .dwattr $C$DW$179, DW_AT_type(*$C$DW$T$19)
    2632                      .dwattr $C$DW$179, DW_AT_name("rsvd4")
    2633                      .dwattr $C$DW$179, DW_AT_TI_symbol_name("_rsvd4")
    2634                      .dwattr $C$DW$179, DW_AT_bit_offset(0x00), DW_AT_bit_size(0x10)
    2635                      .dwattr $C$DW$179, DW_AT_data_member_location[DW_OP_plus_uconst 0x1]
    2636                      .dwattr $C$DW$179, DW_AT_accessibility(DW_ACCESS_public)
    2637                      .dwendtag $C$DW$T$43
    2638              
    2639              
    2640              $C$DW$T$44      .dwtag  DW_TAG_union_type
    2641                      .dwattr $C$DW$T$44, DW_AT_name("CLKCFGLOCK1_REG")
    2642                      .dwattr $C$DW$T$44, DW_AT_byte_size(0x02)
    2643              $C$DW$180       .dwtag  DW_TAG_member
    2644                      .dwattr $C$DW$180, DW_AT_type(*$C$DW$T$27)
    2645                      .dwattr $C$DW$180, DW_AT_name("all")
    2646                      .dwattr $C$DW$180, DW_AT_TI_symbol_name("_all")
    2647                      .dwattr $C$DW$180, DW_AT_data_member_location[DW_OP_plus_uconst 0x0]
    2648                      .dwattr $C$DW$180, DW_AT_accessibility(DW_ACCESS_public)
    2649              $C$DW$181       .dwtag  DW_TAG_member
    2650                      .dwattr $C$DW$181, DW_AT_type(*$C$DW$T$43)
    2651                      .dwattr $C$DW$181, DW_AT_name("bit")
    2652                      .dwattr $C$DW$181, DW_AT_TI_symbol_name("_bit")
    2653                      .dwattr $C$DW$181, DW_AT_data_member_location[DW_OP_plus_uconst 0x0]
    2654                      .dwattr $C$DW$181, DW_AT_accessibility(DW_ACCESS_public)
    2655                      .dwendtag $C$DW$T$44
    2656              
    2657              
    2658              $C$DW$T$45      .dwtag  DW_TAG_structure_type
    2659                      .dwattr $C$DW$T$45, DW_AT_name("CLKSRCCTL1_BITS")
    2660                      .dwattr $C$DW$T$45, DW_AT_byte_size(0x02)
    2661              $C$DW$182       .dwtag  DW_TAG_member
    2662                      .dwattr $C$DW$182, DW_AT_type(*$C$DW$T$19)
    2663                      .dwattr $C$DW$182, DW_AT_name("OSCCLKSRCSEL")
    2664                      .dwattr $C$DW$182, DW_AT_TI_symbol_name("_OSCCLKSRCSEL")
    2665                      .dwattr $C$DW$182, DW_AT_bit_offset(0x0e), DW_AT_bit_size(0x02)
    2666                      .dwattr $C$DW$182, DW_AT_data_member_location[DW_OP_plus_uconst 0x0]
    2667                      .dwattr $C$DW$182, DW_AT_accessibility(DW_ACCESS_public)
    2668              $C$DW$183       .dwtag  DW_TAG_member
TMS320C2000 Assembler PC v6.4.2 Thu Dec 14 15:26:44 2017

Tools Copyright (c) 1996-2015 Texas Instruments Incorporated
F2837xS_SysCtrl.asm                                                  PAGE   53

    2669                      .dwattr $C$DW$183, DW_AT_type(*$C$DW$T$19)
    2670                      .dwattr $C$DW$183, DW_AT_name("rsvd1")
    2671                      .dwattr $C$DW$183, DW_AT_TI_symbol_name("_rsvd1")
    2672                      .dwattr $C$DW$183, DW_AT_bit_offset(0x0d), DW_AT_bit_size(0x01)
    2673                      .dwattr $C$DW$183, DW_AT_data_member_location[DW_OP_plus_uconst 0x0]
    2674                      .dwattr $C$DW$183, DW_AT_accessibility(DW_ACCESS_public)
    2675              $C$DW$184       .dwtag  DW_TAG_member
    2676                      .dwattr $C$DW$184, DW_AT_type(*$C$DW$T$19)
    2677                      .dwattr $C$DW$184, DW_AT_name("INTOSC2OFF")
    2678                      .dwattr $C$DW$184, DW_AT_TI_symbol_name("_INTOSC2OFF")
    2679                      .dwattr $C$DW$184, DW_AT_bit_offset(0x0c), DW_AT_bit_size(0x01)
    2680                      .dwattr $C$DW$184, DW_AT_data_member_location[DW_OP_plus_uconst 0x0]
    2681                      .dwattr $C$DW$184, DW_AT_accessibility(DW_ACCESS_public)
    2682              $C$DW$185       .dwtag  DW_TAG_member
    2683                      .dwattr $C$DW$185, DW_AT_type(*$C$DW$T$19)
    2684                      .dwattr $C$DW$185, DW_AT_name("XTALOFF")
    2685                      .dwattr $C$DW$185, DW_AT_TI_symbol_name("_XTALOFF")
    2686                      .dwattr $C$DW$185, DW_AT_bit_offset(0x0b), DW_AT_bit_size(0x01)
    2687                      .dwattr $C$DW$185, DW_AT_data_member_location[DW_OP_plus_uconst 0x0]
    2688                      .dwattr $C$DW$185, DW_AT_accessibility(DW_ACCESS_public)
    2689              $C$DW$186       .dwtag  DW_TAG_member
    2690                      .dwattr $C$DW$186, DW_AT_type(*$C$DW$T$19)
    2691                      .dwattr $C$DW$186, DW_AT_name("WDHALTI")
    2692                      .dwattr $C$DW$186, DW_AT_TI_symbol_name("_WDHALTI")
    2693                      .dwattr $C$DW$186, DW_AT_bit_offset(0x0a), DW_AT_bit_size(0x01)
    2694                      .dwattr $C$DW$186, DW_AT_data_member_location[DW_OP_plus_uconst 0x0]
    2695                      .dwattr $C$DW$186, DW_AT_accessibility(DW_ACCESS_public)
    2696              $C$DW$187       .dwtag  DW_TAG_member
    2697                      .dwattr $C$DW$187, DW_AT_type(*$C$DW$T$19)
    2698                      .dwattr $C$DW$187, DW_AT_name("rsvd2")
    2699                      .dwattr $C$DW$187, DW_AT_TI_symbol_name("_rsvd2")
    2700                      .dwattr $C$DW$187, DW_AT_bit_offset(0x00), DW_AT_bit_size(0x0a)
    2701                      .dwattr $C$DW$187, DW_AT_data_member_location[DW_OP_plus_uconst 0x0]
    2702                      .dwattr $C$DW$187, DW_AT_accessibility(DW_ACCESS_public)
    2703              $C$DW$188       .dwtag  DW_TAG_member
    2704                      .dwattr $C$DW$188, DW_AT_type(*$C$DW$T$19)
    2705                      .dwattr $C$DW$188, DW_AT_name("rsvd3")
    2706                      .dwattr $C$DW$188, DW_AT_TI_symbol_name("_rsvd3")
    2707                      .dwattr $C$DW$188, DW_AT_bit_offset(0x00), DW_AT_bit_size(0x10)
    2708                      .dwattr $C$DW$188, DW_AT_data_member_location[DW_OP_plus_uconst 0x1]
    2709                      .dwattr $C$DW$188, DW_AT_accessibility(DW_ACCESS_public)
    2710                      .dwendtag $C$DW$T$45
    2711              
    2712              
    2713              $C$DW$T$46      .dwtag  DW_TAG_union_type
    2714                      .dwattr $C$DW$T$46, DW_AT_name("CLKSRCCTL1_REG")
    2715                      .dwattr $C$DW$T$46, DW_AT_byte_size(0x02)
    2716              $C$DW$189       .dwtag  DW_TAG_member
    2717                      .dwattr $C$DW$189, DW_AT_type(*$C$DW$T$27)
    2718                      .dwattr $C$DW$189, DW_AT_name("all")
    2719                      .dwattr $C$DW$189, DW_AT_TI_symbol_name("_all")
    2720                      .dwattr $C$DW$189, DW_AT_data_member_location[DW_OP_plus_uconst 0x0]
    2721                      .dwattr $C$DW$189, DW_AT_accessibility(DW_ACCESS_public)
    2722              $C$DW$190       .dwtag  DW_TAG_member
    2723                      .dwattr $C$DW$190, DW_AT_type(*$C$DW$T$45)
TMS320C2000 Assembler PC v6.4.2 Thu Dec 14 15:26:44 2017

Tools Copyright (c) 1996-2015 Texas Instruments Incorporated
F2837xS_SysCtrl.asm                                                  PAGE   54

    2724                      .dwattr $C$DW$190, DW_AT_name("bit")
    2725                      .dwattr $C$DW$190, DW_AT_TI_symbol_name("_bit")
    2726                      .dwattr $C$DW$190, DW_AT_data_member_location[DW_OP_plus_uconst 0x0]
    2727                      .dwattr $C$DW$190, DW_AT_accessibility(DW_ACCESS_public)
    2728                      .dwendtag $C$DW$T$46
    2729              
    2730              
    2731              $C$DW$T$47      .dwtag  DW_TAG_structure_type
    2732                      .dwattr $C$DW$T$47, DW_AT_name("CLKSRCCTL2_BITS")
    2733                      .dwattr $C$DW$T$47, DW_AT_byte_size(0x02)
    2734              $C$DW$191       .dwtag  DW_TAG_member
    2735                      .dwattr $C$DW$191, DW_AT_type(*$C$DW$T$19)
    2736                      .dwattr $C$DW$191, DW_AT_name("AUXOSCCLKSRCSEL")
    2737                      .dwattr $C$DW$191, DW_AT_TI_symbol_name("_AUXOSCCLKSRCSEL")
    2738                      .dwattr $C$DW$191, DW_AT_bit_offset(0x0e), DW_AT_bit_size(0x02)
    2739                      .dwattr $C$DW$191, DW_AT_data_member_location[DW_OP_plus_uconst 0x0]
    2740                      .dwattr $C$DW$191, DW_AT_accessibility(DW_ACCESS_public)
    2741              $C$DW$192       .dwtag  DW_TAG_member
    2742                      .dwattr $C$DW$192, DW_AT_type(*$C$DW$T$19)
    2743                      .dwattr $C$DW$192, DW_AT_name("CANABCLKSEL")
    2744                      .dwattr $C$DW$192, DW_AT_TI_symbol_name("_CANABCLKSEL")
    2745                      .dwattr $C$DW$192, DW_AT_bit_offset(0x0c), DW_AT_bit_size(0x02)
    2746                      .dwattr $C$DW$192, DW_AT_data_member_location[DW_OP_plus_uconst 0x0]
    2747                      .dwattr $C$DW$192, DW_AT_accessibility(DW_ACCESS_public)
    2748              $C$DW$193       .dwtag  DW_TAG_member
    2749                      .dwattr $C$DW$193, DW_AT_type(*$C$DW$T$19)
    2750                      .dwattr $C$DW$193, DW_AT_name("CANBBCLKSEL")
    2751                      .dwattr $C$DW$193, DW_AT_TI_symbol_name("_CANBBCLKSEL")
    2752                      .dwattr $C$DW$193, DW_AT_bit_offset(0x0a), DW_AT_bit_size(0x02)
    2753                      .dwattr $C$DW$193, DW_AT_data_member_location[DW_OP_plus_uconst 0x0]
    2754                      .dwattr $C$DW$193, DW_AT_accessibility(DW_ACCESS_public)
    2755              $C$DW$194       .dwtag  DW_TAG_member
    2756                      .dwattr $C$DW$194, DW_AT_type(*$C$DW$T$19)
    2757                      .dwattr $C$DW$194, DW_AT_name("rsvd1")
    2758                      .dwattr $C$DW$194, DW_AT_TI_symbol_name("_rsvd1")
    2759                      .dwattr $C$DW$194, DW_AT_bit_offset(0x08), DW_AT_bit_size(0x02)
    2760                      .dwattr $C$DW$194, DW_AT_data_member_location[DW_OP_plus_uconst 0x0]
    2761                      .dwattr $C$DW$194, DW_AT_accessibility(DW_ACCESS_public)
    2762              $C$DW$195       .dwtag  DW_TAG_member
    2763                      .dwattr $C$DW$195, DW_AT_type(*$C$DW$T$19)
    2764                      .dwattr $C$DW$195, DW_AT_name("rsvd2")
    2765                      .dwattr $C$DW$195, DW_AT_TI_symbol_name("_rsvd2")
    2766                      .dwattr $C$DW$195, DW_AT_bit_offset(0x06), DW_AT_bit_size(0x02)
    2767                      .dwattr $C$DW$195, DW_AT_data_member_location[DW_OP_plus_uconst 0x0]
    2768                      .dwattr $C$DW$195, DW_AT_accessibility(DW_ACCESS_public)
    2769              $C$DW$196       .dwtag  DW_TAG_member
    2770                      .dwattr $C$DW$196, DW_AT_type(*$C$DW$T$19)
    2771                      .dwattr $C$DW$196, DW_AT_name("rsvd3")
    2772                      .dwattr $C$DW$196, DW_AT_TI_symbol_name("_rsvd3")
    2773                      .dwattr $C$DW$196, DW_AT_bit_offset(0x00), DW_AT_bit_size(0x06)
    2774                      .dwattr $C$DW$196, DW_AT_data_member_location[DW_OP_plus_uconst 0x0]
    2775                      .dwattr $C$DW$196, DW_AT_accessibility(DW_ACCESS_public)
    2776              $C$DW$197       .dwtag  DW_TAG_member
    2777                      .dwattr $C$DW$197, DW_AT_type(*$C$DW$T$19)
    2778                      .dwattr $C$DW$197, DW_AT_name("rsvd4")
TMS320C2000 Assembler PC v6.4.2 Thu Dec 14 15:26:44 2017

Tools Copyright (c) 1996-2015 Texas Instruments Incorporated
F2837xS_SysCtrl.asm                                                  PAGE   55

    2779                      .dwattr $C$DW$197, DW_AT_TI_symbol_name("_rsvd4")
    2780                      .dwattr $C$DW$197, DW_AT_bit_offset(0x00), DW_AT_bit_size(0x10)
    2781                      .dwattr $C$DW$197, DW_AT_data_member_location[DW_OP_plus_uconst 0x1]
    2782                      .dwattr $C$DW$197, DW_AT_accessibility(DW_ACCESS_public)
    2783                      .dwendtag $C$DW$T$47
    2784              
    2785              
    2786              $C$DW$T$48      .dwtag  DW_TAG_union_type
    2787                      .dwattr $C$DW$T$48, DW_AT_name("CLKSRCCTL2_REG")
    2788                      .dwattr $C$DW$T$48, DW_AT_byte_size(0x02)
    2789              $C$DW$198       .dwtag  DW_TAG_member
    2790                      .dwattr $C$DW$198, DW_AT_type(*$C$DW$T$27)
    2791                      .dwattr $C$DW$198, DW_AT_name("all")
    2792                      .dwattr $C$DW$198, DW_AT_TI_symbol_name("_all")
    2793                      .dwattr $C$DW$198, DW_AT_data_member_location[DW_OP_plus_uconst 0x0]
    2794                      .dwattr $C$DW$198, DW_AT_accessibility(DW_ACCESS_public)
    2795              $C$DW$199       .dwtag  DW_TAG_member
    2796                      .dwattr $C$DW$199, DW_AT_type(*$C$DW$T$47)
    2797                      .dwattr $C$DW$199, DW_AT_name("bit")
    2798                      .dwattr $C$DW$199, DW_AT_TI_symbol_name("_bit")
    2799                      .dwattr $C$DW$199, DW_AT_data_member_location[DW_OP_plus_uconst 0x0]
    2800                      .dwattr $C$DW$199, DW_AT_accessibility(DW_ACCESS_public)
    2801                      .dwendtag $C$DW$T$48
    2802              
    2803              
    2804              $C$DW$T$49      .dwtag  DW_TAG_structure_type
    2805                      .dwattr $C$DW$T$49, DW_AT_name("CLKSRCCTL3_BITS")
    2806                      .dwattr $C$DW$T$49, DW_AT_byte_size(0x02)
    2807              $C$DW$200       .dwtag  DW_TAG_member
    2808                      .dwattr $C$DW$200, DW_AT_type(*$C$DW$T$19)
    2809                      .dwattr $C$DW$200, DW_AT_name("XCLKOUTSEL")
    2810                      .dwattr $C$DW$200, DW_AT_TI_symbol_name("_XCLKOUTSEL")
    2811                      .dwattr $C$DW$200, DW_AT_bit_offset(0x0d), DW_AT_bit_size(0x03)
    2812                      .dwattr $C$DW$200, DW_AT_data_member_location[DW_OP_plus_uconst 0x0]
    2813                      .dwattr $C$DW$200, DW_AT_accessibility(DW_ACCESS_public)
    2814              $C$DW$201       .dwtag  DW_TAG_member
    2815                      .dwattr $C$DW$201, DW_AT_type(*$C$DW$T$19)
    2816                      .dwattr $C$DW$201, DW_AT_name("rsvd1")
    2817                      .dwattr $C$DW$201, DW_AT_TI_symbol_name("_rsvd1")
    2818                      .dwattr $C$DW$201, DW_AT_bit_offset(0x00), DW_AT_bit_size(0x0d)
    2819                      .dwattr $C$DW$201, DW_AT_data_member_location[DW_OP_plus_uconst 0x0]
    2820                      .dwattr $C$DW$201, DW_AT_accessibility(DW_ACCESS_public)
    2821              $C$DW$202       .dwtag  DW_TAG_member
    2822                      .dwattr $C$DW$202, DW_AT_type(*$C$DW$T$19)
    2823                      .dwattr $C$DW$202, DW_AT_name("rsvd2")
    2824                      .dwattr $C$DW$202, DW_AT_TI_symbol_name("_rsvd2")
    2825                      .dwattr $C$DW$202, DW_AT_bit_offset(0x00), DW_AT_bit_size(0x10)
    2826                      .dwattr $C$DW$202, DW_AT_data_member_location[DW_OP_plus_uconst 0x1]
    2827                      .dwattr $C$DW$202, DW_AT_accessibility(DW_ACCESS_public)
    2828                      .dwendtag $C$DW$T$49
    2829              
    2830              
    2831              $C$DW$T$50      .dwtag  DW_TAG_union_type
    2832                      .dwattr $C$DW$T$50, DW_AT_name("CLKSRCCTL3_REG")
    2833                      .dwattr $C$DW$T$50, DW_AT_byte_size(0x02)
TMS320C2000 Assembler PC v6.4.2 Thu Dec 14 15:26:44 2017

Tools Copyright (c) 1996-2015 Texas Instruments Incorporated
F2837xS_SysCtrl.asm                                                  PAGE   56

    2834              $C$DW$203       .dwtag  DW_TAG_member
    2835                      .dwattr $C$DW$203, DW_AT_type(*$C$DW$T$27)
    2836                      .dwattr $C$DW$203, DW_AT_name("all")
    2837                      .dwattr $C$DW$203, DW_AT_TI_symbol_name("_all")
    2838                      .dwattr $C$DW$203, DW_AT_data_member_location[DW_OP_plus_uconst 0x0]
    2839                      .dwattr $C$DW$203, DW_AT_accessibility(DW_ACCESS_public)
    2840              $C$DW$204       .dwtag  DW_TAG_member
    2841                      .dwattr $C$DW$204, DW_AT_type(*$C$DW$T$49)
    2842                      .dwattr $C$DW$204, DW_AT_name("bit")
    2843                      .dwattr $C$DW$204, DW_AT_TI_symbol_name("_bit")
    2844                      .dwattr $C$DW$204, DW_AT_data_member_location[DW_OP_plus_uconst 0x0]
    2845                      .dwattr $C$DW$204, DW_AT_accessibility(DW_ACCESS_public)
    2846                      .dwendtag $C$DW$T$50
    2847              
    2848              
    2849              $C$DW$T$52      .dwtag  DW_TAG_structure_type
    2850                      .dwattr $C$DW$T$52, DW_AT_name("CLK_CFG_REGS")
    2851                      .dwattr $C$DW$T$52, DW_AT_byte_size(0x32)
    2852              $C$DW$205       .dwtag  DW_TAG_member
    2853                      .dwattr $C$DW$205, DW_AT_type(*$C$DW$T$21)
    2854                      .dwattr $C$DW$205, DW_AT_name("rsvd1")
    2855                      .dwattr $C$DW$205, DW_AT_TI_symbol_name("_rsvd1")
    2856                      .dwattr $C$DW$205, DW_AT_data_member_location[DW_OP_plus_uconst 0x0]
    2857                      .dwattr $C$DW$205, DW_AT_accessibility(DW_ACCESS_public)
    2858              $C$DW$206       .dwtag  DW_TAG_member
    2859                      .dwattr $C$DW$206, DW_AT_type(*$C$DW$T$44)
    2860                      .dwattr $C$DW$206, DW_AT_name("CLKCFGLOCK1")
    2861                      .dwattr $C$DW$206, DW_AT_TI_symbol_name("_CLKCFGLOCK1")
    2862                      .dwattr $C$DW$206, DW_AT_data_member_location[DW_OP_plus_uconst 0x2]
    2863                      .dwattr $C$DW$206, DW_AT_accessibility(DW_ACCESS_public)
    2864              $C$DW$207       .dwtag  DW_TAG_member
    2865                      .dwattr $C$DW$207, DW_AT_type(*$C$DW$T$51)
    2866                      .dwattr $C$DW$207, DW_AT_name("rsvd2")
    2867                      .dwattr $C$DW$207, DW_AT_TI_symbol_name("_rsvd2")
    2868                      .dwattr $C$DW$207, DW_AT_data_member_location[DW_OP_plus_uconst 0x4]
    2869                      .dwattr $C$DW$207, DW_AT_accessibility(DW_ACCESS_public)
    2870              $C$DW$208       .dwtag  DW_TAG_member
    2871                      .dwattr $C$DW$208, DW_AT_type(*$C$DW$T$46)
    2872                      .dwattr $C$DW$208, DW_AT_name("CLKSRCCTL1")
    2873                      .dwattr $C$DW$208, DW_AT_TI_symbol_name("_CLKSRCCTL1")
    2874                      .dwattr $C$DW$208, DW_AT_data_member_location[DW_OP_plus_uconst 0x8]
    2875                      .dwattr $C$DW$208, DW_AT_accessibility(DW_ACCESS_public)
    2876              $C$DW$209       .dwtag  DW_TAG_member
    2877                      .dwattr $C$DW$209, DW_AT_type(*$C$DW$T$48)
    2878                      .dwattr $C$DW$209, DW_AT_name("CLKSRCCTL2")
    2879                      .dwattr $C$DW$209, DW_AT_TI_symbol_name("_CLKSRCCTL2")
    2880                      .dwattr $C$DW$209, DW_AT_data_member_location[DW_OP_plus_uconst 0xa]
    2881                      .dwattr $C$DW$209, DW_AT_accessibility(DW_ACCESS_public)
    2882              $C$DW$210       .dwtag  DW_TAG_member
    2883                      .dwattr $C$DW$210, DW_AT_type(*$C$DW$T$50)
    2884                      .dwattr $C$DW$210, DW_AT_name("CLKSRCCTL3")
    2885                      .dwattr $C$DW$210, DW_AT_TI_symbol_name("_CLKSRCCTL3")
    2886                      .dwattr $C$DW$210, DW_AT_data_member_location[DW_OP_plus_uconst 0xc]
    2887                      .dwattr $C$DW$210, DW_AT_accessibility(DW_ACCESS_public)
    2888              $C$DW$211       .dwtag  DW_TAG_member
TMS320C2000 Assembler PC v6.4.2 Thu Dec 14 15:26:44 2017

Tools Copyright (c) 1996-2015 Texas Instruments Incorporated
F2837xS_SysCtrl.asm                                                  PAGE   57

    2889                      .dwattr $C$DW$211, DW_AT_type(*$C$DW$T$168)
    2890                      .dwattr $C$DW$211, DW_AT_name("SYSPLLCTL1")
    2891                      .dwattr $C$DW$211, DW_AT_TI_symbol_name("_SYSPLLCTL1")
    2892                      .dwattr $C$DW$211, DW_AT_data_member_location[DW_OP_plus_uconst 0xe]
    2893                      .dwattr $C$DW$211, DW_AT_accessibility(DW_ACCESS_public)
    2894              $C$DW$212       .dwtag  DW_TAG_member
    2895                      .dwattr $C$DW$212, DW_AT_type(*$C$DW$T$51)
    2896                      .dwattr $C$DW$212, DW_AT_name("rsvd3")
    2897                      .dwattr $C$DW$212, DW_AT_TI_symbol_name("_rsvd3")
    2898                      .dwattr $C$DW$212, DW_AT_data_member_location[DW_OP_plus_uconst 0x10]
    2899                      .dwattr $C$DW$212, DW_AT_accessibility(DW_ACCESS_public)
    2900              $C$DW$213       .dwtag  DW_TAG_member
    2901                      .dwattr $C$DW$213, DW_AT_type(*$C$DW$T$170)
    2902                      .dwattr $C$DW$213, DW_AT_name("SYSPLLMULT")
    2903                      .dwattr $C$DW$213, DW_AT_TI_symbol_name("_SYSPLLMULT")
    2904                      .dwattr $C$DW$213, DW_AT_data_member_location[DW_OP_plus_uconst 0x14]
    2905                      .dwattr $C$DW$213, DW_AT_accessibility(DW_ACCESS_public)
    2906              $C$DW$214       .dwtag  DW_TAG_member
    2907                      .dwattr $C$DW$214, DW_AT_type(*$C$DW$T$172)
    2908                      .dwattr $C$DW$214, DW_AT_name("SYSPLLSTS")
    2909                      .dwattr $C$DW$214, DW_AT_TI_symbol_name("_SYSPLLSTS")
    2910                      .dwattr $C$DW$214, DW_AT_data_member_location[DW_OP_plus_uconst 0x16]
    2911                      .dwattr $C$DW$214, DW_AT_accessibility(DW_ACCESS_public)
    2912              $C$DW$215       .dwtag  DW_TAG_member
    2913                      .dwattr $C$DW$215, DW_AT_type(*$C$DW$T$38)
    2914                      .dwattr $C$DW$215, DW_AT_name("AUXPLLCTL1")
    2915                      .dwattr $C$DW$215, DW_AT_TI_symbol_name("_AUXPLLCTL1")
    2916                      .dwattr $C$DW$215, DW_AT_data_member_location[DW_OP_plus_uconst 0x18]
    2917                      .dwattr $C$DW$215, DW_AT_accessibility(DW_ACCESS_public)
    2918              $C$DW$216       .dwtag  DW_TAG_member
    2919                      .dwattr $C$DW$216, DW_AT_type(*$C$DW$T$51)
    2920                      .dwattr $C$DW$216, DW_AT_name("rsvd4")
    2921                      .dwattr $C$DW$216, DW_AT_TI_symbol_name("_rsvd4")
    2922                      .dwattr $C$DW$216, DW_AT_data_member_location[DW_OP_plus_uconst 0x1a]
    2923                      .dwattr $C$DW$216, DW_AT_accessibility(DW_ACCESS_public)
    2924              $C$DW$217       .dwtag  DW_TAG_member
    2925                      .dwattr $C$DW$217, DW_AT_type(*$C$DW$T$40)
    2926                      .dwattr $C$DW$217, DW_AT_name("AUXPLLMULT")
    2927                      .dwattr $C$DW$217, DW_AT_TI_symbol_name("_AUXPLLMULT")
    2928                      .dwattr $C$DW$217, DW_AT_data_member_location[DW_OP_plus_uconst 0x1e]
    2929                      .dwattr $C$DW$217, DW_AT_accessibility(DW_ACCESS_public)
    2930              $C$DW$218       .dwtag  DW_TAG_member
    2931                      .dwattr $C$DW$218, DW_AT_type(*$C$DW$T$42)
    2932                      .dwattr $C$DW$218, DW_AT_name("AUXPLLSTS")
    2933                      .dwattr $C$DW$218, DW_AT_TI_symbol_name("_AUXPLLSTS")
    2934                      .dwattr $C$DW$218, DW_AT_data_member_location[DW_OP_plus_uconst 0x20]
    2935                      .dwattr $C$DW$218, DW_AT_accessibility(DW_ACCESS_public)
    2936              $C$DW$219       .dwtag  DW_TAG_member
    2937                      .dwattr $C$DW$219, DW_AT_type(*$C$DW$T$166)
    2938                      .dwattr $C$DW$219, DW_AT_name("SYSCLKDIVSEL")
    2939                      .dwattr $C$DW$219, DW_AT_TI_symbol_name("_SYSCLKDIVSEL")
    2940                      .dwattr $C$DW$219, DW_AT_data_member_location[DW_OP_plus_uconst 0x22]
    2941                      .dwattr $C$DW$219, DW_AT_accessibility(DW_ACCESS_public)
    2942              $C$DW$220       .dwtag  DW_TAG_member
    2943                      .dwattr $C$DW$220, DW_AT_type(*$C$DW$T$36)
TMS320C2000 Assembler PC v6.4.2 Thu Dec 14 15:26:44 2017

Tools Copyright (c) 1996-2015 Texas Instruments Incorporated
F2837xS_SysCtrl.asm                                                  PAGE   58

    2944                      .dwattr $C$DW$220, DW_AT_name("AUXCLKDIVSEL")
    2945                      .dwattr $C$DW$220, DW_AT_TI_symbol_name("_AUXCLKDIVSEL")
    2946                      .dwattr $C$DW$220, DW_AT_data_member_location[DW_OP_plus_uconst 0x24]
    2947                      .dwattr $C$DW$220, DW_AT_accessibility(DW_ACCESS_public)
    2948              $C$DW$221       .dwtag  DW_TAG_member
    2949                      .dwattr $C$DW$221, DW_AT_type(*$C$DW$T$156)
    2950                      .dwattr $C$DW$221, DW_AT_name("PERCLKDIVSEL")
    2951                      .dwattr $C$DW$221, DW_AT_TI_symbol_name("_PERCLKDIVSEL")
    2952                      .dwattr $C$DW$221, DW_AT_data_member_location[DW_OP_plus_uconst 0x26]
    2953                      .dwattr $C$DW$221, DW_AT_accessibility(DW_ACCESS_public)
    2954              $C$DW$222       .dwtag  DW_TAG_member
    2955                      .dwattr $C$DW$222, DW_AT_type(*$C$DW$T$191)
    2956                      .dwattr $C$DW$222, DW_AT_name("XCLKOUTDIVSEL")
    2957                      .dwattr $C$DW$222, DW_AT_TI_symbol_name("_XCLKOUTDIVSEL")
    2958                      .dwattr $C$DW$222, DW_AT_data_member_location[DW_OP_plus_uconst 0x28]
    2959                      .dwattr $C$DW$222, DW_AT_accessibility(DW_ACCESS_public)
    2960              $C$DW$223       .dwtag  DW_TAG_member
    2961                      .dwattr $C$DW$223, DW_AT_type(*$C$DW$T$21)
    2962                      .dwattr $C$DW$223, DW_AT_name("rsvd5")
    2963                      .dwattr $C$DW$223, DW_AT_TI_symbol_name("_rsvd5")
    2964                      .dwattr $C$DW$223, DW_AT_data_member_location[DW_OP_plus_uconst 0x2a]
    2965                      .dwattr $C$DW$223, DW_AT_accessibility(DW_ACCESS_public)
    2966              $C$DW$224       .dwtag  DW_TAG_member
    2967                      .dwattr $C$DW$224, DW_AT_type(*$C$DW$T$120)
    2968                      .dwattr $C$DW$224, DW_AT_name("LOSPCP")
    2969                      .dwattr $C$DW$224, DW_AT_TI_symbol_name("_LOSPCP")
    2970                      .dwattr $C$DW$224, DW_AT_data_member_location[DW_OP_plus_uconst 0x2c]
    2971                      .dwattr $C$DW$224, DW_AT_accessibility(DW_ACCESS_public)
    2972              $C$DW$225       .dwtag  DW_TAG_member
    2973                      .dwattr $C$DW$225, DW_AT_type(*$C$DW$T$124)
    2974                      .dwattr $C$DW$225, DW_AT_name("MCDCR")
    2975                      .dwattr $C$DW$225, DW_AT_TI_symbol_name("_MCDCR")
    2976                      .dwattr $C$DW$225, DW_AT_data_member_location[DW_OP_plus_uconst 0x2e]
    2977                      .dwattr $C$DW$225, DW_AT_accessibility(DW_ACCESS_public)
    2978              $C$DW$226       .dwtag  DW_TAG_member
    2979                      .dwattr $C$DW$226, DW_AT_type(*$C$DW$T$189)
    2980                      .dwattr $C$DW$226, DW_AT_name("X1CNT")
    2981                      .dwattr $C$DW$226, DW_AT_TI_symbol_name("_X1CNT")
    2982                      .dwattr $C$DW$226, DW_AT_data_member_location[DW_OP_plus_uconst 0x30]
    2983                      .dwattr $C$DW$226, DW_AT_accessibility(DW_ACCESS_public)
    2984                      .dwendtag $C$DW$T$52
    2985              
    2986              $C$DW$227       .dwtag  DW_TAG_TI_far_type
    2987                      .dwattr $C$DW$227, DW_AT_type(*$C$DW$T$52)
    2988              $C$DW$T$241     .dwtag  DW_TAG_volatile_type
    2989                      .dwattr $C$DW$T$241, DW_AT_type(*$C$DW$227)
    2990              
    2991              $C$DW$T$53      .dwtag  DW_TAG_structure_type
    2992                      .dwattr $C$DW$T$53, DW_AT_name("CPUSYSLOCK1_BITS")
    2993                      .dwattr $C$DW$T$53, DW_AT_byte_size(0x02)
    2994              $C$DW$228       .dwtag  DW_TAG_member
    2995                      .dwattr $C$DW$228, DW_AT_type(*$C$DW$T$19)
    2996                      .dwattr $C$DW$228, DW_AT_name("HIBBOOTMODE")
    2997                      .dwattr $C$DW$228, DW_AT_TI_symbol_name("_HIBBOOTMODE")
    2998                      .dwattr $C$DW$228, DW_AT_bit_offset(0x0f), DW_AT_bit_size(0x01)
TMS320C2000 Assembler PC v6.4.2 Thu Dec 14 15:26:44 2017

Tools Copyright (c) 1996-2015 Texas Instruments Incorporated
F2837xS_SysCtrl.asm                                                  PAGE   59

    2999                      .dwattr $C$DW$228, DW_AT_data_member_location[DW_OP_plus_uconst 0x0]
    3000                      .dwattr $C$DW$228, DW_AT_accessibility(DW_ACCESS_public)
    3001              $C$DW$229       .dwtag  DW_TAG_member
    3002                      .dwattr $C$DW$229, DW_AT_type(*$C$DW$T$19)
    3003                      .dwattr $C$DW$229, DW_AT_name("IORESTOREADDR")
    3004                      .dwattr $C$DW$229, DW_AT_TI_symbol_name("_IORESTOREADDR")
    3005                      .dwattr $C$DW$229, DW_AT_bit_offset(0x0e), DW_AT_bit_size(0x01)
    3006                      .dwattr $C$DW$229, DW_AT_data_member_location[DW_OP_plus_uconst 0x0]
    3007                      .dwattr $C$DW$229, DW_AT_accessibility(DW_ACCESS_public)
    3008              $C$DW$230       .dwtag  DW_TAG_member
    3009                      .dwattr $C$DW$230, DW_AT_type(*$C$DW$T$19)
    3010                      .dwattr $C$DW$230, DW_AT_name("PIEVERRADDR")
    3011                      .dwattr $C$DW$230, DW_AT_TI_symbol_name("_PIEVERRADDR")
    3012                      .dwattr $C$DW$230, DW_AT_bit_offset(0x0d), DW_AT_bit_size(0x01)
    3013                      .dwattr $C$DW$230, DW_AT_data_member_location[DW_OP_plus_uconst 0x0]
    3014                      .dwattr $C$DW$230, DW_AT_accessibility(DW_ACCESS_public)
    3015              $C$DW$231       .dwtag  DW_TAG_member
    3016                      .dwattr $C$DW$231, DW_AT_type(*$C$DW$T$19)
    3017                      .dwattr $C$DW$231, DW_AT_name("PCLKCR0")
    3018                      .dwattr $C$DW$231, DW_AT_TI_symbol_name("_PCLKCR0")
    3019                      .dwattr $C$DW$231, DW_AT_bit_offset(0x0c), DW_AT_bit_size(0x01)
    3020                      .dwattr $C$DW$231, DW_AT_data_member_location[DW_OP_plus_uconst 0x0]
    3021                      .dwattr $C$DW$231, DW_AT_accessibility(DW_ACCESS_public)
    3022              $C$DW$232       .dwtag  DW_TAG_member
    3023                      .dwattr $C$DW$232, DW_AT_type(*$C$DW$T$19)
    3024                      .dwattr $C$DW$232, DW_AT_name("PCLKCR1")
    3025                      .dwattr $C$DW$232, DW_AT_TI_symbol_name("_PCLKCR1")
    3026                      .dwattr $C$DW$232, DW_AT_bit_offset(0x0b), DW_AT_bit_size(0x01)
    3027                      .dwattr $C$DW$232, DW_AT_data_member_location[DW_OP_plus_uconst 0x0]
    3028                      .dwattr $C$DW$232, DW_AT_accessibility(DW_ACCESS_public)
    3029              $C$DW$233       .dwtag  DW_TAG_member
    3030                      .dwattr $C$DW$233, DW_AT_type(*$C$DW$T$19)
    3031                      .dwattr $C$DW$233, DW_AT_name("PCLKCR2")
    3032                      .dwattr $C$DW$233, DW_AT_TI_symbol_name("_PCLKCR2")
    3033                      .dwattr $C$DW$233, DW_AT_bit_offset(0x0a), DW_AT_bit_size(0x01)
    3034                      .dwattr $C$DW$233, DW_AT_data_member_location[DW_OP_plus_uconst 0x0]
    3035                      .dwattr $C$DW$233, DW_AT_accessibility(DW_ACCESS_public)
    3036              $C$DW$234       .dwtag  DW_TAG_member
    3037                      .dwattr $C$DW$234, DW_AT_type(*$C$DW$T$19)
    3038                      .dwattr $C$DW$234, DW_AT_name("PCLKCR3")
    3039                      .dwattr $C$DW$234, DW_AT_TI_symbol_name("_PCLKCR3")
    3040                      .dwattr $C$DW$234, DW_AT_bit_offset(0x09), DW_AT_bit_size(0x01)
    3041                      .dwattr $C$DW$234, DW_AT_data_member_location[DW_OP_plus_uconst 0x0]
    3042                      .dwattr $C$DW$234, DW_AT_accessibility(DW_ACCESS_public)
    3043              $C$DW$235       .dwtag  DW_TAG_member
    3044                      .dwattr $C$DW$235, DW_AT_type(*$C$DW$T$19)
    3045                      .dwattr $C$DW$235, DW_AT_name("PCLKCR4")
    3046                      .dwattr $C$DW$235, DW_AT_TI_symbol_name("_PCLKCR4")
    3047                      .dwattr $C$DW$235, DW_AT_bit_offset(0x08), DW_AT_bit_size(0x01)
    3048                      .dwattr $C$DW$235, DW_AT_data_member_location[DW_OP_plus_uconst 0x0]
    3049                      .dwattr $C$DW$235, DW_AT_accessibility(DW_ACCESS_public)
    3050              $C$DW$236       .dwtag  DW_TAG_member
    3051                      .dwattr $C$DW$236, DW_AT_type(*$C$DW$T$19)
    3052                      .dwattr $C$DW$236, DW_AT_name("PCLKCR5")
    3053                      .dwattr $C$DW$236, DW_AT_TI_symbol_name("_PCLKCR5")
TMS320C2000 Assembler PC v6.4.2 Thu Dec 14 15:26:44 2017

Tools Copyright (c) 1996-2015 Texas Instruments Incorporated
F2837xS_SysCtrl.asm                                                  PAGE   60

    3054                      .dwattr $C$DW$236, DW_AT_bit_offset(0x07), DW_AT_bit_size(0x01)
    3055                      .dwattr $C$DW$236, DW_AT_data_member_location[DW_OP_plus_uconst 0x0]
    3056                      .dwattr $C$DW$236, DW_AT_accessibility(DW_ACCESS_public)
    3057              $C$DW$237       .dwtag  DW_TAG_member
    3058                      .dwattr $C$DW$237, DW_AT_type(*$C$DW$T$19)
    3059                      .dwattr $C$DW$237, DW_AT_name("PCLKCR6")
    3060                      .dwattr $C$DW$237, DW_AT_TI_symbol_name("_PCLKCR6")
    3061                      .dwattr $C$DW$237, DW_AT_bit_offset(0x06), DW_AT_bit_size(0x01)
    3062                      .dwattr $C$DW$237, DW_AT_data_member_location[DW_OP_plus_uconst 0x0]
    3063                      .dwattr $C$DW$237, DW_AT_accessibility(DW_ACCESS_public)
    3064              $C$DW$238       .dwtag  DW_TAG_member
    3065                      .dwattr $C$DW$238, DW_AT_type(*$C$DW$T$19)
    3066                      .dwattr $C$DW$238, DW_AT_name("PCLKCR7")
    3067                      .dwattr $C$DW$238, DW_AT_TI_symbol_name("_PCLKCR7")
    3068                      .dwattr $C$DW$238, DW_AT_bit_offset(0x05), DW_AT_bit_size(0x01)
    3069                      .dwattr $C$DW$238, DW_AT_data_member_location[DW_OP_plus_uconst 0x0]
    3070                      .dwattr $C$DW$238, DW_AT_accessibility(DW_ACCESS_public)
    3071              $C$DW$239       .dwtag  DW_TAG_member
    3072                      .dwattr $C$DW$239, DW_AT_type(*$C$DW$T$19)
    3073                      .dwattr $C$DW$239, DW_AT_name("PCLKCR8")
    3074                      .dwattr $C$DW$239, DW_AT_TI_symbol_name("_PCLKCR8")
    3075                      .dwattr $C$DW$239, DW_AT_bit_offset(0x04), DW_AT_bit_size(0x01)
    3076                      .dwattr $C$DW$239, DW_AT_data_member_location[DW_OP_plus_uconst 0x0]
    3077                      .dwattr $C$DW$239, DW_AT_accessibility(DW_ACCESS_public)
    3078              $C$DW$240       .dwtag  DW_TAG_member
    3079                      .dwattr $C$DW$240, DW_AT_type(*$C$DW$T$19)
    3080                      .dwattr $C$DW$240, DW_AT_name("PCLKCR9")
    3081                      .dwattr $C$DW$240, DW_AT_TI_symbol_name("_PCLKCR9")
    3082                      .dwattr $C$DW$240, DW_AT_bit_offset(0x03), DW_AT_bit_size(0x01)
    3083                      .dwattr $C$DW$240, DW_AT_data_member_location[DW_OP_plus_uconst 0x0]
    3084                      .dwattr $C$DW$240, DW_AT_accessibility(DW_ACCESS_public)
    3085              $C$DW$241       .dwtag  DW_TAG_member
    3086                      .dwattr $C$DW$241, DW_AT_type(*$C$DW$T$19)
    3087                      .dwattr $C$DW$241, DW_AT_name("PCLKCR10")
    3088                      .dwattr $C$DW$241, DW_AT_TI_symbol_name("_PCLKCR10")
    3089                      .dwattr $C$DW$241, DW_AT_bit_offset(0x02), DW_AT_bit_size(0x01)
    3090                      .dwattr $C$DW$241, DW_AT_data_member_location[DW_OP_plus_uconst 0x0]
    3091                      .dwattr $C$DW$241, DW_AT_accessibility(DW_ACCESS_public)
    3092              $C$DW$242       .dwtag  DW_TAG_member
    3093                      .dwattr $C$DW$242, DW_AT_type(*$C$DW$T$19)
    3094                      .dwattr $C$DW$242, DW_AT_name("PCLKCR11")
    3095                      .dwattr $C$DW$242, DW_AT_TI_symbol_name("_PCLKCR11")
    3096                      .dwattr $C$DW$242, DW_AT_bit_offset(0x01), DW_AT_bit_size(0x01)
    3097                      .dwattr $C$DW$242, DW_AT_data_member_location[DW_OP_plus_uconst 0x0]
    3098                      .dwattr $C$DW$242, DW_AT_accessibility(DW_ACCESS_public)
    3099              $C$DW$243       .dwtag  DW_TAG_member
    3100                      .dwattr $C$DW$243, DW_AT_type(*$C$DW$T$19)
    3101                      .dwattr $C$DW$243, DW_AT_name("PCLKCR12")
    3102                      .dwattr $C$DW$243, DW_AT_TI_symbol_name("_PCLKCR12")
    3103                      .dwattr $C$DW$243, DW_AT_bit_offset(0x00), DW_AT_bit_size(0x01)
    3104                      .dwattr $C$DW$243, DW_AT_data_member_location[DW_OP_plus_uconst 0x0]
    3105                      .dwattr $C$DW$243, DW_AT_accessibility(DW_ACCESS_public)
    3106              $C$DW$244       .dwtag  DW_TAG_member
    3107                      .dwattr $C$DW$244, DW_AT_type(*$C$DW$T$19)
    3108                      .dwattr $C$DW$244, DW_AT_name("PCLKCR13")
TMS320C2000 Assembler PC v6.4.2 Thu Dec 14 15:26:44 2017

Tools Copyright (c) 1996-2015 Texas Instruments Incorporated
F2837xS_SysCtrl.asm                                                  PAGE   61

    3109                      .dwattr $C$DW$244, DW_AT_TI_symbol_name("_PCLKCR13")
    3110                      .dwattr $C$DW$244, DW_AT_bit_offset(0x0f), DW_AT_bit_size(0x01)
    3111                      .dwattr $C$DW$244, DW_AT_data_member_location[DW_OP_plus_uconst 0x1]
    3112                      .dwattr $C$DW$244, DW_AT_accessibility(DW_ACCESS_public)
    3113              $C$DW$245       .dwtag  DW_TAG_member
    3114                      .dwattr $C$DW$245, DW_AT_type(*$C$DW$T$19)
    3115                      .dwattr $C$DW$245, DW_AT_name("PCLKCR14")
    3116                      .dwattr $C$DW$245, DW_AT_TI_symbol_name("_PCLKCR14")
    3117                      .dwattr $C$DW$245, DW_AT_bit_offset(0x0e), DW_AT_bit_size(0x01)
    3118                      .dwattr $C$DW$245, DW_AT_data_member_location[DW_OP_plus_uconst 0x1]
    3119                      .dwattr $C$DW$245, DW_AT_accessibility(DW_ACCESS_public)
    3120              $C$DW$246       .dwtag  DW_TAG_member
    3121                      .dwattr $C$DW$246, DW_AT_type(*$C$DW$T$19)
    3122                      .dwattr $C$DW$246, DW_AT_name("PCLKCR15")
    3123                      .dwattr $C$DW$246, DW_AT_TI_symbol_name("_PCLKCR15")
    3124                      .dwattr $C$DW$246, DW_AT_bit_offset(0x0d), DW_AT_bit_size(0x01)
    3125                      .dwattr $C$DW$246, DW_AT_data_member_location[DW_OP_plus_uconst 0x1]
    3126                      .dwattr $C$DW$246, DW_AT_accessibility(DW_ACCESS_public)
    3127              $C$DW$247       .dwtag  DW_TAG_member
    3128                      .dwattr $C$DW$247, DW_AT_type(*$C$DW$T$19)
    3129                      .dwattr $C$DW$247, DW_AT_name("PCLKCR16")
    3130                      .dwattr $C$DW$247, DW_AT_TI_symbol_name("_PCLKCR16")
    3131                      .dwattr $C$DW$247, DW_AT_bit_offset(0x0c), DW_AT_bit_size(0x01)
    3132                      .dwattr $C$DW$247, DW_AT_data_member_location[DW_OP_plus_uconst 0x1]
    3133                      .dwattr $C$DW$247, DW_AT_accessibility(DW_ACCESS_public)
    3134              $C$DW$248       .dwtag  DW_TAG_member
    3135                      .dwattr $C$DW$248, DW_AT_type(*$C$DW$T$19)
    3136                      .dwattr $C$DW$248, DW_AT_name("SECMSEL")
    3137                      .dwattr $C$DW$248, DW_AT_TI_symbol_name("_SECMSEL")
    3138                      .dwattr $C$DW$248, DW_AT_bit_offset(0x0b), DW_AT_bit_size(0x01)
    3139                      .dwattr $C$DW$248, DW_AT_data_member_location[DW_OP_plus_uconst 0x1]
    3140                      .dwattr $C$DW$248, DW_AT_accessibility(DW_ACCESS_public)
    3141              $C$DW$249       .dwtag  DW_TAG_member
    3142                      .dwattr $C$DW$249, DW_AT_type(*$C$DW$T$19)
    3143                      .dwattr $C$DW$249, DW_AT_name("LPMCR")
    3144                      .dwattr $C$DW$249, DW_AT_TI_symbol_name("_LPMCR")
    3145                      .dwattr $C$DW$249, DW_AT_bit_offset(0x0a), DW_AT_bit_size(0x01)
    3146                      .dwattr $C$DW$249, DW_AT_data_member_location[DW_OP_plus_uconst 0x1]
    3147                      .dwattr $C$DW$249, DW_AT_accessibility(DW_ACCESS_public)
    3148              $C$DW$250       .dwtag  DW_TAG_member
    3149                      .dwattr $C$DW$250, DW_AT_type(*$C$DW$T$19)
    3150                      .dwattr $C$DW$250, DW_AT_name("GPIOLPMSEL0")
    3151                      .dwattr $C$DW$250, DW_AT_TI_symbol_name("_GPIOLPMSEL0")
    3152                      .dwattr $C$DW$250, DW_AT_bit_offset(0x09), DW_AT_bit_size(0x01)
    3153                      .dwattr $C$DW$250, DW_AT_data_member_location[DW_OP_plus_uconst 0x1]
    3154                      .dwattr $C$DW$250, DW_AT_accessibility(DW_ACCESS_public)
    3155              $C$DW$251       .dwtag  DW_TAG_member
    3156                      .dwattr $C$DW$251, DW_AT_type(*$C$DW$T$19)
    3157                      .dwattr $C$DW$251, DW_AT_name("GPIOLPMSEL1")
    3158                      .dwattr $C$DW$251, DW_AT_TI_symbol_name("_GPIOLPMSEL1")
    3159                      .dwattr $C$DW$251, DW_AT_bit_offset(0x08), DW_AT_bit_size(0x01)
    3160                      .dwattr $C$DW$251, DW_AT_data_member_location[DW_OP_plus_uconst 0x1]
    3161                      .dwattr $C$DW$251, DW_AT_accessibility(DW_ACCESS_public)
    3162              $C$DW$252       .dwtag  DW_TAG_member
    3163                      .dwattr $C$DW$252, DW_AT_type(*$C$DW$T$19)
TMS320C2000 Assembler PC v6.4.2 Thu Dec 14 15:26:44 2017

Tools Copyright (c) 1996-2015 Texas Instruments Incorporated
F2837xS_SysCtrl.asm                                                  PAGE   62

    3164                      .dwattr $C$DW$252, DW_AT_name("rsvd1")
    3165                      .dwattr $C$DW$252, DW_AT_TI_symbol_name("_rsvd1")
    3166                      .dwattr $C$DW$252, DW_AT_bit_offset(0x00), DW_AT_bit_size(0x08)
    3167                      .dwattr $C$DW$252, DW_AT_data_member_location[DW_OP_plus_uconst 0x1]
    3168                      .dwattr $C$DW$252, DW_AT_accessibility(DW_ACCESS_public)
    3169                      .dwendtag $C$DW$T$53
    3170              
    3171              
    3172              $C$DW$T$54      .dwtag  DW_TAG_union_type
    3173                      .dwattr $C$DW$T$54, DW_AT_name("CPUSYSLOCK1_REG")
    3174                      .dwattr $C$DW$T$54, DW_AT_byte_size(0x02)
    3175              $C$DW$253       .dwtag  DW_TAG_member
    3176                      .dwattr $C$DW$253, DW_AT_type(*$C$DW$T$27)
    3177                      .dwattr $C$DW$253, DW_AT_name("all")
    3178                      .dwattr $C$DW$253, DW_AT_TI_symbol_name("_all")
    3179                      .dwattr $C$DW$253, DW_AT_data_member_location[DW_OP_plus_uconst 0x0]
    3180                      .dwattr $C$DW$253, DW_AT_accessibility(DW_ACCESS_public)
    3181              $C$DW$254       .dwtag  DW_TAG_member
    3182                      .dwattr $C$DW$254, DW_AT_type(*$C$DW$T$53)
    3183                      .dwattr $C$DW$254, DW_AT_name("bit")
    3184                      .dwattr $C$DW$254, DW_AT_TI_symbol_name("_bit")
    3185                      .dwattr $C$DW$254, DW_AT_data_member_location[DW_OP_plus_uconst 0x0]
    3186                      .dwattr $C$DW$254, DW_AT_accessibility(DW_ACCESS_public)
    3187                      .dwendtag $C$DW$T$54
    3188              
    3189              
    3190              $C$DW$T$57      .dwtag  DW_TAG_structure_type
    3191                      .dwattr $C$DW$T$57, DW_AT_name("CPU_SYS_REGS")
    3192                      .dwattr $C$DW$T$57, DW_AT_byte_size(0x82)
    3193              $C$DW$255       .dwtag  DW_TAG_member
    3194                      .dwattr $C$DW$255, DW_AT_type(*$C$DW$T$54)
    3195                      .dwattr $C$DW$255, DW_AT_name("CPUSYSLOCK1")
    3196                      .dwattr $C$DW$255, DW_AT_TI_symbol_name("_CPUSYSLOCK1")
    3197                      .dwattr $C$DW$255, DW_AT_data_member_location[DW_OP_plus_uconst 0x0]
    3198                      .dwattr $C$DW$255, DW_AT_accessibility(DW_ACCESS_public)
    3199              $C$DW$256       .dwtag  DW_TAG_member
    3200                      .dwattr $C$DW$256, DW_AT_type(*$C$DW$T$51)
    3201                      .dwattr $C$DW$256, DW_AT_name("rsvd1")
    3202                      .dwattr $C$DW$256, DW_AT_TI_symbol_name("_rsvd1")
    3203                      .dwattr $C$DW$256, DW_AT_data_member_location[DW_OP_plus_uconst 0x2]
    3204                      .dwattr $C$DW$256, DW_AT_accessibility(DW_ACCESS_public)
    3205              $C$DW$257       .dwtag  DW_TAG_member
    3206                      .dwattr $C$DW$257, DW_AT_type(*$C$DW$T$27)
    3207                      .dwattr $C$DW$257, DW_AT_name("HIBBOOTMODE")
    3208                      .dwattr $C$DW$257, DW_AT_TI_symbol_name("_HIBBOOTMODE")
    3209                      .dwattr $C$DW$257, DW_AT_data_member_location[DW_OP_plus_uconst 0x6]
    3210                      .dwattr $C$DW$257, DW_AT_accessibility(DW_ACCESS_public)
    3211              $C$DW$258       .dwtag  DW_TAG_member
    3212                      .dwattr $C$DW$258, DW_AT_type(*$C$DW$T$116)
    3213                      .dwattr $C$DW$258, DW_AT_name("IORESTOREADDR")
    3214                      .dwattr $C$DW$258, DW_AT_TI_symbol_name("_IORESTOREADDR")
    3215                      .dwattr $C$DW$258, DW_AT_data_member_location[DW_OP_plus_uconst 0x8]
    3216                      .dwattr $C$DW$258, DW_AT_accessibility(DW_ACCESS_public)
    3217              $C$DW$259       .dwtag  DW_TAG_member
    3218                      .dwattr $C$DW$259, DW_AT_type(*$C$DW$T$158)
TMS320C2000 Assembler PC v6.4.2 Thu Dec 14 15:26:44 2017

Tools Copyright (c) 1996-2015 Texas Instruments Incorporated
F2837xS_SysCtrl.asm                                                  PAGE   63

    3219                      .dwattr $C$DW$259, DW_AT_name("PIEVERRADDR")
    3220                      .dwattr $C$DW$259, DW_AT_TI_symbol_name("_PIEVERRADDR")
    3221                      .dwattr $C$DW$259, DW_AT_data_member_location[DW_OP_plus_uconst 0xa]
    3222                      .dwattr $C$DW$259, DW_AT_accessibility(DW_ACCESS_public)
    3223              $C$DW$260       .dwtag  DW_TAG_member
    3224                      .dwattr $C$DW$260, DW_AT_type(*$C$DW$T$55)
    3225                      .dwattr $C$DW$260, DW_AT_name("rsvd2")
    3226                      .dwattr $C$DW$260, DW_AT_TI_symbol_name("_rsvd2")
    3227                      .dwattr $C$DW$260, DW_AT_data_member_location[DW_OP_plus_uconst 0xc]
    3228                      .dwattr $C$DW$260, DW_AT_accessibility(DW_ACCESS_public)
    3229              $C$DW$261       .dwtag  DW_TAG_member
    3230                      .dwattr $C$DW$261, DW_AT_type(*$C$DW$T$126)
    3231                      .dwattr $C$DW$261, DW_AT_name("PCLKCR0")
    3232                      .dwattr $C$DW$261, DW_AT_TI_symbol_name("_PCLKCR0")
    3233                      .dwattr $C$DW$261, DW_AT_data_member_location[DW_OP_plus_uconst 0x22]
    3234                      .dwattr $C$DW$261, DW_AT_accessibility(DW_ACCESS_public)
    3235              $C$DW$262       .dwtag  DW_TAG_member
    3236                      .dwattr $C$DW$262, DW_AT_type(*$C$DW$T$140)
    3237                      .dwattr $C$DW$262, DW_AT_name("PCLKCR1")
    3238                      .dwattr $C$DW$262, DW_AT_TI_symbol_name("_PCLKCR1")
    3239                      .dwattr $C$DW$262, DW_AT_data_member_location[DW_OP_plus_uconst 0x24]
    3240                      .dwattr $C$DW$262, DW_AT_accessibility(DW_ACCESS_public)
    3241              $C$DW$263       .dwtag  DW_TAG_member
    3242                      .dwattr $C$DW$263, DW_AT_type(*$C$DW$T$142)
    3243                      .dwattr $C$DW$263, DW_AT_name("PCLKCR2")
    3244                      .dwattr $C$DW$263, DW_AT_TI_symbol_name("_PCLKCR2")
    3245                      .dwattr $C$DW$263, DW_AT_data_member_location[DW_OP_plus_uconst 0x26]
    3246                      .dwattr $C$DW$263, DW_AT_accessibility(DW_ACCESS_public)
    3247              $C$DW$264       .dwtag  DW_TAG_member
    3248                      .dwattr $C$DW$264, DW_AT_type(*$C$DW$T$144)
    3249                      .dwattr $C$DW$264, DW_AT_name("PCLKCR3")
    3250                      .dwattr $C$DW$264, DW_AT_TI_symbol_name("_PCLKCR3")
    3251                      .dwattr $C$DW$264, DW_AT_data_member_location[DW_OP_plus_uconst 0x28]
    3252                      .dwattr $C$DW$264, DW_AT_accessibility(DW_ACCESS_public)
    3253              $C$DW$265       .dwtag  DW_TAG_member
    3254                      .dwattr $C$DW$265, DW_AT_type(*$C$DW$T$146)
    3255                      .dwattr $C$DW$265, DW_AT_name("PCLKCR4")
    3256                      .dwattr $C$DW$265, DW_AT_TI_symbol_name("_PCLKCR4")
    3257                      .dwattr $C$DW$265, DW_AT_data_member_location[DW_OP_plus_uconst 0x2a]
    3258                      .dwattr $C$DW$265, DW_AT_accessibility(DW_ACCESS_public)
    3259              $C$DW$266       .dwtag  DW_TAG_member
    3260                      .dwattr $C$DW$266, DW_AT_type(*$C$DW$T$21)
    3261                      .dwattr $C$DW$266, DW_AT_name("rsvd3")
    3262                      .dwattr $C$DW$266, DW_AT_TI_symbol_name("_rsvd3")
    3263                      .dwattr $C$DW$266, DW_AT_data_member_location[DW_OP_plus_uconst 0x2c]
    3264                      .dwattr $C$DW$266, DW_AT_accessibility(DW_ACCESS_public)
    3265              $C$DW$267       .dwtag  DW_TAG_member
    3266                      .dwattr $C$DW$267, DW_AT_type(*$C$DW$T$148)
    3267                      .dwattr $C$DW$267, DW_AT_name("PCLKCR6")
    3268                      .dwattr $C$DW$267, DW_AT_TI_symbol_name("_PCLKCR6")
    3269                      .dwattr $C$DW$267, DW_AT_data_member_location[DW_OP_plus_uconst 0x2e]
    3270                      .dwattr $C$DW$267, DW_AT_accessibility(DW_ACCESS_public)
    3271              $C$DW$268       .dwtag  DW_TAG_member
    3272                      .dwattr $C$DW$268, DW_AT_type(*$C$DW$T$150)
    3273                      .dwattr $C$DW$268, DW_AT_name("PCLKCR7")
TMS320C2000 Assembler PC v6.4.2 Thu Dec 14 15:26:44 2017

Tools Copyright (c) 1996-2015 Texas Instruments Incorporated
F2837xS_SysCtrl.asm                                                  PAGE   64

    3274                      .dwattr $C$DW$268, DW_AT_TI_symbol_name("_PCLKCR7")
    3275                      .dwattr $C$DW$268, DW_AT_data_member_location[DW_OP_plus_uconst 0x30]
    3276                      .dwattr $C$DW$268, DW_AT_accessibility(DW_ACCESS_public)
    3277              $C$DW$269       .dwtag  DW_TAG_member
    3278                      .dwattr $C$DW$269, DW_AT_type(*$C$DW$T$152)
    3279                      .dwattr $C$DW$269, DW_AT_name("PCLKCR8")
    3280                      .dwattr $C$DW$269, DW_AT_TI_symbol_name("_PCLKCR8")
    3281                      .dwattr $C$DW$269, DW_AT_data_member_location[DW_OP_plus_uconst 0x32]
    3282                      .dwattr $C$DW$269, DW_AT_accessibility(DW_ACCESS_public)
    3283              $C$DW$270       .dwtag  DW_TAG_member
    3284                      .dwattr $C$DW$270, DW_AT_type(*$C$DW$T$154)
    3285                      .dwattr $C$DW$270, DW_AT_name("PCLKCR9")
    3286                      .dwattr $C$DW$270, DW_AT_TI_symbol_name("_PCLKCR9")
    3287                      .dwattr $C$DW$270, DW_AT_data_member_location[DW_OP_plus_uconst 0x34]
    3288                      .dwattr $C$DW$270, DW_AT_accessibility(DW_ACCESS_public)
    3289              $C$DW$271       .dwtag  DW_TAG_member
    3290                      .dwattr $C$DW$271, DW_AT_type(*$C$DW$T$128)
    3291                      .dwattr $C$DW$271, DW_AT_name("PCLKCR10")
    3292                      .dwattr $C$DW$271, DW_AT_TI_symbol_name("_PCLKCR10")
    3293                      .dwattr $C$DW$271, DW_AT_data_member_location[DW_OP_plus_uconst 0x36]
    3294                      .dwattr $C$DW$271, DW_AT_accessibility(DW_ACCESS_public)
    3295              $C$DW$272       .dwtag  DW_TAG_member
    3296                      .dwattr $C$DW$272, DW_AT_type(*$C$DW$T$130)
    3297                      .dwattr $C$DW$272, DW_AT_name("PCLKCR11")
    3298                      .dwattr $C$DW$272, DW_AT_TI_symbol_name("_PCLKCR11")
    3299                      .dwattr $C$DW$272, DW_AT_data_member_location[DW_OP_plus_uconst 0x38]
    3300                      .dwattr $C$DW$272, DW_AT_accessibility(DW_ACCESS_public)
    3301              $C$DW$273       .dwtag  DW_TAG_member
    3302                      .dwattr $C$DW$273, DW_AT_type(*$C$DW$T$132)
    3303                      .dwattr $C$DW$273, DW_AT_name("PCLKCR12")
    3304                      .dwattr $C$DW$273, DW_AT_TI_symbol_name("_PCLKCR12")
    3305                      .dwattr $C$DW$273, DW_AT_data_member_location[DW_OP_plus_uconst 0x3a]
    3306                      .dwattr $C$DW$273, DW_AT_accessibility(DW_ACCESS_public)
    3307              $C$DW$274       .dwtag  DW_TAG_member
    3308                      .dwattr $C$DW$274, DW_AT_type(*$C$DW$T$134)
    3309                      .dwattr $C$DW$274, DW_AT_name("PCLKCR13")
    3310                      .dwattr $C$DW$274, DW_AT_TI_symbol_name("_PCLKCR13")
    3311                      .dwattr $C$DW$274, DW_AT_data_member_location[DW_OP_plus_uconst 0x3c]
    3312                      .dwattr $C$DW$274, DW_AT_accessibility(DW_ACCESS_public)
    3313              $C$DW$275       .dwtag  DW_TAG_member
    3314                      .dwattr $C$DW$275, DW_AT_type(*$C$DW$T$136)
    3315                      .dwattr $C$DW$275, DW_AT_name("PCLKCR14")
    3316                      .dwattr $C$DW$275, DW_AT_TI_symbol_name("_PCLKCR14")
    3317                      .dwattr $C$DW$275, DW_AT_data_member_location[DW_OP_plus_uconst 0x3e]
    3318                      .dwattr $C$DW$275, DW_AT_accessibility(DW_ACCESS_public)
    3319              $C$DW$276       .dwtag  DW_TAG_member
    3320                      .dwattr $C$DW$276, DW_AT_type(*$C$DW$T$21)
    3321                      .dwattr $C$DW$276, DW_AT_name("rsvd4")
    3322                      .dwattr $C$DW$276, DW_AT_TI_symbol_name("_rsvd4")
    3323                      .dwattr $C$DW$276, DW_AT_data_member_location[DW_OP_plus_uconst 0x40]
    3324                      .dwattr $C$DW$276, DW_AT_accessibility(DW_ACCESS_public)
    3325              $C$DW$277       .dwtag  DW_TAG_member
    3326                      .dwattr $C$DW$277, DW_AT_type(*$C$DW$T$138)
    3327                      .dwattr $C$DW$277, DW_AT_name("PCLKCR16")
    3328                      .dwattr $C$DW$277, DW_AT_TI_symbol_name("_PCLKCR16")
TMS320C2000 Assembler PC v6.4.2 Thu Dec 14 15:26:44 2017

Tools Copyright (c) 1996-2015 Texas Instruments Incorporated
F2837xS_SysCtrl.asm                                                  PAGE   65

    3329                      .dwattr $C$DW$277, DW_AT_data_member_location[DW_OP_plus_uconst 0x42]
    3330                      .dwattr $C$DW$277, DW_AT_accessibility(DW_ACCESS_public)
    3331              $C$DW$278       .dwtag  DW_TAG_member
    3332                      .dwattr $C$DW$278, DW_AT_type(*$C$DW$T$56)
    3333                      .dwattr $C$DW$278, DW_AT_name("rsvd5")
    3334                      .dwattr $C$DW$278, DW_AT_TI_symbol_name("_rsvd5")
    3335                      .dwattr $C$DW$278, DW_AT_data_member_location[DW_OP_plus_uconst 0x44]
    3336                      .dwattr $C$DW$278, DW_AT_accessibility(DW_ACCESS_public)
    3337              $C$DW$279       .dwtag  DW_TAG_member
    3338                      .dwattr $C$DW$279, DW_AT_type(*$C$DW$T$164)
    3339                      .dwattr $C$DW$279, DW_AT_name("SECMSEL")
    3340                      .dwattr $C$DW$279, DW_AT_TI_symbol_name("_SECMSEL")
    3341                      .dwattr $C$DW$279, DW_AT_data_member_location[DW_OP_plus_uconst 0x74]
    3342                      .dwattr $C$DW$279, DW_AT_accessibility(DW_ACCESS_public)
    3343              $C$DW$280       .dwtag  DW_TAG_member
    3344                      .dwattr $C$DW$280, DW_AT_type(*$C$DW$T$122)
    3345                      .dwattr $C$DW$280, DW_AT_name("LPMCR")
    3346                      .dwattr $C$DW$280, DW_AT_TI_symbol_name("_LPMCR")
    3347                      .dwattr $C$DW$280, DW_AT_data_member_location[DW_OP_plus_uconst 0x76]
    3348                      .dwattr $C$DW$280, DW_AT_accessibility(DW_ACCESS_public)
    3349              $C$DW$281       .dwtag  DW_TAG_member
    3350                      .dwattr $C$DW$281, DW_AT_type(*$C$DW$T$108)
    3351                      .dwattr $C$DW$281, DW_AT_name("GPIOLPMSEL0")
    3352                      .dwattr $C$DW$281, DW_AT_TI_symbol_name("_GPIOLPMSEL0")
    3353                      .dwattr $C$DW$281, DW_AT_data_member_location[DW_OP_plus_uconst 0x78]
    3354                      .dwattr $C$DW$281, DW_AT_accessibility(DW_ACCESS_public)
    3355              $C$DW$282       .dwtag  DW_TAG_member
    3356                      .dwattr $C$DW$282, DW_AT_type(*$C$DW$T$110)
    3357                      .dwattr $C$DW$282, DW_AT_name("GPIOLPMSEL1")
    3358                      .dwattr $C$DW$282, DW_AT_TI_symbol_name("_GPIOLPMSEL1")
    3359                      .dwattr $C$DW$282, DW_AT_data_member_location[DW_OP_plus_uconst 0x7a]
    3360                      .dwattr $C$DW$282, DW_AT_accessibility(DW_ACCESS_public)
    3361              $C$DW$283       .dwtag  DW_TAG_member
    3362                      .dwattr $C$DW$283, DW_AT_type(*$C$DW$T$174)
    3363                      .dwattr $C$DW$283, DW_AT_name("TMR2CLKCTL")
    3364                      .dwattr $C$DW$283, DW_AT_TI_symbol_name("_TMR2CLKCTL")
    3365                      .dwattr $C$DW$283, DW_AT_data_member_location[DW_OP_plus_uconst 0x7c]
    3366                      .dwattr $C$DW$283, DW_AT_accessibility(DW_ACCESS_public)
    3367              $C$DW$284       .dwtag  DW_TAG_member
    3368                      .dwattr $C$DW$284, DW_AT_type(*$C$DW$T$21)
    3369                      .dwattr $C$DW$284, DW_AT_name("rsvd6")
    3370                      .dwattr $C$DW$284, DW_AT_TI_symbol_name("_rsvd6")
    3371                      .dwattr $C$DW$284, DW_AT_data_member_location[DW_OP_plus_uconst 0x7e]
    3372                      .dwattr $C$DW$284, DW_AT_accessibility(DW_ACCESS_public)
    3373              $C$DW$285       .dwtag  DW_TAG_member
    3374                      .dwattr $C$DW$285, DW_AT_type(*$C$DW$T$160)
    3375                      .dwattr $C$DW$285, DW_AT_name("RESC")
    3376                      .dwattr $C$DW$285, DW_AT_TI_symbol_name("_RESC")
    3377                      .dwattr $C$DW$285, DW_AT_data_member_location[DW_OP_plus_uconst 0x80]
    3378                      .dwattr $C$DW$285, DW_AT_accessibility(DW_ACCESS_public)
    3379                      .dwendtag $C$DW$T$57
    3380              
    3381              $C$DW$286       .dwtag  DW_TAG_TI_far_type
    3382                      .dwattr $C$DW$286, DW_AT_type(*$C$DW$T$57)
    3383              $C$DW$T$242     .dwtag  DW_TAG_volatile_type
TMS320C2000 Assembler PC v6.4.2 Thu Dec 14 15:26:44 2017

Tools Copyright (c) 1996-2015 Texas Instruments Incorporated
F2837xS_SysCtrl.asm                                                  PAGE   66

    3384                      .dwattr $C$DW$T$242, DW_AT_type(*$C$DW$286)
    3385              
    3386              $C$DW$T$59      .dwtag  DW_TAG_structure_type
    3387                      .dwattr $C$DW$T$59, DW_AT_name("DCSM_Z1_REGS")
    3388                      .dwattr $C$DW$T$59, DW_AT_byte_size(0x24)
    3389              $C$DW$287       .dwtag  DW_TAG_member
    3390                      .dwattr $C$DW$287, DW_AT_type(*$C$DW$T$205)
    3391                      .dwattr $C$DW$287, DW_AT_name("Z1_LINKPOINTER")
    3392                      .dwattr $C$DW$287, DW_AT_TI_symbol_name("_Z1_LINKPOINTER")
    3393                      .dwattr $C$DW$287, DW_AT_data_member_location[DW_OP_plus_uconst 0x0]
    3394                      .dwattr $C$DW$287, DW_AT_accessibility(DW_ACCESS_public)
    3395              $C$DW$288       .dwtag  DW_TAG_member
    3396                      .dwattr $C$DW$288, DW_AT_type(*$C$DW$T$207)
    3397                      .dwattr $C$DW$288, DW_AT_name("Z1_OTPSECLOCK")
    3398                      .dwattr $C$DW$288, DW_AT_TI_symbol_name("_Z1_OTPSECLOCK")
    3399                      .dwattr $C$DW$288, DW_AT_data_member_location[DW_OP_plus_uconst 0x2]
    3400                      .dwattr $C$DW$288, DW_AT_accessibility(DW_ACCESS_public)
    3401              $C$DW$289       .dwtag  DW_TAG_member
    3402                      .dwattr $C$DW$289, DW_AT_type(*$C$DW$T$193)
    3403                      .dwattr $C$DW$289, DW_AT_name("Z1_BOOTCTRL")
    3404                      .dwattr $C$DW$289, DW_AT_TI_symbol_name("_Z1_BOOTCTRL")
    3405                      .dwattr $C$DW$289, DW_AT_data_member_location[DW_OP_plus_uconst 0x4]
    3406                      .dwattr $C$DW$289, DW_AT_accessibility(DW_ACCESS_public)
    3407              $C$DW$290       .dwtag  DW_TAG_member
    3408                      .dwattr $C$DW$290, DW_AT_type(*$C$DW$T$27)
    3409                      .dwattr $C$DW$290, DW_AT_name("Z1_LINKPOINTERERR")
    3410                      .dwattr $C$DW$290, DW_AT_TI_symbol_name("_Z1_LINKPOINTERERR")
    3411                      .dwattr $C$DW$290, DW_AT_data_member_location[DW_OP_plus_uconst 0x6]
    3412                      .dwattr $C$DW$290, DW_AT_accessibility(DW_ACCESS_public)
    3413              $C$DW$291       .dwtag  DW_TAG_member
    3414                      .dwattr $C$DW$291, DW_AT_type(*$C$DW$T$58)
    3415                      .dwattr $C$DW$291, DW_AT_name("rsvd1")
    3416                      .dwattr $C$DW$291, DW_AT_TI_symbol_name("_rsvd1")
    3417                      .dwattr $C$DW$291, DW_AT_data_member_location[DW_OP_plus_uconst 0x8]
    3418                      .dwattr $C$DW$291, DW_AT_accessibility(DW_ACCESS_public)
    3419              $C$DW$292       .dwtag  DW_TAG_member
    3420                      .dwattr $C$DW$292, DW_AT_type(*$C$DW$T$27)
    3421                      .dwattr $C$DW$292, DW_AT_name("Z1_CSMKEY0")
    3422                      .dwattr $C$DW$292, DW_AT_TI_symbol_name("_Z1_CSMKEY0")
    3423                      .dwattr $C$DW$292, DW_AT_data_member_location[DW_OP_plus_uconst 0x10]
    3424                      .dwattr $C$DW$292, DW_AT_accessibility(DW_ACCESS_public)
    3425              $C$DW$293       .dwtag  DW_TAG_member
    3426                      .dwattr $C$DW$293, DW_AT_type(*$C$DW$T$27)
    3427                      .dwattr $C$DW$293, DW_AT_name("Z1_CSMKEY1")
    3428                      .dwattr $C$DW$293, DW_AT_TI_symbol_name("_Z1_CSMKEY1")
    3429                      .dwattr $C$DW$293, DW_AT_data_member_location[DW_OP_plus_uconst 0x12]
    3430                      .dwattr $C$DW$293, DW_AT_accessibility(DW_ACCESS_public)
    3431              $C$DW$294       .dwtag  DW_TAG_member
    3432                      .dwattr $C$DW$294, DW_AT_type(*$C$DW$T$27)
    3433                      .dwattr $C$DW$294, DW_AT_name("Z1_CSMKEY2")
    3434                      .dwattr $C$DW$294, DW_AT_TI_symbol_name("_Z1_CSMKEY2")
    3435                      .dwattr $C$DW$294, DW_AT_data_member_location[DW_OP_plus_uconst 0x14]
    3436                      .dwattr $C$DW$294, DW_AT_accessibility(DW_ACCESS_public)
    3437              $C$DW$295       .dwtag  DW_TAG_member
    3438                      .dwattr $C$DW$295, DW_AT_type(*$C$DW$T$27)
TMS320C2000 Assembler PC v6.4.2 Thu Dec 14 15:26:44 2017

Tools Copyright (c) 1996-2015 Texas Instruments Incorporated
F2837xS_SysCtrl.asm                                                  PAGE   67

    3439                      .dwattr $C$DW$295, DW_AT_name("Z1_CSMKEY3")
    3440                      .dwattr $C$DW$295, DW_AT_TI_symbol_name("_Z1_CSMKEY3")
    3441                      .dwattr $C$DW$295, DW_AT_data_member_location[DW_OP_plus_uconst 0x16]
    3442                      .dwattr $C$DW$295, DW_AT_accessibility(DW_ACCESS_public)
    3443              $C$DW$296       .dwtag  DW_TAG_member
    3444                      .dwattr $C$DW$296, DW_AT_type(*$C$DW$T$19)
    3445                      .dwattr $C$DW$296, DW_AT_name("rsvd2")
    3446                      .dwattr $C$DW$296, DW_AT_TI_symbol_name("_rsvd2")
    3447                      .dwattr $C$DW$296, DW_AT_data_member_location[DW_OP_plus_uconst 0x18]
    3448                      .dwattr $C$DW$296, DW_AT_accessibility(DW_ACCESS_public)
    3449              $C$DW$297       .dwtag  DW_TAG_member
    3450                      .dwattr $C$DW$297, DW_AT_type(*$C$DW$T$195)
    3451                      .dwattr $C$DW$297, DW_AT_name("Z1_CR")
    3452                      .dwattr $C$DW$297, DW_AT_TI_symbol_name("_Z1_CR")
    3453                      .dwattr $C$DW$297, DW_AT_data_member_location[DW_OP_plus_uconst 0x19]
    3454                      .dwattr $C$DW$297, DW_AT_accessibility(DW_ACCESS_public)
    3455              $C$DW$298       .dwtag  DW_TAG_member
    3456                      .dwattr $C$DW$298, DW_AT_type(*$C$DW$T$203)
    3457                      .dwattr $C$DW$298, DW_AT_name("Z1_GRABSECTR")
    3458                      .dwattr $C$DW$298, DW_AT_TI_symbol_name("_Z1_GRABSECTR")
    3459                      .dwattr $C$DW$298, DW_AT_data_member_location[DW_OP_plus_uconst 0x1a]
    3460                      .dwattr $C$DW$298, DW_AT_accessibility(DW_ACCESS_public)
    3461              $C$DW$299       .dwtag  DW_TAG_member
    3462                      .dwattr $C$DW$299, DW_AT_type(*$C$DW$T$201)
    3463                      .dwattr $C$DW$299, DW_AT_name("Z1_GRABRAMR")
    3464                      .dwattr $C$DW$299, DW_AT_TI_symbol_name("_Z1_GRABRAMR")
    3465                      .dwattr $C$DW$299, DW_AT_data_member_location[DW_OP_plus_uconst 0x1c]
    3466                      .dwattr $C$DW$299, DW_AT_accessibility(DW_ACCESS_public)
    3467              $C$DW$300       .dwtag  DW_TAG_member
    3468                      .dwattr $C$DW$300, DW_AT_type(*$C$DW$T$199)
    3469                      .dwattr $C$DW$300, DW_AT_name("Z1_EXEONLYSECTR")
    3470                      .dwattr $C$DW$300, DW_AT_TI_symbol_name("_Z1_EXEONLYSECTR")
    3471                      .dwattr $C$DW$300, DW_AT_data_member_location[DW_OP_plus_uconst 0x1e]
    3472                      .dwattr $C$DW$300, DW_AT_accessibility(DW_ACCESS_public)
    3473              $C$DW$301       .dwtag  DW_TAG_member
    3474                      .dwattr $C$DW$301, DW_AT_type(*$C$DW$T$197)
    3475                      .dwattr $C$DW$301, DW_AT_name("Z1_EXEONLYRAMR")
    3476                      .dwattr $C$DW$301, DW_AT_TI_symbol_name("_Z1_EXEONLYRAMR")
    3477                      .dwattr $C$DW$301, DW_AT_data_member_location[DW_OP_plus_uconst 0x20]
    3478                      .dwattr $C$DW$301, DW_AT_accessibility(DW_ACCESS_public)
    3479              $C$DW$302       .dwtag  DW_TAG_member
    3480                      .dwattr $C$DW$302, DW_AT_type(*$C$DW$T$19)
    3481                      .dwattr $C$DW$302, DW_AT_name("rsvd3")
    3482                      .dwattr $C$DW$302, DW_AT_TI_symbol_name("_rsvd3")
    3483                      .dwattr $C$DW$302, DW_AT_data_member_location[DW_OP_plus_uconst 0x22]
    3484                      .dwattr $C$DW$302, DW_AT_accessibility(DW_ACCESS_public)
    3485                      .dwendtag $C$DW$T$59
    3486              
    3487              $C$DW$303       .dwtag  DW_TAG_TI_far_type
    3488                      .dwattr $C$DW$303, DW_AT_type(*$C$DW$T$59)
    3489              $C$DW$T$243     .dwtag  DW_TAG_volatile_type
    3490                      .dwattr $C$DW$T$243, DW_AT_type(*$C$DW$303)
    3491              
    3492              $C$DW$T$60      .dwtag  DW_TAG_structure_type
    3493                      .dwattr $C$DW$T$60, DW_AT_name("DCSM_Z2_REGS")
TMS320C2000 Assembler PC v6.4.2 Thu Dec 14 15:26:44 2017

Tools Copyright (c) 1996-2015 Texas Instruments Incorporated
F2837xS_SysCtrl.asm                                                  PAGE   68

    3494                      .dwattr $C$DW$T$60, DW_AT_byte_size(0x24)
    3495              $C$DW$304       .dwtag  DW_TAG_member
    3496                      .dwattr $C$DW$304, DW_AT_type(*$C$DW$T$221)
    3497                      .dwattr $C$DW$304, DW_AT_name("Z2_LINKPOINTER")
    3498                      .dwattr $C$DW$304, DW_AT_TI_symbol_name("_Z2_LINKPOINTER")
    3499                      .dwattr $C$DW$304, DW_AT_data_member_location[DW_OP_plus_uconst 0x0]
    3500                      .dwattr $C$DW$304, DW_AT_accessibility(DW_ACCESS_public)
    3501              $C$DW$305       .dwtag  DW_TAG_member
    3502                      .dwattr $C$DW$305, DW_AT_type(*$C$DW$T$223)
    3503                      .dwattr $C$DW$305, DW_AT_name("Z2_OTPSECLOCK")
    3504                      .dwattr $C$DW$305, DW_AT_TI_symbol_name("_Z2_OTPSECLOCK")
    3505                      .dwattr $C$DW$305, DW_AT_data_member_location[DW_OP_plus_uconst 0x2]
    3506                      .dwattr $C$DW$305, DW_AT_accessibility(DW_ACCESS_public)
    3507              $C$DW$306       .dwtag  DW_TAG_member
    3508                      .dwattr $C$DW$306, DW_AT_type(*$C$DW$T$209)
    3509                      .dwattr $C$DW$306, DW_AT_name("Z2_BOOTCTRL")
    3510                      .dwattr $C$DW$306, DW_AT_TI_symbol_name("_Z2_BOOTCTRL")
    3511                      .dwattr $C$DW$306, DW_AT_data_member_location[DW_OP_plus_uconst 0x4]
    3512                      .dwattr $C$DW$306, DW_AT_accessibility(DW_ACCESS_public)
    3513              $C$DW$307       .dwtag  DW_TAG_member
    3514                      .dwattr $C$DW$307, DW_AT_type(*$C$DW$T$27)
    3515                      .dwattr $C$DW$307, DW_AT_name("Z2_LINKPOINTERERR")
    3516                      .dwattr $C$DW$307, DW_AT_TI_symbol_name("_Z2_LINKPOINTERERR")
    3517                      .dwattr $C$DW$307, DW_AT_data_member_location[DW_OP_plus_uconst 0x6]
    3518                      .dwattr $C$DW$307, DW_AT_accessibility(DW_ACCESS_public)
    3519              $C$DW$308       .dwtag  DW_TAG_member
    3520                      .dwattr $C$DW$308, DW_AT_type(*$C$DW$T$58)
    3521                      .dwattr $C$DW$308, DW_AT_name("rsvd1")
    3522                      .dwattr $C$DW$308, DW_AT_TI_symbol_name("_rsvd1")
    3523                      .dwattr $C$DW$308, DW_AT_data_member_location[DW_OP_plus_uconst 0x8]
    3524                      .dwattr $C$DW$308, DW_AT_accessibility(DW_ACCESS_public)
    3525              $C$DW$309       .dwtag  DW_TAG_member
    3526                      .dwattr $C$DW$309, DW_AT_type(*$C$DW$T$27)
    3527                      .dwattr $C$DW$309, DW_AT_name("Z2_CSMKEY0")
    3528                      .dwattr $C$DW$309, DW_AT_TI_symbol_name("_Z2_CSMKEY0")
    3529                      .dwattr $C$DW$309, DW_AT_data_member_location[DW_OP_plus_uconst 0x10]
    3530                      .dwattr $C$DW$309, DW_AT_accessibility(DW_ACCESS_public)
    3531              $C$DW$310       .dwtag  DW_TAG_member
    3532                      .dwattr $C$DW$310, DW_AT_type(*$C$DW$T$27)
    3533                      .dwattr $C$DW$310, DW_AT_name("Z2_CSMKEY1")
    3534                      .dwattr $C$DW$310, DW_AT_TI_symbol_name("_Z2_CSMKEY1")
    3535                      .dwattr $C$DW$310, DW_AT_data_member_location[DW_OP_plus_uconst 0x12]
    3536                      .dwattr $C$DW$310, DW_AT_accessibility(DW_ACCESS_public)
    3537              $C$DW$311       .dwtag  DW_TAG_member
    3538                      .dwattr $C$DW$311, DW_AT_type(*$C$DW$T$27)
    3539                      .dwattr $C$DW$311, DW_AT_name("Z2_CSMKEY2")
    3540                      .dwattr $C$DW$311, DW_AT_TI_symbol_name("_Z2_CSMKEY2")
    3541                      .dwattr $C$DW$311, DW_AT_data_member_location[DW_OP_plus_uconst 0x14]
    3542                      .dwattr $C$DW$311, DW_AT_accessibility(DW_ACCESS_public)
    3543              $C$DW$312       .dwtag  DW_TAG_member
    3544                      .dwattr $C$DW$312, DW_AT_type(*$C$DW$T$27)
    3545                      .dwattr $C$DW$312, DW_AT_name("Z2_CSMKEY3")
    3546                      .dwattr $C$DW$312, DW_AT_TI_symbol_name("_Z2_CSMKEY3")
    3547                      .dwattr $C$DW$312, DW_AT_data_member_location[DW_OP_plus_uconst 0x16]
    3548                      .dwattr $C$DW$312, DW_AT_accessibility(DW_ACCESS_public)
TMS320C2000 Assembler PC v6.4.2 Thu Dec 14 15:26:44 2017

Tools Copyright (c) 1996-2015 Texas Instruments Incorporated
F2837xS_SysCtrl.asm                                                  PAGE   69

    3549              $C$DW$313       .dwtag  DW_TAG_member
    3550                      .dwattr $C$DW$313, DW_AT_type(*$C$DW$T$19)
    3551                      .dwattr $C$DW$313, DW_AT_name("rsvd2")
    3552                      .dwattr $C$DW$313, DW_AT_TI_symbol_name("_rsvd2")
    3553                      .dwattr $C$DW$313, DW_AT_data_member_location[DW_OP_plus_uconst 0x18]
    3554                      .dwattr $C$DW$313, DW_AT_accessibility(DW_ACCESS_public)
    3555              $C$DW$314       .dwtag  DW_TAG_member
    3556                      .dwattr $C$DW$314, DW_AT_type(*$C$DW$T$211)
    3557                      .dwattr $C$DW$314, DW_AT_name("Z2_CR")
    3558                      .dwattr $C$DW$314, DW_AT_TI_symbol_name("_Z2_CR")
    3559                      .dwattr $C$DW$314, DW_AT_data_member_location[DW_OP_plus_uconst 0x19]
    3560                      .dwattr $C$DW$314, DW_AT_accessibility(DW_ACCESS_public)
    3561              $C$DW$315       .dwtag  DW_TAG_member
    3562                      .dwattr $C$DW$315, DW_AT_type(*$C$DW$T$219)
    3563                      .dwattr $C$DW$315, DW_AT_name("Z2_GRABSECTR")
    3564                      .dwattr $C$DW$315, DW_AT_TI_symbol_name("_Z2_GRABSECTR")
    3565                      .dwattr $C$DW$315, DW_AT_data_member_location[DW_OP_plus_uconst 0x1a]
    3566                      .dwattr $C$DW$315, DW_AT_accessibility(DW_ACCESS_public)
    3567              $C$DW$316       .dwtag  DW_TAG_member
    3568                      .dwattr $C$DW$316, DW_AT_type(*$C$DW$T$217)
    3569                      .dwattr $C$DW$316, DW_AT_name("Z2_GRABRAMR")
    3570                      .dwattr $C$DW$316, DW_AT_TI_symbol_name("_Z2_GRABRAMR")
    3571                      .dwattr $C$DW$316, DW_AT_data_member_location[DW_OP_plus_uconst 0x1c]
    3572                      .dwattr $C$DW$316, DW_AT_accessibility(DW_ACCESS_public)
    3573              $C$DW$317       .dwtag  DW_TAG_member
    3574                      .dwattr $C$DW$317, DW_AT_type(*$C$DW$T$215)
    3575                      .dwattr $C$DW$317, DW_AT_name("Z2_EXEONLYSECTR")
    3576                      .dwattr $C$DW$317, DW_AT_TI_symbol_name("_Z2_EXEONLYSECTR")
    3577                      .dwattr $C$DW$317, DW_AT_data_member_location[DW_OP_plus_uconst 0x1e]
    3578                      .dwattr $C$DW$317, DW_AT_accessibility(DW_ACCESS_public)
    3579              $C$DW$318       .dwtag  DW_TAG_member
    3580                      .dwattr $C$DW$318, DW_AT_type(*$C$DW$T$213)
    3581                      .dwattr $C$DW$318, DW_AT_name("Z2_EXEONLYRAMR")
    3582                      .dwattr $C$DW$318, DW_AT_TI_symbol_name("_Z2_EXEONLYRAMR")
    3583                      .dwattr $C$DW$318, DW_AT_data_member_location[DW_OP_plus_uconst 0x20]
    3584                      .dwattr $C$DW$318, DW_AT_accessibility(DW_ACCESS_public)
    3585              $C$DW$319       .dwtag  DW_TAG_member
    3586                      .dwattr $C$DW$319, DW_AT_type(*$C$DW$T$19)
    3587                      .dwattr $C$DW$319, DW_AT_name("rsvd3")
    3588                      .dwattr $C$DW$319, DW_AT_TI_symbol_name("_rsvd3")
    3589                      .dwattr $C$DW$319, DW_AT_data_member_location[DW_OP_plus_uconst 0x22]
    3590                      .dwattr $C$DW$319, DW_AT_accessibility(DW_ACCESS_public)
    3591                      .dwendtag $C$DW$T$60
    3592              
    3593              $C$DW$320       .dwtag  DW_TAG_TI_far_type
    3594                      .dwattr $C$DW$320, DW_AT_type(*$C$DW$T$60)
    3595              $C$DW$T$244     .dwtag  DW_TAG_volatile_type
    3596                      .dwattr $C$DW$T$244, DW_AT_type(*$C$DW$320)
    3597              
    3598              $C$DW$T$61      .dwtag  DW_TAG_structure_type
    3599                      .dwattr $C$DW$T$61, DW_AT_name("ECC_ENABLE_BITS")
    3600                      .dwattr $C$DW$T$61, DW_AT_byte_size(0x02)
    3601              $C$DW$321       .dwtag  DW_TAG_member
    3602                      .dwattr $C$DW$321, DW_AT_type(*$C$DW$T$19)
    3603                      .dwattr $C$DW$321, DW_AT_name("ENABLE")
TMS320C2000 Assembler PC v6.4.2 Thu Dec 14 15:26:44 2017

Tools Copyright (c) 1996-2015 Texas Instruments Incorporated
F2837xS_SysCtrl.asm                                                  PAGE   70

    3604                      .dwattr $C$DW$321, DW_AT_TI_symbol_name("_ENABLE")
    3605                      .dwattr $C$DW$321, DW_AT_bit_offset(0x0c), DW_AT_bit_size(0x04)
    3606                      .dwattr $C$DW$321, DW_AT_data_member_location[DW_OP_plus_uconst 0x0]
    3607                      .dwattr $C$DW$321, DW_AT_accessibility(DW_ACCESS_public)
    3608              $C$DW$322       .dwtag  DW_TAG_member
    3609                      .dwattr $C$DW$322, DW_AT_type(*$C$DW$T$19)
    3610                      .dwattr $C$DW$322, DW_AT_name("rsvd1")
    3611                      .dwattr $C$DW$322, DW_AT_TI_symbol_name("_rsvd1")
    3612                      .dwattr $C$DW$322, DW_AT_bit_offset(0x00), DW_AT_bit_size(0x0c)
    3613                      .dwattr $C$DW$322, DW_AT_data_member_location[DW_OP_plus_uconst 0x0]
    3614                      .dwattr $C$DW$322, DW_AT_accessibility(DW_ACCESS_public)
    3615              $C$DW$323       .dwtag  DW_TAG_member
    3616                      .dwattr $C$DW$323, DW_AT_type(*$C$DW$T$19)
    3617                      .dwattr $C$DW$323, DW_AT_name("rsvd2")
    3618                      .dwattr $C$DW$323, DW_AT_TI_symbol_name("_rsvd2")
    3619                      .dwattr $C$DW$323, DW_AT_bit_offset(0x00), DW_AT_bit_size(0x10)
    3620                      .dwattr $C$DW$323, DW_AT_data_member_location[DW_OP_plus_uconst 0x1]
    3621                      .dwattr $C$DW$323, DW_AT_accessibility(DW_ACCESS_public)
    3622                      .dwendtag $C$DW$T$61
    3623              
    3624              
    3625              $C$DW$T$62      .dwtag  DW_TAG_union_type
    3626                      .dwattr $C$DW$T$62, DW_AT_name("ECC_ENABLE_REG")
    3627                      .dwattr $C$DW$T$62, DW_AT_byte_size(0x02)
    3628              $C$DW$324       .dwtag  DW_TAG_member
    3629                      .dwattr $C$DW$324, DW_AT_type(*$C$DW$T$27)
    3630                      .dwattr $C$DW$324, DW_AT_name("all")
    3631                      .dwattr $C$DW$324, DW_AT_TI_symbol_name("_all")
    3632                      .dwattr $C$DW$324, DW_AT_data_member_location[DW_OP_plus_uconst 0x0]
    3633                      .dwattr $C$DW$324, DW_AT_accessibility(DW_ACCESS_public)
    3634              $C$DW$325       .dwtag  DW_TAG_member
    3635                      .dwattr $C$DW$325, DW_AT_type(*$C$DW$T$61)
    3636                      .dwattr $C$DW$325, DW_AT_name("bit")
    3637                      .dwattr $C$DW$325, DW_AT_TI_symbol_name("_bit")
    3638                      .dwattr $C$DW$325, DW_AT_data_member_location[DW_OP_plus_uconst 0x0]
    3639                      .dwattr $C$DW$325, DW_AT_accessibility(DW_ACCESS_public)
    3640                      .dwendtag $C$DW$T$62
    3641              
    3642              
    3643              $C$DW$T$63      .dwtag  DW_TAG_structure_type
    3644                      .dwattr $C$DW$T$63, DW_AT_name("ERR_CNT_BITS")
    3645                      .dwattr $C$DW$T$63, DW_AT_byte_size(0x02)
    3646              $C$DW$326       .dwtag  DW_TAG_member
    3647                      .dwattr $C$DW$326, DW_AT_type(*$C$DW$T$19)
    3648                      .dwattr $C$DW$326, DW_AT_name("ERR_CNT")
    3649                      .dwattr $C$DW$326, DW_AT_TI_symbol_name("_ERR_CNT")
    3650                      .dwattr $C$DW$326, DW_AT_bit_offset(0x00), DW_AT_bit_size(0x10)
    3651                      .dwattr $C$DW$326, DW_AT_data_member_location[DW_OP_plus_uconst 0x0]
    3652                      .dwattr $C$DW$326, DW_AT_accessibility(DW_ACCESS_public)
    3653              $C$DW$327       .dwtag  DW_TAG_member
    3654                      .dwattr $C$DW$327, DW_AT_type(*$C$DW$T$19)
    3655                      .dwattr $C$DW$327, DW_AT_name("rsvd1")
    3656                      .dwattr $C$DW$327, DW_AT_TI_symbol_name("_rsvd1")
    3657                      .dwattr $C$DW$327, DW_AT_bit_offset(0x00), DW_AT_bit_size(0x10)
    3658                      .dwattr $C$DW$327, DW_AT_data_member_location[DW_OP_plus_uconst 0x1]
TMS320C2000 Assembler PC v6.4.2 Thu Dec 14 15:26:44 2017

Tools Copyright (c) 1996-2015 Texas Instruments Incorporated
F2837xS_SysCtrl.asm                                                  PAGE   71

    3659                      .dwattr $C$DW$327, DW_AT_accessibility(DW_ACCESS_public)
    3660                      .dwendtag $C$DW$T$63
    3661              
    3662              
    3663              $C$DW$T$64      .dwtag  DW_TAG_union_type
    3664                      .dwattr $C$DW$T$64, DW_AT_name("ERR_CNT_REG")
    3665                      .dwattr $C$DW$T$64, DW_AT_byte_size(0x02)
    3666              $C$DW$328       .dwtag  DW_TAG_member
    3667                      .dwattr $C$DW$328, DW_AT_type(*$C$DW$T$27)
    3668                      .dwattr $C$DW$328, DW_AT_name("all")
    3669                      .dwattr $C$DW$328, DW_AT_TI_symbol_name("_all")
    3670                      .dwattr $C$DW$328, DW_AT_data_member_location[DW_OP_plus_uconst 0x0]
    3671                      .dwattr $C$DW$328, DW_AT_accessibility(DW_ACCESS_public)
    3672              $C$DW$329       .dwtag  DW_TAG_member
    3673                      .dwattr $C$DW$329, DW_AT_type(*$C$DW$T$63)
    3674                      .dwattr $C$DW$329, DW_AT_name("bit")
    3675                      .dwattr $C$DW$329, DW_AT_TI_symbol_name("_bit")
    3676                      .dwattr $C$DW$329, DW_AT_data_member_location[DW_OP_plus_uconst 0x0]
    3677                      .dwattr $C$DW$329, DW_AT_accessibility(DW_ACCESS_public)
    3678                      .dwendtag $C$DW$T$64
    3679              
    3680              
    3681              $C$DW$T$65      .dwtag  DW_TAG_structure_type
    3682                      .dwattr $C$DW$T$65, DW_AT_name("ERR_INTCLR_BITS")
    3683                      .dwattr $C$DW$T$65, DW_AT_byte_size(0x02)
    3684              $C$DW$330       .dwtag  DW_TAG_member
    3685                      .dwattr $C$DW$330, DW_AT_type(*$C$DW$T$19)
    3686                      .dwattr $C$DW$330, DW_AT_name("SINGLE_ERR_INTCLR")
    3687                      .dwattr $C$DW$330, DW_AT_TI_symbol_name("_SINGLE_ERR_INTCLR")
    3688                      .dwattr $C$DW$330, DW_AT_bit_offset(0x0f), DW_AT_bit_size(0x01)
    3689                      .dwattr $C$DW$330, DW_AT_data_member_location[DW_OP_plus_uconst 0x0]
    3690                      .dwattr $C$DW$330, DW_AT_accessibility(DW_ACCESS_public)
    3691              $C$DW$331       .dwtag  DW_TAG_member
    3692                      .dwattr $C$DW$331, DW_AT_type(*$C$DW$T$19)
    3693                      .dwattr $C$DW$331, DW_AT_name("UNC_ERR_INTCLR")
    3694                      .dwattr $C$DW$331, DW_AT_TI_symbol_name("_UNC_ERR_INTCLR")
    3695                      .dwattr $C$DW$331, DW_AT_bit_offset(0x0e), DW_AT_bit_size(0x01)
    3696                      .dwattr $C$DW$331, DW_AT_data_member_location[DW_OP_plus_uconst 0x0]
    3697                      .dwattr $C$DW$331, DW_AT_accessibility(DW_ACCESS_public)
    3698              $C$DW$332       .dwtag  DW_TAG_member
    3699                      .dwattr $C$DW$332, DW_AT_type(*$C$DW$T$19)
    3700                      .dwattr $C$DW$332, DW_AT_name("rsvd1")
    3701                      .dwattr $C$DW$332, DW_AT_TI_symbol_name("_rsvd1")
    3702                      .dwattr $C$DW$332, DW_AT_bit_offset(0x00), DW_AT_bit_size(0x0e)
    3703                      .dwattr $C$DW$332, DW_AT_data_member_location[DW_OP_plus_uconst 0x0]
    3704                      .dwattr $C$DW$332, DW_AT_accessibility(DW_ACCESS_public)
    3705              $C$DW$333       .dwtag  DW_TAG_member
    3706                      .dwattr $C$DW$333, DW_AT_type(*$C$DW$T$19)
    3707                      .dwattr $C$DW$333, DW_AT_name("rsvd2")
    3708                      .dwattr $C$DW$333, DW_AT_TI_symbol_name("_rsvd2")
    3709                      .dwattr $C$DW$333, DW_AT_bit_offset(0x00), DW_AT_bit_size(0x10)
    3710                      .dwattr $C$DW$333, DW_AT_data_member_location[DW_OP_plus_uconst 0x1]
    3711                      .dwattr $C$DW$333, DW_AT_accessibility(DW_ACCESS_public)
    3712                      .dwendtag $C$DW$T$65
    3713              
TMS320C2000 Assembler PC v6.4.2 Thu Dec 14 15:26:44 2017

Tools Copyright (c) 1996-2015 Texas Instruments Incorporated
F2837xS_SysCtrl.asm                                                  PAGE   72

    3714              
    3715              $C$DW$T$66      .dwtag  DW_TAG_union_type
    3716                      .dwattr $C$DW$T$66, DW_AT_name("ERR_INTCLR_REG")
    3717                      .dwattr $C$DW$T$66, DW_AT_byte_size(0x02)
    3718              $C$DW$334       .dwtag  DW_TAG_member
    3719                      .dwattr $C$DW$334, DW_AT_type(*$C$DW$T$27)
    3720                      .dwattr $C$DW$334, DW_AT_name("all")
    3721                      .dwattr $C$DW$334, DW_AT_TI_symbol_name("_all")
    3722                      .dwattr $C$DW$334, DW_AT_data_member_location[DW_OP_plus_uconst 0x0]
    3723                      .dwattr $C$DW$334, DW_AT_accessibility(DW_ACCESS_public)
    3724              $C$DW$335       .dwtag  DW_TAG_member
    3725                      .dwattr $C$DW$335, DW_AT_type(*$C$DW$T$65)
    3726                      .dwattr $C$DW$335, DW_AT_name("bit")
    3727                      .dwattr $C$DW$335, DW_AT_TI_symbol_name("_bit")
    3728                      .dwattr $C$DW$335, DW_AT_data_member_location[DW_OP_plus_uconst 0x0]
    3729                      .dwattr $C$DW$335, DW_AT_accessibility(DW_ACCESS_public)
    3730                      .dwendtag $C$DW$T$66
    3731              
    3732              
    3733              $C$DW$T$67      .dwtag  DW_TAG_structure_type
    3734                      .dwattr $C$DW$T$67, DW_AT_name("ERR_INTFLG_BITS")
    3735                      .dwattr $C$DW$T$67, DW_AT_byte_size(0x02)
    3736              $C$DW$336       .dwtag  DW_TAG_member
    3737                      .dwattr $C$DW$336, DW_AT_type(*$C$DW$T$19)
    3738                      .dwattr $C$DW$336, DW_AT_name("SINGLE_ERR_INTFLG")
    3739                      .dwattr $C$DW$336, DW_AT_TI_symbol_name("_SINGLE_ERR_INTFLG")
    3740                      .dwattr $C$DW$336, DW_AT_bit_offset(0x0f), DW_AT_bit_size(0x01)
    3741                      .dwattr $C$DW$336, DW_AT_data_member_location[DW_OP_plus_uconst 0x0]
    3742                      .dwattr $C$DW$336, DW_AT_accessibility(DW_ACCESS_public)
    3743              $C$DW$337       .dwtag  DW_TAG_member
    3744                      .dwattr $C$DW$337, DW_AT_type(*$C$DW$T$19)
    3745                      .dwattr $C$DW$337, DW_AT_name("UNC_ERR_INTFLG")
    3746                      .dwattr $C$DW$337, DW_AT_TI_symbol_name("_UNC_ERR_INTFLG")
    3747                      .dwattr $C$DW$337, DW_AT_bit_offset(0x0e), DW_AT_bit_size(0x01)
    3748                      .dwattr $C$DW$337, DW_AT_data_member_location[DW_OP_plus_uconst 0x0]
    3749                      .dwattr $C$DW$337, DW_AT_accessibility(DW_ACCESS_public)
    3750              $C$DW$338       .dwtag  DW_TAG_member
    3751                      .dwattr $C$DW$338, DW_AT_type(*$C$DW$T$19)
    3752                      .dwattr $C$DW$338, DW_AT_name("rsvd1")
    3753                      .dwattr $C$DW$338, DW_AT_TI_symbol_name("_rsvd1")
    3754                      .dwattr $C$DW$338, DW_AT_bit_offset(0x00), DW_AT_bit_size(0x0e)
    3755                      .dwattr $C$DW$338, DW_AT_data_member_location[DW_OP_plus_uconst 0x0]
    3756                      .dwattr $C$DW$338, DW_AT_accessibility(DW_ACCESS_public)
    3757              $C$DW$339       .dwtag  DW_TAG_member
    3758                      .dwattr $C$DW$339, DW_AT_type(*$C$DW$T$19)
    3759                      .dwattr $C$DW$339, DW_AT_name("rsvd2")
    3760                      .dwattr $C$DW$339, DW_AT_TI_symbol_name("_rsvd2")
    3761                      .dwattr $C$DW$339, DW_AT_bit_offset(0x00), DW_AT_bit_size(0x10)
    3762                      .dwattr $C$DW$339, DW_AT_data_member_location[DW_OP_plus_uconst 0x1]
    3763                      .dwattr $C$DW$339, DW_AT_accessibility(DW_ACCESS_public)
    3764                      .dwendtag $C$DW$T$67
    3765              
    3766              
    3767              $C$DW$T$68      .dwtag  DW_TAG_union_type
    3768                      .dwattr $C$DW$T$68, DW_AT_name("ERR_INTFLG_REG")
TMS320C2000 Assembler PC v6.4.2 Thu Dec 14 15:26:44 2017

Tools Copyright (c) 1996-2015 Texas Instruments Incorporated
F2837xS_SysCtrl.asm                                                  PAGE   73

    3769                      .dwattr $C$DW$T$68, DW_AT_byte_size(0x02)
    3770              $C$DW$340       .dwtag  DW_TAG_member
    3771                      .dwattr $C$DW$340, DW_AT_type(*$C$DW$T$27)
    3772                      .dwattr $C$DW$340, DW_AT_name("all")
    3773                      .dwattr $C$DW$340, DW_AT_TI_symbol_name("_all")
    3774                      .dwattr $C$DW$340, DW_AT_data_member_location[DW_OP_plus_uconst 0x0]
    3775                      .dwattr $C$DW$340, DW_AT_accessibility(DW_ACCESS_public)
    3776              $C$DW$341       .dwtag  DW_TAG_member
    3777                      .dwattr $C$DW$341, DW_AT_type(*$C$DW$T$67)
    3778                      .dwattr $C$DW$341, DW_AT_name("bit")
    3779                      .dwattr $C$DW$341, DW_AT_TI_symbol_name("_bit")
    3780                      .dwattr $C$DW$341, DW_AT_data_member_location[DW_OP_plus_uconst 0x0]
    3781                      .dwattr $C$DW$341, DW_AT_accessibility(DW_ACCESS_public)
    3782                      .dwendtag $C$DW$T$68
    3783              
    3784              
    3785              $C$DW$T$69      .dwtag  DW_TAG_structure_type
    3786                      .dwattr $C$DW$T$69, DW_AT_name("ERR_POS_BITS")
    3787                      .dwattr $C$DW$T$69, DW_AT_byte_size(0x02)
    3788              $C$DW$342       .dwtag  DW_TAG_member
    3789                      .dwattr $C$DW$342, DW_AT_type(*$C$DW$T$19)
    3790                      .dwattr $C$DW$342, DW_AT_name("ERR_POS_L")
    3791                      .dwattr $C$DW$342, DW_AT_TI_symbol_name("_ERR_POS_L")
    3792                      .dwattr $C$DW$342, DW_AT_bit_offset(0x0a), DW_AT_bit_size(0x06)
    3793                      .dwattr $C$DW$342, DW_AT_data_member_location[DW_OP_plus_uconst 0x0]
    3794                      .dwattr $C$DW$342, DW_AT_accessibility(DW_ACCESS_public)
    3795              $C$DW$343       .dwtag  DW_TAG_member
    3796                      .dwattr $C$DW$343, DW_AT_type(*$C$DW$T$19)
    3797                      .dwattr $C$DW$343, DW_AT_name("rsvd1")
    3798                      .dwattr $C$DW$343, DW_AT_TI_symbol_name("_rsvd1")
    3799                      .dwattr $C$DW$343, DW_AT_bit_offset(0x08), DW_AT_bit_size(0x02)
    3800                      .dwattr $C$DW$343, DW_AT_data_member_location[DW_OP_plus_uconst 0x0]
    3801                      .dwattr $C$DW$343, DW_AT_accessibility(DW_ACCESS_public)
    3802              $C$DW$344       .dwtag  DW_TAG_member
    3803                      .dwattr $C$DW$344, DW_AT_type(*$C$DW$T$19)
    3804                      .dwattr $C$DW$344, DW_AT_name("ERR_TYPE_L")
    3805                      .dwattr $C$DW$344, DW_AT_TI_symbol_name("_ERR_TYPE_L")
    3806                      .dwattr $C$DW$344, DW_AT_bit_offset(0x07), DW_AT_bit_size(0x01)
    3807                      .dwattr $C$DW$344, DW_AT_data_member_location[DW_OP_plus_uconst 0x0]
    3808                      .dwattr $C$DW$344, DW_AT_accessibility(DW_ACCESS_public)
    3809              $C$DW$345       .dwtag  DW_TAG_member
    3810                      .dwattr $C$DW$345, DW_AT_type(*$C$DW$T$19)
    3811                      .dwattr $C$DW$345, DW_AT_name("rsvd2")
    3812                      .dwattr $C$DW$345, DW_AT_TI_symbol_name("_rsvd2")
    3813                      .dwattr $C$DW$345, DW_AT_bit_offset(0x00), DW_AT_bit_size(0x07)
    3814                      .dwattr $C$DW$345, DW_AT_data_member_location[DW_OP_plus_uconst 0x0]
    3815                      .dwattr $C$DW$345, DW_AT_accessibility(DW_ACCESS_public)
    3816              $C$DW$346       .dwtag  DW_TAG_member
    3817                      .dwattr $C$DW$346, DW_AT_type(*$C$DW$T$19)
    3818                      .dwattr $C$DW$346, DW_AT_name("ERR_POS_H")
    3819                      .dwattr $C$DW$346, DW_AT_TI_symbol_name("_ERR_POS_H")
    3820                      .dwattr $C$DW$346, DW_AT_bit_offset(0x0a), DW_AT_bit_size(0x06)
    3821                      .dwattr $C$DW$346, DW_AT_data_member_location[DW_OP_plus_uconst 0x1]
    3822                      .dwattr $C$DW$346, DW_AT_accessibility(DW_ACCESS_public)
    3823              $C$DW$347       .dwtag  DW_TAG_member
TMS320C2000 Assembler PC v6.4.2 Thu Dec 14 15:26:44 2017

Tools Copyright (c) 1996-2015 Texas Instruments Incorporated
F2837xS_SysCtrl.asm                                                  PAGE   74

    3824                      .dwattr $C$DW$347, DW_AT_type(*$C$DW$T$19)
    3825                      .dwattr $C$DW$347, DW_AT_name("rsvd3")
    3826                      .dwattr $C$DW$347, DW_AT_TI_symbol_name("_rsvd3")
    3827                      .dwattr $C$DW$347, DW_AT_bit_offset(0x08), DW_AT_bit_size(0x02)
    3828                      .dwattr $C$DW$347, DW_AT_data_member_location[DW_OP_plus_uconst 0x1]
    3829                      .dwattr $C$DW$347, DW_AT_accessibility(DW_ACCESS_public)
    3830              $C$DW$348       .dwtag  DW_TAG_member
    3831                      .dwattr $C$DW$348, DW_AT_type(*$C$DW$T$19)
    3832                      .dwattr $C$DW$348, DW_AT_name("ERR_TYPE_H")
    3833                      .dwattr $C$DW$348, DW_AT_TI_symbol_name("_ERR_TYPE_H")
    3834                      .dwattr $C$DW$348, DW_AT_bit_offset(0x07), DW_AT_bit_size(0x01)
    3835                      .dwattr $C$DW$348, DW_AT_data_member_location[DW_OP_plus_uconst 0x1]
    3836                      .dwattr $C$DW$348, DW_AT_accessibility(DW_ACCESS_public)
    3837              $C$DW$349       .dwtag  DW_TAG_member
    3838                      .dwattr $C$DW$349, DW_AT_type(*$C$DW$T$19)
    3839                      .dwattr $C$DW$349, DW_AT_name("rsvd4")
    3840                      .dwattr $C$DW$349, DW_AT_TI_symbol_name("_rsvd4")
    3841                      .dwattr $C$DW$349, DW_AT_bit_offset(0x00), DW_AT_bit_size(0x07)
    3842                      .dwattr $C$DW$349, DW_AT_data_member_location[DW_OP_plus_uconst 0x1]
    3843                      .dwattr $C$DW$349, DW_AT_accessibility(DW_ACCESS_public)
    3844                      .dwendtag $C$DW$T$69
    3845              
    3846              
    3847              $C$DW$T$70      .dwtag  DW_TAG_union_type
    3848                      .dwattr $C$DW$T$70, DW_AT_name("ERR_POS_REG")
    3849                      .dwattr $C$DW$T$70, DW_AT_byte_size(0x02)
    3850              $C$DW$350       .dwtag  DW_TAG_member
    3851                      .dwattr $C$DW$350, DW_AT_type(*$C$DW$T$27)
    3852                      .dwattr $C$DW$350, DW_AT_name("all")
    3853                      .dwattr $C$DW$350, DW_AT_TI_symbol_name("_all")
    3854                      .dwattr $C$DW$350, DW_AT_data_member_location[DW_OP_plus_uconst 0x0]
    3855                      .dwattr $C$DW$350, DW_AT_accessibility(DW_ACCESS_public)
    3856              $C$DW$351       .dwtag  DW_TAG_member
    3857                      .dwattr $C$DW$351, DW_AT_type(*$C$DW$T$69)
    3858                      .dwattr $C$DW$351, DW_AT_name("bit")
    3859                      .dwattr $C$DW$351, DW_AT_TI_symbol_name("_bit")
    3860                      .dwattr $C$DW$351, DW_AT_data_member_location[DW_OP_plus_uconst 0x0]
    3861                      .dwattr $C$DW$351, DW_AT_accessibility(DW_ACCESS_public)
    3862                      .dwendtag $C$DW$T$70
    3863              
    3864              
    3865              $C$DW$T$71      .dwtag  DW_TAG_structure_type
    3866                      .dwattr $C$DW$T$71, DW_AT_name("ERR_STATUS_BITS")
    3867                      .dwattr $C$DW$T$71, DW_AT_byte_size(0x02)
    3868              $C$DW$352       .dwtag  DW_TAG_member
    3869                      .dwattr $C$DW$352, DW_AT_type(*$C$DW$T$19)
    3870                      .dwattr $C$DW$352, DW_AT_name("FAIL_0_L")
    3871                      .dwattr $C$DW$352, DW_AT_TI_symbol_name("_FAIL_0_L")
    3872                      .dwattr $C$DW$352, DW_AT_bit_offset(0x0f), DW_AT_bit_size(0x01)
    3873                      .dwattr $C$DW$352, DW_AT_data_member_location[DW_OP_plus_uconst 0x0]
    3874                      .dwattr $C$DW$352, DW_AT_accessibility(DW_ACCESS_public)
    3875              $C$DW$353       .dwtag  DW_TAG_member
    3876                      .dwattr $C$DW$353, DW_AT_type(*$C$DW$T$19)
    3877                      .dwattr $C$DW$353, DW_AT_name("FAIL_1_L")
    3878                      .dwattr $C$DW$353, DW_AT_TI_symbol_name("_FAIL_1_L")
TMS320C2000 Assembler PC v6.4.2 Thu Dec 14 15:26:44 2017

Tools Copyright (c) 1996-2015 Texas Instruments Incorporated
F2837xS_SysCtrl.asm                                                  PAGE   75

    3879                      .dwattr $C$DW$353, DW_AT_bit_offset(0x0e), DW_AT_bit_size(0x01)
    3880                      .dwattr $C$DW$353, DW_AT_data_member_location[DW_OP_plus_uconst 0x0]
    3881                      .dwattr $C$DW$353, DW_AT_accessibility(DW_ACCESS_public)
    3882              $C$DW$354       .dwtag  DW_TAG_member
    3883                      .dwattr $C$DW$354, DW_AT_type(*$C$DW$T$19)
    3884                      .dwattr $C$DW$354, DW_AT_name("UNC_ERR_L")
    3885                      .dwattr $C$DW$354, DW_AT_TI_symbol_name("_UNC_ERR_L")
    3886                      .dwattr $C$DW$354, DW_AT_bit_offset(0x0d), DW_AT_bit_size(0x01)
    3887                      .dwattr $C$DW$354, DW_AT_data_member_location[DW_OP_plus_uconst 0x0]
    3888                      .dwattr $C$DW$354, DW_AT_accessibility(DW_ACCESS_public)
    3889              $C$DW$355       .dwtag  DW_TAG_member
    3890                      .dwattr $C$DW$355, DW_AT_type(*$C$DW$T$19)
    3891                      .dwattr $C$DW$355, DW_AT_name("rsvd1")
    3892                      .dwattr $C$DW$355, DW_AT_TI_symbol_name("_rsvd1")
    3893                      .dwattr $C$DW$355, DW_AT_bit_offset(0x00), DW_AT_bit_size(0x0d)
    3894                      .dwattr $C$DW$355, DW_AT_data_member_location[DW_OP_plus_uconst 0x0]
    3895                      .dwattr $C$DW$355, DW_AT_accessibility(DW_ACCESS_public)
    3896              $C$DW$356       .dwtag  DW_TAG_member
    3897                      .dwattr $C$DW$356, DW_AT_type(*$C$DW$T$19)
    3898                      .dwattr $C$DW$356, DW_AT_name("FAIL_0_H")
    3899                      .dwattr $C$DW$356, DW_AT_TI_symbol_name("_FAIL_0_H")
    3900                      .dwattr $C$DW$356, DW_AT_bit_offset(0x0f), DW_AT_bit_size(0x01)
    3901                      .dwattr $C$DW$356, DW_AT_data_member_location[DW_OP_plus_uconst 0x1]
    3902                      .dwattr $C$DW$356, DW_AT_accessibility(DW_ACCESS_public)
    3903              $C$DW$357       .dwtag  DW_TAG_member
    3904                      .dwattr $C$DW$357, DW_AT_type(*$C$DW$T$19)
    3905                      .dwattr $C$DW$357, DW_AT_name("FAIL_1_H")
    3906                      .dwattr $C$DW$357, DW_AT_TI_symbol_name("_FAIL_1_H")
    3907                      .dwattr $C$DW$357, DW_AT_bit_offset(0x0e), DW_AT_bit_size(0x01)
    3908                      .dwattr $C$DW$357, DW_AT_data_member_location[DW_OP_plus_uconst 0x1]
    3909                      .dwattr $C$DW$357, DW_AT_accessibility(DW_ACCESS_public)
    3910              $C$DW$358       .dwtag  DW_TAG_member
    3911                      .dwattr $C$DW$358, DW_AT_type(*$C$DW$T$19)
    3912                      .dwattr $C$DW$358, DW_AT_name("UNC_ERR_H")
    3913                      .dwattr $C$DW$358, DW_AT_TI_symbol_name("_UNC_ERR_H")
    3914                      .dwattr $C$DW$358, DW_AT_bit_offset(0x0d), DW_AT_bit_size(0x01)
    3915                      .dwattr $C$DW$358, DW_AT_data_member_location[DW_OP_plus_uconst 0x1]
    3916                      .dwattr $C$DW$358, DW_AT_accessibility(DW_ACCESS_public)
    3917              $C$DW$359       .dwtag  DW_TAG_member
    3918                      .dwattr $C$DW$359, DW_AT_type(*$C$DW$T$19)
    3919                      .dwattr $C$DW$359, DW_AT_name("rsvd2")
    3920                      .dwattr $C$DW$359, DW_AT_TI_symbol_name("_rsvd2")
    3921                      .dwattr $C$DW$359, DW_AT_bit_offset(0x00), DW_AT_bit_size(0x0d)
    3922                      .dwattr $C$DW$359, DW_AT_data_member_location[DW_OP_plus_uconst 0x1]
    3923                      .dwattr $C$DW$359, DW_AT_accessibility(DW_ACCESS_public)
    3924                      .dwendtag $C$DW$T$71
    3925              
    3926              
    3927              $C$DW$T$72      .dwtag  DW_TAG_structure_type
    3928                      .dwattr $C$DW$T$72, DW_AT_name("ERR_STATUS_CLR_BITS")
    3929                      .dwattr $C$DW$T$72, DW_AT_byte_size(0x02)
    3930              $C$DW$360       .dwtag  DW_TAG_member
    3931                      .dwattr $C$DW$360, DW_AT_type(*$C$DW$T$19)
    3932                      .dwattr $C$DW$360, DW_AT_name("FAIL_0_L_CLR")
    3933                      .dwattr $C$DW$360, DW_AT_TI_symbol_name("_FAIL_0_L_CLR")
TMS320C2000 Assembler PC v6.4.2 Thu Dec 14 15:26:44 2017

Tools Copyright (c) 1996-2015 Texas Instruments Incorporated
F2837xS_SysCtrl.asm                                                  PAGE   76

    3934                      .dwattr $C$DW$360, DW_AT_bit_offset(0x0f), DW_AT_bit_size(0x01)
    3935                      .dwattr $C$DW$360, DW_AT_data_member_location[DW_OP_plus_uconst 0x0]
    3936                      .dwattr $C$DW$360, DW_AT_accessibility(DW_ACCESS_public)
    3937              $C$DW$361       .dwtag  DW_TAG_member
    3938                      .dwattr $C$DW$361, DW_AT_type(*$C$DW$T$19)
    3939                      .dwattr $C$DW$361, DW_AT_name("FAIL_1_L_CLR")
    3940                      .dwattr $C$DW$361, DW_AT_TI_symbol_name("_FAIL_1_L_CLR")
    3941                      .dwattr $C$DW$361, DW_AT_bit_offset(0x0e), DW_AT_bit_size(0x01)
    3942                      .dwattr $C$DW$361, DW_AT_data_member_location[DW_OP_plus_uconst 0x0]
    3943                      .dwattr $C$DW$361, DW_AT_accessibility(DW_ACCESS_public)
    3944              $C$DW$362       .dwtag  DW_TAG_member
    3945                      .dwattr $C$DW$362, DW_AT_type(*$C$DW$T$19)
    3946                      .dwattr $C$DW$362, DW_AT_name("UNC_ERR_L_CLR")
    3947                      .dwattr $C$DW$362, DW_AT_TI_symbol_name("_UNC_ERR_L_CLR")
    3948                      .dwattr $C$DW$362, DW_AT_bit_offset(0x0d), DW_AT_bit_size(0x01)
    3949                      .dwattr $C$DW$362, DW_AT_data_member_location[DW_OP_plus_uconst 0x0]
    3950                      .dwattr $C$DW$362, DW_AT_accessibility(DW_ACCESS_public)
    3951              $C$DW$363       .dwtag  DW_TAG_member
    3952                      .dwattr $C$DW$363, DW_AT_type(*$C$DW$T$19)
    3953                      .dwattr $C$DW$363, DW_AT_name("rsvd1")
    3954                      .dwattr $C$DW$363, DW_AT_TI_symbol_name("_rsvd1")
    3955                      .dwattr $C$DW$363, DW_AT_bit_offset(0x00), DW_AT_bit_size(0x0d)
    3956                      .dwattr $C$DW$363, DW_AT_data_member_location[DW_OP_plus_uconst 0x0]
    3957                      .dwattr $C$DW$363, DW_AT_accessibility(DW_ACCESS_public)
    3958              $C$DW$364       .dwtag  DW_TAG_member
    3959                      .dwattr $C$DW$364, DW_AT_type(*$C$DW$T$19)
    3960                      .dwattr $C$DW$364, DW_AT_name("FAIL_0_H_CLR")
    3961                      .dwattr $C$DW$364, DW_AT_TI_symbol_name("_FAIL_0_H_CLR")
    3962                      .dwattr $C$DW$364, DW_AT_bit_offset(0x0f), DW_AT_bit_size(0x01)
    3963                      .dwattr $C$DW$364, DW_AT_data_member_location[DW_OP_plus_uconst 0x1]
    3964                      .dwattr $C$DW$364, DW_AT_accessibility(DW_ACCESS_public)
    3965              $C$DW$365       .dwtag  DW_TAG_member
    3966                      .dwattr $C$DW$365, DW_AT_type(*$C$DW$T$19)
    3967                      .dwattr $C$DW$365, DW_AT_name("FAIL_1_H_CLR")
    3968                      .dwattr $C$DW$365, DW_AT_TI_symbol_name("_FAIL_1_H_CLR")
    3969                      .dwattr $C$DW$365, DW_AT_bit_offset(0x0e), DW_AT_bit_size(0x01)
    3970                      .dwattr $C$DW$365, DW_AT_data_member_location[DW_OP_plus_uconst 0x1]
    3971                      .dwattr $C$DW$365, DW_AT_accessibility(DW_ACCESS_public)
    3972              $C$DW$366       .dwtag  DW_TAG_member
    3973                      .dwattr $C$DW$366, DW_AT_type(*$C$DW$T$19)
    3974                      .dwattr $C$DW$366, DW_AT_name("UNC_ERR_H_CLR")
    3975                      .dwattr $C$DW$366, DW_AT_TI_symbol_name("_UNC_ERR_H_CLR")
    3976                      .dwattr $C$DW$366, DW_AT_bit_offset(0x0d), DW_AT_bit_size(0x01)
    3977                      .dwattr $C$DW$366, DW_AT_data_member_location[DW_OP_plus_uconst 0x1]
    3978                      .dwattr $C$DW$366, DW_AT_accessibility(DW_ACCESS_public)
    3979              $C$DW$367       .dwtag  DW_TAG_member
    3980                      .dwattr $C$DW$367, DW_AT_type(*$C$DW$T$19)
    3981                      .dwattr $C$DW$367, DW_AT_name("rsvd2")
    3982                      .dwattr $C$DW$367, DW_AT_TI_symbol_name("_rsvd2")
    3983                      .dwattr $C$DW$367, DW_AT_bit_offset(0x00), DW_AT_bit_size(0x0d)
    3984                      .dwattr $C$DW$367, DW_AT_data_member_location[DW_OP_plus_uconst 0x1]
    3985                      .dwattr $C$DW$367, DW_AT_accessibility(DW_ACCESS_public)
    3986                      .dwendtag $C$DW$T$72
    3987              
    3988              
TMS320C2000 Assembler PC v6.4.2 Thu Dec 14 15:26:44 2017

Tools Copyright (c) 1996-2015 Texas Instruments Incorporated
F2837xS_SysCtrl.asm                                                  PAGE   77

    3989              $C$DW$T$73      .dwtag  DW_TAG_union_type
    3990                      .dwattr $C$DW$T$73, DW_AT_name("ERR_STATUS_CLR_REG")
    3991                      .dwattr $C$DW$T$73, DW_AT_byte_size(0x02)
    3992              $C$DW$368       .dwtag  DW_TAG_member
    3993                      .dwattr $C$DW$368, DW_AT_type(*$C$DW$T$27)
    3994                      .dwattr $C$DW$368, DW_AT_name("all")
    3995                      .dwattr $C$DW$368, DW_AT_TI_symbol_name("_all")
    3996                      .dwattr $C$DW$368, DW_AT_data_member_location[DW_OP_plus_uconst 0x0]
    3997                      .dwattr $C$DW$368, DW_AT_accessibility(DW_ACCESS_public)
    3998              $C$DW$369       .dwtag  DW_TAG_member
    3999                      .dwattr $C$DW$369, DW_AT_type(*$C$DW$T$72)
    4000                      .dwattr $C$DW$369, DW_AT_name("bit")
    4001                      .dwattr $C$DW$369, DW_AT_TI_symbol_name("_bit")
    4002                      .dwattr $C$DW$369, DW_AT_data_member_location[DW_OP_plus_uconst 0x0]
    4003                      .dwattr $C$DW$369, DW_AT_accessibility(DW_ACCESS_public)
    4004                      .dwendtag $C$DW$T$73
    4005              
    4006              
    4007              $C$DW$T$74      .dwtag  DW_TAG_union_type
    4008                      .dwattr $C$DW$T$74, DW_AT_name("ERR_STATUS_REG")
    4009                      .dwattr $C$DW$T$74, DW_AT_byte_size(0x02)
    4010              $C$DW$370       .dwtag  DW_TAG_member
    4011                      .dwattr $C$DW$370, DW_AT_type(*$C$DW$T$27)
    4012                      .dwattr $C$DW$370, DW_AT_name("all")
    4013                      .dwattr $C$DW$370, DW_AT_TI_symbol_name("_all")
    4014                      .dwattr $C$DW$370, DW_AT_data_member_location[DW_OP_plus_uconst 0x0]
    4015                      .dwattr $C$DW$370, DW_AT_accessibility(DW_ACCESS_public)
    4016              $C$DW$371       .dwtag  DW_TAG_member
    4017                      .dwattr $C$DW$371, DW_AT_type(*$C$DW$T$71)
    4018                      .dwattr $C$DW$371, DW_AT_name("bit")
    4019                      .dwattr $C$DW$371, DW_AT_TI_symbol_name("_bit")
    4020                      .dwattr $C$DW$371, DW_AT_data_member_location[DW_OP_plus_uconst 0x0]
    4021                      .dwattr $C$DW$371, DW_AT_accessibility(DW_ACCESS_public)
    4022                      .dwendtag $C$DW$T$74
    4023              
    4024              
    4025              $C$DW$T$75      .dwtag  DW_TAG_structure_type
    4026                      .dwattr $C$DW$T$75, DW_AT_name("ERR_THRESHOLD_BITS")
    4027                      .dwattr $C$DW$T$75, DW_AT_byte_size(0x02)
    4028              $C$DW$372       .dwtag  DW_TAG_member
    4029                      .dwattr $C$DW$372, DW_AT_type(*$C$DW$T$19)
    4030                      .dwattr $C$DW$372, DW_AT_name("ERR_THRESHOLD")
    4031                      .dwattr $C$DW$372, DW_AT_TI_symbol_name("_ERR_THRESHOLD")
    4032                      .dwattr $C$DW$372, DW_AT_bit_offset(0x00), DW_AT_bit_size(0x10)
    4033                      .dwattr $C$DW$372, DW_AT_data_member_location[DW_OP_plus_uconst 0x0]
    4034                      .dwattr $C$DW$372, DW_AT_accessibility(DW_ACCESS_public)
    4035              $C$DW$373       .dwtag  DW_TAG_member
    4036                      .dwattr $C$DW$373, DW_AT_type(*$C$DW$T$19)
    4037                      .dwattr $C$DW$373, DW_AT_name("rsvd1")
    4038                      .dwattr $C$DW$373, DW_AT_TI_symbol_name("_rsvd1")
    4039                      .dwattr $C$DW$373, DW_AT_bit_offset(0x00), DW_AT_bit_size(0x10)
    4040                      .dwattr $C$DW$373, DW_AT_data_member_location[DW_OP_plus_uconst 0x1]
    4041                      .dwattr $C$DW$373, DW_AT_accessibility(DW_ACCESS_public)
    4042                      .dwendtag $C$DW$T$75
    4043              
TMS320C2000 Assembler PC v6.4.2 Thu Dec 14 15:26:44 2017

Tools Copyright (c) 1996-2015 Texas Instruments Incorporated
F2837xS_SysCtrl.asm                                                  PAGE   78

    4044              
    4045              $C$DW$T$76      .dwtag  DW_TAG_union_type
    4046                      .dwattr $C$DW$T$76, DW_AT_name("ERR_THRESHOLD_REG")
    4047                      .dwattr $C$DW$T$76, DW_AT_byte_size(0x02)
    4048              $C$DW$374       .dwtag  DW_TAG_member
    4049                      .dwattr $C$DW$374, DW_AT_type(*$C$DW$T$27)
    4050                      .dwattr $C$DW$374, DW_AT_name("all")
    4051                      .dwattr $C$DW$374, DW_AT_TI_symbol_name("_all")
    4052                      .dwattr $C$DW$374, DW_AT_data_member_location[DW_OP_plus_uconst 0x0]
    4053                      .dwattr $C$DW$374, DW_AT_accessibility(DW_ACCESS_public)
    4054              $C$DW$375       .dwtag  DW_TAG_member
    4055                      .dwattr $C$DW$375, DW_AT_type(*$C$DW$T$75)
    4056                      .dwattr $C$DW$375, DW_AT_name("bit")
    4057                      .dwattr $C$DW$375, DW_AT_TI_symbol_name("_bit")
    4058                      .dwattr $C$DW$375, DW_AT_data_member_location[DW_OP_plus_uconst 0x0]
    4059                      .dwattr $C$DW$375, DW_AT_accessibility(DW_ACCESS_public)
    4060                      .dwendtag $C$DW$T$76
    4061              
    4062              
    4063              $C$DW$T$77      .dwtag  DW_TAG_structure_type
    4064                      .dwattr $C$DW$T$77, DW_AT_name("FADDR_TEST_BITS")
    4065                      .dwattr $C$DW$T$77, DW_AT_byte_size(0x02)
    4066              $C$DW$376       .dwtag  DW_TAG_member
    4067                      .dwattr $C$DW$376, DW_AT_type(*$C$DW$T$19)
    4068                      .dwattr $C$DW$376, DW_AT_name("rsvd1")
    4069                      .dwattr $C$DW$376, DW_AT_TI_symbol_name("_rsvd1")
    4070                      .dwattr $C$DW$376, DW_AT_bit_offset(0x0d), DW_AT_bit_size(0x03)
    4071                      .dwattr $C$DW$376, DW_AT_data_member_location[DW_OP_plus_uconst 0x0]
    4072                      .dwattr $C$DW$376, DW_AT_accessibility(DW_ACCESS_public)
    4073              $C$DW$377       .dwtag  DW_TAG_member
    4074                      .dwattr $C$DW$377, DW_AT_type(*$C$DW$T$19)
    4075                      .dwattr $C$DW$377, DW_AT_name("ADDRL")
    4076                      .dwattr $C$DW$377, DW_AT_TI_symbol_name("_ADDRL")
    4077                      .dwattr $C$DW$377, DW_AT_bit_offset(0x00), DW_AT_bit_size(0x0d)
    4078                      .dwattr $C$DW$377, DW_AT_data_member_location[DW_OP_plus_uconst 0x0]
    4079                      .dwattr $C$DW$377, DW_AT_accessibility(DW_ACCESS_public)
    4080              $C$DW$378       .dwtag  DW_TAG_member
    4081                      .dwattr $C$DW$378, DW_AT_type(*$C$DW$T$19)
    4082                      .dwattr $C$DW$378, DW_AT_name("ADDRH")
    4083                      .dwattr $C$DW$378, DW_AT_TI_symbol_name("_ADDRH")
    4084                      .dwattr $C$DW$378, DW_AT_bit_offset(0x0a), DW_AT_bit_size(0x06)
    4085                      .dwattr $C$DW$378, DW_AT_data_member_location[DW_OP_plus_uconst 0x1]
    4086                      .dwattr $C$DW$378, DW_AT_accessibility(DW_ACCESS_public)
    4087              $C$DW$379       .dwtag  DW_TAG_member
    4088                      .dwattr $C$DW$379, DW_AT_type(*$C$DW$T$19)
    4089                      .dwattr $C$DW$379, DW_AT_name("rsvd2")
    4090                      .dwattr $C$DW$379, DW_AT_TI_symbol_name("_rsvd2")
    4091                      .dwattr $C$DW$379, DW_AT_bit_offset(0x00), DW_AT_bit_size(0x0a)
    4092                      .dwattr $C$DW$379, DW_AT_data_member_location[DW_OP_plus_uconst 0x1]
    4093                      .dwattr $C$DW$379, DW_AT_accessibility(DW_ACCESS_public)
    4094                      .dwendtag $C$DW$T$77
    4095              
    4096              
    4097              $C$DW$T$78      .dwtag  DW_TAG_union_type
    4098                      .dwattr $C$DW$T$78, DW_AT_name("FADDR_TEST_REG")
TMS320C2000 Assembler PC v6.4.2 Thu Dec 14 15:26:44 2017

Tools Copyright (c) 1996-2015 Texas Instruments Incorporated
F2837xS_SysCtrl.asm                                                  PAGE   79

    4099                      .dwattr $C$DW$T$78, DW_AT_byte_size(0x02)
    4100              $C$DW$380       .dwtag  DW_TAG_member
    4101                      .dwattr $C$DW$380, DW_AT_type(*$C$DW$T$27)
    4102                      .dwattr $C$DW$380, DW_AT_name("all")
    4103                      .dwattr $C$DW$380, DW_AT_TI_symbol_name("_all")
    4104                      .dwattr $C$DW$380, DW_AT_data_member_location[DW_OP_plus_uconst 0x0]
    4105                      .dwattr $C$DW$380, DW_AT_accessibility(DW_ACCESS_public)
    4106              $C$DW$381       .dwtag  DW_TAG_member
    4107                      .dwattr $C$DW$381, DW_AT_type(*$C$DW$T$77)
    4108                      .dwattr $C$DW$381, DW_AT_name("bit")
    4109                      .dwattr $C$DW$381, DW_AT_TI_symbol_name("_bit")
    4110                      .dwattr $C$DW$381, DW_AT_data_member_location[DW_OP_plus_uconst 0x0]
    4111                      .dwattr $C$DW$381, DW_AT_accessibility(DW_ACCESS_public)
    4112                      .dwendtag $C$DW$T$78
    4113              
    4114              
    4115              $C$DW$T$79      .dwtag  DW_TAG_structure_type
    4116                      .dwattr $C$DW$T$79, DW_AT_name("FBAC_BITS")
    4117                      .dwattr $C$DW$T$79, DW_AT_byte_size(0x02)
    4118              $C$DW$382       .dwtag  DW_TAG_member
    4119                      .dwattr $C$DW$382, DW_AT_type(*$C$DW$T$19)
    4120                      .dwattr $C$DW$382, DW_AT_name("VREADST")
    4121                      .dwattr $C$DW$382, DW_AT_TI_symbol_name("_VREADST")
    4122                      .dwattr $C$DW$382, DW_AT_bit_offset(0x08), DW_AT_bit_size(0x08)
    4123                      .dwattr $C$DW$382, DW_AT_data_member_location[DW_OP_plus_uconst 0x0]
    4124                      .dwattr $C$DW$382, DW_AT_accessibility(DW_ACCESS_public)
    4125              $C$DW$383       .dwtag  DW_TAG_member
    4126                      .dwattr $C$DW$383, DW_AT_type(*$C$DW$T$19)
    4127                      .dwattr $C$DW$383, DW_AT_name("BAGP")
    4128                      .dwattr $C$DW$383, DW_AT_TI_symbol_name("_BAGP")
    4129                      .dwattr $C$DW$383, DW_AT_bit_offset(0x00), DW_AT_bit_size(0x08)
    4130                      .dwattr $C$DW$383, DW_AT_data_member_location[DW_OP_plus_uconst 0x0]
    4131                      .dwattr $C$DW$383, DW_AT_accessibility(DW_ACCESS_public)
    4132              $C$DW$384       .dwtag  DW_TAG_member
    4133                      .dwattr $C$DW$384, DW_AT_type(*$C$DW$T$19)
    4134                      .dwattr $C$DW$384, DW_AT_name("rsvd1")
    4135                      .dwattr $C$DW$384, DW_AT_TI_symbol_name("_rsvd1")
    4136                      .dwattr $C$DW$384, DW_AT_bit_offset(0x00), DW_AT_bit_size(0x10)
    4137                      .dwattr $C$DW$384, DW_AT_data_member_location[DW_OP_plus_uconst 0x1]
    4138                      .dwattr $C$DW$384, DW_AT_accessibility(DW_ACCESS_public)
    4139                      .dwendtag $C$DW$T$79
    4140              
    4141              
    4142              $C$DW$T$80      .dwtag  DW_TAG_union_type
    4143                      .dwattr $C$DW$T$80, DW_AT_name("FBAC_REG")
    4144                      .dwattr $C$DW$T$80, DW_AT_byte_size(0x02)
    4145              $C$DW$385       .dwtag  DW_TAG_member
    4146                      .dwattr $C$DW$385, DW_AT_type(*$C$DW$T$27)
    4147                      .dwattr $C$DW$385, DW_AT_name("all")
    4148                      .dwattr $C$DW$385, DW_AT_TI_symbol_name("_all")
    4149                      .dwattr $C$DW$385, DW_AT_data_member_location[DW_OP_plus_uconst 0x0]
    4150                      .dwattr $C$DW$385, DW_AT_accessibility(DW_ACCESS_public)
    4151              $C$DW$386       .dwtag  DW_TAG_member
    4152                      .dwattr $C$DW$386, DW_AT_type(*$C$DW$T$79)
    4153                      .dwattr $C$DW$386, DW_AT_name("bit")
TMS320C2000 Assembler PC v6.4.2 Thu Dec 14 15:26:44 2017

Tools Copyright (c) 1996-2015 Texas Instruments Incorporated
F2837xS_SysCtrl.asm                                                  PAGE   80

    4154                      .dwattr $C$DW$386, DW_AT_TI_symbol_name("_bit")
    4155                      .dwattr $C$DW$386, DW_AT_data_member_location[DW_OP_plus_uconst 0x0]
    4156                      .dwattr $C$DW$386, DW_AT_accessibility(DW_ACCESS_public)
    4157                      .dwendtag $C$DW$T$80
    4158              
    4159              
    4160              $C$DW$T$81      .dwtag  DW_TAG_structure_type
    4161                      .dwattr $C$DW$T$81, DW_AT_name("FBFALLBACK_BITS")
    4162                      .dwattr $C$DW$T$81, DW_AT_byte_size(0x02)
    4163              $C$DW$387       .dwtag  DW_TAG_member
    4164                      .dwattr $C$DW$387, DW_AT_type(*$C$DW$T$19)
    4165                      .dwattr $C$DW$387, DW_AT_name("BNKPWR0")
    4166                      .dwattr $C$DW$387, DW_AT_TI_symbol_name("_BNKPWR0")
    4167                      .dwattr $C$DW$387, DW_AT_bit_offset(0x0e), DW_AT_bit_size(0x02)
    4168                      .dwattr $C$DW$387, DW_AT_data_member_location[DW_OP_plus_uconst 0x0]
    4169                      .dwattr $C$DW$387, DW_AT_accessibility(DW_ACCESS_public)
    4170              $C$DW$388       .dwtag  DW_TAG_member
    4171                      .dwattr $C$DW$388, DW_AT_type(*$C$DW$T$19)
    4172                      .dwattr $C$DW$388, DW_AT_name("rsvd1")
    4173                      .dwattr $C$DW$388, DW_AT_TI_symbol_name("_rsvd1")
    4174                      .dwattr $C$DW$388, DW_AT_bit_offset(0x00), DW_AT_bit_size(0x0e)
    4175                      .dwattr $C$DW$388, DW_AT_data_member_location[DW_OP_plus_uconst 0x0]
    4176                      .dwattr $C$DW$388, DW_AT_accessibility(DW_ACCESS_public)
    4177              $C$DW$389       .dwtag  DW_TAG_member
    4178                      .dwattr $C$DW$389, DW_AT_type(*$C$DW$T$19)
    4179                      .dwattr $C$DW$389, DW_AT_name("rsvd2")
    4180                      .dwattr $C$DW$389, DW_AT_TI_symbol_name("_rsvd2")
    4181                      .dwattr $C$DW$389, DW_AT_bit_offset(0x00), DW_AT_bit_size(0x10)
    4182                      .dwattr $C$DW$389, DW_AT_data_member_location[DW_OP_plus_uconst 0x1]
    4183                      .dwattr $C$DW$389, DW_AT_accessibility(DW_ACCESS_public)
    4184                      .dwendtag $C$DW$T$81
    4185              
    4186              
    4187              $C$DW$T$82      .dwtag  DW_TAG_union_type
    4188                      .dwattr $C$DW$T$82, DW_AT_name("FBFALLBACK_REG")
    4189                      .dwattr $C$DW$T$82, DW_AT_byte_size(0x02)
    4190              $C$DW$390       .dwtag  DW_TAG_member
    4191                      .dwattr $C$DW$390, DW_AT_type(*$C$DW$T$27)
    4192                      .dwattr $C$DW$390, DW_AT_name("all")
    4193                      .dwattr $C$DW$390, DW_AT_TI_symbol_name("_all")
    4194                      .dwattr $C$DW$390, DW_AT_data_member_location[DW_OP_plus_uconst 0x0]
    4195                      .dwattr $C$DW$390, DW_AT_accessibility(DW_ACCESS_public)
    4196              $C$DW$391       .dwtag  DW_TAG_member
    4197                      .dwattr $C$DW$391, DW_AT_type(*$C$DW$T$81)
    4198                      .dwattr $C$DW$391, DW_AT_name("bit")
    4199                      .dwattr $C$DW$391, DW_AT_TI_symbol_name("_bit")
    4200                      .dwattr $C$DW$391, DW_AT_data_member_location[DW_OP_plus_uconst 0x0]
    4201                      .dwattr $C$DW$391, DW_AT_accessibility(DW_ACCESS_public)
    4202                      .dwendtag $C$DW$T$82
    4203              
    4204              
    4205              $C$DW$T$83      .dwtag  DW_TAG_structure_type
    4206                      .dwattr $C$DW$T$83, DW_AT_name("FBPRDY_BITS")
    4207                      .dwattr $C$DW$T$83, DW_AT_byte_size(0x02)
    4208              $C$DW$392       .dwtag  DW_TAG_member
TMS320C2000 Assembler PC v6.4.2 Thu Dec 14 15:26:44 2017

Tools Copyright (c) 1996-2015 Texas Instruments Incorporated
F2837xS_SysCtrl.asm                                                  PAGE   81

    4209                      .dwattr $C$DW$392, DW_AT_type(*$C$DW$T$19)
    4210                      .dwattr $C$DW$392, DW_AT_name("BANKRDY")
    4211                      .dwattr $C$DW$392, DW_AT_TI_symbol_name("_BANKRDY")
    4212                      .dwattr $C$DW$392, DW_AT_bit_offset(0x0f), DW_AT_bit_size(0x01)
    4213                      .dwattr $C$DW$392, DW_AT_data_member_location[DW_OP_plus_uconst 0x0]
    4214                      .dwattr $C$DW$392, DW_AT_accessibility(DW_ACCESS_public)
    4215              $C$DW$393       .dwtag  DW_TAG_member
    4216                      .dwattr $C$DW$393, DW_AT_type(*$C$DW$T$19)
    4217                      .dwattr $C$DW$393, DW_AT_name("rsvd1")
    4218                      .dwattr $C$DW$393, DW_AT_TI_symbol_name("_rsvd1")
    4219                      .dwattr $C$DW$393, DW_AT_bit_offset(0x01), DW_AT_bit_size(0x0e)
    4220                      .dwattr $C$DW$393, DW_AT_data_member_location[DW_OP_plus_uconst 0x0]
    4221                      .dwattr $C$DW$393, DW_AT_accessibility(DW_ACCESS_public)
    4222              $C$DW$394       .dwtag  DW_TAG_member
    4223                      .dwattr $C$DW$394, DW_AT_type(*$C$DW$T$19)
    4224                      .dwattr $C$DW$394, DW_AT_name("PUMPRDY")
    4225                      .dwattr $C$DW$394, DW_AT_TI_symbol_name("_PUMPRDY")
    4226                      .dwattr $C$DW$394, DW_AT_bit_offset(0x00), DW_AT_bit_size(0x01)
    4227                      .dwattr $C$DW$394, DW_AT_data_member_location[DW_OP_plus_uconst 0x0]
    4228                      .dwattr $C$DW$394, DW_AT_accessibility(DW_ACCESS_public)
    4229              $C$DW$395       .dwtag  DW_TAG_member
    4230                      .dwattr $C$DW$395, DW_AT_type(*$C$DW$T$19)
    4231                      .dwattr $C$DW$395, DW_AT_name("rsvd2")
    4232                      .dwattr $C$DW$395, DW_AT_TI_symbol_name("_rsvd2")
    4233                      .dwattr $C$DW$395, DW_AT_bit_offset(0x00), DW_AT_bit_size(0x10)
    4234                      .dwattr $C$DW$395, DW_AT_data_member_location[DW_OP_plus_uconst 0x1]
    4235                      .dwattr $C$DW$395, DW_AT_accessibility(DW_ACCESS_public)
    4236                      .dwendtag $C$DW$T$83
    4237              
    4238              
    4239              $C$DW$T$84      .dwtag  DW_TAG_union_type
    4240                      .dwattr $C$DW$T$84, DW_AT_name("FBPRDY_REG")
    4241                      .dwattr $C$DW$T$84, DW_AT_byte_size(0x02)
    4242              $C$DW$396       .dwtag  DW_TAG_member
    4243                      .dwattr $C$DW$396, DW_AT_type(*$C$DW$T$27)
    4244                      .dwattr $C$DW$396, DW_AT_name("all")
    4245                      .dwattr $C$DW$396, DW_AT_TI_symbol_name("_all")
    4246                      .dwattr $C$DW$396, DW_AT_data_member_location[DW_OP_plus_uconst 0x0]
    4247                      .dwattr $C$DW$396, DW_AT_accessibility(DW_ACCESS_public)
    4248              $C$DW$397       .dwtag  DW_TAG_member
    4249                      .dwattr $C$DW$397, DW_AT_type(*$C$DW$T$83)
    4250                      .dwattr $C$DW$397, DW_AT_name("bit")
    4251                      .dwattr $C$DW$397, DW_AT_TI_symbol_name("_bit")
    4252                      .dwattr $C$DW$397, DW_AT_data_member_location[DW_OP_plus_uconst 0x0]
    4253                      .dwattr $C$DW$397, DW_AT_accessibility(DW_ACCESS_public)
    4254                      .dwendtag $C$DW$T$84
    4255              
    4256              
    4257              $C$DW$T$85      .dwtag  DW_TAG_structure_type
    4258                      .dwattr $C$DW$T$85, DW_AT_name("FECC_CTRL_BITS")
    4259                      .dwattr $C$DW$T$85, DW_AT_byte_size(0x02)
    4260              $C$DW$398       .dwtag  DW_TAG_member
    4261                      .dwattr $C$DW$398, DW_AT_type(*$C$DW$T$19)
    4262                      .dwattr $C$DW$398, DW_AT_name("ECC_TEST_EN")
    4263                      .dwattr $C$DW$398, DW_AT_TI_symbol_name("_ECC_TEST_EN")
TMS320C2000 Assembler PC v6.4.2 Thu Dec 14 15:26:44 2017

Tools Copyright (c) 1996-2015 Texas Instruments Incorporated
F2837xS_SysCtrl.asm                                                  PAGE   82

    4264                      .dwattr $C$DW$398, DW_AT_bit_offset(0x0f), DW_AT_bit_size(0x01)
    4265                      .dwattr $C$DW$398, DW_AT_data_member_location[DW_OP_plus_uconst 0x0]
    4266                      .dwattr $C$DW$398, DW_AT_accessibility(DW_ACCESS_public)
    4267              $C$DW$399       .dwtag  DW_TAG_member
    4268                      .dwattr $C$DW$399, DW_AT_type(*$C$DW$T$19)
    4269                      .dwattr $C$DW$399, DW_AT_name("ECC_SELECT")
    4270                      .dwattr $C$DW$399, DW_AT_TI_symbol_name("_ECC_SELECT")
    4271                      .dwattr $C$DW$399, DW_AT_bit_offset(0x0e), DW_AT_bit_size(0x01)
    4272                      .dwattr $C$DW$399, DW_AT_data_member_location[DW_OP_plus_uconst 0x0]
    4273                      .dwattr $C$DW$399, DW_AT_accessibility(DW_ACCESS_public)
    4274              $C$DW$400       .dwtag  DW_TAG_member
    4275                      .dwattr $C$DW$400, DW_AT_type(*$C$DW$T$19)
    4276                      .dwattr $C$DW$400, DW_AT_name("DO_ECC_CALC")
    4277                      .dwattr $C$DW$400, DW_AT_TI_symbol_name("_DO_ECC_CALC")
    4278                      .dwattr $C$DW$400, DW_AT_bit_offset(0x0d), DW_AT_bit_size(0x01)
    4279                      .dwattr $C$DW$400, DW_AT_data_member_location[DW_OP_plus_uconst 0x0]
    4280                      .dwattr $C$DW$400, DW_AT_accessibility(DW_ACCESS_public)
    4281              $C$DW$401       .dwtag  DW_TAG_member
    4282                      .dwattr $C$DW$401, DW_AT_type(*$C$DW$T$19)
    4283                      .dwattr $C$DW$401, DW_AT_name("rsvd1")
    4284                      .dwattr $C$DW$401, DW_AT_TI_symbol_name("_rsvd1")
    4285                      .dwattr $C$DW$401, DW_AT_bit_offset(0x00), DW_AT_bit_size(0x0d)
    4286                      .dwattr $C$DW$401, DW_AT_data_member_location[DW_OP_plus_uconst 0x0]
    4287                      .dwattr $C$DW$401, DW_AT_accessibility(DW_ACCESS_public)
    4288              $C$DW$402       .dwtag  DW_TAG_member
    4289                      .dwattr $C$DW$402, DW_AT_type(*$C$DW$T$19)
    4290                      .dwattr $C$DW$402, DW_AT_name("rsvd2")
    4291                      .dwattr $C$DW$402, DW_AT_TI_symbol_name("_rsvd2")
    4292                      .dwattr $C$DW$402, DW_AT_bit_offset(0x00), DW_AT_bit_size(0x10)
    4293                      .dwattr $C$DW$402, DW_AT_data_member_location[DW_OP_plus_uconst 0x1]
    4294                      .dwattr $C$DW$402, DW_AT_accessibility(DW_ACCESS_public)
    4295                      .dwendtag $C$DW$T$85
    4296              
    4297              
    4298              $C$DW$T$86      .dwtag  DW_TAG_union_type
    4299                      .dwattr $C$DW$T$86, DW_AT_name("FECC_CTRL_REG")
    4300                      .dwattr $C$DW$T$86, DW_AT_byte_size(0x02)
    4301              $C$DW$403       .dwtag  DW_TAG_member
    4302                      .dwattr $C$DW$403, DW_AT_type(*$C$DW$T$27)
    4303                      .dwattr $C$DW$403, DW_AT_name("all")
    4304                      .dwattr $C$DW$403, DW_AT_TI_symbol_name("_all")
    4305                      .dwattr $C$DW$403, DW_AT_data_member_location[DW_OP_plus_uconst 0x0]
    4306                      .dwattr $C$DW$403, DW_AT_accessibility(DW_ACCESS_public)
    4307              $C$DW$404       .dwtag  DW_TAG_member
    4308                      .dwattr $C$DW$404, DW_AT_type(*$C$DW$T$85)
    4309                      .dwattr $C$DW$404, DW_AT_name("bit")
    4310                      .dwattr $C$DW$404, DW_AT_TI_symbol_name("_bit")
    4311                      .dwattr $C$DW$404, DW_AT_data_member_location[DW_OP_plus_uconst 0x0]
    4312                      .dwattr $C$DW$404, DW_AT_accessibility(DW_ACCESS_public)
    4313                      .dwendtag $C$DW$T$86
    4314              
    4315              
    4316              $C$DW$T$87      .dwtag  DW_TAG_structure_type
    4317                      .dwattr $C$DW$T$87, DW_AT_name("FECC_STATUS_BITS")
    4318                      .dwattr $C$DW$T$87, DW_AT_byte_size(0x02)
TMS320C2000 Assembler PC v6.4.2 Thu Dec 14 15:26:44 2017

Tools Copyright (c) 1996-2015 Texas Instruments Incorporated
F2837xS_SysCtrl.asm                                                  PAGE   83

    4319              $C$DW$405       .dwtag  DW_TAG_member
    4320                      .dwattr $C$DW$405, DW_AT_type(*$C$DW$T$19)
    4321                      .dwattr $C$DW$405, DW_AT_name("SINGLE_ERR")
    4322                      .dwattr $C$DW$405, DW_AT_TI_symbol_name("_SINGLE_ERR")
    4323                      .dwattr $C$DW$405, DW_AT_bit_offset(0x0f), DW_AT_bit_size(0x01)
    4324                      .dwattr $C$DW$405, DW_AT_data_member_location[DW_OP_plus_uconst 0x0]
    4325                      .dwattr $C$DW$405, DW_AT_accessibility(DW_ACCESS_public)
    4326              $C$DW$406       .dwtag  DW_TAG_member
    4327                      .dwattr $C$DW$406, DW_AT_type(*$C$DW$T$19)
    4328                      .dwattr $C$DW$406, DW_AT_name("UNC_ERR")
    4329                      .dwattr $C$DW$406, DW_AT_TI_symbol_name("_UNC_ERR")
    4330                      .dwattr $C$DW$406, DW_AT_bit_offset(0x0e), DW_AT_bit_size(0x01)
    4331                      .dwattr $C$DW$406, DW_AT_data_member_location[DW_OP_plus_uconst 0x0]
    4332                      .dwattr $C$DW$406, DW_AT_accessibility(DW_ACCESS_public)
    4333              $C$DW$407       .dwtag  DW_TAG_member
    4334                      .dwattr $C$DW$407, DW_AT_type(*$C$DW$T$19)
    4335                      .dwattr $C$DW$407, DW_AT_name("DATA_ERR_POS")
    4336                      .dwattr $C$DW$407, DW_AT_TI_symbol_name("_DATA_ERR_POS")
    4337                      .dwattr $C$DW$407, DW_AT_bit_offset(0x08), DW_AT_bit_size(0x06)
    4338                      .dwattr $C$DW$407, DW_AT_data_member_location[DW_OP_plus_uconst 0x0]
    4339                      .dwattr $C$DW$407, DW_AT_accessibility(DW_ACCESS_public)
    4340              $C$DW$408       .dwtag  DW_TAG_member
    4341                      .dwattr $C$DW$408, DW_AT_type(*$C$DW$T$19)
    4342                      .dwattr $C$DW$408, DW_AT_name("ERR_TYPE")
    4343                      .dwattr $C$DW$408, DW_AT_TI_symbol_name("_ERR_TYPE")
    4344                      .dwattr $C$DW$408, DW_AT_bit_offset(0x07), DW_AT_bit_size(0x01)
    4345                      .dwattr $C$DW$408, DW_AT_data_member_location[DW_OP_plus_uconst 0x0]
    4346                      .dwattr $C$DW$408, DW_AT_accessibility(DW_ACCESS_public)
    4347              $C$DW$409       .dwtag  DW_TAG_member
    4348                      .dwattr $C$DW$409, DW_AT_type(*$C$DW$T$19)
    4349                      .dwattr $C$DW$409, DW_AT_name("rsvd1")
    4350                      .dwattr $C$DW$409, DW_AT_TI_symbol_name("_rsvd1")
    4351                      .dwattr $C$DW$409, DW_AT_bit_offset(0x00), DW_AT_bit_size(0x07)
    4352                      .dwattr $C$DW$409, DW_AT_data_member_location[DW_OP_plus_uconst 0x0]
    4353                      .dwattr $C$DW$409, DW_AT_accessibility(DW_ACCESS_public)
    4354              $C$DW$410       .dwtag  DW_TAG_member
    4355                      .dwattr $C$DW$410, DW_AT_type(*$C$DW$T$19)
    4356                      .dwattr $C$DW$410, DW_AT_name("rsvd2")
    4357                      .dwattr $C$DW$410, DW_AT_TI_symbol_name("_rsvd2")
    4358                      .dwattr $C$DW$410, DW_AT_bit_offset(0x00), DW_AT_bit_size(0x10)
    4359                      .dwattr $C$DW$410, DW_AT_data_member_location[DW_OP_plus_uconst 0x1]
    4360                      .dwattr $C$DW$410, DW_AT_accessibility(DW_ACCESS_public)
    4361                      .dwendtag $C$DW$T$87
    4362              
    4363              
    4364              $C$DW$T$88      .dwtag  DW_TAG_union_type
    4365                      .dwattr $C$DW$T$88, DW_AT_name("FECC_STATUS_REG")
    4366                      .dwattr $C$DW$T$88, DW_AT_byte_size(0x02)
    4367              $C$DW$411       .dwtag  DW_TAG_member
    4368                      .dwattr $C$DW$411, DW_AT_type(*$C$DW$T$27)
    4369                      .dwattr $C$DW$411, DW_AT_name("all")
    4370                      .dwattr $C$DW$411, DW_AT_TI_symbol_name("_all")
    4371                      .dwattr $C$DW$411, DW_AT_data_member_location[DW_OP_plus_uconst 0x0]
    4372                      .dwattr $C$DW$411, DW_AT_accessibility(DW_ACCESS_public)
    4373              $C$DW$412       .dwtag  DW_TAG_member
TMS320C2000 Assembler PC v6.4.2 Thu Dec 14 15:26:44 2017

Tools Copyright (c) 1996-2015 Texas Instruments Incorporated
F2837xS_SysCtrl.asm                                                  PAGE   84

    4374                      .dwattr $C$DW$412, DW_AT_type(*$C$DW$T$87)
    4375                      .dwattr $C$DW$412, DW_AT_name("bit")
    4376                      .dwattr $C$DW$412, DW_AT_TI_symbol_name("_bit")
    4377                      .dwattr $C$DW$412, DW_AT_data_member_location[DW_OP_plus_uconst 0x0]
    4378                      .dwattr $C$DW$412, DW_AT_accessibility(DW_ACCESS_public)
    4379                      .dwendtag $C$DW$T$88
    4380              
    4381              
    4382              $C$DW$T$89      .dwtag  DW_TAG_structure_type
    4383                      .dwattr $C$DW$T$89, DW_AT_name("FECC_TEST_BITS")
    4384                      .dwattr $C$DW$T$89, DW_AT_byte_size(0x02)
    4385              $C$DW$413       .dwtag  DW_TAG_member
    4386                      .dwattr $C$DW$413, DW_AT_type(*$C$DW$T$19)
    4387                      .dwattr $C$DW$413, DW_AT_name("ECC")
    4388                      .dwattr $C$DW$413, DW_AT_TI_symbol_name("_ECC")
    4389                      .dwattr $C$DW$413, DW_AT_bit_offset(0x08), DW_AT_bit_size(0x08)
    4390                      .dwattr $C$DW$413, DW_AT_data_member_location[DW_OP_plus_uconst 0x0]
    4391                      .dwattr $C$DW$413, DW_AT_accessibility(DW_ACCESS_public)
    4392              $C$DW$414       .dwtag  DW_TAG_member
    4393                      .dwattr $C$DW$414, DW_AT_type(*$C$DW$T$19)
    4394                      .dwattr $C$DW$414, DW_AT_name("rsvd1")
    4395                      .dwattr $C$DW$414, DW_AT_TI_symbol_name("_rsvd1")
    4396                      .dwattr $C$DW$414, DW_AT_bit_offset(0x00), DW_AT_bit_size(0x08)
    4397                      .dwattr $C$DW$414, DW_AT_data_member_location[DW_OP_plus_uconst 0x0]
    4398                      .dwattr $C$DW$414, DW_AT_accessibility(DW_ACCESS_public)
    4399              $C$DW$415       .dwtag  DW_TAG_member
    4400                      .dwattr $C$DW$415, DW_AT_type(*$C$DW$T$19)
    4401                      .dwattr $C$DW$415, DW_AT_name("rsvd2")
    4402                      .dwattr $C$DW$415, DW_AT_TI_symbol_name("_rsvd2")
    4403                      .dwattr $C$DW$415, DW_AT_bit_offset(0x00), DW_AT_bit_size(0x10)
    4404                      .dwattr $C$DW$415, DW_AT_data_member_location[DW_OP_plus_uconst 0x1]
    4405                      .dwattr $C$DW$415, DW_AT_accessibility(DW_ACCESS_public)
    4406                      .dwendtag $C$DW$T$89
    4407              
    4408              
    4409              $C$DW$T$90      .dwtag  DW_TAG_union_type
    4410                      .dwattr $C$DW$T$90, DW_AT_name("FECC_TEST_REG")
    4411                      .dwattr $C$DW$T$90, DW_AT_byte_size(0x02)
    4412              $C$DW$416       .dwtag  DW_TAG_member
    4413                      .dwattr $C$DW$416, DW_AT_type(*$C$DW$T$27)
    4414                      .dwattr $C$DW$416, DW_AT_name("all")
    4415                      .dwattr $C$DW$416, DW_AT_TI_symbol_name("_all")
    4416                      .dwattr $C$DW$416, DW_AT_data_member_location[DW_OP_plus_uconst 0x0]
    4417                      .dwattr $C$DW$416, DW_AT_accessibility(DW_ACCESS_public)
    4418              $C$DW$417       .dwtag  DW_TAG_member
    4419                      .dwattr $C$DW$417, DW_AT_type(*$C$DW$T$89)
    4420                      .dwattr $C$DW$417, DW_AT_name("bit")
    4421                      .dwattr $C$DW$417, DW_AT_TI_symbol_name("_bit")
    4422                      .dwattr $C$DW$417, DW_AT_data_member_location[DW_OP_plus_uconst 0x0]
    4423                      .dwattr $C$DW$417, DW_AT_accessibility(DW_ACCESS_public)
    4424                      .dwendtag $C$DW$T$90
    4425              
    4426              
    4427              $C$DW$T$93      .dwtag  DW_TAG_structure_type
    4428                      .dwattr $C$DW$T$93, DW_AT_name("FLASH_CTRL_REGS")
TMS320C2000 Assembler PC v6.4.2 Thu Dec 14 15:26:44 2017

Tools Copyright (c) 1996-2015 Texas Instruments Incorporated
F2837xS_SysCtrl.asm                                                  PAGE   85

    4429                      .dwattr $C$DW$T$93, DW_AT_byte_size(0x182)
    4430              $C$DW$418       .dwtag  DW_TAG_member
    4431                      .dwattr $C$DW$418, DW_AT_type(*$C$DW$T$104)
    4432                      .dwattr $C$DW$418, DW_AT_name("FRDCNTL")
    4433                      .dwattr $C$DW$418, DW_AT_TI_symbol_name("_FRDCNTL")
    4434                      .dwattr $C$DW$418, DW_AT_data_member_location[DW_OP_plus_uconst 0x0]
    4435                      .dwattr $C$DW$418, DW_AT_accessibility(DW_ACCESS_public)
    4436              $C$DW$419       .dwtag  DW_TAG_member
    4437                      .dwattr $C$DW$419, DW_AT_type(*$C$DW$T$91)
    4438                      .dwattr $C$DW$419, DW_AT_name("rsvd1")
    4439                      .dwattr $C$DW$419, DW_AT_TI_symbol_name("_rsvd1")
    4440                      .dwattr $C$DW$419, DW_AT_data_member_location[DW_OP_plus_uconst 0x2]
    4441                      .dwattr $C$DW$419, DW_AT_accessibility(DW_ACCESS_public)
    4442              $C$DW$420       .dwtag  DW_TAG_member
    4443                      .dwattr $C$DW$420, DW_AT_type(*$C$DW$T$80)
    4444                      .dwattr $C$DW$420, DW_AT_name("FBAC")
    4445                      .dwattr $C$DW$420, DW_AT_TI_symbol_name("_FBAC")
    4446                      .dwattr $C$DW$420, DW_AT_data_member_location[DW_OP_plus_uconst 0x1e]
    4447                      .dwattr $C$DW$420, DW_AT_accessibility(DW_ACCESS_public)
    4448              $C$DW$421       .dwtag  DW_TAG_member
    4449                      .dwattr $C$DW$421, DW_AT_type(*$C$DW$T$82)
    4450                      .dwattr $C$DW$421, DW_AT_name("FBFALLBACK")
    4451                      .dwattr $C$DW$421, DW_AT_TI_symbol_name("_FBFALLBACK")
    4452                      .dwattr $C$DW$421, DW_AT_data_member_location[DW_OP_plus_uconst 0x20]
    4453                      .dwattr $C$DW$421, DW_AT_accessibility(DW_ACCESS_public)
    4454              $C$DW$422       .dwtag  DW_TAG_member
    4455                      .dwattr $C$DW$422, DW_AT_type(*$C$DW$T$84)
    4456                      .dwattr $C$DW$422, DW_AT_name("FBPRDY")
    4457                      .dwattr $C$DW$422, DW_AT_TI_symbol_name("_FBPRDY")
    4458                      .dwattr $C$DW$422, DW_AT_data_member_location[DW_OP_plus_uconst 0x22]
    4459                      .dwattr $C$DW$422, DW_AT_accessibility(DW_ACCESS_public)
    4460              $C$DW$423       .dwtag  DW_TAG_member
    4461                      .dwattr $C$DW$423, DW_AT_type(*$C$DW$T$100)
    4462                      .dwattr $C$DW$423, DW_AT_name("FPAC1")
    4463                      .dwattr $C$DW$423, DW_AT_TI_symbol_name("_FPAC1")
    4464                      .dwattr $C$DW$423, DW_AT_data_member_location[DW_OP_plus_uconst 0x24]
    4465                      .dwattr $C$DW$423, DW_AT_accessibility(DW_ACCESS_public)
    4466              $C$DW$424       .dwtag  DW_TAG_member
    4467                      .dwattr $C$DW$424, DW_AT_type(*$C$DW$T$102)
    4468                      .dwattr $C$DW$424, DW_AT_name("FPAC2")
    4469                      .dwattr $C$DW$424, DW_AT_TI_symbol_name("_FPAC2")
    4470                      .dwattr $C$DW$424, DW_AT_data_member_location[DW_OP_plus_uconst 0x26]
    4471                      .dwattr $C$DW$424, DW_AT_accessibility(DW_ACCESS_public)
    4472              $C$DW$425       .dwtag  DW_TAG_member
    4473                      .dwattr $C$DW$425, DW_AT_type(*$C$DW$T$96)
    4474                      .dwattr $C$DW$425, DW_AT_name("FMAC")
    4475                      .dwattr $C$DW$425, DW_AT_TI_symbol_name("_FMAC")
    4476                      .dwattr $C$DW$425, DW_AT_data_member_location[DW_OP_plus_uconst 0x28]
    4477                      .dwattr $C$DW$425, DW_AT_accessibility(DW_ACCESS_public)
    4478              $C$DW$426       .dwtag  DW_TAG_member
    4479                      .dwattr $C$DW$426, DW_AT_type(*$C$DW$T$98)
    4480                      .dwattr $C$DW$426, DW_AT_name("FMSTAT")
    4481                      .dwattr $C$DW$426, DW_AT_TI_symbol_name("_FMSTAT")
    4482                      .dwattr $C$DW$426, DW_AT_data_member_location[DW_OP_plus_uconst 0x2a]
    4483                      .dwattr $C$DW$426, DW_AT_accessibility(DW_ACCESS_public)
TMS320C2000 Assembler PC v6.4.2 Thu Dec 14 15:26:44 2017

Tools Copyright (c) 1996-2015 Texas Instruments Incorporated
F2837xS_SysCtrl.asm                                                  PAGE   86

    4484              $C$DW$427       .dwtag  DW_TAG_member
    4485                      .dwattr $C$DW$427, DW_AT_type(*$C$DW$T$92)
    4486                      .dwattr $C$DW$427, DW_AT_name("rsvd2")
    4487                      .dwattr $C$DW$427, DW_AT_TI_symbol_name("_rsvd2")
    4488                      .dwattr $C$DW$427, DW_AT_data_member_location[DW_OP_plus_uconst 0x2c]
    4489                      .dwattr $C$DW$427, DW_AT_accessibility(DW_ACCESS_public)
    4490              $C$DW$428       .dwtag  DW_TAG_member
    4491                      .dwattr $C$DW$428, DW_AT_type(*$C$DW$T$106)
    4492                      .dwattr $C$DW$428, DW_AT_name("FRD_INTF_CTRL")
    4493                      .dwattr $C$DW$428, DW_AT_TI_symbol_name("_FRD_INTF_CTRL")
    4494                      .dwattr $C$DW$428, DW_AT_data_member_location[DW_OP_plus_uconst 0x180]
    4495                      .dwattr $C$DW$428, DW_AT_accessibility(DW_ACCESS_public)
    4496                      .dwendtag $C$DW$T$93
    4497              
    4498              $C$DW$429       .dwtag  DW_TAG_TI_far_type
    4499                      .dwattr $C$DW$429, DW_AT_type(*$C$DW$T$93)
    4500              $C$DW$T$249     .dwtag  DW_TAG_volatile_type
    4501                      .dwattr $C$DW$T$249, DW_AT_type(*$C$DW$429)
    4502              
    4503              $C$DW$T$94      .dwtag  DW_TAG_structure_type
    4504                      .dwattr $C$DW$T$94, DW_AT_name("FLASH_ECC_REGS")
    4505                      .dwattr $C$DW$T$94, DW_AT_byte_size(0x28)
    4506              $C$DW$430       .dwtag  DW_TAG_member
    4507                      .dwattr $C$DW$430, DW_AT_type(*$C$DW$T$62)
    4508                      .dwattr $C$DW$430, DW_AT_name("ECC_ENABLE")
    4509                      .dwattr $C$DW$430, DW_AT_TI_symbol_name("_ECC_ENABLE")
    4510                      .dwattr $C$DW$430, DW_AT_data_member_location[DW_OP_plus_uconst 0x0]
    4511                      .dwattr $C$DW$430, DW_AT_accessibility(DW_ACCESS_public)
    4512              $C$DW$431       .dwtag  DW_TAG_member
    4513                      .dwattr $C$DW$431, DW_AT_type(*$C$DW$T$27)
    4514                      .dwattr $C$DW$431, DW_AT_name("SINGLE_ERR_ADDR_LOW")
    4515                      .dwattr $C$DW$431, DW_AT_TI_symbol_name("_SINGLE_ERR_ADDR_LOW")
    4516                      .dwattr $C$DW$431, DW_AT_data_member_location[DW_OP_plus_uconst 0x2]
    4517                      .dwattr $C$DW$431, DW_AT_accessibility(DW_ACCESS_public)
    4518              $C$DW$432       .dwtag  DW_TAG_member
    4519                      .dwattr $C$DW$432, DW_AT_type(*$C$DW$T$27)
    4520                      .dwattr $C$DW$432, DW_AT_name("SINGLE_ERR_ADDR_HIGH")
    4521                      .dwattr $C$DW$432, DW_AT_TI_symbol_name("_SINGLE_ERR_ADDR_HIGH")
    4522                      .dwattr $C$DW$432, DW_AT_data_member_location[DW_OP_plus_uconst 0x4]
    4523                      .dwattr $C$DW$432, DW_AT_accessibility(DW_ACCESS_public)
    4524              $C$DW$433       .dwtag  DW_TAG_member
    4525                      .dwattr $C$DW$433, DW_AT_type(*$C$DW$T$27)
    4526                      .dwattr $C$DW$433, DW_AT_name("UNC_ERR_ADDR_LOW")
    4527                      .dwattr $C$DW$433, DW_AT_TI_symbol_name("_UNC_ERR_ADDR_LOW")
    4528                      .dwattr $C$DW$433, DW_AT_data_member_location[DW_OP_plus_uconst 0x6]
    4529                      .dwattr $C$DW$433, DW_AT_accessibility(DW_ACCESS_public)
    4530              $C$DW$434       .dwtag  DW_TAG_member
    4531                      .dwattr $C$DW$434, DW_AT_type(*$C$DW$T$27)
    4532                      .dwattr $C$DW$434, DW_AT_name("UNC_ERR_ADDR_HIGH")
    4533                      .dwattr $C$DW$434, DW_AT_TI_symbol_name("_UNC_ERR_ADDR_HIGH")
    4534                      .dwattr $C$DW$434, DW_AT_data_member_location[DW_OP_plus_uconst 0x8]
    4535                      .dwattr $C$DW$434, DW_AT_accessibility(DW_ACCESS_public)
    4536              $C$DW$435       .dwtag  DW_TAG_member
    4537                      .dwattr $C$DW$435, DW_AT_type(*$C$DW$T$74)
    4538                      .dwattr $C$DW$435, DW_AT_name("ERR_STATUS")
TMS320C2000 Assembler PC v6.4.2 Thu Dec 14 15:26:44 2017

Tools Copyright (c) 1996-2015 Texas Instruments Incorporated
F2837xS_SysCtrl.asm                                                  PAGE   87

    4539                      .dwattr $C$DW$435, DW_AT_TI_symbol_name("_ERR_STATUS")
    4540                      .dwattr $C$DW$435, DW_AT_data_member_location[DW_OP_plus_uconst 0xa]
    4541                      .dwattr $C$DW$435, DW_AT_accessibility(DW_ACCESS_public)
    4542              $C$DW$436       .dwtag  DW_TAG_member
    4543                      .dwattr $C$DW$436, DW_AT_type(*$C$DW$T$70)
    4544                      .dwattr $C$DW$436, DW_AT_name("ERR_POS")
    4545                      .dwattr $C$DW$436, DW_AT_TI_symbol_name("_ERR_POS")
    4546                      .dwattr $C$DW$436, DW_AT_data_member_location[DW_OP_plus_uconst 0xc]
    4547                      .dwattr $C$DW$436, DW_AT_accessibility(DW_ACCESS_public)
    4548              $C$DW$437       .dwtag  DW_TAG_member
    4549                      .dwattr $C$DW$437, DW_AT_type(*$C$DW$T$73)
    4550                      .dwattr $C$DW$437, DW_AT_name("ERR_STATUS_CLR")
    4551                      .dwattr $C$DW$437, DW_AT_TI_symbol_name("_ERR_STATUS_CLR")
    4552                      .dwattr $C$DW$437, DW_AT_data_member_location[DW_OP_plus_uconst 0xe]
    4553                      .dwattr $C$DW$437, DW_AT_accessibility(DW_ACCESS_public)
    4554              $C$DW$438       .dwtag  DW_TAG_member
    4555                      .dwattr $C$DW$438, DW_AT_type(*$C$DW$T$64)
    4556                      .dwattr $C$DW$438, DW_AT_name("ERR_CNT")
    4557                      .dwattr $C$DW$438, DW_AT_TI_symbol_name("_ERR_CNT")
    4558                      .dwattr $C$DW$438, DW_AT_data_member_location[DW_OP_plus_uconst 0x10]
    4559                      .dwattr $C$DW$438, DW_AT_accessibility(DW_ACCESS_public)
    4560              $C$DW$439       .dwtag  DW_TAG_member
    4561                      .dwattr $C$DW$439, DW_AT_type(*$C$DW$T$76)
    4562                      .dwattr $C$DW$439, DW_AT_name("ERR_THRESHOLD")
    4563                      .dwattr $C$DW$439, DW_AT_TI_symbol_name("_ERR_THRESHOLD")
    4564                      .dwattr $C$DW$439, DW_AT_data_member_location[DW_OP_plus_uconst 0x12]
    4565                      .dwattr $C$DW$439, DW_AT_accessibility(DW_ACCESS_public)
    4566              $C$DW$440       .dwtag  DW_TAG_member
    4567                      .dwattr $C$DW$440, DW_AT_type(*$C$DW$T$68)
    4568                      .dwattr $C$DW$440, DW_AT_name("ERR_INTFLG")
    4569                      .dwattr $C$DW$440, DW_AT_TI_symbol_name("_ERR_INTFLG")
    4570                      .dwattr $C$DW$440, DW_AT_data_member_location[DW_OP_plus_uconst 0x14]
    4571                      .dwattr $C$DW$440, DW_AT_accessibility(DW_ACCESS_public)
    4572              $C$DW$441       .dwtag  DW_TAG_member
    4573                      .dwattr $C$DW$441, DW_AT_type(*$C$DW$T$66)
    4574                      .dwattr $C$DW$441, DW_AT_name("ERR_INTCLR")
    4575                      .dwattr $C$DW$441, DW_AT_TI_symbol_name("_ERR_INTCLR")
    4576                      .dwattr $C$DW$441, DW_AT_data_member_location[DW_OP_plus_uconst 0x16]
    4577                      .dwattr $C$DW$441, DW_AT_accessibility(DW_ACCESS_public)
    4578              $C$DW$442       .dwtag  DW_TAG_member
    4579                      .dwattr $C$DW$442, DW_AT_type(*$C$DW$T$27)
    4580                      .dwattr $C$DW$442, DW_AT_name("FDATAH_TEST")
    4581                      .dwattr $C$DW$442, DW_AT_TI_symbol_name("_FDATAH_TEST")
    4582                      .dwattr $C$DW$442, DW_AT_data_member_location[DW_OP_plus_uconst 0x18]
    4583                      .dwattr $C$DW$442, DW_AT_accessibility(DW_ACCESS_public)
    4584              $C$DW$443       .dwtag  DW_TAG_member
    4585                      .dwattr $C$DW$443, DW_AT_type(*$C$DW$T$27)
    4586                      .dwattr $C$DW$443, DW_AT_name("FDATAL_TEST")
    4587                      .dwattr $C$DW$443, DW_AT_TI_symbol_name("_FDATAL_TEST")
    4588                      .dwattr $C$DW$443, DW_AT_data_member_location[DW_OP_plus_uconst 0x1a]
    4589                      .dwattr $C$DW$443, DW_AT_accessibility(DW_ACCESS_public)
    4590              $C$DW$444       .dwtag  DW_TAG_member
    4591                      .dwattr $C$DW$444, DW_AT_type(*$C$DW$T$78)
    4592                      .dwattr $C$DW$444, DW_AT_name("FADDR_TEST")
    4593                      .dwattr $C$DW$444, DW_AT_TI_symbol_name("_FADDR_TEST")
TMS320C2000 Assembler PC v6.4.2 Thu Dec 14 15:26:44 2017

Tools Copyright (c) 1996-2015 Texas Instruments Incorporated
F2837xS_SysCtrl.asm                                                  PAGE   88

    4594                      .dwattr $C$DW$444, DW_AT_data_member_location[DW_OP_plus_uconst 0x1c]
    4595                      .dwattr $C$DW$444, DW_AT_accessibility(DW_ACCESS_public)
    4596              $C$DW$445       .dwtag  DW_TAG_member
    4597                      .dwattr $C$DW$445, DW_AT_type(*$C$DW$T$90)
    4598                      .dwattr $C$DW$445, DW_AT_name("FECC_TEST")
    4599                      .dwattr $C$DW$445, DW_AT_TI_symbol_name("_FECC_TEST")
    4600                      .dwattr $C$DW$445, DW_AT_data_member_location[DW_OP_plus_uconst 0x1e]
    4601                      .dwattr $C$DW$445, DW_AT_accessibility(DW_ACCESS_public)
    4602              $C$DW$446       .dwtag  DW_TAG_member
    4603                      .dwattr $C$DW$446, DW_AT_type(*$C$DW$T$86)
    4604                      .dwattr $C$DW$446, DW_AT_name("FECC_CTRL")
    4605                      .dwattr $C$DW$446, DW_AT_TI_symbol_name("_FECC_CTRL")
    4606                      .dwattr $C$DW$446, DW_AT_data_member_location[DW_OP_plus_uconst 0x20]
    4607                      .dwattr $C$DW$446, DW_AT_accessibility(DW_ACCESS_public)
    4608              $C$DW$447       .dwtag  DW_TAG_member
    4609                      .dwattr $C$DW$447, DW_AT_type(*$C$DW$T$27)
    4610                      .dwattr $C$DW$447, DW_AT_name("FOUTH_TEST")
    4611                      .dwattr $C$DW$447, DW_AT_TI_symbol_name("_FOUTH_TEST")
    4612                      .dwattr $C$DW$447, DW_AT_data_member_location[DW_OP_plus_uconst 0x22]
    4613                      .dwattr $C$DW$447, DW_AT_accessibility(DW_ACCESS_public)
    4614              $C$DW$448       .dwtag  DW_TAG_member
    4615                      .dwattr $C$DW$448, DW_AT_type(*$C$DW$T$27)
    4616                      .dwattr $C$DW$448, DW_AT_name("FOUTL_TEST")
    4617                      .dwattr $C$DW$448, DW_AT_TI_symbol_name("_FOUTL_TEST")
    4618                      .dwattr $C$DW$448, DW_AT_data_member_location[DW_OP_plus_uconst 0x24]
    4619                      .dwattr $C$DW$448, DW_AT_accessibility(DW_ACCESS_public)
    4620              $C$DW$449       .dwtag  DW_TAG_member
    4621                      .dwattr $C$DW$449, DW_AT_type(*$C$DW$T$88)
    4622                      .dwattr $C$DW$449, DW_AT_name("FECC_STATUS")
    4623                      .dwattr $C$DW$449, DW_AT_TI_symbol_name("_FECC_STATUS")
    4624                      .dwattr $C$DW$449, DW_AT_data_member_location[DW_OP_plus_uconst 0x26]
    4625                      .dwattr $C$DW$449, DW_AT_accessibility(DW_ACCESS_public)
    4626                      .dwendtag $C$DW$T$94
    4627              
    4628              $C$DW$450       .dwtag  DW_TAG_TI_far_type
    4629                      .dwattr $C$DW$450, DW_AT_type(*$C$DW$T$94)
    4630              $C$DW$T$250     .dwtag  DW_TAG_volatile_type
    4631                      .dwattr $C$DW$T$250, DW_AT_type(*$C$DW$450)
    4632              
    4633              $C$DW$T$95      .dwtag  DW_TAG_structure_type
    4634                      .dwattr $C$DW$T$95, DW_AT_name("FMAC_BITS")
    4635                      .dwattr $C$DW$T$95, DW_AT_byte_size(0x02)
    4636              $C$DW$451       .dwtag  DW_TAG_member
    4637                      .dwattr $C$DW$451, DW_AT_type(*$C$DW$T$19)
    4638                      .dwattr $C$DW$451, DW_AT_name("BANK")
    4639                      .dwattr $C$DW$451, DW_AT_TI_symbol_name("_BANK")
    4640                      .dwattr $C$DW$451, DW_AT_bit_offset(0x0d), DW_AT_bit_size(0x03)
    4641                      .dwattr $C$DW$451, DW_AT_data_member_location[DW_OP_plus_uconst 0x0]
    4642                      .dwattr $C$DW$451, DW_AT_accessibility(DW_ACCESS_public)
    4643              $C$DW$452       .dwtag  DW_TAG_member
    4644                      .dwattr $C$DW$452, DW_AT_type(*$C$DW$T$19)
    4645                      .dwattr $C$DW$452, DW_AT_name("rsvd1")
    4646                      .dwattr $C$DW$452, DW_AT_TI_symbol_name("_rsvd1")
    4647                      .dwattr $C$DW$452, DW_AT_bit_offset(0x00), DW_AT_bit_size(0x0d)
    4648                      .dwattr $C$DW$452, DW_AT_data_member_location[DW_OP_plus_uconst 0x0]
TMS320C2000 Assembler PC v6.4.2 Thu Dec 14 15:26:44 2017

Tools Copyright (c) 1996-2015 Texas Instruments Incorporated
F2837xS_SysCtrl.asm                                                  PAGE   89

    4649                      .dwattr $C$DW$452, DW_AT_accessibility(DW_ACCESS_public)
    4650              $C$DW$453       .dwtag  DW_TAG_member
    4651                      .dwattr $C$DW$453, DW_AT_type(*$C$DW$T$19)
    4652                      .dwattr $C$DW$453, DW_AT_name("rsvd2")
    4653                      .dwattr $C$DW$453, DW_AT_TI_symbol_name("_rsvd2")
    4654                      .dwattr $C$DW$453, DW_AT_bit_offset(0x00), DW_AT_bit_size(0x10)
    4655                      .dwattr $C$DW$453, DW_AT_data_member_location[DW_OP_plus_uconst 0x1]
    4656                      .dwattr $C$DW$453, DW_AT_accessibility(DW_ACCESS_public)
    4657                      .dwendtag $C$DW$T$95
    4658              
    4659              
    4660              $C$DW$T$96      .dwtag  DW_TAG_union_type
    4661                      .dwattr $C$DW$T$96, DW_AT_name("FMAC_REG")
    4662                      .dwattr $C$DW$T$96, DW_AT_byte_size(0x02)
    4663              $C$DW$454       .dwtag  DW_TAG_member
    4664                      .dwattr $C$DW$454, DW_AT_type(*$C$DW$T$27)
    4665                      .dwattr $C$DW$454, DW_AT_name("all")
    4666                      .dwattr $C$DW$454, DW_AT_TI_symbol_name("_all")
    4667                      .dwattr $C$DW$454, DW_AT_data_member_location[DW_OP_plus_uconst 0x0]
    4668                      .dwattr $C$DW$454, DW_AT_accessibility(DW_ACCESS_public)
    4669              $C$DW$455       .dwtag  DW_TAG_member
    4670                      .dwattr $C$DW$455, DW_AT_type(*$C$DW$T$95)
    4671                      .dwattr $C$DW$455, DW_AT_name("bit")
    4672                      .dwattr $C$DW$455, DW_AT_TI_symbol_name("_bit")
    4673                      .dwattr $C$DW$455, DW_AT_data_member_location[DW_OP_plus_uconst 0x0]
    4674                      .dwattr $C$DW$455, DW_AT_accessibility(DW_ACCESS_public)
    4675                      .dwendtag $C$DW$T$96
    4676              
    4677              
    4678              $C$DW$T$97      .dwtag  DW_TAG_structure_type
    4679                      .dwattr $C$DW$T$97, DW_AT_name("FMSTAT_BITS")
    4680                      .dwattr $C$DW$T$97, DW_AT_byte_size(0x02)
    4681              $C$DW$456       .dwtag  DW_TAG_member
    4682                      .dwattr $C$DW$456, DW_AT_type(*$C$DW$T$19)
    4683                      .dwattr $C$DW$456, DW_AT_name("rsvd1")
    4684                      .dwattr $C$DW$456, DW_AT_TI_symbol_name("_rsvd1")
    4685                      .dwattr $C$DW$456, DW_AT_bit_offset(0x0f), DW_AT_bit_size(0x01)
    4686                      .dwattr $C$DW$456, DW_AT_data_member_location[DW_OP_plus_uconst 0x0]
    4687                      .dwattr $C$DW$456, DW_AT_accessibility(DW_ACCESS_public)
    4688              $C$DW$457       .dwtag  DW_TAG_member
    4689                      .dwattr $C$DW$457, DW_AT_type(*$C$DW$T$19)
    4690                      .dwattr $C$DW$457, DW_AT_name("rsvd2")
    4691                      .dwattr $C$DW$457, DW_AT_TI_symbol_name("_rsvd2")
    4692                      .dwattr $C$DW$457, DW_AT_bit_offset(0x0e), DW_AT_bit_size(0x01)
    4693                      .dwattr $C$DW$457, DW_AT_data_member_location[DW_OP_plus_uconst 0x0]
    4694                      .dwattr $C$DW$457, DW_AT_accessibility(DW_ACCESS_public)
    4695              $C$DW$458       .dwtag  DW_TAG_member
    4696                      .dwattr $C$DW$458, DW_AT_type(*$C$DW$T$19)
    4697                      .dwattr $C$DW$458, DW_AT_name("rsvd3")
    4698                      .dwattr $C$DW$458, DW_AT_TI_symbol_name("_rsvd3")
    4699                      .dwattr $C$DW$458, DW_AT_bit_offset(0x0d), DW_AT_bit_size(0x01)
    4700                      .dwattr $C$DW$458, DW_AT_data_member_location[DW_OP_plus_uconst 0x0]
    4701                      .dwattr $C$DW$458, DW_AT_accessibility(DW_ACCESS_public)
    4702              $C$DW$459       .dwtag  DW_TAG_member
    4703                      .dwattr $C$DW$459, DW_AT_type(*$C$DW$T$19)
TMS320C2000 Assembler PC v6.4.2 Thu Dec 14 15:26:44 2017

Tools Copyright (c) 1996-2015 Texas Instruments Incorporated
F2837xS_SysCtrl.asm                                                  PAGE   90

    4704                      .dwattr $C$DW$459, DW_AT_name("VOLTSTAT")
    4705                      .dwattr $C$DW$459, DW_AT_TI_symbol_name("_VOLTSTAT")
    4706                      .dwattr $C$DW$459, DW_AT_bit_offset(0x0c), DW_AT_bit_size(0x01)
    4707                      .dwattr $C$DW$459, DW_AT_data_member_location[DW_OP_plus_uconst 0x0]
    4708                      .dwattr $C$DW$459, DW_AT_accessibility(DW_ACCESS_public)
    4709              $C$DW$460       .dwtag  DW_TAG_member
    4710                      .dwattr $C$DW$460, DW_AT_type(*$C$DW$T$19)
    4711                      .dwattr $C$DW$460, DW_AT_name("CSTAT")
    4712                      .dwattr $C$DW$460, DW_AT_TI_symbol_name("_CSTAT")
    4713                      .dwattr $C$DW$460, DW_AT_bit_offset(0x0b), DW_AT_bit_size(0x01)
    4714                      .dwattr $C$DW$460, DW_AT_data_member_location[DW_OP_plus_uconst 0x0]
    4715                      .dwattr $C$DW$460, DW_AT_accessibility(DW_ACCESS_public)
    4716              $C$DW$461       .dwtag  DW_TAG_member
    4717                      .dwattr $C$DW$461, DW_AT_type(*$C$DW$T$19)
    4718                      .dwattr $C$DW$461, DW_AT_name("INVDAT")
    4719                      .dwattr $C$DW$461, DW_AT_TI_symbol_name("_INVDAT")
    4720                      .dwattr $C$DW$461, DW_AT_bit_offset(0x0a), DW_AT_bit_size(0x01)
    4721                      .dwattr $C$DW$461, DW_AT_data_member_location[DW_OP_plus_uconst 0x0]
    4722                      .dwattr $C$DW$461, DW_AT_accessibility(DW_ACCESS_public)
    4723              $C$DW$462       .dwtag  DW_TAG_member
    4724                      .dwattr $C$DW$462, DW_AT_type(*$C$DW$T$19)
    4725                      .dwattr $C$DW$462, DW_AT_name("PGM")
    4726                      .dwattr $C$DW$462, DW_AT_TI_symbol_name("_PGM")
    4727                      .dwattr $C$DW$462, DW_AT_bit_offset(0x09), DW_AT_bit_size(0x01)
    4728                      .dwattr $C$DW$462, DW_AT_data_member_location[DW_OP_plus_uconst 0x0]
    4729                      .dwattr $C$DW$462, DW_AT_accessibility(DW_ACCESS_public)
    4730              $C$DW$463       .dwtag  DW_TAG_member
    4731                      .dwattr $C$DW$463, DW_AT_type(*$C$DW$T$19)
    4732                      .dwattr $C$DW$463, DW_AT_name("ERS")
    4733                      .dwattr $C$DW$463, DW_AT_TI_symbol_name("_ERS")
    4734                      .dwattr $C$DW$463, DW_AT_bit_offset(0x08), DW_AT_bit_size(0x01)
    4735                      .dwattr $C$DW$463, DW_AT_data_member_location[DW_OP_plus_uconst 0x0]
    4736                      .dwattr $C$DW$463, DW_AT_accessibility(DW_ACCESS_public)
    4737              $C$DW$464       .dwtag  DW_TAG_member
    4738                      .dwattr $C$DW$464, DW_AT_type(*$C$DW$T$19)
    4739                      .dwattr $C$DW$464, DW_AT_name("BUSY")
    4740                      .dwattr $C$DW$464, DW_AT_TI_symbol_name("_BUSY")
    4741                      .dwattr $C$DW$464, DW_AT_bit_offset(0x07), DW_AT_bit_size(0x01)
    4742                      .dwattr $C$DW$464, DW_AT_data_member_location[DW_OP_plus_uconst 0x0]
    4743                      .dwattr $C$DW$464, DW_AT_accessibility(DW_ACCESS_public)
    4744              $C$DW$465       .dwtag  DW_TAG_member
    4745                      .dwattr $C$DW$465, DW_AT_type(*$C$DW$T$19)
    4746                      .dwattr $C$DW$465, DW_AT_name("rsvd4")
    4747                      .dwattr $C$DW$465, DW_AT_TI_symbol_name("_rsvd4")
    4748                      .dwattr $C$DW$465, DW_AT_bit_offset(0x06), DW_AT_bit_size(0x01)
    4749                      .dwattr $C$DW$465, DW_AT_data_member_location[DW_OP_plus_uconst 0x0]
    4750                      .dwattr $C$DW$465, DW_AT_accessibility(DW_ACCESS_public)
    4751              $C$DW$466       .dwtag  DW_TAG_member
    4752                      .dwattr $C$DW$466, DW_AT_type(*$C$DW$T$19)
    4753                      .dwattr $C$DW$466, DW_AT_name("EV")
    4754                      .dwattr $C$DW$466, DW_AT_TI_symbol_name("_EV")
    4755                      .dwattr $C$DW$466, DW_AT_bit_offset(0x05), DW_AT_bit_size(0x01)
    4756                      .dwattr $C$DW$466, DW_AT_data_member_location[DW_OP_plus_uconst 0x0]
    4757                      .dwattr $C$DW$466, DW_AT_accessibility(DW_ACCESS_public)
    4758              $C$DW$467       .dwtag  DW_TAG_member
TMS320C2000 Assembler PC v6.4.2 Thu Dec 14 15:26:44 2017

Tools Copyright (c) 1996-2015 Texas Instruments Incorporated
F2837xS_SysCtrl.asm                                                  PAGE   91

    4759                      .dwattr $C$DW$467, DW_AT_type(*$C$DW$T$19)
    4760                      .dwattr $C$DW$467, DW_AT_name("rsvd5")
    4761                      .dwattr $C$DW$467, DW_AT_TI_symbol_name("_rsvd5")
    4762                      .dwattr $C$DW$467, DW_AT_bit_offset(0x04), DW_AT_bit_size(0x01)
    4763                      .dwattr $C$DW$467, DW_AT_data_member_location[DW_OP_plus_uconst 0x0]
    4764                      .dwattr $C$DW$467, DW_AT_accessibility(DW_ACCESS_public)
    4765              $C$DW$468       .dwtag  DW_TAG_member
    4766                      .dwattr $C$DW$468, DW_AT_type(*$C$DW$T$19)
    4767                      .dwattr $C$DW$468, DW_AT_name("PGV")
    4768                      .dwattr $C$DW$468, DW_AT_TI_symbol_name("_PGV")
    4769                      .dwattr $C$DW$468, DW_AT_bit_offset(0x03), DW_AT_bit_size(0x01)
    4770                      .dwattr $C$DW$468, DW_AT_data_member_location[DW_OP_plus_uconst 0x0]
    4771                      .dwattr $C$DW$468, DW_AT_accessibility(DW_ACCESS_public)
    4772              $C$DW$469       .dwtag  DW_TAG_member
    4773                      .dwattr $C$DW$469, DW_AT_type(*$C$DW$T$19)
    4774                      .dwattr $C$DW$469, DW_AT_name("rsvd6")
    4775                      .dwattr $C$DW$469, DW_AT_TI_symbol_name("_rsvd6")
    4776                      .dwattr $C$DW$469, DW_AT_bit_offset(0x02), DW_AT_bit_size(0x01)
    4777                      .dwattr $C$DW$469, DW_AT_data_member_location[DW_OP_plus_uconst 0x0]
    4778                      .dwattr $C$DW$469, DW_AT_accessibility(DW_ACCESS_public)
    4779              $C$DW$470       .dwtag  DW_TAG_member
    4780                      .dwattr $C$DW$470, DW_AT_type(*$C$DW$T$19)
    4781                      .dwattr $C$DW$470, DW_AT_name("ILA")
    4782                      .dwattr $C$DW$470, DW_AT_TI_symbol_name("_ILA")
    4783                      .dwattr $C$DW$470, DW_AT_bit_offset(0x01), DW_AT_bit_size(0x01)
    4784                      .dwattr $C$DW$470, DW_AT_data_member_location[DW_OP_plus_uconst 0x0]
    4785                      .dwattr $C$DW$470, DW_AT_accessibility(DW_ACCESS_public)
    4786              $C$DW$471       .dwtag  DW_TAG_member
    4787                      .dwattr $C$DW$471, DW_AT_type(*$C$DW$T$19)
    4788                      .dwattr $C$DW$471, DW_AT_name("rsvd7")
    4789                      .dwattr $C$DW$471, DW_AT_TI_symbol_name("_rsvd7")
    4790                      .dwattr $C$DW$471, DW_AT_bit_offset(0x00), DW_AT_bit_size(0x01)
    4791                      .dwattr $C$DW$471, DW_AT_data_member_location[DW_OP_plus_uconst 0x0]
    4792                      .dwattr $C$DW$471, DW_AT_accessibility(DW_ACCESS_public)
    4793              $C$DW$472       .dwtag  DW_TAG_member
    4794                      .dwattr $C$DW$472, DW_AT_type(*$C$DW$T$19)
    4795                      .dwattr $C$DW$472, DW_AT_name("rsvd8")
    4796                      .dwattr $C$DW$472, DW_AT_TI_symbol_name("_rsvd8")
    4797                      .dwattr $C$DW$472, DW_AT_bit_offset(0x0f), DW_AT_bit_size(0x01)
    4798                      .dwattr $C$DW$472, DW_AT_data_member_location[DW_OP_plus_uconst 0x1]
    4799                      .dwattr $C$DW$472, DW_AT_accessibility(DW_ACCESS_public)
    4800              $C$DW$473       .dwtag  DW_TAG_member
    4801                      .dwattr $C$DW$473, DW_AT_type(*$C$DW$T$19)
    4802                      .dwattr $C$DW$473, DW_AT_name("rsvd9")
    4803                      .dwattr $C$DW$473, DW_AT_TI_symbol_name("_rsvd9")
    4804                      .dwattr $C$DW$473, DW_AT_bit_offset(0x0e), DW_AT_bit_size(0x01)
    4805                      .dwattr $C$DW$473, DW_AT_data_member_location[DW_OP_plus_uconst 0x1]
    4806                      .dwattr $C$DW$473, DW_AT_accessibility(DW_ACCESS_public)
    4807              $C$DW$474       .dwtag  DW_TAG_member
    4808                      .dwattr $C$DW$474, DW_AT_type(*$C$DW$T$19)
    4809                      .dwattr $C$DW$474, DW_AT_name("rsvd10")
    4810                      .dwattr $C$DW$474, DW_AT_TI_symbol_name("_rsvd10")
    4811                      .dwattr $C$DW$474, DW_AT_bit_offset(0x00), DW_AT_bit_size(0x0e)
    4812                      .dwattr $C$DW$474, DW_AT_data_member_location[DW_OP_plus_uconst 0x1]
    4813                      .dwattr $C$DW$474, DW_AT_accessibility(DW_ACCESS_public)
TMS320C2000 Assembler PC v6.4.2 Thu Dec 14 15:26:44 2017

Tools Copyright (c) 1996-2015 Texas Instruments Incorporated
F2837xS_SysCtrl.asm                                                  PAGE   92

    4814                      .dwendtag $C$DW$T$97
    4815              
    4816              
    4817              $C$DW$T$98      .dwtag  DW_TAG_union_type
    4818                      .dwattr $C$DW$T$98, DW_AT_name("FMSTAT_REG")
    4819                      .dwattr $C$DW$T$98, DW_AT_byte_size(0x02)
    4820              $C$DW$475       .dwtag  DW_TAG_member
    4821                      .dwattr $C$DW$475, DW_AT_type(*$C$DW$T$27)
    4822                      .dwattr $C$DW$475, DW_AT_name("all")
    4823                      .dwattr $C$DW$475, DW_AT_TI_symbol_name("_all")
    4824                      .dwattr $C$DW$475, DW_AT_data_member_location[DW_OP_plus_uconst 0x0]
    4825                      .dwattr $C$DW$475, DW_AT_accessibility(DW_ACCESS_public)
    4826              $C$DW$476       .dwtag  DW_TAG_member
    4827                      .dwattr $C$DW$476, DW_AT_type(*$C$DW$T$97)
    4828                      .dwattr $C$DW$476, DW_AT_name("bit")
    4829                      .dwattr $C$DW$476, DW_AT_TI_symbol_name("_bit")
    4830                      .dwattr $C$DW$476, DW_AT_data_member_location[DW_OP_plus_uconst 0x0]
    4831                      .dwattr $C$DW$476, DW_AT_accessibility(DW_ACCESS_public)
    4832                      .dwendtag $C$DW$T$98
    4833              
    4834              
    4835              $C$DW$T$99      .dwtag  DW_TAG_structure_type
    4836                      .dwattr $C$DW$T$99, DW_AT_name("FPAC1_BITS")
    4837                      .dwattr $C$DW$T$99, DW_AT_byte_size(0x02)
    4838              $C$DW$477       .dwtag  DW_TAG_member
    4839                      .dwattr $C$DW$477, DW_AT_type(*$C$DW$T$19)
    4840                      .dwattr $C$DW$477, DW_AT_name("PMPPWR")
    4841                      .dwattr $C$DW$477, DW_AT_TI_symbol_name("_PMPPWR")
    4842                      .dwattr $C$DW$477, DW_AT_bit_offset(0x0f), DW_AT_bit_size(0x01)
    4843                      .dwattr $C$DW$477, DW_AT_data_member_location[DW_OP_plus_uconst 0x0]
    4844                      .dwattr $C$DW$477, DW_AT_accessibility(DW_ACCESS_public)
    4845              $C$DW$478       .dwtag  DW_TAG_member
    4846                      .dwattr $C$DW$478, DW_AT_type(*$C$DW$T$19)
    4847                      .dwattr $C$DW$478, DW_AT_name("rsvd1")
    4848                      .dwattr $C$DW$478, DW_AT_TI_symbol_name("_rsvd1")
    4849                      .dwattr $C$DW$478, DW_AT_bit_offset(0x00), DW_AT_bit_size(0x0f)
    4850                      .dwattr $C$DW$478, DW_AT_data_member_location[DW_OP_plus_uconst 0x0]
    4851                      .dwattr $C$DW$478, DW_AT_accessibility(DW_ACCESS_public)
    4852              $C$DW$479       .dwtag  DW_TAG_member
    4853                      .dwattr $C$DW$479, DW_AT_type(*$C$DW$T$19)
    4854                      .dwattr $C$DW$479, DW_AT_name("PSLEEP")
    4855                      .dwattr $C$DW$479, DW_AT_TI_symbol_name("_PSLEEP")
    4856                      .dwattr $C$DW$479, DW_AT_bit_offset(0x04), DW_AT_bit_size(0x0c)
    4857                      .dwattr $C$DW$479, DW_AT_data_member_location[DW_OP_plus_uconst 0x1]
    4858                      .dwattr $C$DW$479, DW_AT_accessibility(DW_ACCESS_public)
    4859              $C$DW$480       .dwtag  DW_TAG_member
    4860                      .dwattr $C$DW$480, DW_AT_type(*$C$DW$T$19)
    4861                      .dwattr $C$DW$480, DW_AT_name("rsvd2")
    4862                      .dwattr $C$DW$480, DW_AT_TI_symbol_name("_rsvd2")
    4863                      .dwattr $C$DW$480, DW_AT_bit_offset(0x00), DW_AT_bit_size(0x04)
    4864                      .dwattr $C$DW$480, DW_AT_data_member_location[DW_OP_plus_uconst 0x1]
    4865                      .dwattr $C$DW$480, DW_AT_accessibility(DW_ACCESS_public)
    4866                      .dwendtag $C$DW$T$99
    4867              
    4868              
TMS320C2000 Assembler PC v6.4.2 Thu Dec 14 15:26:44 2017

Tools Copyright (c) 1996-2015 Texas Instruments Incorporated
F2837xS_SysCtrl.asm                                                  PAGE   93

    4869              $C$DW$T$100     .dwtag  DW_TAG_union_type
    4870                      .dwattr $C$DW$T$100, DW_AT_name("FPAC1_REG")
    4871                      .dwattr $C$DW$T$100, DW_AT_byte_size(0x02)
    4872              $C$DW$481       .dwtag  DW_TAG_member
    4873                      .dwattr $C$DW$481, DW_AT_type(*$C$DW$T$27)
    4874                      .dwattr $C$DW$481, DW_AT_name("all")
    4875                      .dwattr $C$DW$481, DW_AT_TI_symbol_name("_all")
    4876                      .dwattr $C$DW$481, DW_AT_data_member_location[DW_OP_plus_uconst 0x0]
    4877                      .dwattr $C$DW$481, DW_AT_accessibility(DW_ACCESS_public)
    4878              $C$DW$482       .dwtag  DW_TAG_member
    4879                      .dwattr $C$DW$482, DW_AT_type(*$C$DW$T$99)
    4880                      .dwattr $C$DW$482, DW_AT_name("bit")
    4881                      .dwattr $C$DW$482, DW_AT_TI_symbol_name("_bit")
    4882                      .dwattr $C$DW$482, DW_AT_data_member_location[DW_OP_plus_uconst 0x0]
    4883                      .dwattr $C$DW$482, DW_AT_accessibility(DW_ACCESS_public)
    4884                      .dwendtag $C$DW$T$100
    4885              
    4886              
    4887              $C$DW$T$101     .dwtag  DW_TAG_structure_type
    4888                      .dwattr $C$DW$T$101, DW_AT_name("FPAC2_BITS")
    4889                      .dwattr $C$DW$T$101, DW_AT_byte_size(0x02)
    4890              $C$DW$483       .dwtag  DW_TAG_member
    4891                      .dwattr $C$DW$483, DW_AT_type(*$C$DW$T$19)
    4892                      .dwattr $C$DW$483, DW_AT_name("PAGP")
    4893                      .dwattr $C$DW$483, DW_AT_TI_symbol_name("_PAGP")
    4894                      .dwattr $C$DW$483, DW_AT_bit_offset(0x00), DW_AT_bit_size(0x10)
    4895                      .dwattr $C$DW$483, DW_AT_data_member_location[DW_OP_plus_uconst 0x0]
    4896                      .dwattr $C$DW$483, DW_AT_accessibility(DW_ACCESS_public)
    4897              $C$DW$484       .dwtag  DW_TAG_member
    4898                      .dwattr $C$DW$484, DW_AT_type(*$C$DW$T$19)
    4899                      .dwattr $C$DW$484, DW_AT_name("rsvd1")
    4900                      .dwattr $C$DW$484, DW_AT_TI_symbol_name("_rsvd1")
    4901                      .dwattr $C$DW$484, DW_AT_bit_offset(0x00), DW_AT_bit_size(0x10)
    4902                      .dwattr $C$DW$484, DW_AT_data_member_location[DW_OP_plus_uconst 0x1]
    4903                      .dwattr $C$DW$484, DW_AT_accessibility(DW_ACCESS_public)
    4904                      .dwendtag $C$DW$T$101
    4905              
    4906              
    4907              $C$DW$T$102     .dwtag  DW_TAG_union_type
    4908                      .dwattr $C$DW$T$102, DW_AT_name("FPAC2_REG")
    4909                      .dwattr $C$DW$T$102, DW_AT_byte_size(0x02)
    4910              $C$DW$485       .dwtag  DW_TAG_member
    4911                      .dwattr $C$DW$485, DW_AT_type(*$C$DW$T$27)
    4912                      .dwattr $C$DW$485, DW_AT_name("all")
    4913                      .dwattr $C$DW$485, DW_AT_TI_symbol_name("_all")
    4914                      .dwattr $C$DW$485, DW_AT_data_member_location[DW_OP_plus_uconst 0x0]
    4915                      .dwattr $C$DW$485, DW_AT_accessibility(DW_ACCESS_public)
    4916              $C$DW$486       .dwtag  DW_TAG_member
    4917                      .dwattr $C$DW$486, DW_AT_type(*$C$DW$T$101)
    4918                      .dwattr $C$DW$486, DW_AT_name("bit")
    4919                      .dwattr $C$DW$486, DW_AT_TI_symbol_name("_bit")
    4920                      .dwattr $C$DW$486, DW_AT_data_member_location[DW_OP_plus_uconst 0x0]
    4921                      .dwattr $C$DW$486, DW_AT_accessibility(DW_ACCESS_public)
    4922                      .dwendtag $C$DW$T$102
    4923              
TMS320C2000 Assembler PC v6.4.2 Thu Dec 14 15:26:44 2017

Tools Copyright (c) 1996-2015 Texas Instruments Incorporated
F2837xS_SysCtrl.asm                                                  PAGE   94

    4924              
    4925              $C$DW$T$103     .dwtag  DW_TAG_structure_type
    4926                      .dwattr $C$DW$T$103, DW_AT_name("FRDCNTL_BITS")
    4927                      .dwattr $C$DW$T$103, DW_AT_byte_size(0x02)
    4928              $C$DW$487       .dwtag  DW_TAG_member
    4929                      .dwattr $C$DW$487, DW_AT_type(*$C$DW$T$19)
    4930                      .dwattr $C$DW$487, DW_AT_name("rsvd1")
    4931                      .dwattr $C$DW$487, DW_AT_TI_symbol_name("_rsvd1")
    4932                      .dwattr $C$DW$487, DW_AT_bit_offset(0x08), DW_AT_bit_size(0x08)
    4933                      .dwattr $C$DW$487, DW_AT_data_member_location[DW_OP_plus_uconst 0x0]
    4934                      .dwattr $C$DW$487, DW_AT_accessibility(DW_ACCESS_public)
    4935              $C$DW$488       .dwtag  DW_TAG_member
    4936                      .dwattr $C$DW$488, DW_AT_type(*$C$DW$T$19)
    4937                      .dwattr $C$DW$488, DW_AT_name("RWAIT")
    4938                      .dwattr $C$DW$488, DW_AT_TI_symbol_name("_RWAIT")
    4939                      .dwattr $C$DW$488, DW_AT_bit_offset(0x04), DW_AT_bit_size(0x04)
    4940                      .dwattr $C$DW$488, DW_AT_data_member_location[DW_OP_plus_uconst 0x0]
    4941                      .dwattr $C$DW$488, DW_AT_accessibility(DW_ACCESS_public)
    4942              $C$DW$489       .dwtag  DW_TAG_member
    4943                      .dwattr $C$DW$489, DW_AT_type(*$C$DW$T$19)
    4944                      .dwattr $C$DW$489, DW_AT_name("rsvd2")
    4945                      .dwattr $C$DW$489, DW_AT_TI_symbol_name("_rsvd2")
    4946                      .dwattr $C$DW$489, DW_AT_bit_offset(0x00), DW_AT_bit_size(0x04)
    4947                      .dwattr $C$DW$489, DW_AT_data_member_location[DW_OP_plus_uconst 0x0]
    4948                      .dwattr $C$DW$489, DW_AT_accessibility(DW_ACCESS_public)
    4949              $C$DW$490       .dwtag  DW_TAG_member
    4950                      .dwattr $C$DW$490, DW_AT_type(*$C$DW$T$19)
    4951                      .dwattr $C$DW$490, DW_AT_name("rsvd3")
    4952                      .dwattr $C$DW$490, DW_AT_TI_symbol_name("_rsvd3")
    4953                      .dwattr $C$DW$490, DW_AT_bit_offset(0x00), DW_AT_bit_size(0x10)
    4954                      .dwattr $C$DW$490, DW_AT_data_member_location[DW_OP_plus_uconst 0x1]
    4955                      .dwattr $C$DW$490, DW_AT_accessibility(DW_ACCESS_public)
    4956                      .dwendtag $C$DW$T$103
    4957              
    4958              
    4959              $C$DW$T$104     .dwtag  DW_TAG_union_type
    4960                      .dwattr $C$DW$T$104, DW_AT_name("FRDCNTL_REG")
    4961                      .dwattr $C$DW$T$104, DW_AT_byte_size(0x02)
    4962              $C$DW$491       .dwtag  DW_TAG_member
    4963                      .dwattr $C$DW$491, DW_AT_type(*$C$DW$T$27)
    4964                      .dwattr $C$DW$491, DW_AT_name("all")
    4965                      .dwattr $C$DW$491, DW_AT_TI_symbol_name("_all")
    4966                      .dwattr $C$DW$491, DW_AT_data_member_location[DW_OP_plus_uconst 0x0]
    4967                      .dwattr $C$DW$491, DW_AT_accessibility(DW_ACCESS_public)
    4968              $C$DW$492       .dwtag  DW_TAG_member
    4969                      .dwattr $C$DW$492, DW_AT_type(*$C$DW$T$103)
    4970                      .dwattr $C$DW$492, DW_AT_name("bit")
    4971                      .dwattr $C$DW$492, DW_AT_TI_symbol_name("_bit")
    4972                      .dwattr $C$DW$492, DW_AT_data_member_location[DW_OP_plus_uconst 0x0]
    4973                      .dwattr $C$DW$492, DW_AT_accessibility(DW_ACCESS_public)
    4974                      .dwendtag $C$DW$T$104
    4975              
    4976              
    4977              $C$DW$T$105     .dwtag  DW_TAG_structure_type
    4978                      .dwattr $C$DW$T$105, DW_AT_name("FRD_INTF_CTRL_BITS")
TMS320C2000 Assembler PC v6.4.2 Thu Dec 14 15:26:44 2017

Tools Copyright (c) 1996-2015 Texas Instruments Incorporated
F2837xS_SysCtrl.asm                                                  PAGE   95

    4979                      .dwattr $C$DW$T$105, DW_AT_byte_size(0x02)
    4980              $C$DW$493       .dwtag  DW_TAG_member
    4981                      .dwattr $C$DW$493, DW_AT_type(*$C$DW$T$19)
    4982                      .dwattr $C$DW$493, DW_AT_name("PREFETCH_EN")
    4983                      .dwattr $C$DW$493, DW_AT_TI_symbol_name("_PREFETCH_EN")
    4984                      .dwattr $C$DW$493, DW_AT_bit_offset(0x0f), DW_AT_bit_size(0x01)
    4985                      .dwattr $C$DW$493, DW_AT_data_member_location[DW_OP_plus_uconst 0x0]
    4986                      .dwattr $C$DW$493, DW_AT_accessibility(DW_ACCESS_public)
    4987              $C$DW$494       .dwtag  DW_TAG_member
    4988                      .dwattr $C$DW$494, DW_AT_type(*$C$DW$T$19)
    4989                      .dwattr $C$DW$494, DW_AT_name("DATA_CACHE_EN")
    4990                      .dwattr $C$DW$494, DW_AT_TI_symbol_name("_DATA_CACHE_EN")
    4991                      .dwattr $C$DW$494, DW_AT_bit_offset(0x0e), DW_AT_bit_size(0x01)
    4992                      .dwattr $C$DW$494, DW_AT_data_member_location[DW_OP_plus_uconst 0x0]
    4993                      .dwattr $C$DW$494, DW_AT_accessibility(DW_ACCESS_public)
    4994              $C$DW$495       .dwtag  DW_TAG_member
    4995                      .dwattr $C$DW$495, DW_AT_type(*$C$DW$T$19)
    4996                      .dwattr $C$DW$495, DW_AT_name("rsvd1")
    4997                      .dwattr $C$DW$495, DW_AT_TI_symbol_name("_rsvd1")
    4998                      .dwattr $C$DW$495, DW_AT_bit_offset(0x00), DW_AT_bit_size(0x0e)
    4999                      .dwattr $C$DW$495, DW_AT_data_member_location[DW_OP_plus_uconst 0x0]
    5000                      .dwattr $C$DW$495, DW_AT_accessibility(DW_ACCESS_public)
    5001              $C$DW$496       .dwtag  DW_TAG_member
    5002                      .dwattr $C$DW$496, DW_AT_type(*$C$DW$T$19)
    5003                      .dwattr $C$DW$496, DW_AT_name("rsvd2")
    5004                      .dwattr $C$DW$496, DW_AT_TI_symbol_name("_rsvd2")
    5005                      .dwattr $C$DW$496, DW_AT_bit_offset(0x00), DW_AT_bit_size(0x10)
    5006                      .dwattr $C$DW$496, DW_AT_data_member_location[DW_OP_plus_uconst 0x1]
    5007                      .dwattr $C$DW$496, DW_AT_accessibility(DW_ACCESS_public)
    5008                      .dwendtag $C$DW$T$105
    5009              
    5010              
    5011              $C$DW$T$106     .dwtag  DW_TAG_union_type
    5012                      .dwattr $C$DW$T$106, DW_AT_name("FRD_INTF_CTRL_REG")
    5013                      .dwattr $C$DW$T$106, DW_AT_byte_size(0x02)
    5014              $C$DW$497       .dwtag  DW_TAG_member
    5015                      .dwattr $C$DW$497, DW_AT_type(*$C$DW$T$27)
    5016                      .dwattr $C$DW$497, DW_AT_name("all")
    5017                      .dwattr $C$DW$497, DW_AT_TI_symbol_name("_all")
    5018                      .dwattr $C$DW$497, DW_AT_data_member_location[DW_OP_plus_uconst 0x0]
    5019                      .dwattr $C$DW$497, DW_AT_accessibility(DW_ACCESS_public)
    5020              $C$DW$498       .dwtag  DW_TAG_member
    5021                      .dwattr $C$DW$498, DW_AT_type(*$C$DW$T$105)
    5022                      .dwattr $C$DW$498, DW_AT_name("bit")
    5023                      .dwattr $C$DW$498, DW_AT_TI_symbol_name("_bit")
    5024                      .dwattr $C$DW$498, DW_AT_data_member_location[DW_OP_plus_uconst 0x0]
    5025                      .dwattr $C$DW$498, DW_AT_accessibility(DW_ACCESS_public)
    5026                      .dwendtag $C$DW$T$106
    5027              
    5028              
    5029              $C$DW$T$107     .dwtag  DW_TAG_structure_type
    5030                      .dwattr $C$DW$T$107, DW_AT_name("GPIOLPMSEL0_BITS")
    5031                      .dwattr $C$DW$T$107, DW_AT_byte_size(0x02)
    5032              $C$DW$499       .dwtag  DW_TAG_member
    5033                      .dwattr $C$DW$499, DW_AT_type(*$C$DW$T$19)
TMS320C2000 Assembler PC v6.4.2 Thu Dec 14 15:26:44 2017

Tools Copyright (c) 1996-2015 Texas Instruments Incorporated
F2837xS_SysCtrl.asm                                                  PAGE   96

    5034                      .dwattr $C$DW$499, DW_AT_name("GPIO0")
    5035                      .dwattr $C$DW$499, DW_AT_TI_symbol_name("_GPIO0")
    5036                      .dwattr $C$DW$499, DW_AT_bit_offset(0x0f), DW_AT_bit_size(0x01)
    5037                      .dwattr $C$DW$499, DW_AT_data_member_location[DW_OP_plus_uconst 0x0]
    5038                      .dwattr $C$DW$499, DW_AT_accessibility(DW_ACCESS_public)
    5039              $C$DW$500       .dwtag  DW_TAG_member
    5040                      .dwattr $C$DW$500, DW_AT_type(*$C$DW$T$19)
    5041                      .dwattr $C$DW$500, DW_AT_name("GPIO1")
    5042                      .dwattr $C$DW$500, DW_AT_TI_symbol_name("_GPIO1")
    5043                      .dwattr $C$DW$500, DW_AT_bit_offset(0x0e), DW_AT_bit_size(0x01)
    5044                      .dwattr $C$DW$500, DW_AT_data_member_location[DW_OP_plus_uconst 0x0]
    5045                      .dwattr $C$DW$500, DW_AT_accessibility(DW_ACCESS_public)
    5046              $C$DW$501       .dwtag  DW_TAG_member
    5047                      .dwattr $C$DW$501, DW_AT_type(*$C$DW$T$19)
    5048                      .dwattr $C$DW$501, DW_AT_name("GPIO2")
    5049                      .dwattr $C$DW$501, DW_AT_TI_symbol_name("_GPIO2")
    5050                      .dwattr $C$DW$501, DW_AT_bit_offset(0x0d), DW_AT_bit_size(0x01)
    5051                      .dwattr $C$DW$501, DW_AT_data_member_location[DW_OP_plus_uconst 0x0]
    5052                      .dwattr $C$DW$501, DW_AT_accessibility(DW_ACCESS_public)
    5053              $C$DW$502       .dwtag  DW_TAG_member
    5054                      .dwattr $C$DW$502, DW_AT_type(*$C$DW$T$19)
    5055                      .dwattr $C$DW$502, DW_AT_name("GPIO3")
    5056                      .dwattr $C$DW$502, DW_AT_TI_symbol_name("_GPIO3")
    5057                      .dwattr $C$DW$502, DW_AT_bit_offset(0x0c), DW_AT_bit_size(0x01)
    5058                      .dwattr $C$DW$502, DW_AT_data_member_location[DW_OP_plus_uconst 0x0]
    5059                      .dwattr $C$DW$502, DW_AT_accessibility(DW_ACCESS_public)
    5060              $C$DW$503       .dwtag  DW_TAG_member
    5061                      .dwattr $C$DW$503, DW_AT_type(*$C$DW$T$19)
    5062                      .dwattr $C$DW$503, DW_AT_name("GPIO4")
    5063                      .dwattr $C$DW$503, DW_AT_TI_symbol_name("_GPIO4")
    5064                      .dwattr $C$DW$503, DW_AT_bit_offset(0x0b), DW_AT_bit_size(0x01)
    5065                      .dwattr $C$DW$503, DW_AT_data_member_location[DW_OP_plus_uconst 0x0]
    5066                      .dwattr $C$DW$503, DW_AT_accessibility(DW_ACCESS_public)
    5067              $C$DW$504       .dwtag  DW_TAG_member
    5068                      .dwattr $C$DW$504, DW_AT_type(*$C$DW$T$19)
    5069                      .dwattr $C$DW$504, DW_AT_name("GPIO5")
    5070                      .dwattr $C$DW$504, DW_AT_TI_symbol_name("_GPIO5")
    5071                      .dwattr $C$DW$504, DW_AT_bit_offset(0x0a), DW_AT_bit_size(0x01)
    5072                      .dwattr $C$DW$504, DW_AT_data_member_location[DW_OP_plus_uconst 0x0]
    5073                      .dwattr $C$DW$504, DW_AT_accessibility(DW_ACCESS_public)
    5074              $C$DW$505       .dwtag  DW_TAG_member
    5075                      .dwattr $C$DW$505, DW_AT_type(*$C$DW$T$19)
    5076                      .dwattr $C$DW$505, DW_AT_name("GPIO6")
    5077                      .dwattr $C$DW$505, DW_AT_TI_symbol_name("_GPIO6")
    5078                      .dwattr $C$DW$505, DW_AT_bit_offset(0x09), DW_AT_bit_size(0x01)
    5079                      .dwattr $C$DW$505, DW_AT_data_member_location[DW_OP_plus_uconst 0x0]
    5080                      .dwattr $C$DW$505, DW_AT_accessibility(DW_ACCESS_public)
    5081              $C$DW$506       .dwtag  DW_TAG_member
    5082                      .dwattr $C$DW$506, DW_AT_type(*$C$DW$T$19)
    5083                      .dwattr $C$DW$506, DW_AT_name("GPIO7")
    5084                      .dwattr $C$DW$506, DW_AT_TI_symbol_name("_GPIO7")
    5085                      .dwattr $C$DW$506, DW_AT_bit_offset(0x08), DW_AT_bit_size(0x01)
    5086                      .dwattr $C$DW$506, DW_AT_data_member_location[DW_OP_plus_uconst 0x0]
    5087                      .dwattr $C$DW$506, DW_AT_accessibility(DW_ACCESS_public)
    5088              $C$DW$507       .dwtag  DW_TAG_member
TMS320C2000 Assembler PC v6.4.2 Thu Dec 14 15:26:44 2017

Tools Copyright (c) 1996-2015 Texas Instruments Incorporated
F2837xS_SysCtrl.asm                                                  PAGE   97

    5089                      .dwattr $C$DW$507, DW_AT_type(*$C$DW$T$19)
    5090                      .dwattr $C$DW$507, DW_AT_name("GPIO8")
    5091                      .dwattr $C$DW$507, DW_AT_TI_symbol_name("_GPIO8")
    5092                      .dwattr $C$DW$507, DW_AT_bit_offset(0x07), DW_AT_bit_size(0x01)
    5093                      .dwattr $C$DW$507, DW_AT_data_member_location[DW_OP_plus_uconst 0x0]
    5094                      .dwattr $C$DW$507, DW_AT_accessibility(DW_ACCESS_public)
    5095              $C$DW$508       .dwtag  DW_TAG_member
    5096                      .dwattr $C$DW$508, DW_AT_type(*$C$DW$T$19)
    5097                      .dwattr $C$DW$508, DW_AT_name("GPIO9")
    5098                      .dwattr $C$DW$508, DW_AT_TI_symbol_name("_GPIO9")
    5099                      .dwattr $C$DW$508, DW_AT_bit_offset(0x06), DW_AT_bit_size(0x01)
    5100                      .dwattr $C$DW$508, DW_AT_data_member_location[DW_OP_plus_uconst 0x0]
    5101                      .dwattr $C$DW$508, DW_AT_accessibility(DW_ACCESS_public)
    5102              $C$DW$509       .dwtag  DW_TAG_member
    5103                      .dwattr $C$DW$509, DW_AT_type(*$C$DW$T$19)
    5104                      .dwattr $C$DW$509, DW_AT_name("GPIO10")
    5105                      .dwattr $C$DW$509, DW_AT_TI_symbol_name("_GPIO10")
    5106                      .dwattr $C$DW$509, DW_AT_bit_offset(0x05), DW_AT_bit_size(0x01)
    5107                      .dwattr $C$DW$509, DW_AT_data_member_location[DW_OP_plus_uconst 0x0]
    5108                      .dwattr $C$DW$509, DW_AT_accessibility(DW_ACCESS_public)
    5109              $C$DW$510       .dwtag  DW_TAG_member
    5110                      .dwattr $C$DW$510, DW_AT_type(*$C$DW$T$19)
    5111                      .dwattr $C$DW$510, DW_AT_name("GPIO11")
    5112                      .dwattr $C$DW$510, DW_AT_TI_symbol_name("_GPIO11")
    5113                      .dwattr $C$DW$510, DW_AT_bit_offset(0x04), DW_AT_bit_size(0x01)
    5114                      .dwattr $C$DW$510, DW_AT_data_member_location[DW_OP_plus_uconst 0x0]
    5115                      .dwattr $C$DW$510, DW_AT_accessibility(DW_ACCESS_public)
    5116              $C$DW$511       .dwtag  DW_TAG_member
    5117                      .dwattr $C$DW$511, DW_AT_type(*$C$DW$T$19)
    5118                      .dwattr $C$DW$511, DW_AT_name("GPIO12")
    5119                      .dwattr $C$DW$511, DW_AT_TI_symbol_name("_GPIO12")
    5120                      .dwattr $C$DW$511, DW_AT_bit_offset(0x03), DW_AT_bit_size(0x01)
    5121                      .dwattr $C$DW$511, DW_AT_data_member_location[DW_OP_plus_uconst 0x0]
    5122                      .dwattr $C$DW$511, DW_AT_accessibility(DW_ACCESS_public)
    5123              $C$DW$512       .dwtag  DW_TAG_member
    5124                      .dwattr $C$DW$512, DW_AT_type(*$C$DW$T$19)
    5125                      .dwattr $C$DW$512, DW_AT_name("GPIO13")
    5126                      .dwattr $C$DW$512, DW_AT_TI_symbol_name("_GPIO13")
    5127                      .dwattr $C$DW$512, DW_AT_bit_offset(0x02), DW_AT_bit_size(0x01)
    5128                      .dwattr $C$DW$512, DW_AT_data_member_location[DW_OP_plus_uconst 0x0]
    5129                      .dwattr $C$DW$512, DW_AT_accessibility(DW_ACCESS_public)
    5130              $C$DW$513       .dwtag  DW_TAG_member
    5131                      .dwattr $C$DW$513, DW_AT_type(*$C$DW$T$19)
    5132                      .dwattr $C$DW$513, DW_AT_name("GPIO14")
    5133                      .dwattr $C$DW$513, DW_AT_TI_symbol_name("_GPIO14")
    5134                      .dwattr $C$DW$513, DW_AT_bit_offset(0x01), DW_AT_bit_size(0x01)
    5135                      .dwattr $C$DW$513, DW_AT_data_member_location[DW_OP_plus_uconst 0x0]
    5136                      .dwattr $C$DW$513, DW_AT_accessibility(DW_ACCESS_public)
    5137              $C$DW$514       .dwtag  DW_TAG_member
    5138                      .dwattr $C$DW$514, DW_AT_type(*$C$DW$T$19)
    5139                      .dwattr $C$DW$514, DW_AT_name("GPIO15")
    5140                      .dwattr $C$DW$514, DW_AT_TI_symbol_name("_GPIO15")
    5141                      .dwattr $C$DW$514, DW_AT_bit_offset(0x00), DW_AT_bit_size(0x01)
    5142                      .dwattr $C$DW$514, DW_AT_data_member_location[DW_OP_plus_uconst 0x0]
    5143                      .dwattr $C$DW$514, DW_AT_accessibility(DW_ACCESS_public)
TMS320C2000 Assembler PC v6.4.2 Thu Dec 14 15:26:44 2017

Tools Copyright (c) 1996-2015 Texas Instruments Incorporated
F2837xS_SysCtrl.asm                                                  PAGE   98

    5144              $C$DW$515       .dwtag  DW_TAG_member
    5145                      .dwattr $C$DW$515, DW_AT_type(*$C$DW$T$19)
    5146                      .dwattr $C$DW$515, DW_AT_name("GPIO16")
    5147                      .dwattr $C$DW$515, DW_AT_TI_symbol_name("_GPIO16")
    5148                      .dwattr $C$DW$515, DW_AT_bit_offset(0x0f), DW_AT_bit_size(0x01)
    5149                      .dwattr $C$DW$515, DW_AT_data_member_location[DW_OP_plus_uconst 0x1]
    5150                      .dwattr $C$DW$515, DW_AT_accessibility(DW_ACCESS_public)
    5151              $C$DW$516       .dwtag  DW_TAG_member
    5152                      .dwattr $C$DW$516, DW_AT_type(*$C$DW$T$19)
    5153                      .dwattr $C$DW$516, DW_AT_name("GPIO17")
    5154                      .dwattr $C$DW$516, DW_AT_TI_symbol_name("_GPIO17")
    5155                      .dwattr $C$DW$516, DW_AT_bit_offset(0x0e), DW_AT_bit_size(0x01)
    5156                      .dwattr $C$DW$516, DW_AT_data_member_location[DW_OP_plus_uconst 0x1]
    5157                      .dwattr $C$DW$516, DW_AT_accessibility(DW_ACCESS_public)
    5158              $C$DW$517       .dwtag  DW_TAG_member
    5159                      .dwattr $C$DW$517, DW_AT_type(*$C$DW$T$19)
    5160                      .dwattr $C$DW$517, DW_AT_name("GPIO18")
    5161                      .dwattr $C$DW$517, DW_AT_TI_symbol_name("_GPIO18")
    5162                      .dwattr $C$DW$517, DW_AT_bit_offset(0x0d), DW_AT_bit_size(0x01)
    5163                      .dwattr $C$DW$517, DW_AT_data_member_location[DW_OP_plus_uconst 0x1]
    5164                      .dwattr $C$DW$517, DW_AT_accessibility(DW_ACCESS_public)
    5165              $C$DW$518       .dwtag  DW_TAG_member
    5166                      .dwattr $C$DW$518, DW_AT_type(*$C$DW$T$19)
    5167                      .dwattr $C$DW$518, DW_AT_name("GPIO19")
    5168                      .dwattr $C$DW$518, DW_AT_TI_symbol_name("_GPIO19")
    5169                      .dwattr $C$DW$518, DW_AT_bit_offset(0x0c), DW_AT_bit_size(0x01)
    5170                      .dwattr $C$DW$518, DW_AT_data_member_location[DW_OP_plus_uconst 0x1]
    5171                      .dwattr $C$DW$518, DW_AT_accessibility(DW_ACCESS_public)
    5172              $C$DW$519       .dwtag  DW_TAG_member
    5173                      .dwattr $C$DW$519, DW_AT_type(*$C$DW$T$19)
    5174                      .dwattr $C$DW$519, DW_AT_name("GPIO20")
    5175                      .dwattr $C$DW$519, DW_AT_TI_symbol_name("_GPIO20")
    5176                      .dwattr $C$DW$519, DW_AT_bit_offset(0x0b), DW_AT_bit_size(0x01)
    5177                      .dwattr $C$DW$519, DW_AT_data_member_location[DW_OP_plus_uconst 0x1]
    5178                      .dwattr $C$DW$519, DW_AT_accessibility(DW_ACCESS_public)
    5179              $C$DW$520       .dwtag  DW_TAG_member
    5180                      .dwattr $C$DW$520, DW_AT_type(*$C$DW$T$19)
    5181                      .dwattr $C$DW$520, DW_AT_name("GPIO21")
    5182                      .dwattr $C$DW$520, DW_AT_TI_symbol_name("_GPIO21")
    5183                      .dwattr $C$DW$520, DW_AT_bit_offset(0x0a), DW_AT_bit_size(0x01)
    5184                      .dwattr $C$DW$520, DW_AT_data_member_location[DW_OP_plus_uconst 0x1]
    5185                      .dwattr $C$DW$520, DW_AT_accessibility(DW_ACCESS_public)
    5186              $C$DW$521       .dwtag  DW_TAG_member
    5187                      .dwattr $C$DW$521, DW_AT_type(*$C$DW$T$19)
    5188                      .dwattr $C$DW$521, DW_AT_name("GPIO22")
    5189                      .dwattr $C$DW$521, DW_AT_TI_symbol_name("_GPIO22")
    5190                      .dwattr $C$DW$521, DW_AT_bit_offset(0x09), DW_AT_bit_size(0x01)
    5191                      .dwattr $C$DW$521, DW_AT_data_member_location[DW_OP_plus_uconst 0x1]
    5192                      .dwattr $C$DW$521, DW_AT_accessibility(DW_ACCESS_public)
    5193              $C$DW$522       .dwtag  DW_TAG_member
    5194                      .dwattr $C$DW$522, DW_AT_type(*$C$DW$T$19)
    5195                      .dwattr $C$DW$522, DW_AT_name("GPIO23")
    5196                      .dwattr $C$DW$522, DW_AT_TI_symbol_name("_GPIO23")
    5197                      .dwattr $C$DW$522, DW_AT_bit_offset(0x08), DW_AT_bit_size(0x01)
    5198                      .dwattr $C$DW$522, DW_AT_data_member_location[DW_OP_plus_uconst 0x1]
TMS320C2000 Assembler PC v6.4.2 Thu Dec 14 15:26:44 2017

Tools Copyright (c) 1996-2015 Texas Instruments Incorporated
F2837xS_SysCtrl.asm                                                  PAGE   99

    5199                      .dwattr $C$DW$522, DW_AT_accessibility(DW_ACCESS_public)
    5200              $C$DW$523       .dwtag  DW_TAG_member
    5201                      .dwattr $C$DW$523, DW_AT_type(*$C$DW$T$19)
    5202                      .dwattr $C$DW$523, DW_AT_name("GPIO24")
    5203                      .dwattr $C$DW$523, DW_AT_TI_symbol_name("_GPIO24")
    5204                      .dwattr $C$DW$523, DW_AT_bit_offset(0x07), DW_AT_bit_size(0x01)
    5205                      .dwattr $C$DW$523, DW_AT_data_member_location[DW_OP_plus_uconst 0x1]
    5206                      .dwattr $C$DW$523, DW_AT_accessibility(DW_ACCESS_public)
    5207              $C$DW$524       .dwtag  DW_TAG_member
    5208                      .dwattr $C$DW$524, DW_AT_type(*$C$DW$T$19)
    5209                      .dwattr $C$DW$524, DW_AT_name("GPIO25")
    5210                      .dwattr $C$DW$524, DW_AT_TI_symbol_name("_GPIO25")
    5211                      .dwattr $C$DW$524, DW_AT_bit_offset(0x06), DW_AT_bit_size(0x01)
    5212                      .dwattr $C$DW$524, DW_AT_data_member_location[DW_OP_plus_uconst 0x1]
    5213                      .dwattr $C$DW$524, DW_AT_accessibility(DW_ACCESS_public)
    5214              $C$DW$525       .dwtag  DW_TAG_member
    5215                      .dwattr $C$DW$525, DW_AT_type(*$C$DW$T$19)
    5216                      .dwattr $C$DW$525, DW_AT_name("GPIO26")
    5217                      .dwattr $C$DW$525, DW_AT_TI_symbol_name("_GPIO26")
    5218                      .dwattr $C$DW$525, DW_AT_bit_offset(0x05), DW_AT_bit_size(0x01)
    5219                      .dwattr $C$DW$525, DW_AT_data_member_location[DW_OP_plus_uconst 0x1]
    5220                      .dwattr $C$DW$525, DW_AT_accessibility(DW_ACCESS_public)
    5221              $C$DW$526       .dwtag  DW_TAG_member
    5222                      .dwattr $C$DW$526, DW_AT_type(*$C$DW$T$19)
    5223                      .dwattr $C$DW$526, DW_AT_name("GPIO27")
    5224                      .dwattr $C$DW$526, DW_AT_TI_symbol_name("_GPIO27")
    5225                      .dwattr $C$DW$526, DW_AT_bit_offset(0x04), DW_AT_bit_size(0x01)
    5226                      .dwattr $C$DW$526, DW_AT_data_member_location[DW_OP_plus_uconst 0x1]
    5227                      .dwattr $C$DW$526, DW_AT_accessibility(DW_ACCESS_public)
    5228              $C$DW$527       .dwtag  DW_TAG_member
    5229                      .dwattr $C$DW$527, DW_AT_type(*$C$DW$T$19)
    5230                      .dwattr $C$DW$527, DW_AT_name("GPIO28")
    5231                      .dwattr $C$DW$527, DW_AT_TI_symbol_name("_GPIO28")
    5232                      .dwattr $C$DW$527, DW_AT_bit_offset(0x03), DW_AT_bit_size(0x01)
    5233                      .dwattr $C$DW$527, DW_AT_data_member_location[DW_OP_plus_uconst 0x1]
    5234                      .dwattr $C$DW$527, DW_AT_accessibility(DW_ACCESS_public)
    5235              $C$DW$528       .dwtag  DW_TAG_member
    5236                      .dwattr $C$DW$528, DW_AT_type(*$C$DW$T$19)
    5237                      .dwattr $C$DW$528, DW_AT_name("GPIO29")
    5238                      .dwattr $C$DW$528, DW_AT_TI_symbol_name("_GPIO29")
    5239                      .dwattr $C$DW$528, DW_AT_bit_offset(0x02), DW_AT_bit_size(0x01)
    5240                      .dwattr $C$DW$528, DW_AT_data_member_location[DW_OP_plus_uconst 0x1]
    5241                      .dwattr $C$DW$528, DW_AT_accessibility(DW_ACCESS_public)
    5242              $C$DW$529       .dwtag  DW_TAG_member
    5243                      .dwattr $C$DW$529, DW_AT_type(*$C$DW$T$19)
    5244                      .dwattr $C$DW$529, DW_AT_name("GPIO30")
    5245                      .dwattr $C$DW$529, DW_AT_TI_symbol_name("_GPIO30")
    5246                      .dwattr $C$DW$529, DW_AT_bit_offset(0x01), DW_AT_bit_size(0x01)
    5247                      .dwattr $C$DW$529, DW_AT_data_member_location[DW_OP_plus_uconst 0x1]
    5248                      .dwattr $C$DW$529, DW_AT_accessibility(DW_ACCESS_public)
    5249              $C$DW$530       .dwtag  DW_TAG_member
    5250                      .dwattr $C$DW$530, DW_AT_type(*$C$DW$T$19)
    5251                      .dwattr $C$DW$530, DW_AT_name("GPIO31")
    5252                      .dwattr $C$DW$530, DW_AT_TI_symbol_name("_GPIO31")
    5253                      .dwattr $C$DW$530, DW_AT_bit_offset(0x00), DW_AT_bit_size(0x01)
TMS320C2000 Assembler PC v6.4.2 Thu Dec 14 15:26:44 2017

Tools Copyright (c) 1996-2015 Texas Instruments Incorporated
F2837xS_SysCtrl.asm                                                  PAGE  100

    5254                      .dwattr $C$DW$530, DW_AT_data_member_location[DW_OP_plus_uconst 0x1]
    5255                      .dwattr $C$DW$530, DW_AT_accessibility(DW_ACCESS_public)
    5256                      .dwendtag $C$DW$T$107
    5257              
    5258              
    5259              $C$DW$T$108     .dwtag  DW_TAG_union_type
    5260                      .dwattr $C$DW$T$108, DW_AT_name("GPIOLPMSEL0_REG")
    5261                      .dwattr $C$DW$T$108, DW_AT_byte_size(0x02)
    5262              $C$DW$531       .dwtag  DW_TAG_member
    5263                      .dwattr $C$DW$531, DW_AT_type(*$C$DW$T$27)
    5264                      .dwattr $C$DW$531, DW_AT_name("all")
    5265                      .dwattr $C$DW$531, DW_AT_TI_symbol_name("_all")
    5266                      .dwattr $C$DW$531, DW_AT_data_member_location[DW_OP_plus_uconst 0x0]
    5267                      .dwattr $C$DW$531, DW_AT_accessibility(DW_ACCESS_public)
    5268              $C$DW$532       .dwtag  DW_TAG_member
    5269                      .dwattr $C$DW$532, DW_AT_type(*$C$DW$T$107)
    5270                      .dwattr $C$DW$532, DW_AT_name("bit")
    5271                      .dwattr $C$DW$532, DW_AT_TI_symbol_name("_bit")
    5272                      .dwattr $C$DW$532, DW_AT_data_member_location[DW_OP_plus_uconst 0x0]
    5273                      .dwattr $C$DW$532, DW_AT_accessibility(DW_ACCESS_public)
    5274                      .dwendtag $C$DW$T$108
    5275              
    5276              
    5277              $C$DW$T$109     .dwtag  DW_TAG_structure_type
    5278                      .dwattr $C$DW$T$109, DW_AT_name("GPIOLPMSEL1_BITS")
    5279                      .dwattr $C$DW$T$109, DW_AT_byte_size(0x02)
    5280              $C$DW$533       .dwtag  DW_TAG_member
    5281                      .dwattr $C$DW$533, DW_AT_type(*$C$DW$T$19)
    5282                      .dwattr $C$DW$533, DW_AT_name("GPIO32")
    5283                      .dwattr $C$DW$533, DW_AT_TI_symbol_name("_GPIO32")
    5284                      .dwattr $C$DW$533, DW_AT_bit_offset(0x0f), DW_AT_bit_size(0x01)
    5285                      .dwattr $C$DW$533, DW_AT_data_member_location[DW_OP_plus_uconst 0x0]
    5286                      .dwattr $C$DW$533, DW_AT_accessibility(DW_ACCESS_public)
    5287              $C$DW$534       .dwtag  DW_TAG_member
    5288                      .dwattr $C$DW$534, DW_AT_type(*$C$DW$T$19)
    5289                      .dwattr $C$DW$534, DW_AT_name("GPIO33")
    5290                      .dwattr $C$DW$534, DW_AT_TI_symbol_name("_GPIO33")
    5291                      .dwattr $C$DW$534, DW_AT_bit_offset(0x0e), DW_AT_bit_size(0x01)
    5292                      .dwattr $C$DW$534, DW_AT_data_member_location[DW_OP_plus_uconst 0x0]
    5293                      .dwattr $C$DW$534, DW_AT_accessibility(DW_ACCESS_public)
    5294              $C$DW$535       .dwtag  DW_TAG_member
    5295                      .dwattr $C$DW$535, DW_AT_type(*$C$DW$T$19)
    5296                      .dwattr $C$DW$535, DW_AT_name("GPIO34")
    5297                      .dwattr $C$DW$535, DW_AT_TI_symbol_name("_GPIO34")
    5298                      .dwattr $C$DW$535, DW_AT_bit_offset(0x0d), DW_AT_bit_size(0x01)
    5299                      .dwattr $C$DW$535, DW_AT_data_member_location[DW_OP_plus_uconst 0x0]
    5300                      .dwattr $C$DW$535, DW_AT_accessibility(DW_ACCESS_public)
    5301              $C$DW$536       .dwtag  DW_TAG_member
    5302                      .dwattr $C$DW$536, DW_AT_type(*$C$DW$T$19)
    5303                      .dwattr $C$DW$536, DW_AT_name("GPIO35")
    5304                      .dwattr $C$DW$536, DW_AT_TI_symbol_name("_GPIO35")
    5305                      .dwattr $C$DW$536, DW_AT_bit_offset(0x0c), DW_AT_bit_size(0x01)
    5306                      .dwattr $C$DW$536, DW_AT_data_member_location[DW_OP_plus_uconst 0x0]
    5307                      .dwattr $C$DW$536, DW_AT_accessibility(DW_ACCESS_public)
    5308              $C$DW$537       .dwtag  DW_TAG_member
TMS320C2000 Assembler PC v6.4.2 Thu Dec 14 15:26:44 2017

Tools Copyright (c) 1996-2015 Texas Instruments Incorporated
F2837xS_SysCtrl.asm                                                  PAGE  101

    5309                      .dwattr $C$DW$537, DW_AT_type(*$C$DW$T$19)
    5310                      .dwattr $C$DW$537, DW_AT_name("GPIO36")
    5311                      .dwattr $C$DW$537, DW_AT_TI_symbol_name("_GPIO36")
    5312                      .dwattr $C$DW$537, DW_AT_bit_offset(0x0b), DW_AT_bit_size(0x01)
    5313                      .dwattr $C$DW$537, DW_AT_data_member_location[DW_OP_plus_uconst 0x0]
    5314                      .dwattr $C$DW$537, DW_AT_accessibility(DW_ACCESS_public)
    5315              $C$DW$538       .dwtag  DW_TAG_member
    5316                      .dwattr $C$DW$538, DW_AT_type(*$C$DW$T$19)
    5317                      .dwattr $C$DW$538, DW_AT_name("GPIO37")
    5318                      .dwattr $C$DW$538, DW_AT_TI_symbol_name("_GPIO37")
    5319                      .dwattr $C$DW$538, DW_AT_bit_offset(0x0a), DW_AT_bit_size(0x01)
    5320                      .dwattr $C$DW$538, DW_AT_data_member_location[DW_OP_plus_uconst 0x0]
    5321                      .dwattr $C$DW$538, DW_AT_accessibility(DW_ACCESS_public)
    5322              $C$DW$539       .dwtag  DW_TAG_member
    5323                      .dwattr $C$DW$539, DW_AT_type(*$C$DW$T$19)
    5324                      .dwattr $C$DW$539, DW_AT_name("GPIO38")
    5325                      .dwattr $C$DW$539, DW_AT_TI_symbol_name("_GPIO38")
    5326                      .dwattr $C$DW$539, DW_AT_bit_offset(0x09), DW_AT_bit_size(0x01)
    5327                      .dwattr $C$DW$539, DW_AT_data_member_location[DW_OP_plus_uconst 0x0]
    5328                      .dwattr $C$DW$539, DW_AT_accessibility(DW_ACCESS_public)
    5329              $C$DW$540       .dwtag  DW_TAG_member
    5330                      .dwattr $C$DW$540, DW_AT_type(*$C$DW$T$19)
    5331                      .dwattr $C$DW$540, DW_AT_name("GPIO39")
    5332                      .dwattr $C$DW$540, DW_AT_TI_symbol_name("_GPIO39")
    5333                      .dwattr $C$DW$540, DW_AT_bit_offset(0x08), DW_AT_bit_size(0x01)
    5334                      .dwattr $C$DW$540, DW_AT_data_member_location[DW_OP_plus_uconst 0x0]
    5335                      .dwattr $C$DW$540, DW_AT_accessibility(DW_ACCESS_public)
    5336              $C$DW$541       .dwtag  DW_TAG_member
    5337                      .dwattr $C$DW$541, DW_AT_type(*$C$DW$T$19)
    5338                      .dwattr $C$DW$541, DW_AT_name("GPIO40")
    5339                      .dwattr $C$DW$541, DW_AT_TI_symbol_name("_GPIO40")
    5340                      .dwattr $C$DW$541, DW_AT_bit_offset(0x07), DW_AT_bit_size(0x01)
    5341                      .dwattr $C$DW$541, DW_AT_data_member_location[DW_OP_plus_uconst 0x0]
    5342                      .dwattr $C$DW$541, DW_AT_accessibility(DW_ACCESS_public)
    5343              $C$DW$542       .dwtag  DW_TAG_member
    5344                      .dwattr $C$DW$542, DW_AT_type(*$C$DW$T$19)
    5345                      .dwattr $C$DW$542, DW_AT_name("GPIO41")
    5346                      .dwattr $C$DW$542, DW_AT_TI_symbol_name("_GPIO41")
    5347                      .dwattr $C$DW$542, DW_AT_bit_offset(0x06), DW_AT_bit_size(0x01)
    5348                      .dwattr $C$DW$542, DW_AT_data_member_location[DW_OP_plus_uconst 0x0]
    5349                      .dwattr $C$DW$542, DW_AT_accessibility(DW_ACCESS_public)
    5350              $C$DW$543       .dwtag  DW_TAG_member
    5351                      .dwattr $C$DW$543, DW_AT_type(*$C$DW$T$19)
    5352                      .dwattr $C$DW$543, DW_AT_name("GPIO42")
    5353                      .dwattr $C$DW$543, DW_AT_TI_symbol_name("_GPIO42")
    5354                      .dwattr $C$DW$543, DW_AT_bit_offset(0x05), DW_AT_bit_size(0x01)
    5355                      .dwattr $C$DW$543, DW_AT_data_member_location[DW_OP_plus_uconst 0x0]
    5356                      .dwattr $C$DW$543, DW_AT_accessibility(DW_ACCESS_public)
    5357              $C$DW$544       .dwtag  DW_TAG_member
    5358                      .dwattr $C$DW$544, DW_AT_type(*$C$DW$T$19)
    5359                      .dwattr $C$DW$544, DW_AT_name("GPIO43")
    5360                      .dwattr $C$DW$544, DW_AT_TI_symbol_name("_GPIO43")
    5361                      .dwattr $C$DW$544, DW_AT_bit_offset(0x04), DW_AT_bit_size(0x01)
    5362                      .dwattr $C$DW$544, DW_AT_data_member_location[DW_OP_plus_uconst 0x0]
    5363                      .dwattr $C$DW$544, DW_AT_accessibility(DW_ACCESS_public)
TMS320C2000 Assembler PC v6.4.2 Thu Dec 14 15:26:44 2017

Tools Copyright (c) 1996-2015 Texas Instruments Incorporated
F2837xS_SysCtrl.asm                                                  PAGE  102

    5364              $C$DW$545       .dwtag  DW_TAG_member
    5365                      .dwattr $C$DW$545, DW_AT_type(*$C$DW$T$19)
    5366                      .dwattr $C$DW$545, DW_AT_name("GPIO44")
    5367                      .dwattr $C$DW$545, DW_AT_TI_symbol_name("_GPIO44")
    5368                      .dwattr $C$DW$545, DW_AT_bit_offset(0x03), DW_AT_bit_size(0x01)
    5369                      .dwattr $C$DW$545, DW_AT_data_member_location[DW_OP_plus_uconst 0x0]
    5370                      .dwattr $C$DW$545, DW_AT_accessibility(DW_ACCESS_public)
    5371              $C$DW$546       .dwtag  DW_TAG_member
    5372                      .dwattr $C$DW$546, DW_AT_type(*$C$DW$T$19)
    5373                      .dwattr $C$DW$546, DW_AT_name("GPIO45")
    5374                      .dwattr $C$DW$546, DW_AT_TI_symbol_name("_GPIO45")
    5375                      .dwattr $C$DW$546, DW_AT_bit_offset(0x02), DW_AT_bit_size(0x01)
    5376                      .dwattr $C$DW$546, DW_AT_data_member_location[DW_OP_plus_uconst 0x0]
    5377                      .dwattr $C$DW$546, DW_AT_accessibility(DW_ACCESS_public)
    5378              $C$DW$547       .dwtag  DW_TAG_member
    5379                      .dwattr $C$DW$547, DW_AT_type(*$C$DW$T$19)
    5380                      .dwattr $C$DW$547, DW_AT_name("GPIO46")
    5381                      .dwattr $C$DW$547, DW_AT_TI_symbol_name("_GPIO46")
    5382                      .dwattr $C$DW$547, DW_AT_bit_offset(0x01), DW_AT_bit_size(0x01)
    5383                      .dwattr $C$DW$547, DW_AT_data_member_location[DW_OP_plus_uconst 0x0]
    5384                      .dwattr $C$DW$547, DW_AT_accessibility(DW_ACCESS_public)
    5385              $C$DW$548       .dwtag  DW_TAG_member
    5386                      .dwattr $C$DW$548, DW_AT_type(*$C$DW$T$19)
    5387                      .dwattr $C$DW$548, DW_AT_name("GPIO47")
    5388                      .dwattr $C$DW$548, DW_AT_TI_symbol_name("_GPIO47")
    5389                      .dwattr $C$DW$548, DW_AT_bit_offset(0x00), DW_AT_bit_size(0x01)
    5390                      .dwattr $C$DW$548, DW_AT_data_member_location[DW_OP_plus_uconst 0x0]
    5391                      .dwattr $C$DW$548, DW_AT_accessibility(DW_ACCESS_public)
    5392              $C$DW$549       .dwtag  DW_TAG_member
    5393                      .dwattr $C$DW$549, DW_AT_type(*$C$DW$T$19)
    5394                      .dwattr $C$DW$549, DW_AT_name("GPIO48")
    5395                      .dwattr $C$DW$549, DW_AT_TI_symbol_name("_GPIO48")
    5396                      .dwattr $C$DW$549, DW_AT_bit_offset(0x0f), DW_AT_bit_size(0x01)
    5397                      .dwattr $C$DW$549, DW_AT_data_member_location[DW_OP_plus_uconst 0x1]
    5398                      .dwattr $C$DW$549, DW_AT_accessibility(DW_ACCESS_public)
    5399              $C$DW$550       .dwtag  DW_TAG_member
    5400                      .dwattr $C$DW$550, DW_AT_type(*$C$DW$T$19)
    5401                      .dwattr $C$DW$550, DW_AT_name("GPIO49")
    5402                      .dwattr $C$DW$550, DW_AT_TI_symbol_name("_GPIO49")
    5403                      .dwattr $C$DW$550, DW_AT_bit_offset(0x0e), DW_AT_bit_size(0x01)
    5404                      .dwattr $C$DW$550, DW_AT_data_member_location[DW_OP_plus_uconst 0x1]
    5405                      .dwattr $C$DW$550, DW_AT_accessibility(DW_ACCESS_public)
    5406              $C$DW$551       .dwtag  DW_TAG_member
    5407                      .dwattr $C$DW$551, DW_AT_type(*$C$DW$T$19)
    5408                      .dwattr $C$DW$551, DW_AT_name("GPIO50")
    5409                      .dwattr $C$DW$551, DW_AT_TI_symbol_name("_GPIO50")
    5410                      .dwattr $C$DW$551, DW_AT_bit_offset(0x0d), DW_AT_bit_size(0x01)
    5411                      .dwattr $C$DW$551, DW_AT_data_member_location[DW_OP_plus_uconst 0x1]
    5412                      .dwattr $C$DW$551, DW_AT_accessibility(DW_ACCESS_public)
    5413              $C$DW$552       .dwtag  DW_TAG_member
    5414                      .dwattr $C$DW$552, DW_AT_type(*$C$DW$T$19)
    5415                      .dwattr $C$DW$552, DW_AT_name("GPIO51")
    5416                      .dwattr $C$DW$552, DW_AT_TI_symbol_name("_GPIO51")
    5417                      .dwattr $C$DW$552, DW_AT_bit_offset(0x0c), DW_AT_bit_size(0x01)
    5418                      .dwattr $C$DW$552, DW_AT_data_member_location[DW_OP_plus_uconst 0x1]
TMS320C2000 Assembler PC v6.4.2 Thu Dec 14 15:26:44 2017

Tools Copyright (c) 1996-2015 Texas Instruments Incorporated
F2837xS_SysCtrl.asm                                                  PAGE  103

    5419                      .dwattr $C$DW$552, DW_AT_accessibility(DW_ACCESS_public)
    5420              $C$DW$553       .dwtag  DW_TAG_member
    5421                      .dwattr $C$DW$553, DW_AT_type(*$C$DW$T$19)
    5422                      .dwattr $C$DW$553, DW_AT_name("GPIO52")
    5423                      .dwattr $C$DW$553, DW_AT_TI_symbol_name("_GPIO52")
    5424                      .dwattr $C$DW$553, DW_AT_bit_offset(0x0b), DW_AT_bit_size(0x01)
    5425                      .dwattr $C$DW$553, DW_AT_data_member_location[DW_OP_plus_uconst 0x1]
    5426                      .dwattr $C$DW$553, DW_AT_accessibility(DW_ACCESS_public)
    5427              $C$DW$554       .dwtag  DW_TAG_member
    5428                      .dwattr $C$DW$554, DW_AT_type(*$C$DW$T$19)
    5429                      .dwattr $C$DW$554, DW_AT_name("GPIO53")
    5430                      .dwattr $C$DW$554, DW_AT_TI_symbol_name("_GPIO53")
    5431                      .dwattr $C$DW$554, DW_AT_bit_offset(0x0a), DW_AT_bit_size(0x01)
    5432                      .dwattr $C$DW$554, DW_AT_data_member_location[DW_OP_plus_uconst 0x1]
    5433                      .dwattr $C$DW$554, DW_AT_accessibility(DW_ACCESS_public)
    5434              $C$DW$555       .dwtag  DW_TAG_member
    5435                      .dwattr $C$DW$555, DW_AT_type(*$C$DW$T$19)
    5436                      .dwattr $C$DW$555, DW_AT_name("GPIO54")
    5437                      .dwattr $C$DW$555, DW_AT_TI_symbol_name("_GPIO54")
    5438                      .dwattr $C$DW$555, DW_AT_bit_offset(0x09), DW_AT_bit_size(0x01)
    5439                      .dwattr $C$DW$555, DW_AT_data_member_location[DW_OP_plus_uconst 0x1]
    5440                      .dwattr $C$DW$555, DW_AT_accessibility(DW_ACCESS_public)
    5441              $C$DW$556       .dwtag  DW_TAG_member
    5442                      .dwattr $C$DW$556, DW_AT_type(*$C$DW$T$19)
    5443                      .dwattr $C$DW$556, DW_AT_name("GPIO55")
    5444                      .dwattr $C$DW$556, DW_AT_TI_symbol_name("_GPIO55")
    5445                      .dwattr $C$DW$556, DW_AT_bit_offset(0x08), DW_AT_bit_size(0x01)
    5446                      .dwattr $C$DW$556, DW_AT_data_member_location[DW_OP_plus_uconst 0x1]
    5447                      .dwattr $C$DW$556, DW_AT_accessibility(DW_ACCESS_public)
    5448              $C$DW$557       .dwtag  DW_TAG_member
    5449                      .dwattr $C$DW$557, DW_AT_type(*$C$DW$T$19)
    5450                      .dwattr $C$DW$557, DW_AT_name("GPIO56")
    5451                      .dwattr $C$DW$557, DW_AT_TI_symbol_name("_GPIO56")
    5452                      .dwattr $C$DW$557, DW_AT_bit_offset(0x07), DW_AT_bit_size(0x01)
    5453                      .dwattr $C$DW$557, DW_AT_data_member_location[DW_OP_plus_uconst 0x1]
    5454                      .dwattr $C$DW$557, DW_AT_accessibility(DW_ACCESS_public)
    5455              $C$DW$558       .dwtag  DW_TAG_member
    5456                      .dwattr $C$DW$558, DW_AT_type(*$C$DW$T$19)
    5457                      .dwattr $C$DW$558, DW_AT_name("GPIO57")
    5458                      .dwattr $C$DW$558, DW_AT_TI_symbol_name("_GPIO57")
    5459                      .dwattr $C$DW$558, DW_AT_bit_offset(0x06), DW_AT_bit_size(0x01)
    5460                      .dwattr $C$DW$558, DW_AT_data_member_location[DW_OP_plus_uconst 0x1]
    5461                      .dwattr $C$DW$558, DW_AT_accessibility(DW_ACCESS_public)
    5462              $C$DW$559       .dwtag  DW_TAG_member
    5463                      .dwattr $C$DW$559, DW_AT_type(*$C$DW$T$19)
    5464                      .dwattr $C$DW$559, DW_AT_name("GPIO58")
    5465                      .dwattr $C$DW$559, DW_AT_TI_symbol_name("_GPIO58")
    5466                      .dwattr $C$DW$559, DW_AT_bit_offset(0x05), DW_AT_bit_size(0x01)
    5467                      .dwattr $C$DW$559, DW_AT_data_member_location[DW_OP_plus_uconst 0x1]
    5468                      .dwattr $C$DW$559, DW_AT_accessibility(DW_ACCESS_public)
    5469              $C$DW$560       .dwtag  DW_TAG_member
    5470                      .dwattr $C$DW$560, DW_AT_type(*$C$DW$T$19)
    5471                      .dwattr $C$DW$560, DW_AT_name("GPIO59")
    5472                      .dwattr $C$DW$560, DW_AT_TI_symbol_name("_GPIO59")
    5473                      .dwattr $C$DW$560, DW_AT_bit_offset(0x04), DW_AT_bit_size(0x01)
TMS320C2000 Assembler PC v6.4.2 Thu Dec 14 15:26:44 2017

Tools Copyright (c) 1996-2015 Texas Instruments Incorporated
F2837xS_SysCtrl.asm                                                  PAGE  104

    5474                      .dwattr $C$DW$560, DW_AT_data_member_location[DW_OP_plus_uconst 0x1]
    5475                      .dwattr $C$DW$560, DW_AT_accessibility(DW_ACCESS_public)
    5476              $C$DW$561       .dwtag  DW_TAG_member
    5477                      .dwattr $C$DW$561, DW_AT_type(*$C$DW$T$19)
    5478                      .dwattr $C$DW$561, DW_AT_name("GPIO60")
    5479                      .dwattr $C$DW$561, DW_AT_TI_symbol_name("_GPIO60")
    5480                      .dwattr $C$DW$561, DW_AT_bit_offset(0x03), DW_AT_bit_size(0x01)
    5481                      .dwattr $C$DW$561, DW_AT_data_member_location[DW_OP_plus_uconst 0x1]
    5482                      .dwattr $C$DW$561, DW_AT_accessibility(DW_ACCESS_public)
    5483              $C$DW$562       .dwtag  DW_TAG_member
    5484                      .dwattr $C$DW$562, DW_AT_type(*$C$DW$T$19)
    5485                      .dwattr $C$DW$562, DW_AT_name("GPIO61")
    5486                      .dwattr $C$DW$562, DW_AT_TI_symbol_name("_GPIO61")
    5487                      .dwattr $C$DW$562, DW_AT_bit_offset(0x02), DW_AT_bit_size(0x01)
    5488                      .dwattr $C$DW$562, DW_AT_data_member_location[DW_OP_plus_uconst 0x1]
    5489                      .dwattr $C$DW$562, DW_AT_accessibility(DW_ACCESS_public)
    5490              $C$DW$563       .dwtag  DW_TAG_member
    5491                      .dwattr $C$DW$563, DW_AT_type(*$C$DW$T$19)
    5492                      .dwattr $C$DW$563, DW_AT_name("GPIO62")
    5493                      .dwattr $C$DW$563, DW_AT_TI_symbol_name("_GPIO62")
    5494                      .dwattr $C$DW$563, DW_AT_bit_offset(0x01), DW_AT_bit_size(0x01)
    5495                      .dwattr $C$DW$563, DW_AT_data_member_location[DW_OP_plus_uconst 0x1]
    5496                      .dwattr $C$DW$563, DW_AT_accessibility(DW_ACCESS_public)
    5497              $C$DW$564       .dwtag  DW_TAG_member
    5498                      .dwattr $C$DW$564, DW_AT_type(*$C$DW$T$19)
    5499                      .dwattr $C$DW$564, DW_AT_name("GPIO63")
    5500                      .dwattr $C$DW$564, DW_AT_TI_symbol_name("_GPIO63")
    5501                      .dwattr $C$DW$564, DW_AT_bit_offset(0x00), DW_AT_bit_size(0x01)
    5502                      .dwattr $C$DW$564, DW_AT_data_member_location[DW_OP_plus_uconst 0x1]
    5503                      .dwattr $C$DW$564, DW_AT_accessibility(DW_ACCESS_public)
    5504                      .dwendtag $C$DW$T$109
    5505              
    5506              
    5507              $C$DW$T$110     .dwtag  DW_TAG_union_type
    5508                      .dwattr $C$DW$T$110, DW_AT_name("GPIOLPMSEL1_REG")
    5509                      .dwattr $C$DW$T$110, DW_AT_byte_size(0x02)
    5510              $C$DW$565       .dwtag  DW_TAG_member
    5511                      .dwattr $C$DW$565, DW_AT_type(*$C$DW$T$27)
    5512                      .dwattr $C$DW$565, DW_AT_name("all")
    5513                      .dwattr $C$DW$565, DW_AT_TI_symbol_name("_all")
    5514                      .dwattr $C$DW$565, DW_AT_data_member_location[DW_OP_plus_uconst 0x0]
    5515                      .dwattr $C$DW$565, DW_AT_accessibility(DW_ACCESS_public)
    5516              $C$DW$566       .dwtag  DW_TAG_member
    5517                      .dwattr $C$DW$566, DW_AT_type(*$C$DW$T$109)
    5518                      .dwattr $C$DW$566, DW_AT_name("bit")
    5519                      .dwattr $C$DW$566, DW_AT_TI_symbol_name("_bit")
    5520                      .dwattr $C$DW$566, DW_AT_data_member_location[DW_OP_plus_uconst 0x0]
    5521                      .dwattr $C$DW$566, DW_AT_accessibility(DW_ACCESS_public)
    5522                      .dwendtag $C$DW$T$110
    5523              
    5524              
    5525              $C$DW$T$111     .dwtag  DW_TAG_structure_type
    5526                      .dwattr $C$DW$T$111, DW_AT_name("INTOSC1TRIM_BITS")
    5527                      .dwattr $C$DW$T$111, DW_AT_byte_size(0x02)
    5528              $C$DW$567       .dwtag  DW_TAG_member
TMS320C2000 Assembler PC v6.4.2 Thu Dec 14 15:26:44 2017

Tools Copyright (c) 1996-2015 Texas Instruments Incorporated
F2837xS_SysCtrl.asm                                                  PAGE  105

    5529                      .dwattr $C$DW$567, DW_AT_type(*$C$DW$T$19)
    5530                      .dwattr $C$DW$567, DW_AT_name("VALFINETRIM")
    5531                      .dwattr $C$DW$567, DW_AT_TI_symbol_name("_VALFINETRIM")
    5532                      .dwattr $C$DW$567, DW_AT_bit_offset(0x04), DW_AT_bit_size(0x0c)
    5533                      .dwattr $C$DW$567, DW_AT_data_member_location[DW_OP_plus_uconst 0x0]
    5534                      .dwattr $C$DW$567, DW_AT_accessibility(DW_ACCESS_public)
    5535              $C$DW$568       .dwtag  DW_TAG_member
    5536                      .dwattr $C$DW$568, DW_AT_type(*$C$DW$T$19)
    5537                      .dwattr $C$DW$568, DW_AT_name("rsvd1")
    5538                      .dwattr $C$DW$568, DW_AT_TI_symbol_name("_rsvd1")
    5539                      .dwattr $C$DW$568, DW_AT_bit_offset(0x00), DW_AT_bit_size(0x04)
    5540                      .dwattr $C$DW$568, DW_AT_data_member_location[DW_OP_plus_uconst 0x0]
    5541                      .dwattr $C$DW$568, DW_AT_accessibility(DW_ACCESS_public)
    5542              $C$DW$569       .dwtag  DW_TAG_member
    5543                      .dwattr $C$DW$569, DW_AT_type(*$C$DW$T$19)
    5544                      .dwattr $C$DW$569, DW_AT_name("rsvd2")
    5545                      .dwattr $C$DW$569, DW_AT_TI_symbol_name("_rsvd2")
    5546                      .dwattr $C$DW$569, DW_AT_bit_offset(0x08), DW_AT_bit_size(0x08)
    5547                      .dwattr $C$DW$569, DW_AT_data_member_location[DW_OP_plus_uconst 0x1]
    5548                      .dwattr $C$DW$569, DW_AT_accessibility(DW_ACCESS_public)
    5549              $C$DW$570       .dwtag  DW_TAG_member
    5550                      .dwattr $C$DW$570, DW_AT_type(*$C$DW$T$19)
    5551                      .dwattr $C$DW$570, DW_AT_name("rsvd3")
    5552                      .dwattr $C$DW$570, DW_AT_TI_symbol_name("_rsvd3")
    5553                      .dwattr $C$DW$570, DW_AT_bit_offset(0x00), DW_AT_bit_size(0x08)
    5554                      .dwattr $C$DW$570, DW_AT_data_member_location[DW_OP_plus_uconst 0x1]
    5555                      .dwattr $C$DW$570, DW_AT_accessibility(DW_ACCESS_public)
    5556                      .dwendtag $C$DW$T$111
    5557              
    5558              
    5559              $C$DW$T$112     .dwtag  DW_TAG_union_type
    5560                      .dwattr $C$DW$T$112, DW_AT_name("INTOSC1TRIM_REG")
    5561                      .dwattr $C$DW$T$112, DW_AT_byte_size(0x02)
    5562              $C$DW$571       .dwtag  DW_TAG_member
    5563                      .dwattr $C$DW$571, DW_AT_type(*$C$DW$T$27)
    5564                      .dwattr $C$DW$571, DW_AT_name("all")
    5565                      .dwattr $C$DW$571, DW_AT_TI_symbol_name("_all")
    5566                      .dwattr $C$DW$571, DW_AT_data_member_location[DW_OP_plus_uconst 0x0]
    5567                      .dwattr $C$DW$571, DW_AT_accessibility(DW_ACCESS_public)
    5568              $C$DW$572       .dwtag  DW_TAG_member
    5569                      .dwattr $C$DW$572, DW_AT_type(*$C$DW$T$111)
    5570                      .dwattr $C$DW$572, DW_AT_name("bit")
    5571                      .dwattr $C$DW$572, DW_AT_TI_symbol_name("_bit")
    5572                      .dwattr $C$DW$572, DW_AT_data_member_location[DW_OP_plus_uconst 0x0]
    5573                      .dwattr $C$DW$572, DW_AT_accessibility(DW_ACCESS_public)
    5574                      .dwendtag $C$DW$T$112
    5575              
    5576              
    5577              $C$DW$T$113     .dwtag  DW_TAG_structure_type
    5578                      .dwattr $C$DW$T$113, DW_AT_name("INTOSC2TRIM_BITS")
    5579                      .dwattr $C$DW$T$113, DW_AT_byte_size(0x02)
    5580              $C$DW$573       .dwtag  DW_TAG_member
    5581                      .dwattr $C$DW$573, DW_AT_type(*$C$DW$T$19)
    5582                      .dwattr $C$DW$573, DW_AT_name("VALFINETRIM")
    5583                      .dwattr $C$DW$573, DW_AT_TI_symbol_name("_VALFINETRIM")
TMS320C2000 Assembler PC v6.4.2 Thu Dec 14 15:26:44 2017

Tools Copyright (c) 1996-2015 Texas Instruments Incorporated
F2837xS_SysCtrl.asm                                                  PAGE  106

    5584                      .dwattr $C$DW$573, DW_AT_bit_offset(0x04), DW_AT_bit_size(0x0c)
    5585                      .dwattr $C$DW$573, DW_AT_data_member_location[DW_OP_plus_uconst 0x0]
    5586                      .dwattr $C$DW$573, DW_AT_accessibility(DW_ACCESS_public)
    5587              $C$DW$574       .dwtag  DW_TAG_member
    5588                      .dwattr $C$DW$574, DW_AT_type(*$C$DW$T$19)
    5589                      .dwattr $C$DW$574, DW_AT_name("rsvd1")
    5590                      .dwattr $C$DW$574, DW_AT_TI_symbol_name("_rsvd1")
    5591                      .dwattr $C$DW$574, DW_AT_bit_offset(0x00), DW_AT_bit_size(0x04)
    5592                      .dwattr $C$DW$574, DW_AT_data_member_location[DW_OP_plus_uconst 0x0]
    5593                      .dwattr $C$DW$574, DW_AT_accessibility(DW_ACCESS_public)
    5594              $C$DW$575       .dwtag  DW_TAG_member
    5595                      .dwattr $C$DW$575, DW_AT_type(*$C$DW$T$19)
    5596                      .dwattr $C$DW$575, DW_AT_name("rsvd2")
    5597                      .dwattr $C$DW$575, DW_AT_TI_symbol_name("_rsvd2")
    5598                      .dwattr $C$DW$575, DW_AT_bit_offset(0x08), DW_AT_bit_size(0x08)
    5599                      .dwattr $C$DW$575, DW_AT_data_member_location[DW_OP_plus_uconst 0x1]
    5600                      .dwattr $C$DW$575, DW_AT_accessibility(DW_ACCESS_public)
    5601              $C$DW$576       .dwtag  DW_TAG_member
    5602                      .dwattr $C$DW$576, DW_AT_type(*$C$DW$T$19)
    5603                      .dwattr $C$DW$576, DW_AT_name("rsvd3")
    5604                      .dwattr $C$DW$576, DW_AT_TI_symbol_name("_rsvd3")
    5605                      .dwattr $C$DW$576, DW_AT_bit_offset(0x00), DW_AT_bit_size(0x08)
    5606                      .dwattr $C$DW$576, DW_AT_data_member_location[DW_OP_plus_uconst 0x1]
    5607                      .dwattr $C$DW$576, DW_AT_accessibility(DW_ACCESS_public)
    5608                      .dwendtag $C$DW$T$113
    5609              
    5610              
    5611              $C$DW$T$114     .dwtag  DW_TAG_union_type
    5612                      .dwattr $C$DW$T$114, DW_AT_name("INTOSC2TRIM_REG")
    5613                      .dwattr $C$DW$T$114, DW_AT_byte_size(0x02)
    5614              $C$DW$577       .dwtag  DW_TAG_member
    5615                      .dwattr $C$DW$577, DW_AT_type(*$C$DW$T$27)
    5616                      .dwattr $C$DW$577, DW_AT_name("all")
    5617                      .dwattr $C$DW$577, DW_AT_TI_symbol_name("_all")
    5618                      .dwattr $C$DW$577, DW_AT_data_member_location[DW_OP_plus_uconst 0x0]
    5619                      .dwattr $C$DW$577, DW_AT_accessibility(DW_ACCESS_public)
    5620              $C$DW$578       .dwtag  DW_TAG_member
    5621                      .dwattr $C$DW$578, DW_AT_type(*$C$DW$T$113)
    5622                      .dwattr $C$DW$578, DW_AT_name("bit")
    5623                      .dwattr $C$DW$578, DW_AT_TI_symbol_name("_bit")
    5624                      .dwattr $C$DW$578, DW_AT_data_member_location[DW_OP_plus_uconst 0x0]
    5625                      .dwattr $C$DW$578, DW_AT_accessibility(DW_ACCESS_public)
    5626                      .dwendtag $C$DW$T$114
    5627              
    5628              
    5629              $C$DW$T$115     .dwtag  DW_TAG_structure_type
    5630                      .dwattr $C$DW$T$115, DW_AT_name("IORESTOREADDR_BITS")
    5631                      .dwattr $C$DW$T$115, DW_AT_byte_size(0x02)
    5632              $C$DW$579       .dwtag  DW_TAG_member
    5633                      .dwattr $C$DW$579, DW_AT_type(*$C$DW$T$27)
    5634                      .dwattr $C$DW$579, DW_AT_name("ADDR")
    5635                      .dwattr $C$DW$579, DW_AT_TI_symbol_name("_ADDR")
    5636                      .dwattr $C$DW$579, DW_AT_bit_offset(0x0a), DW_AT_bit_size(0x16)
    5637                      .dwattr $C$DW$579, DW_AT_data_member_location[DW_OP_plus_uconst 0x0]
    5638                      .dwattr $C$DW$579, DW_AT_accessibility(DW_ACCESS_public)
TMS320C2000 Assembler PC v6.4.2 Thu Dec 14 15:26:44 2017

Tools Copyright (c) 1996-2015 Texas Instruments Incorporated
F2837xS_SysCtrl.asm                                                  PAGE  107

    5639              $C$DW$580       .dwtag  DW_TAG_member
    5640                      .dwattr $C$DW$580, DW_AT_type(*$C$DW$T$19)
    5641                      .dwattr $C$DW$580, DW_AT_name("rsvd1")
    5642                      .dwattr $C$DW$580, DW_AT_TI_symbol_name("_rsvd1")
    5643                      .dwattr $C$DW$580, DW_AT_bit_offset(0x00), DW_AT_bit_size(0x0a)
    5644                      .dwattr $C$DW$580, DW_AT_data_member_location[DW_OP_plus_uconst 0x1]
    5645                      .dwattr $C$DW$580, DW_AT_accessibility(DW_ACCESS_public)
    5646                      .dwendtag $C$DW$T$115
    5647              
    5648              
    5649              $C$DW$T$116     .dwtag  DW_TAG_union_type
    5650                      .dwattr $C$DW$T$116, DW_AT_name("IORESTOREADDR_REG")
    5651                      .dwattr $C$DW$T$116, DW_AT_byte_size(0x02)
    5652              $C$DW$581       .dwtag  DW_TAG_member
    5653                      .dwattr $C$DW$581, DW_AT_type(*$C$DW$T$27)
    5654                      .dwattr $C$DW$581, DW_AT_name("all")
    5655                      .dwattr $C$DW$581, DW_AT_TI_symbol_name("_all")
    5656                      .dwattr $C$DW$581, DW_AT_data_member_location[DW_OP_plus_uconst 0x0]
    5657                      .dwattr $C$DW$581, DW_AT_accessibility(DW_ACCESS_public)
    5658              $C$DW$582       .dwtag  DW_TAG_member
    5659                      .dwattr $C$DW$582, DW_AT_type(*$C$DW$T$115)
    5660                      .dwattr $C$DW$582, DW_AT_name("bit")
    5661                      .dwattr $C$DW$582, DW_AT_TI_symbol_name("_bit")
    5662                      .dwattr $C$DW$582, DW_AT_data_member_location[DW_OP_plus_uconst 0x0]
    5663                      .dwattr $C$DW$582, DW_AT_accessibility(DW_ACCESS_public)
    5664                      .dwendtag $C$DW$T$116
    5665              
    5666              
    5667              $C$DW$T$117     .dwtag  DW_TAG_structure_type
    5668                      .dwattr $C$DW$T$117, DW_AT_name("LOCK_BITS")
    5669                      .dwattr $C$DW$T$117, DW_AT_byte_size(0x02)
    5670              $C$DW$583       .dwtag  DW_TAG_member
    5671                      .dwattr $C$DW$583, DW_AT_type(*$C$DW$T$19)
    5672                      .dwattr $C$DW$583, DW_AT_name("rsvd1")
    5673                      .dwattr $C$DW$583, DW_AT_TI_symbol_name("_rsvd1")
    5674                      .dwattr $C$DW$583, DW_AT_bit_offset(0x0f), DW_AT_bit_size(0x01)
    5675                      .dwattr $C$DW$583, DW_AT_data_member_location[DW_OP_plus_uconst 0x0]
    5676                      .dwattr $C$DW$583, DW_AT_accessibility(DW_ACCESS_public)
    5677              $C$DW$584       .dwtag  DW_TAG_member
    5678                      .dwattr $C$DW$584, DW_AT_type(*$C$DW$T$19)
    5679                      .dwattr $C$DW$584, DW_AT_name("rsvd2")
    5680                      .dwattr $C$DW$584, DW_AT_TI_symbol_name("_rsvd2")
    5681                      .dwattr $C$DW$584, DW_AT_bit_offset(0x0e), DW_AT_bit_size(0x01)
    5682                      .dwattr $C$DW$584, DW_AT_data_member_location[DW_OP_plus_uconst 0x0]
    5683                      .dwattr $C$DW$584, DW_AT_accessibility(DW_ACCESS_public)
    5684              $C$DW$585       .dwtag  DW_TAG_member
    5685                      .dwattr $C$DW$585, DW_AT_type(*$C$DW$T$19)
    5686                      .dwattr $C$DW$585, DW_AT_name("rsvd3")
    5687                      .dwattr $C$DW$585, DW_AT_TI_symbol_name("_rsvd3")
    5688                      .dwattr $C$DW$585, DW_AT_bit_offset(0x0d), DW_AT_bit_size(0x01)
    5689                      .dwattr $C$DW$585, DW_AT_data_member_location[DW_OP_plus_uconst 0x0]
    5690                      .dwattr $C$DW$585, DW_AT_accessibility(DW_ACCESS_public)
    5691              $C$DW$586       .dwtag  DW_TAG_member
    5692                      .dwattr $C$DW$586, DW_AT_type(*$C$DW$T$19)
    5693                      .dwattr $C$DW$586, DW_AT_name("TSNSCTL")
TMS320C2000 Assembler PC v6.4.2 Thu Dec 14 15:26:44 2017

Tools Copyright (c) 1996-2015 Texas Instruments Incorporated
F2837xS_SysCtrl.asm                                                  PAGE  108

    5694                      .dwattr $C$DW$586, DW_AT_TI_symbol_name("_TSNSCTL")
    5695                      .dwattr $C$DW$586, DW_AT_bit_offset(0x0c), DW_AT_bit_size(0x01)
    5696                      .dwattr $C$DW$586, DW_AT_data_member_location[DW_OP_plus_uconst 0x0]
    5697                      .dwattr $C$DW$586, DW_AT_accessibility(DW_ACCESS_public)
    5698              $C$DW$587       .dwtag  DW_TAG_member
    5699                      .dwattr $C$DW$587, DW_AT_type(*$C$DW$T$19)
    5700                      .dwattr $C$DW$587, DW_AT_name("rsvd4")
    5701                      .dwattr $C$DW$587, DW_AT_TI_symbol_name("_rsvd4")
    5702                      .dwattr $C$DW$587, DW_AT_bit_offset(0x0b), DW_AT_bit_size(0x01)
    5703                      .dwattr $C$DW$587, DW_AT_data_member_location[DW_OP_plus_uconst 0x0]
    5704                      .dwattr $C$DW$587, DW_AT_accessibility(DW_ACCESS_public)
    5705              $C$DW$588       .dwtag  DW_TAG_member
    5706                      .dwattr $C$DW$588, DW_AT_type(*$C$DW$T$19)
    5707                      .dwattr $C$DW$588, DW_AT_name("rsvd5")
    5708                      .dwattr $C$DW$588, DW_AT_TI_symbol_name("_rsvd5")
    5709                      .dwattr $C$DW$588, DW_AT_bit_offset(0x0a), DW_AT_bit_size(0x01)
    5710                      .dwattr $C$DW$588, DW_AT_data_member_location[DW_OP_plus_uconst 0x0]
    5711                      .dwattr $C$DW$588, DW_AT_accessibility(DW_ACCESS_public)
    5712              $C$DW$589       .dwtag  DW_TAG_member
    5713                      .dwattr $C$DW$589, DW_AT_type(*$C$DW$T$19)
    5714                      .dwattr $C$DW$589, DW_AT_name("rsvd6")
    5715                      .dwattr $C$DW$589, DW_AT_TI_symbol_name("_rsvd6")
    5716                      .dwattr $C$DW$589, DW_AT_bit_offset(0x09), DW_AT_bit_size(0x01)
    5717                      .dwattr $C$DW$589, DW_AT_data_member_location[DW_OP_plus_uconst 0x0]
    5718                      .dwattr $C$DW$589, DW_AT_accessibility(DW_ACCESS_public)
    5719              $C$DW$590       .dwtag  DW_TAG_member
    5720                      .dwattr $C$DW$590, DW_AT_type(*$C$DW$T$27)
    5721                      .dwattr $C$DW$590, DW_AT_name("rsvd7")
    5722                      .dwattr $C$DW$590, DW_AT_TI_symbol_name("_rsvd7")
    5723                      .dwattr $C$DW$590, DW_AT_bit_offset(0x0d), DW_AT_bit_size(0x0c)
    5724                      .dwattr $C$DW$590, DW_AT_data_member_location[DW_OP_plus_uconst 0x0]
    5725                      .dwattr $C$DW$590, DW_AT_accessibility(DW_ACCESS_public)
    5726              $C$DW$591       .dwtag  DW_TAG_member
    5727                      .dwattr $C$DW$591, DW_AT_type(*$C$DW$T$19)
    5728                      .dwattr $C$DW$591, DW_AT_name("rsvd8")
    5729                      .dwattr $C$DW$591, DW_AT_TI_symbol_name("_rsvd8")
    5730                      .dwattr $C$DW$591, DW_AT_bit_offset(0x0c), DW_AT_bit_size(0x01)
    5731                      .dwattr $C$DW$591, DW_AT_data_member_location[DW_OP_plus_uconst 0x1]
    5732                      .dwattr $C$DW$591, DW_AT_accessibility(DW_ACCESS_public)
    5733              $C$DW$592       .dwtag  DW_TAG_member
    5734                      .dwattr $C$DW$592, DW_AT_type(*$C$DW$T$19)
    5735                      .dwattr $C$DW$592, DW_AT_name("rsvd9")
    5736                      .dwattr $C$DW$592, DW_AT_TI_symbol_name("_rsvd9")
    5737                      .dwattr $C$DW$592, DW_AT_bit_offset(0x0b), DW_AT_bit_size(0x01)
    5738                      .dwattr $C$DW$592, DW_AT_data_member_location[DW_OP_plus_uconst 0x1]
    5739                      .dwattr $C$DW$592, DW_AT_accessibility(DW_ACCESS_public)
    5740              $C$DW$593       .dwtag  DW_TAG_member
    5741                      .dwattr $C$DW$593, DW_AT_type(*$C$DW$T$19)
    5742                      .dwattr $C$DW$593, DW_AT_name("rsvd10")
    5743                      .dwattr $C$DW$593, DW_AT_TI_symbol_name("_rsvd10")
    5744                      .dwattr $C$DW$593, DW_AT_bit_offset(0x0a), DW_AT_bit_size(0x01)
    5745                      .dwattr $C$DW$593, DW_AT_data_member_location[DW_OP_plus_uconst 0x1]
    5746                      .dwattr $C$DW$593, DW_AT_accessibility(DW_ACCESS_public)
    5747              $C$DW$594       .dwtag  DW_TAG_member
    5748                      .dwattr $C$DW$594, DW_AT_type(*$C$DW$T$19)
TMS320C2000 Assembler PC v6.4.2 Thu Dec 14 15:26:44 2017

Tools Copyright (c) 1996-2015 Texas Instruments Incorporated
F2837xS_SysCtrl.asm                                                  PAGE  109

    5749                      .dwattr $C$DW$594, DW_AT_name("rsvd11")
    5750                      .dwattr $C$DW$594, DW_AT_TI_symbol_name("_rsvd11")
    5751                      .dwattr $C$DW$594, DW_AT_bit_offset(0x09), DW_AT_bit_size(0x01)
    5752                      .dwattr $C$DW$594, DW_AT_data_member_location[DW_OP_plus_uconst 0x1]
    5753                      .dwattr $C$DW$594, DW_AT_accessibility(DW_ACCESS_public)
    5754              $C$DW$595       .dwtag  DW_TAG_member
    5755                      .dwattr $C$DW$595, DW_AT_type(*$C$DW$T$19)
    5756                      .dwattr $C$DW$595, DW_AT_name("rsvd12")
    5757                      .dwattr $C$DW$595, DW_AT_TI_symbol_name("_rsvd12")
    5758                      .dwattr $C$DW$595, DW_AT_bit_offset(0x08), DW_AT_bit_size(0x01)
    5759                      .dwattr $C$DW$595, DW_AT_data_member_location[DW_OP_plus_uconst 0x1]
    5760                      .dwattr $C$DW$595, DW_AT_accessibility(DW_ACCESS_public)
    5761              $C$DW$596       .dwtag  DW_TAG_member
    5762                      .dwattr $C$DW$596, DW_AT_type(*$C$DW$T$19)
    5763                      .dwattr $C$DW$596, DW_AT_name("rsvd13")
    5764                      .dwattr $C$DW$596, DW_AT_TI_symbol_name("_rsvd13")
    5765                      .dwattr $C$DW$596, DW_AT_bit_offset(0x07), DW_AT_bit_size(0x01)
    5766                      .dwattr $C$DW$596, DW_AT_data_member_location[DW_OP_plus_uconst 0x1]
    5767                      .dwattr $C$DW$596, DW_AT_accessibility(DW_ACCESS_public)
    5768              $C$DW$597       .dwtag  DW_TAG_member
    5769                      .dwattr $C$DW$597, DW_AT_type(*$C$DW$T$19)
    5770                      .dwattr $C$DW$597, DW_AT_name("rsvd14")
    5771                      .dwattr $C$DW$597, DW_AT_TI_symbol_name("_rsvd14")
    5772                      .dwattr $C$DW$597, DW_AT_bit_offset(0x06), DW_AT_bit_size(0x01)
    5773                      .dwattr $C$DW$597, DW_AT_data_member_location[DW_OP_plus_uconst 0x1]
    5774                      .dwattr $C$DW$597, DW_AT_accessibility(DW_ACCESS_public)
    5775              $C$DW$598       .dwtag  DW_TAG_member
    5776                      .dwattr $C$DW$598, DW_AT_type(*$C$DW$T$19)
    5777                      .dwattr $C$DW$598, DW_AT_name("rsvd15")
    5778                      .dwattr $C$DW$598, DW_AT_TI_symbol_name("_rsvd15")
    5779                      .dwattr $C$DW$598, DW_AT_bit_offset(0x05), DW_AT_bit_size(0x01)
    5780                      .dwattr $C$DW$598, DW_AT_data_member_location[DW_OP_plus_uconst 0x1]
    5781                      .dwattr $C$DW$598, DW_AT_accessibility(DW_ACCESS_public)
    5782              $C$DW$599       .dwtag  DW_TAG_member
    5783                      .dwattr $C$DW$599, DW_AT_type(*$C$DW$T$19)
    5784                      .dwattr $C$DW$599, DW_AT_name("rsvd16")
    5785                      .dwattr $C$DW$599, DW_AT_TI_symbol_name("_rsvd16")
    5786                      .dwattr $C$DW$599, DW_AT_bit_offset(0x04), DW_AT_bit_size(0x01)
    5787                      .dwattr $C$DW$599, DW_AT_data_member_location[DW_OP_plus_uconst 0x1]
    5788                      .dwattr $C$DW$599, DW_AT_accessibility(DW_ACCESS_public)
    5789              $C$DW$600       .dwtag  DW_TAG_member
    5790                      .dwattr $C$DW$600, DW_AT_type(*$C$DW$T$19)
    5791                      .dwattr $C$DW$600, DW_AT_name("rsvd17")
    5792                      .dwattr $C$DW$600, DW_AT_TI_symbol_name("_rsvd17")
    5793                      .dwattr $C$DW$600, DW_AT_bit_offset(0x03), DW_AT_bit_size(0x01)
    5794                      .dwattr $C$DW$600, DW_AT_data_member_location[DW_OP_plus_uconst 0x1]
    5795                      .dwattr $C$DW$600, DW_AT_accessibility(DW_ACCESS_public)
    5796              $C$DW$601       .dwtag  DW_TAG_member
    5797                      .dwattr $C$DW$601, DW_AT_type(*$C$DW$T$19)
    5798                      .dwattr $C$DW$601, DW_AT_name("rsvd18")
    5799                      .dwattr $C$DW$601, DW_AT_TI_symbol_name("_rsvd18")
    5800                      .dwattr $C$DW$601, DW_AT_bit_offset(0x02), DW_AT_bit_size(0x01)
    5801                      .dwattr $C$DW$601, DW_AT_data_member_location[DW_OP_plus_uconst 0x1]
    5802                      .dwattr $C$DW$601, DW_AT_accessibility(DW_ACCESS_public)
    5803              $C$DW$602       .dwtag  DW_TAG_member
TMS320C2000 Assembler PC v6.4.2 Thu Dec 14 15:26:44 2017

Tools Copyright (c) 1996-2015 Texas Instruments Incorporated
F2837xS_SysCtrl.asm                                                  PAGE  110

    5804                      .dwattr $C$DW$602, DW_AT_type(*$C$DW$T$19)
    5805                      .dwattr $C$DW$602, DW_AT_name("rsvd19")
    5806                      .dwattr $C$DW$602, DW_AT_TI_symbol_name("_rsvd19")
    5807                      .dwattr $C$DW$602, DW_AT_bit_offset(0x01), DW_AT_bit_size(0x01)
    5808                      .dwattr $C$DW$602, DW_AT_data_member_location[DW_OP_plus_uconst 0x1]
    5809                      .dwattr $C$DW$602, DW_AT_accessibility(DW_ACCESS_public)
    5810              $C$DW$603       .dwtag  DW_TAG_member
    5811                      .dwattr $C$DW$603, DW_AT_type(*$C$DW$T$19)
    5812                      .dwattr $C$DW$603, DW_AT_name("rsvd20")
    5813                      .dwattr $C$DW$603, DW_AT_TI_symbol_name("_rsvd20")
    5814                      .dwattr $C$DW$603, DW_AT_bit_offset(0x00), DW_AT_bit_size(0x01)
    5815                      .dwattr $C$DW$603, DW_AT_data_member_location[DW_OP_plus_uconst 0x1]
    5816                      .dwattr $C$DW$603, DW_AT_accessibility(DW_ACCESS_public)
    5817                      .dwendtag $C$DW$T$117
    5818              
    5819              
    5820              $C$DW$T$118     .dwtag  DW_TAG_union_type
    5821                      .dwattr $C$DW$T$118, DW_AT_name("LOCK_REG")
    5822                      .dwattr $C$DW$T$118, DW_AT_byte_size(0x02)
    5823              $C$DW$604       .dwtag  DW_TAG_member
    5824                      .dwattr $C$DW$604, DW_AT_type(*$C$DW$T$27)
    5825                      .dwattr $C$DW$604, DW_AT_name("all")
    5826                      .dwattr $C$DW$604, DW_AT_TI_symbol_name("_all")
    5827                      .dwattr $C$DW$604, DW_AT_data_member_location[DW_OP_plus_uconst 0x0]
    5828                      .dwattr $C$DW$604, DW_AT_accessibility(DW_ACCESS_public)
    5829              $C$DW$605       .dwtag  DW_TAG_member
    5830                      .dwattr $C$DW$605, DW_AT_type(*$C$DW$T$117)
    5831                      .dwattr $C$DW$605, DW_AT_name("bit")
    5832                      .dwattr $C$DW$605, DW_AT_TI_symbol_name("_bit")
    5833                      .dwattr $C$DW$605, DW_AT_data_member_location[DW_OP_plus_uconst 0x0]
    5834                      .dwattr $C$DW$605, DW_AT_accessibility(DW_ACCESS_public)
    5835                      .dwendtag $C$DW$T$118
    5836              
    5837              
    5838              $C$DW$T$119     .dwtag  DW_TAG_structure_type
    5839                      .dwattr $C$DW$T$119, DW_AT_name("LOSPCP_BITS")
    5840                      .dwattr $C$DW$T$119, DW_AT_byte_size(0x02)
    5841              $C$DW$606       .dwtag  DW_TAG_member
    5842                      .dwattr $C$DW$606, DW_AT_type(*$C$DW$T$19)
    5843                      .dwattr $C$DW$606, DW_AT_name("LSPCLKDIV")
    5844                      .dwattr $C$DW$606, DW_AT_TI_symbol_name("_LSPCLKDIV")
    5845                      .dwattr $C$DW$606, DW_AT_bit_offset(0x0d), DW_AT_bit_size(0x03)
    5846                      .dwattr $C$DW$606, DW_AT_data_member_location[DW_OP_plus_uconst 0x0]
    5847                      .dwattr $C$DW$606, DW_AT_accessibility(DW_ACCESS_public)
    5848              $C$DW$607       .dwtag  DW_TAG_member
    5849                      .dwattr $C$DW$607, DW_AT_type(*$C$DW$T$19)
    5850                      .dwattr $C$DW$607, DW_AT_name("rsvd1")
    5851                      .dwattr $C$DW$607, DW_AT_TI_symbol_name("_rsvd1")
    5852                      .dwattr $C$DW$607, DW_AT_bit_offset(0x00), DW_AT_bit_size(0x0d)
    5853                      .dwattr $C$DW$607, DW_AT_data_member_location[DW_OP_plus_uconst 0x0]
    5854                      .dwattr $C$DW$607, DW_AT_accessibility(DW_ACCESS_public)
    5855              $C$DW$608       .dwtag  DW_TAG_member
    5856                      .dwattr $C$DW$608, DW_AT_type(*$C$DW$T$19)
    5857                      .dwattr $C$DW$608, DW_AT_name("rsvd2")
    5858                      .dwattr $C$DW$608, DW_AT_TI_symbol_name("_rsvd2")
TMS320C2000 Assembler PC v6.4.2 Thu Dec 14 15:26:44 2017

Tools Copyright (c) 1996-2015 Texas Instruments Incorporated
F2837xS_SysCtrl.asm                                                  PAGE  111

    5859                      .dwattr $C$DW$608, DW_AT_bit_offset(0x00), DW_AT_bit_size(0x10)
    5860                      .dwattr $C$DW$608, DW_AT_data_member_location[DW_OP_plus_uconst 0x1]
    5861                      .dwattr $C$DW$608, DW_AT_accessibility(DW_ACCESS_public)
    5862                      .dwendtag $C$DW$T$119
    5863              
    5864              
    5865              $C$DW$T$120     .dwtag  DW_TAG_union_type
    5866                      .dwattr $C$DW$T$120, DW_AT_name("LOSPCP_REG")
    5867                      .dwattr $C$DW$T$120, DW_AT_byte_size(0x02)
    5868              $C$DW$609       .dwtag  DW_TAG_member
    5869                      .dwattr $C$DW$609, DW_AT_type(*$C$DW$T$27)
    5870                      .dwattr $C$DW$609, DW_AT_name("all")
    5871                      .dwattr $C$DW$609, DW_AT_TI_symbol_name("_all")
    5872                      .dwattr $C$DW$609, DW_AT_data_member_location[DW_OP_plus_uconst 0x0]
    5873                      .dwattr $C$DW$609, DW_AT_accessibility(DW_ACCESS_public)
    5874              $C$DW$610       .dwtag  DW_TAG_member
    5875                      .dwattr $C$DW$610, DW_AT_type(*$C$DW$T$119)
    5876                      .dwattr $C$DW$610, DW_AT_name("bit")
    5877                      .dwattr $C$DW$610, DW_AT_TI_symbol_name("_bit")
    5878                      .dwattr $C$DW$610, DW_AT_data_member_location[DW_OP_plus_uconst 0x0]
    5879                      .dwattr $C$DW$610, DW_AT_accessibility(DW_ACCESS_public)
    5880                      .dwendtag $C$DW$T$120
    5881              
    5882              
    5883              $C$DW$T$121     .dwtag  DW_TAG_structure_type
    5884                      .dwattr $C$DW$T$121, DW_AT_name("LPMCR_BITS")
    5885                      .dwattr $C$DW$T$121, DW_AT_byte_size(0x02)
    5886              $C$DW$611       .dwtag  DW_TAG_member
    5887                      .dwattr $C$DW$611, DW_AT_type(*$C$DW$T$19)
    5888                      .dwattr $C$DW$611, DW_AT_name("LPM")
    5889                      .dwattr $C$DW$611, DW_AT_TI_symbol_name("_LPM")
    5890                      .dwattr $C$DW$611, DW_AT_bit_offset(0x0e), DW_AT_bit_size(0x02)
    5891                      .dwattr $C$DW$611, DW_AT_data_member_location[DW_OP_plus_uconst 0x0]
    5892                      .dwattr $C$DW$611, DW_AT_accessibility(DW_ACCESS_public)
    5893              $C$DW$612       .dwtag  DW_TAG_member
    5894                      .dwattr $C$DW$612, DW_AT_type(*$C$DW$T$19)
    5895                      .dwattr $C$DW$612, DW_AT_name("QUALSTDBY")
    5896                      .dwattr $C$DW$612, DW_AT_TI_symbol_name("_QUALSTDBY")
    5897                      .dwattr $C$DW$612, DW_AT_bit_offset(0x08), DW_AT_bit_size(0x06)
    5898                      .dwattr $C$DW$612, DW_AT_data_member_location[DW_OP_plus_uconst 0x0]
    5899                      .dwattr $C$DW$612, DW_AT_accessibility(DW_ACCESS_public)
    5900              $C$DW$613       .dwtag  DW_TAG_member
    5901                      .dwattr $C$DW$613, DW_AT_type(*$C$DW$T$19)
    5902                      .dwattr $C$DW$613, DW_AT_name("rsvd1")
    5903                      .dwattr $C$DW$613, DW_AT_TI_symbol_name("_rsvd1")
    5904                      .dwattr $C$DW$613, DW_AT_bit_offset(0x01), DW_AT_bit_size(0x07)
    5905                      .dwattr $C$DW$613, DW_AT_data_member_location[DW_OP_plus_uconst 0x0]
    5906                      .dwattr $C$DW$613, DW_AT_accessibility(DW_ACCESS_public)
    5907              $C$DW$614       .dwtag  DW_TAG_member
    5908                      .dwattr $C$DW$614, DW_AT_type(*$C$DW$T$19)
    5909                      .dwattr $C$DW$614, DW_AT_name("WDINTE")
    5910                      .dwattr $C$DW$614, DW_AT_TI_symbol_name("_WDINTE")
    5911                      .dwattr $C$DW$614, DW_AT_bit_offset(0x00), DW_AT_bit_size(0x01)
    5912                      .dwattr $C$DW$614, DW_AT_data_member_location[DW_OP_plus_uconst 0x0]
    5913                      .dwattr $C$DW$614, DW_AT_accessibility(DW_ACCESS_public)
TMS320C2000 Assembler PC v6.4.2 Thu Dec 14 15:26:44 2017

Tools Copyright (c) 1996-2015 Texas Instruments Incorporated
F2837xS_SysCtrl.asm                                                  PAGE  112

    5914              $C$DW$615       .dwtag  DW_TAG_member
    5915                      .dwattr $C$DW$615, DW_AT_type(*$C$DW$T$19)
    5916                      .dwattr $C$DW$615, DW_AT_name("M0M1MODE")
    5917                      .dwattr $C$DW$615, DW_AT_TI_symbol_name("_M0M1MODE")
    5918                      .dwattr $C$DW$615, DW_AT_bit_offset(0x0e), DW_AT_bit_size(0x02)
    5919                      .dwattr $C$DW$615, DW_AT_data_member_location[DW_OP_plus_uconst 0x1]
    5920                      .dwattr $C$DW$615, DW_AT_accessibility(DW_ACCESS_public)
    5921              $C$DW$616       .dwtag  DW_TAG_member
    5922                      .dwattr $C$DW$616, DW_AT_type(*$C$DW$T$19)
    5923                      .dwattr $C$DW$616, DW_AT_name("rsvd2")
    5924                      .dwattr $C$DW$616, DW_AT_TI_symbol_name("_rsvd2")
    5925                      .dwattr $C$DW$616, DW_AT_bit_offset(0x01), DW_AT_bit_size(0x0d)
    5926                      .dwattr $C$DW$616, DW_AT_data_member_location[DW_OP_plus_uconst 0x1]
    5927                      .dwattr $C$DW$616, DW_AT_accessibility(DW_ACCESS_public)
    5928              $C$DW$617       .dwtag  DW_TAG_member
    5929                      .dwattr $C$DW$617, DW_AT_type(*$C$DW$T$19)
    5930                      .dwattr $C$DW$617, DW_AT_name("IOISODIS")
    5931                      .dwattr $C$DW$617, DW_AT_TI_symbol_name("_IOISODIS")
    5932                      .dwattr $C$DW$617, DW_AT_bit_offset(0x00), DW_AT_bit_size(0x01)
    5933                      .dwattr $C$DW$617, DW_AT_data_member_location[DW_OP_plus_uconst 0x1]
    5934                      .dwattr $C$DW$617, DW_AT_accessibility(DW_ACCESS_public)
    5935                      .dwendtag $C$DW$T$121
    5936              
    5937              
    5938              $C$DW$T$122     .dwtag  DW_TAG_union_type
    5939                      .dwattr $C$DW$T$122, DW_AT_name("LPMCR_REG")
    5940                      .dwattr $C$DW$T$122, DW_AT_byte_size(0x02)
    5941              $C$DW$618       .dwtag  DW_TAG_member
    5942                      .dwattr $C$DW$618, DW_AT_type(*$C$DW$T$27)
    5943                      .dwattr $C$DW$618, DW_AT_name("all")
    5944                      .dwattr $C$DW$618, DW_AT_TI_symbol_name("_all")
    5945                      .dwattr $C$DW$618, DW_AT_data_member_location[DW_OP_plus_uconst 0x0]
    5946                      .dwattr $C$DW$618, DW_AT_accessibility(DW_ACCESS_public)
    5947              $C$DW$619       .dwtag  DW_TAG_member
    5948                      .dwattr $C$DW$619, DW_AT_type(*$C$DW$T$121)
    5949                      .dwattr $C$DW$619, DW_AT_name("bit")
    5950                      .dwattr $C$DW$619, DW_AT_TI_symbol_name("_bit")
    5951                      .dwattr $C$DW$619, DW_AT_data_member_location[DW_OP_plus_uconst 0x0]
    5952                      .dwattr $C$DW$619, DW_AT_accessibility(DW_ACCESS_public)
    5953                      .dwendtag $C$DW$T$122
    5954              
    5955              
    5956              $C$DW$T$123     .dwtag  DW_TAG_structure_type
    5957                      .dwattr $C$DW$T$123, DW_AT_name("MCDCR_BITS")
    5958                      .dwattr $C$DW$T$123, DW_AT_byte_size(0x02)
    5959              $C$DW$620       .dwtag  DW_TAG_member
    5960                      .dwattr $C$DW$620, DW_AT_type(*$C$DW$T$19)
    5961                      .dwattr $C$DW$620, DW_AT_name("MCLKSTS")
    5962                      .dwattr $C$DW$620, DW_AT_TI_symbol_name("_MCLKSTS")
    5963                      .dwattr $C$DW$620, DW_AT_bit_offset(0x0f), DW_AT_bit_size(0x01)
    5964                      .dwattr $C$DW$620, DW_AT_data_member_location[DW_OP_plus_uconst 0x0]
    5965                      .dwattr $C$DW$620, DW_AT_accessibility(DW_ACCESS_public)
    5966              $C$DW$621       .dwtag  DW_TAG_member
    5967                      .dwattr $C$DW$621, DW_AT_type(*$C$DW$T$19)
    5968                      .dwattr $C$DW$621, DW_AT_name("MCLKCLR")
TMS320C2000 Assembler PC v6.4.2 Thu Dec 14 15:26:44 2017

Tools Copyright (c) 1996-2015 Texas Instruments Incorporated
F2837xS_SysCtrl.asm                                                  PAGE  113

    5969                      .dwattr $C$DW$621, DW_AT_TI_symbol_name("_MCLKCLR")
    5970                      .dwattr $C$DW$621, DW_AT_bit_offset(0x0e), DW_AT_bit_size(0x01)
    5971                      .dwattr $C$DW$621, DW_AT_data_member_location[DW_OP_plus_uconst 0x0]
    5972                      .dwattr $C$DW$621, DW_AT_accessibility(DW_ACCESS_public)
    5973              $C$DW$622       .dwtag  DW_TAG_member
    5974                      .dwattr $C$DW$622, DW_AT_type(*$C$DW$T$19)
    5975                      .dwattr $C$DW$622, DW_AT_name("MCLKOFF")
    5976                      .dwattr $C$DW$622, DW_AT_TI_symbol_name("_MCLKOFF")
    5977                      .dwattr $C$DW$622, DW_AT_bit_offset(0x0d), DW_AT_bit_size(0x01)
    5978                      .dwattr $C$DW$622, DW_AT_data_member_location[DW_OP_plus_uconst 0x0]
    5979                      .dwattr $C$DW$622, DW_AT_accessibility(DW_ACCESS_public)
    5980              $C$DW$623       .dwtag  DW_TAG_member
    5981                      .dwattr $C$DW$623, DW_AT_type(*$C$DW$T$19)
    5982                      .dwattr $C$DW$623, DW_AT_name("OSCOFF")
    5983                      .dwattr $C$DW$623, DW_AT_TI_symbol_name("_OSCOFF")
    5984                      .dwattr $C$DW$623, DW_AT_bit_offset(0x0c), DW_AT_bit_size(0x01)
    5985                      .dwattr $C$DW$623, DW_AT_data_member_location[DW_OP_plus_uconst 0x0]
    5986                      .dwattr $C$DW$623, DW_AT_accessibility(DW_ACCESS_public)
    5987              $C$DW$624       .dwtag  DW_TAG_member
    5988                      .dwattr $C$DW$624, DW_AT_type(*$C$DW$T$19)
    5989                      .dwattr $C$DW$624, DW_AT_name("rsvd1")
    5990                      .dwattr $C$DW$624, DW_AT_TI_symbol_name("_rsvd1")
    5991                      .dwattr $C$DW$624, DW_AT_bit_offset(0x00), DW_AT_bit_size(0x0c)
    5992                      .dwattr $C$DW$624, DW_AT_data_member_location[DW_OP_plus_uconst 0x0]
    5993                      .dwattr $C$DW$624, DW_AT_accessibility(DW_ACCESS_public)
    5994              $C$DW$625       .dwtag  DW_TAG_member
    5995                      .dwattr $C$DW$625, DW_AT_type(*$C$DW$T$19)
    5996                      .dwattr $C$DW$625, DW_AT_name("rsvd2")
    5997                      .dwattr $C$DW$625, DW_AT_TI_symbol_name("_rsvd2")
    5998                      .dwattr $C$DW$625, DW_AT_bit_offset(0x00), DW_AT_bit_size(0x10)
    5999                      .dwattr $C$DW$625, DW_AT_data_member_location[DW_OP_plus_uconst 0x1]
    6000                      .dwattr $C$DW$625, DW_AT_accessibility(DW_ACCESS_public)
    6001                      .dwendtag $C$DW$T$123
    6002              
    6003              
    6004              $C$DW$T$124     .dwtag  DW_TAG_union_type
    6005                      .dwattr $C$DW$T$124, DW_AT_name("MCDCR_REG")
    6006                      .dwattr $C$DW$T$124, DW_AT_byte_size(0x02)
    6007              $C$DW$626       .dwtag  DW_TAG_member
    6008                      .dwattr $C$DW$626, DW_AT_type(*$C$DW$T$27)
    6009                      .dwattr $C$DW$626, DW_AT_name("all")
    6010                      .dwattr $C$DW$626, DW_AT_TI_symbol_name("_all")
    6011                      .dwattr $C$DW$626, DW_AT_data_member_location[DW_OP_plus_uconst 0x0]
    6012                      .dwattr $C$DW$626, DW_AT_accessibility(DW_ACCESS_public)
    6013              $C$DW$627       .dwtag  DW_TAG_member
    6014                      .dwattr $C$DW$627, DW_AT_type(*$C$DW$T$123)
    6015                      .dwattr $C$DW$627, DW_AT_name("bit")
    6016                      .dwattr $C$DW$627, DW_AT_TI_symbol_name("_bit")
    6017                      .dwattr $C$DW$627, DW_AT_data_member_location[DW_OP_plus_uconst 0x0]
    6018                      .dwattr $C$DW$627, DW_AT_accessibility(DW_ACCESS_public)
    6019                      .dwendtag $C$DW$T$124
    6020              
    6021              
    6022              $C$DW$T$125     .dwtag  DW_TAG_structure_type
    6023                      .dwattr $C$DW$T$125, DW_AT_name("PCLKCR0_BITS")
TMS320C2000 Assembler PC v6.4.2 Thu Dec 14 15:26:44 2017

Tools Copyright (c) 1996-2015 Texas Instruments Incorporated
F2837xS_SysCtrl.asm                                                  PAGE  114

    6024                      .dwattr $C$DW$T$125, DW_AT_byte_size(0x02)
    6025              $C$DW$628       .dwtag  DW_TAG_member
    6026                      .dwattr $C$DW$628, DW_AT_type(*$C$DW$T$19)
    6027                      .dwattr $C$DW$628, DW_AT_name("CLA1")
    6028                      .dwattr $C$DW$628, DW_AT_TI_symbol_name("_CLA1")
    6029                      .dwattr $C$DW$628, DW_AT_bit_offset(0x0f), DW_AT_bit_size(0x01)
    6030                      .dwattr $C$DW$628, DW_AT_data_member_location[DW_OP_plus_uconst 0x0]
    6031                      .dwattr $C$DW$628, DW_AT_accessibility(DW_ACCESS_public)
    6032              $C$DW$629       .dwtag  DW_TAG_member
    6033                      .dwattr $C$DW$629, DW_AT_type(*$C$DW$T$19)
    6034                      .dwattr $C$DW$629, DW_AT_name("rsvd1")
    6035                      .dwattr $C$DW$629, DW_AT_TI_symbol_name("_rsvd1")
    6036                      .dwattr $C$DW$629, DW_AT_bit_offset(0x0e), DW_AT_bit_size(0x01)
    6037                      .dwattr $C$DW$629, DW_AT_data_member_location[DW_OP_plus_uconst 0x0]
    6038                      .dwattr $C$DW$629, DW_AT_accessibility(DW_ACCESS_public)
    6039              $C$DW$630       .dwtag  DW_TAG_member
    6040                      .dwattr $C$DW$630, DW_AT_type(*$C$DW$T$19)
    6041                      .dwattr $C$DW$630, DW_AT_name("DMA")
    6042                      .dwattr $C$DW$630, DW_AT_TI_symbol_name("_DMA")
    6043                      .dwattr $C$DW$630, DW_AT_bit_offset(0x0d), DW_AT_bit_size(0x01)
    6044                      .dwattr $C$DW$630, DW_AT_data_member_location[DW_OP_plus_uconst 0x0]
    6045                      .dwattr $C$DW$630, DW_AT_accessibility(DW_ACCESS_public)
    6046              $C$DW$631       .dwtag  DW_TAG_member
    6047                      .dwattr $C$DW$631, DW_AT_type(*$C$DW$T$19)
    6048                      .dwattr $C$DW$631, DW_AT_name("CPUTIMER0")
    6049                      .dwattr $C$DW$631, DW_AT_TI_symbol_name("_CPUTIMER0")
    6050                      .dwattr $C$DW$631, DW_AT_bit_offset(0x0c), DW_AT_bit_size(0x01)
    6051                      .dwattr $C$DW$631, DW_AT_data_member_location[DW_OP_plus_uconst 0x0]
    6052                      .dwattr $C$DW$631, DW_AT_accessibility(DW_ACCESS_public)
    6053              $C$DW$632       .dwtag  DW_TAG_member
    6054                      .dwattr $C$DW$632, DW_AT_type(*$C$DW$T$19)
    6055                      .dwattr $C$DW$632, DW_AT_name("CPUTIMER1")
    6056                      .dwattr $C$DW$632, DW_AT_TI_symbol_name("_CPUTIMER1")
    6057                      .dwattr $C$DW$632, DW_AT_bit_offset(0x0b), DW_AT_bit_size(0x01)
    6058                      .dwattr $C$DW$632, DW_AT_data_member_location[DW_OP_plus_uconst 0x0]
    6059                      .dwattr $C$DW$632, DW_AT_accessibility(DW_ACCESS_public)
    6060              $C$DW$633       .dwtag  DW_TAG_member
    6061                      .dwattr $C$DW$633, DW_AT_type(*$C$DW$T$19)
    6062                      .dwattr $C$DW$633, DW_AT_name("CPUTIMER2")
    6063                      .dwattr $C$DW$633, DW_AT_TI_symbol_name("_CPUTIMER2")
    6064                      .dwattr $C$DW$633, DW_AT_bit_offset(0x0a), DW_AT_bit_size(0x01)
    6065                      .dwattr $C$DW$633, DW_AT_data_member_location[DW_OP_plus_uconst 0x0]
    6066                      .dwattr $C$DW$633, DW_AT_accessibility(DW_ACCESS_public)
    6067              $C$DW$634       .dwtag  DW_TAG_member
    6068                      .dwattr $C$DW$634, DW_AT_type(*$C$DW$T$19)
    6069                      .dwattr $C$DW$634, DW_AT_name("rsvd2")
    6070                      .dwattr $C$DW$634, DW_AT_TI_symbol_name("_rsvd2")
    6071                      .dwattr $C$DW$634, DW_AT_bit_offset(0x00), DW_AT_bit_size(0x0a)
    6072                      .dwattr $C$DW$634, DW_AT_data_member_location[DW_OP_plus_uconst 0x0]
    6073                      .dwattr $C$DW$634, DW_AT_accessibility(DW_ACCESS_public)
    6074              $C$DW$635       .dwtag  DW_TAG_member
    6075                      .dwattr $C$DW$635, DW_AT_type(*$C$DW$T$19)
    6076                      .dwattr $C$DW$635, DW_AT_name("HRPWM")
    6077                      .dwattr $C$DW$635, DW_AT_TI_symbol_name("_HRPWM")
    6078                      .dwattr $C$DW$635, DW_AT_bit_offset(0x0f), DW_AT_bit_size(0x01)
TMS320C2000 Assembler PC v6.4.2 Thu Dec 14 15:26:44 2017

Tools Copyright (c) 1996-2015 Texas Instruments Incorporated
F2837xS_SysCtrl.asm                                                  PAGE  115

    6079                      .dwattr $C$DW$635, DW_AT_data_member_location[DW_OP_plus_uconst 0x1]
    6080                      .dwattr $C$DW$635, DW_AT_accessibility(DW_ACCESS_public)
    6081              $C$DW$636       .dwtag  DW_TAG_member
    6082                      .dwattr $C$DW$636, DW_AT_type(*$C$DW$T$19)
    6083                      .dwattr $C$DW$636, DW_AT_name("rsvd3")
    6084                      .dwattr $C$DW$636, DW_AT_TI_symbol_name("_rsvd3")
    6085                      .dwattr $C$DW$636, DW_AT_bit_offset(0x0e), DW_AT_bit_size(0x01)
    6086                      .dwattr $C$DW$636, DW_AT_data_member_location[DW_OP_plus_uconst 0x1]
    6087                      .dwattr $C$DW$636, DW_AT_accessibility(DW_ACCESS_public)
    6088              $C$DW$637       .dwtag  DW_TAG_member
    6089                      .dwattr $C$DW$637, DW_AT_type(*$C$DW$T$19)
    6090                      .dwattr $C$DW$637, DW_AT_name("TBCLKSYNC")
    6091                      .dwattr $C$DW$637, DW_AT_TI_symbol_name("_TBCLKSYNC")
    6092                      .dwattr $C$DW$637, DW_AT_bit_offset(0x0d), DW_AT_bit_size(0x01)
    6093                      .dwattr $C$DW$637, DW_AT_data_member_location[DW_OP_plus_uconst 0x1]
    6094                      .dwattr $C$DW$637, DW_AT_accessibility(DW_ACCESS_public)
    6095              $C$DW$638       .dwtag  DW_TAG_member
    6096                      .dwattr $C$DW$638, DW_AT_type(*$C$DW$T$19)
    6097                      .dwattr $C$DW$638, DW_AT_name("rsvd4")
    6098                      .dwattr $C$DW$638, DW_AT_TI_symbol_name("_rsvd4")
    6099                      .dwattr $C$DW$638, DW_AT_bit_offset(0x0c), DW_AT_bit_size(0x01)
    6100                      .dwattr $C$DW$638, DW_AT_data_member_location[DW_OP_plus_uconst 0x1]
    6101                      .dwattr $C$DW$638, DW_AT_accessibility(DW_ACCESS_public)
    6102              $C$DW$639       .dwtag  DW_TAG_member
    6103                      .dwattr $C$DW$639, DW_AT_type(*$C$DW$T$19)
    6104                      .dwattr $C$DW$639, DW_AT_name("rsvd5")
    6105                      .dwattr $C$DW$639, DW_AT_TI_symbol_name("_rsvd5")
    6106                      .dwattr $C$DW$639, DW_AT_bit_offset(0x00), DW_AT_bit_size(0x0c)
    6107                      .dwattr $C$DW$639, DW_AT_data_member_location[DW_OP_plus_uconst 0x1]
    6108                      .dwattr $C$DW$639, DW_AT_accessibility(DW_ACCESS_public)
    6109                      .dwendtag $C$DW$T$125
    6110              
    6111              
    6112              $C$DW$T$126     .dwtag  DW_TAG_union_type
    6113                      .dwattr $C$DW$T$126, DW_AT_name("PCLKCR0_REG")
    6114                      .dwattr $C$DW$T$126, DW_AT_byte_size(0x02)
    6115              $C$DW$640       .dwtag  DW_TAG_member
    6116                      .dwattr $C$DW$640, DW_AT_type(*$C$DW$T$27)
    6117                      .dwattr $C$DW$640, DW_AT_name("all")
    6118                      .dwattr $C$DW$640, DW_AT_TI_symbol_name("_all")
    6119                      .dwattr $C$DW$640, DW_AT_data_member_location[DW_OP_plus_uconst 0x0]
    6120                      .dwattr $C$DW$640, DW_AT_accessibility(DW_ACCESS_public)
    6121              $C$DW$641       .dwtag  DW_TAG_member
    6122                      .dwattr $C$DW$641, DW_AT_type(*$C$DW$T$125)
    6123                      .dwattr $C$DW$641, DW_AT_name("bit")
    6124                      .dwattr $C$DW$641, DW_AT_TI_symbol_name("_bit")
    6125                      .dwattr $C$DW$641, DW_AT_data_member_location[DW_OP_plus_uconst 0x0]
    6126                      .dwattr $C$DW$641, DW_AT_accessibility(DW_ACCESS_public)
    6127                      .dwendtag $C$DW$T$126
    6128              
    6129              
    6130              $C$DW$T$127     .dwtag  DW_TAG_structure_type
    6131                      .dwattr $C$DW$T$127, DW_AT_name("PCLKCR10_BITS")
    6132                      .dwattr $C$DW$T$127, DW_AT_byte_size(0x02)
    6133              $C$DW$642       .dwtag  DW_TAG_member
TMS320C2000 Assembler PC v6.4.2 Thu Dec 14 15:26:44 2017

Tools Copyright (c) 1996-2015 Texas Instruments Incorporated
F2837xS_SysCtrl.asm                                                  PAGE  116

    6134                      .dwattr $C$DW$642, DW_AT_type(*$C$DW$T$19)
    6135                      .dwattr $C$DW$642, DW_AT_name("CAN_A")
    6136                      .dwattr $C$DW$642, DW_AT_TI_symbol_name("_CAN_A")
    6137                      .dwattr $C$DW$642, DW_AT_bit_offset(0x0f), DW_AT_bit_size(0x01)
    6138                      .dwattr $C$DW$642, DW_AT_data_member_location[DW_OP_plus_uconst 0x0]
    6139                      .dwattr $C$DW$642, DW_AT_accessibility(DW_ACCESS_public)
    6140              $C$DW$643       .dwtag  DW_TAG_member
    6141                      .dwattr $C$DW$643, DW_AT_type(*$C$DW$T$19)
    6142                      .dwattr $C$DW$643, DW_AT_name("CAN_B")
    6143                      .dwattr $C$DW$643, DW_AT_TI_symbol_name("_CAN_B")
    6144                      .dwattr $C$DW$643, DW_AT_bit_offset(0x0e), DW_AT_bit_size(0x01)
    6145                      .dwattr $C$DW$643, DW_AT_data_member_location[DW_OP_plus_uconst 0x0]
    6146                      .dwattr $C$DW$643, DW_AT_accessibility(DW_ACCESS_public)
    6147              $C$DW$644       .dwtag  DW_TAG_member
    6148                      .dwattr $C$DW$644, DW_AT_type(*$C$DW$T$19)
    6149                      .dwattr $C$DW$644, DW_AT_name("rsvd1")
    6150                      .dwattr $C$DW$644, DW_AT_TI_symbol_name("_rsvd1")
    6151                      .dwattr $C$DW$644, DW_AT_bit_offset(0x0d), DW_AT_bit_size(0x01)
    6152                      .dwattr $C$DW$644, DW_AT_data_member_location[DW_OP_plus_uconst 0x0]
    6153                      .dwattr $C$DW$644, DW_AT_accessibility(DW_ACCESS_public)
    6154              $C$DW$645       .dwtag  DW_TAG_member
    6155                      .dwattr $C$DW$645, DW_AT_type(*$C$DW$T$19)
    6156                      .dwattr $C$DW$645, DW_AT_name("rsvd2")
    6157                      .dwattr $C$DW$645, DW_AT_TI_symbol_name("_rsvd2")
    6158                      .dwattr $C$DW$645, DW_AT_bit_offset(0x0c), DW_AT_bit_size(0x01)
    6159                      .dwattr $C$DW$645, DW_AT_data_member_location[DW_OP_plus_uconst 0x0]
    6160                      .dwattr $C$DW$645, DW_AT_accessibility(DW_ACCESS_public)
    6161              $C$DW$646       .dwtag  DW_TAG_member
    6162                      .dwattr $C$DW$646, DW_AT_type(*$C$DW$T$19)
    6163                      .dwattr $C$DW$646, DW_AT_name("rsvd3")
    6164                      .dwattr $C$DW$646, DW_AT_TI_symbol_name("_rsvd3")
    6165                      .dwattr $C$DW$646, DW_AT_bit_offset(0x00), DW_AT_bit_size(0x0c)
    6166                      .dwattr $C$DW$646, DW_AT_data_member_location[DW_OP_plus_uconst 0x0]
    6167                      .dwattr $C$DW$646, DW_AT_accessibility(DW_ACCESS_public)
    6168              $C$DW$647       .dwtag  DW_TAG_member
    6169                      .dwattr $C$DW$647, DW_AT_type(*$C$DW$T$19)
    6170                      .dwattr $C$DW$647, DW_AT_name("rsvd4")
    6171                      .dwattr $C$DW$647, DW_AT_TI_symbol_name("_rsvd4")
    6172                      .dwattr $C$DW$647, DW_AT_bit_offset(0x00), DW_AT_bit_size(0x10)
    6173                      .dwattr $C$DW$647, DW_AT_data_member_location[DW_OP_plus_uconst 0x1]
    6174                      .dwattr $C$DW$647, DW_AT_accessibility(DW_ACCESS_public)
    6175                      .dwendtag $C$DW$T$127
    6176              
    6177              
    6178              $C$DW$T$128     .dwtag  DW_TAG_union_type
    6179                      .dwattr $C$DW$T$128, DW_AT_name("PCLKCR10_REG")
    6180                      .dwattr $C$DW$T$128, DW_AT_byte_size(0x02)
    6181              $C$DW$648       .dwtag  DW_TAG_member
    6182                      .dwattr $C$DW$648, DW_AT_type(*$C$DW$T$27)
    6183                      .dwattr $C$DW$648, DW_AT_name("all")
    6184                      .dwattr $C$DW$648, DW_AT_TI_symbol_name("_all")
    6185                      .dwattr $C$DW$648, DW_AT_data_member_location[DW_OP_plus_uconst 0x0]
    6186                      .dwattr $C$DW$648, DW_AT_accessibility(DW_ACCESS_public)
    6187              $C$DW$649       .dwtag  DW_TAG_member
    6188                      .dwattr $C$DW$649, DW_AT_type(*$C$DW$T$127)
TMS320C2000 Assembler PC v6.4.2 Thu Dec 14 15:26:44 2017

Tools Copyright (c) 1996-2015 Texas Instruments Incorporated
F2837xS_SysCtrl.asm                                                  PAGE  117

    6189                      .dwattr $C$DW$649, DW_AT_name("bit")
    6190                      .dwattr $C$DW$649, DW_AT_TI_symbol_name("_bit")
    6191                      .dwattr $C$DW$649, DW_AT_data_member_location[DW_OP_plus_uconst 0x0]
    6192                      .dwattr $C$DW$649, DW_AT_accessibility(DW_ACCESS_public)
    6193                      .dwendtag $C$DW$T$128
    6194              
    6195              
    6196              $C$DW$T$129     .dwtag  DW_TAG_structure_type
    6197                      .dwattr $C$DW$T$129, DW_AT_name("PCLKCR11_BITS")
    6198                      .dwattr $C$DW$T$129, DW_AT_byte_size(0x02)
    6199              $C$DW$650       .dwtag  DW_TAG_member
    6200                      .dwattr $C$DW$650, DW_AT_type(*$C$DW$T$19)
    6201                      .dwattr $C$DW$650, DW_AT_name("McBSP_A")
    6202                      .dwattr $C$DW$650, DW_AT_TI_symbol_name("_McBSP_A")
    6203                      .dwattr $C$DW$650, DW_AT_bit_offset(0x0f), DW_AT_bit_size(0x01)
    6204                      .dwattr $C$DW$650, DW_AT_data_member_location[DW_OP_plus_uconst 0x0]
    6205                      .dwattr $C$DW$650, DW_AT_accessibility(DW_ACCESS_public)
    6206              $C$DW$651       .dwtag  DW_TAG_member
    6207                      .dwattr $C$DW$651, DW_AT_type(*$C$DW$T$19)
    6208                      .dwattr $C$DW$651, DW_AT_name("McBSP_B")
    6209                      .dwattr $C$DW$651, DW_AT_TI_symbol_name("_McBSP_B")
    6210                      .dwattr $C$DW$651, DW_AT_bit_offset(0x0e), DW_AT_bit_size(0x01)
    6211                      .dwattr $C$DW$651, DW_AT_data_member_location[DW_OP_plus_uconst 0x0]
    6212                      .dwattr $C$DW$651, DW_AT_accessibility(DW_ACCESS_public)
    6213              $C$DW$652       .dwtag  DW_TAG_member
    6214                      .dwattr $C$DW$652, DW_AT_type(*$C$DW$T$19)
    6215                      .dwattr $C$DW$652, DW_AT_name("rsvd1")
    6216                      .dwattr $C$DW$652, DW_AT_TI_symbol_name("_rsvd1")
    6217                      .dwattr $C$DW$652, DW_AT_bit_offset(0x00), DW_AT_bit_size(0x0e)
    6218                      .dwattr $C$DW$652, DW_AT_data_member_location[DW_OP_plus_uconst 0x0]
    6219                      .dwattr $C$DW$652, DW_AT_accessibility(DW_ACCESS_public)
    6220              $C$DW$653       .dwtag  DW_TAG_member
    6221                      .dwattr $C$DW$653, DW_AT_type(*$C$DW$T$19)
    6222                      .dwattr $C$DW$653, DW_AT_name("USB_A")
    6223                      .dwattr $C$DW$653, DW_AT_TI_symbol_name("_USB_A")
    6224                      .dwattr $C$DW$653, DW_AT_bit_offset(0x0f), DW_AT_bit_size(0x01)
    6225                      .dwattr $C$DW$653, DW_AT_data_member_location[DW_OP_plus_uconst 0x1]
    6226                      .dwattr $C$DW$653, DW_AT_accessibility(DW_ACCESS_public)
    6227              $C$DW$654       .dwtag  DW_TAG_member
    6228                      .dwattr $C$DW$654, DW_AT_type(*$C$DW$T$19)
    6229                      .dwattr $C$DW$654, DW_AT_name("rsvd2")
    6230                      .dwattr $C$DW$654, DW_AT_TI_symbol_name("_rsvd2")
    6231                      .dwattr $C$DW$654, DW_AT_bit_offset(0x0e), DW_AT_bit_size(0x01)
    6232                      .dwattr $C$DW$654, DW_AT_data_member_location[DW_OP_plus_uconst 0x1]
    6233                      .dwattr $C$DW$654, DW_AT_accessibility(DW_ACCESS_public)
    6234              $C$DW$655       .dwtag  DW_TAG_member
    6235                      .dwattr $C$DW$655, DW_AT_type(*$C$DW$T$19)
    6236                      .dwattr $C$DW$655, DW_AT_name("rsvd3")
    6237                      .dwattr $C$DW$655, DW_AT_TI_symbol_name("_rsvd3")
    6238                      .dwattr $C$DW$655, DW_AT_bit_offset(0x00), DW_AT_bit_size(0x0e)
    6239                      .dwattr $C$DW$655, DW_AT_data_member_location[DW_OP_plus_uconst 0x1]
    6240                      .dwattr $C$DW$655, DW_AT_accessibility(DW_ACCESS_public)
    6241                      .dwendtag $C$DW$T$129
    6242              
    6243              
TMS320C2000 Assembler PC v6.4.2 Thu Dec 14 15:26:44 2017

Tools Copyright (c) 1996-2015 Texas Instruments Incorporated
F2837xS_SysCtrl.asm                                                  PAGE  118

    6244              $C$DW$T$130     .dwtag  DW_TAG_union_type
    6245                      .dwattr $C$DW$T$130, DW_AT_name("PCLKCR11_REG")
    6246                      .dwattr $C$DW$T$130, DW_AT_byte_size(0x02)
    6247              $C$DW$656       .dwtag  DW_TAG_member
    6248                      .dwattr $C$DW$656, DW_AT_type(*$C$DW$T$27)
    6249                      .dwattr $C$DW$656, DW_AT_name("all")
    6250                      .dwattr $C$DW$656, DW_AT_TI_symbol_name("_all")
    6251                      .dwattr $C$DW$656, DW_AT_data_member_location[DW_OP_plus_uconst 0x0]
    6252                      .dwattr $C$DW$656, DW_AT_accessibility(DW_ACCESS_public)
    6253              $C$DW$657       .dwtag  DW_TAG_member
    6254                      .dwattr $C$DW$657, DW_AT_type(*$C$DW$T$129)
    6255                      .dwattr $C$DW$657, DW_AT_name("bit")
    6256                      .dwattr $C$DW$657, DW_AT_TI_symbol_name("_bit")
    6257                      .dwattr $C$DW$657, DW_AT_data_member_location[DW_OP_plus_uconst 0x0]
    6258                      .dwattr $C$DW$657, DW_AT_accessibility(DW_ACCESS_public)
    6259                      .dwendtag $C$DW$T$130
    6260              
    6261              
    6262              $C$DW$T$131     .dwtag  DW_TAG_structure_type
    6263                      .dwattr $C$DW$T$131, DW_AT_name("PCLKCR12_BITS")
    6264                      .dwattr $C$DW$T$131, DW_AT_byte_size(0x02)
    6265              $C$DW$658       .dwtag  DW_TAG_member
    6266                      .dwattr $C$DW$658, DW_AT_type(*$C$DW$T$19)
    6267                      .dwattr $C$DW$658, DW_AT_name("uPP_A")
    6268                      .dwattr $C$DW$658, DW_AT_TI_symbol_name("_uPP_A")
    6269                      .dwattr $C$DW$658, DW_AT_bit_offset(0x0f), DW_AT_bit_size(0x01)
    6270                      .dwattr $C$DW$658, DW_AT_data_member_location[DW_OP_plus_uconst 0x0]
    6271                      .dwattr $C$DW$658, DW_AT_accessibility(DW_ACCESS_public)
    6272              $C$DW$659       .dwtag  DW_TAG_member
    6273                      .dwattr $C$DW$659, DW_AT_type(*$C$DW$T$19)
    6274                      .dwattr $C$DW$659, DW_AT_name("rsvd1")
    6275                      .dwattr $C$DW$659, DW_AT_TI_symbol_name("_rsvd1")
    6276                      .dwattr $C$DW$659, DW_AT_bit_offset(0x0e), DW_AT_bit_size(0x01)
    6277                      .dwattr $C$DW$659, DW_AT_data_member_location[DW_OP_plus_uconst 0x0]
    6278                      .dwattr $C$DW$659, DW_AT_accessibility(DW_ACCESS_public)
    6279              $C$DW$660       .dwtag  DW_TAG_member
    6280                      .dwattr $C$DW$660, DW_AT_type(*$C$DW$T$19)
    6281                      .dwattr $C$DW$660, DW_AT_name("rsvd2")
    6282                      .dwattr $C$DW$660, DW_AT_TI_symbol_name("_rsvd2")
    6283                      .dwattr $C$DW$660, DW_AT_bit_offset(0x00), DW_AT_bit_size(0x0e)
    6284                      .dwattr $C$DW$660, DW_AT_data_member_location[DW_OP_plus_uconst 0x0]
    6285                      .dwattr $C$DW$660, DW_AT_accessibility(DW_ACCESS_public)
    6286              $C$DW$661       .dwtag  DW_TAG_member
    6287                      .dwattr $C$DW$661, DW_AT_type(*$C$DW$T$19)
    6288                      .dwattr $C$DW$661, DW_AT_name("rsvd3")
    6289                      .dwattr $C$DW$661, DW_AT_TI_symbol_name("_rsvd3")
    6290                      .dwattr $C$DW$661, DW_AT_bit_offset(0x00), DW_AT_bit_size(0x10)
    6291                      .dwattr $C$DW$661, DW_AT_data_member_location[DW_OP_plus_uconst 0x1]
    6292                      .dwattr $C$DW$661, DW_AT_accessibility(DW_ACCESS_public)
    6293                      .dwendtag $C$DW$T$131
    6294              
    6295              
    6296              $C$DW$T$132     .dwtag  DW_TAG_union_type
    6297                      .dwattr $C$DW$T$132, DW_AT_name("PCLKCR12_REG")
    6298                      .dwattr $C$DW$T$132, DW_AT_byte_size(0x02)
TMS320C2000 Assembler PC v6.4.2 Thu Dec 14 15:26:44 2017

Tools Copyright (c) 1996-2015 Texas Instruments Incorporated
F2837xS_SysCtrl.asm                                                  PAGE  119

    6299              $C$DW$662       .dwtag  DW_TAG_member
    6300                      .dwattr $C$DW$662, DW_AT_type(*$C$DW$T$27)
    6301                      .dwattr $C$DW$662, DW_AT_name("all")
    6302                      .dwattr $C$DW$662, DW_AT_TI_symbol_name("_all")
    6303                      .dwattr $C$DW$662, DW_AT_data_member_location[DW_OP_plus_uconst 0x0]
    6304                      .dwattr $C$DW$662, DW_AT_accessibility(DW_ACCESS_public)
    6305              $C$DW$663       .dwtag  DW_TAG_member
    6306                      .dwattr $C$DW$663, DW_AT_type(*$C$DW$T$131)
    6307                      .dwattr $C$DW$663, DW_AT_name("bit")
    6308                      .dwattr $C$DW$663, DW_AT_TI_symbol_name("_bit")
    6309                      .dwattr $C$DW$663, DW_AT_data_member_location[DW_OP_plus_uconst 0x0]
    6310                      .dwattr $C$DW$663, DW_AT_accessibility(DW_ACCESS_public)
    6311                      .dwendtag $C$DW$T$132
    6312              
    6313              
    6314              $C$DW$T$133     .dwtag  DW_TAG_structure_type
    6315                      .dwattr $C$DW$T$133, DW_AT_name("PCLKCR13_BITS")
    6316                      .dwattr $C$DW$T$133, DW_AT_byte_size(0x02)
    6317              $C$DW$664       .dwtag  DW_TAG_member
    6318                      .dwattr $C$DW$664, DW_AT_type(*$C$DW$T$19)
    6319                      .dwattr $C$DW$664, DW_AT_name("ADC_A")
    6320                      .dwattr $C$DW$664, DW_AT_TI_symbol_name("_ADC_A")
    6321                      .dwattr $C$DW$664, DW_AT_bit_offset(0x0f), DW_AT_bit_size(0x01)
    6322                      .dwattr $C$DW$664, DW_AT_data_member_location[DW_OP_plus_uconst 0x0]
    6323                      .dwattr $C$DW$664, DW_AT_accessibility(DW_ACCESS_public)
    6324              $C$DW$665       .dwtag  DW_TAG_member
    6325                      .dwattr $C$DW$665, DW_AT_type(*$C$DW$T$19)
    6326                      .dwattr $C$DW$665, DW_AT_name("ADC_B")
    6327                      .dwattr $C$DW$665, DW_AT_TI_symbol_name("_ADC_B")
    6328                      .dwattr $C$DW$665, DW_AT_bit_offset(0x0e), DW_AT_bit_size(0x01)
    6329                      .dwattr $C$DW$665, DW_AT_data_member_location[DW_OP_plus_uconst 0x0]
    6330                      .dwattr $C$DW$665, DW_AT_accessibility(DW_ACCESS_public)
    6331              $C$DW$666       .dwtag  DW_TAG_member
    6332                      .dwattr $C$DW$666, DW_AT_type(*$C$DW$T$19)
    6333                      .dwattr $C$DW$666, DW_AT_name("ADC_C")
    6334                      .dwattr $C$DW$666, DW_AT_TI_symbol_name("_ADC_C")
    6335                      .dwattr $C$DW$666, DW_AT_bit_offset(0x0d), DW_AT_bit_size(0x01)
    6336                      .dwattr $C$DW$666, DW_AT_data_member_location[DW_OP_plus_uconst 0x0]
    6337                      .dwattr $C$DW$666, DW_AT_accessibility(DW_ACCESS_public)
    6338              $C$DW$667       .dwtag  DW_TAG_member
    6339                      .dwattr $C$DW$667, DW_AT_type(*$C$DW$T$19)
    6340                      .dwattr $C$DW$667, DW_AT_name("ADC_D")
    6341                      .dwattr $C$DW$667, DW_AT_TI_symbol_name("_ADC_D")
    6342                      .dwattr $C$DW$667, DW_AT_bit_offset(0x0c), DW_AT_bit_size(0x01)
    6343                      .dwattr $C$DW$667, DW_AT_data_member_location[DW_OP_plus_uconst 0x0]
    6344                      .dwattr $C$DW$667, DW_AT_accessibility(DW_ACCESS_public)
    6345              $C$DW$668       .dwtag  DW_TAG_member
    6346                      .dwattr $C$DW$668, DW_AT_type(*$C$DW$T$19)
    6347                      .dwattr $C$DW$668, DW_AT_name("rsvd1")
    6348                      .dwattr $C$DW$668, DW_AT_TI_symbol_name("_rsvd1")
    6349                      .dwattr $C$DW$668, DW_AT_bit_offset(0x00), DW_AT_bit_size(0x0c)
    6350                      .dwattr $C$DW$668, DW_AT_data_member_location[DW_OP_plus_uconst 0x0]
    6351                      .dwattr $C$DW$668, DW_AT_accessibility(DW_ACCESS_public)
    6352              $C$DW$669       .dwtag  DW_TAG_member
    6353                      .dwattr $C$DW$669, DW_AT_type(*$C$DW$T$19)
TMS320C2000 Assembler PC v6.4.2 Thu Dec 14 15:26:44 2017

Tools Copyright (c) 1996-2015 Texas Instruments Incorporated
F2837xS_SysCtrl.asm                                                  PAGE  120

    6354                      .dwattr $C$DW$669, DW_AT_name("rsvd2")
    6355                      .dwattr $C$DW$669, DW_AT_TI_symbol_name("_rsvd2")
    6356                      .dwattr $C$DW$669, DW_AT_bit_offset(0x00), DW_AT_bit_size(0x10)
    6357                      .dwattr $C$DW$669, DW_AT_data_member_location[DW_OP_plus_uconst 0x1]
    6358                      .dwattr $C$DW$669, DW_AT_accessibility(DW_ACCESS_public)
    6359                      .dwendtag $C$DW$T$133
    6360              
    6361              
    6362              $C$DW$T$134     .dwtag  DW_TAG_union_type
    6363                      .dwattr $C$DW$T$134, DW_AT_name("PCLKCR13_REG")
    6364                      .dwattr $C$DW$T$134, DW_AT_byte_size(0x02)
    6365              $C$DW$670       .dwtag  DW_TAG_member
    6366                      .dwattr $C$DW$670, DW_AT_type(*$C$DW$T$27)
    6367                      .dwattr $C$DW$670, DW_AT_name("all")
    6368                      .dwattr $C$DW$670, DW_AT_TI_symbol_name("_all")
    6369                      .dwattr $C$DW$670, DW_AT_data_member_location[DW_OP_plus_uconst 0x0]
    6370                      .dwattr $C$DW$670, DW_AT_accessibility(DW_ACCESS_public)
    6371              $C$DW$671       .dwtag  DW_TAG_member
    6372                      .dwattr $C$DW$671, DW_AT_type(*$C$DW$T$133)
    6373                      .dwattr $C$DW$671, DW_AT_name("bit")
    6374                      .dwattr $C$DW$671, DW_AT_TI_symbol_name("_bit")
    6375                      .dwattr $C$DW$671, DW_AT_data_member_location[DW_OP_plus_uconst 0x0]
    6376                      .dwattr $C$DW$671, DW_AT_accessibility(DW_ACCESS_public)
    6377                      .dwendtag $C$DW$T$134
    6378              
    6379              
    6380              $C$DW$T$135     .dwtag  DW_TAG_structure_type
    6381                      .dwattr $C$DW$T$135, DW_AT_name("PCLKCR14_BITS")
    6382                      .dwattr $C$DW$T$135, DW_AT_byte_size(0x02)
    6383              $C$DW$672       .dwtag  DW_TAG_member
    6384                      .dwattr $C$DW$672, DW_AT_type(*$C$DW$T$19)
    6385                      .dwattr $C$DW$672, DW_AT_name("CMPSS1")
    6386                      .dwattr $C$DW$672, DW_AT_TI_symbol_name("_CMPSS1")
    6387                      .dwattr $C$DW$672, DW_AT_bit_offset(0x0f), DW_AT_bit_size(0x01)
    6388                      .dwattr $C$DW$672, DW_AT_data_member_location[DW_OP_plus_uconst 0x0]
    6389                      .dwattr $C$DW$672, DW_AT_accessibility(DW_ACCESS_public)
    6390              $C$DW$673       .dwtag  DW_TAG_member
    6391                      .dwattr $C$DW$673, DW_AT_type(*$C$DW$T$19)
    6392                      .dwattr $C$DW$673, DW_AT_name("CMPSS2")
    6393                      .dwattr $C$DW$673, DW_AT_TI_symbol_name("_CMPSS2")
    6394                      .dwattr $C$DW$673, DW_AT_bit_offset(0x0e), DW_AT_bit_size(0x01)
    6395                      .dwattr $C$DW$673, DW_AT_data_member_location[DW_OP_plus_uconst 0x0]
    6396                      .dwattr $C$DW$673, DW_AT_accessibility(DW_ACCESS_public)
    6397              $C$DW$674       .dwtag  DW_TAG_member
    6398                      .dwattr $C$DW$674, DW_AT_type(*$C$DW$T$19)
    6399                      .dwattr $C$DW$674, DW_AT_name("CMPSS3")
    6400                      .dwattr $C$DW$674, DW_AT_TI_symbol_name("_CMPSS3")
    6401                      .dwattr $C$DW$674, DW_AT_bit_offset(0x0d), DW_AT_bit_size(0x01)
    6402                      .dwattr $C$DW$674, DW_AT_data_member_location[DW_OP_plus_uconst 0x0]
    6403                      .dwattr $C$DW$674, DW_AT_accessibility(DW_ACCESS_public)
    6404              $C$DW$675       .dwtag  DW_TAG_member
    6405                      .dwattr $C$DW$675, DW_AT_type(*$C$DW$T$19)
    6406                      .dwattr $C$DW$675, DW_AT_name("CMPSS4")
    6407                      .dwattr $C$DW$675, DW_AT_TI_symbol_name("_CMPSS4")
    6408                      .dwattr $C$DW$675, DW_AT_bit_offset(0x0c), DW_AT_bit_size(0x01)
TMS320C2000 Assembler PC v6.4.2 Thu Dec 14 15:26:44 2017

Tools Copyright (c) 1996-2015 Texas Instruments Incorporated
F2837xS_SysCtrl.asm                                                  PAGE  121

    6409                      .dwattr $C$DW$675, DW_AT_data_member_location[DW_OP_plus_uconst 0x0]
    6410                      .dwattr $C$DW$675, DW_AT_accessibility(DW_ACCESS_public)
    6411              $C$DW$676       .dwtag  DW_TAG_member
    6412                      .dwattr $C$DW$676, DW_AT_type(*$C$DW$T$19)
    6413                      .dwattr $C$DW$676, DW_AT_name("CMPSS5")
    6414                      .dwattr $C$DW$676, DW_AT_TI_symbol_name("_CMPSS5")
    6415                      .dwattr $C$DW$676, DW_AT_bit_offset(0x0b), DW_AT_bit_size(0x01)
    6416                      .dwattr $C$DW$676, DW_AT_data_member_location[DW_OP_plus_uconst 0x0]
    6417                      .dwattr $C$DW$676, DW_AT_accessibility(DW_ACCESS_public)
    6418              $C$DW$677       .dwtag  DW_TAG_member
    6419                      .dwattr $C$DW$677, DW_AT_type(*$C$DW$T$19)
    6420                      .dwattr $C$DW$677, DW_AT_name("CMPSS6")
    6421                      .dwattr $C$DW$677, DW_AT_TI_symbol_name("_CMPSS6")
    6422                      .dwattr $C$DW$677, DW_AT_bit_offset(0x0a), DW_AT_bit_size(0x01)
    6423                      .dwattr $C$DW$677, DW_AT_data_member_location[DW_OP_plus_uconst 0x0]
    6424                      .dwattr $C$DW$677, DW_AT_accessibility(DW_ACCESS_public)
    6425              $C$DW$678       .dwtag  DW_TAG_member
    6426                      .dwattr $C$DW$678, DW_AT_type(*$C$DW$T$19)
    6427                      .dwattr $C$DW$678, DW_AT_name("CMPSS7")
    6428                      .dwattr $C$DW$678, DW_AT_TI_symbol_name("_CMPSS7")
    6429                      .dwattr $C$DW$678, DW_AT_bit_offset(0x09), DW_AT_bit_size(0x01)
    6430                      .dwattr $C$DW$678, DW_AT_data_member_location[DW_OP_plus_uconst 0x0]
    6431                      .dwattr $C$DW$678, DW_AT_accessibility(DW_ACCESS_public)
    6432              $C$DW$679       .dwtag  DW_TAG_member
    6433                      .dwattr $C$DW$679, DW_AT_type(*$C$DW$T$19)
    6434                      .dwattr $C$DW$679, DW_AT_name("CMPSS8")
    6435                      .dwattr $C$DW$679, DW_AT_TI_symbol_name("_CMPSS8")
    6436                      .dwattr $C$DW$679, DW_AT_bit_offset(0x08), DW_AT_bit_size(0x01)
    6437                      .dwattr $C$DW$679, DW_AT_data_member_location[DW_OP_plus_uconst 0x0]
    6438                      .dwattr $C$DW$679, DW_AT_accessibility(DW_ACCESS_public)
    6439              $C$DW$680       .dwtag  DW_TAG_member
    6440                      .dwattr $C$DW$680, DW_AT_type(*$C$DW$T$19)
    6441                      .dwattr $C$DW$680, DW_AT_name("rsvd1")
    6442                      .dwattr $C$DW$680, DW_AT_TI_symbol_name("_rsvd1")
    6443                      .dwattr $C$DW$680, DW_AT_bit_offset(0x00), DW_AT_bit_size(0x08)
    6444                      .dwattr $C$DW$680, DW_AT_data_member_location[DW_OP_plus_uconst 0x0]
    6445                      .dwattr $C$DW$680, DW_AT_accessibility(DW_ACCESS_public)
    6446              $C$DW$681       .dwtag  DW_TAG_member
    6447                      .dwattr $C$DW$681, DW_AT_type(*$C$DW$T$19)
    6448                      .dwattr $C$DW$681, DW_AT_name("rsvd2")
    6449                      .dwattr $C$DW$681, DW_AT_TI_symbol_name("_rsvd2")
    6450                      .dwattr $C$DW$681, DW_AT_bit_offset(0x00), DW_AT_bit_size(0x10)
    6451                      .dwattr $C$DW$681, DW_AT_data_member_location[DW_OP_plus_uconst 0x1]
    6452                      .dwattr $C$DW$681, DW_AT_accessibility(DW_ACCESS_public)
    6453                      .dwendtag $C$DW$T$135
    6454              
    6455              
    6456              $C$DW$T$136     .dwtag  DW_TAG_union_type
    6457                      .dwattr $C$DW$T$136, DW_AT_name("PCLKCR14_REG")
    6458                      .dwattr $C$DW$T$136, DW_AT_byte_size(0x02)
    6459              $C$DW$682       .dwtag  DW_TAG_member
    6460                      .dwattr $C$DW$682, DW_AT_type(*$C$DW$T$27)
    6461                      .dwattr $C$DW$682, DW_AT_name("all")
    6462                      .dwattr $C$DW$682, DW_AT_TI_symbol_name("_all")
    6463                      .dwattr $C$DW$682, DW_AT_data_member_location[DW_OP_plus_uconst 0x0]
TMS320C2000 Assembler PC v6.4.2 Thu Dec 14 15:26:44 2017

Tools Copyright (c) 1996-2015 Texas Instruments Incorporated
F2837xS_SysCtrl.asm                                                  PAGE  122

    6464                      .dwattr $C$DW$682, DW_AT_accessibility(DW_ACCESS_public)
    6465              $C$DW$683       .dwtag  DW_TAG_member
    6466                      .dwattr $C$DW$683, DW_AT_type(*$C$DW$T$135)
    6467                      .dwattr $C$DW$683, DW_AT_name("bit")
    6468                      .dwattr $C$DW$683, DW_AT_TI_symbol_name("_bit")
    6469                      .dwattr $C$DW$683, DW_AT_data_member_location[DW_OP_plus_uconst 0x0]
    6470                      .dwattr $C$DW$683, DW_AT_accessibility(DW_ACCESS_public)
    6471                      .dwendtag $C$DW$T$136
    6472              
    6473              
    6474              $C$DW$T$137     .dwtag  DW_TAG_structure_type
    6475                      .dwattr $C$DW$T$137, DW_AT_name("PCLKCR16_BITS")
    6476                      .dwattr $C$DW$T$137, DW_AT_byte_size(0x02)
    6477              $C$DW$684       .dwtag  DW_TAG_member
    6478                      .dwattr $C$DW$684, DW_AT_type(*$C$DW$T$19)
    6479                      .dwattr $C$DW$684, DW_AT_name("rsvd1")
    6480                      .dwattr $C$DW$684, DW_AT_TI_symbol_name("_rsvd1")
    6481                      .dwattr $C$DW$684, DW_AT_bit_offset(0x0f), DW_AT_bit_size(0x01)
    6482                      .dwattr $C$DW$684, DW_AT_data_member_location[DW_OP_plus_uconst 0x0]
    6483                      .dwattr $C$DW$684, DW_AT_accessibility(DW_ACCESS_public)
    6484              $C$DW$685       .dwtag  DW_TAG_member
    6485                      .dwattr $C$DW$685, DW_AT_type(*$C$DW$T$19)
    6486                      .dwattr $C$DW$685, DW_AT_name("rsvd2")
    6487                      .dwattr $C$DW$685, DW_AT_TI_symbol_name("_rsvd2")
    6488                      .dwattr $C$DW$685, DW_AT_bit_offset(0x0e), DW_AT_bit_size(0x01)
    6489                      .dwattr $C$DW$685, DW_AT_data_member_location[DW_OP_plus_uconst 0x0]
    6490                      .dwattr $C$DW$685, DW_AT_accessibility(DW_ACCESS_public)
    6491              $C$DW$686       .dwtag  DW_TAG_member
    6492                      .dwattr $C$DW$686, DW_AT_type(*$C$DW$T$19)
    6493                      .dwattr $C$DW$686, DW_AT_name("rsvd3")
    6494                      .dwattr $C$DW$686, DW_AT_TI_symbol_name("_rsvd3")
    6495                      .dwattr $C$DW$686, DW_AT_bit_offset(0x0d), DW_AT_bit_size(0x01)
    6496                      .dwattr $C$DW$686, DW_AT_data_member_location[DW_OP_plus_uconst 0x0]
    6497                      .dwattr $C$DW$686, DW_AT_accessibility(DW_ACCESS_public)
    6498              $C$DW$687       .dwtag  DW_TAG_member
    6499                      .dwattr $C$DW$687, DW_AT_type(*$C$DW$T$19)
    6500                      .dwattr $C$DW$687, DW_AT_name("rsvd4")
    6501                      .dwattr $C$DW$687, DW_AT_TI_symbol_name("_rsvd4")
    6502                      .dwattr $C$DW$687, DW_AT_bit_offset(0x0c), DW_AT_bit_size(0x01)
    6503                      .dwattr $C$DW$687, DW_AT_data_member_location[DW_OP_plus_uconst 0x0]
    6504                      .dwattr $C$DW$687, DW_AT_accessibility(DW_ACCESS_public)
    6505              $C$DW$688       .dwtag  DW_TAG_member
    6506                      .dwattr $C$DW$688, DW_AT_type(*$C$DW$T$19)
    6507                      .dwattr $C$DW$688, DW_AT_name("rsvd5")
    6508                      .dwattr $C$DW$688, DW_AT_TI_symbol_name("_rsvd5")
    6509                      .dwattr $C$DW$688, DW_AT_bit_offset(0x00), DW_AT_bit_size(0x0c)
    6510                      .dwattr $C$DW$688, DW_AT_data_member_location[DW_OP_plus_uconst 0x0]
    6511                      .dwattr $C$DW$688, DW_AT_accessibility(DW_ACCESS_public)
    6512              $C$DW$689       .dwtag  DW_TAG_member
    6513                      .dwattr $C$DW$689, DW_AT_type(*$C$DW$T$19)
    6514                      .dwattr $C$DW$689, DW_AT_name("DAC_A")
    6515                      .dwattr $C$DW$689, DW_AT_TI_symbol_name("_DAC_A")
    6516                      .dwattr $C$DW$689, DW_AT_bit_offset(0x0f), DW_AT_bit_size(0x01)
    6517                      .dwattr $C$DW$689, DW_AT_data_member_location[DW_OP_plus_uconst 0x1]
    6518                      .dwattr $C$DW$689, DW_AT_accessibility(DW_ACCESS_public)
TMS320C2000 Assembler PC v6.4.2 Thu Dec 14 15:26:44 2017

Tools Copyright (c) 1996-2015 Texas Instruments Incorporated
F2837xS_SysCtrl.asm                                                  PAGE  123

    6519              $C$DW$690       .dwtag  DW_TAG_member
    6520                      .dwattr $C$DW$690, DW_AT_type(*$C$DW$T$19)
    6521                      .dwattr $C$DW$690, DW_AT_name("DAC_B")
    6522                      .dwattr $C$DW$690, DW_AT_TI_symbol_name("_DAC_B")
    6523                      .dwattr $C$DW$690, DW_AT_bit_offset(0x0e), DW_AT_bit_size(0x01)
    6524                      .dwattr $C$DW$690, DW_AT_data_member_location[DW_OP_plus_uconst 0x1]
    6525                      .dwattr $C$DW$690, DW_AT_accessibility(DW_ACCESS_public)
    6526              $C$DW$691       .dwtag  DW_TAG_member
    6527                      .dwattr $C$DW$691, DW_AT_type(*$C$DW$T$19)
    6528                      .dwattr $C$DW$691, DW_AT_name("DAC_C")
    6529                      .dwattr $C$DW$691, DW_AT_TI_symbol_name("_DAC_C")
    6530                      .dwattr $C$DW$691, DW_AT_bit_offset(0x0d), DW_AT_bit_size(0x01)
    6531                      .dwattr $C$DW$691, DW_AT_data_member_location[DW_OP_plus_uconst 0x1]
    6532                      .dwattr $C$DW$691, DW_AT_accessibility(DW_ACCESS_public)
    6533              $C$DW$692       .dwtag  DW_TAG_member
    6534                      .dwattr $C$DW$692, DW_AT_type(*$C$DW$T$19)
    6535                      .dwattr $C$DW$692, DW_AT_name("rsvd6")
    6536                      .dwattr $C$DW$692, DW_AT_TI_symbol_name("_rsvd6")
    6537                      .dwattr $C$DW$692, DW_AT_bit_offset(0x0c), DW_AT_bit_size(0x01)
    6538                      .dwattr $C$DW$692, DW_AT_data_member_location[DW_OP_plus_uconst 0x1]
    6539                      .dwattr $C$DW$692, DW_AT_accessibility(DW_ACCESS_public)
    6540              $C$DW$693       .dwtag  DW_TAG_member
    6541                      .dwattr $C$DW$693, DW_AT_type(*$C$DW$T$19)
    6542                      .dwattr $C$DW$693, DW_AT_name("rsvd7")
    6543                      .dwattr $C$DW$693, DW_AT_TI_symbol_name("_rsvd7")
    6544                      .dwattr $C$DW$693, DW_AT_bit_offset(0x00), DW_AT_bit_size(0x0c)
    6545                      .dwattr $C$DW$693, DW_AT_data_member_location[DW_OP_plus_uconst 0x1]
    6546                      .dwattr $C$DW$693, DW_AT_accessibility(DW_ACCESS_public)
    6547                      .dwendtag $C$DW$T$137
    6548              
    6549              
    6550              $C$DW$T$138     .dwtag  DW_TAG_union_type
    6551                      .dwattr $C$DW$T$138, DW_AT_name("PCLKCR16_REG")
    6552                      .dwattr $C$DW$T$138, DW_AT_byte_size(0x02)
    6553              $C$DW$694       .dwtag  DW_TAG_member
    6554                      .dwattr $C$DW$694, DW_AT_type(*$C$DW$T$27)
    6555                      .dwattr $C$DW$694, DW_AT_name("all")
    6556                      .dwattr $C$DW$694, DW_AT_TI_symbol_name("_all")
    6557                      .dwattr $C$DW$694, DW_AT_data_member_location[DW_OP_plus_uconst 0x0]
    6558                      .dwattr $C$DW$694, DW_AT_accessibility(DW_ACCESS_public)
    6559              $C$DW$695       .dwtag  DW_TAG_member
    6560                      .dwattr $C$DW$695, DW_AT_type(*$C$DW$T$137)
    6561                      .dwattr $C$DW$695, DW_AT_name("bit")
    6562                      .dwattr $C$DW$695, DW_AT_TI_symbol_name("_bit")
    6563                      .dwattr $C$DW$695, DW_AT_data_member_location[DW_OP_plus_uconst 0x0]
    6564                      .dwattr $C$DW$695, DW_AT_accessibility(DW_ACCESS_public)
    6565                      .dwendtag $C$DW$T$138
    6566              
    6567              
    6568              $C$DW$T$139     .dwtag  DW_TAG_structure_type
    6569                      .dwattr $C$DW$T$139, DW_AT_name("PCLKCR1_BITS")
    6570                      .dwattr $C$DW$T$139, DW_AT_byte_size(0x02)
    6571              $C$DW$696       .dwtag  DW_TAG_member
    6572                      .dwattr $C$DW$696, DW_AT_type(*$C$DW$T$19)
    6573                      .dwattr $C$DW$696, DW_AT_name("EMIF1")
TMS320C2000 Assembler PC v6.4.2 Thu Dec 14 15:26:44 2017

Tools Copyright (c) 1996-2015 Texas Instruments Incorporated
F2837xS_SysCtrl.asm                                                  PAGE  124

    6574                      .dwattr $C$DW$696, DW_AT_TI_symbol_name("_EMIF1")
    6575                      .dwattr $C$DW$696, DW_AT_bit_offset(0x0f), DW_AT_bit_size(0x01)
    6576                      .dwattr $C$DW$696, DW_AT_data_member_location[DW_OP_plus_uconst 0x0]
    6577                      .dwattr $C$DW$696, DW_AT_accessibility(DW_ACCESS_public)
    6578              $C$DW$697       .dwtag  DW_TAG_member
    6579                      .dwattr $C$DW$697, DW_AT_type(*$C$DW$T$19)
    6580                      .dwattr $C$DW$697, DW_AT_name("EMIF2")
    6581                      .dwattr $C$DW$697, DW_AT_TI_symbol_name("_EMIF2")
    6582                      .dwattr $C$DW$697, DW_AT_bit_offset(0x0e), DW_AT_bit_size(0x01)
    6583                      .dwattr $C$DW$697, DW_AT_data_member_location[DW_OP_plus_uconst 0x0]
    6584                      .dwattr $C$DW$697, DW_AT_accessibility(DW_ACCESS_public)
    6585              $C$DW$698       .dwtag  DW_TAG_member
    6586                      .dwattr $C$DW$698, DW_AT_type(*$C$DW$T$19)
    6587                      .dwattr $C$DW$698, DW_AT_name("rsvd1")
    6588                      .dwattr $C$DW$698, DW_AT_TI_symbol_name("_rsvd1")
    6589                      .dwattr $C$DW$698, DW_AT_bit_offset(0x00), DW_AT_bit_size(0x0e)
    6590                      .dwattr $C$DW$698, DW_AT_data_member_location[DW_OP_plus_uconst 0x0]
    6591                      .dwattr $C$DW$698, DW_AT_accessibility(DW_ACCESS_public)
    6592              $C$DW$699       .dwtag  DW_TAG_member
    6593                      .dwattr $C$DW$699, DW_AT_type(*$C$DW$T$19)
    6594                      .dwattr $C$DW$699, DW_AT_name("rsvd2")
    6595                      .dwattr $C$DW$699, DW_AT_TI_symbol_name("_rsvd2")
    6596                      .dwattr $C$DW$699, DW_AT_bit_offset(0x00), DW_AT_bit_size(0x10)
    6597                      .dwattr $C$DW$699, DW_AT_data_member_location[DW_OP_plus_uconst 0x1]
    6598                      .dwattr $C$DW$699, DW_AT_accessibility(DW_ACCESS_public)
    6599                      .dwendtag $C$DW$T$139
    6600              
    6601              
    6602              $C$DW$T$140     .dwtag  DW_TAG_union_type
    6603                      .dwattr $C$DW$T$140, DW_AT_name("PCLKCR1_REG")
    6604                      .dwattr $C$DW$T$140, DW_AT_byte_size(0x02)
    6605              $C$DW$700       .dwtag  DW_TAG_member
    6606                      .dwattr $C$DW$700, DW_AT_type(*$C$DW$T$27)
    6607                      .dwattr $C$DW$700, DW_AT_name("all")
    6608                      .dwattr $C$DW$700, DW_AT_TI_symbol_name("_all")
    6609                      .dwattr $C$DW$700, DW_AT_data_member_location[DW_OP_plus_uconst 0x0]
    6610                      .dwattr $C$DW$700, DW_AT_accessibility(DW_ACCESS_public)
    6611              $C$DW$701       .dwtag  DW_TAG_member
    6612                      .dwattr $C$DW$701, DW_AT_type(*$C$DW$T$139)
    6613                      .dwattr $C$DW$701, DW_AT_name("bit")
    6614                      .dwattr $C$DW$701, DW_AT_TI_symbol_name("_bit")
    6615                      .dwattr $C$DW$701, DW_AT_data_member_location[DW_OP_plus_uconst 0x0]
    6616                      .dwattr $C$DW$701, DW_AT_accessibility(DW_ACCESS_public)
    6617                      .dwendtag $C$DW$T$140
    6618              
    6619              
    6620              $C$DW$T$141     .dwtag  DW_TAG_structure_type
    6621                      .dwattr $C$DW$T$141, DW_AT_name("PCLKCR2_BITS")
    6622                      .dwattr $C$DW$T$141, DW_AT_byte_size(0x02)
    6623              $C$DW$702       .dwtag  DW_TAG_member
    6624                      .dwattr $C$DW$702, DW_AT_type(*$C$DW$T$19)
    6625                      .dwattr $C$DW$702, DW_AT_name("EPWM1")
    6626                      .dwattr $C$DW$702, DW_AT_TI_symbol_name("_EPWM1")
    6627                      .dwattr $C$DW$702, DW_AT_bit_offset(0x0f), DW_AT_bit_size(0x01)
    6628                      .dwattr $C$DW$702, DW_AT_data_member_location[DW_OP_plus_uconst 0x0]
TMS320C2000 Assembler PC v6.4.2 Thu Dec 14 15:26:44 2017

Tools Copyright (c) 1996-2015 Texas Instruments Incorporated
F2837xS_SysCtrl.asm                                                  PAGE  125

    6629                      .dwattr $C$DW$702, DW_AT_accessibility(DW_ACCESS_public)
    6630              $C$DW$703       .dwtag  DW_TAG_member
    6631                      .dwattr $C$DW$703, DW_AT_type(*$C$DW$T$19)
    6632                      .dwattr $C$DW$703, DW_AT_name("EPWM2")
    6633                      .dwattr $C$DW$703, DW_AT_TI_symbol_name("_EPWM2")
    6634                      .dwattr $C$DW$703, DW_AT_bit_offset(0x0e), DW_AT_bit_size(0x01)
    6635                      .dwattr $C$DW$703, DW_AT_data_member_location[DW_OP_plus_uconst 0x0]
    6636                      .dwattr $C$DW$703, DW_AT_accessibility(DW_ACCESS_public)
    6637              $C$DW$704       .dwtag  DW_TAG_member
    6638                      .dwattr $C$DW$704, DW_AT_type(*$C$DW$T$19)
    6639                      .dwattr $C$DW$704, DW_AT_name("EPWM3")
    6640                      .dwattr $C$DW$704, DW_AT_TI_symbol_name("_EPWM3")
    6641                      .dwattr $C$DW$704, DW_AT_bit_offset(0x0d), DW_AT_bit_size(0x01)
    6642                      .dwattr $C$DW$704, DW_AT_data_member_location[DW_OP_plus_uconst 0x0]
    6643                      .dwattr $C$DW$704, DW_AT_accessibility(DW_ACCESS_public)
    6644              $C$DW$705       .dwtag  DW_TAG_member
    6645                      .dwattr $C$DW$705, DW_AT_type(*$C$DW$T$19)
    6646                      .dwattr $C$DW$705, DW_AT_name("EPWM4")
    6647                      .dwattr $C$DW$705, DW_AT_TI_symbol_name("_EPWM4")
    6648                      .dwattr $C$DW$705, DW_AT_bit_offset(0x0c), DW_AT_bit_size(0x01)
    6649                      .dwattr $C$DW$705, DW_AT_data_member_location[DW_OP_plus_uconst 0x0]
    6650                      .dwattr $C$DW$705, DW_AT_accessibility(DW_ACCESS_public)
    6651              $C$DW$706       .dwtag  DW_TAG_member
    6652                      .dwattr $C$DW$706, DW_AT_type(*$C$DW$T$19)
    6653                      .dwattr $C$DW$706, DW_AT_name("EPWM5")
    6654                      .dwattr $C$DW$706, DW_AT_TI_symbol_name("_EPWM5")
    6655                      .dwattr $C$DW$706, DW_AT_bit_offset(0x0b), DW_AT_bit_size(0x01)
    6656                      .dwattr $C$DW$706, DW_AT_data_member_location[DW_OP_plus_uconst 0x0]
    6657                      .dwattr $C$DW$706, DW_AT_accessibility(DW_ACCESS_public)
    6658              $C$DW$707       .dwtag  DW_TAG_member
    6659                      .dwattr $C$DW$707, DW_AT_type(*$C$DW$T$19)
    6660                      .dwattr $C$DW$707, DW_AT_name("EPWM6")
    6661                      .dwattr $C$DW$707, DW_AT_TI_symbol_name("_EPWM6")
    6662                      .dwattr $C$DW$707, DW_AT_bit_offset(0x0a), DW_AT_bit_size(0x01)
    6663                      .dwattr $C$DW$707, DW_AT_data_member_location[DW_OP_plus_uconst 0x0]
    6664                      .dwattr $C$DW$707, DW_AT_accessibility(DW_ACCESS_public)
    6665              $C$DW$708       .dwtag  DW_TAG_member
    6666                      .dwattr $C$DW$708, DW_AT_type(*$C$DW$T$19)
    6667                      .dwattr $C$DW$708, DW_AT_name("EPWM7")
    6668                      .dwattr $C$DW$708, DW_AT_TI_symbol_name("_EPWM7")
    6669                      .dwattr $C$DW$708, DW_AT_bit_offset(0x09), DW_AT_bit_size(0x01)
    6670                      .dwattr $C$DW$708, DW_AT_data_member_location[DW_OP_plus_uconst 0x0]
    6671                      .dwattr $C$DW$708, DW_AT_accessibility(DW_ACCESS_public)
    6672              $C$DW$709       .dwtag  DW_TAG_member
    6673                      .dwattr $C$DW$709, DW_AT_type(*$C$DW$T$19)
    6674                      .dwattr $C$DW$709, DW_AT_name("EPWM8")
    6675                      .dwattr $C$DW$709, DW_AT_TI_symbol_name("_EPWM8")
    6676                      .dwattr $C$DW$709, DW_AT_bit_offset(0x08), DW_AT_bit_size(0x01)
    6677                      .dwattr $C$DW$709, DW_AT_data_member_location[DW_OP_plus_uconst 0x0]
    6678                      .dwattr $C$DW$709, DW_AT_accessibility(DW_ACCESS_public)
    6679              $C$DW$710       .dwtag  DW_TAG_member
    6680                      .dwattr $C$DW$710, DW_AT_type(*$C$DW$T$19)
    6681                      .dwattr $C$DW$710, DW_AT_name("EPWM9")
    6682                      .dwattr $C$DW$710, DW_AT_TI_symbol_name("_EPWM9")
    6683                      .dwattr $C$DW$710, DW_AT_bit_offset(0x07), DW_AT_bit_size(0x01)
TMS320C2000 Assembler PC v6.4.2 Thu Dec 14 15:26:44 2017

Tools Copyright (c) 1996-2015 Texas Instruments Incorporated
F2837xS_SysCtrl.asm                                                  PAGE  126

    6684                      .dwattr $C$DW$710, DW_AT_data_member_location[DW_OP_plus_uconst 0x0]
    6685                      .dwattr $C$DW$710, DW_AT_accessibility(DW_ACCESS_public)
    6686              $C$DW$711       .dwtag  DW_TAG_member
    6687                      .dwattr $C$DW$711, DW_AT_type(*$C$DW$T$19)
    6688                      .dwattr $C$DW$711, DW_AT_name("EPWM10")
    6689                      .dwattr $C$DW$711, DW_AT_TI_symbol_name("_EPWM10")
    6690                      .dwattr $C$DW$711, DW_AT_bit_offset(0x06), DW_AT_bit_size(0x01)
    6691                      .dwattr $C$DW$711, DW_AT_data_member_location[DW_OP_plus_uconst 0x0]
    6692                      .dwattr $C$DW$711, DW_AT_accessibility(DW_ACCESS_public)
    6693              $C$DW$712       .dwtag  DW_TAG_member
    6694                      .dwattr $C$DW$712, DW_AT_type(*$C$DW$T$19)
    6695                      .dwattr $C$DW$712, DW_AT_name("EPWM11")
    6696                      .dwattr $C$DW$712, DW_AT_TI_symbol_name("_EPWM11")
    6697                      .dwattr $C$DW$712, DW_AT_bit_offset(0x05), DW_AT_bit_size(0x01)
    6698                      .dwattr $C$DW$712, DW_AT_data_member_location[DW_OP_plus_uconst 0x0]
    6699                      .dwattr $C$DW$712, DW_AT_accessibility(DW_ACCESS_public)
    6700              $C$DW$713       .dwtag  DW_TAG_member
    6701                      .dwattr $C$DW$713, DW_AT_type(*$C$DW$T$19)
    6702                      .dwattr $C$DW$713, DW_AT_name("EPWM12")
    6703                      .dwattr $C$DW$713, DW_AT_TI_symbol_name("_EPWM12")
    6704                      .dwattr $C$DW$713, DW_AT_bit_offset(0x04), DW_AT_bit_size(0x01)
    6705                      .dwattr $C$DW$713, DW_AT_data_member_location[DW_OP_plus_uconst 0x0]
    6706                      .dwattr $C$DW$713, DW_AT_accessibility(DW_ACCESS_public)
    6707              $C$DW$714       .dwtag  DW_TAG_member
    6708                      .dwattr $C$DW$714, DW_AT_type(*$C$DW$T$19)
    6709                      .dwattr $C$DW$714, DW_AT_name("rsvd1")
    6710                      .dwattr $C$DW$714, DW_AT_TI_symbol_name("_rsvd1")
    6711                      .dwattr $C$DW$714, DW_AT_bit_offset(0x03), DW_AT_bit_size(0x01)
    6712                      .dwattr $C$DW$714, DW_AT_data_member_location[DW_OP_plus_uconst 0x0]
    6713                      .dwattr $C$DW$714, DW_AT_accessibility(DW_ACCESS_public)
    6714              $C$DW$715       .dwtag  DW_TAG_member
    6715                      .dwattr $C$DW$715, DW_AT_type(*$C$DW$T$19)
    6716                      .dwattr $C$DW$715, DW_AT_name("rsvd2")
    6717                      .dwattr $C$DW$715, DW_AT_TI_symbol_name("_rsvd2")
    6718                      .dwattr $C$DW$715, DW_AT_bit_offset(0x02), DW_AT_bit_size(0x01)
    6719                      .dwattr $C$DW$715, DW_AT_data_member_location[DW_OP_plus_uconst 0x0]
    6720                      .dwattr $C$DW$715, DW_AT_accessibility(DW_ACCESS_public)
    6721              $C$DW$716       .dwtag  DW_TAG_member
    6722                      .dwattr $C$DW$716, DW_AT_type(*$C$DW$T$19)
    6723                      .dwattr $C$DW$716, DW_AT_name("rsvd3")
    6724                      .dwattr $C$DW$716, DW_AT_TI_symbol_name("_rsvd3")
    6725                      .dwattr $C$DW$716, DW_AT_bit_offset(0x01), DW_AT_bit_size(0x01)
    6726                      .dwattr $C$DW$716, DW_AT_data_member_location[DW_OP_plus_uconst 0x0]
    6727                      .dwattr $C$DW$716, DW_AT_accessibility(DW_ACCESS_public)
    6728              $C$DW$717       .dwtag  DW_TAG_member
    6729                      .dwattr $C$DW$717, DW_AT_type(*$C$DW$T$19)
    6730                      .dwattr $C$DW$717, DW_AT_name("rsvd4")
    6731                      .dwattr $C$DW$717, DW_AT_TI_symbol_name("_rsvd4")
    6732                      .dwattr $C$DW$717, DW_AT_bit_offset(0x00), DW_AT_bit_size(0x01)
    6733                      .dwattr $C$DW$717, DW_AT_data_member_location[DW_OP_plus_uconst 0x0]
    6734                      .dwattr $C$DW$717, DW_AT_accessibility(DW_ACCESS_public)
    6735              $C$DW$718       .dwtag  DW_TAG_member
    6736                      .dwattr $C$DW$718, DW_AT_type(*$C$DW$T$19)
    6737                      .dwattr $C$DW$718, DW_AT_name("rsvd5")
    6738                      .dwattr $C$DW$718, DW_AT_TI_symbol_name("_rsvd5")
TMS320C2000 Assembler PC v6.4.2 Thu Dec 14 15:26:44 2017

Tools Copyright (c) 1996-2015 Texas Instruments Incorporated
F2837xS_SysCtrl.asm                                                  PAGE  127

    6739                      .dwattr $C$DW$718, DW_AT_bit_offset(0x00), DW_AT_bit_size(0x10)
    6740                      .dwattr $C$DW$718, DW_AT_data_member_location[DW_OP_plus_uconst 0x1]
    6741                      .dwattr $C$DW$718, DW_AT_accessibility(DW_ACCESS_public)
    6742                      .dwendtag $C$DW$T$141
    6743              
    6744              
    6745              $C$DW$T$142     .dwtag  DW_TAG_union_type
    6746                      .dwattr $C$DW$T$142, DW_AT_name("PCLKCR2_REG")
    6747                      .dwattr $C$DW$T$142, DW_AT_byte_size(0x02)
    6748              $C$DW$719       .dwtag  DW_TAG_member
    6749                      .dwattr $C$DW$719, DW_AT_type(*$C$DW$T$27)
    6750                      .dwattr $C$DW$719, DW_AT_name("all")
    6751                      .dwattr $C$DW$719, DW_AT_TI_symbol_name("_all")
    6752                      .dwattr $C$DW$719, DW_AT_data_member_location[DW_OP_plus_uconst 0x0]
    6753                      .dwattr $C$DW$719, DW_AT_accessibility(DW_ACCESS_public)
    6754              $C$DW$720       .dwtag  DW_TAG_member
    6755                      .dwattr $C$DW$720, DW_AT_type(*$C$DW$T$141)
    6756                      .dwattr $C$DW$720, DW_AT_name("bit")
    6757                      .dwattr $C$DW$720, DW_AT_TI_symbol_name("_bit")
    6758                      .dwattr $C$DW$720, DW_AT_data_member_location[DW_OP_plus_uconst 0x0]
    6759                      .dwattr $C$DW$720, DW_AT_accessibility(DW_ACCESS_public)
    6760                      .dwendtag $C$DW$T$142
    6761              
    6762              
    6763              $C$DW$T$143     .dwtag  DW_TAG_structure_type
    6764                      .dwattr $C$DW$T$143, DW_AT_name("PCLKCR3_BITS")
    6765                      .dwattr $C$DW$T$143, DW_AT_byte_size(0x02)
    6766              $C$DW$721       .dwtag  DW_TAG_member
    6767                      .dwattr $C$DW$721, DW_AT_type(*$C$DW$T$19)
    6768                      .dwattr $C$DW$721, DW_AT_name("ECAP1")
    6769                      .dwattr $C$DW$721, DW_AT_TI_symbol_name("_ECAP1")
    6770                      .dwattr $C$DW$721, DW_AT_bit_offset(0x0f), DW_AT_bit_size(0x01)
    6771                      .dwattr $C$DW$721, DW_AT_data_member_location[DW_OP_plus_uconst 0x0]
    6772                      .dwattr $C$DW$721, DW_AT_accessibility(DW_ACCESS_public)
    6773              $C$DW$722       .dwtag  DW_TAG_member
    6774                      .dwattr $C$DW$722, DW_AT_type(*$C$DW$T$19)
    6775                      .dwattr $C$DW$722, DW_AT_name("ECAP2")
    6776                      .dwattr $C$DW$722, DW_AT_TI_symbol_name("_ECAP2")
    6777                      .dwattr $C$DW$722, DW_AT_bit_offset(0x0e), DW_AT_bit_size(0x01)
    6778                      .dwattr $C$DW$722, DW_AT_data_member_location[DW_OP_plus_uconst 0x0]
    6779                      .dwattr $C$DW$722, DW_AT_accessibility(DW_ACCESS_public)
    6780              $C$DW$723       .dwtag  DW_TAG_member
    6781                      .dwattr $C$DW$723, DW_AT_type(*$C$DW$T$19)
    6782                      .dwattr $C$DW$723, DW_AT_name("ECAP3")
    6783                      .dwattr $C$DW$723, DW_AT_TI_symbol_name("_ECAP3")
    6784                      .dwattr $C$DW$723, DW_AT_bit_offset(0x0d), DW_AT_bit_size(0x01)
    6785                      .dwattr $C$DW$723, DW_AT_data_member_location[DW_OP_plus_uconst 0x0]
    6786                      .dwattr $C$DW$723, DW_AT_accessibility(DW_ACCESS_public)
    6787              $C$DW$724       .dwtag  DW_TAG_member
    6788                      .dwattr $C$DW$724, DW_AT_type(*$C$DW$T$19)
    6789                      .dwattr $C$DW$724, DW_AT_name("ECAP4")
    6790                      .dwattr $C$DW$724, DW_AT_TI_symbol_name("_ECAP4")
    6791                      .dwattr $C$DW$724, DW_AT_bit_offset(0x0c), DW_AT_bit_size(0x01)
    6792                      .dwattr $C$DW$724, DW_AT_data_member_location[DW_OP_plus_uconst 0x0]
    6793                      .dwattr $C$DW$724, DW_AT_accessibility(DW_ACCESS_public)
TMS320C2000 Assembler PC v6.4.2 Thu Dec 14 15:26:44 2017

Tools Copyright (c) 1996-2015 Texas Instruments Incorporated
F2837xS_SysCtrl.asm                                                  PAGE  128

    6794              $C$DW$725       .dwtag  DW_TAG_member
    6795                      .dwattr $C$DW$725, DW_AT_type(*$C$DW$T$19)
    6796                      .dwattr $C$DW$725, DW_AT_name("ECAP5")
    6797                      .dwattr $C$DW$725, DW_AT_TI_symbol_name("_ECAP5")
    6798                      .dwattr $C$DW$725, DW_AT_bit_offset(0x0b), DW_AT_bit_size(0x01)
    6799                      .dwattr $C$DW$725, DW_AT_data_member_location[DW_OP_plus_uconst 0x0]
    6800                      .dwattr $C$DW$725, DW_AT_accessibility(DW_ACCESS_public)
    6801              $C$DW$726       .dwtag  DW_TAG_member
    6802                      .dwattr $C$DW$726, DW_AT_type(*$C$DW$T$19)
    6803                      .dwattr $C$DW$726, DW_AT_name("ECAP6")
    6804                      .dwattr $C$DW$726, DW_AT_TI_symbol_name("_ECAP6")
    6805                      .dwattr $C$DW$726, DW_AT_bit_offset(0x0a), DW_AT_bit_size(0x01)
    6806                      .dwattr $C$DW$726, DW_AT_data_member_location[DW_OP_plus_uconst 0x0]
    6807                      .dwattr $C$DW$726, DW_AT_accessibility(DW_ACCESS_public)
    6808              $C$DW$727       .dwtag  DW_TAG_member
    6809                      .dwattr $C$DW$727, DW_AT_type(*$C$DW$T$19)
    6810                      .dwattr $C$DW$727, DW_AT_name("rsvd1")
    6811                      .dwattr $C$DW$727, DW_AT_TI_symbol_name("_rsvd1")
    6812                      .dwattr $C$DW$727, DW_AT_bit_offset(0x09), DW_AT_bit_size(0x01)
    6813                      .dwattr $C$DW$727, DW_AT_data_member_location[DW_OP_plus_uconst 0x0]
    6814                      .dwattr $C$DW$727, DW_AT_accessibility(DW_ACCESS_public)
    6815              $C$DW$728       .dwtag  DW_TAG_member
    6816                      .dwattr $C$DW$728, DW_AT_type(*$C$DW$T$19)
    6817                      .dwattr $C$DW$728, DW_AT_name("rsvd2")
    6818                      .dwattr $C$DW$728, DW_AT_TI_symbol_name("_rsvd2")
    6819                      .dwattr $C$DW$728, DW_AT_bit_offset(0x08), DW_AT_bit_size(0x01)
    6820                      .dwattr $C$DW$728, DW_AT_data_member_location[DW_OP_plus_uconst 0x0]
    6821                      .dwattr $C$DW$728, DW_AT_accessibility(DW_ACCESS_public)
    6822              $C$DW$729       .dwtag  DW_TAG_member
    6823                      .dwattr $C$DW$729, DW_AT_type(*$C$DW$T$19)
    6824                      .dwattr $C$DW$729, DW_AT_name("rsvd3")
    6825                      .dwattr $C$DW$729, DW_AT_TI_symbol_name("_rsvd3")
    6826                      .dwattr $C$DW$729, DW_AT_bit_offset(0x00), DW_AT_bit_size(0x08)
    6827                      .dwattr $C$DW$729, DW_AT_data_member_location[DW_OP_plus_uconst 0x0]
    6828                      .dwattr $C$DW$729, DW_AT_accessibility(DW_ACCESS_public)
    6829              $C$DW$730       .dwtag  DW_TAG_member
    6830                      .dwattr $C$DW$730, DW_AT_type(*$C$DW$T$19)
    6831                      .dwattr $C$DW$730, DW_AT_name("rsvd4")
    6832                      .dwattr $C$DW$730, DW_AT_TI_symbol_name("_rsvd4")
    6833                      .dwattr $C$DW$730, DW_AT_bit_offset(0x00), DW_AT_bit_size(0x10)
    6834                      .dwattr $C$DW$730, DW_AT_data_member_location[DW_OP_plus_uconst 0x1]
    6835                      .dwattr $C$DW$730, DW_AT_accessibility(DW_ACCESS_public)
    6836                      .dwendtag $C$DW$T$143
    6837              
    6838              
    6839              $C$DW$T$144     .dwtag  DW_TAG_union_type
    6840                      .dwattr $C$DW$T$144, DW_AT_name("PCLKCR3_REG")
    6841                      .dwattr $C$DW$T$144, DW_AT_byte_size(0x02)
    6842              $C$DW$731       .dwtag  DW_TAG_member
    6843                      .dwattr $C$DW$731, DW_AT_type(*$C$DW$T$27)
    6844                      .dwattr $C$DW$731, DW_AT_name("all")
    6845                      .dwattr $C$DW$731, DW_AT_TI_symbol_name("_all")
    6846                      .dwattr $C$DW$731, DW_AT_data_member_location[DW_OP_plus_uconst 0x0]
    6847                      .dwattr $C$DW$731, DW_AT_accessibility(DW_ACCESS_public)
    6848              $C$DW$732       .dwtag  DW_TAG_member
TMS320C2000 Assembler PC v6.4.2 Thu Dec 14 15:26:44 2017

Tools Copyright (c) 1996-2015 Texas Instruments Incorporated
F2837xS_SysCtrl.asm                                                  PAGE  129

    6849                      .dwattr $C$DW$732, DW_AT_type(*$C$DW$T$143)
    6850                      .dwattr $C$DW$732, DW_AT_name("bit")
    6851                      .dwattr $C$DW$732, DW_AT_TI_symbol_name("_bit")
    6852                      .dwattr $C$DW$732, DW_AT_data_member_location[DW_OP_plus_uconst 0x0]
    6853                      .dwattr $C$DW$732, DW_AT_accessibility(DW_ACCESS_public)
    6854                      .dwendtag $C$DW$T$144
    6855              
    6856              
    6857              $C$DW$T$145     .dwtag  DW_TAG_structure_type
    6858                      .dwattr $C$DW$T$145, DW_AT_name("PCLKCR4_BITS")
    6859                      .dwattr $C$DW$T$145, DW_AT_byte_size(0x02)
    6860              $C$DW$733       .dwtag  DW_TAG_member
    6861                      .dwattr $C$DW$733, DW_AT_type(*$C$DW$T$19)
    6862                      .dwattr $C$DW$733, DW_AT_name("EQEP1")
    6863                      .dwattr $C$DW$733, DW_AT_TI_symbol_name("_EQEP1")
    6864                      .dwattr $C$DW$733, DW_AT_bit_offset(0x0f), DW_AT_bit_size(0x01)
    6865                      .dwattr $C$DW$733, DW_AT_data_member_location[DW_OP_plus_uconst 0x0]
    6866                      .dwattr $C$DW$733, DW_AT_accessibility(DW_ACCESS_public)
    6867              $C$DW$734       .dwtag  DW_TAG_member
    6868                      .dwattr $C$DW$734, DW_AT_type(*$C$DW$T$19)
    6869                      .dwattr $C$DW$734, DW_AT_name("EQEP2")
    6870                      .dwattr $C$DW$734, DW_AT_TI_symbol_name("_EQEP2")
    6871                      .dwattr $C$DW$734, DW_AT_bit_offset(0x0e), DW_AT_bit_size(0x01)
    6872                      .dwattr $C$DW$734, DW_AT_data_member_location[DW_OP_plus_uconst 0x0]
    6873                      .dwattr $C$DW$734, DW_AT_accessibility(DW_ACCESS_public)
    6874              $C$DW$735       .dwtag  DW_TAG_member
    6875                      .dwattr $C$DW$735, DW_AT_type(*$C$DW$T$19)
    6876                      .dwattr $C$DW$735, DW_AT_name("EQEP3")
    6877                      .dwattr $C$DW$735, DW_AT_TI_symbol_name("_EQEP3")
    6878                      .dwattr $C$DW$735, DW_AT_bit_offset(0x0d), DW_AT_bit_size(0x01)
    6879                      .dwattr $C$DW$735, DW_AT_data_member_location[DW_OP_plus_uconst 0x0]
    6880                      .dwattr $C$DW$735, DW_AT_accessibility(DW_ACCESS_public)
    6881              $C$DW$736       .dwtag  DW_TAG_member
    6882                      .dwattr $C$DW$736, DW_AT_type(*$C$DW$T$19)
    6883                      .dwattr $C$DW$736, DW_AT_name("rsvd1")
    6884                      .dwattr $C$DW$736, DW_AT_TI_symbol_name("_rsvd1")
    6885                      .dwattr $C$DW$736, DW_AT_bit_offset(0x0c), DW_AT_bit_size(0x01)
    6886                      .dwattr $C$DW$736, DW_AT_data_member_location[DW_OP_plus_uconst 0x0]
    6887                      .dwattr $C$DW$736, DW_AT_accessibility(DW_ACCESS_public)
    6888              $C$DW$737       .dwtag  DW_TAG_member
    6889                      .dwattr $C$DW$737, DW_AT_type(*$C$DW$T$19)
    6890                      .dwattr $C$DW$737, DW_AT_name("rsvd2")
    6891                      .dwattr $C$DW$737, DW_AT_TI_symbol_name("_rsvd2")
    6892                      .dwattr $C$DW$737, DW_AT_bit_offset(0x00), DW_AT_bit_size(0x0c)
    6893                      .dwattr $C$DW$737, DW_AT_data_member_location[DW_OP_plus_uconst 0x0]
    6894                      .dwattr $C$DW$737, DW_AT_accessibility(DW_ACCESS_public)
    6895              $C$DW$738       .dwtag  DW_TAG_member
    6896                      .dwattr $C$DW$738, DW_AT_type(*$C$DW$T$19)
    6897                      .dwattr $C$DW$738, DW_AT_name("rsvd3")
    6898                      .dwattr $C$DW$738, DW_AT_TI_symbol_name("_rsvd3")
    6899                      .dwattr $C$DW$738, DW_AT_bit_offset(0x00), DW_AT_bit_size(0x10)
    6900                      .dwattr $C$DW$738, DW_AT_data_member_location[DW_OP_plus_uconst 0x1]
    6901                      .dwattr $C$DW$738, DW_AT_accessibility(DW_ACCESS_public)
    6902                      .dwendtag $C$DW$T$145
    6903              
TMS320C2000 Assembler PC v6.4.2 Thu Dec 14 15:26:44 2017

Tools Copyright (c) 1996-2015 Texas Instruments Incorporated
F2837xS_SysCtrl.asm                                                  PAGE  130

    6904              
    6905              $C$DW$T$146     .dwtag  DW_TAG_union_type
    6906                      .dwattr $C$DW$T$146, DW_AT_name("PCLKCR4_REG")
    6907                      .dwattr $C$DW$T$146, DW_AT_byte_size(0x02)
    6908              $C$DW$739       .dwtag  DW_TAG_member
    6909                      .dwattr $C$DW$739, DW_AT_type(*$C$DW$T$27)
    6910                      .dwattr $C$DW$739, DW_AT_name("all")
    6911                      .dwattr $C$DW$739, DW_AT_TI_symbol_name("_all")
    6912                      .dwattr $C$DW$739, DW_AT_data_member_location[DW_OP_plus_uconst 0x0]
    6913                      .dwattr $C$DW$739, DW_AT_accessibility(DW_ACCESS_public)
    6914              $C$DW$740       .dwtag  DW_TAG_member
    6915                      .dwattr $C$DW$740, DW_AT_type(*$C$DW$T$145)
    6916                      .dwattr $C$DW$740, DW_AT_name("bit")
    6917                      .dwattr $C$DW$740, DW_AT_TI_symbol_name("_bit")
    6918                      .dwattr $C$DW$740, DW_AT_data_member_location[DW_OP_plus_uconst 0x0]
    6919                      .dwattr $C$DW$740, DW_AT_accessibility(DW_ACCESS_public)
    6920                      .dwendtag $C$DW$T$146
    6921              
    6922              
    6923              $C$DW$T$147     .dwtag  DW_TAG_structure_type
    6924                      .dwattr $C$DW$T$147, DW_AT_name("PCLKCR6_BITS")
    6925                      .dwattr $C$DW$T$147, DW_AT_byte_size(0x02)
    6926              $C$DW$741       .dwtag  DW_TAG_member
    6927                      .dwattr $C$DW$741, DW_AT_type(*$C$DW$T$19)
    6928                      .dwattr $C$DW$741, DW_AT_name("SD1")
    6929                      .dwattr $C$DW$741, DW_AT_TI_symbol_name("_SD1")
    6930                      .dwattr $C$DW$741, DW_AT_bit_offset(0x0f), DW_AT_bit_size(0x01)
    6931                      .dwattr $C$DW$741, DW_AT_data_member_location[DW_OP_plus_uconst 0x0]
    6932                      .dwattr $C$DW$741, DW_AT_accessibility(DW_ACCESS_public)
    6933              $C$DW$742       .dwtag  DW_TAG_member
    6934                      .dwattr $C$DW$742, DW_AT_type(*$C$DW$T$19)
    6935                      .dwattr $C$DW$742, DW_AT_name("SD2")
    6936                      .dwattr $C$DW$742, DW_AT_TI_symbol_name("_SD2")
    6937                      .dwattr $C$DW$742, DW_AT_bit_offset(0x0e), DW_AT_bit_size(0x01)
    6938                      .dwattr $C$DW$742, DW_AT_data_member_location[DW_OP_plus_uconst 0x0]
    6939                      .dwattr $C$DW$742, DW_AT_accessibility(DW_ACCESS_public)
    6940              $C$DW$743       .dwtag  DW_TAG_member
    6941                      .dwattr $C$DW$743, DW_AT_type(*$C$DW$T$19)
    6942                      .dwattr $C$DW$743, DW_AT_name("rsvd1")
    6943                      .dwattr $C$DW$743, DW_AT_TI_symbol_name("_rsvd1")
    6944                      .dwattr $C$DW$743, DW_AT_bit_offset(0x0d), DW_AT_bit_size(0x01)
    6945                      .dwattr $C$DW$743, DW_AT_data_member_location[DW_OP_plus_uconst 0x0]
    6946                      .dwattr $C$DW$743, DW_AT_accessibility(DW_ACCESS_public)
    6947              $C$DW$744       .dwtag  DW_TAG_member
    6948                      .dwattr $C$DW$744, DW_AT_type(*$C$DW$T$19)
    6949                      .dwattr $C$DW$744, DW_AT_name("rsvd2")
    6950                      .dwattr $C$DW$744, DW_AT_TI_symbol_name("_rsvd2")
    6951                      .dwattr $C$DW$744, DW_AT_bit_offset(0x0c), DW_AT_bit_size(0x01)
    6952                      .dwattr $C$DW$744, DW_AT_data_member_location[DW_OP_plus_uconst 0x0]
    6953                      .dwattr $C$DW$744, DW_AT_accessibility(DW_ACCESS_public)
    6954              $C$DW$745       .dwtag  DW_TAG_member
    6955                      .dwattr $C$DW$745, DW_AT_type(*$C$DW$T$19)
    6956                      .dwattr $C$DW$745, DW_AT_name("rsvd3")
    6957                      .dwattr $C$DW$745, DW_AT_TI_symbol_name("_rsvd3")
    6958                      .dwattr $C$DW$745, DW_AT_bit_offset(0x0b), DW_AT_bit_size(0x01)
TMS320C2000 Assembler PC v6.4.2 Thu Dec 14 15:26:44 2017

Tools Copyright (c) 1996-2015 Texas Instruments Incorporated
F2837xS_SysCtrl.asm                                                  PAGE  131

    6959                      .dwattr $C$DW$745, DW_AT_data_member_location[DW_OP_plus_uconst 0x0]
    6960                      .dwattr $C$DW$745, DW_AT_accessibility(DW_ACCESS_public)
    6961              $C$DW$746       .dwtag  DW_TAG_member
    6962                      .dwattr $C$DW$746, DW_AT_type(*$C$DW$T$19)
    6963                      .dwattr $C$DW$746, DW_AT_name("rsvd4")
    6964                      .dwattr $C$DW$746, DW_AT_TI_symbol_name("_rsvd4")
    6965                      .dwattr $C$DW$746, DW_AT_bit_offset(0x0a), DW_AT_bit_size(0x01)
    6966                      .dwattr $C$DW$746, DW_AT_data_member_location[DW_OP_plus_uconst 0x0]
    6967                      .dwattr $C$DW$746, DW_AT_accessibility(DW_ACCESS_public)
    6968              $C$DW$747       .dwtag  DW_TAG_member
    6969                      .dwattr $C$DW$747, DW_AT_type(*$C$DW$T$19)
    6970                      .dwattr $C$DW$747, DW_AT_name("rsvd5")
    6971                      .dwattr $C$DW$747, DW_AT_TI_symbol_name("_rsvd5")
    6972                      .dwattr $C$DW$747, DW_AT_bit_offset(0x09), DW_AT_bit_size(0x01)
    6973                      .dwattr $C$DW$747, DW_AT_data_member_location[DW_OP_plus_uconst 0x0]
    6974                      .dwattr $C$DW$747, DW_AT_accessibility(DW_ACCESS_public)
    6975              $C$DW$748       .dwtag  DW_TAG_member
    6976                      .dwattr $C$DW$748, DW_AT_type(*$C$DW$T$19)
    6977                      .dwattr $C$DW$748, DW_AT_name("rsvd6")
    6978                      .dwattr $C$DW$748, DW_AT_TI_symbol_name("_rsvd6")
    6979                      .dwattr $C$DW$748, DW_AT_bit_offset(0x08), DW_AT_bit_size(0x01)
    6980                      .dwattr $C$DW$748, DW_AT_data_member_location[DW_OP_plus_uconst 0x0]
    6981                      .dwattr $C$DW$748, DW_AT_accessibility(DW_ACCESS_public)
    6982              $C$DW$749       .dwtag  DW_TAG_member
    6983                      .dwattr $C$DW$749, DW_AT_type(*$C$DW$T$19)
    6984                      .dwattr $C$DW$749, DW_AT_name("rsvd7")
    6985                      .dwattr $C$DW$749, DW_AT_TI_symbol_name("_rsvd7")
    6986                      .dwattr $C$DW$749, DW_AT_bit_offset(0x00), DW_AT_bit_size(0x08)
    6987                      .dwattr $C$DW$749, DW_AT_data_member_location[DW_OP_plus_uconst 0x0]
    6988                      .dwattr $C$DW$749, DW_AT_accessibility(DW_ACCESS_public)
    6989              $C$DW$750       .dwtag  DW_TAG_member
    6990                      .dwattr $C$DW$750, DW_AT_type(*$C$DW$T$19)
    6991                      .dwattr $C$DW$750, DW_AT_name("rsvd8")
    6992                      .dwattr $C$DW$750, DW_AT_TI_symbol_name("_rsvd8")
    6993                      .dwattr $C$DW$750, DW_AT_bit_offset(0x00), DW_AT_bit_size(0x10)
    6994                      .dwattr $C$DW$750, DW_AT_data_member_location[DW_OP_plus_uconst 0x1]
    6995                      .dwattr $C$DW$750, DW_AT_accessibility(DW_ACCESS_public)
    6996                      .dwendtag $C$DW$T$147
    6997              
    6998              
    6999              $C$DW$T$148     .dwtag  DW_TAG_union_type
    7000                      .dwattr $C$DW$T$148, DW_AT_name("PCLKCR6_REG")
    7001                      .dwattr $C$DW$T$148, DW_AT_byte_size(0x02)
    7002              $C$DW$751       .dwtag  DW_TAG_member
    7003                      .dwattr $C$DW$751, DW_AT_type(*$C$DW$T$27)
    7004                      .dwattr $C$DW$751, DW_AT_name("all")
    7005                      .dwattr $C$DW$751, DW_AT_TI_symbol_name("_all")
    7006                      .dwattr $C$DW$751, DW_AT_data_member_location[DW_OP_plus_uconst 0x0]
    7007                      .dwattr $C$DW$751, DW_AT_accessibility(DW_ACCESS_public)
    7008              $C$DW$752       .dwtag  DW_TAG_member
    7009                      .dwattr $C$DW$752, DW_AT_type(*$C$DW$T$147)
    7010                      .dwattr $C$DW$752, DW_AT_name("bit")
    7011                      .dwattr $C$DW$752, DW_AT_TI_symbol_name("_bit")
    7012                      .dwattr $C$DW$752, DW_AT_data_member_location[DW_OP_plus_uconst 0x0]
    7013                      .dwattr $C$DW$752, DW_AT_accessibility(DW_ACCESS_public)
TMS320C2000 Assembler PC v6.4.2 Thu Dec 14 15:26:44 2017

Tools Copyright (c) 1996-2015 Texas Instruments Incorporated
F2837xS_SysCtrl.asm                                                  PAGE  132

    7014                      .dwendtag $C$DW$T$148
    7015              
    7016              
    7017              $C$DW$T$149     .dwtag  DW_TAG_structure_type
    7018                      .dwattr $C$DW$T$149, DW_AT_name("PCLKCR7_BITS")
    7019                      .dwattr $C$DW$T$149, DW_AT_byte_size(0x02)
    7020              $C$DW$753       .dwtag  DW_TAG_member
    7021                      .dwattr $C$DW$753, DW_AT_type(*$C$DW$T$19)
    7022                      .dwattr $C$DW$753, DW_AT_name("SCI_A")
    7023                      .dwattr $C$DW$753, DW_AT_TI_symbol_name("_SCI_A")
    7024                      .dwattr $C$DW$753, DW_AT_bit_offset(0x0f), DW_AT_bit_size(0x01)
    7025                      .dwattr $C$DW$753, DW_AT_data_member_location[DW_OP_plus_uconst 0x0]
    7026                      .dwattr $C$DW$753, DW_AT_accessibility(DW_ACCESS_public)
    7027              $C$DW$754       .dwtag  DW_TAG_member
    7028                      .dwattr $C$DW$754, DW_AT_type(*$C$DW$T$19)
    7029                      .dwattr $C$DW$754, DW_AT_name("SCI_B")
    7030                      .dwattr $C$DW$754, DW_AT_TI_symbol_name("_SCI_B")
    7031                      .dwattr $C$DW$754, DW_AT_bit_offset(0x0e), DW_AT_bit_size(0x01)
    7032                      .dwattr $C$DW$754, DW_AT_data_member_location[DW_OP_plus_uconst 0x0]
    7033                      .dwattr $C$DW$754, DW_AT_accessibility(DW_ACCESS_public)
    7034              $C$DW$755       .dwtag  DW_TAG_member
    7035                      .dwattr $C$DW$755, DW_AT_type(*$C$DW$T$19)
    7036                      .dwattr $C$DW$755, DW_AT_name("SCI_C")
    7037                      .dwattr $C$DW$755, DW_AT_TI_symbol_name("_SCI_C")
    7038                      .dwattr $C$DW$755, DW_AT_bit_offset(0x0d), DW_AT_bit_size(0x01)
    7039                      .dwattr $C$DW$755, DW_AT_data_member_location[DW_OP_plus_uconst 0x0]
    7040                      .dwattr $C$DW$755, DW_AT_accessibility(DW_ACCESS_public)
    7041              $C$DW$756       .dwtag  DW_TAG_member
    7042                      .dwattr $C$DW$756, DW_AT_type(*$C$DW$T$19)
    7043                      .dwattr $C$DW$756, DW_AT_name("SCI_D")
    7044                      .dwattr $C$DW$756, DW_AT_TI_symbol_name("_SCI_D")
    7045                      .dwattr $C$DW$756, DW_AT_bit_offset(0x0c), DW_AT_bit_size(0x01)
    7046                      .dwattr $C$DW$756, DW_AT_data_member_location[DW_OP_plus_uconst 0x0]
    7047                      .dwattr $C$DW$756, DW_AT_accessibility(DW_ACCESS_public)
    7048              $C$DW$757       .dwtag  DW_TAG_member
    7049                      .dwattr $C$DW$757, DW_AT_type(*$C$DW$T$19)
    7050                      .dwattr $C$DW$757, DW_AT_name("rsvd1")
    7051                      .dwattr $C$DW$757, DW_AT_TI_symbol_name("_rsvd1")
    7052                      .dwattr $C$DW$757, DW_AT_bit_offset(0x00), DW_AT_bit_size(0x0c)
    7053                      .dwattr $C$DW$757, DW_AT_data_member_location[DW_OP_plus_uconst 0x0]
    7054                      .dwattr $C$DW$757, DW_AT_accessibility(DW_ACCESS_public)
    7055              $C$DW$758       .dwtag  DW_TAG_member
    7056                      .dwattr $C$DW$758, DW_AT_type(*$C$DW$T$19)
    7057                      .dwattr $C$DW$758, DW_AT_name("rsvd2")
    7058                      .dwattr $C$DW$758, DW_AT_TI_symbol_name("_rsvd2")
    7059                      .dwattr $C$DW$758, DW_AT_bit_offset(0x00), DW_AT_bit_size(0x10)
    7060                      .dwattr $C$DW$758, DW_AT_data_member_location[DW_OP_plus_uconst 0x1]
    7061                      .dwattr $C$DW$758, DW_AT_accessibility(DW_ACCESS_public)
    7062                      .dwendtag $C$DW$T$149
    7063              
    7064              
    7065              $C$DW$T$150     .dwtag  DW_TAG_union_type
    7066                      .dwattr $C$DW$T$150, DW_AT_name("PCLKCR7_REG")
    7067                      .dwattr $C$DW$T$150, DW_AT_byte_size(0x02)
    7068              $C$DW$759       .dwtag  DW_TAG_member
TMS320C2000 Assembler PC v6.4.2 Thu Dec 14 15:26:44 2017

Tools Copyright (c) 1996-2015 Texas Instruments Incorporated
F2837xS_SysCtrl.asm                                                  PAGE  133

    7069                      .dwattr $C$DW$759, DW_AT_type(*$C$DW$T$27)
    7070                      .dwattr $C$DW$759, DW_AT_name("all")
    7071                      .dwattr $C$DW$759, DW_AT_TI_symbol_name("_all")
    7072                      .dwattr $C$DW$759, DW_AT_data_member_location[DW_OP_plus_uconst 0x0]
    7073                      .dwattr $C$DW$759, DW_AT_accessibility(DW_ACCESS_public)
    7074              $C$DW$760       .dwtag  DW_TAG_member
    7075                      .dwattr $C$DW$760, DW_AT_type(*$C$DW$T$149)
    7076                      .dwattr $C$DW$760, DW_AT_name("bit")
    7077                      .dwattr $C$DW$760, DW_AT_TI_symbol_name("_bit")
    7078                      .dwattr $C$DW$760, DW_AT_data_member_location[DW_OP_plus_uconst 0x0]
    7079                      .dwattr $C$DW$760, DW_AT_accessibility(DW_ACCESS_public)
    7080                      .dwendtag $C$DW$T$150
    7081              
    7082              
    7083              $C$DW$T$151     .dwtag  DW_TAG_structure_type
    7084                      .dwattr $C$DW$T$151, DW_AT_name("PCLKCR8_BITS")
    7085                      .dwattr $C$DW$T$151, DW_AT_byte_size(0x02)
    7086              $C$DW$761       .dwtag  DW_TAG_member
    7087                      .dwattr $C$DW$761, DW_AT_type(*$C$DW$T$19)
    7088                      .dwattr $C$DW$761, DW_AT_name("SPI_A")
    7089                      .dwattr $C$DW$761, DW_AT_TI_symbol_name("_SPI_A")
    7090                      .dwattr $C$DW$761, DW_AT_bit_offset(0x0f), DW_AT_bit_size(0x01)
    7091                      .dwattr $C$DW$761, DW_AT_data_member_location[DW_OP_plus_uconst 0x0]
    7092                      .dwattr $C$DW$761, DW_AT_accessibility(DW_ACCESS_public)
    7093              $C$DW$762       .dwtag  DW_TAG_member
    7094                      .dwattr $C$DW$762, DW_AT_type(*$C$DW$T$19)
    7095                      .dwattr $C$DW$762, DW_AT_name("SPI_B")
    7096                      .dwattr $C$DW$762, DW_AT_TI_symbol_name("_SPI_B")
    7097                      .dwattr $C$DW$762, DW_AT_bit_offset(0x0e), DW_AT_bit_size(0x01)
    7098                      .dwattr $C$DW$762, DW_AT_data_member_location[DW_OP_plus_uconst 0x0]
    7099                      .dwattr $C$DW$762, DW_AT_accessibility(DW_ACCESS_public)
    7100              $C$DW$763       .dwtag  DW_TAG_member
    7101                      .dwattr $C$DW$763, DW_AT_type(*$C$DW$T$19)
    7102                      .dwattr $C$DW$763, DW_AT_name("SPI_C")
    7103                      .dwattr $C$DW$763, DW_AT_TI_symbol_name("_SPI_C")
    7104                      .dwattr $C$DW$763, DW_AT_bit_offset(0x0d), DW_AT_bit_size(0x01)
    7105                      .dwattr $C$DW$763, DW_AT_data_member_location[DW_OP_plus_uconst 0x0]
    7106                      .dwattr $C$DW$763, DW_AT_accessibility(DW_ACCESS_public)
    7107              $C$DW$764       .dwtag  DW_TAG_member
    7108                      .dwattr $C$DW$764, DW_AT_type(*$C$DW$T$19)
    7109                      .dwattr $C$DW$764, DW_AT_name("rsvd1")
    7110                      .dwattr $C$DW$764, DW_AT_TI_symbol_name("_rsvd1")
    7111                      .dwattr $C$DW$764, DW_AT_bit_offset(0x0c), DW_AT_bit_size(0x01)
    7112                      .dwattr $C$DW$764, DW_AT_data_member_location[DW_OP_plus_uconst 0x0]
    7113                      .dwattr $C$DW$764, DW_AT_accessibility(DW_ACCESS_public)
    7114              $C$DW$765       .dwtag  DW_TAG_member
    7115                      .dwattr $C$DW$765, DW_AT_type(*$C$DW$T$19)
    7116                      .dwattr $C$DW$765, DW_AT_name("rsvd2")
    7117                      .dwattr $C$DW$765, DW_AT_TI_symbol_name("_rsvd2")
    7118                      .dwattr $C$DW$765, DW_AT_bit_offset(0x00), DW_AT_bit_size(0x0c)
    7119                      .dwattr $C$DW$765, DW_AT_data_member_location[DW_OP_plus_uconst 0x0]
    7120                      .dwattr $C$DW$765, DW_AT_accessibility(DW_ACCESS_public)
    7121              $C$DW$766       .dwtag  DW_TAG_member
    7122                      .dwattr $C$DW$766, DW_AT_type(*$C$DW$T$19)
    7123                      .dwattr $C$DW$766, DW_AT_name("rsvd3")
TMS320C2000 Assembler PC v6.4.2 Thu Dec 14 15:26:44 2017

Tools Copyright (c) 1996-2015 Texas Instruments Incorporated
F2837xS_SysCtrl.asm                                                  PAGE  134

    7124                      .dwattr $C$DW$766, DW_AT_TI_symbol_name("_rsvd3")
    7125                      .dwattr $C$DW$766, DW_AT_bit_offset(0x0f), DW_AT_bit_size(0x01)
    7126                      .dwattr $C$DW$766, DW_AT_data_member_location[DW_OP_plus_uconst 0x1]
    7127                      .dwattr $C$DW$766, DW_AT_accessibility(DW_ACCESS_public)
    7128              $C$DW$767       .dwtag  DW_TAG_member
    7129                      .dwattr $C$DW$767, DW_AT_type(*$C$DW$T$19)
    7130                      .dwattr $C$DW$767, DW_AT_name("rsvd4")
    7131                      .dwattr $C$DW$767, DW_AT_TI_symbol_name("_rsvd4")
    7132                      .dwattr $C$DW$767, DW_AT_bit_offset(0x0e), DW_AT_bit_size(0x01)
    7133                      .dwattr $C$DW$767, DW_AT_data_member_location[DW_OP_plus_uconst 0x1]
    7134                      .dwattr $C$DW$767, DW_AT_accessibility(DW_ACCESS_public)
    7135              $C$DW$768       .dwtag  DW_TAG_member
    7136                      .dwattr $C$DW$768, DW_AT_type(*$C$DW$T$19)
    7137                      .dwattr $C$DW$768, DW_AT_name("rsvd5")
    7138                      .dwattr $C$DW$768, DW_AT_TI_symbol_name("_rsvd5")
    7139                      .dwattr $C$DW$768, DW_AT_bit_offset(0x00), DW_AT_bit_size(0x0e)
    7140                      .dwattr $C$DW$768, DW_AT_data_member_location[DW_OP_plus_uconst 0x1]
    7141                      .dwattr $C$DW$768, DW_AT_accessibility(DW_ACCESS_public)
    7142                      .dwendtag $C$DW$T$151
    7143              
    7144              
    7145              $C$DW$T$152     .dwtag  DW_TAG_union_type
    7146                      .dwattr $C$DW$T$152, DW_AT_name("PCLKCR8_REG")
    7147                      .dwattr $C$DW$T$152, DW_AT_byte_size(0x02)
    7148              $C$DW$769       .dwtag  DW_TAG_member
    7149                      .dwattr $C$DW$769, DW_AT_type(*$C$DW$T$27)
    7150                      .dwattr $C$DW$769, DW_AT_name("all")
    7151                      .dwattr $C$DW$769, DW_AT_TI_symbol_name("_all")
    7152                      .dwattr $C$DW$769, DW_AT_data_member_location[DW_OP_plus_uconst 0x0]
    7153                      .dwattr $C$DW$769, DW_AT_accessibility(DW_ACCESS_public)
    7154              $C$DW$770       .dwtag  DW_TAG_member
    7155                      .dwattr $C$DW$770, DW_AT_type(*$C$DW$T$151)
    7156                      .dwattr $C$DW$770, DW_AT_name("bit")
    7157                      .dwattr $C$DW$770, DW_AT_TI_symbol_name("_bit")
    7158                      .dwattr $C$DW$770, DW_AT_data_member_location[DW_OP_plus_uconst 0x0]
    7159                      .dwattr $C$DW$770, DW_AT_accessibility(DW_ACCESS_public)
    7160                      .dwendtag $C$DW$T$152
    7161              
    7162              
    7163              $C$DW$T$153     .dwtag  DW_TAG_structure_type
    7164                      .dwattr $C$DW$T$153, DW_AT_name("PCLKCR9_BITS")
    7165                      .dwattr $C$DW$T$153, DW_AT_byte_size(0x02)
    7166              $C$DW$771       .dwtag  DW_TAG_member
    7167                      .dwattr $C$DW$771, DW_AT_type(*$C$DW$T$19)
    7168                      .dwattr $C$DW$771, DW_AT_name("I2C_A")
    7169                      .dwattr $C$DW$771, DW_AT_TI_symbol_name("_I2C_A")
    7170                      .dwattr $C$DW$771, DW_AT_bit_offset(0x0f), DW_AT_bit_size(0x01)
    7171                      .dwattr $C$DW$771, DW_AT_data_member_location[DW_OP_plus_uconst 0x0]
    7172                      .dwattr $C$DW$771, DW_AT_accessibility(DW_ACCESS_public)
    7173              $C$DW$772       .dwtag  DW_TAG_member
    7174                      .dwattr $C$DW$772, DW_AT_type(*$C$DW$T$19)
    7175                      .dwattr $C$DW$772, DW_AT_name("I2C_B")
    7176                      .dwattr $C$DW$772, DW_AT_TI_symbol_name("_I2C_B")
    7177                      .dwattr $C$DW$772, DW_AT_bit_offset(0x0e), DW_AT_bit_size(0x01)
    7178                      .dwattr $C$DW$772, DW_AT_data_member_location[DW_OP_plus_uconst 0x0]
TMS320C2000 Assembler PC v6.4.2 Thu Dec 14 15:26:44 2017

Tools Copyright (c) 1996-2015 Texas Instruments Incorporated
F2837xS_SysCtrl.asm                                                  PAGE  135

    7179                      .dwattr $C$DW$772, DW_AT_accessibility(DW_ACCESS_public)
    7180              $C$DW$773       .dwtag  DW_TAG_member
    7181                      .dwattr $C$DW$773, DW_AT_type(*$C$DW$T$19)
    7182                      .dwattr $C$DW$773, DW_AT_name("rsvd1")
    7183                      .dwattr $C$DW$773, DW_AT_TI_symbol_name("_rsvd1")
    7184                      .dwattr $C$DW$773, DW_AT_bit_offset(0x00), DW_AT_bit_size(0x0e)
    7185                      .dwattr $C$DW$773, DW_AT_data_member_location[DW_OP_plus_uconst 0x0]
    7186                      .dwattr $C$DW$773, DW_AT_accessibility(DW_ACCESS_public)
    7187              $C$DW$774       .dwtag  DW_TAG_member
    7188                      .dwattr $C$DW$774, DW_AT_type(*$C$DW$T$19)
    7189                      .dwattr $C$DW$774, DW_AT_name("rsvd2")
    7190                      .dwattr $C$DW$774, DW_AT_TI_symbol_name("_rsvd2")
    7191                      .dwattr $C$DW$774, DW_AT_bit_offset(0x0f), DW_AT_bit_size(0x01)
    7192                      .dwattr $C$DW$774, DW_AT_data_member_location[DW_OP_plus_uconst 0x1]
    7193                      .dwattr $C$DW$774, DW_AT_accessibility(DW_ACCESS_public)
    7194              $C$DW$775       .dwtag  DW_TAG_member
    7195                      .dwattr $C$DW$775, DW_AT_type(*$C$DW$T$19)
    7196                      .dwattr $C$DW$775, DW_AT_name("rsvd3")
    7197                      .dwattr $C$DW$775, DW_AT_TI_symbol_name("_rsvd3")
    7198                      .dwattr $C$DW$775, DW_AT_bit_offset(0x0e), DW_AT_bit_size(0x01)
    7199                      .dwattr $C$DW$775, DW_AT_data_member_location[DW_OP_plus_uconst 0x1]
    7200                      .dwattr $C$DW$775, DW_AT_accessibility(DW_ACCESS_public)
    7201              $C$DW$776       .dwtag  DW_TAG_member
    7202                      .dwattr $C$DW$776, DW_AT_type(*$C$DW$T$19)
    7203                      .dwattr $C$DW$776, DW_AT_name("rsvd4")
    7204                      .dwattr $C$DW$776, DW_AT_TI_symbol_name("_rsvd4")
    7205                      .dwattr $C$DW$776, DW_AT_bit_offset(0x00), DW_AT_bit_size(0x0e)
    7206                      .dwattr $C$DW$776, DW_AT_data_member_location[DW_OP_plus_uconst 0x1]
    7207                      .dwattr $C$DW$776, DW_AT_accessibility(DW_ACCESS_public)
    7208                      .dwendtag $C$DW$T$153
    7209              
    7210              
    7211              $C$DW$T$154     .dwtag  DW_TAG_union_type
    7212                      .dwattr $C$DW$T$154, DW_AT_name("PCLKCR9_REG")
    7213                      .dwattr $C$DW$T$154, DW_AT_byte_size(0x02)
    7214              $C$DW$777       .dwtag  DW_TAG_member
    7215                      .dwattr $C$DW$777, DW_AT_type(*$C$DW$T$27)
    7216                      .dwattr $C$DW$777, DW_AT_name("all")
    7217                      .dwattr $C$DW$777, DW_AT_TI_symbol_name("_all")
    7218                      .dwattr $C$DW$777, DW_AT_data_member_location[DW_OP_plus_uconst 0x0]
    7219                      .dwattr $C$DW$777, DW_AT_accessibility(DW_ACCESS_public)
    7220              $C$DW$778       .dwtag  DW_TAG_member
    7221                      .dwattr $C$DW$778, DW_AT_type(*$C$DW$T$153)
    7222                      .dwattr $C$DW$778, DW_AT_name("bit")
    7223                      .dwattr $C$DW$778, DW_AT_TI_symbol_name("_bit")
    7224                      .dwattr $C$DW$778, DW_AT_data_member_location[DW_OP_plus_uconst 0x0]
    7225                      .dwattr $C$DW$778, DW_AT_accessibility(DW_ACCESS_public)
    7226                      .dwendtag $C$DW$T$154
    7227              
    7228              
    7229              $C$DW$T$155     .dwtag  DW_TAG_structure_type
    7230                      .dwattr $C$DW$T$155, DW_AT_name("PERCLKDIVSEL_BITS")
    7231                      .dwattr $C$DW$T$155, DW_AT_byte_size(0x02)
    7232              $C$DW$779       .dwtag  DW_TAG_member
    7233                      .dwattr $C$DW$779, DW_AT_type(*$C$DW$T$19)
TMS320C2000 Assembler PC v6.4.2 Thu Dec 14 15:26:44 2017

Tools Copyright (c) 1996-2015 Texas Instruments Incorporated
F2837xS_SysCtrl.asm                                                  PAGE  136

    7234                      .dwattr $C$DW$779, DW_AT_name("EPWMCLKDIV")
    7235                      .dwattr $C$DW$779, DW_AT_TI_symbol_name("_EPWMCLKDIV")
    7236                      .dwattr $C$DW$779, DW_AT_bit_offset(0x0e), DW_AT_bit_size(0x02)
    7237                      .dwattr $C$DW$779, DW_AT_data_member_location[DW_OP_plus_uconst 0x0]
    7238                      .dwattr $C$DW$779, DW_AT_accessibility(DW_ACCESS_public)
    7239              $C$DW$780       .dwtag  DW_TAG_member
    7240                      .dwattr $C$DW$780, DW_AT_type(*$C$DW$T$19)
    7241                      .dwattr $C$DW$780, DW_AT_name("rsvd1")
    7242                      .dwattr $C$DW$780, DW_AT_TI_symbol_name("_rsvd1")
    7243                      .dwattr $C$DW$780, DW_AT_bit_offset(0x0c), DW_AT_bit_size(0x02)
    7244                      .dwattr $C$DW$780, DW_AT_data_member_location[DW_OP_plus_uconst 0x0]
    7245                      .dwattr $C$DW$780, DW_AT_accessibility(DW_ACCESS_public)
    7246              $C$DW$781       .dwtag  DW_TAG_member
    7247                      .dwattr $C$DW$781, DW_AT_type(*$C$DW$T$19)
    7248                      .dwattr $C$DW$781, DW_AT_name("EMIF1CLKDIV")
    7249                      .dwattr $C$DW$781, DW_AT_TI_symbol_name("_EMIF1CLKDIV")
    7250                      .dwattr $C$DW$781, DW_AT_bit_offset(0x0b), DW_AT_bit_size(0x01)
    7251                      .dwattr $C$DW$781, DW_AT_data_member_location[DW_OP_plus_uconst 0x0]
    7252                      .dwattr $C$DW$781, DW_AT_accessibility(DW_ACCESS_public)
    7253              $C$DW$782       .dwtag  DW_TAG_member
    7254                      .dwattr $C$DW$782, DW_AT_type(*$C$DW$T$19)
    7255                      .dwattr $C$DW$782, DW_AT_name("rsvd2")
    7256                      .dwattr $C$DW$782, DW_AT_TI_symbol_name("_rsvd2")
    7257                      .dwattr $C$DW$782, DW_AT_bit_offset(0x0a), DW_AT_bit_size(0x01)
    7258                      .dwattr $C$DW$782, DW_AT_data_member_location[DW_OP_plus_uconst 0x0]
    7259                      .dwattr $C$DW$782, DW_AT_accessibility(DW_ACCESS_public)
    7260              $C$DW$783       .dwtag  DW_TAG_member
    7261                      .dwattr $C$DW$783, DW_AT_type(*$C$DW$T$19)
    7262                      .dwattr $C$DW$783, DW_AT_name("EMIF2CLKDIV")
    7263                      .dwattr $C$DW$783, DW_AT_TI_symbol_name("_EMIF2CLKDIV")
    7264                      .dwattr $C$DW$783, DW_AT_bit_offset(0x09), DW_AT_bit_size(0x01)
    7265                      .dwattr $C$DW$783, DW_AT_data_member_location[DW_OP_plus_uconst 0x0]
    7266                      .dwattr $C$DW$783, DW_AT_accessibility(DW_ACCESS_public)
    7267              $C$DW$784       .dwtag  DW_TAG_member
    7268                      .dwattr $C$DW$784, DW_AT_type(*$C$DW$T$19)
    7269                      .dwattr $C$DW$784, DW_AT_name("rsvd3")
    7270                      .dwattr $C$DW$784, DW_AT_TI_symbol_name("_rsvd3")
    7271                      .dwattr $C$DW$784, DW_AT_bit_offset(0x00), DW_AT_bit_size(0x09)
    7272                      .dwattr $C$DW$784, DW_AT_data_member_location[DW_OP_plus_uconst 0x0]
    7273                      .dwattr $C$DW$784, DW_AT_accessibility(DW_ACCESS_public)
    7274              $C$DW$785       .dwtag  DW_TAG_member
    7275                      .dwattr $C$DW$785, DW_AT_type(*$C$DW$T$19)
    7276                      .dwattr $C$DW$785, DW_AT_name("rsvd4")
    7277                      .dwattr $C$DW$785, DW_AT_TI_symbol_name("_rsvd4")
    7278                      .dwattr $C$DW$785, DW_AT_bit_offset(0x00), DW_AT_bit_size(0x10)
    7279                      .dwattr $C$DW$785, DW_AT_data_member_location[DW_OP_plus_uconst 0x1]
    7280                      .dwattr $C$DW$785, DW_AT_accessibility(DW_ACCESS_public)
    7281                      .dwendtag $C$DW$T$155
    7282              
    7283              
    7284              $C$DW$T$156     .dwtag  DW_TAG_union_type
    7285                      .dwattr $C$DW$T$156, DW_AT_name("PERCLKDIVSEL_REG")
    7286                      .dwattr $C$DW$T$156, DW_AT_byte_size(0x02)
    7287              $C$DW$786       .dwtag  DW_TAG_member
    7288                      .dwattr $C$DW$786, DW_AT_type(*$C$DW$T$27)
TMS320C2000 Assembler PC v6.4.2 Thu Dec 14 15:26:44 2017

Tools Copyright (c) 1996-2015 Texas Instruments Incorporated
F2837xS_SysCtrl.asm                                                  PAGE  137

    7289                      .dwattr $C$DW$786, DW_AT_name("all")
    7290                      .dwattr $C$DW$786, DW_AT_TI_symbol_name("_all")
    7291                      .dwattr $C$DW$786, DW_AT_data_member_location[DW_OP_plus_uconst 0x0]
    7292                      .dwattr $C$DW$786, DW_AT_accessibility(DW_ACCESS_public)
    7293              $C$DW$787       .dwtag  DW_TAG_member
    7294                      .dwattr $C$DW$787, DW_AT_type(*$C$DW$T$155)
    7295                      .dwattr $C$DW$787, DW_AT_name("bit")
    7296                      .dwattr $C$DW$787, DW_AT_TI_symbol_name("_bit")
    7297                      .dwattr $C$DW$787, DW_AT_data_member_location[DW_OP_plus_uconst 0x0]
    7298                      .dwattr $C$DW$787, DW_AT_accessibility(DW_ACCESS_public)
    7299                      .dwendtag $C$DW$T$156
    7300              
    7301              
    7302              $C$DW$T$157     .dwtag  DW_TAG_structure_type
    7303                      .dwattr $C$DW$T$157, DW_AT_name("PIEVERRADDR_BITS")
    7304                      .dwattr $C$DW$T$157, DW_AT_byte_size(0x02)
    7305              $C$DW$788       .dwtag  DW_TAG_member
    7306                      .dwattr $C$DW$788, DW_AT_type(*$C$DW$T$27)
    7307                      .dwattr $C$DW$788, DW_AT_name("ADDR")
    7308                      .dwattr $C$DW$788, DW_AT_TI_symbol_name("_ADDR")
    7309                      .dwattr $C$DW$788, DW_AT_bit_offset(0x0a), DW_AT_bit_size(0x16)
    7310                      .dwattr $C$DW$788, DW_AT_data_member_location[DW_OP_plus_uconst 0x0]
    7311                      .dwattr $C$DW$788, DW_AT_accessibility(DW_ACCESS_public)
    7312              $C$DW$789       .dwtag  DW_TAG_member
    7313                      .dwattr $C$DW$789, DW_AT_type(*$C$DW$T$19)
    7314                      .dwattr $C$DW$789, DW_AT_name("rsvd1")
    7315                      .dwattr $C$DW$789, DW_AT_TI_symbol_name("_rsvd1")
    7316                      .dwattr $C$DW$789, DW_AT_bit_offset(0x00), DW_AT_bit_size(0x0a)
    7317                      .dwattr $C$DW$789, DW_AT_data_member_location[DW_OP_plus_uconst 0x1]
    7318                      .dwattr $C$DW$789, DW_AT_accessibility(DW_ACCESS_public)
    7319                      .dwendtag $C$DW$T$157
    7320              
    7321              
    7322              $C$DW$T$158     .dwtag  DW_TAG_union_type
    7323                      .dwattr $C$DW$T$158, DW_AT_name("PIEVERRADDR_REG")
    7324                      .dwattr $C$DW$T$158, DW_AT_byte_size(0x02)
    7325              $C$DW$790       .dwtag  DW_TAG_member
    7326                      .dwattr $C$DW$790, DW_AT_type(*$C$DW$T$27)
    7327                      .dwattr $C$DW$790, DW_AT_name("all")
    7328                      .dwattr $C$DW$790, DW_AT_TI_symbol_name("_all")
    7329                      .dwattr $C$DW$790, DW_AT_data_member_location[DW_OP_plus_uconst 0x0]
    7330                      .dwattr $C$DW$790, DW_AT_accessibility(DW_ACCESS_public)
    7331              $C$DW$791       .dwtag  DW_TAG_member
    7332                      .dwattr $C$DW$791, DW_AT_type(*$C$DW$T$157)
    7333                      .dwattr $C$DW$791, DW_AT_name("bit")
    7334                      .dwattr $C$DW$791, DW_AT_TI_symbol_name("_bit")
    7335                      .dwattr $C$DW$791, DW_AT_data_member_location[DW_OP_plus_uconst 0x0]
    7336                      .dwattr $C$DW$791, DW_AT_accessibility(DW_ACCESS_public)
    7337                      .dwendtag $C$DW$T$158
    7338              
    7339              
    7340              $C$DW$T$159     .dwtag  DW_TAG_structure_type
    7341                      .dwattr $C$DW$T$159, DW_AT_name("RESC_BITS")
    7342                      .dwattr $C$DW$T$159, DW_AT_byte_size(0x02)
    7343              $C$DW$792       .dwtag  DW_TAG_member
TMS320C2000 Assembler PC v6.4.2 Thu Dec 14 15:26:44 2017

Tools Copyright (c) 1996-2015 Texas Instruments Incorporated
F2837xS_SysCtrl.asm                                                  PAGE  138

    7344                      .dwattr $C$DW$792, DW_AT_type(*$C$DW$T$19)
    7345                      .dwattr $C$DW$792, DW_AT_name("POR")
    7346                      .dwattr $C$DW$792, DW_AT_TI_symbol_name("_POR")
    7347                      .dwattr $C$DW$792, DW_AT_bit_offset(0x0f), DW_AT_bit_size(0x01)
    7348                      .dwattr $C$DW$792, DW_AT_data_member_location[DW_OP_plus_uconst 0x0]
    7349                      .dwattr $C$DW$792, DW_AT_accessibility(DW_ACCESS_public)
    7350              $C$DW$793       .dwtag  DW_TAG_member
    7351                      .dwattr $C$DW$793, DW_AT_type(*$C$DW$T$19)
    7352                      .dwattr $C$DW$793, DW_AT_name("XRSn")
    7353                      .dwattr $C$DW$793, DW_AT_TI_symbol_name("_XRSn")
    7354                      .dwattr $C$DW$793, DW_AT_bit_offset(0x0e), DW_AT_bit_size(0x01)
    7355                      .dwattr $C$DW$793, DW_AT_data_member_location[DW_OP_plus_uconst 0x0]
    7356                      .dwattr $C$DW$793, DW_AT_accessibility(DW_ACCESS_public)
    7357              $C$DW$794       .dwtag  DW_TAG_member
    7358                      .dwattr $C$DW$794, DW_AT_type(*$C$DW$T$19)
    7359                      .dwattr $C$DW$794, DW_AT_name("WDRSn")
    7360                      .dwattr $C$DW$794, DW_AT_TI_symbol_name("_WDRSn")
    7361                      .dwattr $C$DW$794, DW_AT_bit_offset(0x0d), DW_AT_bit_size(0x01)
    7362                      .dwattr $C$DW$794, DW_AT_data_member_location[DW_OP_plus_uconst 0x0]
    7363                      .dwattr $C$DW$794, DW_AT_accessibility(DW_ACCESS_public)
    7364              $C$DW$795       .dwtag  DW_TAG_member
    7365                      .dwattr $C$DW$795, DW_AT_type(*$C$DW$T$19)
    7366                      .dwattr $C$DW$795, DW_AT_name("NMIWDRSn")
    7367                      .dwattr $C$DW$795, DW_AT_TI_symbol_name("_NMIWDRSn")
    7368                      .dwattr $C$DW$795, DW_AT_bit_offset(0x0c), DW_AT_bit_size(0x01)
    7369                      .dwattr $C$DW$795, DW_AT_data_member_location[DW_OP_plus_uconst 0x0]
    7370                      .dwattr $C$DW$795, DW_AT_accessibility(DW_ACCESS_public)
    7371              $C$DW$796       .dwtag  DW_TAG_member
    7372                      .dwattr $C$DW$796, DW_AT_type(*$C$DW$T$19)
    7373                      .dwattr $C$DW$796, DW_AT_name("rsvd1")
    7374                      .dwattr $C$DW$796, DW_AT_TI_symbol_name("_rsvd1")
    7375                      .dwattr $C$DW$796, DW_AT_bit_offset(0x0b), DW_AT_bit_size(0x01)
    7376                      .dwattr $C$DW$796, DW_AT_data_member_location[DW_OP_plus_uconst 0x0]
    7377                      .dwattr $C$DW$796, DW_AT_accessibility(DW_ACCESS_public)
    7378              $C$DW$797       .dwtag  DW_TAG_member
    7379                      .dwattr $C$DW$797, DW_AT_type(*$C$DW$T$19)
    7380                      .dwattr $C$DW$797, DW_AT_name("HWBISTn")
    7381                      .dwattr $C$DW$797, DW_AT_TI_symbol_name("_HWBISTn")
    7382                      .dwattr $C$DW$797, DW_AT_bit_offset(0x0a), DW_AT_bit_size(0x01)
    7383                      .dwattr $C$DW$797, DW_AT_data_member_location[DW_OP_plus_uconst 0x0]
    7384                      .dwattr $C$DW$797, DW_AT_accessibility(DW_ACCESS_public)
    7385              $C$DW$798       .dwtag  DW_TAG_member
    7386                      .dwattr $C$DW$798, DW_AT_type(*$C$DW$T$19)
    7387                      .dwattr $C$DW$798, DW_AT_name("HIBRESETn")
    7388                      .dwattr $C$DW$798, DW_AT_TI_symbol_name("_HIBRESETn")
    7389                      .dwattr $C$DW$798, DW_AT_bit_offset(0x09), DW_AT_bit_size(0x01)
    7390                      .dwattr $C$DW$798, DW_AT_data_member_location[DW_OP_plus_uconst 0x0]
    7391                      .dwattr $C$DW$798, DW_AT_accessibility(DW_ACCESS_public)
    7392              $C$DW$799       .dwtag  DW_TAG_member
    7393                      .dwattr $C$DW$799, DW_AT_type(*$C$DW$T$19)
    7394                      .dwattr $C$DW$799, DW_AT_name("rsvd2")
    7395                      .dwattr $C$DW$799, DW_AT_TI_symbol_name("_rsvd2")
    7396                      .dwattr $C$DW$799, DW_AT_bit_offset(0x08), DW_AT_bit_size(0x01)
    7397                      .dwattr $C$DW$799, DW_AT_data_member_location[DW_OP_plus_uconst 0x0]
    7398                      .dwattr $C$DW$799, DW_AT_accessibility(DW_ACCESS_public)
TMS320C2000 Assembler PC v6.4.2 Thu Dec 14 15:26:44 2017

Tools Copyright (c) 1996-2015 Texas Instruments Incorporated
F2837xS_SysCtrl.asm                                                  PAGE  139

    7399              $C$DW$800       .dwtag  DW_TAG_member
    7400                      .dwattr $C$DW$800, DW_AT_type(*$C$DW$T$19)
    7401                      .dwattr $C$DW$800, DW_AT_name("SCCRESETn")
    7402                      .dwattr $C$DW$800, DW_AT_TI_symbol_name("_SCCRESETn")
    7403                      .dwattr $C$DW$800, DW_AT_bit_offset(0x07), DW_AT_bit_size(0x01)
    7404                      .dwattr $C$DW$800, DW_AT_data_member_location[DW_OP_plus_uconst 0x0]
    7405                      .dwattr $C$DW$800, DW_AT_accessibility(DW_ACCESS_public)
    7406              $C$DW$801       .dwtag  DW_TAG_member
    7407                      .dwattr $C$DW$801, DW_AT_type(*$C$DW$T$19)
    7408                      .dwattr $C$DW$801, DW_AT_name("rsvd3")
    7409                      .dwattr $C$DW$801, DW_AT_TI_symbol_name("_rsvd3")
    7410                      .dwattr $C$DW$801, DW_AT_bit_offset(0x00), DW_AT_bit_size(0x07)
    7411                      .dwattr $C$DW$801, DW_AT_data_member_location[DW_OP_plus_uconst 0x0]
    7412                      .dwattr $C$DW$801, DW_AT_accessibility(DW_ACCESS_public)
    7413              $C$DW$802       .dwtag  DW_TAG_member
    7414                      .dwattr $C$DW$802, DW_AT_type(*$C$DW$T$19)
    7415                      .dwattr $C$DW$802, DW_AT_name("rsvd4")
    7416                      .dwattr $C$DW$802, DW_AT_TI_symbol_name("_rsvd4")
    7417                      .dwattr $C$DW$802, DW_AT_bit_offset(0x02), DW_AT_bit_size(0x0e)
    7418                      .dwattr $C$DW$802, DW_AT_data_member_location[DW_OP_plus_uconst 0x1]
    7419                      .dwattr $C$DW$802, DW_AT_accessibility(DW_ACCESS_public)
    7420              $C$DW$803       .dwtag  DW_TAG_member
    7421                      .dwattr $C$DW$803, DW_AT_type(*$C$DW$T$19)
    7422                      .dwattr $C$DW$803, DW_AT_name("XRSn_pin_status")
    7423                      .dwattr $C$DW$803, DW_AT_TI_symbol_name("_XRSn_pin_status")
    7424                      .dwattr $C$DW$803, DW_AT_bit_offset(0x01), DW_AT_bit_size(0x01)
    7425                      .dwattr $C$DW$803, DW_AT_data_member_location[DW_OP_plus_uconst 0x1]
    7426                      .dwattr $C$DW$803, DW_AT_accessibility(DW_ACCESS_public)
    7427              $C$DW$804       .dwtag  DW_TAG_member
    7428                      .dwattr $C$DW$804, DW_AT_type(*$C$DW$T$19)
    7429                      .dwattr $C$DW$804, DW_AT_name("TRSTn_pin_status")
    7430                      .dwattr $C$DW$804, DW_AT_TI_symbol_name("_TRSTn_pin_status")
    7431                      .dwattr $C$DW$804, DW_AT_bit_offset(0x00), DW_AT_bit_size(0x01)
    7432                      .dwattr $C$DW$804, DW_AT_data_member_location[DW_OP_plus_uconst 0x1]
    7433                      .dwattr $C$DW$804, DW_AT_accessibility(DW_ACCESS_public)
    7434                      .dwendtag $C$DW$T$159
    7435              
    7436              
    7437              $C$DW$T$160     .dwtag  DW_TAG_union_type
    7438                      .dwattr $C$DW$T$160, DW_AT_name("RESC_REG")
    7439                      .dwattr $C$DW$T$160, DW_AT_byte_size(0x02)
    7440              $C$DW$805       .dwtag  DW_TAG_member
    7441                      .dwattr $C$DW$805, DW_AT_type(*$C$DW$T$27)
    7442                      .dwattr $C$DW$805, DW_AT_name("all")
    7443                      .dwattr $C$DW$805, DW_AT_TI_symbol_name("_all")
    7444                      .dwattr $C$DW$805, DW_AT_data_member_location[DW_OP_plus_uconst 0x0]
    7445                      .dwattr $C$DW$805, DW_AT_accessibility(DW_ACCESS_public)
    7446              $C$DW$806       .dwtag  DW_TAG_member
    7447                      .dwattr $C$DW$806, DW_AT_type(*$C$DW$T$159)
    7448                      .dwattr $C$DW$806, DW_AT_name("bit")
    7449                      .dwattr $C$DW$806, DW_AT_TI_symbol_name("_bit")
    7450                      .dwattr $C$DW$806, DW_AT_data_member_location[DW_OP_plus_uconst 0x0]
    7451                      .dwattr $C$DW$806, DW_AT_accessibility(DW_ACCESS_public)
    7452                      .dwendtag $C$DW$T$160
    7453              
TMS320C2000 Assembler PC v6.4.2 Thu Dec 14 15:26:44 2017

Tools Copyright (c) 1996-2015 Texas Instruments Incorporated
F2837xS_SysCtrl.asm                                                  PAGE  140

    7454              
    7455              $C$DW$T$161     .dwtag  DW_TAG_structure_type
    7456                      .dwattr $C$DW$T$161, DW_AT_name("SCSR_BITS")
    7457                      .dwattr $C$DW$T$161, DW_AT_byte_size(0x01)
    7458              $C$DW$807       .dwtag  DW_TAG_member
    7459                      .dwattr $C$DW$807, DW_AT_type(*$C$DW$T$19)
    7460                      .dwattr $C$DW$807, DW_AT_name("WDOVERRIDE")
    7461                      .dwattr $C$DW$807, DW_AT_TI_symbol_name("_WDOVERRIDE")
    7462                      .dwattr $C$DW$807, DW_AT_bit_offset(0x0f), DW_AT_bit_size(0x01)
    7463                      .dwattr $C$DW$807, DW_AT_data_member_location[DW_OP_plus_uconst 0x0]
    7464                      .dwattr $C$DW$807, DW_AT_accessibility(DW_ACCESS_public)
    7465              $C$DW$808       .dwtag  DW_TAG_member
    7466                      .dwattr $C$DW$808, DW_AT_type(*$C$DW$T$19)
    7467                      .dwattr $C$DW$808, DW_AT_name("WDENINT")
    7468                      .dwattr $C$DW$808, DW_AT_TI_symbol_name("_WDENINT")
    7469                      .dwattr $C$DW$808, DW_AT_bit_offset(0x0e), DW_AT_bit_size(0x01)
    7470                      .dwattr $C$DW$808, DW_AT_data_member_location[DW_OP_plus_uconst 0x0]
    7471                      .dwattr $C$DW$808, DW_AT_accessibility(DW_ACCESS_public)
    7472              $C$DW$809       .dwtag  DW_TAG_member
    7473                      .dwattr $C$DW$809, DW_AT_type(*$C$DW$T$19)
    7474                      .dwattr $C$DW$809, DW_AT_name("WDINTS")
    7475                      .dwattr $C$DW$809, DW_AT_TI_symbol_name("_WDINTS")
    7476                      .dwattr $C$DW$809, DW_AT_bit_offset(0x0d), DW_AT_bit_size(0x01)
    7477                      .dwattr $C$DW$809, DW_AT_data_member_location[DW_OP_plus_uconst 0x0]
    7478                      .dwattr $C$DW$809, DW_AT_accessibility(DW_ACCESS_public)
    7479              $C$DW$810       .dwtag  DW_TAG_member
    7480                      .dwattr $C$DW$810, DW_AT_type(*$C$DW$T$19)
    7481                      .dwattr $C$DW$810, DW_AT_name("rsvd1")
    7482                      .dwattr $C$DW$810, DW_AT_TI_symbol_name("_rsvd1")
    7483                      .dwattr $C$DW$810, DW_AT_bit_offset(0x00), DW_AT_bit_size(0x0d)
    7484                      .dwattr $C$DW$810, DW_AT_data_member_location[DW_OP_plus_uconst 0x0]
    7485                      .dwattr $C$DW$810, DW_AT_accessibility(DW_ACCESS_public)
    7486                      .dwendtag $C$DW$T$161
    7487              
    7488              
    7489              $C$DW$T$162     .dwtag  DW_TAG_union_type
    7490                      .dwattr $C$DW$T$162, DW_AT_name("SCSR_REG")
    7491                      .dwattr $C$DW$T$162, DW_AT_byte_size(0x01)
    7492              $C$DW$811       .dwtag  DW_TAG_member
    7493                      .dwattr $C$DW$811, DW_AT_type(*$C$DW$T$19)
    7494                      .dwattr $C$DW$811, DW_AT_name("all")
    7495                      .dwattr $C$DW$811, DW_AT_TI_symbol_name("_all")
    7496                      .dwattr $C$DW$811, DW_AT_data_member_location[DW_OP_plus_uconst 0x0]
    7497                      .dwattr $C$DW$811, DW_AT_accessibility(DW_ACCESS_public)
    7498              $C$DW$812       .dwtag  DW_TAG_member
    7499                      .dwattr $C$DW$812, DW_AT_type(*$C$DW$T$161)
    7500                      .dwattr $C$DW$812, DW_AT_name("bit")
    7501                      .dwattr $C$DW$812, DW_AT_TI_symbol_name("_bit")
    7502                      .dwattr $C$DW$812, DW_AT_data_member_location[DW_OP_plus_uconst 0x0]
    7503                      .dwattr $C$DW$812, DW_AT_accessibility(DW_ACCESS_public)
    7504                      .dwendtag $C$DW$T$162
    7505              
    7506              
    7507              $C$DW$T$163     .dwtag  DW_TAG_structure_type
    7508                      .dwattr $C$DW$T$163, DW_AT_name("SECMSEL_BITS")
TMS320C2000 Assembler PC v6.4.2 Thu Dec 14 15:26:44 2017

Tools Copyright (c) 1996-2015 Texas Instruments Incorporated
F2837xS_SysCtrl.asm                                                  PAGE  141

    7509                      .dwattr $C$DW$T$163, DW_AT_byte_size(0x02)
    7510              $C$DW$813       .dwtag  DW_TAG_member
    7511                      .dwattr $C$DW$813, DW_AT_type(*$C$DW$T$19)
    7512                      .dwattr $C$DW$813, DW_AT_name("PF1SEL")
    7513                      .dwattr $C$DW$813, DW_AT_TI_symbol_name("_PF1SEL")
    7514                      .dwattr $C$DW$813, DW_AT_bit_offset(0x0e), DW_AT_bit_size(0x02)
    7515                      .dwattr $C$DW$813, DW_AT_data_member_location[DW_OP_plus_uconst 0x0]
    7516                      .dwattr $C$DW$813, DW_AT_accessibility(DW_ACCESS_public)
    7517              $C$DW$814       .dwtag  DW_TAG_member
    7518                      .dwattr $C$DW$814, DW_AT_type(*$C$DW$T$19)
    7519                      .dwattr $C$DW$814, DW_AT_name("PF2SEL")
    7520                      .dwattr $C$DW$814, DW_AT_TI_symbol_name("_PF2SEL")
    7521                      .dwattr $C$DW$814, DW_AT_bit_offset(0x0c), DW_AT_bit_size(0x02)
    7522                      .dwattr $C$DW$814, DW_AT_data_member_location[DW_OP_plus_uconst 0x0]
    7523                      .dwattr $C$DW$814, DW_AT_accessibility(DW_ACCESS_public)
    7524              $C$DW$815       .dwtag  DW_TAG_member
    7525                      .dwattr $C$DW$815, DW_AT_type(*$C$DW$T$19)
    7526                      .dwattr $C$DW$815, DW_AT_name("rsvd1")
    7527                      .dwattr $C$DW$815, DW_AT_TI_symbol_name("_rsvd1")
    7528                      .dwattr $C$DW$815, DW_AT_bit_offset(0x0a), DW_AT_bit_size(0x02)
    7529                      .dwattr $C$DW$815, DW_AT_data_member_location[DW_OP_plus_uconst 0x0]
    7530                      .dwattr $C$DW$815, DW_AT_accessibility(DW_ACCESS_public)
    7531              $C$DW$816       .dwtag  DW_TAG_member
    7532                      .dwattr $C$DW$816, DW_AT_type(*$C$DW$T$19)
    7533                      .dwattr $C$DW$816, DW_AT_name("rsvd2")
    7534                      .dwattr $C$DW$816, DW_AT_TI_symbol_name("_rsvd2")
    7535                      .dwattr $C$DW$816, DW_AT_bit_offset(0x08), DW_AT_bit_size(0x02)
    7536                      .dwattr $C$DW$816, DW_AT_data_member_location[DW_OP_plus_uconst 0x0]
    7537                      .dwattr $C$DW$816, DW_AT_accessibility(DW_ACCESS_public)
    7538              $C$DW$817       .dwtag  DW_TAG_member
    7539                      .dwattr $C$DW$817, DW_AT_type(*$C$DW$T$19)
    7540                      .dwattr $C$DW$817, DW_AT_name("rsvd3")
    7541                      .dwattr $C$DW$817, DW_AT_TI_symbol_name("_rsvd3")
    7542                      .dwattr $C$DW$817, DW_AT_bit_offset(0x06), DW_AT_bit_size(0x02)
    7543                      .dwattr $C$DW$817, DW_AT_data_member_location[DW_OP_plus_uconst 0x0]
    7544                      .dwattr $C$DW$817, DW_AT_accessibility(DW_ACCESS_public)
    7545              $C$DW$818       .dwtag  DW_TAG_member
    7546                      .dwattr $C$DW$818, DW_AT_type(*$C$DW$T$19)
    7547                      .dwattr $C$DW$818, DW_AT_name("rsvd4")
    7548                      .dwattr $C$DW$818, DW_AT_TI_symbol_name("_rsvd4")
    7549                      .dwattr $C$DW$818, DW_AT_bit_offset(0x04), DW_AT_bit_size(0x02)
    7550                      .dwattr $C$DW$818, DW_AT_data_member_location[DW_OP_plus_uconst 0x0]
    7551                      .dwattr $C$DW$818, DW_AT_accessibility(DW_ACCESS_public)
    7552              $C$DW$819       .dwtag  DW_TAG_member
    7553                      .dwattr $C$DW$819, DW_AT_type(*$C$DW$T$19)
    7554                      .dwattr $C$DW$819, DW_AT_name("rsvd5")
    7555                      .dwattr $C$DW$819, DW_AT_TI_symbol_name("_rsvd5")
    7556                      .dwattr $C$DW$819, DW_AT_bit_offset(0x02), DW_AT_bit_size(0x02)
    7557                      .dwattr $C$DW$819, DW_AT_data_member_location[DW_OP_plus_uconst 0x0]
    7558                      .dwattr $C$DW$819, DW_AT_accessibility(DW_ACCESS_public)
    7559              $C$DW$820       .dwtag  DW_TAG_member
    7560                      .dwattr $C$DW$820, DW_AT_type(*$C$DW$T$19)
    7561                      .dwattr $C$DW$820, DW_AT_name("rsvd6")
    7562                      .dwattr $C$DW$820, DW_AT_TI_symbol_name("_rsvd6")
    7563                      .dwattr $C$DW$820, DW_AT_bit_offset(0x00), DW_AT_bit_size(0x02)
TMS320C2000 Assembler PC v6.4.2 Thu Dec 14 15:26:44 2017

Tools Copyright (c) 1996-2015 Texas Instruments Incorporated
F2837xS_SysCtrl.asm                                                  PAGE  142

    7564                      .dwattr $C$DW$820, DW_AT_data_member_location[DW_OP_plus_uconst 0x0]
    7565                      .dwattr $C$DW$820, DW_AT_accessibility(DW_ACCESS_public)
    7566              $C$DW$821       .dwtag  DW_TAG_member
    7567                      .dwattr $C$DW$821, DW_AT_type(*$C$DW$T$19)
    7568                      .dwattr $C$DW$821, DW_AT_name("rsvd7")
    7569                      .dwattr $C$DW$821, DW_AT_TI_symbol_name("_rsvd7")
    7570                      .dwattr $C$DW$821, DW_AT_bit_offset(0x00), DW_AT_bit_size(0x10)
    7571                      .dwattr $C$DW$821, DW_AT_data_member_location[DW_OP_plus_uconst 0x1]
    7572                      .dwattr $C$DW$821, DW_AT_accessibility(DW_ACCESS_public)
    7573                      .dwendtag $C$DW$T$163
    7574              
    7575              
    7576              $C$DW$T$164     .dwtag  DW_TAG_union_type
    7577                      .dwattr $C$DW$T$164, DW_AT_name("SECMSEL_REG")
    7578                      .dwattr $C$DW$T$164, DW_AT_byte_size(0x02)
    7579              $C$DW$822       .dwtag  DW_TAG_member
    7580                      .dwattr $C$DW$822, DW_AT_type(*$C$DW$T$27)
    7581                      .dwattr $C$DW$822, DW_AT_name("all")
    7582                      .dwattr $C$DW$822, DW_AT_TI_symbol_name("_all")
    7583                      .dwattr $C$DW$822, DW_AT_data_member_location[DW_OP_plus_uconst 0x0]
    7584                      .dwattr $C$DW$822, DW_AT_accessibility(DW_ACCESS_public)
    7585              $C$DW$823       .dwtag  DW_TAG_member
    7586                      .dwattr $C$DW$823, DW_AT_type(*$C$DW$T$163)
    7587                      .dwattr $C$DW$823, DW_AT_name("bit")
    7588                      .dwattr $C$DW$823, DW_AT_TI_symbol_name("_bit")
    7589                      .dwattr $C$DW$823, DW_AT_data_member_location[DW_OP_plus_uconst 0x0]
    7590                      .dwattr $C$DW$823, DW_AT_accessibility(DW_ACCESS_public)
    7591                      .dwendtag $C$DW$T$164
    7592              
    7593              
    7594              $C$DW$T$165     .dwtag  DW_TAG_structure_type
    7595                      .dwattr $C$DW$T$165, DW_AT_name("SYSCLKDIVSEL_BITS")
    7596                      .dwattr $C$DW$T$165, DW_AT_byte_size(0x02)
    7597              $C$DW$824       .dwtag  DW_TAG_member
    7598                      .dwattr $C$DW$824, DW_AT_type(*$C$DW$T$19)
    7599                      .dwattr $C$DW$824, DW_AT_name("PLLSYSCLKDIV")
    7600                      .dwattr $C$DW$824, DW_AT_TI_symbol_name("_PLLSYSCLKDIV")
    7601                      .dwattr $C$DW$824, DW_AT_bit_offset(0x0a), DW_AT_bit_size(0x06)
    7602                      .dwattr $C$DW$824, DW_AT_data_member_location[DW_OP_plus_uconst 0x0]
    7603                      .dwattr $C$DW$824, DW_AT_accessibility(DW_ACCESS_public)
    7604              $C$DW$825       .dwtag  DW_TAG_member
    7605                      .dwattr $C$DW$825, DW_AT_type(*$C$DW$T$19)
    7606                      .dwattr $C$DW$825, DW_AT_name("rsvd1")
    7607                      .dwattr $C$DW$825, DW_AT_TI_symbol_name("_rsvd1")
    7608                      .dwattr $C$DW$825, DW_AT_bit_offset(0x00), DW_AT_bit_size(0x0a)
    7609                      .dwattr $C$DW$825, DW_AT_data_member_location[DW_OP_plus_uconst 0x0]
    7610                      .dwattr $C$DW$825, DW_AT_accessibility(DW_ACCESS_public)
    7611              $C$DW$826       .dwtag  DW_TAG_member
    7612                      .dwattr $C$DW$826, DW_AT_type(*$C$DW$T$19)
    7613                      .dwattr $C$DW$826, DW_AT_name("rsvd2")
    7614                      .dwattr $C$DW$826, DW_AT_TI_symbol_name("_rsvd2")
    7615                      .dwattr $C$DW$826, DW_AT_bit_offset(0x00), DW_AT_bit_size(0x10)
    7616                      .dwattr $C$DW$826, DW_AT_data_member_location[DW_OP_plus_uconst 0x1]
    7617                      .dwattr $C$DW$826, DW_AT_accessibility(DW_ACCESS_public)
    7618                      .dwendtag $C$DW$T$165
TMS320C2000 Assembler PC v6.4.2 Thu Dec 14 15:26:44 2017

Tools Copyright (c) 1996-2015 Texas Instruments Incorporated
F2837xS_SysCtrl.asm                                                  PAGE  143

    7619              
    7620              
    7621              $C$DW$T$166     .dwtag  DW_TAG_union_type
    7622                      .dwattr $C$DW$T$166, DW_AT_name("SYSCLKDIVSEL_REG")
    7623                      .dwattr $C$DW$T$166, DW_AT_byte_size(0x02)
    7624              $C$DW$827       .dwtag  DW_TAG_member
    7625                      .dwattr $C$DW$827, DW_AT_type(*$C$DW$T$27)
    7626                      .dwattr $C$DW$827, DW_AT_name("all")
    7627                      .dwattr $C$DW$827, DW_AT_TI_symbol_name("_all")
    7628                      .dwattr $C$DW$827, DW_AT_data_member_location[DW_OP_plus_uconst 0x0]
    7629                      .dwattr $C$DW$827, DW_AT_accessibility(DW_ACCESS_public)
    7630              $C$DW$828       .dwtag  DW_TAG_member
    7631                      .dwattr $C$DW$828, DW_AT_type(*$C$DW$T$165)
    7632                      .dwattr $C$DW$828, DW_AT_name("bit")
    7633                      .dwattr $C$DW$828, DW_AT_TI_symbol_name("_bit")
    7634                      .dwattr $C$DW$828, DW_AT_data_member_location[DW_OP_plus_uconst 0x0]
    7635                      .dwattr $C$DW$828, DW_AT_accessibility(DW_ACCESS_public)
    7636                      .dwendtag $C$DW$T$166
    7637              
    7638              
    7639              $C$DW$T$167     .dwtag  DW_TAG_structure_type
    7640                      .dwattr $C$DW$T$167, DW_AT_name("SYSPLLCTL1_BITS")
    7641                      .dwattr $C$DW$T$167, DW_AT_byte_size(0x02)
    7642              $C$DW$829       .dwtag  DW_TAG_member
    7643                      .dwattr $C$DW$829, DW_AT_type(*$C$DW$T$19)
    7644                      .dwattr $C$DW$829, DW_AT_name("PLLEN")
    7645                      .dwattr $C$DW$829, DW_AT_TI_symbol_name("_PLLEN")
    7646                      .dwattr $C$DW$829, DW_AT_bit_offset(0x0f), DW_AT_bit_size(0x01)
    7647                      .dwattr $C$DW$829, DW_AT_data_member_location[DW_OP_plus_uconst 0x0]
    7648                      .dwattr $C$DW$829, DW_AT_accessibility(DW_ACCESS_public)
    7649              $C$DW$830       .dwtag  DW_TAG_member
    7650                      .dwattr $C$DW$830, DW_AT_type(*$C$DW$T$19)
    7651                      .dwattr $C$DW$830, DW_AT_name("PLLCLKEN")
    7652                      .dwattr $C$DW$830, DW_AT_TI_symbol_name("_PLLCLKEN")
    7653                      .dwattr $C$DW$830, DW_AT_bit_offset(0x0e), DW_AT_bit_size(0x01)
    7654                      .dwattr $C$DW$830, DW_AT_data_member_location[DW_OP_plus_uconst 0x0]
    7655                      .dwattr $C$DW$830, DW_AT_accessibility(DW_ACCESS_public)
    7656              $C$DW$831       .dwtag  DW_TAG_member
    7657                      .dwattr $C$DW$831, DW_AT_type(*$C$DW$T$19)
    7658                      .dwattr $C$DW$831, DW_AT_name("rsvd1")
    7659                      .dwattr $C$DW$831, DW_AT_TI_symbol_name("_rsvd1")
    7660                      .dwattr $C$DW$831, DW_AT_bit_offset(0x00), DW_AT_bit_size(0x0e)
    7661                      .dwattr $C$DW$831, DW_AT_data_member_location[DW_OP_plus_uconst 0x0]
    7662                      .dwattr $C$DW$831, DW_AT_accessibility(DW_ACCESS_public)
    7663              $C$DW$832       .dwtag  DW_TAG_member
    7664                      .dwattr $C$DW$832, DW_AT_type(*$C$DW$T$19)
    7665                      .dwattr $C$DW$832, DW_AT_name("rsvd2")
    7666                      .dwattr $C$DW$832, DW_AT_TI_symbol_name("_rsvd2")
    7667                      .dwattr $C$DW$832, DW_AT_bit_offset(0x00), DW_AT_bit_size(0x10)
    7668                      .dwattr $C$DW$832, DW_AT_data_member_location[DW_OP_plus_uconst 0x1]
    7669                      .dwattr $C$DW$832, DW_AT_accessibility(DW_ACCESS_public)
    7670                      .dwendtag $C$DW$T$167
    7671              
    7672              
    7673              $C$DW$T$168     .dwtag  DW_TAG_union_type
TMS320C2000 Assembler PC v6.4.2 Thu Dec 14 15:26:44 2017

Tools Copyright (c) 1996-2015 Texas Instruments Incorporated
F2837xS_SysCtrl.asm                                                  PAGE  144

    7674                      .dwattr $C$DW$T$168, DW_AT_name("SYSPLLCTL1_REG")
    7675                      .dwattr $C$DW$T$168, DW_AT_byte_size(0x02)
    7676              $C$DW$833       .dwtag  DW_TAG_member
    7677                      .dwattr $C$DW$833, DW_AT_type(*$C$DW$T$27)
    7678                      .dwattr $C$DW$833, DW_AT_name("all")
    7679                      .dwattr $C$DW$833, DW_AT_TI_symbol_name("_all")
    7680                      .dwattr $C$DW$833, DW_AT_data_member_location[DW_OP_plus_uconst 0x0]
    7681                      .dwattr $C$DW$833, DW_AT_accessibility(DW_ACCESS_public)
    7682              $C$DW$834       .dwtag  DW_TAG_member
    7683                      .dwattr $C$DW$834, DW_AT_type(*$C$DW$T$167)
    7684                      .dwattr $C$DW$834, DW_AT_name("bit")
    7685                      .dwattr $C$DW$834, DW_AT_TI_symbol_name("_bit")
    7686                      .dwattr $C$DW$834, DW_AT_data_member_location[DW_OP_plus_uconst 0x0]
    7687                      .dwattr $C$DW$834, DW_AT_accessibility(DW_ACCESS_public)
    7688                      .dwendtag $C$DW$T$168
    7689              
    7690              
    7691              $C$DW$T$169     .dwtag  DW_TAG_structure_type
    7692                      .dwattr $C$DW$T$169, DW_AT_name("SYSPLLMULT_BITS")
    7693                      .dwattr $C$DW$T$169, DW_AT_byte_size(0x02)
    7694              $C$DW$835       .dwtag  DW_TAG_member
    7695                      .dwattr $C$DW$835, DW_AT_type(*$C$DW$T$19)
    7696                      .dwattr $C$DW$835, DW_AT_name("IMULT")
    7697                      .dwattr $C$DW$835, DW_AT_TI_symbol_name("_IMULT")
    7698                      .dwattr $C$DW$835, DW_AT_bit_offset(0x09), DW_AT_bit_size(0x07)
    7699                      .dwattr $C$DW$835, DW_AT_data_member_location[DW_OP_plus_uconst 0x0]
    7700                      .dwattr $C$DW$835, DW_AT_accessibility(DW_ACCESS_public)
    7701              $C$DW$836       .dwtag  DW_TAG_member
    7702                      .dwattr $C$DW$836, DW_AT_type(*$C$DW$T$19)
    7703                      .dwattr $C$DW$836, DW_AT_name("rsvd1")
    7704                      .dwattr $C$DW$836, DW_AT_TI_symbol_name("_rsvd1")
    7705                      .dwattr $C$DW$836, DW_AT_bit_offset(0x08), DW_AT_bit_size(0x01)
    7706                      .dwattr $C$DW$836, DW_AT_data_member_location[DW_OP_plus_uconst 0x0]
    7707                      .dwattr $C$DW$836, DW_AT_accessibility(DW_ACCESS_public)
    7708              $C$DW$837       .dwtag  DW_TAG_member
    7709                      .dwattr $C$DW$837, DW_AT_type(*$C$DW$T$19)
    7710                      .dwattr $C$DW$837, DW_AT_name("FMULT")
    7711                      .dwattr $C$DW$837, DW_AT_TI_symbol_name("_FMULT")
    7712                      .dwattr $C$DW$837, DW_AT_bit_offset(0x06), DW_AT_bit_size(0x02)
    7713                      .dwattr $C$DW$837, DW_AT_data_member_location[DW_OP_plus_uconst 0x0]
    7714                      .dwattr $C$DW$837, DW_AT_accessibility(DW_ACCESS_public)
    7715              $C$DW$838       .dwtag  DW_TAG_member
    7716                      .dwattr $C$DW$838, DW_AT_type(*$C$DW$T$19)
    7717                      .dwattr $C$DW$838, DW_AT_name("rsvd2")
    7718                      .dwattr $C$DW$838, DW_AT_TI_symbol_name("_rsvd2")
    7719                      .dwattr $C$DW$838, DW_AT_bit_offset(0x00), DW_AT_bit_size(0x06)
    7720                      .dwattr $C$DW$838, DW_AT_data_member_location[DW_OP_plus_uconst 0x0]
    7721                      .dwattr $C$DW$838, DW_AT_accessibility(DW_ACCESS_public)
    7722              $C$DW$839       .dwtag  DW_TAG_member
    7723                      .dwattr $C$DW$839, DW_AT_type(*$C$DW$T$19)
    7724                      .dwattr $C$DW$839, DW_AT_name("rsvd3")
    7725                      .dwattr $C$DW$839, DW_AT_TI_symbol_name("_rsvd3")
    7726                      .dwattr $C$DW$839, DW_AT_bit_offset(0x00), DW_AT_bit_size(0x10)
    7727                      .dwattr $C$DW$839, DW_AT_data_member_location[DW_OP_plus_uconst 0x1]
    7728                      .dwattr $C$DW$839, DW_AT_accessibility(DW_ACCESS_public)
TMS320C2000 Assembler PC v6.4.2 Thu Dec 14 15:26:44 2017

Tools Copyright (c) 1996-2015 Texas Instruments Incorporated
F2837xS_SysCtrl.asm                                                  PAGE  145

    7729                      .dwendtag $C$DW$T$169
    7730              
    7731              
    7732              $C$DW$T$170     .dwtag  DW_TAG_union_type
    7733                      .dwattr $C$DW$T$170, DW_AT_name("SYSPLLMULT_REG")
    7734                      .dwattr $C$DW$T$170, DW_AT_byte_size(0x02)
    7735              $C$DW$840       .dwtag  DW_TAG_member
    7736                      .dwattr $C$DW$840, DW_AT_type(*$C$DW$T$27)
    7737                      .dwattr $C$DW$840, DW_AT_name("all")
    7738                      .dwattr $C$DW$840, DW_AT_TI_symbol_name("_all")
    7739                      .dwattr $C$DW$840, DW_AT_data_member_location[DW_OP_plus_uconst 0x0]
    7740                      .dwattr $C$DW$840, DW_AT_accessibility(DW_ACCESS_public)
    7741              $C$DW$841       .dwtag  DW_TAG_member
    7742                      .dwattr $C$DW$841, DW_AT_type(*$C$DW$T$169)
    7743                      .dwattr $C$DW$841, DW_AT_name("bit")
    7744                      .dwattr $C$DW$841, DW_AT_TI_symbol_name("_bit")
    7745                      .dwattr $C$DW$841, DW_AT_data_member_location[DW_OP_plus_uconst 0x0]
    7746                      .dwattr $C$DW$841, DW_AT_accessibility(DW_ACCESS_public)
    7747                      .dwendtag $C$DW$T$170
    7748              
    7749              
    7750              $C$DW$T$171     .dwtag  DW_TAG_structure_type
    7751                      .dwattr $C$DW$T$171, DW_AT_name("SYSPLLSTS_BITS")
    7752                      .dwattr $C$DW$T$171, DW_AT_byte_size(0x02)
    7753              $C$DW$842       .dwtag  DW_TAG_member
    7754                      .dwattr $C$DW$842, DW_AT_type(*$C$DW$T$19)
    7755                      .dwattr $C$DW$842, DW_AT_name("LOCKS")
    7756                      .dwattr $C$DW$842, DW_AT_TI_symbol_name("_LOCKS")
    7757                      .dwattr $C$DW$842, DW_AT_bit_offset(0x0f), DW_AT_bit_size(0x01)
    7758                      .dwattr $C$DW$842, DW_AT_data_member_location[DW_OP_plus_uconst 0x0]
    7759                      .dwattr $C$DW$842, DW_AT_accessibility(DW_ACCESS_public)
    7760              $C$DW$843       .dwtag  DW_TAG_member
    7761                      .dwattr $C$DW$843, DW_AT_type(*$C$DW$T$19)
    7762                      .dwattr $C$DW$843, DW_AT_name("SLIPS")
    7763                      .dwattr $C$DW$843, DW_AT_TI_symbol_name("_SLIPS")
    7764                      .dwattr $C$DW$843, DW_AT_bit_offset(0x0e), DW_AT_bit_size(0x01)
    7765                      .dwattr $C$DW$843, DW_AT_data_member_location[DW_OP_plus_uconst 0x0]
    7766                      .dwattr $C$DW$843, DW_AT_accessibility(DW_ACCESS_public)
    7767              $C$DW$844       .dwtag  DW_TAG_member
    7768                      .dwattr $C$DW$844, DW_AT_type(*$C$DW$T$19)
    7769                      .dwattr $C$DW$844, DW_AT_name("rsvd1")
    7770                      .dwattr $C$DW$844, DW_AT_TI_symbol_name("_rsvd1")
    7771                      .dwattr $C$DW$844, DW_AT_bit_offset(0x00), DW_AT_bit_size(0x0e)
    7772                      .dwattr $C$DW$844, DW_AT_data_member_location[DW_OP_plus_uconst 0x0]
    7773                      .dwattr $C$DW$844, DW_AT_accessibility(DW_ACCESS_public)
    7774              $C$DW$845       .dwtag  DW_TAG_member
    7775                      .dwattr $C$DW$845, DW_AT_type(*$C$DW$T$19)
    7776                      .dwattr $C$DW$845, DW_AT_name("rsvd2")
    7777                      .dwattr $C$DW$845, DW_AT_TI_symbol_name("_rsvd2")
    7778                      .dwattr $C$DW$845, DW_AT_bit_offset(0x00), DW_AT_bit_size(0x10)
    7779                      .dwattr $C$DW$845, DW_AT_data_member_location[DW_OP_plus_uconst 0x1]
    7780                      .dwattr $C$DW$845, DW_AT_accessibility(DW_ACCESS_public)
    7781                      .dwendtag $C$DW$T$171
    7782              
    7783              
TMS320C2000 Assembler PC v6.4.2 Thu Dec 14 15:26:44 2017

Tools Copyright (c) 1996-2015 Texas Instruments Incorporated
F2837xS_SysCtrl.asm                                                  PAGE  146

    7784              $C$DW$T$172     .dwtag  DW_TAG_union_type
    7785                      .dwattr $C$DW$T$172, DW_AT_name("SYSPLLSTS_REG")
    7786                      .dwattr $C$DW$T$172, DW_AT_byte_size(0x02)
    7787              $C$DW$846       .dwtag  DW_TAG_member
    7788                      .dwattr $C$DW$846, DW_AT_type(*$C$DW$T$27)
    7789                      .dwattr $C$DW$846, DW_AT_name("all")
    7790                      .dwattr $C$DW$846, DW_AT_TI_symbol_name("_all")
    7791                      .dwattr $C$DW$846, DW_AT_data_member_location[DW_OP_plus_uconst 0x0]
    7792                      .dwattr $C$DW$846, DW_AT_accessibility(DW_ACCESS_public)
    7793              $C$DW$847       .dwtag  DW_TAG_member
    7794                      .dwattr $C$DW$847, DW_AT_type(*$C$DW$T$171)
    7795                      .dwattr $C$DW$847, DW_AT_name("bit")
    7796                      .dwattr $C$DW$847, DW_AT_TI_symbol_name("_bit")
    7797                      .dwattr $C$DW$847, DW_AT_data_member_location[DW_OP_plus_uconst 0x0]
    7798                      .dwattr $C$DW$847, DW_AT_accessibility(DW_ACCESS_public)
    7799                      .dwendtag $C$DW$T$172
    7800              
    7801              
    7802              $C$DW$T$173     .dwtag  DW_TAG_structure_type
    7803                      .dwattr $C$DW$T$173, DW_AT_name("TMR2CLKCTL_BITS")
    7804                      .dwattr $C$DW$T$173, DW_AT_byte_size(0x02)
    7805              $C$DW$848       .dwtag  DW_TAG_member
    7806                      .dwattr $C$DW$848, DW_AT_type(*$C$DW$T$19)
    7807                      .dwattr $C$DW$848, DW_AT_name("TMR2CLKSRCSEL")
    7808                      .dwattr $C$DW$848, DW_AT_TI_symbol_name("_TMR2CLKSRCSEL")
    7809                      .dwattr $C$DW$848, DW_AT_bit_offset(0x0d), DW_AT_bit_size(0x03)
    7810                      .dwattr $C$DW$848, DW_AT_data_member_location[DW_OP_plus_uconst 0x0]
    7811                      .dwattr $C$DW$848, DW_AT_accessibility(DW_ACCESS_public)
    7812              $C$DW$849       .dwtag  DW_TAG_member
    7813                      .dwattr $C$DW$849, DW_AT_type(*$C$DW$T$19)
    7814                      .dwattr $C$DW$849, DW_AT_name("TMR2CLKPRESCALE")
    7815                      .dwattr $C$DW$849, DW_AT_TI_symbol_name("_TMR2CLKPRESCALE")
    7816                      .dwattr $C$DW$849, DW_AT_bit_offset(0x0a), DW_AT_bit_size(0x03)
    7817                      .dwattr $C$DW$849, DW_AT_data_member_location[DW_OP_plus_uconst 0x0]
    7818                      .dwattr $C$DW$849, DW_AT_accessibility(DW_ACCESS_public)
    7819              $C$DW$850       .dwtag  DW_TAG_member
    7820                      .dwattr $C$DW$850, DW_AT_type(*$C$DW$T$19)
    7821                      .dwattr $C$DW$850, DW_AT_name("rsvd1")
    7822                      .dwattr $C$DW$850, DW_AT_TI_symbol_name("_rsvd1")
    7823                      .dwattr $C$DW$850, DW_AT_bit_offset(0x00), DW_AT_bit_size(0x0a)
    7824                      .dwattr $C$DW$850, DW_AT_data_member_location[DW_OP_plus_uconst 0x0]
    7825                      .dwattr $C$DW$850, DW_AT_accessibility(DW_ACCESS_public)
    7826              $C$DW$851       .dwtag  DW_TAG_member
    7827                      .dwattr $C$DW$851, DW_AT_type(*$C$DW$T$19)
    7828                      .dwattr $C$DW$851, DW_AT_name("rsvd2")
    7829                      .dwattr $C$DW$851, DW_AT_TI_symbol_name("_rsvd2")
    7830                      .dwattr $C$DW$851, DW_AT_bit_offset(0x00), DW_AT_bit_size(0x10)
    7831                      .dwattr $C$DW$851, DW_AT_data_member_location[DW_OP_plus_uconst 0x1]
    7832                      .dwattr $C$DW$851, DW_AT_accessibility(DW_ACCESS_public)
    7833                      .dwendtag $C$DW$T$173
    7834              
    7835              
    7836              $C$DW$T$174     .dwtag  DW_TAG_union_type
    7837                      .dwattr $C$DW$T$174, DW_AT_name("TMR2CLKCTL_REG")
    7838                      .dwattr $C$DW$T$174, DW_AT_byte_size(0x02)
TMS320C2000 Assembler PC v6.4.2 Thu Dec 14 15:26:44 2017

Tools Copyright (c) 1996-2015 Texas Instruments Incorporated
F2837xS_SysCtrl.asm                                                  PAGE  147

    7839              $C$DW$852       .dwtag  DW_TAG_member
    7840                      .dwattr $C$DW$852, DW_AT_type(*$C$DW$T$27)
    7841                      .dwattr $C$DW$852, DW_AT_name("all")
    7842                      .dwattr $C$DW$852, DW_AT_TI_symbol_name("_all")
    7843                      .dwattr $C$DW$852, DW_AT_data_member_location[DW_OP_plus_uconst 0x0]
    7844                      .dwattr $C$DW$852, DW_AT_accessibility(DW_ACCESS_public)
    7845              $C$DW$853       .dwtag  DW_TAG_member
    7846                      .dwattr $C$DW$853, DW_AT_type(*$C$DW$T$173)
    7847                      .dwattr $C$DW$853, DW_AT_name("bit")
    7848                      .dwattr $C$DW$853, DW_AT_TI_symbol_name("_bit")
    7849                      .dwattr $C$DW$853, DW_AT_data_member_location[DW_OP_plus_uconst 0x0]
    7850                      .dwattr $C$DW$853, DW_AT_accessibility(DW_ACCESS_public)
    7851                      .dwendtag $C$DW$T$174
    7852              
    7853              
    7854              $C$DW$T$175     .dwtag  DW_TAG_structure_type
    7855                      .dwattr $C$DW$T$175, DW_AT_name("TSNSCTL_BITS")
    7856                      .dwattr $C$DW$T$175, DW_AT_byte_size(0x01)
    7857              $C$DW$854       .dwtag  DW_TAG_member
    7858                      .dwattr $C$DW$854, DW_AT_type(*$C$DW$T$19)
    7859                      .dwattr $C$DW$854, DW_AT_name("ENABLE")
    7860                      .dwattr $C$DW$854, DW_AT_TI_symbol_name("_ENABLE")
    7861                      .dwattr $C$DW$854, DW_AT_bit_offset(0x0f), DW_AT_bit_size(0x01)
    7862                      .dwattr $C$DW$854, DW_AT_data_member_location[DW_OP_plus_uconst 0x0]
    7863                      .dwattr $C$DW$854, DW_AT_accessibility(DW_ACCESS_public)
    7864              $C$DW$855       .dwtag  DW_TAG_member
    7865                      .dwattr $C$DW$855, DW_AT_type(*$C$DW$T$19)
    7866                      .dwattr $C$DW$855, DW_AT_name("rsvd1")
    7867                      .dwattr $C$DW$855, DW_AT_TI_symbol_name("_rsvd1")
    7868                      .dwattr $C$DW$855, DW_AT_bit_offset(0x00), DW_AT_bit_size(0x0f)
    7869                      .dwattr $C$DW$855, DW_AT_data_member_location[DW_OP_plus_uconst 0x0]
    7870                      .dwattr $C$DW$855, DW_AT_accessibility(DW_ACCESS_public)
    7871                      .dwendtag $C$DW$T$175
    7872              
    7873              
    7874              $C$DW$T$176     .dwtag  DW_TAG_union_type
    7875                      .dwattr $C$DW$T$176, DW_AT_name("TSNSCTL_REG")
    7876                      .dwattr $C$DW$T$176, DW_AT_byte_size(0x01)
    7877              $C$DW$856       .dwtag  DW_TAG_member
    7878                      .dwattr $C$DW$856, DW_AT_type(*$C$DW$T$19)
    7879                      .dwattr $C$DW$856, DW_AT_name("all")
    7880                      .dwattr $C$DW$856, DW_AT_TI_symbol_name("_all")
    7881                      .dwattr $C$DW$856, DW_AT_data_member_location[DW_OP_plus_uconst 0x0]
    7882                      .dwattr $C$DW$856, DW_AT_accessibility(DW_ACCESS_public)
    7883              $C$DW$857       .dwtag  DW_TAG_member
    7884                      .dwattr $C$DW$857, DW_AT_type(*$C$DW$T$175)
    7885                      .dwattr $C$DW$857, DW_AT_name("bit")
    7886                      .dwattr $C$DW$857, DW_AT_TI_symbol_name("_bit")
    7887                      .dwattr $C$DW$857, DW_AT_data_member_location[DW_OP_plus_uconst 0x0]
    7888                      .dwattr $C$DW$857, DW_AT_accessibility(DW_ACCESS_public)
    7889                      .dwendtag $C$DW$T$176
    7890              
    7891              
    7892              $C$DW$T$177     .dwtag  DW_TAG_structure_type
    7893                      .dwattr $C$DW$T$177, DW_AT_name("WDCNTR_BITS")
TMS320C2000 Assembler PC v6.4.2 Thu Dec 14 15:26:44 2017

Tools Copyright (c) 1996-2015 Texas Instruments Incorporated
F2837xS_SysCtrl.asm                                                  PAGE  148

    7894                      .dwattr $C$DW$T$177, DW_AT_byte_size(0x01)
    7895              $C$DW$858       .dwtag  DW_TAG_member
    7896                      .dwattr $C$DW$858, DW_AT_type(*$C$DW$T$19)
    7897                      .dwattr $C$DW$858, DW_AT_name("WDCNTR")
    7898                      .dwattr $C$DW$858, DW_AT_TI_symbol_name("_WDCNTR")
    7899                      .dwattr $C$DW$858, DW_AT_bit_offset(0x08), DW_AT_bit_size(0x08)
    7900                      .dwattr $C$DW$858, DW_AT_data_member_location[DW_OP_plus_uconst 0x0]
    7901                      .dwattr $C$DW$858, DW_AT_accessibility(DW_ACCESS_public)
    7902              $C$DW$859       .dwtag  DW_TAG_member
    7903                      .dwattr $C$DW$859, DW_AT_type(*$C$DW$T$19)
    7904                      .dwattr $C$DW$859, DW_AT_name("rsvd1")
    7905                      .dwattr $C$DW$859, DW_AT_TI_symbol_name("_rsvd1")
    7906                      .dwattr $C$DW$859, DW_AT_bit_offset(0x00), DW_AT_bit_size(0x08)
    7907                      .dwattr $C$DW$859, DW_AT_data_member_location[DW_OP_plus_uconst 0x0]
    7908                      .dwattr $C$DW$859, DW_AT_accessibility(DW_ACCESS_public)
    7909                      .dwendtag $C$DW$T$177
    7910              
    7911              
    7912              $C$DW$T$178     .dwtag  DW_TAG_union_type
    7913                      .dwattr $C$DW$T$178, DW_AT_name("WDCNTR_REG")
    7914                      .dwattr $C$DW$T$178, DW_AT_byte_size(0x01)
    7915              $C$DW$860       .dwtag  DW_TAG_member
    7916                      .dwattr $C$DW$860, DW_AT_type(*$C$DW$T$19)
    7917                      .dwattr $C$DW$860, DW_AT_name("all")
    7918                      .dwattr $C$DW$860, DW_AT_TI_symbol_name("_all")
    7919                      .dwattr $C$DW$860, DW_AT_data_member_location[DW_OP_plus_uconst 0x0]
    7920                      .dwattr $C$DW$860, DW_AT_accessibility(DW_ACCESS_public)
    7921              $C$DW$861       .dwtag  DW_TAG_member
    7922                      .dwattr $C$DW$861, DW_AT_type(*$C$DW$T$177)
    7923                      .dwattr $C$DW$861, DW_AT_name("bit")
    7924                      .dwattr $C$DW$861, DW_AT_TI_symbol_name("_bit")
    7925                      .dwattr $C$DW$861, DW_AT_data_member_location[DW_OP_plus_uconst 0x0]
    7926                      .dwattr $C$DW$861, DW_AT_accessibility(DW_ACCESS_public)
    7927                      .dwendtag $C$DW$T$178
    7928              
    7929              
    7930              $C$DW$T$179     .dwtag  DW_TAG_structure_type
    7931                      .dwattr $C$DW$T$179, DW_AT_name("WDCR_BITS")
    7932                      .dwattr $C$DW$T$179, DW_AT_byte_size(0x01)
    7933              $C$DW$862       .dwtag  DW_TAG_member
    7934                      .dwattr $C$DW$862, DW_AT_type(*$C$DW$T$19)
    7935                      .dwattr $C$DW$862, DW_AT_name("WDPS")
    7936                      .dwattr $C$DW$862, DW_AT_TI_symbol_name("_WDPS")
    7937                      .dwattr $C$DW$862, DW_AT_bit_offset(0x0d), DW_AT_bit_size(0x03)
    7938                      .dwattr $C$DW$862, DW_AT_data_member_location[DW_OP_plus_uconst 0x0]
    7939                      .dwattr $C$DW$862, DW_AT_accessibility(DW_ACCESS_public)
    7940              $C$DW$863       .dwtag  DW_TAG_member
    7941                      .dwattr $C$DW$863, DW_AT_type(*$C$DW$T$19)
    7942                      .dwattr $C$DW$863, DW_AT_name("WDCHK")
    7943                      .dwattr $C$DW$863, DW_AT_TI_symbol_name("_WDCHK")
    7944                      .dwattr $C$DW$863, DW_AT_bit_offset(0x0a), DW_AT_bit_size(0x03)
    7945                      .dwattr $C$DW$863, DW_AT_data_member_location[DW_OP_plus_uconst 0x0]
    7946                      .dwattr $C$DW$863, DW_AT_accessibility(DW_ACCESS_public)
    7947              $C$DW$864       .dwtag  DW_TAG_member
    7948                      .dwattr $C$DW$864, DW_AT_type(*$C$DW$T$19)
TMS320C2000 Assembler PC v6.4.2 Thu Dec 14 15:26:44 2017

Tools Copyright (c) 1996-2015 Texas Instruments Incorporated
F2837xS_SysCtrl.asm                                                  PAGE  149

    7949                      .dwattr $C$DW$864, DW_AT_name("WDDIS")
    7950                      .dwattr $C$DW$864, DW_AT_TI_symbol_name("_WDDIS")
    7951                      .dwattr $C$DW$864, DW_AT_bit_offset(0x09), DW_AT_bit_size(0x01)
    7952                      .dwattr $C$DW$864, DW_AT_data_member_location[DW_OP_plus_uconst 0x0]
    7953                      .dwattr $C$DW$864, DW_AT_accessibility(DW_ACCESS_public)
    7954              $C$DW$865       .dwtag  DW_TAG_member
    7955                      .dwattr $C$DW$865, DW_AT_type(*$C$DW$T$19)
    7956                      .dwattr $C$DW$865, DW_AT_name("rsvd1")
    7957                      .dwattr $C$DW$865, DW_AT_TI_symbol_name("_rsvd1")
    7958                      .dwattr $C$DW$865, DW_AT_bit_offset(0x08), DW_AT_bit_size(0x01)
    7959                      .dwattr $C$DW$865, DW_AT_data_member_location[DW_OP_plus_uconst 0x0]
    7960                      .dwattr $C$DW$865, DW_AT_accessibility(DW_ACCESS_public)
    7961              $C$DW$866       .dwtag  DW_TAG_member
    7962                      .dwattr $C$DW$866, DW_AT_type(*$C$DW$T$19)
    7963                      .dwattr $C$DW$866, DW_AT_name("rsvd2")
    7964                      .dwattr $C$DW$866, DW_AT_TI_symbol_name("_rsvd2")
    7965                      .dwattr $C$DW$866, DW_AT_bit_offset(0x00), DW_AT_bit_size(0x08)
    7966                      .dwattr $C$DW$866, DW_AT_data_member_location[DW_OP_plus_uconst 0x0]
    7967                      .dwattr $C$DW$866, DW_AT_accessibility(DW_ACCESS_public)
    7968                      .dwendtag $C$DW$T$179
    7969              
    7970              
    7971              $C$DW$T$180     .dwtag  DW_TAG_union_type
    7972                      .dwattr $C$DW$T$180, DW_AT_name("WDCR_REG")
    7973                      .dwattr $C$DW$T$180, DW_AT_byte_size(0x01)
    7974              $C$DW$867       .dwtag  DW_TAG_member
    7975                      .dwattr $C$DW$867, DW_AT_type(*$C$DW$T$19)
    7976                      .dwattr $C$DW$867, DW_AT_name("all")
    7977                      .dwattr $C$DW$867, DW_AT_TI_symbol_name("_all")
    7978                      .dwattr $C$DW$867, DW_AT_data_member_location[DW_OP_plus_uconst 0x0]
    7979                      .dwattr $C$DW$867, DW_AT_accessibility(DW_ACCESS_public)
    7980              $C$DW$868       .dwtag  DW_TAG_member
    7981                      .dwattr $C$DW$868, DW_AT_type(*$C$DW$T$179)
    7982                      .dwattr $C$DW$868, DW_AT_name("bit")
    7983                      .dwattr $C$DW$868, DW_AT_TI_symbol_name("_bit")
    7984                      .dwattr $C$DW$868, DW_AT_data_member_location[DW_OP_plus_uconst 0x0]
    7985                      .dwattr $C$DW$868, DW_AT_accessibility(DW_ACCESS_public)
    7986                      .dwendtag $C$DW$T$180
    7987              
    7988              
    7989              $C$DW$T$181     .dwtag  DW_TAG_structure_type
    7990                      .dwattr $C$DW$T$181, DW_AT_name("WDKEY_BITS")
    7991                      .dwattr $C$DW$T$181, DW_AT_byte_size(0x01)
    7992              $C$DW$869       .dwtag  DW_TAG_member
    7993                      .dwattr $C$DW$869, DW_AT_type(*$C$DW$T$19)
    7994                      .dwattr $C$DW$869, DW_AT_name("WDKEY")
    7995                      .dwattr $C$DW$869, DW_AT_TI_symbol_name("_WDKEY")
    7996                      .dwattr $C$DW$869, DW_AT_bit_offset(0x08), DW_AT_bit_size(0x08)
    7997                      .dwattr $C$DW$869, DW_AT_data_member_location[DW_OP_plus_uconst 0x0]
    7998                      .dwattr $C$DW$869, DW_AT_accessibility(DW_ACCESS_public)
    7999              $C$DW$870       .dwtag  DW_TAG_member
    8000                      .dwattr $C$DW$870, DW_AT_type(*$C$DW$T$19)
    8001                      .dwattr $C$DW$870, DW_AT_name("rsvd1")
    8002                      .dwattr $C$DW$870, DW_AT_TI_symbol_name("_rsvd1")
    8003                      .dwattr $C$DW$870, DW_AT_bit_offset(0x00), DW_AT_bit_size(0x08)
TMS320C2000 Assembler PC v6.4.2 Thu Dec 14 15:26:44 2017

Tools Copyright (c) 1996-2015 Texas Instruments Incorporated
F2837xS_SysCtrl.asm                                                  PAGE  150

    8004                      .dwattr $C$DW$870, DW_AT_data_member_location[DW_OP_plus_uconst 0x0]
    8005                      .dwattr $C$DW$870, DW_AT_accessibility(DW_ACCESS_public)
    8006                      .dwendtag $C$DW$T$181
    8007              
    8008              
    8009              $C$DW$T$182     .dwtag  DW_TAG_union_type
    8010                      .dwattr $C$DW$T$182, DW_AT_name("WDKEY_REG")
    8011                      .dwattr $C$DW$T$182, DW_AT_byte_size(0x01)
    8012              $C$DW$871       .dwtag  DW_TAG_member
    8013                      .dwattr $C$DW$871, DW_AT_type(*$C$DW$T$19)
    8014                      .dwattr $C$DW$871, DW_AT_name("all")
    8015                      .dwattr $C$DW$871, DW_AT_TI_symbol_name("_all")
    8016                      .dwattr $C$DW$871, DW_AT_data_member_location[DW_OP_plus_uconst 0x0]
    8017                      .dwattr $C$DW$871, DW_AT_accessibility(DW_ACCESS_public)
    8018              $C$DW$872       .dwtag  DW_TAG_member
    8019                      .dwattr $C$DW$872, DW_AT_type(*$C$DW$T$181)
    8020                      .dwattr $C$DW$872, DW_AT_name("bit")
    8021                      .dwattr $C$DW$872, DW_AT_TI_symbol_name("_bit")
    8022                      .dwattr $C$DW$872, DW_AT_data_member_location[DW_OP_plus_uconst 0x0]
    8023                      .dwattr $C$DW$872, DW_AT_accessibility(DW_ACCESS_public)
    8024                      .dwendtag $C$DW$T$182
    8025              
    8026              
    8027              $C$DW$T$183     .dwtag  DW_TAG_structure_type
    8028                      .dwattr $C$DW$T$183, DW_AT_name("WDWCR_BITS")
    8029                      .dwattr $C$DW$T$183, DW_AT_byte_size(0x01)
    8030              $C$DW$873       .dwtag  DW_TAG_member
    8031                      .dwattr $C$DW$873, DW_AT_type(*$C$DW$T$19)
    8032                      .dwattr $C$DW$873, DW_AT_name("MIN")
    8033                      .dwattr $C$DW$873, DW_AT_TI_symbol_name("_MIN")
    8034                      .dwattr $C$DW$873, DW_AT_bit_offset(0x08), DW_AT_bit_size(0x08)
    8035                      .dwattr $C$DW$873, DW_AT_data_member_location[DW_OP_plus_uconst 0x0]
    8036                      .dwattr $C$DW$873, DW_AT_accessibility(DW_ACCESS_public)
    8037              $C$DW$874       .dwtag  DW_TAG_member
    8038                      .dwattr $C$DW$874, DW_AT_type(*$C$DW$T$19)
    8039                      .dwattr $C$DW$874, DW_AT_name("FIRSTKEY")
    8040                      .dwattr $C$DW$874, DW_AT_TI_symbol_name("_FIRSTKEY")
    8041                      .dwattr $C$DW$874, DW_AT_bit_offset(0x07), DW_AT_bit_size(0x01)
    8042                      .dwattr $C$DW$874, DW_AT_data_member_location[DW_OP_plus_uconst 0x0]
    8043                      .dwattr $C$DW$874, DW_AT_accessibility(DW_ACCESS_public)
    8044              $C$DW$875       .dwtag  DW_TAG_member
    8045                      .dwattr $C$DW$875, DW_AT_type(*$C$DW$T$19)
    8046                      .dwattr $C$DW$875, DW_AT_name("rsvd1")
    8047                      .dwattr $C$DW$875, DW_AT_TI_symbol_name("_rsvd1")
    8048                      .dwattr $C$DW$875, DW_AT_bit_offset(0x00), DW_AT_bit_size(0x07)
    8049                      .dwattr $C$DW$875, DW_AT_data_member_location[DW_OP_plus_uconst 0x0]
    8050                      .dwattr $C$DW$875, DW_AT_accessibility(DW_ACCESS_public)
    8051                      .dwendtag $C$DW$T$183
    8052              
    8053              
    8054              $C$DW$T$184     .dwtag  DW_TAG_union_type
    8055                      .dwattr $C$DW$T$184, DW_AT_name("WDWCR_REG")
    8056                      .dwattr $C$DW$T$184, DW_AT_byte_size(0x01)
    8057              $C$DW$876       .dwtag  DW_TAG_member
    8058                      .dwattr $C$DW$876, DW_AT_type(*$C$DW$T$19)
TMS320C2000 Assembler PC v6.4.2 Thu Dec 14 15:26:44 2017

Tools Copyright (c) 1996-2015 Texas Instruments Incorporated
F2837xS_SysCtrl.asm                                                  PAGE  151

    8059                      .dwattr $C$DW$876, DW_AT_name("all")
    8060                      .dwattr $C$DW$876, DW_AT_TI_symbol_name("_all")
    8061                      .dwattr $C$DW$876, DW_AT_data_member_location[DW_OP_plus_uconst 0x0]
    8062                      .dwattr $C$DW$876, DW_AT_accessibility(DW_ACCESS_public)
    8063              $C$DW$877       .dwtag  DW_TAG_member
    8064                      .dwattr $C$DW$877, DW_AT_type(*$C$DW$T$183)
    8065                      .dwattr $C$DW$877, DW_AT_name("bit")
    8066                      .dwattr $C$DW$877, DW_AT_TI_symbol_name("_bit")
    8067                      .dwattr $C$DW$877, DW_AT_data_member_location[DW_OP_plus_uconst 0x0]
    8068                      .dwattr $C$DW$877, DW_AT_accessibility(DW_ACCESS_public)
    8069                      .dwendtag $C$DW$T$184
    8070              
    8071              
    8072              $C$DW$T$187     .dwtag  DW_TAG_structure_type
    8073                      .dwattr $C$DW$T$187, DW_AT_name("WD_REGS")
    8074                      .dwattr $C$DW$T$187, DW_AT_byte_size(0x2b)
    8075              $C$DW$878       .dwtag  DW_TAG_member
    8076                      .dwattr $C$DW$878, DW_AT_type(*$C$DW$T$185)
    8077                      .dwattr $C$DW$878, DW_AT_name("rsvd1")
    8078                      .dwattr $C$DW$878, DW_AT_TI_symbol_name("_rsvd1")
    8079                      .dwattr $C$DW$878, DW_AT_data_member_location[DW_OP_plus_uconst 0x0]
    8080                      .dwattr $C$DW$878, DW_AT_accessibility(DW_ACCESS_public)
    8081              $C$DW$879       .dwtag  DW_TAG_member
    8082                      .dwattr $C$DW$879, DW_AT_type(*$C$DW$T$162)
    8083                      .dwattr $C$DW$879, DW_AT_name("SCSR")
    8084                      .dwattr $C$DW$879, DW_AT_TI_symbol_name("_SCSR")
    8085                      .dwattr $C$DW$879, DW_AT_data_member_location[DW_OP_plus_uconst 0x22]
    8086                      .dwattr $C$DW$879, DW_AT_accessibility(DW_ACCESS_public)
    8087              $C$DW$880       .dwtag  DW_TAG_member
    8088                      .dwattr $C$DW$880, DW_AT_type(*$C$DW$T$178)
    8089                      .dwattr $C$DW$880, DW_AT_name("WDCNTR")
    8090                      .dwattr $C$DW$880, DW_AT_TI_symbol_name("_WDCNTR")
    8091                      .dwattr $C$DW$880, DW_AT_data_member_location[DW_OP_plus_uconst 0x23]
    8092                      .dwattr $C$DW$880, DW_AT_accessibility(DW_ACCESS_public)
    8093              $C$DW$881       .dwtag  DW_TAG_member
    8094                      .dwattr $C$DW$881, DW_AT_type(*$C$DW$T$19)
    8095                      .dwattr $C$DW$881, DW_AT_name("rsvd2")
    8096                      .dwattr $C$DW$881, DW_AT_TI_symbol_name("_rsvd2")
    8097                      .dwattr $C$DW$881, DW_AT_data_member_location[DW_OP_plus_uconst 0x24]
    8098                      .dwattr $C$DW$881, DW_AT_accessibility(DW_ACCESS_public)
    8099              $C$DW$882       .dwtag  DW_TAG_member
    8100                      .dwattr $C$DW$882, DW_AT_type(*$C$DW$T$182)
    8101                      .dwattr $C$DW$882, DW_AT_name("WDKEY")
    8102                      .dwattr $C$DW$882, DW_AT_TI_symbol_name("_WDKEY")
    8103                      .dwattr $C$DW$882, DW_AT_data_member_location[DW_OP_plus_uconst 0x25]
    8104                      .dwattr $C$DW$882, DW_AT_accessibility(DW_ACCESS_public)
    8105              $C$DW$883       .dwtag  DW_TAG_member
    8106                      .dwattr $C$DW$883, DW_AT_type(*$C$DW$T$186)
    8107                      .dwattr $C$DW$883, DW_AT_name("rsvd3")
    8108                      .dwattr $C$DW$883, DW_AT_TI_symbol_name("_rsvd3")
    8109                      .dwattr $C$DW$883, DW_AT_data_member_location[DW_OP_plus_uconst 0x26]
    8110                      .dwattr $C$DW$883, DW_AT_accessibility(DW_ACCESS_public)
    8111              $C$DW$884       .dwtag  DW_TAG_member
    8112                      .dwattr $C$DW$884, DW_AT_type(*$C$DW$T$180)
    8113                      .dwattr $C$DW$884, DW_AT_name("WDCR")
TMS320C2000 Assembler PC v6.4.2 Thu Dec 14 15:26:44 2017

Tools Copyright (c) 1996-2015 Texas Instruments Incorporated
F2837xS_SysCtrl.asm                                                  PAGE  152

    8114                      .dwattr $C$DW$884, DW_AT_TI_symbol_name("_WDCR")
    8115                      .dwattr $C$DW$884, DW_AT_data_member_location[DW_OP_plus_uconst 0x29]
    8116                      .dwattr $C$DW$884, DW_AT_accessibility(DW_ACCESS_public)
    8117              $C$DW$885       .dwtag  DW_TAG_member
    8118                      .dwattr $C$DW$885, DW_AT_type(*$C$DW$T$184)
    8119                      .dwattr $C$DW$885, DW_AT_name("WDWCR")
    8120                      .dwattr $C$DW$885, DW_AT_TI_symbol_name("_WDWCR")
    8121                      .dwattr $C$DW$885, DW_AT_data_member_location[DW_OP_plus_uconst 0x2a]
    8122                      .dwattr $C$DW$885, DW_AT_accessibility(DW_ACCESS_public)
    8123                      .dwendtag $C$DW$T$187
    8124              
    8125              $C$DW$886       .dwtag  DW_TAG_TI_far_type
    8126                      .dwattr $C$DW$886, DW_AT_type(*$C$DW$T$187)
    8127              $C$DW$T$300     .dwtag  DW_TAG_volatile_type
    8128                      .dwattr $C$DW$T$300, DW_AT_type(*$C$DW$886)
    8129              
    8130              $C$DW$T$188     .dwtag  DW_TAG_structure_type
    8131                      .dwattr $C$DW$T$188, DW_AT_name("X1CNT_BITS")
    8132                      .dwattr $C$DW$T$188, DW_AT_byte_size(0x02)
    8133              $C$DW$887       .dwtag  DW_TAG_member
    8134                      .dwattr $C$DW$887, DW_AT_type(*$C$DW$T$19)
    8135                      .dwattr $C$DW$887, DW_AT_name("X1CNT")
    8136                      .dwattr $C$DW$887, DW_AT_TI_symbol_name("_X1CNT")
    8137                      .dwattr $C$DW$887, DW_AT_bit_offset(0x06), DW_AT_bit_size(0x0a)
    8138                      .dwattr $C$DW$887, DW_AT_data_member_location[DW_OP_plus_uconst 0x0]
    8139                      .dwattr $C$DW$887, DW_AT_accessibility(DW_ACCESS_public)
    8140              $C$DW$888       .dwtag  DW_TAG_member
    8141                      .dwattr $C$DW$888, DW_AT_type(*$C$DW$T$19)
    8142                      .dwattr $C$DW$888, DW_AT_name("rsvd1")
    8143                      .dwattr $C$DW$888, DW_AT_TI_symbol_name("_rsvd1")
    8144                      .dwattr $C$DW$888, DW_AT_bit_offset(0x00), DW_AT_bit_size(0x06)
    8145                      .dwattr $C$DW$888, DW_AT_data_member_location[DW_OP_plus_uconst 0x0]
    8146                      .dwattr $C$DW$888, DW_AT_accessibility(DW_ACCESS_public)
    8147              $C$DW$889       .dwtag  DW_TAG_member
    8148                      .dwattr $C$DW$889, DW_AT_type(*$C$DW$T$19)
    8149                      .dwattr $C$DW$889, DW_AT_name("rsvd2")
    8150                      .dwattr $C$DW$889, DW_AT_TI_symbol_name("_rsvd2")
    8151                      .dwattr $C$DW$889, DW_AT_bit_offset(0x00), DW_AT_bit_size(0x10)
    8152                      .dwattr $C$DW$889, DW_AT_data_member_location[DW_OP_plus_uconst 0x1]
    8153                      .dwattr $C$DW$889, DW_AT_accessibility(DW_ACCESS_public)
    8154                      .dwendtag $C$DW$T$188
    8155              
    8156              
    8157              $C$DW$T$189     .dwtag  DW_TAG_union_type
    8158                      .dwattr $C$DW$T$189, DW_AT_name("X1CNT_REG")
    8159                      .dwattr $C$DW$T$189, DW_AT_byte_size(0x02)
    8160              $C$DW$890       .dwtag  DW_TAG_member
    8161                      .dwattr $C$DW$890, DW_AT_type(*$C$DW$T$27)
    8162                      .dwattr $C$DW$890, DW_AT_name("all")
    8163                      .dwattr $C$DW$890, DW_AT_TI_symbol_name("_all")
    8164                      .dwattr $C$DW$890, DW_AT_data_member_location[DW_OP_plus_uconst 0x0]
    8165                      .dwattr $C$DW$890, DW_AT_accessibility(DW_ACCESS_public)
    8166              $C$DW$891       .dwtag  DW_TAG_member
    8167                      .dwattr $C$DW$891, DW_AT_type(*$C$DW$T$188)
    8168                      .dwattr $C$DW$891, DW_AT_name("bit")
TMS320C2000 Assembler PC v6.4.2 Thu Dec 14 15:26:44 2017

Tools Copyright (c) 1996-2015 Texas Instruments Incorporated
F2837xS_SysCtrl.asm                                                  PAGE  153

    8169                      .dwattr $C$DW$891, DW_AT_TI_symbol_name("_bit")
    8170                      .dwattr $C$DW$891, DW_AT_data_member_location[DW_OP_plus_uconst 0x0]
    8171                      .dwattr $C$DW$891, DW_AT_accessibility(DW_ACCESS_public)
    8172                      .dwendtag $C$DW$T$189
    8173              
    8174              
    8175              $C$DW$T$190     .dwtag  DW_TAG_structure_type
    8176                      .dwattr $C$DW$T$190, DW_AT_name("XCLKOUTDIVSEL_BITS")
    8177                      .dwattr $C$DW$T$190, DW_AT_byte_size(0x02)
    8178              $C$DW$892       .dwtag  DW_TAG_member
    8179                      .dwattr $C$DW$892, DW_AT_type(*$C$DW$T$19)
    8180                      .dwattr $C$DW$892, DW_AT_name("XCLKOUTDIV")
    8181                      .dwattr $C$DW$892, DW_AT_TI_symbol_name("_XCLKOUTDIV")
    8182                      .dwattr $C$DW$892, DW_AT_bit_offset(0x0e), DW_AT_bit_size(0x02)
    8183                      .dwattr $C$DW$892, DW_AT_data_member_location[DW_OP_plus_uconst 0x0]
    8184                      .dwattr $C$DW$892, DW_AT_accessibility(DW_ACCESS_public)
    8185              $C$DW$893       .dwtag  DW_TAG_member
    8186                      .dwattr $C$DW$893, DW_AT_type(*$C$DW$T$19)
    8187                      .dwattr $C$DW$893, DW_AT_name("rsvd1")
    8188                      .dwattr $C$DW$893, DW_AT_TI_symbol_name("_rsvd1")
    8189                      .dwattr $C$DW$893, DW_AT_bit_offset(0x00), DW_AT_bit_size(0x0e)
    8190                      .dwattr $C$DW$893, DW_AT_data_member_location[DW_OP_plus_uconst 0x0]
    8191                      .dwattr $C$DW$893, DW_AT_accessibility(DW_ACCESS_public)
    8192              $C$DW$894       .dwtag  DW_TAG_member
    8193                      .dwattr $C$DW$894, DW_AT_type(*$C$DW$T$19)
    8194                      .dwattr $C$DW$894, DW_AT_name("rsvd2")
    8195                      .dwattr $C$DW$894, DW_AT_TI_symbol_name("_rsvd2")
    8196                      .dwattr $C$DW$894, DW_AT_bit_offset(0x00), DW_AT_bit_size(0x10)
    8197                      .dwattr $C$DW$894, DW_AT_data_member_location[DW_OP_plus_uconst 0x1]
    8198                      .dwattr $C$DW$894, DW_AT_accessibility(DW_ACCESS_public)
    8199                      .dwendtag $C$DW$T$190
    8200              
    8201              
    8202              $C$DW$T$191     .dwtag  DW_TAG_union_type
    8203                      .dwattr $C$DW$T$191, DW_AT_name("XCLKOUTDIVSEL_REG")
    8204                      .dwattr $C$DW$T$191, DW_AT_byte_size(0x02)
    8205              $C$DW$895       .dwtag  DW_TAG_member
    8206                      .dwattr $C$DW$895, DW_AT_type(*$C$DW$T$27)
    8207                      .dwattr $C$DW$895, DW_AT_name("all")
    8208                      .dwattr $C$DW$895, DW_AT_TI_symbol_name("_all")
    8209                      .dwattr $C$DW$895, DW_AT_data_member_location[DW_OP_plus_uconst 0x0]
    8210                      .dwattr $C$DW$895, DW_AT_accessibility(DW_ACCESS_public)
    8211              $C$DW$896       .dwtag  DW_TAG_member
    8212                      .dwattr $C$DW$896, DW_AT_type(*$C$DW$T$190)
    8213                      .dwattr $C$DW$896, DW_AT_name("bit")
    8214                      .dwattr $C$DW$896, DW_AT_TI_symbol_name("_bit")
    8215                      .dwattr $C$DW$896, DW_AT_data_member_location[DW_OP_plus_uconst 0x0]
    8216                      .dwattr $C$DW$896, DW_AT_accessibility(DW_ACCESS_public)
    8217                      .dwendtag $C$DW$T$191
    8218              
    8219              
    8220              $C$DW$T$192     .dwtag  DW_TAG_structure_type
    8221                      .dwattr $C$DW$T$192, DW_AT_name("Z1_BOOTCTRL_BITS")
    8222                      .dwattr $C$DW$T$192, DW_AT_byte_size(0x02)
    8223              $C$DW$897       .dwtag  DW_TAG_member
TMS320C2000 Assembler PC v6.4.2 Thu Dec 14 15:26:44 2017

Tools Copyright (c) 1996-2015 Texas Instruments Incorporated
F2837xS_SysCtrl.asm                                                  PAGE  154

    8224                      .dwattr $C$DW$897, DW_AT_type(*$C$DW$T$19)
    8225                      .dwattr $C$DW$897, DW_AT_name("KEY")
    8226                      .dwattr $C$DW$897, DW_AT_TI_symbol_name("_KEY")
    8227                      .dwattr $C$DW$897, DW_AT_bit_offset(0x08), DW_AT_bit_size(0x08)
    8228                      .dwattr $C$DW$897, DW_AT_data_member_location[DW_OP_plus_uconst 0x0]
    8229                      .dwattr $C$DW$897, DW_AT_accessibility(DW_ACCESS_public)
    8230              $C$DW$898       .dwtag  DW_TAG_member
    8231                      .dwattr $C$DW$898, DW_AT_type(*$C$DW$T$19)
    8232                      .dwattr $C$DW$898, DW_AT_name("BMODE")
    8233                      .dwattr $C$DW$898, DW_AT_TI_symbol_name("_BMODE")
    8234                      .dwattr $C$DW$898, DW_AT_bit_offset(0x00), DW_AT_bit_size(0x08)
    8235                      .dwattr $C$DW$898, DW_AT_data_member_location[DW_OP_plus_uconst 0x0]
    8236                      .dwattr $C$DW$898, DW_AT_accessibility(DW_ACCESS_public)
    8237              $C$DW$899       .dwtag  DW_TAG_member
    8238                      .dwattr $C$DW$899, DW_AT_type(*$C$DW$T$19)
    8239                      .dwattr $C$DW$899, DW_AT_name("BOOTPIN0")
    8240                      .dwattr $C$DW$899, DW_AT_TI_symbol_name("_BOOTPIN0")
    8241                      .dwattr $C$DW$899, DW_AT_bit_offset(0x08), DW_AT_bit_size(0x08)
    8242                      .dwattr $C$DW$899, DW_AT_data_member_location[DW_OP_plus_uconst 0x1]
    8243                      .dwattr $C$DW$899, DW_AT_accessibility(DW_ACCESS_public)
    8244              $C$DW$900       .dwtag  DW_TAG_member
    8245                      .dwattr $C$DW$900, DW_AT_type(*$C$DW$T$19)
    8246                      .dwattr $C$DW$900, DW_AT_name("BOOTPIN1")
    8247                      .dwattr $C$DW$900, DW_AT_TI_symbol_name("_BOOTPIN1")
    8248                      .dwattr $C$DW$900, DW_AT_bit_offset(0x00), DW_AT_bit_size(0x08)
    8249                      .dwattr $C$DW$900, DW_AT_data_member_location[DW_OP_plus_uconst 0x1]
    8250                      .dwattr $C$DW$900, DW_AT_accessibility(DW_ACCESS_public)
    8251                      .dwendtag $C$DW$T$192
    8252              
    8253              
    8254              $C$DW$T$193     .dwtag  DW_TAG_union_type
    8255                      .dwattr $C$DW$T$193, DW_AT_name("Z1_BOOTCTRL_REG")
    8256                      .dwattr $C$DW$T$193, DW_AT_byte_size(0x02)
    8257              $C$DW$901       .dwtag  DW_TAG_member
    8258                      .dwattr $C$DW$901, DW_AT_type(*$C$DW$T$27)
    8259                      .dwattr $C$DW$901, DW_AT_name("all")
    8260                      .dwattr $C$DW$901, DW_AT_TI_symbol_name("_all")
    8261                      .dwattr $C$DW$901, DW_AT_data_member_location[DW_OP_plus_uconst 0x0]
    8262                      .dwattr $C$DW$901, DW_AT_accessibility(DW_ACCESS_public)
    8263              $C$DW$902       .dwtag  DW_TAG_member
    8264                      .dwattr $C$DW$902, DW_AT_type(*$C$DW$T$192)
    8265                      .dwattr $C$DW$902, DW_AT_name("bit")
    8266                      .dwattr $C$DW$902, DW_AT_TI_symbol_name("_bit")
    8267                      .dwattr $C$DW$902, DW_AT_data_member_location[DW_OP_plus_uconst 0x0]
    8268                      .dwattr $C$DW$902, DW_AT_accessibility(DW_ACCESS_public)
    8269                      .dwendtag $C$DW$T$193
    8270              
    8271              
    8272              $C$DW$T$194     .dwtag  DW_TAG_structure_type
    8273                      .dwattr $C$DW$T$194, DW_AT_name("Z1_CR_BITS")
    8274                      .dwattr $C$DW$T$194, DW_AT_byte_size(0x01)
    8275              $C$DW$903       .dwtag  DW_TAG_member
    8276                      .dwattr $C$DW$903, DW_AT_type(*$C$DW$T$19)
    8277                      .dwattr $C$DW$903, DW_AT_name("rsvd1")
    8278                      .dwattr $C$DW$903, DW_AT_TI_symbol_name("_rsvd1")
TMS320C2000 Assembler PC v6.4.2 Thu Dec 14 15:26:44 2017

Tools Copyright (c) 1996-2015 Texas Instruments Incorporated
F2837xS_SysCtrl.asm                                                  PAGE  155

    8279                      .dwattr $C$DW$903, DW_AT_bit_offset(0x0d), DW_AT_bit_size(0x03)
    8280                      .dwattr $C$DW$903, DW_AT_data_member_location[DW_OP_plus_uconst 0x0]
    8281                      .dwattr $C$DW$903, DW_AT_accessibility(DW_ACCESS_public)
    8282              $C$DW$904       .dwtag  DW_TAG_member
    8283                      .dwattr $C$DW$904, DW_AT_type(*$C$DW$T$19)
    8284                      .dwattr $C$DW$904, DW_AT_name("ALLZERO")
    8285                      .dwattr $C$DW$904, DW_AT_TI_symbol_name("_ALLZERO")
    8286                      .dwattr $C$DW$904, DW_AT_bit_offset(0x0c), DW_AT_bit_size(0x01)
    8287                      .dwattr $C$DW$904, DW_AT_data_member_location[DW_OP_plus_uconst 0x0]
    8288                      .dwattr $C$DW$904, DW_AT_accessibility(DW_ACCESS_public)
    8289              $C$DW$905       .dwtag  DW_TAG_member
    8290                      .dwattr $C$DW$905, DW_AT_type(*$C$DW$T$19)
    8291                      .dwattr $C$DW$905, DW_AT_name("ALLONE")
    8292                      .dwattr $C$DW$905, DW_AT_TI_symbol_name("_ALLONE")
    8293                      .dwattr $C$DW$905, DW_AT_bit_offset(0x0b), DW_AT_bit_size(0x01)
    8294                      .dwattr $C$DW$905, DW_AT_data_member_location[DW_OP_plus_uconst 0x0]
    8295                      .dwattr $C$DW$905, DW_AT_accessibility(DW_ACCESS_public)
    8296              $C$DW$906       .dwtag  DW_TAG_member
    8297                      .dwattr $C$DW$906, DW_AT_type(*$C$DW$T$19)
    8298                      .dwattr $C$DW$906, DW_AT_name("UNSECURE")
    8299                      .dwattr $C$DW$906, DW_AT_TI_symbol_name("_UNSECURE")
    8300                      .dwattr $C$DW$906, DW_AT_bit_offset(0x0a), DW_AT_bit_size(0x01)
    8301                      .dwattr $C$DW$906, DW_AT_data_member_location[DW_OP_plus_uconst 0x0]
    8302                      .dwattr $C$DW$906, DW_AT_accessibility(DW_ACCESS_public)
    8303              $C$DW$907       .dwtag  DW_TAG_member
    8304                      .dwattr $C$DW$907, DW_AT_type(*$C$DW$T$19)
    8305                      .dwattr $C$DW$907, DW_AT_name("ARMED")
    8306                      .dwattr $C$DW$907, DW_AT_TI_symbol_name("_ARMED")
    8307                      .dwattr $C$DW$907, DW_AT_bit_offset(0x09), DW_AT_bit_size(0x01)
    8308                      .dwattr $C$DW$907, DW_AT_data_member_location[DW_OP_plus_uconst 0x0]
    8309                      .dwattr $C$DW$907, DW_AT_accessibility(DW_ACCESS_public)
    8310              $C$DW$908       .dwtag  DW_TAG_member
    8311                      .dwattr $C$DW$908, DW_AT_type(*$C$DW$T$19)
    8312                      .dwattr $C$DW$908, DW_AT_name("rsvd2")
    8313                      .dwattr $C$DW$908, DW_AT_TI_symbol_name("_rsvd2")
    8314                      .dwattr $C$DW$908, DW_AT_bit_offset(0x08), DW_AT_bit_size(0x01)
    8315                      .dwattr $C$DW$908, DW_AT_data_member_location[DW_OP_plus_uconst 0x0]
    8316                      .dwattr $C$DW$908, DW_AT_accessibility(DW_ACCESS_public)
    8317              $C$DW$909       .dwtag  DW_TAG_member
    8318                      .dwattr $C$DW$909, DW_AT_type(*$C$DW$T$19)
    8319                      .dwattr $C$DW$909, DW_AT_name("rsvd3")
    8320                      .dwattr $C$DW$909, DW_AT_TI_symbol_name("_rsvd3")
    8321                      .dwattr $C$DW$909, DW_AT_bit_offset(0x01), DW_AT_bit_size(0x07)
    8322                      .dwattr $C$DW$909, DW_AT_data_member_location[DW_OP_plus_uconst 0x0]
    8323                      .dwattr $C$DW$909, DW_AT_accessibility(DW_ACCESS_public)
    8324              $C$DW$910       .dwtag  DW_TAG_member
    8325                      .dwattr $C$DW$910, DW_AT_type(*$C$DW$T$19)
    8326                      .dwattr $C$DW$910, DW_AT_name("FORCESEC")
    8327                      .dwattr $C$DW$910, DW_AT_TI_symbol_name("_FORCESEC")
    8328                      .dwattr $C$DW$910, DW_AT_bit_offset(0x00), DW_AT_bit_size(0x01)
    8329                      .dwattr $C$DW$910, DW_AT_data_member_location[DW_OP_plus_uconst 0x0]
    8330                      .dwattr $C$DW$910, DW_AT_accessibility(DW_ACCESS_public)
    8331                      .dwendtag $C$DW$T$194
    8332              
    8333              
TMS320C2000 Assembler PC v6.4.2 Thu Dec 14 15:26:44 2017

Tools Copyright (c) 1996-2015 Texas Instruments Incorporated
F2837xS_SysCtrl.asm                                                  PAGE  156

    8334              $C$DW$T$195     .dwtag  DW_TAG_union_type
    8335                      .dwattr $C$DW$T$195, DW_AT_name("Z1_CR_REG")
    8336                      .dwattr $C$DW$T$195, DW_AT_byte_size(0x01)
    8337              $C$DW$911       .dwtag  DW_TAG_member
    8338                      .dwattr $C$DW$911, DW_AT_type(*$C$DW$T$19)
    8339                      .dwattr $C$DW$911, DW_AT_name("all")
    8340                      .dwattr $C$DW$911, DW_AT_TI_symbol_name("_all")
    8341                      .dwattr $C$DW$911, DW_AT_data_member_location[DW_OP_plus_uconst 0x0]
    8342                      .dwattr $C$DW$911, DW_AT_accessibility(DW_ACCESS_public)
    8343              $C$DW$912       .dwtag  DW_TAG_member
    8344                      .dwattr $C$DW$912, DW_AT_type(*$C$DW$T$194)
    8345                      .dwattr $C$DW$912, DW_AT_name("bit")
    8346                      .dwattr $C$DW$912, DW_AT_TI_symbol_name("_bit")
    8347                      .dwattr $C$DW$912, DW_AT_data_member_location[DW_OP_plus_uconst 0x0]
    8348                      .dwattr $C$DW$912, DW_AT_accessibility(DW_ACCESS_public)
    8349                      .dwendtag $C$DW$T$195
    8350              
    8351              
    8352              $C$DW$T$196     .dwtag  DW_TAG_structure_type
    8353                      .dwattr $C$DW$T$196, DW_AT_name("Z1_EXEONLYRAMR_BITS")
    8354                      .dwattr $C$DW$T$196, DW_AT_byte_size(0x02)
    8355              $C$DW$913       .dwtag  DW_TAG_member
    8356                      .dwattr $C$DW$913, DW_AT_type(*$C$DW$T$19)
    8357                      .dwattr $C$DW$913, DW_AT_name("EXEONLY_RAM0")
    8358                      .dwattr $C$DW$913, DW_AT_TI_symbol_name("_EXEONLY_RAM0")
    8359                      .dwattr $C$DW$913, DW_AT_bit_offset(0x0f), DW_AT_bit_size(0x01)
    8360                      .dwattr $C$DW$913, DW_AT_data_member_location[DW_OP_plus_uconst 0x0]
    8361                      .dwattr $C$DW$913, DW_AT_accessibility(DW_ACCESS_public)
    8362              $C$DW$914       .dwtag  DW_TAG_member
    8363                      .dwattr $C$DW$914, DW_AT_type(*$C$DW$T$19)
    8364                      .dwattr $C$DW$914, DW_AT_name("EXEONLY_RAM1")
    8365                      .dwattr $C$DW$914, DW_AT_TI_symbol_name("_EXEONLY_RAM1")
    8366                      .dwattr $C$DW$914, DW_AT_bit_offset(0x0e), DW_AT_bit_size(0x01)
    8367                      .dwattr $C$DW$914, DW_AT_data_member_location[DW_OP_plus_uconst 0x0]
    8368                      .dwattr $C$DW$914, DW_AT_accessibility(DW_ACCESS_public)
    8369              $C$DW$915       .dwtag  DW_TAG_member
    8370                      .dwattr $C$DW$915, DW_AT_type(*$C$DW$T$19)
    8371                      .dwattr $C$DW$915, DW_AT_name("EXEONLY_RAM2")
    8372                      .dwattr $C$DW$915, DW_AT_TI_symbol_name("_EXEONLY_RAM2")
    8373                      .dwattr $C$DW$915, DW_AT_bit_offset(0x0d), DW_AT_bit_size(0x01)
    8374                      .dwattr $C$DW$915, DW_AT_data_member_location[DW_OP_plus_uconst 0x0]
    8375                      .dwattr $C$DW$915, DW_AT_accessibility(DW_ACCESS_public)
    8376              $C$DW$916       .dwtag  DW_TAG_member
    8377                      .dwattr $C$DW$916, DW_AT_type(*$C$DW$T$19)
    8378                      .dwattr $C$DW$916, DW_AT_name("EXEONLY_RAM3")
    8379                      .dwattr $C$DW$916, DW_AT_TI_symbol_name("_EXEONLY_RAM3")
    8380                      .dwattr $C$DW$916, DW_AT_bit_offset(0x0c), DW_AT_bit_size(0x01)
    8381                      .dwattr $C$DW$916, DW_AT_data_member_location[DW_OP_plus_uconst 0x0]
    8382                      .dwattr $C$DW$916, DW_AT_accessibility(DW_ACCESS_public)
    8383              $C$DW$917       .dwtag  DW_TAG_member
    8384                      .dwattr $C$DW$917, DW_AT_type(*$C$DW$T$19)
    8385                      .dwattr $C$DW$917, DW_AT_name("EXEONLY_RAM4")
    8386                      .dwattr $C$DW$917, DW_AT_TI_symbol_name("_EXEONLY_RAM4")
    8387                      .dwattr $C$DW$917, DW_AT_bit_offset(0x0b), DW_AT_bit_size(0x01)
    8388                      .dwattr $C$DW$917, DW_AT_data_member_location[DW_OP_plus_uconst 0x0]
TMS320C2000 Assembler PC v6.4.2 Thu Dec 14 15:26:44 2017

Tools Copyright (c) 1996-2015 Texas Instruments Incorporated
F2837xS_SysCtrl.asm                                                  PAGE  157

    8389                      .dwattr $C$DW$917, DW_AT_accessibility(DW_ACCESS_public)
    8390              $C$DW$918       .dwtag  DW_TAG_member
    8391                      .dwattr $C$DW$918, DW_AT_type(*$C$DW$T$19)
    8392                      .dwattr $C$DW$918, DW_AT_name("EXEONLY_RAM5")
    8393                      .dwattr $C$DW$918, DW_AT_TI_symbol_name("_EXEONLY_RAM5")
    8394                      .dwattr $C$DW$918, DW_AT_bit_offset(0x0a), DW_AT_bit_size(0x01)
    8395                      .dwattr $C$DW$918, DW_AT_data_member_location[DW_OP_plus_uconst 0x0]
    8396                      .dwattr $C$DW$918, DW_AT_accessibility(DW_ACCESS_public)
    8397              $C$DW$919       .dwtag  DW_TAG_member
    8398                      .dwattr $C$DW$919, DW_AT_type(*$C$DW$T$19)
    8399                      .dwattr $C$DW$919, DW_AT_name("EXEONLY_RAM6")
    8400                      .dwattr $C$DW$919, DW_AT_TI_symbol_name("_EXEONLY_RAM6")
    8401                      .dwattr $C$DW$919, DW_AT_bit_offset(0x09), DW_AT_bit_size(0x01)
    8402                      .dwattr $C$DW$919, DW_AT_data_member_location[DW_OP_plus_uconst 0x0]
    8403                      .dwattr $C$DW$919, DW_AT_accessibility(DW_ACCESS_public)
    8404              $C$DW$920       .dwtag  DW_TAG_member
    8405                      .dwattr $C$DW$920, DW_AT_type(*$C$DW$T$19)
    8406                      .dwattr $C$DW$920, DW_AT_name("EXEONLY_RAM7")
    8407                      .dwattr $C$DW$920, DW_AT_TI_symbol_name("_EXEONLY_RAM7")
    8408                      .dwattr $C$DW$920, DW_AT_bit_offset(0x08), DW_AT_bit_size(0x01)
    8409                      .dwattr $C$DW$920, DW_AT_data_member_location[DW_OP_plus_uconst 0x0]
    8410                      .dwattr $C$DW$920, DW_AT_accessibility(DW_ACCESS_public)
    8411              $C$DW$921       .dwtag  DW_TAG_member
    8412                      .dwattr $C$DW$921, DW_AT_type(*$C$DW$T$19)
    8413                      .dwattr $C$DW$921, DW_AT_name("rsvd1")
    8414                      .dwattr $C$DW$921, DW_AT_TI_symbol_name("_rsvd1")
    8415                      .dwattr $C$DW$921, DW_AT_bit_offset(0x00), DW_AT_bit_size(0x08)
    8416                      .dwattr $C$DW$921, DW_AT_data_member_location[DW_OP_plus_uconst 0x0]
    8417                      .dwattr $C$DW$921, DW_AT_accessibility(DW_ACCESS_public)
    8418              $C$DW$922       .dwtag  DW_TAG_member
    8419                      .dwattr $C$DW$922, DW_AT_type(*$C$DW$T$19)
    8420                      .dwattr $C$DW$922, DW_AT_name("rsvd2")
    8421                      .dwattr $C$DW$922, DW_AT_TI_symbol_name("_rsvd2")
    8422                      .dwattr $C$DW$922, DW_AT_bit_offset(0x00), DW_AT_bit_size(0x10)
    8423                      .dwattr $C$DW$922, DW_AT_data_member_location[DW_OP_plus_uconst 0x1]
    8424                      .dwattr $C$DW$922, DW_AT_accessibility(DW_ACCESS_public)
    8425                      .dwendtag $C$DW$T$196
    8426              
    8427              
    8428              $C$DW$T$197     .dwtag  DW_TAG_union_type
    8429                      .dwattr $C$DW$T$197, DW_AT_name("Z1_EXEONLYRAMR_REG")
    8430                      .dwattr $C$DW$T$197, DW_AT_byte_size(0x02)
    8431              $C$DW$923       .dwtag  DW_TAG_member
    8432                      .dwattr $C$DW$923, DW_AT_type(*$C$DW$T$27)
    8433                      .dwattr $C$DW$923, DW_AT_name("all")
    8434                      .dwattr $C$DW$923, DW_AT_TI_symbol_name("_all")
    8435                      .dwattr $C$DW$923, DW_AT_data_member_location[DW_OP_plus_uconst 0x0]
    8436                      .dwattr $C$DW$923, DW_AT_accessibility(DW_ACCESS_public)
    8437              $C$DW$924       .dwtag  DW_TAG_member
    8438                      .dwattr $C$DW$924, DW_AT_type(*$C$DW$T$196)
    8439                      .dwattr $C$DW$924, DW_AT_name("bit")
    8440                      .dwattr $C$DW$924, DW_AT_TI_symbol_name("_bit")
    8441                      .dwattr $C$DW$924, DW_AT_data_member_location[DW_OP_plus_uconst 0x0]
    8442                      .dwattr $C$DW$924, DW_AT_accessibility(DW_ACCESS_public)
    8443                      .dwendtag $C$DW$T$197
TMS320C2000 Assembler PC v6.4.2 Thu Dec 14 15:26:44 2017

Tools Copyright (c) 1996-2015 Texas Instruments Incorporated
F2837xS_SysCtrl.asm                                                  PAGE  158

    8444              
    8445              
    8446              $C$DW$T$198     .dwtag  DW_TAG_structure_type
    8447                      .dwattr $C$DW$T$198, DW_AT_name("Z1_EXEONLYSECTR_BITS")
    8448                      .dwattr $C$DW$T$198, DW_AT_byte_size(0x02)
    8449              $C$DW$925       .dwtag  DW_TAG_member
    8450                      .dwattr $C$DW$925, DW_AT_type(*$C$DW$T$19)
    8451                      .dwattr $C$DW$925, DW_AT_name("EXEONLY_SECTA")
    8452                      .dwattr $C$DW$925, DW_AT_TI_symbol_name("_EXEONLY_SECTA")
    8453                      .dwattr $C$DW$925, DW_AT_bit_offset(0x0f), DW_AT_bit_size(0x01)
    8454                      .dwattr $C$DW$925, DW_AT_data_member_location[DW_OP_plus_uconst 0x0]
    8455                      .dwattr $C$DW$925, DW_AT_accessibility(DW_ACCESS_public)
    8456              $C$DW$926       .dwtag  DW_TAG_member
    8457                      .dwattr $C$DW$926, DW_AT_type(*$C$DW$T$19)
    8458                      .dwattr $C$DW$926, DW_AT_name("EXEONLY_SECTB")
    8459                      .dwattr $C$DW$926, DW_AT_TI_symbol_name("_EXEONLY_SECTB")
    8460                      .dwattr $C$DW$926, DW_AT_bit_offset(0x0e), DW_AT_bit_size(0x01)
    8461                      .dwattr $C$DW$926, DW_AT_data_member_location[DW_OP_plus_uconst 0x0]
    8462                      .dwattr $C$DW$926, DW_AT_accessibility(DW_ACCESS_public)
    8463              $C$DW$927       .dwtag  DW_TAG_member
    8464                      .dwattr $C$DW$927, DW_AT_type(*$C$DW$T$19)
    8465                      .dwattr $C$DW$927, DW_AT_name("EXEONLY_SECTC")
    8466                      .dwattr $C$DW$927, DW_AT_TI_symbol_name("_EXEONLY_SECTC")
    8467                      .dwattr $C$DW$927, DW_AT_bit_offset(0x0d), DW_AT_bit_size(0x01)
    8468                      .dwattr $C$DW$927, DW_AT_data_member_location[DW_OP_plus_uconst 0x0]
    8469                      .dwattr $C$DW$927, DW_AT_accessibility(DW_ACCESS_public)
    8470              $C$DW$928       .dwtag  DW_TAG_member
    8471                      .dwattr $C$DW$928, DW_AT_type(*$C$DW$T$19)
    8472                      .dwattr $C$DW$928, DW_AT_name("EXEONLY_SECTD")
    8473                      .dwattr $C$DW$928, DW_AT_TI_symbol_name("_EXEONLY_SECTD")
    8474                      .dwattr $C$DW$928, DW_AT_bit_offset(0x0c), DW_AT_bit_size(0x01)
    8475                      .dwattr $C$DW$928, DW_AT_data_member_location[DW_OP_plus_uconst 0x0]
    8476                      .dwattr $C$DW$928, DW_AT_accessibility(DW_ACCESS_public)
    8477              $C$DW$929       .dwtag  DW_TAG_member
    8478                      .dwattr $C$DW$929, DW_AT_type(*$C$DW$T$19)
    8479                      .dwattr $C$DW$929, DW_AT_name("EXEONLY_SECTE")
    8480                      .dwattr $C$DW$929, DW_AT_TI_symbol_name("_EXEONLY_SECTE")
    8481                      .dwattr $C$DW$929, DW_AT_bit_offset(0x0b), DW_AT_bit_size(0x01)
    8482                      .dwattr $C$DW$929, DW_AT_data_member_location[DW_OP_plus_uconst 0x0]
    8483                      .dwattr $C$DW$929, DW_AT_accessibility(DW_ACCESS_public)
    8484              $C$DW$930       .dwtag  DW_TAG_member
    8485                      .dwattr $C$DW$930, DW_AT_type(*$C$DW$T$19)
    8486                      .dwattr $C$DW$930, DW_AT_name("EXEONLY_SECTF")
    8487                      .dwattr $C$DW$930, DW_AT_TI_symbol_name("_EXEONLY_SECTF")
    8488                      .dwattr $C$DW$930, DW_AT_bit_offset(0x0a), DW_AT_bit_size(0x01)
    8489                      .dwattr $C$DW$930, DW_AT_data_member_location[DW_OP_plus_uconst 0x0]
    8490                      .dwattr $C$DW$930, DW_AT_accessibility(DW_ACCESS_public)
    8491              $C$DW$931       .dwtag  DW_TAG_member
    8492                      .dwattr $C$DW$931, DW_AT_type(*$C$DW$T$19)
    8493                      .dwattr $C$DW$931, DW_AT_name("EXEONLY_SECTG")
    8494                      .dwattr $C$DW$931, DW_AT_TI_symbol_name("_EXEONLY_SECTG")
    8495                      .dwattr $C$DW$931, DW_AT_bit_offset(0x09), DW_AT_bit_size(0x01)
    8496                      .dwattr $C$DW$931, DW_AT_data_member_location[DW_OP_plus_uconst 0x0]
    8497                      .dwattr $C$DW$931, DW_AT_accessibility(DW_ACCESS_public)
    8498              $C$DW$932       .dwtag  DW_TAG_member
TMS320C2000 Assembler PC v6.4.2 Thu Dec 14 15:26:44 2017

Tools Copyright (c) 1996-2015 Texas Instruments Incorporated
F2837xS_SysCtrl.asm                                                  PAGE  159

    8499                      .dwattr $C$DW$932, DW_AT_type(*$C$DW$T$19)
    8500                      .dwattr $C$DW$932, DW_AT_name("EXEONLY_SECTH")
    8501                      .dwattr $C$DW$932, DW_AT_TI_symbol_name("_EXEONLY_SECTH")
    8502                      .dwattr $C$DW$932, DW_AT_bit_offset(0x08), DW_AT_bit_size(0x01)
    8503                      .dwattr $C$DW$932, DW_AT_data_member_location[DW_OP_plus_uconst 0x0]
    8504                      .dwattr $C$DW$932, DW_AT_accessibility(DW_ACCESS_public)
    8505              $C$DW$933       .dwtag  DW_TAG_member
    8506                      .dwattr $C$DW$933, DW_AT_type(*$C$DW$T$19)
    8507                      .dwattr $C$DW$933, DW_AT_name("EXEONLY_SECTI")
    8508                      .dwattr $C$DW$933, DW_AT_TI_symbol_name("_EXEONLY_SECTI")
    8509                      .dwattr $C$DW$933, DW_AT_bit_offset(0x07), DW_AT_bit_size(0x01)
    8510                      .dwattr $C$DW$933, DW_AT_data_member_location[DW_OP_plus_uconst 0x0]
    8511                      .dwattr $C$DW$933, DW_AT_accessibility(DW_ACCESS_public)
    8512              $C$DW$934       .dwtag  DW_TAG_member
    8513                      .dwattr $C$DW$934, DW_AT_type(*$C$DW$T$19)
    8514                      .dwattr $C$DW$934, DW_AT_name("EXEONLY_SECTJ")
    8515                      .dwattr $C$DW$934, DW_AT_TI_symbol_name("_EXEONLY_SECTJ")
    8516                      .dwattr $C$DW$934, DW_AT_bit_offset(0x06), DW_AT_bit_size(0x01)
    8517                      .dwattr $C$DW$934, DW_AT_data_member_location[DW_OP_plus_uconst 0x0]
    8518                      .dwattr $C$DW$934, DW_AT_accessibility(DW_ACCESS_public)
    8519              $C$DW$935       .dwtag  DW_TAG_member
    8520                      .dwattr $C$DW$935, DW_AT_type(*$C$DW$T$19)
    8521                      .dwattr $C$DW$935, DW_AT_name("EXEONLY_SECTK")
    8522                      .dwattr $C$DW$935, DW_AT_TI_symbol_name("_EXEONLY_SECTK")
    8523                      .dwattr $C$DW$935, DW_AT_bit_offset(0x05), DW_AT_bit_size(0x01)
    8524                      .dwattr $C$DW$935, DW_AT_data_member_location[DW_OP_plus_uconst 0x0]
    8525                      .dwattr $C$DW$935, DW_AT_accessibility(DW_ACCESS_public)
    8526              $C$DW$936       .dwtag  DW_TAG_member
    8527                      .dwattr $C$DW$936, DW_AT_type(*$C$DW$T$19)
    8528                      .dwattr $C$DW$936, DW_AT_name("EXEONLY_SECTL")
    8529                      .dwattr $C$DW$936, DW_AT_TI_symbol_name("_EXEONLY_SECTL")
    8530                      .dwattr $C$DW$936, DW_AT_bit_offset(0x04), DW_AT_bit_size(0x01)
    8531                      .dwattr $C$DW$936, DW_AT_data_member_location[DW_OP_plus_uconst 0x0]
    8532                      .dwattr $C$DW$936, DW_AT_accessibility(DW_ACCESS_public)
    8533              $C$DW$937       .dwtag  DW_TAG_member
    8534                      .dwattr $C$DW$937, DW_AT_type(*$C$DW$T$19)
    8535                      .dwattr $C$DW$937, DW_AT_name("EXEONLY_SECTM")
    8536                      .dwattr $C$DW$937, DW_AT_TI_symbol_name("_EXEONLY_SECTM")
    8537                      .dwattr $C$DW$937, DW_AT_bit_offset(0x03), DW_AT_bit_size(0x01)
    8538                      .dwattr $C$DW$937, DW_AT_data_member_location[DW_OP_plus_uconst 0x0]
    8539                      .dwattr $C$DW$937, DW_AT_accessibility(DW_ACCESS_public)
    8540              $C$DW$938       .dwtag  DW_TAG_member
    8541                      .dwattr $C$DW$938, DW_AT_type(*$C$DW$T$19)
    8542                      .dwattr $C$DW$938, DW_AT_name("EXEONLY_SECTN")
    8543                      .dwattr $C$DW$938, DW_AT_TI_symbol_name("_EXEONLY_SECTN")
    8544                      .dwattr $C$DW$938, DW_AT_bit_offset(0x02), DW_AT_bit_size(0x01)
    8545                      .dwattr $C$DW$938, DW_AT_data_member_location[DW_OP_plus_uconst 0x0]
    8546                      .dwattr $C$DW$938, DW_AT_accessibility(DW_ACCESS_public)
    8547              $C$DW$939       .dwtag  DW_TAG_member
    8548                      .dwattr $C$DW$939, DW_AT_type(*$C$DW$T$19)
    8549                      .dwattr $C$DW$939, DW_AT_name("EXEONLY_BANK1")
    8550                      .dwattr $C$DW$939, DW_AT_TI_symbol_name("_EXEONLY_BANK1")
    8551                      .dwattr $C$DW$939, DW_AT_bit_offset(0x01), DW_AT_bit_size(0x01)
    8552                      .dwattr $C$DW$939, DW_AT_data_member_location[DW_OP_plus_uconst 0x0]
    8553                      .dwattr $C$DW$939, DW_AT_accessibility(DW_ACCESS_public)
TMS320C2000 Assembler PC v6.4.2 Thu Dec 14 15:26:44 2017

Tools Copyright (c) 1996-2015 Texas Instruments Incorporated
F2837xS_SysCtrl.asm                                                  PAGE  160

    8554              $C$DW$940       .dwtag  DW_TAG_member
    8555                      .dwattr $C$DW$940, DW_AT_type(*$C$DW$T$19)
    8556                      .dwattr $C$DW$940, DW_AT_name("rsvd1")
    8557                      .dwattr $C$DW$940, DW_AT_TI_symbol_name("_rsvd1")
    8558                      .dwattr $C$DW$940, DW_AT_bit_offset(0x00), DW_AT_bit_size(0x01)
    8559                      .dwattr $C$DW$940, DW_AT_data_member_location[DW_OP_plus_uconst 0x0]
    8560                      .dwattr $C$DW$940, DW_AT_accessibility(DW_ACCESS_public)
    8561              $C$DW$941       .dwtag  DW_TAG_member
    8562                      .dwattr $C$DW$941, DW_AT_type(*$C$DW$T$19)
    8563                      .dwattr $C$DW$941, DW_AT_name("rsvd2")
    8564                      .dwattr $C$DW$941, DW_AT_TI_symbol_name("_rsvd2")
    8565                      .dwattr $C$DW$941, DW_AT_bit_offset(0x00), DW_AT_bit_size(0x10)
    8566                      .dwattr $C$DW$941, DW_AT_data_member_location[DW_OP_plus_uconst 0x1]
    8567                      .dwattr $C$DW$941, DW_AT_accessibility(DW_ACCESS_public)
    8568                      .dwendtag $C$DW$T$198
    8569              
    8570              
    8571              $C$DW$T$199     .dwtag  DW_TAG_union_type
    8572                      .dwattr $C$DW$T$199, DW_AT_name("Z1_EXEONLYSECTR_REG")
    8573                      .dwattr $C$DW$T$199, DW_AT_byte_size(0x02)
    8574              $C$DW$942       .dwtag  DW_TAG_member
    8575                      .dwattr $C$DW$942, DW_AT_type(*$C$DW$T$27)
    8576                      .dwattr $C$DW$942, DW_AT_name("all")
    8577                      .dwattr $C$DW$942, DW_AT_TI_symbol_name("_all")
    8578                      .dwattr $C$DW$942, DW_AT_data_member_location[DW_OP_plus_uconst 0x0]
    8579                      .dwattr $C$DW$942, DW_AT_accessibility(DW_ACCESS_public)
    8580              $C$DW$943       .dwtag  DW_TAG_member
    8581                      .dwattr $C$DW$943, DW_AT_type(*$C$DW$T$198)
    8582                      .dwattr $C$DW$943, DW_AT_name("bit")
    8583                      .dwattr $C$DW$943, DW_AT_TI_symbol_name("_bit")
    8584                      .dwattr $C$DW$943, DW_AT_data_member_location[DW_OP_plus_uconst 0x0]
    8585                      .dwattr $C$DW$943, DW_AT_accessibility(DW_ACCESS_public)
    8586                      .dwendtag $C$DW$T$199
    8587              
    8588              
    8589              $C$DW$T$200     .dwtag  DW_TAG_structure_type
    8590                      .dwattr $C$DW$T$200, DW_AT_name("Z1_GRABRAMR_BITS")
    8591                      .dwattr $C$DW$T$200, DW_AT_byte_size(0x02)
    8592              $C$DW$944       .dwtag  DW_TAG_member
    8593                      .dwattr $C$DW$944, DW_AT_type(*$C$DW$T$19)
    8594                      .dwattr $C$DW$944, DW_AT_name("GRAB_RAM0")
    8595                      .dwattr $C$DW$944, DW_AT_TI_symbol_name("_GRAB_RAM0")
    8596                      .dwattr $C$DW$944, DW_AT_bit_offset(0x0e), DW_AT_bit_size(0x02)
    8597                      .dwattr $C$DW$944, DW_AT_data_member_location[DW_OP_plus_uconst 0x0]
    8598                      .dwattr $C$DW$944, DW_AT_accessibility(DW_ACCESS_public)
    8599              $C$DW$945       .dwtag  DW_TAG_member
    8600                      .dwattr $C$DW$945, DW_AT_type(*$C$DW$T$19)
    8601                      .dwattr $C$DW$945, DW_AT_name("GRAB_RAM1")
    8602                      .dwattr $C$DW$945, DW_AT_TI_symbol_name("_GRAB_RAM1")
    8603                      .dwattr $C$DW$945, DW_AT_bit_offset(0x0c), DW_AT_bit_size(0x02)
    8604                      .dwattr $C$DW$945, DW_AT_data_member_location[DW_OP_plus_uconst 0x0]
    8605                      .dwattr $C$DW$945, DW_AT_accessibility(DW_ACCESS_public)
    8606              $C$DW$946       .dwtag  DW_TAG_member
    8607                      .dwattr $C$DW$946, DW_AT_type(*$C$DW$T$19)
    8608                      .dwattr $C$DW$946, DW_AT_name("GRAB_RAM2")
TMS320C2000 Assembler PC v6.4.2 Thu Dec 14 15:26:44 2017

Tools Copyright (c) 1996-2015 Texas Instruments Incorporated
F2837xS_SysCtrl.asm                                                  PAGE  161

    8609                      .dwattr $C$DW$946, DW_AT_TI_symbol_name("_GRAB_RAM2")
    8610                      .dwattr $C$DW$946, DW_AT_bit_offset(0x0a), DW_AT_bit_size(0x02)
    8611                      .dwattr $C$DW$946, DW_AT_data_member_location[DW_OP_plus_uconst 0x0]
    8612                      .dwattr $C$DW$946, DW_AT_accessibility(DW_ACCESS_public)
    8613              $C$DW$947       .dwtag  DW_TAG_member
    8614                      .dwattr $C$DW$947, DW_AT_type(*$C$DW$T$19)
    8615                      .dwattr $C$DW$947, DW_AT_name("GRAB_RAM3")
    8616                      .dwattr $C$DW$947, DW_AT_TI_symbol_name("_GRAB_RAM3")
    8617                      .dwattr $C$DW$947, DW_AT_bit_offset(0x08), DW_AT_bit_size(0x02)
    8618                      .dwattr $C$DW$947, DW_AT_data_member_location[DW_OP_plus_uconst 0x0]
    8619                      .dwattr $C$DW$947, DW_AT_accessibility(DW_ACCESS_public)
    8620              $C$DW$948       .dwtag  DW_TAG_member
    8621                      .dwattr $C$DW$948, DW_AT_type(*$C$DW$T$19)
    8622                      .dwattr $C$DW$948, DW_AT_name("GRAB_RAM4")
    8623                      .dwattr $C$DW$948, DW_AT_TI_symbol_name("_GRAB_RAM4")
    8624                      .dwattr $C$DW$948, DW_AT_bit_offset(0x06), DW_AT_bit_size(0x02)
    8625                      .dwattr $C$DW$948, DW_AT_data_member_location[DW_OP_plus_uconst 0x0]
    8626                      .dwattr $C$DW$948, DW_AT_accessibility(DW_ACCESS_public)
    8627              $C$DW$949       .dwtag  DW_TAG_member
    8628                      .dwattr $C$DW$949, DW_AT_type(*$C$DW$T$19)
    8629                      .dwattr $C$DW$949, DW_AT_name("GRAB_RAM5")
    8630                      .dwattr $C$DW$949, DW_AT_TI_symbol_name("_GRAB_RAM5")
    8631                      .dwattr $C$DW$949, DW_AT_bit_offset(0x04), DW_AT_bit_size(0x02)
    8632                      .dwattr $C$DW$949, DW_AT_data_member_location[DW_OP_plus_uconst 0x0]
    8633                      .dwattr $C$DW$949, DW_AT_accessibility(DW_ACCESS_public)
    8634              $C$DW$950       .dwtag  DW_TAG_member
    8635                      .dwattr $C$DW$950, DW_AT_type(*$C$DW$T$19)
    8636                      .dwattr $C$DW$950, DW_AT_name("GRAB_RAM6")
    8637                      .dwattr $C$DW$950, DW_AT_TI_symbol_name("_GRAB_RAM6")
    8638                      .dwattr $C$DW$950, DW_AT_bit_offset(0x02), DW_AT_bit_size(0x02)
    8639                      .dwattr $C$DW$950, DW_AT_data_member_location[DW_OP_plus_uconst 0x0]
    8640                      .dwattr $C$DW$950, DW_AT_accessibility(DW_ACCESS_public)
    8641              $C$DW$951       .dwtag  DW_TAG_member
    8642                      .dwattr $C$DW$951, DW_AT_type(*$C$DW$T$19)
    8643                      .dwattr $C$DW$951, DW_AT_name("GRAB_RAM7")
    8644                      .dwattr $C$DW$951, DW_AT_TI_symbol_name("_GRAB_RAM7")
    8645                      .dwattr $C$DW$951, DW_AT_bit_offset(0x00), DW_AT_bit_size(0x02)
    8646                      .dwattr $C$DW$951, DW_AT_data_member_location[DW_OP_plus_uconst 0x0]
    8647                      .dwattr $C$DW$951, DW_AT_accessibility(DW_ACCESS_public)
    8648              $C$DW$952       .dwtag  DW_TAG_member
    8649                      .dwattr $C$DW$952, DW_AT_type(*$C$DW$T$19)
    8650                      .dwattr $C$DW$952, DW_AT_name("rsvd1")
    8651                      .dwattr $C$DW$952, DW_AT_TI_symbol_name("_rsvd1")
    8652                      .dwattr $C$DW$952, DW_AT_bit_offset(0x04), DW_AT_bit_size(0x0c)
    8653                      .dwattr $C$DW$952, DW_AT_data_member_location[DW_OP_plus_uconst 0x1]
    8654                      .dwattr $C$DW$952, DW_AT_accessibility(DW_ACCESS_public)
    8655              $C$DW$953       .dwtag  DW_TAG_member
    8656                      .dwattr $C$DW$953, DW_AT_type(*$C$DW$T$19)
    8657                      .dwattr $C$DW$953, DW_AT_name("GRAB_CLA1")
    8658                      .dwattr $C$DW$953, DW_AT_TI_symbol_name("_GRAB_CLA1")
    8659                      .dwattr $C$DW$953, DW_AT_bit_offset(0x02), DW_AT_bit_size(0x02)
    8660                      .dwattr $C$DW$953, DW_AT_data_member_location[DW_OP_plus_uconst 0x1]
    8661                      .dwattr $C$DW$953, DW_AT_accessibility(DW_ACCESS_public)
    8662              $C$DW$954       .dwtag  DW_TAG_member
    8663                      .dwattr $C$DW$954, DW_AT_type(*$C$DW$T$19)
TMS320C2000 Assembler PC v6.4.2 Thu Dec 14 15:26:44 2017

Tools Copyright (c) 1996-2015 Texas Instruments Incorporated
F2837xS_SysCtrl.asm                                                  PAGE  162

    8664                      .dwattr $C$DW$954, DW_AT_name("rsvd2")
    8665                      .dwattr $C$DW$954, DW_AT_TI_symbol_name("_rsvd2")
    8666                      .dwattr $C$DW$954, DW_AT_bit_offset(0x00), DW_AT_bit_size(0x02)
    8667                      .dwattr $C$DW$954, DW_AT_data_member_location[DW_OP_plus_uconst 0x1]
    8668                      .dwattr $C$DW$954, DW_AT_accessibility(DW_ACCESS_public)
    8669                      .dwendtag $C$DW$T$200
    8670              
    8671              
    8672              $C$DW$T$201     .dwtag  DW_TAG_union_type
    8673                      .dwattr $C$DW$T$201, DW_AT_name("Z1_GRABRAMR_REG")
    8674                      .dwattr $C$DW$T$201, DW_AT_byte_size(0x02)
    8675              $C$DW$955       .dwtag  DW_TAG_member
    8676                      .dwattr $C$DW$955, DW_AT_type(*$C$DW$T$27)
    8677                      .dwattr $C$DW$955, DW_AT_name("all")
    8678                      .dwattr $C$DW$955, DW_AT_TI_symbol_name("_all")
    8679                      .dwattr $C$DW$955, DW_AT_data_member_location[DW_OP_plus_uconst 0x0]
    8680                      .dwattr $C$DW$955, DW_AT_accessibility(DW_ACCESS_public)
    8681              $C$DW$956       .dwtag  DW_TAG_member
    8682                      .dwattr $C$DW$956, DW_AT_type(*$C$DW$T$200)
    8683                      .dwattr $C$DW$956, DW_AT_name("bit")
    8684                      .dwattr $C$DW$956, DW_AT_TI_symbol_name("_bit")
    8685                      .dwattr $C$DW$956, DW_AT_data_member_location[DW_OP_plus_uconst 0x0]
    8686                      .dwattr $C$DW$956, DW_AT_accessibility(DW_ACCESS_public)
    8687                      .dwendtag $C$DW$T$201
    8688              
    8689              
    8690              $C$DW$T$202     .dwtag  DW_TAG_structure_type
    8691                      .dwattr $C$DW$T$202, DW_AT_name("Z1_GRABSECTR_BITS")
    8692                      .dwattr $C$DW$T$202, DW_AT_byte_size(0x02)
    8693              $C$DW$957       .dwtag  DW_TAG_member
    8694                      .dwattr $C$DW$957, DW_AT_type(*$C$DW$T$19)
    8695                      .dwattr $C$DW$957, DW_AT_name("GRAB_SECTA")
    8696                      .dwattr $C$DW$957, DW_AT_TI_symbol_name("_GRAB_SECTA")
    8697                      .dwattr $C$DW$957, DW_AT_bit_offset(0x0e), DW_AT_bit_size(0x02)
    8698                      .dwattr $C$DW$957, DW_AT_data_member_location[DW_OP_plus_uconst 0x0]
    8699                      .dwattr $C$DW$957, DW_AT_accessibility(DW_ACCESS_public)
    8700              $C$DW$958       .dwtag  DW_TAG_member
    8701                      .dwattr $C$DW$958, DW_AT_type(*$C$DW$T$19)
    8702                      .dwattr $C$DW$958, DW_AT_name("GRAB_SECTB")
    8703                      .dwattr $C$DW$958, DW_AT_TI_symbol_name("_GRAB_SECTB")
    8704                      .dwattr $C$DW$958, DW_AT_bit_offset(0x0c), DW_AT_bit_size(0x02)
    8705                      .dwattr $C$DW$958, DW_AT_data_member_location[DW_OP_plus_uconst 0x0]
    8706                      .dwattr $C$DW$958, DW_AT_accessibility(DW_ACCESS_public)
    8707              $C$DW$959       .dwtag  DW_TAG_member
    8708                      .dwattr $C$DW$959, DW_AT_type(*$C$DW$T$19)
    8709                      .dwattr $C$DW$959, DW_AT_name("GRAB_SECTC")
    8710                      .dwattr $C$DW$959, DW_AT_TI_symbol_name("_GRAB_SECTC")
    8711                      .dwattr $C$DW$959, DW_AT_bit_offset(0x0a), DW_AT_bit_size(0x02)
    8712                      .dwattr $C$DW$959, DW_AT_data_member_location[DW_OP_plus_uconst 0x0]
    8713                      .dwattr $C$DW$959, DW_AT_accessibility(DW_ACCESS_public)
    8714              $C$DW$960       .dwtag  DW_TAG_member
    8715                      .dwattr $C$DW$960, DW_AT_type(*$C$DW$T$19)
    8716                      .dwattr $C$DW$960, DW_AT_name("GRAB_SECTD")
    8717                      .dwattr $C$DW$960, DW_AT_TI_symbol_name("_GRAB_SECTD")
    8718                      .dwattr $C$DW$960, DW_AT_bit_offset(0x08), DW_AT_bit_size(0x02)
TMS320C2000 Assembler PC v6.4.2 Thu Dec 14 15:26:44 2017

Tools Copyright (c) 1996-2015 Texas Instruments Incorporated
F2837xS_SysCtrl.asm                                                  PAGE  163

    8719                      .dwattr $C$DW$960, DW_AT_data_member_location[DW_OP_plus_uconst 0x0]
    8720                      .dwattr $C$DW$960, DW_AT_accessibility(DW_ACCESS_public)
    8721              $C$DW$961       .dwtag  DW_TAG_member
    8722                      .dwattr $C$DW$961, DW_AT_type(*$C$DW$T$19)
    8723                      .dwattr $C$DW$961, DW_AT_name("GRAB_SECTE")
    8724                      .dwattr $C$DW$961, DW_AT_TI_symbol_name("_GRAB_SECTE")
    8725                      .dwattr $C$DW$961, DW_AT_bit_offset(0x06), DW_AT_bit_size(0x02)
    8726                      .dwattr $C$DW$961, DW_AT_data_member_location[DW_OP_plus_uconst 0x0]
    8727                      .dwattr $C$DW$961, DW_AT_accessibility(DW_ACCESS_public)
    8728              $C$DW$962       .dwtag  DW_TAG_member
    8729                      .dwattr $C$DW$962, DW_AT_type(*$C$DW$T$19)
    8730                      .dwattr $C$DW$962, DW_AT_name("GRAB_SECTF")
    8731                      .dwattr $C$DW$962, DW_AT_TI_symbol_name("_GRAB_SECTF")
    8732                      .dwattr $C$DW$962, DW_AT_bit_offset(0x04), DW_AT_bit_size(0x02)
    8733                      .dwattr $C$DW$962, DW_AT_data_member_location[DW_OP_plus_uconst 0x0]
    8734                      .dwattr $C$DW$962, DW_AT_accessibility(DW_ACCESS_public)
    8735              $C$DW$963       .dwtag  DW_TAG_member
    8736                      .dwattr $C$DW$963, DW_AT_type(*$C$DW$T$19)
    8737                      .dwattr $C$DW$963, DW_AT_name("GRAB_SECTG")
    8738                      .dwattr $C$DW$963, DW_AT_TI_symbol_name("_GRAB_SECTG")
    8739                      .dwattr $C$DW$963, DW_AT_bit_offset(0x02), DW_AT_bit_size(0x02)
    8740                      .dwattr $C$DW$963, DW_AT_data_member_location[DW_OP_plus_uconst 0x0]
    8741                      .dwattr $C$DW$963, DW_AT_accessibility(DW_ACCESS_public)
    8742              $C$DW$964       .dwtag  DW_TAG_member
    8743                      .dwattr $C$DW$964, DW_AT_type(*$C$DW$T$19)
    8744                      .dwattr $C$DW$964, DW_AT_name("GRAB_SECTH")
    8745                      .dwattr $C$DW$964, DW_AT_TI_symbol_name("_GRAB_SECTH")
    8746                      .dwattr $C$DW$964, DW_AT_bit_offset(0x00), DW_AT_bit_size(0x02)
    8747                      .dwattr $C$DW$964, DW_AT_data_member_location[DW_OP_plus_uconst 0x0]
    8748                      .dwattr $C$DW$964, DW_AT_accessibility(DW_ACCESS_public)
    8749              $C$DW$965       .dwtag  DW_TAG_member
    8750                      .dwattr $C$DW$965, DW_AT_type(*$C$DW$T$19)
    8751                      .dwattr $C$DW$965, DW_AT_name("GRAB_SECTI")
    8752                      .dwattr $C$DW$965, DW_AT_TI_symbol_name("_GRAB_SECTI")
    8753                      .dwattr $C$DW$965, DW_AT_bit_offset(0x0e), DW_AT_bit_size(0x02)
    8754                      .dwattr $C$DW$965, DW_AT_data_member_location[DW_OP_plus_uconst 0x1]
    8755                      .dwattr $C$DW$965, DW_AT_accessibility(DW_ACCESS_public)
    8756              $C$DW$966       .dwtag  DW_TAG_member
    8757                      .dwattr $C$DW$966, DW_AT_type(*$C$DW$T$19)
    8758                      .dwattr $C$DW$966, DW_AT_name("GRAB_SECTJ")
    8759                      .dwattr $C$DW$966, DW_AT_TI_symbol_name("_GRAB_SECTJ")
    8760                      .dwattr $C$DW$966, DW_AT_bit_offset(0x0c), DW_AT_bit_size(0x02)
    8761                      .dwattr $C$DW$966, DW_AT_data_member_location[DW_OP_plus_uconst 0x1]
    8762                      .dwattr $C$DW$966, DW_AT_accessibility(DW_ACCESS_public)
    8763              $C$DW$967       .dwtag  DW_TAG_member
    8764                      .dwattr $C$DW$967, DW_AT_type(*$C$DW$T$19)
    8765                      .dwattr $C$DW$967, DW_AT_name("GRAB_SECTK")
    8766                      .dwattr $C$DW$967, DW_AT_TI_symbol_name("_GRAB_SECTK")
    8767                      .dwattr $C$DW$967, DW_AT_bit_offset(0x0a), DW_AT_bit_size(0x02)
    8768                      .dwattr $C$DW$967, DW_AT_data_member_location[DW_OP_plus_uconst 0x1]
    8769                      .dwattr $C$DW$967, DW_AT_accessibility(DW_ACCESS_public)
    8770              $C$DW$968       .dwtag  DW_TAG_member
    8771                      .dwattr $C$DW$968, DW_AT_type(*$C$DW$T$19)
    8772                      .dwattr $C$DW$968, DW_AT_name("GRAB_SECTL")
    8773                      .dwattr $C$DW$968, DW_AT_TI_symbol_name("_GRAB_SECTL")
TMS320C2000 Assembler PC v6.4.2 Thu Dec 14 15:26:44 2017

Tools Copyright (c) 1996-2015 Texas Instruments Incorporated
F2837xS_SysCtrl.asm                                                  PAGE  164

    8774                      .dwattr $C$DW$968, DW_AT_bit_offset(0x08), DW_AT_bit_size(0x02)
    8775                      .dwattr $C$DW$968, DW_AT_data_member_location[DW_OP_plus_uconst 0x1]
    8776                      .dwattr $C$DW$968, DW_AT_accessibility(DW_ACCESS_public)
    8777              $C$DW$969       .dwtag  DW_TAG_member
    8778                      .dwattr $C$DW$969, DW_AT_type(*$C$DW$T$19)
    8779                      .dwattr $C$DW$969, DW_AT_name("GRAB_SECTM")
    8780                      .dwattr $C$DW$969, DW_AT_TI_symbol_name("_GRAB_SECTM")
    8781                      .dwattr $C$DW$969, DW_AT_bit_offset(0x06), DW_AT_bit_size(0x02)
    8782                      .dwattr $C$DW$969, DW_AT_data_member_location[DW_OP_plus_uconst 0x1]
    8783                      .dwattr $C$DW$969, DW_AT_accessibility(DW_ACCESS_public)
    8784              $C$DW$970       .dwtag  DW_TAG_member
    8785                      .dwattr $C$DW$970, DW_AT_type(*$C$DW$T$19)
    8786                      .dwattr $C$DW$970, DW_AT_name("GRAB_SECTN")
    8787                      .dwattr $C$DW$970, DW_AT_TI_symbol_name("_GRAB_SECTN")
    8788                      .dwattr $C$DW$970, DW_AT_bit_offset(0x04), DW_AT_bit_size(0x02)
    8789                      .dwattr $C$DW$970, DW_AT_data_member_location[DW_OP_plus_uconst 0x1]
    8790                      .dwattr $C$DW$970, DW_AT_accessibility(DW_ACCESS_public)
    8791              $C$DW$971       .dwtag  DW_TAG_member
    8792                      .dwattr $C$DW$971, DW_AT_type(*$C$DW$T$19)
    8793                      .dwattr $C$DW$971, DW_AT_name("GRAB_BANK1")
    8794                      .dwattr $C$DW$971, DW_AT_TI_symbol_name("_GRAB_BANK1")
    8795                      .dwattr $C$DW$971, DW_AT_bit_offset(0x02), DW_AT_bit_size(0x02)
    8796                      .dwattr $C$DW$971, DW_AT_data_member_location[DW_OP_plus_uconst 0x1]
    8797                      .dwattr $C$DW$971, DW_AT_accessibility(DW_ACCESS_public)
    8798              $C$DW$972       .dwtag  DW_TAG_member
    8799                      .dwattr $C$DW$972, DW_AT_type(*$C$DW$T$19)
    8800                      .dwattr $C$DW$972, DW_AT_name("rsvd1")
    8801                      .dwattr $C$DW$972, DW_AT_TI_symbol_name("_rsvd1")
    8802                      .dwattr $C$DW$972, DW_AT_bit_offset(0x00), DW_AT_bit_size(0x02)
    8803                      .dwattr $C$DW$972, DW_AT_data_member_location[DW_OP_plus_uconst 0x1]
    8804                      .dwattr $C$DW$972, DW_AT_accessibility(DW_ACCESS_public)
    8805                      .dwendtag $C$DW$T$202
    8806              
    8807              
    8808              $C$DW$T$203     .dwtag  DW_TAG_union_type
    8809                      .dwattr $C$DW$T$203, DW_AT_name("Z1_GRABSECTR_REG")
    8810                      .dwattr $C$DW$T$203, DW_AT_byte_size(0x02)
    8811              $C$DW$973       .dwtag  DW_TAG_member
    8812                      .dwattr $C$DW$973, DW_AT_type(*$C$DW$T$27)
    8813                      .dwattr $C$DW$973, DW_AT_name("all")
    8814                      .dwattr $C$DW$973, DW_AT_TI_symbol_name("_all")
    8815                      .dwattr $C$DW$973, DW_AT_data_member_location[DW_OP_plus_uconst 0x0]
    8816                      .dwattr $C$DW$973, DW_AT_accessibility(DW_ACCESS_public)
    8817              $C$DW$974       .dwtag  DW_TAG_member
    8818                      .dwattr $C$DW$974, DW_AT_type(*$C$DW$T$202)
    8819                      .dwattr $C$DW$974, DW_AT_name("bit")
    8820                      .dwattr $C$DW$974, DW_AT_TI_symbol_name("_bit")
    8821                      .dwattr $C$DW$974, DW_AT_data_member_location[DW_OP_plus_uconst 0x0]
    8822                      .dwattr $C$DW$974, DW_AT_accessibility(DW_ACCESS_public)
    8823                      .dwendtag $C$DW$T$203
    8824              
    8825              
    8826              $C$DW$T$204     .dwtag  DW_TAG_structure_type
    8827                      .dwattr $C$DW$T$204, DW_AT_name("Z1_LINKPOINTER_BITS")
    8828                      .dwattr $C$DW$T$204, DW_AT_byte_size(0x02)
TMS320C2000 Assembler PC v6.4.2 Thu Dec 14 15:26:44 2017

Tools Copyright (c) 1996-2015 Texas Instruments Incorporated
F2837xS_SysCtrl.asm                                                  PAGE  165

    8829              $C$DW$975       .dwtag  DW_TAG_member
    8830                      .dwattr $C$DW$975, DW_AT_type(*$C$DW$T$27)
    8831                      .dwattr $C$DW$975, DW_AT_name("LINKPOINTER")
    8832                      .dwattr $C$DW$975, DW_AT_TI_symbol_name("_LINKPOINTER")
    8833                      .dwattr $C$DW$975, DW_AT_bit_offset(0x03), DW_AT_bit_size(0x1d)
    8834                      .dwattr $C$DW$975, DW_AT_data_member_location[DW_OP_plus_uconst 0x0]
    8835                      .dwattr $C$DW$975, DW_AT_accessibility(DW_ACCESS_public)
    8836              $C$DW$976       .dwtag  DW_TAG_member
    8837                      .dwattr $C$DW$976, DW_AT_type(*$C$DW$T$19)
    8838                      .dwattr $C$DW$976, DW_AT_name("rsvd1")
    8839                      .dwattr $C$DW$976, DW_AT_TI_symbol_name("_rsvd1")
    8840                      .dwattr $C$DW$976, DW_AT_bit_offset(0x00), DW_AT_bit_size(0x03)
    8841                      .dwattr $C$DW$976, DW_AT_data_member_location[DW_OP_plus_uconst 0x1]
    8842                      .dwattr $C$DW$976, DW_AT_accessibility(DW_ACCESS_public)
    8843                      .dwendtag $C$DW$T$204
    8844              
    8845              
    8846              $C$DW$T$205     .dwtag  DW_TAG_union_type
    8847                      .dwattr $C$DW$T$205, DW_AT_name("Z1_LINKPOINTER_REG")
    8848                      .dwattr $C$DW$T$205, DW_AT_byte_size(0x02)
    8849              $C$DW$977       .dwtag  DW_TAG_member
    8850                      .dwattr $C$DW$977, DW_AT_type(*$C$DW$T$27)
    8851                      .dwattr $C$DW$977, DW_AT_name("all")
    8852                      .dwattr $C$DW$977, DW_AT_TI_symbol_name("_all")
    8853                      .dwattr $C$DW$977, DW_AT_data_member_location[DW_OP_plus_uconst 0x0]
    8854                      .dwattr $C$DW$977, DW_AT_accessibility(DW_ACCESS_public)
    8855              $C$DW$978       .dwtag  DW_TAG_member
    8856                      .dwattr $C$DW$978, DW_AT_type(*$C$DW$T$204)
    8857                      .dwattr $C$DW$978, DW_AT_name("bit")
    8858                      .dwattr $C$DW$978, DW_AT_TI_symbol_name("_bit")
    8859                      .dwattr $C$DW$978, DW_AT_data_member_location[DW_OP_plus_uconst 0x0]
    8860                      .dwattr $C$DW$978, DW_AT_accessibility(DW_ACCESS_public)
    8861                      .dwendtag $C$DW$T$205
    8862              
    8863              
    8864              $C$DW$T$206     .dwtag  DW_TAG_structure_type
    8865                      .dwattr $C$DW$T$206, DW_AT_name("Z1_OTPSECLOCK_BITS")
    8866                      .dwattr $C$DW$T$206, DW_AT_byte_size(0x02)
    8867              $C$DW$979       .dwtag  DW_TAG_member
    8868                      .dwattr $C$DW$979, DW_AT_type(*$C$DW$T$19)
    8869                      .dwattr $C$DW$979, DW_AT_name("rsvd1")
    8870                      .dwattr $C$DW$979, DW_AT_TI_symbol_name("_rsvd1")
    8871                      .dwattr $C$DW$979, DW_AT_bit_offset(0x0c), DW_AT_bit_size(0x04)
    8872                      .dwattr $C$DW$979, DW_AT_data_member_location[DW_OP_plus_uconst 0x0]
    8873                      .dwattr $C$DW$979, DW_AT_accessibility(DW_ACCESS_public)
    8874              $C$DW$980       .dwtag  DW_TAG_member
    8875                      .dwattr $C$DW$980, DW_AT_type(*$C$DW$T$19)
    8876                      .dwattr $C$DW$980, DW_AT_name("PSWDLOCK")
    8877                      .dwattr $C$DW$980, DW_AT_TI_symbol_name("_PSWDLOCK")
    8878                      .dwattr $C$DW$980, DW_AT_bit_offset(0x08), DW_AT_bit_size(0x04)
    8879                      .dwattr $C$DW$980, DW_AT_data_member_location[DW_OP_plus_uconst 0x0]
    8880                      .dwattr $C$DW$980, DW_AT_accessibility(DW_ACCESS_public)
    8881              $C$DW$981       .dwtag  DW_TAG_member
    8882                      .dwattr $C$DW$981, DW_AT_type(*$C$DW$T$19)
    8883                      .dwattr $C$DW$981, DW_AT_name("CRCLOCK")
TMS320C2000 Assembler PC v6.4.2 Thu Dec 14 15:26:44 2017

Tools Copyright (c) 1996-2015 Texas Instruments Incorporated
F2837xS_SysCtrl.asm                                                  PAGE  166

    8884                      .dwattr $C$DW$981, DW_AT_TI_symbol_name("_CRCLOCK")
    8885                      .dwattr $C$DW$981, DW_AT_bit_offset(0x04), DW_AT_bit_size(0x04)
    8886                      .dwattr $C$DW$981, DW_AT_data_member_location[DW_OP_plus_uconst 0x0]
    8887                      .dwattr $C$DW$981, DW_AT_accessibility(DW_ACCESS_public)
    8888              $C$DW$982       .dwtag  DW_TAG_member
    8889                      .dwattr $C$DW$982, DW_AT_type(*$C$DW$T$19)
    8890                      .dwattr $C$DW$982, DW_AT_name("rsvd2")
    8891                      .dwattr $C$DW$982, DW_AT_TI_symbol_name("_rsvd2")
    8892                      .dwattr $C$DW$982, DW_AT_bit_offset(0x00), DW_AT_bit_size(0x04)
    8893                      .dwattr $C$DW$982, DW_AT_data_member_location[DW_OP_plus_uconst 0x0]
    8894                      .dwattr $C$DW$982, DW_AT_accessibility(DW_ACCESS_public)
    8895              $C$DW$983       .dwtag  DW_TAG_member
    8896                      .dwattr $C$DW$983, DW_AT_type(*$C$DW$T$19)
    8897                      .dwattr $C$DW$983, DW_AT_name("rsvd3")
    8898                      .dwattr $C$DW$983, DW_AT_TI_symbol_name("_rsvd3")
    8899                      .dwattr $C$DW$983, DW_AT_bit_offset(0x00), DW_AT_bit_size(0x10)
    8900                      .dwattr $C$DW$983, DW_AT_data_member_location[DW_OP_plus_uconst 0x1]
    8901                      .dwattr $C$DW$983, DW_AT_accessibility(DW_ACCESS_public)
    8902                      .dwendtag $C$DW$T$206
    8903              
    8904              
    8905              $C$DW$T$207     .dwtag  DW_TAG_union_type
    8906                      .dwattr $C$DW$T$207, DW_AT_name("Z1_OTPSECLOCK_REG")
    8907                      .dwattr $C$DW$T$207, DW_AT_byte_size(0x02)
    8908              $C$DW$984       .dwtag  DW_TAG_member
    8909                      .dwattr $C$DW$984, DW_AT_type(*$C$DW$T$27)
    8910                      .dwattr $C$DW$984, DW_AT_name("all")
    8911                      .dwattr $C$DW$984, DW_AT_TI_symbol_name("_all")
    8912                      .dwattr $C$DW$984, DW_AT_data_member_location[DW_OP_plus_uconst 0x0]
    8913                      .dwattr $C$DW$984, DW_AT_accessibility(DW_ACCESS_public)
    8914              $C$DW$985       .dwtag  DW_TAG_member
    8915                      .dwattr $C$DW$985, DW_AT_type(*$C$DW$T$206)
    8916                      .dwattr $C$DW$985, DW_AT_name("bit")
    8917                      .dwattr $C$DW$985, DW_AT_TI_symbol_name("_bit")
    8918                      .dwattr $C$DW$985, DW_AT_data_member_location[DW_OP_plus_uconst 0x0]
    8919                      .dwattr $C$DW$985, DW_AT_accessibility(DW_ACCESS_public)
    8920                      .dwendtag $C$DW$T$207
    8921              
    8922              
    8923              $C$DW$T$208     .dwtag  DW_TAG_structure_type
    8924                      .dwattr $C$DW$T$208, DW_AT_name("Z2_BOOTCTRL_BITS")
    8925                      .dwattr $C$DW$T$208, DW_AT_byte_size(0x02)
    8926              $C$DW$986       .dwtag  DW_TAG_member
    8927                      .dwattr $C$DW$986, DW_AT_type(*$C$DW$T$19)
    8928                      .dwattr $C$DW$986, DW_AT_name("KEY")
    8929                      .dwattr $C$DW$986, DW_AT_TI_symbol_name("_KEY")
    8930                      .dwattr $C$DW$986, DW_AT_bit_offset(0x08), DW_AT_bit_size(0x08)
    8931                      .dwattr $C$DW$986, DW_AT_data_member_location[DW_OP_plus_uconst 0x0]
    8932                      .dwattr $C$DW$986, DW_AT_accessibility(DW_ACCESS_public)
    8933              $C$DW$987       .dwtag  DW_TAG_member
    8934                      .dwattr $C$DW$987, DW_AT_type(*$C$DW$T$19)
    8935                      .dwattr $C$DW$987, DW_AT_name("BMODE")
    8936                      .dwattr $C$DW$987, DW_AT_TI_symbol_name("_BMODE")
    8937                      .dwattr $C$DW$987, DW_AT_bit_offset(0x00), DW_AT_bit_size(0x08)
    8938                      .dwattr $C$DW$987, DW_AT_data_member_location[DW_OP_plus_uconst 0x0]
TMS320C2000 Assembler PC v6.4.2 Thu Dec 14 15:26:44 2017

Tools Copyright (c) 1996-2015 Texas Instruments Incorporated
F2837xS_SysCtrl.asm                                                  PAGE  167

    8939                      .dwattr $C$DW$987, DW_AT_accessibility(DW_ACCESS_public)
    8940              $C$DW$988       .dwtag  DW_TAG_member
    8941                      .dwattr $C$DW$988, DW_AT_type(*$C$DW$T$19)
    8942                      .dwattr $C$DW$988, DW_AT_name("BOOTPIN0")
    8943                      .dwattr $C$DW$988, DW_AT_TI_symbol_name("_BOOTPIN0")
    8944                      .dwattr $C$DW$988, DW_AT_bit_offset(0x08), DW_AT_bit_size(0x08)
    8945                      .dwattr $C$DW$988, DW_AT_data_member_location[DW_OP_plus_uconst 0x1]
    8946                      .dwattr $C$DW$988, DW_AT_accessibility(DW_ACCESS_public)
    8947              $C$DW$989       .dwtag  DW_TAG_member
    8948                      .dwattr $C$DW$989, DW_AT_type(*$C$DW$T$19)
    8949                      .dwattr $C$DW$989, DW_AT_name("BOOTPIN1")
    8950                      .dwattr $C$DW$989, DW_AT_TI_symbol_name("_BOOTPIN1")
    8951                      .dwattr $C$DW$989, DW_AT_bit_offset(0x00), DW_AT_bit_size(0x08)
    8952                      .dwattr $C$DW$989, DW_AT_data_member_location[DW_OP_plus_uconst 0x1]
    8953                      .dwattr $C$DW$989, DW_AT_accessibility(DW_ACCESS_public)
    8954                      .dwendtag $C$DW$T$208
    8955              
    8956              
    8957              $C$DW$T$209     .dwtag  DW_TAG_union_type
    8958                      .dwattr $C$DW$T$209, DW_AT_name("Z2_BOOTCTRL_REG")
    8959                      .dwattr $C$DW$T$209, DW_AT_byte_size(0x02)
    8960              $C$DW$990       .dwtag  DW_TAG_member
    8961                      .dwattr $C$DW$990, DW_AT_type(*$C$DW$T$27)
    8962                      .dwattr $C$DW$990, DW_AT_name("all")
    8963                      .dwattr $C$DW$990, DW_AT_TI_symbol_name("_all")
    8964                      .dwattr $C$DW$990, DW_AT_data_member_location[DW_OP_plus_uconst 0x0]
    8965                      .dwattr $C$DW$990, DW_AT_accessibility(DW_ACCESS_public)
    8966              $C$DW$991       .dwtag  DW_TAG_member
    8967                      .dwattr $C$DW$991, DW_AT_type(*$C$DW$T$208)
    8968                      .dwattr $C$DW$991, DW_AT_name("bit")
    8969                      .dwattr $C$DW$991, DW_AT_TI_symbol_name("_bit")
    8970                      .dwattr $C$DW$991, DW_AT_data_member_location[DW_OP_plus_uconst 0x0]
    8971                      .dwattr $C$DW$991, DW_AT_accessibility(DW_ACCESS_public)
    8972                      .dwendtag $C$DW$T$209
    8973              
    8974              
    8975              $C$DW$T$210     .dwtag  DW_TAG_structure_type
    8976                      .dwattr $C$DW$T$210, DW_AT_name("Z2_CR_BITS")
    8977                      .dwattr $C$DW$T$210, DW_AT_byte_size(0x01)
    8978              $C$DW$992       .dwtag  DW_TAG_member
    8979                      .dwattr $C$DW$992, DW_AT_type(*$C$DW$T$19)
    8980                      .dwattr $C$DW$992, DW_AT_name("rsvd1")
    8981                      .dwattr $C$DW$992, DW_AT_TI_symbol_name("_rsvd1")
    8982                      .dwattr $C$DW$992, DW_AT_bit_offset(0x0d), DW_AT_bit_size(0x03)
    8983                      .dwattr $C$DW$992, DW_AT_data_member_location[DW_OP_plus_uconst 0x0]
    8984                      .dwattr $C$DW$992, DW_AT_accessibility(DW_ACCESS_public)
    8985              $C$DW$993       .dwtag  DW_TAG_member
    8986                      .dwattr $C$DW$993, DW_AT_type(*$C$DW$T$19)
    8987                      .dwattr $C$DW$993, DW_AT_name("ALLZERO")
    8988                      .dwattr $C$DW$993, DW_AT_TI_symbol_name("_ALLZERO")
    8989                      .dwattr $C$DW$993, DW_AT_bit_offset(0x0c), DW_AT_bit_size(0x01)
    8990                      .dwattr $C$DW$993, DW_AT_data_member_location[DW_OP_plus_uconst 0x0]
    8991                      .dwattr $C$DW$993, DW_AT_accessibility(DW_ACCESS_public)
    8992              $C$DW$994       .dwtag  DW_TAG_member
    8993                      .dwattr $C$DW$994, DW_AT_type(*$C$DW$T$19)
TMS320C2000 Assembler PC v6.4.2 Thu Dec 14 15:26:44 2017

Tools Copyright (c) 1996-2015 Texas Instruments Incorporated
F2837xS_SysCtrl.asm                                                  PAGE  168

    8994                      .dwattr $C$DW$994, DW_AT_name("ALLONE")
    8995                      .dwattr $C$DW$994, DW_AT_TI_symbol_name("_ALLONE")
    8996                      .dwattr $C$DW$994, DW_AT_bit_offset(0x0b), DW_AT_bit_size(0x01)
    8997                      .dwattr $C$DW$994, DW_AT_data_member_location[DW_OP_plus_uconst 0x0]
    8998                      .dwattr $C$DW$994, DW_AT_accessibility(DW_ACCESS_public)
    8999              $C$DW$995       .dwtag  DW_TAG_member
    9000                      .dwattr $C$DW$995, DW_AT_type(*$C$DW$T$19)
    9001                      .dwattr $C$DW$995, DW_AT_name("UNSECURE")
    9002                      .dwattr $C$DW$995, DW_AT_TI_symbol_name("_UNSECURE")
    9003                      .dwattr $C$DW$995, DW_AT_bit_offset(0x0a), DW_AT_bit_size(0x01)
    9004                      .dwattr $C$DW$995, DW_AT_data_member_location[DW_OP_plus_uconst 0x0]
    9005                      .dwattr $C$DW$995, DW_AT_accessibility(DW_ACCESS_public)
    9006              $C$DW$996       .dwtag  DW_TAG_member
    9007                      .dwattr $C$DW$996, DW_AT_type(*$C$DW$T$19)
    9008                      .dwattr $C$DW$996, DW_AT_name("ARMED")
    9009                      .dwattr $C$DW$996, DW_AT_TI_symbol_name("_ARMED")
    9010                      .dwattr $C$DW$996, DW_AT_bit_offset(0x09), DW_AT_bit_size(0x01)
    9011                      .dwattr $C$DW$996, DW_AT_data_member_location[DW_OP_plus_uconst 0x0]
    9012                      .dwattr $C$DW$996, DW_AT_accessibility(DW_ACCESS_public)
    9013              $C$DW$997       .dwtag  DW_TAG_member
    9014                      .dwattr $C$DW$997, DW_AT_type(*$C$DW$T$19)
    9015                      .dwattr $C$DW$997, DW_AT_name("rsvd2")
    9016                      .dwattr $C$DW$997, DW_AT_TI_symbol_name("_rsvd2")
    9017                      .dwattr $C$DW$997, DW_AT_bit_offset(0x08), DW_AT_bit_size(0x01)
    9018                      .dwattr $C$DW$997, DW_AT_data_member_location[DW_OP_plus_uconst 0x0]
    9019                      .dwattr $C$DW$997, DW_AT_accessibility(DW_ACCESS_public)
    9020              $C$DW$998       .dwtag  DW_TAG_member
    9021                      .dwattr $C$DW$998, DW_AT_type(*$C$DW$T$19)
    9022                      .dwattr $C$DW$998, DW_AT_name("rsvd3")
    9023                      .dwattr $C$DW$998, DW_AT_TI_symbol_name("_rsvd3")
    9024                      .dwattr $C$DW$998, DW_AT_bit_offset(0x01), DW_AT_bit_size(0x07)
    9025                      .dwattr $C$DW$998, DW_AT_data_member_location[DW_OP_plus_uconst 0x0]
    9026                      .dwattr $C$DW$998, DW_AT_accessibility(DW_ACCESS_public)
    9027              $C$DW$999       .dwtag  DW_TAG_member
    9028                      .dwattr $C$DW$999, DW_AT_type(*$C$DW$T$19)
    9029                      .dwattr $C$DW$999, DW_AT_name("FORCESEC")
    9030                      .dwattr $C$DW$999, DW_AT_TI_symbol_name("_FORCESEC")
    9031                      .dwattr $C$DW$999, DW_AT_bit_offset(0x00), DW_AT_bit_size(0x01)
    9032                      .dwattr $C$DW$999, DW_AT_data_member_location[DW_OP_plus_uconst 0x0]
    9033                      .dwattr $C$DW$999, DW_AT_accessibility(DW_ACCESS_public)
    9034                      .dwendtag $C$DW$T$210
    9035              
    9036              
    9037              $C$DW$T$211     .dwtag  DW_TAG_union_type
    9038                      .dwattr $C$DW$T$211, DW_AT_name("Z2_CR_REG")
    9039                      .dwattr $C$DW$T$211, DW_AT_byte_size(0x01)
    9040              $C$DW$1000      .dwtag  DW_TAG_member
    9041                      .dwattr $C$DW$1000, DW_AT_type(*$C$DW$T$19)
    9042                      .dwattr $C$DW$1000, DW_AT_name("all")
    9043                      .dwattr $C$DW$1000, DW_AT_TI_symbol_name("_all")
    9044                      .dwattr $C$DW$1000, DW_AT_data_member_location[DW_OP_plus_uconst 0x0]
    9045                      .dwattr $C$DW$1000, DW_AT_accessibility(DW_ACCESS_public)
    9046              $C$DW$1001      .dwtag  DW_TAG_member
    9047                      .dwattr $C$DW$1001, DW_AT_type(*$C$DW$T$210)
    9048                      .dwattr $C$DW$1001, DW_AT_name("bit")
TMS320C2000 Assembler PC v6.4.2 Thu Dec 14 15:26:44 2017

Tools Copyright (c) 1996-2015 Texas Instruments Incorporated
F2837xS_SysCtrl.asm                                                  PAGE  169

    9049                      .dwattr $C$DW$1001, DW_AT_TI_symbol_name("_bit")
    9050                      .dwattr $C$DW$1001, DW_AT_data_member_location[DW_OP_plus_uconst 0x0]
    9051                      .dwattr $C$DW$1001, DW_AT_accessibility(DW_ACCESS_public)
    9052                      .dwendtag $C$DW$T$211
    9053              
    9054              
    9055              $C$DW$T$212     .dwtag  DW_TAG_structure_type
    9056                      .dwattr $C$DW$T$212, DW_AT_name("Z2_EXEONLYRAMR_BITS")
    9057                      .dwattr $C$DW$T$212, DW_AT_byte_size(0x02)
    9058              $C$DW$1002      .dwtag  DW_TAG_member
    9059                      .dwattr $C$DW$1002, DW_AT_type(*$C$DW$T$19)
    9060                      .dwattr $C$DW$1002, DW_AT_name("EXEONLY_RAM0")
    9061                      .dwattr $C$DW$1002, DW_AT_TI_symbol_name("_EXEONLY_RAM0")
    9062                      .dwattr $C$DW$1002, DW_AT_bit_offset(0x0f), DW_AT_bit_size(0x01)
    9063                      .dwattr $C$DW$1002, DW_AT_data_member_location[DW_OP_plus_uconst 0x0]
    9064                      .dwattr $C$DW$1002, DW_AT_accessibility(DW_ACCESS_public)
    9065              $C$DW$1003      .dwtag  DW_TAG_member
    9066                      .dwattr $C$DW$1003, DW_AT_type(*$C$DW$T$19)
    9067                      .dwattr $C$DW$1003, DW_AT_name("EXEONLY_RAM1")
    9068                      .dwattr $C$DW$1003, DW_AT_TI_symbol_name("_EXEONLY_RAM1")
    9069                      .dwattr $C$DW$1003, DW_AT_bit_offset(0x0e), DW_AT_bit_size(0x01)
    9070                      .dwattr $C$DW$1003, DW_AT_data_member_location[DW_OP_plus_uconst 0x0]
    9071                      .dwattr $C$DW$1003, DW_AT_accessibility(DW_ACCESS_public)
    9072              $C$DW$1004      .dwtag  DW_TAG_member
    9073                      .dwattr $C$DW$1004, DW_AT_type(*$C$DW$T$19)
    9074                      .dwattr $C$DW$1004, DW_AT_name("EXEONLY_RAM2")
    9075                      .dwattr $C$DW$1004, DW_AT_TI_symbol_name("_EXEONLY_RAM2")
    9076                      .dwattr $C$DW$1004, DW_AT_bit_offset(0x0d), DW_AT_bit_size(0x01)
    9077                      .dwattr $C$DW$1004, DW_AT_data_member_location[DW_OP_plus_uconst 0x0]
    9078                      .dwattr $C$DW$1004, DW_AT_accessibility(DW_ACCESS_public)
    9079              $C$DW$1005      .dwtag  DW_TAG_member
    9080                      .dwattr $C$DW$1005, DW_AT_type(*$C$DW$T$19)
    9081                      .dwattr $C$DW$1005, DW_AT_name("EXEONLY_RAM3")
    9082                      .dwattr $C$DW$1005, DW_AT_TI_symbol_name("_EXEONLY_RAM3")
    9083                      .dwattr $C$DW$1005, DW_AT_bit_offset(0x0c), DW_AT_bit_size(0x01)
    9084                      .dwattr $C$DW$1005, DW_AT_data_member_location[DW_OP_plus_uconst 0x0]
    9085                      .dwattr $C$DW$1005, DW_AT_accessibility(DW_ACCESS_public)
    9086              $C$DW$1006      .dwtag  DW_TAG_member
    9087                      .dwattr $C$DW$1006, DW_AT_type(*$C$DW$T$19)
    9088                      .dwattr $C$DW$1006, DW_AT_name("EXEONLY_RAM4")
    9089                      .dwattr $C$DW$1006, DW_AT_TI_symbol_name("_EXEONLY_RAM4")
    9090                      .dwattr $C$DW$1006, DW_AT_bit_offset(0x0b), DW_AT_bit_size(0x01)
    9091                      .dwattr $C$DW$1006, DW_AT_data_member_location[DW_OP_plus_uconst 0x0]
    9092                      .dwattr $C$DW$1006, DW_AT_accessibility(DW_ACCESS_public)
    9093              $C$DW$1007      .dwtag  DW_TAG_member
    9094                      .dwattr $C$DW$1007, DW_AT_type(*$C$DW$T$19)
    9095                      .dwattr $C$DW$1007, DW_AT_name("EXEONLY_RAM5")
    9096                      .dwattr $C$DW$1007, DW_AT_TI_symbol_name("_EXEONLY_RAM5")
    9097                      .dwattr $C$DW$1007, DW_AT_bit_offset(0x0a), DW_AT_bit_size(0x01)
    9098                      .dwattr $C$DW$1007, DW_AT_data_member_location[DW_OP_plus_uconst 0x0]
    9099                      .dwattr $C$DW$1007, DW_AT_accessibility(DW_ACCESS_public)
    9100              $C$DW$1008      .dwtag  DW_TAG_member
    9101                      .dwattr $C$DW$1008, DW_AT_type(*$C$DW$T$19)
    9102                      .dwattr $C$DW$1008, DW_AT_name("EXEONLY_RAM6")
    9103                      .dwattr $C$DW$1008, DW_AT_TI_symbol_name("_EXEONLY_RAM6")
TMS320C2000 Assembler PC v6.4.2 Thu Dec 14 15:26:44 2017

Tools Copyright (c) 1996-2015 Texas Instruments Incorporated
F2837xS_SysCtrl.asm                                                  PAGE  170

    9104                      .dwattr $C$DW$1008, DW_AT_bit_offset(0x09), DW_AT_bit_size(0x01)
    9105                      .dwattr $C$DW$1008, DW_AT_data_member_location[DW_OP_plus_uconst 0x0]
    9106                      .dwattr $C$DW$1008, DW_AT_accessibility(DW_ACCESS_public)
    9107              $C$DW$1009      .dwtag  DW_TAG_member
    9108                      .dwattr $C$DW$1009, DW_AT_type(*$C$DW$T$19)
    9109                      .dwattr $C$DW$1009, DW_AT_name("EXEONLY_RAM7")
    9110                      .dwattr $C$DW$1009, DW_AT_TI_symbol_name("_EXEONLY_RAM7")
    9111                      .dwattr $C$DW$1009, DW_AT_bit_offset(0x08), DW_AT_bit_size(0x01)
    9112                      .dwattr $C$DW$1009, DW_AT_data_member_location[DW_OP_plus_uconst 0x0]
    9113                      .dwattr $C$DW$1009, DW_AT_accessibility(DW_ACCESS_public)
    9114              $C$DW$1010      .dwtag  DW_TAG_member
    9115                      .dwattr $C$DW$1010, DW_AT_type(*$C$DW$T$19)
    9116                      .dwattr $C$DW$1010, DW_AT_name("rsvd1")
    9117                      .dwattr $C$DW$1010, DW_AT_TI_symbol_name("_rsvd1")
    9118                      .dwattr $C$DW$1010, DW_AT_bit_offset(0x00), DW_AT_bit_size(0x08)
    9119                      .dwattr $C$DW$1010, DW_AT_data_member_location[DW_OP_plus_uconst 0x0]
    9120                      .dwattr $C$DW$1010, DW_AT_accessibility(DW_ACCESS_public)
    9121              $C$DW$1011      .dwtag  DW_TAG_member
    9122                      .dwattr $C$DW$1011, DW_AT_type(*$C$DW$T$19)
    9123                      .dwattr $C$DW$1011, DW_AT_name("rsvd2")
    9124                      .dwattr $C$DW$1011, DW_AT_TI_symbol_name("_rsvd2")
    9125                      .dwattr $C$DW$1011, DW_AT_bit_offset(0x00), DW_AT_bit_size(0x10)
    9126                      .dwattr $C$DW$1011, DW_AT_data_member_location[DW_OP_plus_uconst 0x1]
    9127                      .dwattr $C$DW$1011, DW_AT_accessibility(DW_ACCESS_public)
    9128                      .dwendtag $C$DW$T$212
    9129              
    9130              
    9131              $C$DW$T$213     .dwtag  DW_TAG_union_type
    9132                      .dwattr $C$DW$T$213, DW_AT_name("Z2_EXEONLYRAMR_REG")
    9133                      .dwattr $C$DW$T$213, DW_AT_byte_size(0x02)
    9134              $C$DW$1012      .dwtag  DW_TAG_member
    9135                      .dwattr $C$DW$1012, DW_AT_type(*$C$DW$T$27)
    9136                      .dwattr $C$DW$1012, DW_AT_name("all")
    9137                      .dwattr $C$DW$1012, DW_AT_TI_symbol_name("_all")
    9138                      .dwattr $C$DW$1012, DW_AT_data_member_location[DW_OP_plus_uconst 0x0]
    9139                      .dwattr $C$DW$1012, DW_AT_accessibility(DW_ACCESS_public)
    9140              $C$DW$1013      .dwtag  DW_TAG_member
    9141                      .dwattr $C$DW$1013, DW_AT_type(*$C$DW$T$212)
    9142                      .dwattr $C$DW$1013, DW_AT_name("bit")
    9143                      .dwattr $C$DW$1013, DW_AT_TI_symbol_name("_bit")
    9144                      .dwattr $C$DW$1013, DW_AT_data_member_location[DW_OP_plus_uconst 0x0]
    9145                      .dwattr $C$DW$1013, DW_AT_accessibility(DW_ACCESS_public)
    9146                      .dwendtag $C$DW$T$213
    9147              
    9148              
    9149              $C$DW$T$214     .dwtag  DW_TAG_structure_type
    9150                      .dwattr $C$DW$T$214, DW_AT_name("Z2_EXEONLYSECTR_BITS")
    9151                      .dwattr $C$DW$T$214, DW_AT_byte_size(0x02)
    9152              $C$DW$1014      .dwtag  DW_TAG_member
    9153                      .dwattr $C$DW$1014, DW_AT_type(*$C$DW$T$19)
    9154                      .dwattr $C$DW$1014, DW_AT_name("EXEONLY_SECTA")
    9155                      .dwattr $C$DW$1014, DW_AT_TI_symbol_name("_EXEONLY_SECTA")
    9156                      .dwattr $C$DW$1014, DW_AT_bit_offset(0x0f), DW_AT_bit_size(0x01)
    9157                      .dwattr $C$DW$1014, DW_AT_data_member_location[DW_OP_plus_uconst 0x0]
    9158                      .dwattr $C$DW$1014, DW_AT_accessibility(DW_ACCESS_public)
TMS320C2000 Assembler PC v6.4.2 Thu Dec 14 15:26:44 2017

Tools Copyright (c) 1996-2015 Texas Instruments Incorporated
F2837xS_SysCtrl.asm                                                  PAGE  171

    9159              $C$DW$1015      .dwtag  DW_TAG_member
    9160                      .dwattr $C$DW$1015, DW_AT_type(*$C$DW$T$19)
    9161                      .dwattr $C$DW$1015, DW_AT_name("EXEONLY_SECTB")
    9162                      .dwattr $C$DW$1015, DW_AT_TI_symbol_name("_EXEONLY_SECTB")
    9163                      .dwattr $C$DW$1015, DW_AT_bit_offset(0x0e), DW_AT_bit_size(0x01)
    9164                      .dwattr $C$DW$1015, DW_AT_data_member_location[DW_OP_plus_uconst 0x0]
    9165                      .dwattr $C$DW$1015, DW_AT_accessibility(DW_ACCESS_public)
    9166              $C$DW$1016      .dwtag  DW_TAG_member
    9167                      .dwattr $C$DW$1016, DW_AT_type(*$C$DW$T$19)
    9168                      .dwattr $C$DW$1016, DW_AT_name("EXEONLY_SECTC")
    9169                      .dwattr $C$DW$1016, DW_AT_TI_symbol_name("_EXEONLY_SECTC")
    9170                      .dwattr $C$DW$1016, DW_AT_bit_offset(0x0d), DW_AT_bit_size(0x01)
    9171                      .dwattr $C$DW$1016, DW_AT_data_member_location[DW_OP_plus_uconst 0x0]
    9172                      .dwattr $C$DW$1016, DW_AT_accessibility(DW_ACCESS_public)
    9173              $C$DW$1017      .dwtag  DW_TAG_member
    9174                      .dwattr $C$DW$1017, DW_AT_type(*$C$DW$T$19)
    9175                      .dwattr $C$DW$1017, DW_AT_name("EXEONLY_SECTD")
    9176                      .dwattr $C$DW$1017, DW_AT_TI_symbol_name("_EXEONLY_SECTD")
    9177                      .dwattr $C$DW$1017, DW_AT_bit_offset(0x0c), DW_AT_bit_size(0x01)
    9178                      .dwattr $C$DW$1017, DW_AT_data_member_location[DW_OP_plus_uconst 0x0]
    9179                      .dwattr $C$DW$1017, DW_AT_accessibility(DW_ACCESS_public)
    9180              $C$DW$1018      .dwtag  DW_TAG_member
    9181                      .dwattr $C$DW$1018, DW_AT_type(*$C$DW$T$19)
    9182                      .dwattr $C$DW$1018, DW_AT_name("EXEONLY_SECTE")
    9183                      .dwattr $C$DW$1018, DW_AT_TI_symbol_name("_EXEONLY_SECTE")
    9184                      .dwattr $C$DW$1018, DW_AT_bit_offset(0x0b), DW_AT_bit_size(0x01)
    9185                      .dwattr $C$DW$1018, DW_AT_data_member_location[DW_OP_plus_uconst 0x0]
    9186                      .dwattr $C$DW$1018, DW_AT_accessibility(DW_ACCESS_public)
    9187              $C$DW$1019      .dwtag  DW_TAG_member
    9188                      .dwattr $C$DW$1019, DW_AT_type(*$C$DW$T$19)
    9189                      .dwattr $C$DW$1019, DW_AT_name("EXEONLY_SECTF")
    9190                      .dwattr $C$DW$1019, DW_AT_TI_symbol_name("_EXEONLY_SECTF")
    9191                      .dwattr $C$DW$1019, DW_AT_bit_offset(0x0a), DW_AT_bit_size(0x01)
    9192                      .dwattr $C$DW$1019, DW_AT_data_member_location[DW_OP_plus_uconst 0x0]
    9193                      .dwattr $C$DW$1019, DW_AT_accessibility(DW_ACCESS_public)
    9194              $C$DW$1020      .dwtag  DW_TAG_member
    9195                      .dwattr $C$DW$1020, DW_AT_type(*$C$DW$T$19)
    9196                      .dwattr $C$DW$1020, DW_AT_name("EXEONLY_SECTG")
    9197                      .dwattr $C$DW$1020, DW_AT_TI_symbol_name("_EXEONLY_SECTG")
    9198                      .dwattr $C$DW$1020, DW_AT_bit_offset(0x09), DW_AT_bit_size(0x01)
    9199                      .dwattr $C$DW$1020, DW_AT_data_member_location[DW_OP_plus_uconst 0x0]
    9200                      .dwattr $C$DW$1020, DW_AT_accessibility(DW_ACCESS_public)
    9201              $C$DW$1021      .dwtag  DW_TAG_member
    9202                      .dwattr $C$DW$1021, DW_AT_type(*$C$DW$T$19)
    9203                      .dwattr $C$DW$1021, DW_AT_name("EXEONLY_SECTH")
    9204                      .dwattr $C$DW$1021, DW_AT_TI_symbol_name("_EXEONLY_SECTH")
    9205                      .dwattr $C$DW$1021, DW_AT_bit_offset(0x08), DW_AT_bit_size(0x01)
    9206                      .dwattr $C$DW$1021, DW_AT_data_member_location[DW_OP_plus_uconst 0x0]
    9207                      .dwattr $C$DW$1021, DW_AT_accessibility(DW_ACCESS_public)
    9208              $C$DW$1022      .dwtag  DW_TAG_member
    9209                      .dwattr $C$DW$1022, DW_AT_type(*$C$DW$T$19)
    9210                      .dwattr $C$DW$1022, DW_AT_name("EXEONLY_SECTI")
    9211                      .dwattr $C$DW$1022, DW_AT_TI_symbol_name("_EXEONLY_SECTI")
    9212                      .dwattr $C$DW$1022, DW_AT_bit_offset(0x07), DW_AT_bit_size(0x01)
    9213                      .dwattr $C$DW$1022, DW_AT_data_member_location[DW_OP_plus_uconst 0x0]
TMS320C2000 Assembler PC v6.4.2 Thu Dec 14 15:26:44 2017

Tools Copyright (c) 1996-2015 Texas Instruments Incorporated
F2837xS_SysCtrl.asm                                                  PAGE  172

    9214                      .dwattr $C$DW$1022, DW_AT_accessibility(DW_ACCESS_public)
    9215              $C$DW$1023      .dwtag  DW_TAG_member
    9216                      .dwattr $C$DW$1023, DW_AT_type(*$C$DW$T$19)
    9217                      .dwattr $C$DW$1023, DW_AT_name("EXEONLY_SECTJ")
    9218                      .dwattr $C$DW$1023, DW_AT_TI_symbol_name("_EXEONLY_SECTJ")
    9219                      .dwattr $C$DW$1023, DW_AT_bit_offset(0x06), DW_AT_bit_size(0x01)
    9220                      .dwattr $C$DW$1023, DW_AT_data_member_location[DW_OP_plus_uconst 0x0]
    9221                      .dwattr $C$DW$1023, DW_AT_accessibility(DW_ACCESS_public)
    9222              $C$DW$1024      .dwtag  DW_TAG_member
    9223                      .dwattr $C$DW$1024, DW_AT_type(*$C$DW$T$19)
    9224                      .dwattr $C$DW$1024, DW_AT_name("EXEONLY_SECTK")
    9225                      .dwattr $C$DW$1024, DW_AT_TI_symbol_name("_EXEONLY_SECTK")
    9226                      .dwattr $C$DW$1024, DW_AT_bit_offset(0x05), DW_AT_bit_size(0x01)
    9227                      .dwattr $C$DW$1024, DW_AT_data_member_location[DW_OP_plus_uconst 0x0]
    9228                      .dwattr $C$DW$1024, DW_AT_accessibility(DW_ACCESS_public)
    9229              $C$DW$1025      .dwtag  DW_TAG_member
    9230                      .dwattr $C$DW$1025, DW_AT_type(*$C$DW$T$19)
    9231                      .dwattr $C$DW$1025, DW_AT_name("EXEONLY_SECTL")
    9232                      .dwattr $C$DW$1025, DW_AT_TI_symbol_name("_EXEONLY_SECTL")
    9233                      .dwattr $C$DW$1025, DW_AT_bit_offset(0x04), DW_AT_bit_size(0x01)
    9234                      .dwattr $C$DW$1025, DW_AT_data_member_location[DW_OP_plus_uconst 0x0]
    9235                      .dwattr $C$DW$1025, DW_AT_accessibility(DW_ACCESS_public)
    9236              $C$DW$1026      .dwtag  DW_TAG_member
    9237                      .dwattr $C$DW$1026, DW_AT_type(*$C$DW$T$19)
    9238                      .dwattr $C$DW$1026, DW_AT_name("EXEONLY_SECTM")
    9239                      .dwattr $C$DW$1026, DW_AT_TI_symbol_name("_EXEONLY_SECTM")
    9240                      .dwattr $C$DW$1026, DW_AT_bit_offset(0x03), DW_AT_bit_size(0x01)
    9241                      .dwattr $C$DW$1026, DW_AT_data_member_location[DW_OP_plus_uconst 0x0]
    9242                      .dwattr $C$DW$1026, DW_AT_accessibility(DW_ACCESS_public)
    9243              $C$DW$1027      .dwtag  DW_TAG_member
    9244                      .dwattr $C$DW$1027, DW_AT_type(*$C$DW$T$19)
    9245                      .dwattr $C$DW$1027, DW_AT_name("EXEONLY_SECTN")
    9246                      .dwattr $C$DW$1027, DW_AT_TI_symbol_name("_EXEONLY_SECTN")
    9247                      .dwattr $C$DW$1027, DW_AT_bit_offset(0x02), DW_AT_bit_size(0x01)
    9248                      .dwattr $C$DW$1027, DW_AT_data_member_location[DW_OP_plus_uconst 0x0]
    9249                      .dwattr $C$DW$1027, DW_AT_accessibility(DW_ACCESS_public)
    9250              $C$DW$1028      .dwtag  DW_TAG_member
    9251                      .dwattr $C$DW$1028, DW_AT_type(*$C$DW$T$19)
    9252                      .dwattr $C$DW$1028, DW_AT_name("EXEONLY_BANK1")
    9253                      .dwattr $C$DW$1028, DW_AT_TI_symbol_name("_EXEONLY_BANK1")
    9254                      .dwattr $C$DW$1028, DW_AT_bit_offset(0x01), DW_AT_bit_size(0x01)
    9255                      .dwattr $C$DW$1028, DW_AT_data_member_location[DW_OP_plus_uconst 0x0]
    9256                      .dwattr $C$DW$1028, DW_AT_accessibility(DW_ACCESS_public)
    9257              $C$DW$1029      .dwtag  DW_TAG_member
    9258                      .dwattr $C$DW$1029, DW_AT_type(*$C$DW$T$19)
    9259                      .dwattr $C$DW$1029, DW_AT_name("rsvd1")
    9260                      .dwattr $C$DW$1029, DW_AT_TI_symbol_name("_rsvd1")
    9261                      .dwattr $C$DW$1029, DW_AT_bit_offset(0x00), DW_AT_bit_size(0x01)
    9262                      .dwattr $C$DW$1029, DW_AT_data_member_location[DW_OP_plus_uconst 0x0]
    9263                      .dwattr $C$DW$1029, DW_AT_accessibility(DW_ACCESS_public)
    9264              $C$DW$1030      .dwtag  DW_TAG_member
    9265                      .dwattr $C$DW$1030, DW_AT_type(*$C$DW$T$19)
    9266                      .dwattr $C$DW$1030, DW_AT_name("rsvd2")
    9267                      .dwattr $C$DW$1030, DW_AT_TI_symbol_name("_rsvd2")
    9268                      .dwattr $C$DW$1030, DW_AT_bit_offset(0x00), DW_AT_bit_size(0x10)
TMS320C2000 Assembler PC v6.4.2 Thu Dec 14 15:26:44 2017

Tools Copyright (c) 1996-2015 Texas Instruments Incorporated
F2837xS_SysCtrl.asm                                                  PAGE  173

    9269                      .dwattr $C$DW$1030, DW_AT_data_member_location[DW_OP_plus_uconst 0x1]
    9270                      .dwattr $C$DW$1030, DW_AT_accessibility(DW_ACCESS_public)
    9271                      .dwendtag $C$DW$T$214
    9272              
    9273              
    9274              $C$DW$T$215     .dwtag  DW_TAG_union_type
    9275                      .dwattr $C$DW$T$215, DW_AT_name("Z2_EXEONLYSECTR_REG")
    9276                      .dwattr $C$DW$T$215, DW_AT_byte_size(0x02)
    9277              $C$DW$1031      .dwtag  DW_TAG_member
    9278                      .dwattr $C$DW$1031, DW_AT_type(*$C$DW$T$27)
    9279                      .dwattr $C$DW$1031, DW_AT_name("all")
    9280                      .dwattr $C$DW$1031, DW_AT_TI_symbol_name("_all")
    9281                      .dwattr $C$DW$1031, DW_AT_data_member_location[DW_OP_plus_uconst 0x0]
    9282                      .dwattr $C$DW$1031, DW_AT_accessibility(DW_ACCESS_public)
    9283              $C$DW$1032      .dwtag  DW_TAG_member
    9284                      .dwattr $C$DW$1032, DW_AT_type(*$C$DW$T$214)
    9285                      .dwattr $C$DW$1032, DW_AT_name("bit")
    9286                      .dwattr $C$DW$1032, DW_AT_TI_symbol_name("_bit")
    9287                      .dwattr $C$DW$1032, DW_AT_data_member_location[DW_OP_plus_uconst 0x0]
    9288                      .dwattr $C$DW$1032, DW_AT_accessibility(DW_ACCESS_public)
    9289                      .dwendtag $C$DW$T$215
    9290              
    9291              
    9292              $C$DW$T$216     .dwtag  DW_TAG_structure_type
    9293                      .dwattr $C$DW$T$216, DW_AT_name("Z2_GRABRAMR_BITS")
    9294                      .dwattr $C$DW$T$216, DW_AT_byte_size(0x02)
    9295              $C$DW$1033      .dwtag  DW_TAG_member
    9296                      .dwattr $C$DW$1033, DW_AT_type(*$C$DW$T$19)
    9297                      .dwattr $C$DW$1033, DW_AT_name("GRAB_RAM0")
    9298                      .dwattr $C$DW$1033, DW_AT_TI_symbol_name("_GRAB_RAM0")
    9299                      .dwattr $C$DW$1033, DW_AT_bit_offset(0x0e), DW_AT_bit_size(0x02)
    9300                      .dwattr $C$DW$1033, DW_AT_data_member_location[DW_OP_plus_uconst 0x0]
    9301                      .dwattr $C$DW$1033, DW_AT_accessibility(DW_ACCESS_public)
    9302              $C$DW$1034      .dwtag  DW_TAG_member
    9303                      .dwattr $C$DW$1034, DW_AT_type(*$C$DW$T$19)
    9304                      .dwattr $C$DW$1034, DW_AT_name("GRAB_RAM1")
    9305                      .dwattr $C$DW$1034, DW_AT_TI_symbol_name("_GRAB_RAM1")
    9306                      .dwattr $C$DW$1034, DW_AT_bit_offset(0x0c), DW_AT_bit_size(0x02)
    9307                      .dwattr $C$DW$1034, DW_AT_data_member_location[DW_OP_plus_uconst 0x0]
    9308                      .dwattr $C$DW$1034, DW_AT_accessibility(DW_ACCESS_public)
    9309              $C$DW$1035      .dwtag  DW_TAG_member
    9310                      .dwattr $C$DW$1035, DW_AT_type(*$C$DW$T$19)
    9311                      .dwattr $C$DW$1035, DW_AT_name("GRAB_RAM2")
    9312                      .dwattr $C$DW$1035, DW_AT_TI_symbol_name("_GRAB_RAM2")
    9313                      .dwattr $C$DW$1035, DW_AT_bit_offset(0x0a), DW_AT_bit_size(0x02)
    9314                      .dwattr $C$DW$1035, DW_AT_data_member_location[DW_OP_plus_uconst 0x0]
    9315                      .dwattr $C$DW$1035, DW_AT_accessibility(DW_ACCESS_public)
    9316              $C$DW$1036      .dwtag  DW_TAG_member
    9317                      .dwattr $C$DW$1036, DW_AT_type(*$C$DW$T$19)
    9318                      .dwattr $C$DW$1036, DW_AT_name("GRAB_RAM3")
    9319                      .dwattr $C$DW$1036, DW_AT_TI_symbol_name("_GRAB_RAM3")
    9320                      .dwattr $C$DW$1036, DW_AT_bit_offset(0x08), DW_AT_bit_size(0x02)
    9321                      .dwattr $C$DW$1036, DW_AT_data_member_location[DW_OP_plus_uconst 0x0]
    9322                      .dwattr $C$DW$1036, DW_AT_accessibility(DW_ACCESS_public)
    9323              $C$DW$1037      .dwtag  DW_TAG_member
TMS320C2000 Assembler PC v6.4.2 Thu Dec 14 15:26:44 2017

Tools Copyright (c) 1996-2015 Texas Instruments Incorporated
F2837xS_SysCtrl.asm                                                  PAGE  174

    9324                      .dwattr $C$DW$1037, DW_AT_type(*$C$DW$T$19)
    9325                      .dwattr $C$DW$1037, DW_AT_name("GRAB_RAM4")
    9326                      .dwattr $C$DW$1037, DW_AT_TI_symbol_name("_GRAB_RAM4")
    9327                      .dwattr $C$DW$1037, DW_AT_bit_offset(0x06), DW_AT_bit_size(0x02)
    9328                      .dwattr $C$DW$1037, DW_AT_data_member_location[DW_OP_plus_uconst 0x0]
    9329                      .dwattr $C$DW$1037, DW_AT_accessibility(DW_ACCESS_public)
    9330              $C$DW$1038      .dwtag  DW_TAG_member
    9331                      .dwattr $C$DW$1038, DW_AT_type(*$C$DW$T$19)
    9332                      .dwattr $C$DW$1038, DW_AT_name("GRAB_RAM5")
    9333                      .dwattr $C$DW$1038, DW_AT_TI_symbol_name("_GRAB_RAM5")
    9334                      .dwattr $C$DW$1038, DW_AT_bit_offset(0x04), DW_AT_bit_size(0x02)
    9335                      .dwattr $C$DW$1038, DW_AT_data_member_location[DW_OP_plus_uconst 0x0]
    9336                      .dwattr $C$DW$1038, DW_AT_accessibility(DW_ACCESS_public)
    9337              $C$DW$1039      .dwtag  DW_TAG_member
    9338                      .dwattr $C$DW$1039, DW_AT_type(*$C$DW$T$19)
    9339                      .dwattr $C$DW$1039, DW_AT_name("GRAB_RAM6")
    9340                      .dwattr $C$DW$1039, DW_AT_TI_symbol_name("_GRAB_RAM6")
    9341                      .dwattr $C$DW$1039, DW_AT_bit_offset(0x02), DW_AT_bit_size(0x02)
    9342                      .dwattr $C$DW$1039, DW_AT_data_member_location[DW_OP_plus_uconst 0x0]
    9343                      .dwattr $C$DW$1039, DW_AT_accessibility(DW_ACCESS_public)
    9344              $C$DW$1040      .dwtag  DW_TAG_member
    9345                      .dwattr $C$DW$1040, DW_AT_type(*$C$DW$T$19)
    9346                      .dwattr $C$DW$1040, DW_AT_name("GRAB_RAM7")
    9347                      .dwattr $C$DW$1040, DW_AT_TI_symbol_name("_GRAB_RAM7")
    9348                      .dwattr $C$DW$1040, DW_AT_bit_offset(0x00), DW_AT_bit_size(0x02)
    9349                      .dwattr $C$DW$1040, DW_AT_data_member_location[DW_OP_plus_uconst 0x0]
    9350                      .dwattr $C$DW$1040, DW_AT_accessibility(DW_ACCESS_public)
    9351              $C$DW$1041      .dwtag  DW_TAG_member
    9352                      .dwattr $C$DW$1041, DW_AT_type(*$C$DW$T$19)
    9353                      .dwattr $C$DW$1041, DW_AT_name("rsvd1")
    9354                      .dwattr $C$DW$1041, DW_AT_TI_symbol_name("_rsvd1")
    9355                      .dwattr $C$DW$1041, DW_AT_bit_offset(0x04), DW_AT_bit_size(0x0c)
    9356                      .dwattr $C$DW$1041, DW_AT_data_member_location[DW_OP_plus_uconst 0x1]
    9357                      .dwattr $C$DW$1041, DW_AT_accessibility(DW_ACCESS_public)
    9358              $C$DW$1042      .dwtag  DW_TAG_member
    9359                      .dwattr $C$DW$1042, DW_AT_type(*$C$DW$T$19)
    9360                      .dwattr $C$DW$1042, DW_AT_name("GRAB_CLA1")
    9361                      .dwattr $C$DW$1042, DW_AT_TI_symbol_name("_GRAB_CLA1")
    9362                      .dwattr $C$DW$1042, DW_AT_bit_offset(0x02), DW_AT_bit_size(0x02)
    9363                      .dwattr $C$DW$1042, DW_AT_data_member_location[DW_OP_plus_uconst 0x1]
    9364                      .dwattr $C$DW$1042, DW_AT_accessibility(DW_ACCESS_public)
    9365              $C$DW$1043      .dwtag  DW_TAG_member
    9366                      .dwattr $C$DW$1043, DW_AT_type(*$C$DW$T$19)
    9367                      .dwattr $C$DW$1043, DW_AT_name("rsvd2")
    9368                      .dwattr $C$DW$1043, DW_AT_TI_symbol_name("_rsvd2")
    9369                      .dwattr $C$DW$1043, DW_AT_bit_offset(0x00), DW_AT_bit_size(0x02)
    9370                      .dwattr $C$DW$1043, DW_AT_data_member_location[DW_OP_plus_uconst 0x1]
    9371                      .dwattr $C$DW$1043, DW_AT_accessibility(DW_ACCESS_public)
    9372                      .dwendtag $C$DW$T$216
    9373              
    9374              
    9375              $C$DW$T$217     .dwtag  DW_TAG_union_type
    9376                      .dwattr $C$DW$T$217, DW_AT_name("Z2_GRABRAMR_REG")
    9377                      .dwattr $C$DW$T$217, DW_AT_byte_size(0x02)
    9378              $C$DW$1044      .dwtag  DW_TAG_member
TMS320C2000 Assembler PC v6.4.2 Thu Dec 14 15:26:44 2017

Tools Copyright (c) 1996-2015 Texas Instruments Incorporated
F2837xS_SysCtrl.asm                                                  PAGE  175

    9379                      .dwattr $C$DW$1044, DW_AT_type(*$C$DW$T$27)
    9380                      .dwattr $C$DW$1044, DW_AT_name("all")
    9381                      .dwattr $C$DW$1044, DW_AT_TI_symbol_name("_all")
    9382                      .dwattr $C$DW$1044, DW_AT_data_member_location[DW_OP_plus_uconst 0x0]
    9383                      .dwattr $C$DW$1044, DW_AT_accessibility(DW_ACCESS_public)
    9384              $C$DW$1045      .dwtag  DW_TAG_member
    9385                      .dwattr $C$DW$1045, DW_AT_type(*$C$DW$T$216)
    9386                      .dwattr $C$DW$1045, DW_AT_name("bit")
    9387                      .dwattr $C$DW$1045, DW_AT_TI_symbol_name("_bit")
    9388                      .dwattr $C$DW$1045, DW_AT_data_member_location[DW_OP_plus_uconst 0x0]
    9389                      .dwattr $C$DW$1045, DW_AT_accessibility(DW_ACCESS_public)
    9390                      .dwendtag $C$DW$T$217
    9391              
    9392              
    9393              $C$DW$T$218     .dwtag  DW_TAG_structure_type
    9394                      .dwattr $C$DW$T$218, DW_AT_name("Z2_GRABSECTR_BITS")
    9395                      .dwattr $C$DW$T$218, DW_AT_byte_size(0x02)
    9396              $C$DW$1046      .dwtag  DW_TAG_member
    9397                      .dwattr $C$DW$1046, DW_AT_type(*$C$DW$T$19)
    9398                      .dwattr $C$DW$1046, DW_AT_name("GRAB_SECTA")
    9399                      .dwattr $C$DW$1046, DW_AT_TI_symbol_name("_GRAB_SECTA")
    9400                      .dwattr $C$DW$1046, DW_AT_bit_offset(0x0e), DW_AT_bit_size(0x02)
    9401                      .dwattr $C$DW$1046, DW_AT_data_member_location[DW_OP_plus_uconst 0x0]
    9402                      .dwattr $C$DW$1046, DW_AT_accessibility(DW_ACCESS_public)
    9403              $C$DW$1047      .dwtag  DW_TAG_member
    9404                      .dwattr $C$DW$1047, DW_AT_type(*$C$DW$T$19)
    9405                      .dwattr $C$DW$1047, DW_AT_name("GRAB_SECTB")
    9406                      .dwattr $C$DW$1047, DW_AT_TI_symbol_name("_GRAB_SECTB")
    9407                      .dwattr $C$DW$1047, DW_AT_bit_offset(0x0c), DW_AT_bit_size(0x02)
    9408                      .dwattr $C$DW$1047, DW_AT_data_member_location[DW_OP_plus_uconst 0x0]
    9409                      .dwattr $C$DW$1047, DW_AT_accessibility(DW_ACCESS_public)
    9410              $C$DW$1048      .dwtag  DW_TAG_member
    9411                      .dwattr $C$DW$1048, DW_AT_type(*$C$DW$T$19)
    9412                      .dwattr $C$DW$1048, DW_AT_name("GRAB_SECTC")
    9413                      .dwattr $C$DW$1048, DW_AT_TI_symbol_name("_GRAB_SECTC")
    9414                      .dwattr $C$DW$1048, DW_AT_bit_offset(0x0a), DW_AT_bit_size(0x02)
    9415                      .dwattr $C$DW$1048, DW_AT_data_member_location[DW_OP_plus_uconst 0x0]
    9416                      .dwattr $C$DW$1048, DW_AT_accessibility(DW_ACCESS_public)
    9417              $C$DW$1049      .dwtag  DW_TAG_member
    9418                      .dwattr $C$DW$1049, DW_AT_type(*$C$DW$T$19)
    9419                      .dwattr $C$DW$1049, DW_AT_name("GRAB_SECTD")
    9420                      .dwattr $C$DW$1049, DW_AT_TI_symbol_name("_GRAB_SECTD")
    9421                      .dwattr $C$DW$1049, DW_AT_bit_offset(0x08), DW_AT_bit_size(0x02)
    9422                      .dwattr $C$DW$1049, DW_AT_data_member_location[DW_OP_plus_uconst 0x0]
    9423                      .dwattr $C$DW$1049, DW_AT_accessibility(DW_ACCESS_public)
    9424              $C$DW$1050      .dwtag  DW_TAG_member
    9425                      .dwattr $C$DW$1050, DW_AT_type(*$C$DW$T$19)
    9426                      .dwattr $C$DW$1050, DW_AT_name("GRAB_SECTE")
    9427                      .dwattr $C$DW$1050, DW_AT_TI_symbol_name("_GRAB_SECTE")
    9428                      .dwattr $C$DW$1050, DW_AT_bit_offset(0x06), DW_AT_bit_size(0x02)
    9429                      .dwattr $C$DW$1050, DW_AT_data_member_location[DW_OP_plus_uconst 0x0]
    9430                      .dwattr $C$DW$1050, DW_AT_accessibility(DW_ACCESS_public)
    9431              $C$DW$1051      .dwtag  DW_TAG_member
    9432                      .dwattr $C$DW$1051, DW_AT_type(*$C$DW$T$19)
    9433                      .dwattr $C$DW$1051, DW_AT_name("GRAB_SECTF")
TMS320C2000 Assembler PC v6.4.2 Thu Dec 14 15:26:44 2017

Tools Copyright (c) 1996-2015 Texas Instruments Incorporated
F2837xS_SysCtrl.asm                                                  PAGE  176

    9434                      .dwattr $C$DW$1051, DW_AT_TI_symbol_name("_GRAB_SECTF")
    9435                      .dwattr $C$DW$1051, DW_AT_bit_offset(0x04), DW_AT_bit_size(0x02)
    9436                      .dwattr $C$DW$1051, DW_AT_data_member_location[DW_OP_plus_uconst 0x0]
    9437                      .dwattr $C$DW$1051, DW_AT_accessibility(DW_ACCESS_public)
    9438              $C$DW$1052      .dwtag  DW_TAG_member
    9439                      .dwattr $C$DW$1052, DW_AT_type(*$C$DW$T$19)
    9440                      .dwattr $C$DW$1052, DW_AT_name("GRAB_SECTG")
    9441                      .dwattr $C$DW$1052, DW_AT_TI_symbol_name("_GRAB_SECTG")
    9442                      .dwattr $C$DW$1052, DW_AT_bit_offset(0x02), DW_AT_bit_size(0x02)
    9443                      .dwattr $C$DW$1052, DW_AT_data_member_location[DW_OP_plus_uconst 0x0]
    9444                      .dwattr $C$DW$1052, DW_AT_accessibility(DW_ACCESS_public)
    9445              $C$DW$1053      .dwtag  DW_TAG_member
    9446                      .dwattr $C$DW$1053, DW_AT_type(*$C$DW$T$19)
    9447                      .dwattr $C$DW$1053, DW_AT_name("GRAB_SECTH")
    9448                      .dwattr $C$DW$1053, DW_AT_TI_symbol_name("_GRAB_SECTH")
    9449                      .dwattr $C$DW$1053, DW_AT_bit_offset(0x00), DW_AT_bit_size(0x02)
    9450                      .dwattr $C$DW$1053, DW_AT_data_member_location[DW_OP_plus_uconst 0x0]
    9451                      .dwattr $C$DW$1053, DW_AT_accessibility(DW_ACCESS_public)
    9452              $C$DW$1054      .dwtag  DW_TAG_member
    9453                      .dwattr $C$DW$1054, DW_AT_type(*$C$DW$T$19)
    9454                      .dwattr $C$DW$1054, DW_AT_name("GRAB_SECTI")
    9455                      .dwattr $C$DW$1054, DW_AT_TI_symbol_name("_GRAB_SECTI")
    9456                      .dwattr $C$DW$1054, DW_AT_bit_offset(0x0e), DW_AT_bit_size(0x02)
    9457                      .dwattr $C$DW$1054, DW_AT_data_member_location[DW_OP_plus_uconst 0x1]
    9458                      .dwattr $C$DW$1054, DW_AT_accessibility(DW_ACCESS_public)
    9459              $C$DW$1055      .dwtag  DW_TAG_member
    9460                      .dwattr $C$DW$1055, DW_AT_type(*$C$DW$T$19)
    9461                      .dwattr $C$DW$1055, DW_AT_name("GRAB_SECTJ")
    9462                      .dwattr $C$DW$1055, DW_AT_TI_symbol_name("_GRAB_SECTJ")
    9463                      .dwattr $C$DW$1055, DW_AT_bit_offset(0x0c), DW_AT_bit_size(0x02)
    9464                      .dwattr $C$DW$1055, DW_AT_data_member_location[DW_OP_plus_uconst 0x1]
    9465                      .dwattr $C$DW$1055, DW_AT_accessibility(DW_ACCESS_public)
    9466              $C$DW$1056      .dwtag  DW_TAG_member
    9467                      .dwattr $C$DW$1056, DW_AT_type(*$C$DW$T$19)
    9468                      .dwattr $C$DW$1056, DW_AT_name("GRAB_SECTK")
    9469                      .dwattr $C$DW$1056, DW_AT_TI_symbol_name("_GRAB_SECTK")
    9470                      .dwattr $C$DW$1056, DW_AT_bit_offset(0x0a), DW_AT_bit_size(0x02)
    9471                      .dwattr $C$DW$1056, DW_AT_data_member_location[DW_OP_plus_uconst 0x1]
    9472                      .dwattr $C$DW$1056, DW_AT_accessibility(DW_ACCESS_public)
    9473              $C$DW$1057      .dwtag  DW_TAG_member
    9474                      .dwattr $C$DW$1057, DW_AT_type(*$C$DW$T$19)
    9475                      .dwattr $C$DW$1057, DW_AT_name("GRAB_SECTL")
    9476                      .dwattr $C$DW$1057, DW_AT_TI_symbol_name("_GRAB_SECTL")
    9477                      .dwattr $C$DW$1057, DW_AT_bit_offset(0x08), DW_AT_bit_size(0x02)
    9478                      .dwattr $C$DW$1057, DW_AT_data_member_location[DW_OP_plus_uconst 0x1]
    9479                      .dwattr $C$DW$1057, DW_AT_accessibility(DW_ACCESS_public)
    9480              $C$DW$1058      .dwtag  DW_TAG_member
    9481                      .dwattr $C$DW$1058, DW_AT_type(*$C$DW$T$19)
    9482                      .dwattr $C$DW$1058, DW_AT_name("GRAB_SECTM")
    9483                      .dwattr $C$DW$1058, DW_AT_TI_symbol_name("_GRAB_SECTM")
    9484                      .dwattr $C$DW$1058, DW_AT_bit_offset(0x06), DW_AT_bit_size(0x02)
    9485                      .dwattr $C$DW$1058, DW_AT_data_member_location[DW_OP_plus_uconst 0x1]
    9486                      .dwattr $C$DW$1058, DW_AT_accessibility(DW_ACCESS_public)
    9487              $C$DW$1059      .dwtag  DW_TAG_member
    9488                      .dwattr $C$DW$1059, DW_AT_type(*$C$DW$T$19)
TMS320C2000 Assembler PC v6.4.2 Thu Dec 14 15:26:44 2017

Tools Copyright (c) 1996-2015 Texas Instruments Incorporated
F2837xS_SysCtrl.asm                                                  PAGE  177

    9489                      .dwattr $C$DW$1059, DW_AT_name("GRAB_SECTN")
    9490                      .dwattr $C$DW$1059, DW_AT_TI_symbol_name("_GRAB_SECTN")
    9491                      .dwattr $C$DW$1059, DW_AT_bit_offset(0x04), DW_AT_bit_size(0x02)
    9492                      .dwattr $C$DW$1059, DW_AT_data_member_location[DW_OP_plus_uconst 0x1]
    9493                      .dwattr $C$DW$1059, DW_AT_accessibility(DW_ACCESS_public)
    9494              $C$DW$1060      .dwtag  DW_TAG_member
    9495                      .dwattr $C$DW$1060, DW_AT_type(*$C$DW$T$19)
    9496                      .dwattr $C$DW$1060, DW_AT_name("GRAB_BANK1")
    9497                      .dwattr $C$DW$1060, DW_AT_TI_symbol_name("_GRAB_BANK1")
    9498                      .dwattr $C$DW$1060, DW_AT_bit_offset(0x02), DW_AT_bit_size(0x02)
    9499                      .dwattr $C$DW$1060, DW_AT_data_member_location[DW_OP_plus_uconst 0x1]
    9500                      .dwattr $C$DW$1060, DW_AT_accessibility(DW_ACCESS_public)
    9501              $C$DW$1061      .dwtag  DW_TAG_member
    9502                      .dwattr $C$DW$1061, DW_AT_type(*$C$DW$T$19)
    9503                      .dwattr $C$DW$1061, DW_AT_name("rsvd1")
    9504                      .dwattr $C$DW$1061, DW_AT_TI_symbol_name("_rsvd1")
    9505                      .dwattr $C$DW$1061, DW_AT_bit_offset(0x00), DW_AT_bit_size(0x02)
    9506                      .dwattr $C$DW$1061, DW_AT_data_member_location[DW_OP_plus_uconst 0x1]
    9507                      .dwattr $C$DW$1061, DW_AT_accessibility(DW_ACCESS_public)
    9508                      .dwendtag $C$DW$T$218
    9509              
    9510              
    9511              $C$DW$T$219     .dwtag  DW_TAG_union_type
    9512                      .dwattr $C$DW$T$219, DW_AT_name("Z2_GRABSECTR_REG")
    9513                      .dwattr $C$DW$T$219, DW_AT_byte_size(0x02)
    9514              $C$DW$1062      .dwtag  DW_TAG_member
    9515                      .dwattr $C$DW$1062, DW_AT_type(*$C$DW$T$27)
    9516                      .dwattr $C$DW$1062, DW_AT_name("all")
    9517                      .dwattr $C$DW$1062, DW_AT_TI_symbol_name("_all")
    9518                      .dwattr $C$DW$1062, DW_AT_data_member_location[DW_OP_plus_uconst 0x0]
    9519                      .dwattr $C$DW$1062, DW_AT_accessibility(DW_ACCESS_public)
    9520              $C$DW$1063      .dwtag  DW_TAG_member
    9521                      .dwattr $C$DW$1063, DW_AT_type(*$C$DW$T$218)
    9522                      .dwattr $C$DW$1063, DW_AT_name("bit")
    9523                      .dwattr $C$DW$1063, DW_AT_TI_symbol_name("_bit")
    9524                      .dwattr $C$DW$1063, DW_AT_data_member_location[DW_OP_plus_uconst 0x0]
    9525                      .dwattr $C$DW$1063, DW_AT_accessibility(DW_ACCESS_public)
    9526                      .dwendtag $C$DW$T$219
    9527              
    9528              
    9529              $C$DW$T$220     .dwtag  DW_TAG_structure_type
    9530                      .dwattr $C$DW$T$220, DW_AT_name("Z2_LINKPOINTER_BITS")
    9531                      .dwattr $C$DW$T$220, DW_AT_byte_size(0x02)
    9532              $C$DW$1064      .dwtag  DW_TAG_member
    9533                      .dwattr $C$DW$1064, DW_AT_type(*$C$DW$T$27)
    9534                      .dwattr $C$DW$1064, DW_AT_name("LINKPOINTER")
    9535                      .dwattr $C$DW$1064, DW_AT_TI_symbol_name("_LINKPOINTER")
    9536                      .dwattr $C$DW$1064, DW_AT_bit_offset(0x03), DW_AT_bit_size(0x1d)
    9537                      .dwattr $C$DW$1064, DW_AT_data_member_location[DW_OP_plus_uconst 0x0]
    9538                      .dwattr $C$DW$1064, DW_AT_accessibility(DW_ACCESS_public)
    9539              $C$DW$1065      .dwtag  DW_TAG_member
    9540                      .dwattr $C$DW$1065, DW_AT_type(*$C$DW$T$19)
    9541                      .dwattr $C$DW$1065, DW_AT_name("rsvd1")
    9542                      .dwattr $C$DW$1065, DW_AT_TI_symbol_name("_rsvd1")
    9543                      .dwattr $C$DW$1065, DW_AT_bit_offset(0x00), DW_AT_bit_size(0x03)
TMS320C2000 Assembler PC v6.4.2 Thu Dec 14 15:26:44 2017

Tools Copyright (c) 1996-2015 Texas Instruments Incorporated
F2837xS_SysCtrl.asm                                                  PAGE  178

    9544                      .dwattr $C$DW$1065, DW_AT_data_member_location[DW_OP_plus_uconst 0x1]
    9545                      .dwattr $C$DW$1065, DW_AT_accessibility(DW_ACCESS_public)
    9546                      .dwendtag $C$DW$T$220
    9547              
    9548              
    9549              $C$DW$T$221     .dwtag  DW_TAG_union_type
    9550                      .dwattr $C$DW$T$221, DW_AT_name("Z2_LINKPOINTER_REG")
    9551                      .dwattr $C$DW$T$221, DW_AT_byte_size(0x02)
    9552              $C$DW$1066      .dwtag  DW_TAG_member
    9553                      .dwattr $C$DW$1066, DW_AT_type(*$C$DW$T$27)
    9554                      .dwattr $C$DW$1066, DW_AT_name("all")
    9555                      .dwattr $C$DW$1066, DW_AT_TI_symbol_name("_all")
    9556                      .dwattr $C$DW$1066, DW_AT_data_member_location[DW_OP_plus_uconst 0x0]
    9557                      .dwattr $C$DW$1066, DW_AT_accessibility(DW_ACCESS_public)
    9558              $C$DW$1067      .dwtag  DW_TAG_member
    9559                      .dwattr $C$DW$1067, DW_AT_type(*$C$DW$T$220)
    9560                      .dwattr $C$DW$1067, DW_AT_name("bit")
    9561                      .dwattr $C$DW$1067, DW_AT_TI_symbol_name("_bit")
    9562                      .dwattr $C$DW$1067, DW_AT_data_member_location[DW_OP_plus_uconst 0x0]
    9563                      .dwattr $C$DW$1067, DW_AT_accessibility(DW_ACCESS_public)
    9564                      .dwendtag $C$DW$T$221
    9565              
    9566              
    9567              $C$DW$T$222     .dwtag  DW_TAG_structure_type
    9568                      .dwattr $C$DW$T$222, DW_AT_name("Z2_OTPSECLOCK_BITS")
    9569                      .dwattr $C$DW$T$222, DW_AT_byte_size(0x02)
    9570              $C$DW$1068      .dwtag  DW_TAG_member
    9571                      .dwattr $C$DW$1068, DW_AT_type(*$C$DW$T$19)
    9572                      .dwattr $C$DW$1068, DW_AT_name("rsvd1")
    9573                      .dwattr $C$DW$1068, DW_AT_TI_symbol_name("_rsvd1")
    9574                      .dwattr $C$DW$1068, DW_AT_bit_offset(0x0c), DW_AT_bit_size(0x04)
    9575                      .dwattr $C$DW$1068, DW_AT_data_member_location[DW_OP_plus_uconst 0x0]
    9576                      .dwattr $C$DW$1068, DW_AT_accessibility(DW_ACCESS_public)
    9577              $C$DW$1069      .dwtag  DW_TAG_member
    9578                      .dwattr $C$DW$1069, DW_AT_type(*$C$DW$T$19)
    9579                      .dwattr $C$DW$1069, DW_AT_name("PSWDLOCK")
    9580                      .dwattr $C$DW$1069, DW_AT_TI_symbol_name("_PSWDLOCK")
    9581                      .dwattr $C$DW$1069, DW_AT_bit_offset(0x08), DW_AT_bit_size(0x04)
    9582                      .dwattr $C$DW$1069, DW_AT_data_member_location[DW_OP_plus_uconst 0x0]
    9583                      .dwattr $C$DW$1069, DW_AT_accessibility(DW_ACCESS_public)
    9584              $C$DW$1070      .dwtag  DW_TAG_member
    9585                      .dwattr $C$DW$1070, DW_AT_type(*$C$DW$T$19)
    9586                      .dwattr $C$DW$1070, DW_AT_name("CRCLOCK")
    9587                      .dwattr $C$DW$1070, DW_AT_TI_symbol_name("_CRCLOCK")
    9588                      .dwattr $C$DW$1070, DW_AT_bit_offset(0x04), DW_AT_bit_size(0x04)
    9589                      .dwattr $C$DW$1070, DW_AT_data_member_location[DW_OP_plus_uconst 0x0]
    9590                      .dwattr $C$DW$1070, DW_AT_accessibility(DW_ACCESS_public)
    9591              $C$DW$1071      .dwtag  DW_TAG_member
    9592                      .dwattr $C$DW$1071, DW_AT_type(*$C$DW$T$19)
    9593                      .dwattr $C$DW$1071, DW_AT_name("rsvd2")
    9594                      .dwattr $C$DW$1071, DW_AT_TI_symbol_name("_rsvd2")
    9595                      .dwattr $C$DW$1071, DW_AT_bit_offset(0x00), DW_AT_bit_size(0x04)
    9596                      .dwattr $C$DW$1071, DW_AT_data_member_location[DW_OP_plus_uconst 0x0]
    9597                      .dwattr $C$DW$1071, DW_AT_accessibility(DW_ACCESS_public)
    9598              $C$DW$1072      .dwtag  DW_TAG_member
TMS320C2000 Assembler PC v6.4.2 Thu Dec 14 15:26:44 2017

Tools Copyright (c) 1996-2015 Texas Instruments Incorporated
F2837xS_SysCtrl.asm                                                  PAGE  179

    9599                      .dwattr $C$DW$1072, DW_AT_type(*$C$DW$T$19)
    9600                      .dwattr $C$DW$1072, DW_AT_name("rsvd3")
    9601                      .dwattr $C$DW$1072, DW_AT_TI_symbol_name("_rsvd3")
    9602                      .dwattr $C$DW$1072, DW_AT_bit_offset(0x00), DW_AT_bit_size(0x10)
    9603                      .dwattr $C$DW$1072, DW_AT_data_member_location[DW_OP_plus_uconst 0x1]
    9604                      .dwattr $C$DW$1072, DW_AT_accessibility(DW_ACCESS_public)
    9605                      .dwendtag $C$DW$T$222
    9606              
    9607              
    9608              $C$DW$T$223     .dwtag  DW_TAG_union_type
    9609                      .dwattr $C$DW$T$223, DW_AT_name("Z2_OTPSECLOCK_REG")
    9610                      .dwattr $C$DW$T$223, DW_AT_byte_size(0x02)
    9611              $C$DW$1073      .dwtag  DW_TAG_member
    9612                      .dwattr $C$DW$1073, DW_AT_type(*$C$DW$T$27)
    9613                      .dwattr $C$DW$1073, DW_AT_name("all")
    9614                      .dwattr $C$DW$1073, DW_AT_TI_symbol_name("_all")
    9615                      .dwattr $C$DW$1073, DW_AT_data_member_location[DW_OP_plus_uconst 0x0]
    9616                      .dwattr $C$DW$1073, DW_AT_accessibility(DW_ACCESS_public)
    9617              $C$DW$1074      .dwtag  DW_TAG_member
    9618                      .dwattr $C$DW$1074, DW_AT_type(*$C$DW$T$222)
    9619                      .dwattr $C$DW$1074, DW_AT_name("bit")
    9620                      .dwattr $C$DW$1074, DW_AT_TI_symbol_name("_bit")
    9621                      .dwattr $C$DW$1074, DW_AT_data_member_location[DW_OP_plus_uconst 0x0]
    9622                      .dwattr $C$DW$1074, DW_AT_accessibility(DW_ACCESS_public)
    9623                      .dwendtag $C$DW$T$223
    9624              
    9625              $C$DW$T$2       .dwtag  DW_TAG_unspecified_type
    9626                      .dwattr $C$DW$T$2, DW_AT_name("void")
    9627              $C$DW$T$3       .dwtag  DW_TAG_pointer_type
    9628                      .dwattr $C$DW$T$3, DW_AT_type(*$C$DW$T$2)
    9629                      .dwattr $C$DW$T$3, DW_AT_address_class(0x20)
    9630              $C$DW$1075      .dwtag  DW_TAG_TI_far_type
    9631                      .dwattr $C$DW$1075, DW_AT_type(*$C$DW$T$2)
    9632              $C$DW$T$301     .dwtag  DW_TAG_const_type
    9633                      .dwattr $C$DW$T$301, DW_AT_type(*$C$DW$1075)
    9634              $C$DW$T$302     .dwtag  DW_TAG_pointer_type
    9635                      .dwattr $C$DW$T$302, DW_AT_type(*$C$DW$T$301)
    9636                      .dwattr $C$DW$T$302, DW_AT_address_class(0x20)
    9637              $C$DW$T$4       .dwtag  DW_TAG_base_type
    9638                      .dwattr $C$DW$T$4, DW_AT_encoding(DW_ATE_boolean)
    9639                      .dwattr $C$DW$T$4, DW_AT_name("bool")
    9640                      .dwattr $C$DW$T$4, DW_AT_byte_size(0x01)
    9641              $C$DW$T$5       .dwtag  DW_TAG_base_type
    9642                      .dwattr $C$DW$T$5, DW_AT_encoding(DW_ATE_signed_char)
    9643                      .dwattr $C$DW$T$5, DW_AT_name("signed char")
    9644                      .dwattr $C$DW$T$5, DW_AT_byte_size(0x01)
    9645              $C$DW$T$6       .dwtag  DW_TAG_base_type
    9646                      .dwattr $C$DW$T$6, DW_AT_encoding(DW_ATE_unsigned_char)
    9647                      .dwattr $C$DW$T$6, DW_AT_name("unsigned char")
    9648                      .dwattr $C$DW$T$6, DW_AT_byte_size(0x01)
    9649              $C$DW$T$7       .dwtag  DW_TAG_base_type
    9650                      .dwattr $C$DW$T$7, DW_AT_encoding(DW_ATE_signed_char)
    9651                      .dwattr $C$DW$T$7, DW_AT_name("wchar_t")
    9652                      .dwattr $C$DW$T$7, DW_AT_byte_size(0x01)
    9653              $C$DW$T$8       .dwtag  DW_TAG_base_type
TMS320C2000 Assembler PC v6.4.2 Thu Dec 14 15:26:44 2017

Tools Copyright (c) 1996-2015 Texas Instruments Incorporated
F2837xS_SysCtrl.asm                                                  PAGE  180

    9654                      .dwattr $C$DW$T$8, DW_AT_encoding(DW_ATE_signed)
    9655                      .dwattr $C$DW$T$8, DW_AT_name("short")
    9656                      .dwattr $C$DW$T$8, DW_AT_byte_size(0x01)
    9657              $C$DW$T$9       .dwtag  DW_TAG_base_type
    9658                      .dwattr $C$DW$T$9, DW_AT_encoding(DW_ATE_unsigned)
    9659                      .dwattr $C$DW$T$9, DW_AT_name("unsigned short")
    9660                      .dwattr $C$DW$T$9, DW_AT_byte_size(0x01)
    9661              $C$DW$T$10      .dwtag  DW_TAG_base_type
    9662                      .dwattr $C$DW$T$10, DW_AT_encoding(DW_ATE_signed)
    9663                      .dwattr $C$DW$T$10, DW_AT_name("int")
    9664                      .dwattr $C$DW$T$10, DW_AT_byte_size(0x01)
    9665              $C$DW$T$11      .dwtag  DW_TAG_base_type
    9666                      .dwattr $C$DW$T$11, DW_AT_encoding(DW_ATE_unsigned)
    9667                      .dwattr $C$DW$T$11, DW_AT_name("unsigned int")
    9668                      .dwattr $C$DW$T$11, DW_AT_byte_size(0x01)
    9669              $C$DW$T$19      .dwtag  DW_TAG_typedef, DW_AT_name("Uint16")
    9670                      .dwattr $C$DW$T$19, DW_AT_type(*$C$DW$T$11)
    9671                      .dwattr $C$DW$T$19, DW_AT_language(DW_LANG_C)
    9672              $C$DW$1076      .dwtag  DW_TAG_TI_far_type
    9673                      .dwattr $C$DW$1076, DW_AT_type(*$C$DW$T$19)
    9674              $C$DW$T$311     .dwtag  DW_TAG_volatile_type
    9675                      .dwattr $C$DW$T$311, DW_AT_type(*$C$DW$1076)
    9676              
    9677              $C$DW$T$20      .dwtag  DW_TAG_array_type
    9678                      .dwattr $C$DW$T$20, DW_AT_type(*$C$DW$T$19)
    9679                      .dwattr $C$DW$T$20, DW_AT_language(DW_LANG_C)
    9680                      .dwattr $C$DW$T$20, DW_AT_byte_size(0x20)
    9681              $C$DW$1077      .dwtag  DW_TAG_subrange_type
    9682                      .dwattr $C$DW$1077, DW_AT_upper_bound(0x1f)
    9683                      .dwendtag $C$DW$T$20
    9684              
    9685              
    9686              $C$DW$T$21      .dwtag  DW_TAG_array_type
    9687                      .dwattr $C$DW$T$21, DW_AT_type(*$C$DW$T$19)
    9688                      .dwattr $C$DW$T$21, DW_AT_language(DW_LANG_C)
    9689                      .dwattr $C$DW$T$21, DW_AT_byte_size(0x02)
    9690              $C$DW$1078      .dwtag  DW_TAG_subrange_type
    9691                      .dwattr $C$DW$1078, DW_AT_upper_bound(0x01)
    9692                      .dwendtag $C$DW$T$21
    9693              
    9694              
    9695              $C$DW$T$22      .dwtag  DW_TAG_array_type
    9696                      .dwattr $C$DW$T$22, DW_AT_type(*$C$DW$T$19)
    9697                      .dwattr $C$DW$T$22, DW_AT_language(DW_LANG_C)
    9698                      .dwattr $C$DW$T$22, DW_AT_byte_size(0x07)
    9699              $C$DW$1079      .dwtag  DW_TAG_subrange_type
    9700                      .dwattr $C$DW$1079, DW_AT_upper_bound(0x06)
    9701                      .dwendtag $C$DW$T$22
    9702              
    9703              
    9704              $C$DW$T$23      .dwtag  DW_TAG_array_type
    9705                      .dwattr $C$DW$T$23, DW_AT_type(*$C$DW$T$19)
    9706                      .dwattr $C$DW$T$23, DW_AT_language(DW_LANG_C)
    9707                      .dwattr $C$DW$T$23, DW_AT_byte_size(0x06)
    9708              $C$DW$1080      .dwtag  DW_TAG_subrange_type
TMS320C2000 Assembler PC v6.4.2 Thu Dec 14 15:26:44 2017

Tools Copyright (c) 1996-2015 Texas Instruments Incorporated
F2837xS_SysCtrl.asm                                                  PAGE  181

    9709                      .dwattr $C$DW$1080, DW_AT_upper_bound(0x05)
    9710                      .dwendtag $C$DW$T$23
    9711              
    9712              
    9713              $C$DW$T$24      .dwtag  DW_TAG_array_type
    9714                      .dwattr $C$DW$T$24, DW_AT_type(*$C$DW$T$19)
    9715                      .dwattr $C$DW$T$24, DW_AT_language(DW_LANG_C)
    9716                      .dwattr $C$DW$T$24, DW_AT_byte_size(0x0a)
    9717              $C$DW$1081      .dwtag  DW_TAG_subrange_type
    9718                      .dwattr $C$DW$1081, DW_AT_upper_bound(0x09)
    9719                      .dwendtag $C$DW$T$24
    9720              
    9721              
    9722              $C$DW$T$51      .dwtag  DW_TAG_array_type
    9723                      .dwattr $C$DW$T$51, DW_AT_type(*$C$DW$T$19)
    9724                      .dwattr $C$DW$T$51, DW_AT_language(DW_LANG_C)
    9725                      .dwattr $C$DW$T$51, DW_AT_byte_size(0x04)
    9726              $C$DW$1082      .dwtag  DW_TAG_subrange_type
    9727                      .dwattr $C$DW$1082, DW_AT_upper_bound(0x03)
    9728                      .dwendtag $C$DW$T$51
    9729              
    9730              
    9731              $C$DW$T$55      .dwtag  DW_TAG_array_type
    9732                      .dwattr $C$DW$T$55, DW_AT_type(*$C$DW$T$19)
    9733                      .dwattr $C$DW$T$55, DW_AT_language(DW_LANG_C)
    9734                      .dwattr $C$DW$T$55, DW_AT_byte_size(0x16)
    9735              $C$DW$1083      .dwtag  DW_TAG_subrange_type
    9736                      .dwattr $C$DW$1083, DW_AT_upper_bound(0x15)
    9737                      .dwendtag $C$DW$T$55
    9738              
    9739              
    9740              $C$DW$T$56      .dwtag  DW_TAG_array_type
    9741                      .dwattr $C$DW$T$56, DW_AT_type(*$C$DW$T$19)
    9742                      .dwattr $C$DW$T$56, DW_AT_language(DW_LANG_C)
    9743                      .dwattr $C$DW$T$56, DW_AT_byte_size(0x30)
    9744              $C$DW$1084      .dwtag  DW_TAG_subrange_type
    9745                      .dwattr $C$DW$1084, DW_AT_upper_bound(0x2f)
    9746                      .dwendtag $C$DW$T$56
    9747              
    9748              
    9749              $C$DW$T$58      .dwtag  DW_TAG_array_type
    9750                      .dwattr $C$DW$T$58, DW_AT_type(*$C$DW$T$19)
    9751                      .dwattr $C$DW$T$58, DW_AT_language(DW_LANG_C)
    9752                      .dwattr $C$DW$T$58, DW_AT_byte_size(0x08)
    9753              $C$DW$1085      .dwtag  DW_TAG_subrange_type
    9754                      .dwattr $C$DW$1085, DW_AT_upper_bound(0x07)
    9755                      .dwendtag $C$DW$T$58
    9756              
    9757              
    9758              $C$DW$T$91      .dwtag  DW_TAG_array_type
    9759                      .dwattr $C$DW$T$91, DW_AT_type(*$C$DW$T$19)
    9760                      .dwattr $C$DW$T$91, DW_AT_language(DW_LANG_C)
    9761                      .dwattr $C$DW$T$91, DW_AT_byte_size(0x1c)
    9762              $C$DW$1086      .dwtag  DW_TAG_subrange_type
    9763                      .dwattr $C$DW$1086, DW_AT_upper_bound(0x1b)
TMS320C2000 Assembler PC v6.4.2 Thu Dec 14 15:26:44 2017

Tools Copyright (c) 1996-2015 Texas Instruments Incorporated
F2837xS_SysCtrl.asm                                                  PAGE  182

    9764                      .dwendtag $C$DW$T$91
    9765              
    9766              
    9767              $C$DW$T$92      .dwtag  DW_TAG_array_type
    9768                      .dwattr $C$DW$T$92, DW_AT_type(*$C$DW$T$19)
    9769                      .dwattr $C$DW$T$92, DW_AT_language(DW_LANG_C)
    9770                      .dwattr $C$DW$T$92, DW_AT_byte_size(0x154)
    9771              $C$DW$1087      .dwtag  DW_TAG_subrange_type
    9772                      .dwattr $C$DW$1087, DW_AT_upper_bound(0x153)
    9773                      .dwendtag $C$DW$T$92
    9774              
    9775              
    9776              $C$DW$T$185     .dwtag  DW_TAG_array_type
    9777                      .dwattr $C$DW$T$185, DW_AT_type(*$C$DW$T$19)
    9778                      .dwattr $C$DW$T$185, DW_AT_language(DW_LANG_C)
    9779                      .dwattr $C$DW$T$185, DW_AT_byte_size(0x22)
    9780              $C$DW$1088      .dwtag  DW_TAG_subrange_type
    9781                      .dwattr $C$DW$1088, DW_AT_upper_bound(0x21)
    9782                      .dwendtag $C$DW$T$185
    9783              
    9784              
    9785              $C$DW$T$186     .dwtag  DW_TAG_array_type
    9786                      .dwattr $C$DW$T$186, DW_AT_type(*$C$DW$T$19)
    9787                      .dwattr $C$DW$T$186, DW_AT_language(DW_LANG_C)
    9788                      .dwattr $C$DW$T$186, DW_AT_byte_size(0x03)
    9789              $C$DW$1089      .dwtag  DW_TAG_subrange_type
    9790                      .dwattr $C$DW$1089, DW_AT_upper_bound(0x02)
    9791                      .dwendtag $C$DW$T$186
    9792              
    9793              $C$DW$T$12      .dwtag  DW_TAG_base_type
    9794                      .dwattr $C$DW$T$12, DW_AT_encoding(DW_ATE_signed)
    9795                      .dwattr $C$DW$T$12, DW_AT_name("long")
    9796                      .dwattr $C$DW$T$12, DW_AT_byte_size(0x02)
    9797              $C$DW$T$13      .dwtag  DW_TAG_base_type
    9798                      .dwattr $C$DW$T$13, DW_AT_encoding(DW_ATE_unsigned)
    9799                      .dwattr $C$DW$T$13, DW_AT_name("unsigned long")
    9800                      .dwattr $C$DW$T$13, DW_AT_byte_size(0x02)
    9801              $C$DW$T$27      .dwtag  DW_TAG_typedef, DW_AT_name("Uint32")
    9802                      .dwattr $C$DW$T$27, DW_AT_type(*$C$DW$T$13)
    9803                      .dwattr $C$DW$T$27, DW_AT_language(DW_LANG_C)
    9804              $C$DW$T$14      .dwtag  DW_TAG_base_type
    9805                      .dwattr $C$DW$T$14, DW_AT_encoding(DW_ATE_signed)
    9806                      .dwattr $C$DW$T$14, DW_AT_name("long long")
    9807                      .dwattr $C$DW$T$14, DW_AT_byte_size(0x04)
    9808              $C$DW$T$15      .dwtag  DW_TAG_base_type
    9809                      .dwattr $C$DW$T$15, DW_AT_encoding(DW_ATE_unsigned)
    9810                      .dwattr $C$DW$T$15, DW_AT_name("unsigned long long")
    9811                      .dwattr $C$DW$T$15, DW_AT_byte_size(0x04)
    9812              $C$DW$T$16      .dwtag  DW_TAG_base_type
    9813                      .dwattr $C$DW$T$16, DW_AT_encoding(DW_ATE_float)
    9814                      .dwattr $C$DW$T$16, DW_AT_name("float")
    9815                      .dwattr $C$DW$T$16, DW_AT_byte_size(0x02)
    9816              $C$DW$T$17      .dwtag  DW_TAG_base_type
    9817                      .dwattr $C$DW$T$17, DW_AT_encoding(DW_ATE_float)
    9818                      .dwattr $C$DW$T$17, DW_AT_name("double")
TMS320C2000 Assembler PC v6.4.2 Thu Dec 14 15:26:44 2017

Tools Copyright (c) 1996-2015 Texas Instruments Incorporated
F2837xS_SysCtrl.asm                                                  PAGE  183

    9819                      .dwattr $C$DW$T$17, DW_AT_byte_size(0x02)
    9820              $C$DW$T$18      .dwtag  DW_TAG_base_type
    9821                      .dwattr $C$DW$T$18, DW_AT_encoding(DW_ATE_float)
    9822                      .dwattr $C$DW$T$18, DW_AT_name("long double")
    9823                      .dwattr $C$DW$T$18, DW_AT_byte_size(0x04)
    9824                      .dwattr $C$DW$CU, DW_AT_language(DW_LANG_C)
    9825              
    9826              ;***************************************************************
    9827              ;* DWARF CIE ENTRIES                                           *
    9828              ;***************************************************************
    9829              
    9830              $C$DW$CIE       .dwcie 26
    9831                      .dwcfi  cfa_register, 20
    9832                      .dwcfi  cfa_offset, 0
    9833                      .dwcfi  undefined, 0
    9834                      .dwcfi  undefined, 1
    9835                      .dwcfi  undefined, 2
    9836                      .dwcfi  undefined, 3
    9837                      .dwcfi  undefined, 20
    9838                      .dwcfi  undefined, 21
    9839                      .dwcfi  undefined, 22
    9840                      .dwcfi  undefined, 23
    9841                      .dwcfi  undefined, 24
    9842                      .dwcfi  undefined, 25
    9843                      .dwcfi  undefined, 26
    9844                      .dwcfi  same_value, 28
    9845                      .dwcfi  undefined, 29
    9846                      .dwcfi  undefined, 30
    9847                      .dwcfi  undefined, 31
    9848                      .dwcfi  undefined, 32
    9849                      .dwcfi  undefined, 33
    9850                      .dwcfi  undefined, 34
    9851                      .dwcfi  undefined, 35
    9852                      .dwcfi  undefined, 36
    9853                      .dwcfi  undefined, 37
    9854                      .dwcfi  undefined, 38
    9855                      .dwcfi  undefined, 75
    9856                      .dwcfi  undefined, 76
    9857                      .dwcfi  undefined, 77
    9858                      .dwcfi  undefined, 4
    9859                      .dwcfi  undefined, 5
    9860                      .dwcfi  same_value, 6
    9861                      .dwcfi  same_value, 7
    9862                      .dwcfi  same_value, 8
    9863                      .dwcfi  same_value, 9
    9864                      .dwcfi  same_value, 10
    9865                      .dwcfi  same_value, 11
    9866                      .dwcfi  undefined, 12
    9867                      .dwcfi  undefined, 13
    9868                      .dwcfi  undefined, 14
    9869                      .dwcfi  undefined, 15
    9870                      .dwcfi  undefined, 16
    9871                      .dwcfi  undefined, 17
    9872                      .dwcfi  undefined, 18
    9873                      .dwcfi  undefined, 19
TMS320C2000 Assembler PC v6.4.2 Thu Dec 14 15:26:44 2017

Tools Copyright (c) 1996-2015 Texas Instruments Incorporated
F2837xS_SysCtrl.asm                                                  PAGE  184

    9874                      .dwcfi  undefined, 43
    9875                      .dwcfi  undefined, 44
    9876                      .dwcfi  undefined, 47
    9877                      .dwcfi  undefined, 48
    9878                      .dwcfi  undefined, 51
    9879                      .dwcfi  undefined, 52
    9880                      .dwcfi  undefined, 55
    9881                      .dwcfi  undefined, 56
    9882                      .dwcfi  same_value, 59
    9883                      .dwcfi  same_value, 60
    9884                      .dwcfi  same_value, 63
    9885                      .dwcfi  same_value, 64
    9886                      .dwcfi  same_value, 67
    9887                      .dwcfi  same_value, 68
    9888                      .dwcfi  same_value, 71
    9889                      .dwcfi  same_value, 72
    9890                      .dwcfi  undefined, 73
    9891                      .dwcfi  undefined, 74
    9892                      .dwcfi  undefined, 39
    9893                      .dwcfi  undefined, 40
    9894                      .dwcfi  undefined, 27
    9895                      .dwendentry
    9896              
    9897              ;***************************************************************
    9898              ;* DWARF REGISTER MAP                                          *
    9899              ;***************************************************************
    9900              
    9901              $C$DW$1090      .dwtag  DW_TAG_TI_assign_register, DW_AT_name("AL")
    9902                      .dwattr $C$DW$1090, DW_AT_location[DW_OP_reg0]
    9903              $C$DW$1091      .dwtag  DW_TAG_TI_assign_register, DW_AT_name("AH")
    9904                      .dwattr $C$DW$1091, DW_AT_location[DW_OP_reg1]
    9905              $C$DW$1092      .dwtag  DW_TAG_TI_assign_register, DW_AT_name("PL")
    9906                      .dwattr $C$DW$1092, DW_AT_location[DW_OP_reg2]
    9907              $C$DW$1093      .dwtag  DW_TAG_TI_assign_register, DW_AT_name("PH")
    9908                      .dwattr $C$DW$1093, DW_AT_location[DW_OP_reg3]
    9909              $C$DW$1094      .dwtag  DW_TAG_TI_assign_register, DW_AT_name("SP")
    9910                      .dwattr $C$DW$1094, DW_AT_location[DW_OP_reg20]
    9911              $C$DW$1095      .dwtag  DW_TAG_TI_assign_register, DW_AT_name("XT")
    9912                      .dwattr $C$DW$1095, DW_AT_location[DW_OP_reg21]
    9913              $C$DW$1096      .dwtag  DW_TAG_TI_assign_register, DW_AT_name("T")
    9914                      .dwattr $C$DW$1096, DW_AT_location[DW_OP_reg22]
    9915              $C$DW$1097      .dwtag  DW_TAG_TI_assign_register, DW_AT_name("ST0")
    9916                      .dwattr $C$DW$1097, DW_AT_location[DW_OP_reg23]
    9917              $C$DW$1098      .dwtag  DW_TAG_TI_assign_register, DW_AT_name("ST1")
    9918                      .dwattr $C$DW$1098, DW_AT_location[DW_OP_reg24]
    9919              $C$DW$1099      .dwtag  DW_TAG_TI_assign_register, DW_AT_name("PC")
    9920                      .dwattr $C$DW$1099, DW_AT_location[DW_OP_reg25]
    9921              $C$DW$1100      .dwtag  DW_TAG_TI_assign_register, DW_AT_name("RPC")
    9922                      .dwattr $C$DW$1100, DW_AT_location[DW_OP_reg26]
    9923              $C$DW$1101      .dwtag  DW_TAG_TI_assign_register, DW_AT_name("FP")
    9924                      .dwattr $C$DW$1101, DW_AT_location[DW_OP_reg28]
    9925              $C$DW$1102      .dwtag  DW_TAG_TI_assign_register, DW_AT_name("DP")
    9926                      .dwattr $C$DW$1102, DW_AT_location[DW_OP_reg29]
    9927              $C$DW$1103      .dwtag  DW_TAG_TI_assign_register, DW_AT_name("SXM")
    9928                      .dwattr $C$DW$1103, DW_AT_location[DW_OP_reg30]
TMS320C2000 Assembler PC v6.4.2 Thu Dec 14 15:26:44 2017

Tools Copyright (c) 1996-2015 Texas Instruments Incorporated
F2837xS_SysCtrl.asm                                                  PAGE  185

    9929              $C$DW$1104      .dwtag  DW_TAG_TI_assign_register, DW_AT_name("PM")
    9930                      .dwattr $C$DW$1104, DW_AT_location[DW_OP_reg31]
    9931              $C$DW$1105      .dwtag  DW_TAG_TI_assign_register, DW_AT_name("OVM")
    9932                      .dwattr $C$DW$1105, DW_AT_location[DW_OP_regx 0x20]
    9933              $C$DW$1106      .dwtag  DW_TAG_TI_assign_register, DW_AT_name("PAGE0")
    9934                      .dwattr $C$DW$1106, DW_AT_location[DW_OP_regx 0x21]
    9935              $C$DW$1107      .dwtag  DW_TAG_TI_assign_register, DW_AT_name("AMODE")
    9936                      .dwattr $C$DW$1107, DW_AT_location[DW_OP_regx 0x22]
    9937              $C$DW$1108      .dwtag  DW_TAG_TI_assign_register, DW_AT_name("INTM")
    9938                      .dwattr $C$DW$1108, DW_AT_location[DW_OP_regx 0x23]
    9939              $C$DW$1109      .dwtag  DW_TAG_TI_assign_register, DW_AT_name("IFR")
    9940                      .dwattr $C$DW$1109, DW_AT_location[DW_OP_regx 0x24]
    9941              $C$DW$1110      .dwtag  DW_TAG_TI_assign_register, DW_AT_name("IER")
    9942                      .dwattr $C$DW$1110, DW_AT_location[DW_OP_regx 0x25]
    9943              $C$DW$1111      .dwtag  DW_TAG_TI_assign_register, DW_AT_name("V")
    9944                      .dwattr $C$DW$1111, DW_AT_location[DW_OP_regx 0x26]
    9945              $C$DW$1112      .dwtag  DW_TAG_TI_assign_register, DW_AT_name("PSEUDOH")
    9946                      .dwattr $C$DW$1112, DW_AT_location[DW_OP_regx 0x4c]
    9947              $C$DW$1113      .dwtag  DW_TAG_TI_assign_register, DW_AT_name("VOL")
    9948                      .dwattr $C$DW$1113, DW_AT_location[DW_OP_regx 0x4d]
    9949              $C$DW$1114      .dwtag  DW_TAG_TI_assign_register, DW_AT_name("AR0")
    9950                      .dwattr $C$DW$1114, DW_AT_location[DW_OP_reg4]
    9951              $C$DW$1115      .dwtag  DW_TAG_TI_assign_register, DW_AT_name("XAR0")
    9952                      .dwattr $C$DW$1115, DW_AT_location[DW_OP_reg5]
    9953              $C$DW$1116      .dwtag  DW_TAG_TI_assign_register, DW_AT_name("AR1")
    9954                      .dwattr $C$DW$1116, DW_AT_location[DW_OP_reg6]
    9955              $C$DW$1117      .dwtag  DW_TAG_TI_assign_register, DW_AT_name("XAR1")
    9956                      .dwattr $C$DW$1117, DW_AT_location[DW_OP_reg7]
    9957              $C$DW$1118      .dwtag  DW_TAG_TI_assign_register, DW_AT_name("AR2")
    9958                      .dwattr $C$DW$1118, DW_AT_location[DW_OP_reg8]
    9959              $C$DW$1119      .dwtag  DW_TAG_TI_assign_register, DW_AT_name("XAR2")
    9960                      .dwattr $C$DW$1119, DW_AT_location[DW_OP_reg9]
    9961              $C$DW$1120      .dwtag  DW_TAG_TI_assign_register, DW_AT_name("AR3")
    9962                      .dwattr $C$DW$1120, DW_AT_location[DW_OP_reg10]
    9963              $C$DW$1121      .dwtag  DW_TAG_TI_assign_register, DW_AT_name("XAR3")
    9964                      .dwattr $C$DW$1121, DW_AT_location[DW_OP_reg11]
    9965              $C$DW$1122      .dwtag  DW_TAG_TI_assign_register, DW_AT_name("AR4")
    9966                      .dwattr $C$DW$1122, DW_AT_location[DW_OP_reg12]
    9967              $C$DW$1123      .dwtag  DW_TAG_TI_assign_register, DW_AT_name("XAR4")
    9968                      .dwattr $C$DW$1123, DW_AT_location[DW_OP_reg13]
    9969              $C$DW$1124      .dwtag  DW_TAG_TI_assign_register, DW_AT_name("AR5")
    9970                      .dwattr $C$DW$1124, DW_AT_location[DW_OP_reg14]
    9971              $C$DW$1125      .dwtag  DW_TAG_TI_assign_register, DW_AT_name("XAR5")
    9972                      .dwattr $C$DW$1125, DW_AT_location[DW_OP_reg15]
    9973              $C$DW$1126      .dwtag  DW_TAG_TI_assign_register, DW_AT_name("AR6")
    9974                      .dwattr $C$DW$1126, DW_AT_location[DW_OP_reg16]
    9975              $C$DW$1127      .dwtag  DW_TAG_TI_assign_register, DW_AT_name("XAR6")
    9976                      .dwattr $C$DW$1127, DW_AT_location[DW_OP_reg17]
    9977              $C$DW$1128      .dwtag  DW_TAG_TI_assign_register, DW_AT_name("AR7")
    9978                      .dwattr $C$DW$1128, DW_AT_location[DW_OP_reg18]
    9979              $C$DW$1129      .dwtag  DW_TAG_TI_assign_register, DW_AT_name("XAR7")
    9980                      .dwattr $C$DW$1129, DW_AT_location[DW_OP_reg19]
    9981              $C$DW$1130      .dwtag  DW_TAG_TI_assign_register, DW_AT_name("R0HL")
    9982                      .dwattr $C$DW$1130, DW_AT_location[DW_OP_regx 0x2b]
    9983              $C$DW$1131      .dwtag  DW_TAG_TI_assign_register, DW_AT_name("R0H")
TMS320C2000 Assembler PC v6.4.2 Thu Dec 14 15:26:44 2017

Tools Copyright (c) 1996-2015 Texas Instruments Incorporated
F2837xS_SysCtrl.asm                                                  PAGE  186

    9984                      .dwattr $C$DW$1131, DW_AT_location[DW_OP_regx 0x2c]
    9985              $C$DW$1132      .dwtag  DW_TAG_TI_assign_register, DW_AT_name("R1HL")
    9986                      .dwattr $C$DW$1132, DW_AT_location[DW_OP_regx 0x2f]
    9987              $C$DW$1133      .dwtag  DW_TAG_TI_assign_register, DW_AT_name("R1H")
    9988                      .dwattr $C$DW$1133, DW_AT_location[DW_OP_regx 0x30]
    9989              $C$DW$1134      .dwtag  DW_TAG_TI_assign_register, DW_AT_name("R2HL")
    9990                      .dwattr $C$DW$1134, DW_AT_location[DW_OP_regx 0x33]
    9991              $C$DW$1135      .dwtag  DW_TAG_TI_assign_register, DW_AT_name("R2H")
    9992                      .dwattr $C$DW$1135, DW_AT_location[DW_OP_regx 0x34]
    9993              $C$DW$1136      .dwtag  DW_TAG_TI_assign_register, DW_AT_name("R3HL")
    9994                      .dwattr $C$DW$1136, DW_AT_location[DW_OP_regx 0x37]
    9995              $C$DW$1137      .dwtag  DW_TAG_TI_assign_register, DW_AT_name("R3H")
    9996                      .dwattr $C$DW$1137, DW_AT_location[DW_OP_regx 0x38]
    9997              $C$DW$1138      .dwtag  DW_TAG_TI_assign_register, DW_AT_name("R4HL")
    9998                      .dwattr $C$DW$1138, DW_AT_location[DW_OP_regx 0x3b]
    9999              $C$DW$1139      .dwtag  DW_TAG_TI_assign_register, DW_AT_name("R4H")
   10000                      .dwattr $C$DW$1139, DW_AT_location[DW_OP_regx 0x3c]
   10001              $C$DW$1140      .dwtag  DW_TAG_TI_assign_register, DW_AT_name("R5HL")
   10002                      .dwattr $C$DW$1140, DW_AT_location[DW_OP_regx 0x3f]
   10003              $C$DW$1141      .dwtag  DW_TAG_TI_assign_register, DW_AT_name("R5H")
   10004                      .dwattr $C$DW$1141, DW_AT_location[DW_OP_regx 0x40]
   10005              $C$DW$1142      .dwtag  DW_TAG_TI_assign_register, DW_AT_name("R6HL")
   10006                      .dwattr $C$DW$1142, DW_AT_location[DW_OP_regx 0x43]
   10007              $C$DW$1143      .dwtag  DW_TAG_TI_assign_register, DW_AT_name("R6H")
   10008                      .dwattr $C$DW$1143, DW_AT_location[DW_OP_regx 0x44]
   10009              $C$DW$1144      .dwtag  DW_TAG_TI_assign_register, DW_AT_name("R7HL")
   10010                      .dwattr $C$DW$1144, DW_AT_location[DW_OP_regx 0x47]
   10011              $C$DW$1145      .dwtag  DW_TAG_TI_assign_register, DW_AT_name("R7H")
   10012                      .dwattr $C$DW$1145, DW_AT_location[DW_OP_regx 0x48]
   10013              $C$DW$1146      .dwtag  DW_TAG_TI_assign_register, DW_AT_name("RBL")
   10014                      .dwattr $C$DW$1146, DW_AT_location[DW_OP_regx 0x49]
   10015              $C$DW$1147      .dwtag  DW_TAG_TI_assign_register, DW_AT_name("RB")
   10016                      .dwattr $C$DW$1147, DW_AT_location[DW_OP_regx 0x4a]
   10017              $C$DW$1148      .dwtag  DW_TAG_TI_assign_register, DW_AT_name("STFL")
   10018                      .dwattr $C$DW$1148, DW_AT_location[DW_OP_regx 0x27]
   10019              $C$DW$1149      .dwtag  DW_TAG_TI_assign_register, DW_AT_name("STF")
   10020                      .dwattr $C$DW$1149, DW_AT_location[DW_OP_regx 0x28]
   10021              $C$DW$1150      .dwtag  DW_TAG_TI_assign_register, DW_AT_name("FPUHAZ")
   10022                      .dwattr $C$DW$1150, DW_AT_location[DW_OP_reg27]
   10023                      .dwendtag $C$DW$CU
   10024              

No Assembly Errors, No Assembly Warnings
