TMS320C2000 Assembler PC v6.4.2 Thu Dec 14 15:26:09 2017

Tools Copyright (c) 1996-2015 Texas Instruments Incorporated
F2837xS_DefaultISR.asm                                               PAGE    1

       1              ;***************************************************************
       2              ;* TMS320C2000 C/C++ Codegen                         PC v6.4.2 *
       3              ;* Date/Time created: Thu Dec 14 15:26:08 2017                 *
       4              ;***************************************************************
       5                      .compiler_opts --cla_support=cla0 --float_support=fpu32 --hll_source=on --mem_model:code=flat --mem_m
       6        0002  FP      .set    XAR2
       7              
       8              $C$DW$CU        .dwtag  DW_TAG_compile_unit
       9                      .dwattr $C$DW$CU, DW_AT_name("C:/ti/controlSUITE/device_support/F2837xS/v170/F2837xS_common/source/F2
      10                      .dwattr $C$DW$CU, DW_AT_producer("TI TMS320C2000 C/C++ Codegen PC v6.4.2 Copyright (c) 1996-2015 Texa
      11                      .dwattr $C$DW$CU, DW_AT_TI_version(0x01)
      12                      .dwattr $C$DW$CU, DW_AT_comp_dir("U:\02_MSE\MT\07_Software\CCS_workspace\DiffDrive_v0.93\F2837x_FLASH
      13              ;       C:\ti\ccsv6\tools\compiler\ti-cgt-c2000_6.4.2\bin\ac2000.exe -@C:\\Users\\ficm\\AppData\\Local\\Temp\
      14 00000000               .sect   ".text:retain"
      15                      .retain
      16                      .retainrefs
      17                      .global _TIMER1_ISR
      18              
      19              $C$DW$1 .dwtag  DW_TAG_subprogram, DW_AT_name("TIMER1_ISR")
      20                      .dwattr $C$DW$1, DW_AT_low_pc(_TIMER1_ISR)
      21                      .dwattr $C$DW$1, DW_AT_high_pc(0x00)
      22                      .dwattr $C$DW$1, DW_AT_TI_symbol_name("_TIMER1_ISR")
      23                      .dwattr $C$DW$1, DW_AT_external
      24                      .dwattr $C$DW$1, DW_AT_TI_begin_file("C:/ti/controlSUITE/device_support/F2837xS/v170/F2837xS_common/s
      25                      .dwattr $C$DW$1, DW_AT_TI_begin_line(0x13)
      26                      .dwattr $C$DW$1, DW_AT_TI_begin_column(0x10)
      27                      .dwattr $C$DW$1, DW_AT_TI_interrupt
      28                      .dwattr $C$DW$1, DW_AT_TI_max_frame_size(-6)
      29                      .dwpsn  file "C:/ti/controlSUITE/device_support/F2837xS/v170/F2837xS_common/source/F2837xS_DefaultISR
      30              
      31                      .dwfde $C$DW$CIE, _TIMER1_ISR
      32              
      33              ;***************************************************************
      34              ;* FNAME: _TIMER1_ISR                   FR SIZE:   4           *
      35              ;*                                                             *
      36              ;* FUNCTION ENVIRONMENT                                        *
      37              ;*                                                             *
      38              ;* FUNCTION PROPERTIES                                         *
      39              ;*                            0 Parameter,  0 Auto,  4 SOE     *
      40              ;***************************************************************
      41              
      42 00000000       _TIMER1_ISR:
      43                      .dwcfi  cfa_offset, -2
      44                      .dwcfi  save_reg_to_mem, 26, 0
      45 00000000 761B          ASP       ; [CPU_] 
      46 00000001 FFF0          PUSH      RB                    ; [CPU_] 
      47                      .dwcfi  save_reg_to_mem, 73, 2
      48                      .dwcfi  save_reg_to_mem, 74, 3
      49                      .dwcfi  cfa_offset, -4
      50 00000002 E200          MOV32     *SP++,STF             ; [CPU_] 
         00000003 00BD 
      51                      .dwcfi  save_reg_to_mem, 39, 4
      52                      .dwcfi  save_reg_to_mem, 40, 5
      53                      .dwcfi  cfa_offset, -6
      54 00000004 E630          SETFLG    RNDF32=1, RNDF64=1    ; [CPU_] 
TMS320C2000 Assembler PC v6.4.2 Thu Dec 14 15:26:09 2017

Tools Copyright (c) 1996-2015 Texas Instruments Incorporated
F2837xS_DefaultISR.asm                                               PAGE    2

         00000005 0600 
      55 00000006 2942          CLRC      PAGE0,OVM             ; [CPU_] 
      56 00000007 5616          CLRC      AMODE                 ; [CPU_] 
      57                      .dwpsn  file "C:/ti/controlSUITE/device_support/F2837xS/v170/F2837xS_common/source/F2837xS_DefaultISR
      58 00000008 7625        ESTOP0
      59 00000009       $C$L1:    
      60                      .dwpsn  file "C:/ti/controlSUITE/device_support/F2837xS/v170/F2837xS_common/source/F2837xS_DefaultISR
      61 00000009 6F00          B         $C$L1,UNC             ; [CPU_] |26| 
      62                      ; branch occurs ; [] |26| 
      63                      .dwattr $C$DW$1, DW_AT_TI_end_file("C:/ti/controlSUITE/device_support/F2837xS/v170/F2837xS_common/sou
      64                      .dwattr $C$DW$1, DW_AT_TI_end_line(0x1b)
      65                      .dwattr $C$DW$1, DW_AT_TI_end_column(0x01)
      66                      .dwendentry
      67                      .dwendtag $C$DW$1
      68              
      69 0000000a               .sect   ".text:retain"
      70                      .retain
      71                      .retainrefs
      72                      .global _TIMER2_ISR
      73              
      74              $C$DW$2 .dwtag  DW_TAG_subprogram, DW_AT_name("TIMER2_ISR")
      75                      .dwattr $C$DW$2, DW_AT_low_pc(_TIMER2_ISR)
      76                      .dwattr $C$DW$2, DW_AT_high_pc(0x00)
      77                      .dwattr $C$DW$2, DW_AT_TI_symbol_name("_TIMER2_ISR")
      78                      .dwattr $C$DW$2, DW_AT_external
      79                      .dwattr $C$DW$2, DW_AT_TI_begin_file("C:/ti/controlSUITE/device_support/F2837xS/v170/F2837xS_common/s
      80                      .dwattr $C$DW$2, DW_AT_TI_begin_line(0x1e)
      81                      .dwattr $C$DW$2, DW_AT_TI_begin_column(0x10)
      82                      .dwattr $C$DW$2, DW_AT_TI_interrupt
      83                      .dwattr $C$DW$2, DW_AT_TI_max_frame_size(-6)
      84                      .dwpsn  file "C:/ti/controlSUITE/device_support/F2837xS/v170/F2837xS_common/source/F2837xS_DefaultISR
      85              
      86                      .dwfde $C$DW$CIE, _TIMER2_ISR
      87              
      88              ;***************************************************************
      89              ;* FNAME: _TIMER2_ISR                   FR SIZE:   4           *
      90              ;*                                                             *
      91              ;* FUNCTION ENVIRONMENT                                        *
      92              ;*                                                             *
      93              ;* FUNCTION PROPERTIES                                         *
      94              ;*                            0 Parameter,  0 Auto,  4 SOE     *
      95              ;***************************************************************
      96              
      97 0000000a       _TIMER2_ISR:
      98                      .dwcfi  cfa_offset, -2
      99                      .dwcfi  save_reg_to_mem, 26, 0
     100 0000000a 761B          ASP       ; [CPU_] 
     101 0000000b FFF0          PUSH      RB                    ; [CPU_] 
     102                      .dwcfi  save_reg_to_mem, 73, 2
     103                      .dwcfi  save_reg_to_mem, 74, 3
     104                      .dwcfi  cfa_offset, -4
     105 0000000c E200          MOV32     *SP++,STF             ; [CPU_] 
         0000000d 00BD 
     106                      .dwcfi  save_reg_to_mem, 39, 4
     107                      .dwcfi  save_reg_to_mem, 40, 5
TMS320C2000 Assembler PC v6.4.2 Thu Dec 14 15:26:09 2017

Tools Copyright (c) 1996-2015 Texas Instruments Incorporated
F2837xS_DefaultISR.asm                                               PAGE    3

     108                      .dwcfi  cfa_offset, -6
     109 0000000e E630          SETFLG    RNDF32=1, RNDF64=1    ; [CPU_] 
         0000000f 0600 
     110 00000010 2942          CLRC      PAGE0,OVM             ; [CPU_] 
     111 00000011 5616          CLRC      AMODE                 ; [CPU_] 
     112                      .dwpsn  file "C:/ti/controlSUITE/device_support/F2837xS/v170/F2837xS_common/source/F2837xS_DefaultISR
     113 00000012 7625        ESTOP0
     114 00000013       $C$L2:    
     115                      .dwpsn  file "C:/ti/controlSUITE/device_support/F2837xS/v170/F2837xS_common/source/F2837xS_DefaultISR
     116 00000013 6F00          B         $C$L2,UNC             ; [CPU_] |37| 
     117                      ; branch occurs ; [] |37| 
     118                      .dwattr $C$DW$2, DW_AT_TI_end_file("C:/ti/controlSUITE/device_support/F2837xS/v170/F2837xS_common/sou
     119                      .dwattr $C$DW$2, DW_AT_TI_end_line(0x26)
     120                      .dwattr $C$DW$2, DW_AT_TI_end_column(0x01)
     121                      .dwendentry
     122                      .dwendtag $C$DW$2
     123              
     124 00000014               .sect   ".text:retain"
     125                      .retain
     126                      .retainrefs
     127                      .global _DATALOG_ISR
     128              
     129              $C$DW$3 .dwtag  DW_TAG_subprogram, DW_AT_name("DATALOG_ISR")
     130                      .dwattr $C$DW$3, DW_AT_low_pc(_DATALOG_ISR)
     131                      .dwattr $C$DW$3, DW_AT_high_pc(0x00)
     132                      .dwattr $C$DW$3, DW_AT_TI_symbol_name("_DATALOG_ISR")
     133                      .dwattr $C$DW$3, DW_AT_external
     134                      .dwattr $C$DW$3, DW_AT_TI_begin_file("C:/ti/controlSUITE/device_support/F2837xS/v170/F2837xS_common/s
     135                      .dwattr $C$DW$3, DW_AT_TI_begin_line(0x29)
     136                      .dwattr $C$DW$3, DW_AT_TI_begin_column(0x10)
     137                      .dwattr $C$DW$3, DW_AT_TI_interrupt
     138                      .dwattr $C$DW$3, DW_AT_TI_max_frame_size(-6)
     139                      .dwpsn  file "C:/ti/controlSUITE/device_support/F2837xS/v170/F2837xS_common/source/F2837xS_DefaultISR
     140              
     141                      .dwfde $C$DW$CIE, _DATALOG_ISR
     142              
     143              ;***************************************************************
     144              ;* FNAME: _DATALOG_ISR                  FR SIZE:   4           *
     145              ;*                                                             *
     146              ;* FUNCTION ENVIRONMENT                                        *
     147              ;*                                                             *
     148              ;* FUNCTION PROPERTIES                                         *
     149              ;*                            0 Parameter,  0 Auto,  4 SOE     *
     150              ;***************************************************************
     151              
     152 00000014       _DATALOG_ISR:
     153                      .dwcfi  cfa_offset, -2
     154                      .dwcfi  save_reg_to_mem, 26, 0
     155 00000014 761B          ASP       ; [CPU_] 
     156 00000015 FFF0          PUSH      RB                    ; [CPU_] 
     157                      .dwcfi  save_reg_to_mem, 73, 2
     158                      .dwcfi  save_reg_to_mem, 74, 3
     159                      .dwcfi  cfa_offset, -4
     160 00000016 E200          MOV32     *SP++,STF             ; [CPU_] 
         00000017 00BD 
TMS320C2000 Assembler PC v6.4.2 Thu Dec 14 15:26:09 2017

Tools Copyright (c) 1996-2015 Texas Instruments Incorporated
F2837xS_DefaultISR.asm                                               PAGE    4

     161                      .dwcfi  save_reg_to_mem, 39, 4
     162                      .dwcfi  save_reg_to_mem, 40, 5
     163                      .dwcfi  cfa_offset, -6
     164 00000018 E630          SETFLG    RNDF32=1, RNDF64=1    ; [CPU_] 
         00000019 0600 
     165 0000001a 2942          CLRC      PAGE0,OVM             ; [CPU_] 
     166 0000001b 5616          CLRC      AMODE                 ; [CPU_] 
     167                      .dwpsn  file "C:/ti/controlSUITE/device_support/F2837xS/v170/F2837xS_common/source/F2837xS_DefaultISR
     168 0000001c 7625        ESTOP0
     169 0000001d       $C$L3:    
     170                      .dwpsn  file "C:/ti/controlSUITE/device_support/F2837xS/v170/F2837xS_common/source/F2837xS_DefaultISR
     171 0000001d 6F00          B         $C$L3,UNC             ; [CPU_] |48| 
     172                      ; branch occurs ; [] |48| 
     173                      .dwattr $C$DW$3, DW_AT_TI_end_file("C:/ti/controlSUITE/device_support/F2837xS/v170/F2837xS_common/sou
     174                      .dwattr $C$DW$3, DW_AT_TI_end_line(0x31)
     175                      .dwattr $C$DW$3, DW_AT_TI_end_column(0x01)
     176                      .dwendentry
     177                      .dwendtag $C$DW$3
     178              
     179 0000001e               .sect   ".text:retain"
     180                      .retain
     181                      .retainrefs
     182                      .global _RTOS_ISR
     183              
     184              $C$DW$4 .dwtag  DW_TAG_subprogram, DW_AT_name("RTOS_ISR")
     185                      .dwattr $C$DW$4, DW_AT_low_pc(_RTOS_ISR)
     186                      .dwattr $C$DW$4, DW_AT_high_pc(0x00)
     187                      .dwattr $C$DW$4, DW_AT_TI_symbol_name("_RTOS_ISR")
     188                      .dwattr $C$DW$4, DW_AT_external
     189                      .dwattr $C$DW$4, DW_AT_TI_begin_file("C:/ti/controlSUITE/device_support/F2837xS/v170/F2837xS_common/s
     190                      .dwattr $C$DW$4, DW_AT_TI_begin_line(0x34)
     191                      .dwattr $C$DW$4, DW_AT_TI_begin_column(0x10)
     192                      .dwattr $C$DW$4, DW_AT_TI_interrupt
     193                      .dwattr $C$DW$4, DW_AT_TI_max_frame_size(-6)
     194                      .dwpsn  file "C:/ti/controlSUITE/device_support/F2837xS/v170/F2837xS_common/source/F2837xS_DefaultISR
     195              
     196                      .dwfde $C$DW$CIE, _RTOS_ISR
     197              
     198              ;***************************************************************
     199              ;* FNAME: _RTOS_ISR                     FR SIZE:   4           *
     200              ;*                                                             *
     201              ;* FUNCTION ENVIRONMENT                                        *
     202              ;*                                                             *
     203              ;* FUNCTION PROPERTIES                                         *
     204              ;*                            0 Parameter,  0 Auto,  4 SOE     *
     205              ;***************************************************************
     206              
     207 0000001e       _RTOS_ISR:
     208                      .dwcfi  cfa_offset, -2
     209                      .dwcfi  save_reg_to_mem, 26, 0
     210 0000001e 761B          ASP       ; [CPU_] 
     211 0000001f FFF0          PUSH      RB                    ; [CPU_] 
     212                      .dwcfi  save_reg_to_mem, 73, 2
     213                      .dwcfi  save_reg_to_mem, 74, 3
     214                      .dwcfi  cfa_offset, -4
TMS320C2000 Assembler PC v6.4.2 Thu Dec 14 15:26:09 2017

Tools Copyright (c) 1996-2015 Texas Instruments Incorporated
F2837xS_DefaultISR.asm                                               PAGE    5

     215 00000020 E200          MOV32     *SP++,STF             ; [CPU_] 
         00000021 00BD 
     216                      .dwcfi  save_reg_to_mem, 39, 4
     217                      .dwcfi  save_reg_to_mem, 40, 5
     218                      .dwcfi  cfa_offset, -6
     219 00000022 E630          SETFLG    RNDF32=1, RNDF64=1    ; [CPU_] 
         00000023 0600 
     220 00000024 2942          CLRC      PAGE0,OVM             ; [CPU_] 
     221 00000025 5616          CLRC      AMODE                 ; [CPU_] 
     222                      .dwpsn  file "C:/ti/controlSUITE/device_support/F2837xS/v170/F2837xS_common/source/F2837xS_DefaultISR
     223 00000026 7625        ESTOP0
     224 00000027       $C$L4:    
     225                      .dwpsn  file "C:/ti/controlSUITE/device_support/F2837xS/v170/F2837xS_common/source/F2837xS_DefaultISR
     226 00000027 6F00          B         $C$L4,UNC             ; [CPU_] |59| 
     227                      ; branch occurs ; [] |59| 
     228                      .dwattr $C$DW$4, DW_AT_TI_end_file("C:/ti/controlSUITE/device_support/F2837xS/v170/F2837xS_common/sou
     229                      .dwattr $C$DW$4, DW_AT_TI_end_line(0x3c)
     230                      .dwattr $C$DW$4, DW_AT_TI_end_column(0x01)
     231                      .dwendentry
     232                      .dwendtag $C$DW$4
     233              
     234 00000028               .sect   ".text:retain"
     235                      .retain
     236                      .retainrefs
     237                      .global _EMU_ISR
     238              
     239              $C$DW$5 .dwtag  DW_TAG_subprogram, DW_AT_name("EMU_ISR")
     240                      .dwattr $C$DW$5, DW_AT_low_pc(_EMU_ISR)
     241                      .dwattr $C$DW$5, DW_AT_high_pc(0x00)
     242                      .dwattr $C$DW$5, DW_AT_TI_symbol_name("_EMU_ISR")
     243                      .dwattr $C$DW$5, DW_AT_external
     244                      .dwattr $C$DW$5, DW_AT_TI_begin_file("C:/ti/controlSUITE/device_support/F2837xS/v170/F2837xS_common/s
     245                      .dwattr $C$DW$5, DW_AT_TI_begin_line(0x3f)
     246                      .dwattr $C$DW$5, DW_AT_TI_begin_column(0x10)
     247                      .dwattr $C$DW$5, DW_AT_TI_interrupt
     248                      .dwattr $C$DW$5, DW_AT_TI_max_frame_size(-6)
     249                      .dwpsn  file "C:/ti/controlSUITE/device_support/F2837xS/v170/F2837xS_common/source/F2837xS_DefaultISR
     250              
     251                      .dwfde $C$DW$CIE, _EMU_ISR
     252              
     253              ;***************************************************************
     254              ;* FNAME: _EMU_ISR                      FR SIZE:   4           *
     255              ;*                                                             *
     256              ;* FUNCTION ENVIRONMENT                                        *
     257              ;*                                                             *
     258              ;* FUNCTION PROPERTIES                                         *
     259              ;*                            0 Parameter,  0 Auto,  4 SOE     *
     260              ;***************************************************************
     261              
     262 00000028       _EMU_ISR:
     263                      .dwcfi  cfa_offset, -2
     264                      .dwcfi  save_reg_to_mem, 26, 0
     265 00000028 761B          ASP       ; [CPU_] 
     266 00000029 FFF0          PUSH      RB                    ; [CPU_] 
     267                      .dwcfi  save_reg_to_mem, 73, 2
TMS320C2000 Assembler PC v6.4.2 Thu Dec 14 15:26:09 2017

Tools Copyright (c) 1996-2015 Texas Instruments Incorporated
F2837xS_DefaultISR.asm                                               PAGE    6

     268                      .dwcfi  save_reg_to_mem, 74, 3
     269                      .dwcfi  cfa_offset, -4
     270 0000002a E200          MOV32     *SP++,STF             ; [CPU_] 
         0000002b 00BD 
     271                      .dwcfi  save_reg_to_mem, 39, 4
     272                      .dwcfi  save_reg_to_mem, 40, 5
     273                      .dwcfi  cfa_offset, -6
     274 0000002c E630          SETFLG    RNDF32=1, RNDF64=1    ; [CPU_] 
         0000002d 0600 
     275 0000002e 2942          CLRC      PAGE0,OVM             ; [CPU_] 
     276 0000002f 5616          CLRC      AMODE                 ; [CPU_] 
     277                      .dwpsn  file "C:/ti/controlSUITE/device_support/F2837xS/v170/F2837xS_common/source/F2837xS_DefaultISR
     278 00000030 7625        ESTOP0
     279 00000031       $C$L5:    
     280                      .dwpsn  file "C:/ti/controlSUITE/device_support/F2837xS/v170/F2837xS_common/source/F2837xS_DefaultISR
     281 00000031 6F00          B         $C$L5,UNC             ; [CPU_] |70| 
     282                      ; branch occurs ; [] |70| 
     283                      .dwattr $C$DW$5, DW_AT_TI_end_file("C:/ti/controlSUITE/device_support/F2837xS/v170/F2837xS_common/sou
     284                      .dwattr $C$DW$5, DW_AT_TI_end_line(0x47)
     285                      .dwattr $C$DW$5, DW_AT_TI_end_column(0x01)
     286                      .dwendentry
     287                      .dwendtag $C$DW$5
     288              
     289 00000032               .sect   ".text:retain"
     290                      .retain
     291                      .retainrefs
     292                      .global _NMI_ISR
     293              
     294              $C$DW$6 .dwtag  DW_TAG_subprogram, DW_AT_name("NMI_ISR")
     295                      .dwattr $C$DW$6, DW_AT_low_pc(_NMI_ISR)
     296                      .dwattr $C$DW$6, DW_AT_high_pc(0x00)
     297                      .dwattr $C$DW$6, DW_AT_TI_symbol_name("_NMI_ISR")
     298                      .dwattr $C$DW$6, DW_AT_external
     299                      .dwattr $C$DW$6, DW_AT_TI_begin_file("C:/ti/controlSUITE/device_support/F2837xS/v170/F2837xS_common/s
     300                      .dwattr $C$DW$6, DW_AT_TI_begin_line(0x4a)
     301                      .dwattr $C$DW$6, DW_AT_TI_begin_column(0x10)
     302                      .dwattr $C$DW$6, DW_AT_TI_interrupt
     303                      .dwattr $C$DW$6, DW_AT_TI_max_frame_size(-6)
     304                      .dwpsn  file "C:/ti/controlSUITE/device_support/F2837xS/v170/F2837xS_common/source/F2837xS_DefaultISR
     305              
     306                      .dwfde $C$DW$CIE, _NMI_ISR
     307              
     308              ;***************************************************************
     309              ;* FNAME: _NMI_ISR                      FR SIZE:   4           *
     310              ;*                                                             *
     311              ;* FUNCTION ENVIRONMENT                                        *
     312              ;*                                                             *
     313              ;* FUNCTION PROPERTIES                                         *
     314              ;*                            0 Parameter,  0 Auto,  4 SOE     *
     315              ;***************************************************************
     316              
     317 00000032       _NMI_ISR:
     318                      .dwcfi  cfa_offset, -2
     319                      .dwcfi  save_reg_to_mem, 26, 0
     320 00000032 761B          ASP       ; [CPU_] 
TMS320C2000 Assembler PC v6.4.2 Thu Dec 14 15:26:09 2017

Tools Copyright (c) 1996-2015 Texas Instruments Incorporated
F2837xS_DefaultISR.asm                                               PAGE    7

     321 00000033 FFF0          PUSH      RB                    ; [CPU_] 
     322                      .dwcfi  save_reg_to_mem, 73, 2
     323                      .dwcfi  save_reg_to_mem, 74, 3
     324                      .dwcfi  cfa_offset, -4
     325 00000034 E200          MOV32     *SP++,STF             ; [CPU_] 
         00000035 00BD 
     326                      .dwcfi  save_reg_to_mem, 39, 4
     327                      .dwcfi  save_reg_to_mem, 40, 5
     328                      .dwcfi  cfa_offset, -6
     329 00000036 E630          SETFLG    RNDF32=1, RNDF64=1    ; [CPU_] 
         00000037 0600 
     330 00000038 2942          CLRC      PAGE0,OVM             ; [CPU_] 
     331 00000039 5616          CLRC      AMODE                 ; [CPU_] 
     332                      .dwpsn  file "C:/ti/controlSUITE/device_support/F2837xS/v170/F2837xS_common/source/F2837xS_DefaultISR
     333 0000003a 7625        ESTOP0
     334 0000003b       $C$L6:    
     335                      .dwpsn  file "C:/ti/controlSUITE/device_support/F2837xS/v170/F2837xS_common/source/F2837xS_DefaultISR
     336 0000003b 6F00          B         $C$L6,UNC             ; [CPU_] |81| 
     337                      ; branch occurs ; [] |81| 
     338                      .dwattr $C$DW$6, DW_AT_TI_end_file("C:/ti/controlSUITE/device_support/F2837xS/v170/F2837xS_common/sou
     339                      .dwattr $C$DW$6, DW_AT_TI_end_line(0x52)
     340                      .dwattr $C$DW$6, DW_AT_TI_end_column(0x01)
     341                      .dwendentry
     342                      .dwendtag $C$DW$6
     343              
     344 0000003c               .sect   ".text:retain"
     345                      .retain
     346                      .retainrefs
     347                      .global _ILLEGAL_ISR
     348              
     349              $C$DW$7 .dwtag  DW_TAG_subprogram, DW_AT_name("ILLEGAL_ISR")
     350                      .dwattr $C$DW$7, DW_AT_low_pc(_ILLEGAL_ISR)
     351                      .dwattr $C$DW$7, DW_AT_high_pc(0x00)
     352                      .dwattr $C$DW$7, DW_AT_TI_symbol_name("_ILLEGAL_ISR")
     353                      .dwattr $C$DW$7, DW_AT_external
     354                      .dwattr $C$DW$7, DW_AT_TI_begin_file("C:/ti/controlSUITE/device_support/F2837xS/v170/F2837xS_common/s
     355                      .dwattr $C$DW$7, DW_AT_TI_begin_line(0x55)
     356                      .dwattr $C$DW$7, DW_AT_TI_begin_column(0x10)
     357                      .dwattr $C$DW$7, DW_AT_TI_interrupt
     358                      .dwattr $C$DW$7, DW_AT_TI_max_frame_size(-6)
     359                      .dwpsn  file "C:/ti/controlSUITE/device_support/F2837xS/v170/F2837xS_common/source/F2837xS_DefaultISR
     360              
     361                      .dwfde $C$DW$CIE, _ILLEGAL_ISR
     362              
     363              ;***************************************************************
     364              ;* FNAME: _ILLEGAL_ISR                  FR SIZE:   4           *
     365              ;*                                                             *
     366              ;* FUNCTION ENVIRONMENT                                        *
     367              ;*                                                             *
     368              ;* FUNCTION PROPERTIES                                         *
     369              ;*                            0 Parameter,  0 Auto,  4 SOE     *
     370              ;***************************************************************
     371              
     372 0000003c       _ILLEGAL_ISR:
     373                      .dwcfi  cfa_offset, -2
TMS320C2000 Assembler PC v6.4.2 Thu Dec 14 15:26:09 2017

Tools Copyright (c) 1996-2015 Texas Instruments Incorporated
F2837xS_DefaultISR.asm                                               PAGE    8

     374                      .dwcfi  save_reg_to_mem, 26, 0
     375 0000003c 761B          ASP       ; [CPU_] 
     376 0000003d FFF0          PUSH      RB                    ; [CPU_] 
     377                      .dwcfi  save_reg_to_mem, 73, 2
     378                      .dwcfi  save_reg_to_mem, 74, 3
     379                      .dwcfi  cfa_offset, -4
     380 0000003e E200          MOV32     *SP++,STF             ; [CPU_] 
         0000003f 00BD 
     381                      .dwcfi  save_reg_to_mem, 39, 4
     382                      .dwcfi  save_reg_to_mem, 40, 5
     383                      .dwcfi  cfa_offset, -6
     384 00000040 E630          SETFLG    RNDF32=1, RNDF64=1    ; [CPU_] 
         00000041 0600 
     385 00000042 2942          CLRC      PAGE0,OVM             ; [CPU_] 
     386 00000043 5616          CLRC      AMODE                 ; [CPU_] 
     387                      .dwpsn  file "C:/ti/controlSUITE/device_support/F2837xS/v170/F2837xS_common/source/F2837xS_DefaultISR
     388 00000044 7625        ESTOP0
     389 00000045       $C$L7:    
     390                      .dwpsn  file "C:/ti/controlSUITE/device_support/F2837xS/v170/F2837xS_common/source/F2837xS_DefaultISR
     391 00000045 6F00          B         $C$L7,UNC             ; [CPU_] |92| 
     392                      ; branch occurs ; [] |92| 
     393                      .dwattr $C$DW$7, DW_AT_TI_end_file("C:/ti/controlSUITE/device_support/F2837xS/v170/F2837xS_common/sou
     394                      .dwattr $C$DW$7, DW_AT_TI_end_line(0x5d)
     395                      .dwattr $C$DW$7, DW_AT_TI_end_column(0x01)
     396                      .dwendentry
     397                      .dwendtag $C$DW$7
     398              
     399 00000046               .sect   ".text:retain"
     400                      .retain
     401                      .retainrefs
     402                      .global _USER1_ISR
     403              
     404              $C$DW$8 .dwtag  DW_TAG_subprogram, DW_AT_name("USER1_ISR")
     405                      .dwattr $C$DW$8, DW_AT_low_pc(_USER1_ISR)
     406                      .dwattr $C$DW$8, DW_AT_high_pc(0x00)
     407                      .dwattr $C$DW$8, DW_AT_TI_symbol_name("_USER1_ISR")
     408                      .dwattr $C$DW$8, DW_AT_external
     409                      .dwattr $C$DW$8, DW_AT_TI_begin_file("C:/ti/controlSUITE/device_support/F2837xS/v170/F2837xS_common/s
     410                      .dwattr $C$DW$8, DW_AT_TI_begin_line(0x60)
     411                      .dwattr $C$DW$8, DW_AT_TI_begin_column(0x10)
     412                      .dwattr $C$DW$8, DW_AT_TI_interrupt
     413                      .dwattr $C$DW$8, DW_AT_TI_max_frame_size(-6)
     414                      .dwpsn  file "C:/ti/controlSUITE/device_support/F2837xS/v170/F2837xS_common/source/F2837xS_DefaultISR
     415              
     416                      .dwfde $C$DW$CIE, _USER1_ISR
     417              
     418              ;***************************************************************
     419              ;* FNAME: _USER1_ISR                    FR SIZE:   4           *
     420              ;*                                                             *
     421              ;* FUNCTION ENVIRONMENT                                        *
     422              ;*                                                             *
     423              ;* FUNCTION PROPERTIES                                         *
     424              ;*                            0 Parameter,  0 Auto,  4 SOE     *
     425              ;***************************************************************
     426              
TMS320C2000 Assembler PC v6.4.2 Thu Dec 14 15:26:09 2017

Tools Copyright (c) 1996-2015 Texas Instruments Incorporated
F2837xS_DefaultISR.asm                                               PAGE    9

     427 00000046       _USER1_ISR:
     428                      .dwcfi  cfa_offset, -2
     429                      .dwcfi  save_reg_to_mem, 26, 0
     430 00000046 761B          ASP       ; [CPU_] 
     431 00000047 FFF0          PUSH      RB                    ; [CPU_] 
     432                      .dwcfi  save_reg_to_mem, 73, 2
     433                      .dwcfi  save_reg_to_mem, 74, 3
     434                      .dwcfi  cfa_offset, -4
     435 00000048 E200          MOV32     *SP++,STF             ; [CPU_] 
         00000049 00BD 
     436                      .dwcfi  save_reg_to_mem, 39, 4
     437                      .dwcfi  save_reg_to_mem, 40, 5
     438                      .dwcfi  cfa_offset, -6
     439 0000004a E630          SETFLG    RNDF32=1, RNDF64=1    ; [CPU_] 
         0000004b 0600 
     440 0000004c 2942          CLRC      PAGE0,OVM             ; [CPU_] 
     441 0000004d 5616          CLRC      AMODE                 ; [CPU_] 
     442                      .dwpsn  file "C:/ti/controlSUITE/device_support/F2837xS/v170/F2837xS_common/source/F2837xS_DefaultISR
     443 0000004e 7625        ESTOP0
     444 0000004f       $C$L8:    
     445                      .dwpsn  file "C:/ti/controlSUITE/device_support/F2837xS/v170/F2837xS_common/source/F2837xS_DefaultISR
     446 0000004f 6F00          B         $C$L8,UNC             ; [CPU_] |103| 
     447                      ; branch occurs ; [] |103| 
     448                      .dwattr $C$DW$8, DW_AT_TI_end_file("C:/ti/controlSUITE/device_support/F2837xS/v170/F2837xS_common/sou
     449                      .dwattr $C$DW$8, DW_AT_TI_end_line(0x68)
     450                      .dwattr $C$DW$8, DW_AT_TI_end_column(0x01)
     451                      .dwendentry
     452                      .dwendtag $C$DW$8
     453              
     454 00000050               .sect   ".text:retain"
     455                      .retain
     456                      .retainrefs
     457                      .global _USER2_ISR
     458              
     459              $C$DW$9 .dwtag  DW_TAG_subprogram, DW_AT_name("USER2_ISR")
     460                      .dwattr $C$DW$9, DW_AT_low_pc(_USER2_ISR)
     461                      .dwattr $C$DW$9, DW_AT_high_pc(0x00)
     462                      .dwattr $C$DW$9, DW_AT_TI_symbol_name("_USER2_ISR")
     463                      .dwattr $C$DW$9, DW_AT_external
     464                      .dwattr $C$DW$9, DW_AT_TI_begin_file("C:/ti/controlSUITE/device_support/F2837xS/v170/F2837xS_common/s
     465                      .dwattr $C$DW$9, DW_AT_TI_begin_line(0x6b)
     466                      .dwattr $C$DW$9, DW_AT_TI_begin_column(0x10)
     467                      .dwattr $C$DW$9, DW_AT_TI_interrupt
     468                      .dwattr $C$DW$9, DW_AT_TI_max_frame_size(-6)
     469                      .dwpsn  file "C:/ti/controlSUITE/device_support/F2837xS/v170/F2837xS_common/source/F2837xS_DefaultISR
     470              
     471                      .dwfde $C$DW$CIE, _USER2_ISR
     472              
     473              ;***************************************************************
     474              ;* FNAME: _USER2_ISR                    FR SIZE:   4           *
     475              ;*                                                             *
     476              ;* FUNCTION ENVIRONMENT                                        *
     477              ;*                                                             *
     478              ;* FUNCTION PROPERTIES                                         *
     479              ;*                            0 Parameter,  0 Auto,  4 SOE     *
TMS320C2000 Assembler PC v6.4.2 Thu Dec 14 15:26:09 2017

Tools Copyright (c) 1996-2015 Texas Instruments Incorporated
F2837xS_DefaultISR.asm                                               PAGE   10

     480              ;***************************************************************
     481              
     482 00000050       _USER2_ISR:
     483                      .dwcfi  cfa_offset, -2
     484                      .dwcfi  save_reg_to_mem, 26, 0
     485 00000050 761B          ASP       ; [CPU_] 
     486 00000051 FFF0          PUSH      RB                    ; [CPU_] 
     487                      .dwcfi  save_reg_to_mem, 73, 2
     488                      .dwcfi  save_reg_to_mem, 74, 3
     489                      .dwcfi  cfa_offset, -4
     490 00000052 E200          MOV32     *SP++,STF             ; [CPU_] 
         00000053 00BD 
     491                      .dwcfi  save_reg_to_mem, 39, 4
     492                      .dwcfi  save_reg_to_mem, 40, 5
     493                      .dwcfi  cfa_offset, -6
     494 00000054 E630          SETFLG    RNDF32=1, RNDF64=1    ; [CPU_] 
         00000055 0600 
     495 00000056 2942          CLRC      PAGE0,OVM             ; [CPU_] 
     496 00000057 5616          CLRC      AMODE                 ; [CPU_] 
     497                      .dwpsn  file "C:/ti/controlSUITE/device_support/F2837xS/v170/F2837xS_common/source/F2837xS_DefaultISR
     498 00000058 7625        ESTOP0
     499 00000059       $C$L9:    
     500                      .dwpsn  file "C:/ti/controlSUITE/device_support/F2837xS/v170/F2837xS_common/source/F2837xS_DefaultISR
     501 00000059 6F00          B         $C$L9,UNC             ; [CPU_] |114| 
     502                      ; branch occurs ; [] |114| 
     503                      .dwattr $C$DW$9, DW_AT_TI_end_file("C:/ti/controlSUITE/device_support/F2837xS/v170/F2837xS_common/sou
     504                      .dwattr $C$DW$9, DW_AT_TI_end_line(0x73)
     505                      .dwattr $C$DW$9, DW_AT_TI_end_column(0x01)
     506                      .dwendentry
     507                      .dwendtag $C$DW$9
     508              
     509 0000005a               .sect   ".text:retain"
     510                      .retain
     511                      .retainrefs
     512                      .global _USER3_ISR
     513              
     514              $C$DW$10        .dwtag  DW_TAG_subprogram, DW_AT_name("USER3_ISR")
     515                      .dwattr $C$DW$10, DW_AT_low_pc(_USER3_ISR)
     516                      .dwattr $C$DW$10, DW_AT_high_pc(0x00)
     517                      .dwattr $C$DW$10, DW_AT_TI_symbol_name("_USER3_ISR")
     518                      .dwattr $C$DW$10, DW_AT_external
     519                      .dwattr $C$DW$10, DW_AT_TI_begin_file("C:/ti/controlSUITE/device_support/F2837xS/v170/F2837xS_common/
     520                      .dwattr $C$DW$10, DW_AT_TI_begin_line(0x76)
     521                      .dwattr $C$DW$10, DW_AT_TI_begin_column(0x10)
     522                      .dwattr $C$DW$10, DW_AT_TI_interrupt
     523                      .dwattr $C$DW$10, DW_AT_TI_max_frame_size(-6)
     524                      .dwpsn  file "C:/ti/controlSUITE/device_support/F2837xS/v170/F2837xS_common/source/F2837xS_DefaultISR
     525              
     526                      .dwfde $C$DW$CIE, _USER3_ISR
     527              
     528              ;***************************************************************
     529              ;* FNAME: _USER3_ISR                    FR SIZE:   4           *
     530              ;*                                                             *
     531              ;* FUNCTION ENVIRONMENT                                        *
     532              ;*                                                             *
TMS320C2000 Assembler PC v6.4.2 Thu Dec 14 15:26:09 2017

Tools Copyright (c) 1996-2015 Texas Instruments Incorporated
F2837xS_DefaultISR.asm                                               PAGE   11

     533              ;* FUNCTION PROPERTIES                                         *
     534              ;*                            0 Parameter,  0 Auto,  4 SOE     *
     535              ;***************************************************************
     536              
     537 0000005a       _USER3_ISR:
     538                      .dwcfi  cfa_offset, -2
     539                      .dwcfi  save_reg_to_mem, 26, 0
     540 0000005a 761B          ASP       ; [CPU_] 
     541 0000005b FFF0          PUSH      RB                    ; [CPU_] 
     542                      .dwcfi  save_reg_to_mem, 73, 2
     543                      .dwcfi  save_reg_to_mem, 74, 3
     544                      .dwcfi  cfa_offset, -4
     545 0000005c E200          MOV32     *SP++,STF             ; [CPU_] 
         0000005d 00BD 
     546                      .dwcfi  save_reg_to_mem, 39, 4
     547                      .dwcfi  save_reg_to_mem, 40, 5
     548                      .dwcfi  cfa_offset, -6
     549 0000005e E630          SETFLG    RNDF32=1, RNDF64=1    ; [CPU_] 
         0000005f 0600 
     550 00000060 2942          CLRC      PAGE0,OVM             ; [CPU_] 
     551 00000061 5616          CLRC      AMODE                 ; [CPU_] 
     552                      .dwpsn  file "C:/ti/controlSUITE/device_support/F2837xS/v170/F2837xS_common/source/F2837xS_DefaultISR
     553 00000062 7625        ESTOP0
     554 00000063       $C$L10:    
     555                      .dwpsn  file "C:/ti/controlSUITE/device_support/F2837xS/v170/F2837xS_common/source/F2837xS_DefaultISR
     556 00000063 6F00          B         $C$L10,UNC            ; [CPU_] |125| 
     557                      ; branch occurs ; [] |125| 
     558                      .dwattr $C$DW$10, DW_AT_TI_end_file("C:/ti/controlSUITE/device_support/F2837xS/v170/F2837xS_common/so
     559                      .dwattr $C$DW$10, DW_AT_TI_end_line(0x7e)
     560                      .dwattr $C$DW$10, DW_AT_TI_end_column(0x01)
     561                      .dwendentry
     562                      .dwendtag $C$DW$10
     563              
     564 00000064               .sect   ".text:retain"
     565                      .retain
     566                      .retainrefs
     567                      .global _USER4_ISR
     568              
     569              $C$DW$11        .dwtag  DW_TAG_subprogram, DW_AT_name("USER4_ISR")
     570                      .dwattr $C$DW$11, DW_AT_low_pc(_USER4_ISR)
     571                      .dwattr $C$DW$11, DW_AT_high_pc(0x00)
     572                      .dwattr $C$DW$11, DW_AT_TI_symbol_name("_USER4_ISR")
     573                      .dwattr $C$DW$11, DW_AT_external
     574                      .dwattr $C$DW$11, DW_AT_TI_begin_file("C:/ti/controlSUITE/device_support/F2837xS/v170/F2837xS_common/
     575                      .dwattr $C$DW$11, DW_AT_TI_begin_line(0x81)
     576                      .dwattr $C$DW$11, DW_AT_TI_begin_column(0x10)
     577                      .dwattr $C$DW$11, DW_AT_TI_interrupt
     578                      .dwattr $C$DW$11, DW_AT_TI_max_frame_size(-6)
     579                      .dwpsn  file "C:/ti/controlSUITE/device_support/F2837xS/v170/F2837xS_common/source/F2837xS_DefaultISR
     580              
     581                      .dwfde $C$DW$CIE, _USER4_ISR
     582              
     583              ;***************************************************************
     584              ;* FNAME: _USER4_ISR                    FR SIZE:   4           *
     585              ;*                                                             *
TMS320C2000 Assembler PC v6.4.2 Thu Dec 14 15:26:09 2017

Tools Copyright (c) 1996-2015 Texas Instruments Incorporated
F2837xS_DefaultISR.asm                                               PAGE   12

     586              ;* FUNCTION ENVIRONMENT                                        *
     587              ;*                                                             *
     588              ;* FUNCTION PROPERTIES                                         *
     589              ;*                            0 Parameter,  0 Auto,  4 SOE     *
     590              ;***************************************************************
     591              
     592 00000064       _USER4_ISR:
     593                      .dwcfi  cfa_offset, -2
     594                      .dwcfi  save_reg_to_mem, 26, 0
     595 00000064 761B          ASP       ; [CPU_] 
     596 00000065 FFF0          PUSH      RB                    ; [CPU_] 
     597                      .dwcfi  save_reg_to_mem, 73, 2
     598                      .dwcfi  save_reg_to_mem, 74, 3
     599                      .dwcfi  cfa_offset, -4
     600 00000066 E200          MOV32     *SP++,STF             ; [CPU_] 
         00000067 00BD 
     601                      .dwcfi  save_reg_to_mem, 39, 4
     602                      .dwcfi  save_reg_to_mem, 40, 5
     603                      .dwcfi  cfa_offset, -6
     604 00000068 E630          SETFLG    RNDF32=1, RNDF64=1    ; [CPU_] 
         00000069 0600 
     605 0000006a 2942          CLRC      PAGE0,OVM             ; [CPU_] 
     606 0000006b 5616          CLRC      AMODE                 ; [CPU_] 
     607                      .dwpsn  file "C:/ti/controlSUITE/device_support/F2837xS/v170/F2837xS_common/source/F2837xS_DefaultISR
     608 0000006c 7625        ESTOP0
     609 0000006d       $C$L11:    
     610                      .dwpsn  file "C:/ti/controlSUITE/device_support/F2837xS/v170/F2837xS_common/source/F2837xS_DefaultISR
     611 0000006d 6F00          B         $C$L11,UNC            ; [CPU_] |136| 
     612                      ; branch occurs ; [] |136| 
     613                      .dwattr $C$DW$11, DW_AT_TI_end_file("C:/ti/controlSUITE/device_support/F2837xS/v170/F2837xS_common/so
     614                      .dwattr $C$DW$11, DW_AT_TI_end_line(0x89)
     615                      .dwattr $C$DW$11, DW_AT_TI_end_column(0x01)
     616                      .dwendentry
     617                      .dwendtag $C$DW$11
     618              
     619 0000006e               .sect   ".text:retain"
     620                      .retain
     621                      .retainrefs
     622                      .global _USER5_ISR
     623              
     624              $C$DW$12        .dwtag  DW_TAG_subprogram, DW_AT_name("USER5_ISR")
     625                      .dwattr $C$DW$12, DW_AT_low_pc(_USER5_ISR)
     626                      .dwattr $C$DW$12, DW_AT_high_pc(0x00)
     627                      .dwattr $C$DW$12, DW_AT_TI_symbol_name("_USER5_ISR")
     628                      .dwattr $C$DW$12, DW_AT_external
     629                      .dwattr $C$DW$12, DW_AT_TI_begin_file("C:/ti/controlSUITE/device_support/F2837xS/v170/F2837xS_common/
     630                      .dwattr $C$DW$12, DW_AT_TI_begin_line(0x8c)
     631                      .dwattr $C$DW$12, DW_AT_TI_begin_column(0x10)
     632                      .dwattr $C$DW$12, DW_AT_TI_interrupt
     633                      .dwattr $C$DW$12, DW_AT_TI_max_frame_size(-6)
     634                      .dwpsn  file "C:/ti/controlSUITE/device_support/F2837xS/v170/F2837xS_common/source/F2837xS_DefaultISR
     635              
     636                      .dwfde $C$DW$CIE, _USER5_ISR
     637              
     638              ;***************************************************************
TMS320C2000 Assembler PC v6.4.2 Thu Dec 14 15:26:09 2017

Tools Copyright (c) 1996-2015 Texas Instruments Incorporated
F2837xS_DefaultISR.asm                                               PAGE   13

     639              ;* FNAME: _USER5_ISR                    FR SIZE:   4           *
     640              ;*                                                             *
     641              ;* FUNCTION ENVIRONMENT                                        *
     642              ;*                                                             *
     643              ;* FUNCTION PROPERTIES                                         *
     644              ;*                            0 Parameter,  0 Auto,  4 SOE     *
     645              ;***************************************************************
     646              
     647 0000006e       _USER5_ISR:
     648                      .dwcfi  cfa_offset, -2
     649                      .dwcfi  save_reg_to_mem, 26, 0
     650 0000006e 761B          ASP       ; [CPU_] 
     651 0000006f FFF0          PUSH      RB                    ; [CPU_] 
     652                      .dwcfi  save_reg_to_mem, 73, 2
     653                      .dwcfi  save_reg_to_mem, 74, 3
     654                      .dwcfi  cfa_offset, -4
     655 00000070 E200          MOV32     *SP++,STF             ; [CPU_] 
         00000071 00BD 
     656                      .dwcfi  save_reg_to_mem, 39, 4
     657                      .dwcfi  save_reg_to_mem, 40, 5
     658                      .dwcfi  cfa_offset, -6
     659 00000072 E630          SETFLG    RNDF32=1, RNDF64=1    ; [CPU_] 
         00000073 0600 
     660 00000074 2942          CLRC      PAGE0,OVM             ; [CPU_] 
     661 00000075 5616          CLRC      AMODE                 ; [CPU_] 
     662                      .dwpsn  file "C:/ti/controlSUITE/device_support/F2837xS/v170/F2837xS_common/source/F2837xS_DefaultISR
     663 00000076 7625        ESTOP0
     664 00000077       $C$L12:    
     665                      .dwpsn  file "C:/ti/controlSUITE/device_support/F2837xS/v170/F2837xS_common/source/F2837xS_DefaultISR
     666 00000077 6F00          B         $C$L12,UNC            ; [CPU_] |147| 
     667                      ; branch occurs ; [] |147| 
     668                      .dwattr $C$DW$12, DW_AT_TI_end_file("C:/ti/controlSUITE/device_support/F2837xS/v170/F2837xS_common/so
     669                      .dwattr $C$DW$12, DW_AT_TI_end_line(0x94)
     670                      .dwattr $C$DW$12, DW_AT_TI_end_column(0x01)
     671                      .dwendentry
     672                      .dwendtag $C$DW$12
     673              
     674 00000078               .sect   ".text:retain"
     675                      .retain
     676                      .retainrefs
     677                      .global _USER6_ISR
     678              
     679              $C$DW$13        .dwtag  DW_TAG_subprogram, DW_AT_name("USER6_ISR")
     680                      .dwattr $C$DW$13, DW_AT_low_pc(_USER6_ISR)
     681                      .dwattr $C$DW$13, DW_AT_high_pc(0x00)
     682                      .dwattr $C$DW$13, DW_AT_TI_symbol_name("_USER6_ISR")
     683                      .dwattr $C$DW$13, DW_AT_external
     684                      .dwattr $C$DW$13, DW_AT_TI_begin_file("C:/ti/controlSUITE/device_support/F2837xS/v170/F2837xS_common/
     685                      .dwattr $C$DW$13, DW_AT_TI_begin_line(0x97)
     686                      .dwattr $C$DW$13, DW_AT_TI_begin_column(0x10)
     687                      .dwattr $C$DW$13, DW_AT_TI_interrupt
     688                      .dwattr $C$DW$13, DW_AT_TI_max_frame_size(-6)
     689                      .dwpsn  file "C:/ti/controlSUITE/device_support/F2837xS/v170/F2837xS_common/source/F2837xS_DefaultISR
     690              
     691                      .dwfde $C$DW$CIE, _USER6_ISR
TMS320C2000 Assembler PC v6.4.2 Thu Dec 14 15:26:09 2017

Tools Copyright (c) 1996-2015 Texas Instruments Incorporated
F2837xS_DefaultISR.asm                                               PAGE   14

     692              
     693              ;***************************************************************
     694              ;* FNAME: _USER6_ISR                    FR SIZE:   4           *
     695              ;*                                                             *
     696              ;* FUNCTION ENVIRONMENT                                        *
     697              ;*                                                             *
     698              ;* FUNCTION PROPERTIES                                         *
     699              ;*                            0 Parameter,  0 Auto,  4 SOE     *
     700              ;***************************************************************
     701              
     702 00000078       _USER6_ISR:
     703                      .dwcfi  cfa_offset, -2
     704                      .dwcfi  save_reg_to_mem, 26, 0
     705 00000078 761B          ASP       ; [CPU_] 
     706 00000079 FFF0          PUSH      RB                    ; [CPU_] 
     707                      .dwcfi  save_reg_to_mem, 73, 2
     708                      .dwcfi  save_reg_to_mem, 74, 3
     709                      .dwcfi  cfa_offset, -4
     710 0000007a E200          MOV32     *SP++,STF             ; [CPU_] 
         0000007b 00BD 
     711                      .dwcfi  save_reg_to_mem, 39, 4
     712                      .dwcfi  save_reg_to_mem, 40, 5
     713                      .dwcfi  cfa_offset, -6
     714 0000007c E630          SETFLG    RNDF32=1, RNDF64=1    ; [CPU_] 
         0000007d 0600 
     715 0000007e 2942          CLRC      PAGE0,OVM             ; [CPU_] 
     716 0000007f 5616          CLRC      AMODE                 ; [CPU_] 
     717                      .dwpsn  file "C:/ti/controlSUITE/device_support/F2837xS/v170/F2837xS_common/source/F2837xS_DefaultISR
     718 00000080 7625        ESTOP0
     719 00000081       $C$L13:    
     720                      .dwpsn  file "C:/ti/controlSUITE/device_support/F2837xS/v170/F2837xS_common/source/F2837xS_DefaultISR
     721 00000081 6F00          B         $C$L13,UNC            ; [CPU_] |158| 
     722                      ; branch occurs ; [] |158| 
     723                      .dwattr $C$DW$13, DW_AT_TI_end_file("C:/ti/controlSUITE/device_support/F2837xS/v170/F2837xS_common/so
     724                      .dwattr $C$DW$13, DW_AT_TI_end_line(0x9f)
     725                      .dwattr $C$DW$13, DW_AT_TI_end_column(0x01)
     726                      .dwendentry
     727                      .dwendtag $C$DW$13
     728              
     729 00000082               .sect   ".text:retain"
     730                      .retain
     731                      .retainrefs
     732                      .global _USER7_ISR
     733              
     734              $C$DW$14        .dwtag  DW_TAG_subprogram, DW_AT_name("USER7_ISR")
     735                      .dwattr $C$DW$14, DW_AT_low_pc(_USER7_ISR)
     736                      .dwattr $C$DW$14, DW_AT_high_pc(0x00)
     737                      .dwattr $C$DW$14, DW_AT_TI_symbol_name("_USER7_ISR")
     738                      .dwattr $C$DW$14, DW_AT_external
     739                      .dwattr $C$DW$14, DW_AT_TI_begin_file("C:/ti/controlSUITE/device_support/F2837xS/v170/F2837xS_common/
     740                      .dwattr $C$DW$14, DW_AT_TI_begin_line(0xa2)
     741                      .dwattr $C$DW$14, DW_AT_TI_begin_column(0x10)
     742                      .dwattr $C$DW$14, DW_AT_TI_interrupt
     743                      .dwattr $C$DW$14, DW_AT_TI_max_frame_size(-6)
     744                      .dwpsn  file "C:/ti/controlSUITE/device_support/F2837xS/v170/F2837xS_common/source/F2837xS_DefaultISR
TMS320C2000 Assembler PC v6.4.2 Thu Dec 14 15:26:09 2017

Tools Copyright (c) 1996-2015 Texas Instruments Incorporated
F2837xS_DefaultISR.asm                                               PAGE   15

     745              
     746                      .dwfde $C$DW$CIE, _USER7_ISR
     747              
     748              ;***************************************************************
     749              ;* FNAME: _USER7_ISR                    FR SIZE:   4           *
     750              ;*                                                             *
     751              ;* FUNCTION ENVIRONMENT                                        *
     752              ;*                                                             *
     753              ;* FUNCTION PROPERTIES                                         *
     754              ;*                            0 Parameter,  0 Auto,  4 SOE     *
     755              ;***************************************************************
     756              
     757 00000082       _USER7_ISR:
     758                      .dwcfi  cfa_offset, -2
     759                      .dwcfi  save_reg_to_mem, 26, 0
     760 00000082 761B          ASP       ; [CPU_] 
     761 00000083 FFF0          PUSH      RB                    ; [CPU_] 
     762                      .dwcfi  save_reg_to_mem, 73, 2
     763                      .dwcfi  save_reg_to_mem, 74, 3
     764                      .dwcfi  cfa_offset, -4
     765 00000084 E200          MOV32     *SP++,STF             ; [CPU_] 
         00000085 00BD 
     766                      .dwcfi  save_reg_to_mem, 39, 4
     767                      .dwcfi  save_reg_to_mem, 40, 5
     768                      .dwcfi  cfa_offset, -6
     769 00000086 E630          SETFLG    RNDF32=1, RNDF64=1    ; [CPU_] 
         00000087 0600 
     770 00000088 2942          CLRC      PAGE0,OVM             ; [CPU_] 
     771 00000089 5616          CLRC      AMODE                 ; [CPU_] 
     772                      .dwpsn  file "C:/ti/controlSUITE/device_support/F2837xS/v170/F2837xS_common/source/F2837xS_DefaultISR
     773 0000008a 7625        ESTOP0
     774 0000008b       $C$L14:    
     775                      .dwpsn  file "C:/ti/controlSUITE/device_support/F2837xS/v170/F2837xS_common/source/F2837xS_DefaultISR
     776 0000008b 6F00          B         $C$L14,UNC            ; [CPU_] |169| 
     777                      ; branch occurs ; [] |169| 
     778                      .dwattr $C$DW$14, DW_AT_TI_end_file("C:/ti/controlSUITE/device_support/F2837xS/v170/F2837xS_common/so
     779                      .dwattr $C$DW$14, DW_AT_TI_end_line(0xaa)
     780                      .dwattr $C$DW$14, DW_AT_TI_end_column(0x01)
     781                      .dwendentry
     782                      .dwendtag $C$DW$14
     783              
     784 0000008c               .sect   ".text:retain"
     785                      .retain
     786                      .retainrefs
     787                      .global _USER8_ISR
     788              
     789              $C$DW$15        .dwtag  DW_TAG_subprogram, DW_AT_name("USER8_ISR")
     790                      .dwattr $C$DW$15, DW_AT_low_pc(_USER8_ISR)
     791                      .dwattr $C$DW$15, DW_AT_high_pc(0x00)
     792                      .dwattr $C$DW$15, DW_AT_TI_symbol_name("_USER8_ISR")
     793                      .dwattr $C$DW$15, DW_AT_external
     794                      .dwattr $C$DW$15, DW_AT_TI_begin_file("C:/ti/controlSUITE/device_support/F2837xS/v170/F2837xS_common/
     795                      .dwattr $C$DW$15, DW_AT_TI_begin_line(0xad)
     796                      .dwattr $C$DW$15, DW_AT_TI_begin_column(0x10)
     797                      .dwattr $C$DW$15, DW_AT_TI_interrupt
TMS320C2000 Assembler PC v6.4.2 Thu Dec 14 15:26:09 2017

Tools Copyright (c) 1996-2015 Texas Instruments Incorporated
F2837xS_DefaultISR.asm                                               PAGE   16

     798                      .dwattr $C$DW$15, DW_AT_TI_max_frame_size(-6)
     799                      .dwpsn  file "C:/ti/controlSUITE/device_support/F2837xS/v170/F2837xS_common/source/F2837xS_DefaultISR
     800              
     801                      .dwfde $C$DW$CIE, _USER8_ISR
     802              
     803              ;***************************************************************
     804              ;* FNAME: _USER8_ISR                    FR SIZE:   4           *
     805              ;*                                                             *
     806              ;* FUNCTION ENVIRONMENT                                        *
     807              ;*                                                             *
     808              ;* FUNCTION PROPERTIES                                         *
     809              ;*                            0 Parameter,  0 Auto,  4 SOE     *
     810              ;***************************************************************
     811              
     812 0000008c       _USER8_ISR:
     813                      .dwcfi  cfa_offset, -2
     814                      .dwcfi  save_reg_to_mem, 26, 0
     815 0000008c 761B          ASP       ; [CPU_] 
     816 0000008d FFF0          PUSH      RB                    ; [CPU_] 
     817                      .dwcfi  save_reg_to_mem, 73, 2
     818                      .dwcfi  save_reg_to_mem, 74, 3
     819                      .dwcfi  cfa_offset, -4
     820 0000008e E200          MOV32     *SP++,STF             ; [CPU_] 
         0000008f 00BD 
     821                      .dwcfi  save_reg_to_mem, 39, 4
     822                      .dwcfi  save_reg_to_mem, 40, 5
     823                      .dwcfi  cfa_offset, -6
     824 00000090 E630          SETFLG    RNDF32=1, RNDF64=1    ; [CPU_] 
         00000091 0600 
     825 00000092 2942          CLRC      PAGE0,OVM             ; [CPU_] 
     826 00000093 5616          CLRC      AMODE                 ; [CPU_] 
     827                      .dwpsn  file "C:/ti/controlSUITE/device_support/F2837xS/v170/F2837xS_common/source/F2837xS_DefaultISR
     828 00000094 7625        ESTOP0
     829 00000095       $C$L15:    
     830                      .dwpsn  file "C:/ti/controlSUITE/device_support/F2837xS/v170/F2837xS_common/source/F2837xS_DefaultISR
     831 00000095 6F00          B         $C$L15,UNC            ; [CPU_] |180| 
     832                      ; branch occurs ; [] |180| 
     833                      .dwattr $C$DW$15, DW_AT_TI_end_file("C:/ti/controlSUITE/device_support/F2837xS/v170/F2837xS_common/so
     834                      .dwattr $C$DW$15, DW_AT_TI_end_line(0xb5)
     835                      .dwattr $C$DW$15, DW_AT_TI_end_column(0x01)
     836                      .dwendentry
     837                      .dwendtag $C$DW$15
     838              
     839 00000096               .sect   ".text:retain"
     840                      .retain
     841                      .retainrefs
     842                      .global _USER9_ISR
     843              
     844              $C$DW$16        .dwtag  DW_TAG_subprogram, DW_AT_name("USER9_ISR")
     845                      .dwattr $C$DW$16, DW_AT_low_pc(_USER9_ISR)
     846                      .dwattr $C$DW$16, DW_AT_high_pc(0x00)
     847                      .dwattr $C$DW$16, DW_AT_TI_symbol_name("_USER9_ISR")
     848                      .dwattr $C$DW$16, DW_AT_external
     849                      .dwattr $C$DW$16, DW_AT_TI_begin_file("C:/ti/controlSUITE/device_support/F2837xS/v170/F2837xS_common/
     850                      .dwattr $C$DW$16, DW_AT_TI_begin_line(0xb8)
TMS320C2000 Assembler PC v6.4.2 Thu Dec 14 15:26:09 2017

Tools Copyright (c) 1996-2015 Texas Instruments Incorporated
F2837xS_DefaultISR.asm                                               PAGE   17

     851                      .dwattr $C$DW$16, DW_AT_TI_begin_column(0x10)
     852                      .dwattr $C$DW$16, DW_AT_TI_interrupt
     853                      .dwattr $C$DW$16, DW_AT_TI_max_frame_size(-6)
     854                      .dwpsn  file "C:/ti/controlSUITE/device_support/F2837xS/v170/F2837xS_common/source/F2837xS_DefaultISR
     855              
     856                      .dwfde $C$DW$CIE, _USER9_ISR
     857              
     858              ;***************************************************************
     859              ;* FNAME: _USER9_ISR                    FR SIZE:   4           *
     860              ;*                                                             *
     861              ;* FUNCTION ENVIRONMENT                                        *
     862              ;*                                                             *
     863              ;* FUNCTION PROPERTIES                                         *
     864              ;*                            0 Parameter,  0 Auto,  4 SOE     *
     865              ;***************************************************************
     866              
     867 00000096       _USER9_ISR:
     868                      .dwcfi  cfa_offset, -2
     869                      .dwcfi  save_reg_to_mem, 26, 0
     870 00000096 761B          ASP       ; [CPU_] 
     871 00000097 FFF0          PUSH      RB                    ; [CPU_] 
     872                      .dwcfi  save_reg_to_mem, 73, 2
     873                      .dwcfi  save_reg_to_mem, 74, 3
     874                      .dwcfi  cfa_offset, -4
     875 00000098 E200          MOV32     *SP++,STF             ; [CPU_] 
         00000099 00BD 
     876                      .dwcfi  save_reg_to_mem, 39, 4
     877                      .dwcfi  save_reg_to_mem, 40, 5
     878                      .dwcfi  cfa_offset, -6
     879 0000009a E630          SETFLG    RNDF32=1, RNDF64=1    ; [CPU_] 
         0000009b 0600 
     880 0000009c 2942          CLRC      PAGE0,OVM             ; [CPU_] 
     881 0000009d 5616          CLRC      AMODE                 ; [CPU_] 
     882                      .dwpsn  file "C:/ti/controlSUITE/device_support/F2837xS/v170/F2837xS_common/source/F2837xS_DefaultISR
     883 0000009e 7625        ESTOP0
     884 0000009f       $C$L16:    
     885                      .dwpsn  file "C:/ti/controlSUITE/device_support/F2837xS/v170/F2837xS_common/source/F2837xS_DefaultISR
     886 0000009f 6F00          B         $C$L16,UNC            ; [CPU_] |191| 
     887                      ; branch occurs ; [] |191| 
     888                      .dwattr $C$DW$16, DW_AT_TI_end_file("C:/ti/controlSUITE/device_support/F2837xS/v170/F2837xS_common/so
     889                      .dwattr $C$DW$16, DW_AT_TI_end_line(0xc0)
     890                      .dwattr $C$DW$16, DW_AT_TI_end_column(0x01)
     891                      .dwendentry
     892                      .dwendtag $C$DW$16
     893              
     894 000000a0               .sect   ".text:retain"
     895                      .retain
     896                      .retainrefs
     897                      .global _USER10_ISR
     898              
     899              $C$DW$17        .dwtag  DW_TAG_subprogram, DW_AT_name("USER10_ISR")
     900                      .dwattr $C$DW$17, DW_AT_low_pc(_USER10_ISR)
     901                      .dwattr $C$DW$17, DW_AT_high_pc(0x00)
     902                      .dwattr $C$DW$17, DW_AT_TI_symbol_name("_USER10_ISR")
     903                      .dwattr $C$DW$17, DW_AT_external
TMS320C2000 Assembler PC v6.4.2 Thu Dec 14 15:26:09 2017

Tools Copyright (c) 1996-2015 Texas Instruments Incorporated
F2837xS_DefaultISR.asm                                               PAGE   18

     904                      .dwattr $C$DW$17, DW_AT_TI_begin_file("C:/ti/controlSUITE/device_support/F2837xS/v170/F2837xS_common/
     905                      .dwattr $C$DW$17, DW_AT_TI_begin_line(0xc3)
     906                      .dwattr $C$DW$17, DW_AT_TI_begin_column(0x10)
     907                      .dwattr $C$DW$17, DW_AT_TI_interrupt
     908                      .dwattr $C$DW$17, DW_AT_TI_max_frame_size(-6)
     909                      .dwpsn  file "C:/ti/controlSUITE/device_support/F2837xS/v170/F2837xS_common/source/F2837xS_DefaultISR
     910              
     911                      .dwfde $C$DW$CIE, _USER10_ISR
     912              
     913              ;***************************************************************
     914              ;* FNAME: _USER10_ISR                   FR SIZE:   4           *
     915              ;*                                                             *
     916              ;* FUNCTION ENVIRONMENT                                        *
     917              ;*                                                             *
     918              ;* FUNCTION PROPERTIES                                         *
     919              ;*                            0 Parameter,  0 Auto,  4 SOE     *
     920              ;***************************************************************
     921              
     922 000000a0       _USER10_ISR:
     923                      .dwcfi  cfa_offset, -2
     924                      .dwcfi  save_reg_to_mem, 26, 0
     925 000000a0 761B          ASP       ; [CPU_] 
     926 000000a1 FFF0          PUSH      RB                    ; [CPU_] 
     927                      .dwcfi  save_reg_to_mem, 73, 2
     928                      .dwcfi  save_reg_to_mem, 74, 3
     929                      .dwcfi  cfa_offset, -4
     930 000000a2 E200          MOV32     *SP++,STF             ; [CPU_] 
         000000a3 00BD 
     931                      .dwcfi  save_reg_to_mem, 39, 4
     932                      .dwcfi  save_reg_to_mem, 40, 5
     933                      .dwcfi  cfa_offset, -6
     934 000000a4 E630          SETFLG    RNDF32=1, RNDF64=1    ; [CPU_] 
         000000a5 0600 
     935 000000a6 2942          CLRC      PAGE0,OVM             ; [CPU_] 
     936 000000a7 5616          CLRC      AMODE                 ; [CPU_] 
     937                      .dwpsn  file "C:/ti/controlSUITE/device_support/F2837xS/v170/F2837xS_common/source/F2837xS_DefaultISR
     938 000000a8 7625        ESTOP0
     939 000000a9       $C$L17:    
     940                      .dwpsn  file "C:/ti/controlSUITE/device_support/F2837xS/v170/F2837xS_common/source/F2837xS_DefaultISR
     941 000000a9 6F00          B         $C$L17,UNC            ; [CPU_] |202| 
     942                      ; branch occurs ; [] |202| 
     943                      .dwattr $C$DW$17, DW_AT_TI_end_file("C:/ti/controlSUITE/device_support/F2837xS/v170/F2837xS_common/so
     944                      .dwattr $C$DW$17, DW_AT_TI_end_line(0xcb)
     945                      .dwattr $C$DW$17, DW_AT_TI_end_column(0x01)
     946                      .dwendentry
     947                      .dwendtag $C$DW$17
     948              
     949 000000aa               .sect   ".text:retain"
     950                      .retain
     951                      .retainrefs
     952                      .global _USER11_ISR
     953              
     954              $C$DW$18        .dwtag  DW_TAG_subprogram, DW_AT_name("USER11_ISR")
     955                      .dwattr $C$DW$18, DW_AT_low_pc(_USER11_ISR)
     956                      .dwattr $C$DW$18, DW_AT_high_pc(0x00)
TMS320C2000 Assembler PC v6.4.2 Thu Dec 14 15:26:09 2017

Tools Copyright (c) 1996-2015 Texas Instruments Incorporated
F2837xS_DefaultISR.asm                                               PAGE   19

     957                      .dwattr $C$DW$18, DW_AT_TI_symbol_name("_USER11_ISR")
     958                      .dwattr $C$DW$18, DW_AT_external
     959                      .dwattr $C$DW$18, DW_AT_TI_begin_file("C:/ti/controlSUITE/device_support/F2837xS/v170/F2837xS_common/
     960                      .dwattr $C$DW$18, DW_AT_TI_begin_line(0xce)
     961                      .dwattr $C$DW$18, DW_AT_TI_begin_column(0x10)
     962                      .dwattr $C$DW$18, DW_AT_TI_interrupt
     963                      .dwattr $C$DW$18, DW_AT_TI_max_frame_size(-6)
     964                      .dwpsn  file "C:/ti/controlSUITE/device_support/F2837xS/v170/F2837xS_common/source/F2837xS_DefaultISR
     965              
     966                      .dwfde $C$DW$CIE, _USER11_ISR
     967              
     968              ;***************************************************************
     969              ;* FNAME: _USER11_ISR                   FR SIZE:   4           *
     970              ;*                                                             *
     971              ;* FUNCTION ENVIRONMENT                                        *
     972              ;*                                                             *
     973              ;* FUNCTION PROPERTIES                                         *
     974              ;*                            0 Parameter,  0 Auto,  4 SOE     *
     975              ;***************************************************************
     976              
     977 000000aa       _USER11_ISR:
     978                      .dwcfi  cfa_offset, -2
     979                      .dwcfi  save_reg_to_mem, 26, 0
     980 000000aa 761B          ASP       ; [CPU_] 
     981 000000ab FFF0          PUSH      RB                    ; [CPU_] 
     982                      .dwcfi  save_reg_to_mem, 73, 2
     983                      .dwcfi  save_reg_to_mem, 74, 3
     984                      .dwcfi  cfa_offset, -4
     985 000000ac E200          MOV32     *SP++,STF             ; [CPU_] 
         000000ad 00BD 
     986                      .dwcfi  save_reg_to_mem, 39, 4
     987                      .dwcfi  save_reg_to_mem, 40, 5
     988                      .dwcfi  cfa_offset, -6
     989 000000ae E630          SETFLG    RNDF32=1, RNDF64=1    ; [CPU_] 
         000000af 0600 
     990 000000b0 2942          CLRC      PAGE0,OVM             ; [CPU_] 
     991 000000b1 5616          CLRC      AMODE                 ; [CPU_] 
     992                      .dwpsn  file "C:/ti/controlSUITE/device_support/F2837xS/v170/F2837xS_common/source/F2837xS_DefaultISR
     993 000000b2 7625        ESTOP0
     994 000000b3       $C$L18:    
     995                      .dwpsn  file "C:/ti/controlSUITE/device_support/F2837xS/v170/F2837xS_common/source/F2837xS_DefaultISR
     996 000000b3 6F00          B         $C$L18,UNC            ; [CPU_] |213| 
     997                      ; branch occurs ; [] |213| 
     998                      .dwattr $C$DW$18, DW_AT_TI_end_file("C:/ti/controlSUITE/device_support/F2837xS/v170/F2837xS_common/so
     999                      .dwattr $C$DW$18, DW_AT_TI_end_line(0xd6)
    1000                      .dwattr $C$DW$18, DW_AT_TI_end_column(0x01)
    1001                      .dwendentry
    1002                      .dwendtag $C$DW$18
    1003              
    1004 000000b4               .sect   ".text:retain"
    1005                      .retain
    1006                      .retainrefs
    1007                      .global _USER12_ISR
    1008              
    1009              $C$DW$19        .dwtag  DW_TAG_subprogram, DW_AT_name("USER12_ISR")
TMS320C2000 Assembler PC v6.4.2 Thu Dec 14 15:26:09 2017

Tools Copyright (c) 1996-2015 Texas Instruments Incorporated
F2837xS_DefaultISR.asm                                               PAGE   20

    1010                      .dwattr $C$DW$19, DW_AT_low_pc(_USER12_ISR)
    1011                      .dwattr $C$DW$19, DW_AT_high_pc(0x00)
    1012                      .dwattr $C$DW$19, DW_AT_TI_symbol_name("_USER12_ISR")
    1013                      .dwattr $C$DW$19, DW_AT_external
    1014                      .dwattr $C$DW$19, DW_AT_TI_begin_file("C:/ti/controlSUITE/device_support/F2837xS/v170/F2837xS_common/
    1015                      .dwattr $C$DW$19, DW_AT_TI_begin_line(0xd9)
    1016                      .dwattr $C$DW$19, DW_AT_TI_begin_column(0x10)
    1017                      .dwattr $C$DW$19, DW_AT_TI_interrupt
    1018                      .dwattr $C$DW$19, DW_AT_TI_max_frame_size(-6)
    1019                      .dwpsn  file "C:/ti/controlSUITE/device_support/F2837xS/v170/F2837xS_common/source/F2837xS_DefaultISR
    1020              
    1021                      .dwfde $C$DW$CIE, _USER12_ISR
    1022              
    1023              ;***************************************************************
    1024              ;* FNAME: _USER12_ISR                   FR SIZE:   4           *
    1025              ;*                                                             *
    1026              ;* FUNCTION ENVIRONMENT                                        *
    1027              ;*                                                             *
    1028              ;* FUNCTION PROPERTIES                                         *
    1029              ;*                            0 Parameter,  0 Auto,  4 SOE     *
    1030              ;***************************************************************
    1031              
    1032 000000b4       _USER12_ISR:
    1033                      .dwcfi  cfa_offset, -2
    1034                      .dwcfi  save_reg_to_mem, 26, 0
    1035 000000b4 761B          ASP       ; [CPU_] 
    1036 000000b5 FFF0          PUSH      RB                    ; [CPU_] 
    1037                      .dwcfi  save_reg_to_mem, 73, 2
    1038                      .dwcfi  save_reg_to_mem, 74, 3
    1039                      .dwcfi  cfa_offset, -4
    1040 000000b6 E200          MOV32     *SP++,STF             ; [CPU_] 
         000000b7 00BD 
    1041                      .dwcfi  save_reg_to_mem, 39, 4
    1042                      .dwcfi  save_reg_to_mem, 40, 5
    1043                      .dwcfi  cfa_offset, -6
    1044 000000b8 E630          SETFLG    RNDF32=1, RNDF64=1    ; [CPU_] 
         000000b9 0600 
    1045 000000ba 2942          CLRC      PAGE0,OVM             ; [CPU_] 
    1046 000000bb 5616          CLRC      AMODE                 ; [CPU_] 
    1047                      .dwpsn  file "C:/ti/controlSUITE/device_support/F2837xS/v170/F2837xS_common/source/F2837xS_DefaultISR
    1048 000000bc 7625        ESTOP0
    1049 000000bd       $C$L19:    
    1050                      .dwpsn  file "C:/ti/controlSUITE/device_support/F2837xS/v170/F2837xS_common/source/F2837xS_DefaultISR
    1051 000000bd 6F00          B         $C$L19,UNC            ; [CPU_] |224| 
    1052                      ; branch occurs ; [] |224| 
    1053                      .dwattr $C$DW$19, DW_AT_TI_end_file("C:/ti/controlSUITE/device_support/F2837xS/v170/F2837xS_common/so
    1054                      .dwattr $C$DW$19, DW_AT_TI_end_line(0xe1)
    1055                      .dwattr $C$DW$19, DW_AT_TI_end_column(0x01)
    1056                      .dwendentry
    1057                      .dwendtag $C$DW$19
    1058              
    1059 000000be               .sect   ".text:retain"
    1060                      .retain
    1061                      .retainrefs
    1062                      .global _ADCA1_ISR
TMS320C2000 Assembler PC v6.4.2 Thu Dec 14 15:26:09 2017

Tools Copyright (c) 1996-2015 Texas Instruments Incorporated
F2837xS_DefaultISR.asm                                               PAGE   21

    1063              
    1064              $C$DW$20        .dwtag  DW_TAG_subprogram, DW_AT_name("ADCA1_ISR")
    1065                      .dwattr $C$DW$20, DW_AT_low_pc(_ADCA1_ISR)
    1066                      .dwattr $C$DW$20, DW_AT_high_pc(0x00)
    1067                      .dwattr $C$DW$20, DW_AT_TI_symbol_name("_ADCA1_ISR")
    1068                      .dwattr $C$DW$20, DW_AT_external
    1069                      .dwattr $C$DW$20, DW_AT_TI_begin_file("C:/ti/controlSUITE/device_support/F2837xS/v170/F2837xS_common/
    1070                      .dwattr $C$DW$20, DW_AT_TI_begin_line(0xe4)
    1071                      .dwattr $C$DW$20, DW_AT_TI_begin_column(0x10)
    1072                      .dwattr $C$DW$20, DW_AT_TI_interrupt
    1073                      .dwattr $C$DW$20, DW_AT_TI_max_frame_size(-6)
    1074                      .dwpsn  file "C:/ti/controlSUITE/device_support/F2837xS/v170/F2837xS_common/source/F2837xS_DefaultISR
    1075              
    1076                      .dwfde $C$DW$CIE, _ADCA1_ISR
    1077              
    1078              ;***************************************************************
    1079              ;* FNAME: _ADCA1_ISR                    FR SIZE:   4           *
    1080              ;*                                                             *
    1081              ;* FUNCTION ENVIRONMENT                                        *
    1082              ;*                                                             *
    1083              ;* FUNCTION PROPERTIES                                         *
    1084              ;*                            0 Parameter,  0 Auto,  4 SOE     *
    1085              ;***************************************************************
    1086              
    1087 000000be       _ADCA1_ISR:
    1088                      .dwcfi  cfa_offset, -2
    1089                      .dwcfi  save_reg_to_mem, 26, 0
    1090 000000be 761B          ASP       ; [CPU_] 
    1091 000000bf FFF0          PUSH      RB                    ; [CPU_] 
    1092                      .dwcfi  save_reg_to_mem, 73, 2
    1093                      .dwcfi  save_reg_to_mem, 74, 3
    1094                      .dwcfi  cfa_offset, -4
    1095 000000c0 E200          MOV32     *SP++,STF             ; [CPU_] 
         000000c1 00BD 
    1096                      .dwcfi  save_reg_to_mem, 39, 4
    1097                      .dwcfi  save_reg_to_mem, 40, 5
    1098                      .dwcfi  cfa_offset, -6
    1099 000000c2 E630          SETFLG    RNDF32=1, RNDF64=1    ; [CPU_] 
         000000c3 0600 
    1100 000000c4 2942          CLRC      PAGE0,OVM             ; [CPU_] 
    1101 000000c5 5616          CLRC      AMODE                 ; [CPU_] 
    1102                      .dwpsn  file "C:/ti/controlSUITE/device_support/F2837xS/v170/F2837xS_common/source/F2837xS_DefaultISR
    1103 000000c6 7625        ESTOP0
    1104 000000c7       $C$L20:    
    1105                      .dwpsn  file "C:/ti/controlSUITE/device_support/F2837xS/v170/F2837xS_common/source/F2837xS_DefaultISR
    1106 000000c7 6F00          B         $C$L20,UNC            ; [CPU_] |239| 
    1107                      ; branch occurs ; [] |239| 
    1108                      .dwattr $C$DW$20, DW_AT_TI_end_file("C:/ti/controlSUITE/device_support/F2837xS/v170/F2837xS_common/so
    1109                      .dwattr $C$DW$20, DW_AT_TI_end_line(0xf0)
    1110                      .dwattr $C$DW$20, DW_AT_TI_end_column(0x01)
    1111                      .dwendentry
    1112                      .dwendtag $C$DW$20
    1113              
    1114 000000c8               .sect   ".text:retain"
    1115                      .retain
TMS320C2000 Assembler PC v6.4.2 Thu Dec 14 15:26:09 2017

Tools Copyright (c) 1996-2015 Texas Instruments Incorporated
F2837xS_DefaultISR.asm                                               PAGE   22

    1116                      .retainrefs
    1117                      .global _ADCB1_ISR
    1118              
    1119              $C$DW$21        .dwtag  DW_TAG_subprogram, DW_AT_name("ADCB1_ISR")
    1120                      .dwattr $C$DW$21, DW_AT_low_pc(_ADCB1_ISR)
    1121                      .dwattr $C$DW$21, DW_AT_high_pc(0x00)
    1122                      .dwattr $C$DW$21, DW_AT_TI_symbol_name("_ADCB1_ISR")
    1123                      .dwattr $C$DW$21, DW_AT_external
    1124                      .dwattr $C$DW$21, DW_AT_TI_begin_file("C:/ti/controlSUITE/device_support/F2837xS/v170/F2837xS_common/
    1125                      .dwattr $C$DW$21, DW_AT_TI_begin_line(0xf3)
    1126                      .dwattr $C$DW$21, DW_AT_TI_begin_column(0x10)
    1127                      .dwattr $C$DW$21, DW_AT_TI_interrupt
    1128                      .dwattr $C$DW$21, DW_AT_TI_max_frame_size(-6)
    1129                      .dwpsn  file "C:/ti/controlSUITE/device_support/F2837xS/v170/F2837xS_common/source/F2837xS_DefaultISR
    1130              
    1131                      .dwfde $C$DW$CIE, _ADCB1_ISR
    1132              
    1133              ;***************************************************************
    1134              ;* FNAME: _ADCB1_ISR                    FR SIZE:   4           *
    1135              ;*                                                             *
    1136              ;* FUNCTION ENVIRONMENT                                        *
    1137              ;*                                                             *
    1138              ;* FUNCTION PROPERTIES                                         *
    1139              ;*                            0 Parameter,  0 Auto,  4 SOE     *
    1140              ;***************************************************************
    1141              
    1142 000000c8       _ADCB1_ISR:
    1143                      .dwcfi  cfa_offset, -2
    1144                      .dwcfi  save_reg_to_mem, 26, 0
    1145 000000c8 761B          ASP       ; [CPU_] 
    1146 000000c9 FFF0          PUSH      RB                    ; [CPU_] 
    1147                      .dwcfi  save_reg_to_mem, 73, 2
    1148                      .dwcfi  save_reg_to_mem, 74, 3
    1149                      .dwcfi  cfa_offset, -4
    1150 000000ca E200          MOV32     *SP++,STF             ; [CPU_] 
         000000cb 00BD 
    1151                      .dwcfi  save_reg_to_mem, 39, 4
    1152                      .dwcfi  save_reg_to_mem, 40, 5
    1153                      .dwcfi  cfa_offset, -6
    1154 000000cc E630          SETFLG    RNDF32=1, RNDF64=1    ; [CPU_] 
         000000cd 0600 
    1155 000000ce 2942          CLRC      PAGE0,OVM             ; [CPU_] 
    1156 000000cf 5616          CLRC      AMODE                 ; [CPU_] 
    1157                      .dwpsn  file "C:/ti/controlSUITE/device_support/F2837xS/v170/F2837xS_common/source/F2837xS_DefaultISR
    1158 000000d0 7625        ESTOP0
    1159 000000d1       $C$L21:    
    1160                      .dwpsn  file "C:/ti/controlSUITE/device_support/F2837xS/v170/F2837xS_common/source/F2837xS_DefaultISR
    1161 000000d1 6F00          B         $C$L21,UNC            ; [CPU_] |254| 
    1162                      ; branch occurs ; [] |254| 
    1163                      .dwattr $C$DW$21, DW_AT_TI_end_file("C:/ti/controlSUITE/device_support/F2837xS/v170/F2837xS_common/so
    1164                      .dwattr $C$DW$21, DW_AT_TI_end_line(0xff)
    1165                      .dwattr $C$DW$21, DW_AT_TI_end_column(0x01)
    1166                      .dwendentry
    1167                      .dwendtag $C$DW$21
    1168              
TMS320C2000 Assembler PC v6.4.2 Thu Dec 14 15:26:09 2017

Tools Copyright (c) 1996-2015 Texas Instruments Incorporated
F2837xS_DefaultISR.asm                                               PAGE   23

    1169 000000d2               .sect   ".text:retain"
    1170                      .retain
    1171                      .retainrefs
    1172                      .global _ADCC1_ISR
    1173              
    1174              $C$DW$22        .dwtag  DW_TAG_subprogram, DW_AT_name("ADCC1_ISR")
    1175                      .dwattr $C$DW$22, DW_AT_low_pc(_ADCC1_ISR)
    1176                      .dwattr $C$DW$22, DW_AT_high_pc(0x00)
    1177                      .dwattr $C$DW$22, DW_AT_TI_symbol_name("_ADCC1_ISR")
    1178                      .dwattr $C$DW$22, DW_AT_external
    1179                      .dwattr $C$DW$22, DW_AT_TI_begin_file("C:/ti/controlSUITE/device_support/F2837xS/v170/F2837xS_common/
    1180                      .dwattr $C$DW$22, DW_AT_TI_begin_line(0x102)
    1181                      .dwattr $C$DW$22, DW_AT_TI_begin_column(0x10)
    1182                      .dwattr $C$DW$22, DW_AT_TI_interrupt
    1183                      .dwattr $C$DW$22, DW_AT_TI_max_frame_size(-6)
    1184                      .dwpsn  file "C:/ti/controlSUITE/device_support/F2837xS/v170/F2837xS_common/source/F2837xS_DefaultISR
    1185              
    1186                      .dwfde $C$DW$CIE, _ADCC1_ISR
    1187              
    1188              ;***************************************************************
    1189              ;* FNAME: _ADCC1_ISR                    FR SIZE:   4           *
    1190              ;*                                                             *
    1191              ;* FUNCTION ENVIRONMENT                                        *
    1192              ;*                                                             *
    1193              ;* FUNCTION PROPERTIES                                         *
    1194              ;*                            0 Parameter,  0 Auto,  4 SOE     *
    1195              ;***************************************************************
    1196              
    1197 000000d2       _ADCC1_ISR:
    1198                      .dwcfi  cfa_offset, -2
    1199                      .dwcfi  save_reg_to_mem, 26, 0
    1200 000000d2 761B          ASP       ; [CPU_] 
    1201 000000d3 FFF0          PUSH      RB                    ; [CPU_] 
    1202                      .dwcfi  save_reg_to_mem, 73, 2
    1203                      .dwcfi  save_reg_to_mem, 74, 3
    1204                      .dwcfi  cfa_offset, -4
    1205 000000d4 E200          MOV32     *SP++,STF             ; [CPU_] 
         000000d5 00BD 
    1206                      .dwcfi  save_reg_to_mem, 39, 4
    1207                      .dwcfi  save_reg_to_mem, 40, 5
    1208                      .dwcfi  cfa_offset, -6
    1209 000000d6 E630          SETFLG    RNDF32=1, RNDF64=1    ; [CPU_] 
         000000d7 0600 
    1210 000000d8 2942          CLRC      PAGE0,OVM             ; [CPU_] 
    1211 000000d9 5616          CLRC      AMODE                 ; [CPU_] 
    1212                      .dwpsn  file "C:/ti/controlSUITE/device_support/F2837xS/v170/F2837xS_common/source/F2837xS_DefaultISR
    1213 000000da 7625        ESTOP0
    1214 000000db       $C$L22:    
    1215                      .dwpsn  file "C:/ti/controlSUITE/device_support/F2837xS/v170/F2837xS_common/source/F2837xS_DefaultISR
    1216 000000db 6F00          B         $C$L22,UNC            ; [CPU_] |269| 
    1217                      ; branch occurs ; [] |269| 
    1218                      .dwattr $C$DW$22, DW_AT_TI_end_file("C:/ti/controlSUITE/device_support/F2837xS/v170/F2837xS_common/so
    1219                      .dwattr $C$DW$22, DW_AT_TI_end_line(0x10e)
    1220                      .dwattr $C$DW$22, DW_AT_TI_end_column(0x01)
    1221                      .dwendentry
TMS320C2000 Assembler PC v6.4.2 Thu Dec 14 15:26:09 2017

Tools Copyright (c) 1996-2015 Texas Instruments Incorporated
F2837xS_DefaultISR.asm                                               PAGE   24

    1222                      .dwendtag $C$DW$22
    1223              
    1224 000000dc               .sect   ".text:retain"
    1225                      .retain
    1226                      .retainrefs
    1227                      .global _XINT1_ISR
    1228              
    1229              $C$DW$23        .dwtag  DW_TAG_subprogram, DW_AT_name("XINT1_ISR")
    1230                      .dwattr $C$DW$23, DW_AT_low_pc(_XINT1_ISR)
    1231                      .dwattr $C$DW$23, DW_AT_high_pc(0x00)
    1232                      .dwattr $C$DW$23, DW_AT_TI_symbol_name("_XINT1_ISR")
    1233                      .dwattr $C$DW$23, DW_AT_external
    1234                      .dwattr $C$DW$23, DW_AT_TI_begin_file("C:/ti/controlSUITE/device_support/F2837xS/v170/F2837xS_common/
    1235                      .dwattr $C$DW$23, DW_AT_TI_begin_line(0x111)
    1236                      .dwattr $C$DW$23, DW_AT_TI_begin_column(0x10)
    1237                      .dwattr $C$DW$23, DW_AT_TI_interrupt
    1238                      .dwattr $C$DW$23, DW_AT_TI_max_frame_size(-6)
    1239                      .dwpsn  file "C:/ti/controlSUITE/device_support/F2837xS/v170/F2837xS_common/source/F2837xS_DefaultISR
    1240              
    1241                      .dwfde $C$DW$CIE, _XINT1_ISR
    1242              
    1243              ;***************************************************************
    1244              ;* FNAME: _XINT1_ISR                    FR SIZE:   4           *
    1245              ;*                                                             *
    1246              ;* FUNCTION ENVIRONMENT                                        *
    1247              ;*                                                             *
    1248              ;* FUNCTION PROPERTIES                                         *
    1249              ;*                            0 Parameter,  0 Auto,  4 SOE     *
    1250              ;***************************************************************
    1251              
    1252 000000dc       _XINT1_ISR:
    1253                      .dwcfi  cfa_offset, -2
    1254                      .dwcfi  save_reg_to_mem, 26, 0
    1255 000000dc 761B          ASP       ; [CPU_] 
    1256 000000dd FFF0          PUSH      RB                    ; [CPU_] 
    1257                      .dwcfi  save_reg_to_mem, 73, 2
    1258                      .dwcfi  save_reg_to_mem, 74, 3
    1259                      .dwcfi  cfa_offset, -4
    1260 000000de E200          MOV32     *SP++,STF             ; [CPU_] 
         000000df 00BD 
    1261                      .dwcfi  save_reg_to_mem, 39, 4
    1262                      .dwcfi  save_reg_to_mem, 40, 5
    1263                      .dwcfi  cfa_offset, -6
    1264 000000e0 E630          SETFLG    RNDF32=1, RNDF64=1    ; [CPU_] 
         000000e1 0600 
    1265 000000e2 2942          CLRC      PAGE0,OVM             ; [CPU_] 
    1266 000000e3 5616          CLRC      AMODE                 ; [CPU_] 
    1267                      .dwpsn  file "C:/ti/controlSUITE/device_support/F2837xS/v170/F2837xS_common/source/F2837xS_DefaultISR
    1268 000000e4 7625        ESTOP0
    1269 000000e5       $C$L23:    
    1270                      .dwpsn  file "C:/ti/controlSUITE/device_support/F2837xS/v170/F2837xS_common/source/F2837xS_DefaultISR
    1271 000000e5 6F00          B         $C$L23,UNC            ; [CPU_] |284| 
    1272                      ; branch occurs ; [] |284| 
    1273                      .dwattr $C$DW$23, DW_AT_TI_end_file("C:/ti/controlSUITE/device_support/F2837xS/v170/F2837xS_common/so
    1274                      .dwattr $C$DW$23, DW_AT_TI_end_line(0x11d)
TMS320C2000 Assembler PC v6.4.2 Thu Dec 14 15:26:09 2017

Tools Copyright (c) 1996-2015 Texas Instruments Incorporated
F2837xS_DefaultISR.asm                                               PAGE   25

    1275                      .dwattr $C$DW$23, DW_AT_TI_end_column(0x01)
    1276                      .dwendentry
    1277                      .dwendtag $C$DW$23
    1278              
    1279 000000e6               .sect   ".text:retain"
    1280                      .retain
    1281                      .retainrefs
    1282                      .global _XINT2_ISR
    1283              
    1284              $C$DW$24        .dwtag  DW_TAG_subprogram, DW_AT_name("XINT2_ISR")
    1285                      .dwattr $C$DW$24, DW_AT_low_pc(_XINT2_ISR)
    1286                      .dwattr $C$DW$24, DW_AT_high_pc(0x00)
    1287                      .dwattr $C$DW$24, DW_AT_TI_symbol_name("_XINT2_ISR")
    1288                      .dwattr $C$DW$24, DW_AT_external
    1289                      .dwattr $C$DW$24, DW_AT_TI_begin_file("C:/ti/controlSUITE/device_support/F2837xS/v170/F2837xS_common/
    1290                      .dwattr $C$DW$24, DW_AT_TI_begin_line(0x120)
    1291                      .dwattr $C$DW$24, DW_AT_TI_begin_column(0x10)
    1292                      .dwattr $C$DW$24, DW_AT_TI_interrupt
    1293                      .dwattr $C$DW$24, DW_AT_TI_max_frame_size(-6)
    1294                      .dwpsn  file "C:/ti/controlSUITE/device_support/F2837xS/v170/F2837xS_common/source/F2837xS_DefaultISR
    1295              
    1296                      .dwfde $C$DW$CIE, _XINT2_ISR
    1297              
    1298              ;***************************************************************
    1299              ;* FNAME: _XINT2_ISR                    FR SIZE:   4           *
    1300              ;*                                                             *
    1301              ;* FUNCTION ENVIRONMENT                                        *
    1302              ;*                                                             *
    1303              ;* FUNCTION PROPERTIES                                         *
    1304              ;*                            0 Parameter,  0 Auto,  4 SOE     *
    1305              ;***************************************************************
    1306              
    1307 000000e6       _XINT2_ISR:
    1308                      .dwcfi  cfa_offset, -2
    1309                      .dwcfi  save_reg_to_mem, 26, 0
    1310 000000e6 761B          ASP       ; [CPU_] 
    1311 000000e7 FFF0          PUSH      RB                    ; [CPU_] 
    1312                      .dwcfi  save_reg_to_mem, 73, 2
    1313                      .dwcfi  save_reg_to_mem, 74, 3
    1314                      .dwcfi  cfa_offset, -4
    1315 000000e8 E200          MOV32     *SP++,STF             ; [CPU_] 
         000000e9 00BD 
    1316                      .dwcfi  save_reg_to_mem, 39, 4
    1317                      .dwcfi  save_reg_to_mem, 40, 5
    1318                      .dwcfi  cfa_offset, -6
    1319 000000ea E630          SETFLG    RNDF32=1, RNDF64=1    ; [CPU_] 
         000000eb 0600 
    1320 000000ec 2942          CLRC      PAGE0,OVM             ; [CPU_] 
    1321 000000ed 5616          CLRC      AMODE                 ; [CPU_] 
    1322                      .dwpsn  file "C:/ti/controlSUITE/device_support/F2837xS/v170/F2837xS_common/source/F2837xS_DefaultISR
    1323 000000ee 7625        ESTOP0
    1324 000000ef       $C$L24:    
    1325                      .dwpsn  file "C:/ti/controlSUITE/device_support/F2837xS/v170/F2837xS_common/source/F2837xS_DefaultISR
    1326 000000ef 6F00          B         $C$L24,UNC            ; [CPU_] |299| 
    1327                      ; branch occurs ; [] |299| 
TMS320C2000 Assembler PC v6.4.2 Thu Dec 14 15:26:09 2017

Tools Copyright (c) 1996-2015 Texas Instruments Incorporated
F2837xS_DefaultISR.asm                                               PAGE   26

    1328                      .dwattr $C$DW$24, DW_AT_TI_end_file("C:/ti/controlSUITE/device_support/F2837xS/v170/F2837xS_common/so
    1329                      .dwattr $C$DW$24, DW_AT_TI_end_line(0x12c)
    1330                      .dwattr $C$DW$24, DW_AT_TI_end_column(0x01)
    1331                      .dwendentry
    1332                      .dwendtag $C$DW$24
    1333              
    1334 000000f0               .sect   ".text:retain"
    1335                      .retain
    1336                      .retainrefs
    1337                      .global _ADCD1_ISR
    1338              
    1339              $C$DW$25        .dwtag  DW_TAG_subprogram, DW_AT_name("ADCD1_ISR")
    1340                      .dwattr $C$DW$25, DW_AT_low_pc(_ADCD1_ISR)
    1341                      .dwattr $C$DW$25, DW_AT_high_pc(0x00)
    1342                      .dwattr $C$DW$25, DW_AT_TI_symbol_name("_ADCD1_ISR")
    1343                      .dwattr $C$DW$25, DW_AT_external
    1344                      .dwattr $C$DW$25, DW_AT_TI_begin_file("C:/ti/controlSUITE/device_support/F2837xS/v170/F2837xS_common/
    1345                      .dwattr $C$DW$25, DW_AT_TI_begin_line(0x12f)
    1346                      .dwattr $C$DW$25, DW_AT_TI_begin_column(0x10)
    1347                      .dwattr $C$DW$25, DW_AT_TI_interrupt
    1348                      .dwattr $C$DW$25, DW_AT_TI_max_frame_size(-6)
    1349                      .dwpsn  file "C:/ti/controlSUITE/device_support/F2837xS/v170/F2837xS_common/source/F2837xS_DefaultISR
    1350              
    1351                      .dwfde $C$DW$CIE, _ADCD1_ISR
    1352              
    1353              ;***************************************************************
    1354              ;* FNAME: _ADCD1_ISR                    FR SIZE:   4           *
    1355              ;*                                                             *
    1356              ;* FUNCTION ENVIRONMENT                                        *
    1357              ;*                                                             *
    1358              ;* FUNCTION PROPERTIES                                         *
    1359              ;*                            0 Parameter,  0 Auto,  4 SOE     *
    1360              ;***************************************************************
    1361              
    1362 000000f0       _ADCD1_ISR:
    1363                      .dwcfi  cfa_offset, -2
    1364                      .dwcfi  save_reg_to_mem, 26, 0
    1365 000000f0 761B          ASP       ; [CPU_] 
    1366 000000f1 FFF0          PUSH      RB                    ; [CPU_] 
    1367                      .dwcfi  save_reg_to_mem, 73, 2
    1368                      .dwcfi  save_reg_to_mem, 74, 3
    1369                      .dwcfi  cfa_offset, -4
    1370 000000f2 E200          MOV32     *SP++,STF             ; [CPU_] 
         000000f3 00BD 
    1371                      .dwcfi  save_reg_to_mem, 39, 4
    1372                      .dwcfi  save_reg_to_mem, 40, 5
    1373                      .dwcfi  cfa_offset, -6
    1374 000000f4 E630          SETFLG    RNDF32=1, RNDF64=1    ; [CPU_] 
         000000f5 0600 
    1375 000000f6 2942          CLRC      PAGE0,OVM             ; [CPU_] 
    1376 000000f7 5616          CLRC      AMODE                 ; [CPU_] 
    1377                      .dwpsn  file "C:/ti/controlSUITE/device_support/F2837xS/v170/F2837xS_common/source/F2837xS_DefaultISR
    1378 000000f8 7625        ESTOP0
    1379 000000f9       $C$L25:    
    1380                      .dwpsn  file "C:/ti/controlSUITE/device_support/F2837xS/v170/F2837xS_common/source/F2837xS_DefaultISR
TMS320C2000 Assembler PC v6.4.2 Thu Dec 14 15:26:09 2017

Tools Copyright (c) 1996-2015 Texas Instruments Incorporated
F2837xS_DefaultISR.asm                                               PAGE   27

    1381 000000f9 6F00          B         $C$L25,UNC            ; [CPU_] |314| 
    1382                      ; branch occurs ; [] |314| 
    1383                      .dwattr $C$DW$25, DW_AT_TI_end_file("C:/ti/controlSUITE/device_support/F2837xS/v170/F2837xS_common/so
    1384                      .dwattr $C$DW$25, DW_AT_TI_end_line(0x13b)
    1385                      .dwattr $C$DW$25, DW_AT_TI_end_column(0x01)
    1386                      .dwendentry
    1387                      .dwendtag $C$DW$25
    1388              
    1389 000000fa               .sect   ".text:retain"
    1390                      .retain
    1391                      .retainrefs
    1392                      .global _TIMER0_ISR
    1393              
    1394              $C$DW$26        .dwtag  DW_TAG_subprogram, DW_AT_name("TIMER0_ISR")
    1395                      .dwattr $C$DW$26, DW_AT_low_pc(_TIMER0_ISR)
    1396                      .dwattr $C$DW$26, DW_AT_high_pc(0x00)
    1397                      .dwattr $C$DW$26, DW_AT_TI_symbol_name("_TIMER0_ISR")
    1398                      .dwattr $C$DW$26, DW_AT_external
    1399                      .dwattr $C$DW$26, DW_AT_TI_begin_file("C:/ti/controlSUITE/device_support/F2837xS/v170/F2837xS_common/
    1400                      .dwattr $C$DW$26, DW_AT_TI_begin_line(0x13e)
    1401                      .dwattr $C$DW$26, DW_AT_TI_begin_column(0x10)
    1402                      .dwattr $C$DW$26, DW_AT_TI_interrupt
    1403                      .dwattr $C$DW$26, DW_AT_TI_max_frame_size(-6)
    1404                      .dwpsn  file "C:/ti/controlSUITE/device_support/F2837xS/v170/F2837xS_common/source/F2837xS_DefaultISR
    1405              
    1406                      .dwfde $C$DW$CIE, _TIMER0_ISR
    1407              
    1408              ;***************************************************************
    1409              ;* FNAME: _TIMER0_ISR                   FR SIZE:   4           *
    1410              ;*                                                             *
    1411              ;* FUNCTION ENVIRONMENT                                        *
    1412              ;*                                                             *
    1413              ;* FUNCTION PROPERTIES                                         *
    1414              ;*                            0 Parameter,  0 Auto,  4 SOE     *
    1415              ;***************************************************************
    1416              
    1417 000000fa       _TIMER0_ISR:
    1418                      .dwcfi  cfa_offset, -2
    1419                      .dwcfi  save_reg_to_mem, 26, 0
    1420 000000fa 761B          ASP       ; [CPU_] 
    1421 000000fb FFF0          PUSH      RB                    ; [CPU_] 
    1422                      .dwcfi  save_reg_to_mem, 73, 2
    1423                      .dwcfi  save_reg_to_mem, 74, 3
    1424                      .dwcfi  cfa_offset, -4
    1425 000000fc E200          MOV32     *SP++,STF             ; [CPU_] 
         000000fd 00BD 
    1426                      .dwcfi  save_reg_to_mem, 39, 4
    1427                      .dwcfi  save_reg_to_mem, 40, 5
    1428                      .dwcfi  cfa_offset, -6
    1429 000000fe E630          SETFLG    RNDF32=1, RNDF64=1    ; [CPU_] 
         000000ff 0600 
    1430 00000100 2942          CLRC      PAGE0,OVM             ; [CPU_] 
    1431 00000101 5616          CLRC      AMODE                 ; [CPU_] 
    1432                      .dwpsn  file "C:/ti/controlSUITE/device_support/F2837xS/v170/F2837xS_common/source/F2837xS_DefaultISR
    1433 00000102 7625        ESTOP0
TMS320C2000 Assembler PC v6.4.2 Thu Dec 14 15:26:09 2017

Tools Copyright (c) 1996-2015 Texas Instruments Incorporated
F2837xS_DefaultISR.asm                                               PAGE   28

    1434 00000103       $C$L26:    
    1435                      .dwpsn  file "C:/ti/controlSUITE/device_support/F2837xS/v170/F2837xS_common/source/F2837xS_DefaultISR
    1436 00000103 6F00          B         $C$L26,UNC            ; [CPU_] |329| 
    1437                      ; branch occurs ; [] |329| 
    1438                      .dwattr $C$DW$26, DW_AT_TI_end_file("C:/ti/controlSUITE/device_support/F2837xS/v170/F2837xS_common/so
    1439                      .dwattr $C$DW$26, DW_AT_TI_end_line(0x14a)
    1440                      .dwattr $C$DW$26, DW_AT_TI_end_column(0x01)
    1441                      .dwendentry
    1442                      .dwendtag $C$DW$26
    1443              
    1444 00000104               .sect   ".text:retain"
    1445                      .retain
    1446                      .retainrefs
    1447                      .global _WAKE_ISR
    1448              
    1449              $C$DW$27        .dwtag  DW_TAG_subprogram, DW_AT_name("WAKE_ISR")
    1450                      .dwattr $C$DW$27, DW_AT_low_pc(_WAKE_ISR)
    1451                      .dwattr $C$DW$27, DW_AT_high_pc(0x00)
    1452                      .dwattr $C$DW$27, DW_AT_TI_symbol_name("_WAKE_ISR")
    1453                      .dwattr $C$DW$27, DW_AT_external
    1454                      .dwattr $C$DW$27, DW_AT_TI_begin_file("C:/ti/controlSUITE/device_support/F2837xS/v170/F2837xS_common/
    1455                      .dwattr $C$DW$27, DW_AT_TI_begin_line(0x14d)
    1456                      .dwattr $C$DW$27, DW_AT_TI_begin_column(0x10)
    1457                      .dwattr $C$DW$27, DW_AT_TI_interrupt
    1458                      .dwattr $C$DW$27, DW_AT_TI_max_frame_size(-6)
    1459                      .dwpsn  file "C:/ti/controlSUITE/device_support/F2837xS/v170/F2837xS_common/source/F2837xS_DefaultISR
    1460              
    1461                      .dwfde $C$DW$CIE, _WAKE_ISR
    1462              
    1463              ;***************************************************************
    1464              ;* FNAME: _WAKE_ISR                     FR SIZE:   4           *
    1465              ;*                                                             *
    1466              ;* FUNCTION ENVIRONMENT                                        *
    1467              ;*                                                             *
    1468              ;* FUNCTION PROPERTIES                                         *
    1469              ;*                            0 Parameter,  0 Auto,  4 SOE     *
    1470              ;***************************************************************
    1471              
    1472 00000104       _WAKE_ISR:
    1473                      .dwcfi  cfa_offset, -2
    1474                      .dwcfi  save_reg_to_mem, 26, 0
    1475 00000104 761B          ASP       ; [CPU_] 
    1476 00000105 FFF0          PUSH      RB                    ; [CPU_] 
    1477                      .dwcfi  save_reg_to_mem, 73, 2
    1478                      .dwcfi  save_reg_to_mem, 74, 3
    1479                      .dwcfi  cfa_offset, -4
    1480 00000106 E200          MOV32     *SP++,STF             ; [CPU_] 
         00000107 00BD 
    1481                      .dwcfi  save_reg_to_mem, 39, 4
    1482                      .dwcfi  save_reg_to_mem, 40, 5
    1483                      .dwcfi  cfa_offset, -6
    1484 00000108 E630          SETFLG    RNDF32=1, RNDF64=1    ; [CPU_] 
         00000109 0600 
    1485 0000010a 2942          CLRC      PAGE0,OVM             ; [CPU_] 
    1486 0000010b 5616          CLRC      AMODE                 ; [CPU_] 
TMS320C2000 Assembler PC v6.4.2 Thu Dec 14 15:26:09 2017

Tools Copyright (c) 1996-2015 Texas Instruments Incorporated
F2837xS_DefaultISR.asm                                               PAGE   29

    1487                      .dwpsn  file "C:/ti/controlSUITE/device_support/F2837xS/v170/F2837xS_common/source/F2837xS_DefaultISR
    1488 0000010c 7625        ESTOP0
    1489 0000010d       $C$L27:    
    1490                      .dwpsn  file "C:/ti/controlSUITE/device_support/F2837xS/v170/F2837xS_common/source/F2837xS_DefaultISR
    1491 0000010d 6F00          B         $C$L27,UNC            ; [CPU_] |344| 
    1492                      ; branch occurs ; [] |344| 
    1493                      .dwattr $C$DW$27, DW_AT_TI_end_file("C:/ti/controlSUITE/device_support/F2837xS/v170/F2837xS_common/so
    1494                      .dwattr $C$DW$27, DW_AT_TI_end_line(0x159)
    1495                      .dwattr $C$DW$27, DW_AT_TI_end_column(0x01)
    1496                      .dwendentry
    1497                      .dwendtag $C$DW$27
    1498              
    1499 0000010e               .sect   ".text:retain"
    1500                      .retain
    1501                      .retainrefs
    1502                      .global _EPWM1_TZ_ISR
    1503              
    1504              $C$DW$28        .dwtag  DW_TAG_subprogram, DW_AT_name("EPWM1_TZ_ISR")
    1505                      .dwattr $C$DW$28, DW_AT_low_pc(_EPWM1_TZ_ISR)
    1506                      .dwattr $C$DW$28, DW_AT_high_pc(0x00)
    1507                      .dwattr $C$DW$28, DW_AT_TI_symbol_name("_EPWM1_TZ_ISR")
    1508                      .dwattr $C$DW$28, DW_AT_external
    1509                      .dwattr $C$DW$28, DW_AT_TI_begin_file("C:/ti/controlSUITE/device_support/F2837xS/v170/F2837xS_common/
    1510                      .dwattr $C$DW$28, DW_AT_TI_begin_line(0x15c)
    1511                      .dwattr $C$DW$28, DW_AT_TI_begin_column(0x10)
    1512                      .dwattr $C$DW$28, DW_AT_TI_interrupt
    1513                      .dwattr $C$DW$28, DW_AT_TI_max_frame_size(-6)
    1514                      .dwpsn  file "C:/ti/controlSUITE/device_support/F2837xS/v170/F2837xS_common/source/F2837xS_DefaultISR
    1515              
    1516                      .dwfde $C$DW$CIE, _EPWM1_TZ_ISR
    1517              
    1518              ;***************************************************************
    1519              ;* FNAME: _EPWM1_TZ_ISR                 FR SIZE:   4           *
    1520              ;*                                                             *
    1521              ;* FUNCTION ENVIRONMENT                                        *
    1522              ;*                                                             *
    1523              ;* FUNCTION PROPERTIES                                         *
    1524              ;*                            0 Parameter,  0 Auto,  4 SOE     *
    1525              ;***************************************************************
    1526              
    1527 0000010e       _EPWM1_TZ_ISR:
    1528                      .dwcfi  cfa_offset, -2
    1529                      .dwcfi  save_reg_to_mem, 26, 0
    1530 0000010e 761B          ASP       ; [CPU_] 
    1531 0000010f FFF0          PUSH      RB                    ; [CPU_] 
    1532                      .dwcfi  save_reg_to_mem, 73, 2
    1533                      .dwcfi  save_reg_to_mem, 74, 3
    1534                      .dwcfi  cfa_offset, -4
    1535 00000110 E200          MOV32     *SP++,STF             ; [CPU_] 
         00000111 00BD 
    1536                      .dwcfi  save_reg_to_mem, 39, 4
    1537                      .dwcfi  save_reg_to_mem, 40, 5
    1538                      .dwcfi  cfa_offset, -6
    1539 00000112 E630          SETFLG    RNDF32=1, RNDF64=1    ; [CPU_] 
         00000113 0600 
TMS320C2000 Assembler PC v6.4.2 Thu Dec 14 15:26:09 2017

Tools Copyright (c) 1996-2015 Texas Instruments Incorporated
F2837xS_DefaultISR.asm                                               PAGE   30

    1540 00000114 2942          CLRC      PAGE0,OVM             ; [CPU_] 
    1541 00000115 5616          CLRC      AMODE                 ; [CPU_] 
    1542                      .dwpsn  file "C:/ti/controlSUITE/device_support/F2837xS/v170/F2837xS_common/source/F2837xS_DefaultISR
    1543 00000116 7625        ESTOP0
    1544 00000117       $C$L28:    
    1545                      .dwpsn  file "C:/ti/controlSUITE/device_support/F2837xS/v170/F2837xS_common/source/F2837xS_DefaultISR
    1546 00000117 6F00          B         $C$L28,UNC            ; [CPU_] |359| 
    1547                      ; branch occurs ; [] |359| 
    1548                      .dwattr $C$DW$28, DW_AT_TI_end_file("C:/ti/controlSUITE/device_support/F2837xS/v170/F2837xS_common/so
    1549                      .dwattr $C$DW$28, DW_AT_TI_end_line(0x168)
    1550                      .dwattr $C$DW$28, DW_AT_TI_end_column(0x01)
    1551                      .dwendentry
    1552                      .dwendtag $C$DW$28
    1553              
    1554 00000118               .sect   ".text:retain"
    1555                      .retain
    1556                      .retainrefs
    1557                      .global _EPWM2_TZ_ISR
    1558              
    1559              $C$DW$29        .dwtag  DW_TAG_subprogram, DW_AT_name("EPWM2_TZ_ISR")
    1560                      .dwattr $C$DW$29, DW_AT_low_pc(_EPWM2_TZ_ISR)
    1561                      .dwattr $C$DW$29, DW_AT_high_pc(0x00)
    1562                      .dwattr $C$DW$29, DW_AT_TI_symbol_name("_EPWM2_TZ_ISR")
    1563                      .dwattr $C$DW$29, DW_AT_external
    1564                      .dwattr $C$DW$29, DW_AT_TI_begin_file("C:/ti/controlSUITE/device_support/F2837xS/v170/F2837xS_common/
    1565                      .dwattr $C$DW$29, DW_AT_TI_begin_line(0x16b)
    1566                      .dwattr $C$DW$29, DW_AT_TI_begin_column(0x10)
    1567                      .dwattr $C$DW$29, DW_AT_TI_interrupt
    1568                      .dwattr $C$DW$29, DW_AT_TI_max_frame_size(-6)
    1569                      .dwpsn  file "C:/ti/controlSUITE/device_support/F2837xS/v170/F2837xS_common/source/F2837xS_DefaultISR
    1570              
    1571                      .dwfde $C$DW$CIE, _EPWM2_TZ_ISR
    1572              
    1573              ;***************************************************************
    1574              ;* FNAME: _EPWM2_TZ_ISR                 FR SIZE:   4           *
    1575              ;*                                                             *
    1576              ;* FUNCTION ENVIRONMENT                                        *
    1577              ;*                                                             *
    1578              ;* FUNCTION PROPERTIES                                         *
    1579              ;*                            0 Parameter,  0 Auto,  4 SOE     *
    1580              ;***************************************************************
    1581              
    1582 00000118       _EPWM2_TZ_ISR:
    1583                      .dwcfi  cfa_offset, -2
    1584                      .dwcfi  save_reg_to_mem, 26, 0
    1585 00000118 761B          ASP       ; [CPU_] 
    1586 00000119 FFF0          PUSH      RB                    ; [CPU_] 
    1587                      .dwcfi  save_reg_to_mem, 73, 2
    1588                      .dwcfi  save_reg_to_mem, 74, 3
    1589                      .dwcfi  cfa_offset, -4
    1590 0000011a E200          MOV32     *SP++,STF             ; [CPU_] 
         0000011b 00BD 
    1591                      .dwcfi  save_reg_to_mem, 39, 4
    1592                      .dwcfi  save_reg_to_mem, 40, 5
    1593                      .dwcfi  cfa_offset, -6
TMS320C2000 Assembler PC v6.4.2 Thu Dec 14 15:26:09 2017

Tools Copyright (c) 1996-2015 Texas Instruments Incorporated
F2837xS_DefaultISR.asm                                               PAGE   31

    1594 0000011c E630          SETFLG    RNDF32=1, RNDF64=1    ; [CPU_] 
         0000011d 0600 
    1595 0000011e 2942          CLRC      PAGE0,OVM             ; [CPU_] 
    1596 0000011f 5616          CLRC      AMODE                 ; [CPU_] 
    1597                      .dwpsn  file "C:/ti/controlSUITE/device_support/F2837xS/v170/F2837xS_common/source/F2837xS_DefaultISR
    1598 00000120 7625        ESTOP0
    1599 00000121       $C$L29:    
    1600                      .dwpsn  file "C:/ti/controlSUITE/device_support/F2837xS/v170/F2837xS_common/source/F2837xS_DefaultISR
    1601 00000121 6F00          B         $C$L29,UNC            ; [CPU_] |374| 
    1602                      ; branch occurs ; [] |374| 
    1603                      .dwattr $C$DW$29, DW_AT_TI_end_file("C:/ti/controlSUITE/device_support/F2837xS/v170/F2837xS_common/so
    1604                      .dwattr $C$DW$29, DW_AT_TI_end_line(0x177)
    1605                      .dwattr $C$DW$29, DW_AT_TI_end_column(0x01)
    1606                      .dwendentry
    1607                      .dwendtag $C$DW$29
    1608              
    1609 00000122               .sect   ".text:retain"
    1610                      .retain
    1611                      .retainrefs
    1612                      .global _EPWM3_TZ_ISR
    1613              
    1614              $C$DW$30        .dwtag  DW_TAG_subprogram, DW_AT_name("EPWM3_TZ_ISR")
    1615                      .dwattr $C$DW$30, DW_AT_low_pc(_EPWM3_TZ_ISR)
    1616                      .dwattr $C$DW$30, DW_AT_high_pc(0x00)
    1617                      .dwattr $C$DW$30, DW_AT_TI_symbol_name("_EPWM3_TZ_ISR")
    1618                      .dwattr $C$DW$30, DW_AT_external
    1619                      .dwattr $C$DW$30, DW_AT_TI_begin_file("C:/ti/controlSUITE/device_support/F2837xS/v170/F2837xS_common/
    1620                      .dwattr $C$DW$30, DW_AT_TI_begin_line(0x17a)
    1621                      .dwattr $C$DW$30, DW_AT_TI_begin_column(0x10)
    1622                      .dwattr $C$DW$30, DW_AT_TI_interrupt
    1623                      .dwattr $C$DW$30, DW_AT_TI_max_frame_size(-6)
    1624                      .dwpsn  file "C:/ti/controlSUITE/device_support/F2837xS/v170/F2837xS_common/source/F2837xS_DefaultISR
    1625              
    1626                      .dwfde $C$DW$CIE, _EPWM3_TZ_ISR
    1627              
    1628              ;***************************************************************
    1629              ;* FNAME: _EPWM3_TZ_ISR                 FR SIZE:   4           *
    1630              ;*                                                             *
    1631              ;* FUNCTION ENVIRONMENT                                        *
    1632              ;*                                                             *
    1633              ;* FUNCTION PROPERTIES                                         *
    1634              ;*                            0 Parameter,  0 Auto,  4 SOE     *
    1635              ;***************************************************************
    1636              
    1637 00000122       _EPWM3_TZ_ISR:
    1638                      .dwcfi  cfa_offset, -2
    1639                      .dwcfi  save_reg_to_mem, 26, 0
    1640 00000122 761B          ASP       ; [CPU_] 
    1641 00000123 FFF0          PUSH      RB                    ; [CPU_] 
    1642                      .dwcfi  save_reg_to_mem, 73, 2
    1643                      .dwcfi  save_reg_to_mem, 74, 3
    1644                      .dwcfi  cfa_offset, -4
    1645 00000124 E200          MOV32     *SP++,STF             ; [CPU_] 
         00000125 00BD 
    1646                      .dwcfi  save_reg_to_mem, 39, 4
TMS320C2000 Assembler PC v6.4.2 Thu Dec 14 15:26:09 2017

Tools Copyright (c) 1996-2015 Texas Instruments Incorporated
F2837xS_DefaultISR.asm                                               PAGE   32

    1647                      .dwcfi  save_reg_to_mem, 40, 5
    1648                      .dwcfi  cfa_offset, -6
    1649 00000126 E630          SETFLG    RNDF32=1, RNDF64=1    ; [CPU_] 
         00000127 0600 
    1650 00000128 2942          CLRC      PAGE0,OVM             ; [CPU_] 
    1651 00000129 5616          CLRC      AMODE                 ; [CPU_] 
    1652                      .dwpsn  file "C:/ti/controlSUITE/device_support/F2837xS/v170/F2837xS_common/source/F2837xS_DefaultISR
    1653 0000012a 7625        ESTOP0
    1654 0000012b       $C$L30:    
    1655                      .dwpsn  file "C:/ti/controlSUITE/device_support/F2837xS/v170/F2837xS_common/source/F2837xS_DefaultISR
    1656 0000012b 6F00          B         $C$L30,UNC            ; [CPU_] |389| 
    1657                      ; branch occurs ; [] |389| 
    1658                      .dwattr $C$DW$30, DW_AT_TI_end_file("C:/ti/controlSUITE/device_support/F2837xS/v170/F2837xS_common/so
    1659                      .dwattr $C$DW$30, DW_AT_TI_end_line(0x186)
    1660                      .dwattr $C$DW$30, DW_AT_TI_end_column(0x01)
    1661                      .dwendentry
    1662                      .dwendtag $C$DW$30
    1663              
    1664 0000012c               .sect   ".text:retain"
    1665                      .retain
    1666                      .retainrefs
    1667                      .global _EPWM4_TZ_ISR
    1668              
    1669              $C$DW$31        .dwtag  DW_TAG_subprogram, DW_AT_name("EPWM4_TZ_ISR")
    1670                      .dwattr $C$DW$31, DW_AT_low_pc(_EPWM4_TZ_ISR)
    1671                      .dwattr $C$DW$31, DW_AT_high_pc(0x00)
    1672                      .dwattr $C$DW$31, DW_AT_TI_symbol_name("_EPWM4_TZ_ISR")
    1673                      .dwattr $C$DW$31, DW_AT_external
    1674                      .dwattr $C$DW$31, DW_AT_TI_begin_file("C:/ti/controlSUITE/device_support/F2837xS/v170/F2837xS_common/
    1675                      .dwattr $C$DW$31, DW_AT_TI_begin_line(0x189)
    1676                      .dwattr $C$DW$31, DW_AT_TI_begin_column(0x10)
    1677                      .dwattr $C$DW$31, DW_AT_TI_interrupt
    1678                      .dwattr $C$DW$31, DW_AT_TI_max_frame_size(-6)
    1679                      .dwpsn  file "C:/ti/controlSUITE/device_support/F2837xS/v170/F2837xS_common/source/F2837xS_DefaultISR
    1680              
    1681                      .dwfde $C$DW$CIE, _EPWM4_TZ_ISR
    1682              
    1683              ;***************************************************************
    1684              ;* FNAME: _EPWM4_TZ_ISR                 FR SIZE:   4           *
    1685              ;*                                                             *
    1686              ;* FUNCTION ENVIRONMENT                                        *
    1687              ;*                                                             *
    1688              ;* FUNCTION PROPERTIES                                         *
    1689              ;*                            0 Parameter,  0 Auto,  4 SOE     *
    1690              ;***************************************************************
    1691              
    1692 0000012c       _EPWM4_TZ_ISR:
    1693                      .dwcfi  cfa_offset, -2
    1694                      .dwcfi  save_reg_to_mem, 26, 0
    1695 0000012c 761B          ASP       ; [CPU_] 
    1696 0000012d FFF0          PUSH      RB                    ; [CPU_] 
    1697                      .dwcfi  save_reg_to_mem, 73, 2
    1698                      .dwcfi  save_reg_to_mem, 74, 3
    1699                      .dwcfi  cfa_offset, -4
    1700 0000012e E200          MOV32     *SP++,STF             ; [CPU_] 
TMS320C2000 Assembler PC v6.4.2 Thu Dec 14 15:26:09 2017

Tools Copyright (c) 1996-2015 Texas Instruments Incorporated
F2837xS_DefaultISR.asm                                               PAGE   33

         0000012f 00BD 
    1701                      .dwcfi  save_reg_to_mem, 39, 4
    1702                      .dwcfi  save_reg_to_mem, 40, 5
    1703                      .dwcfi  cfa_offset, -6
    1704 00000130 E630          SETFLG    RNDF32=1, RNDF64=1    ; [CPU_] 
         00000131 0600 
    1705 00000132 2942          CLRC      PAGE0,OVM             ; [CPU_] 
    1706 00000133 5616          CLRC      AMODE                 ; [CPU_] 
    1707                      .dwpsn  file "C:/ti/controlSUITE/device_support/F2837xS/v170/F2837xS_common/source/F2837xS_DefaultISR
    1708 00000134 7625        ESTOP0
    1709 00000135       $C$L31:    
    1710                      .dwpsn  file "C:/ti/controlSUITE/device_support/F2837xS/v170/F2837xS_common/source/F2837xS_DefaultISR
    1711 00000135 6F00          B         $C$L31,UNC            ; [CPU_] |404| 
    1712                      ; branch occurs ; [] |404| 
    1713                      .dwattr $C$DW$31, DW_AT_TI_end_file("C:/ti/controlSUITE/device_support/F2837xS/v170/F2837xS_common/so
    1714                      .dwattr $C$DW$31, DW_AT_TI_end_line(0x195)
    1715                      .dwattr $C$DW$31, DW_AT_TI_end_column(0x01)
    1716                      .dwendentry
    1717                      .dwendtag $C$DW$31
    1718              
    1719 00000136               .sect   ".text:retain"
    1720                      .retain
    1721                      .retainrefs
    1722                      .global _EPWM5_TZ_ISR
    1723              
    1724              $C$DW$32        .dwtag  DW_TAG_subprogram, DW_AT_name("EPWM5_TZ_ISR")
    1725                      .dwattr $C$DW$32, DW_AT_low_pc(_EPWM5_TZ_ISR)
    1726                      .dwattr $C$DW$32, DW_AT_high_pc(0x00)
    1727                      .dwattr $C$DW$32, DW_AT_TI_symbol_name("_EPWM5_TZ_ISR")
    1728                      .dwattr $C$DW$32, DW_AT_external
    1729                      .dwattr $C$DW$32, DW_AT_TI_begin_file("C:/ti/controlSUITE/device_support/F2837xS/v170/F2837xS_common/
    1730                      .dwattr $C$DW$32, DW_AT_TI_begin_line(0x198)
    1731                      .dwattr $C$DW$32, DW_AT_TI_begin_column(0x10)
    1732                      .dwattr $C$DW$32, DW_AT_TI_interrupt
    1733                      .dwattr $C$DW$32, DW_AT_TI_max_frame_size(-6)
    1734                      .dwpsn  file "C:/ti/controlSUITE/device_support/F2837xS/v170/F2837xS_common/source/F2837xS_DefaultISR
    1735              
    1736                      .dwfde $C$DW$CIE, _EPWM5_TZ_ISR
    1737              
    1738              ;***************************************************************
    1739              ;* FNAME: _EPWM5_TZ_ISR                 FR SIZE:   4           *
    1740              ;*                                                             *
    1741              ;* FUNCTION ENVIRONMENT                                        *
    1742              ;*                                                             *
    1743              ;* FUNCTION PROPERTIES                                         *
    1744              ;*                            0 Parameter,  0 Auto,  4 SOE     *
    1745              ;***************************************************************
    1746              
    1747 00000136       _EPWM5_TZ_ISR:
    1748                      .dwcfi  cfa_offset, -2
    1749                      .dwcfi  save_reg_to_mem, 26, 0
    1750 00000136 761B          ASP       ; [CPU_] 
    1751 00000137 FFF0          PUSH      RB                    ; [CPU_] 
    1752                      .dwcfi  save_reg_to_mem, 73, 2
    1753                      .dwcfi  save_reg_to_mem, 74, 3
TMS320C2000 Assembler PC v6.4.2 Thu Dec 14 15:26:09 2017

Tools Copyright (c) 1996-2015 Texas Instruments Incorporated
F2837xS_DefaultISR.asm                                               PAGE   34

    1754                      .dwcfi  cfa_offset, -4
    1755 00000138 E200          MOV32     *SP++,STF             ; [CPU_] 
         00000139 00BD 
    1756                      .dwcfi  save_reg_to_mem, 39, 4
    1757                      .dwcfi  save_reg_to_mem, 40, 5
    1758                      .dwcfi  cfa_offset, -6
    1759 0000013a E630          SETFLG    RNDF32=1, RNDF64=1    ; [CPU_] 
         0000013b 0600 
    1760 0000013c 2942          CLRC      PAGE0,OVM             ; [CPU_] 
    1761 0000013d 5616          CLRC      AMODE                 ; [CPU_] 
    1762                      .dwpsn  file "C:/ti/controlSUITE/device_support/F2837xS/v170/F2837xS_common/source/F2837xS_DefaultISR
    1763 0000013e 7625        ESTOP0
    1764 0000013f       $C$L32:    
    1765                      .dwpsn  file "C:/ti/controlSUITE/device_support/F2837xS/v170/F2837xS_common/source/F2837xS_DefaultISR
    1766 0000013f 6F00          B         $C$L32,UNC            ; [CPU_] |419| 
    1767                      ; branch occurs ; [] |419| 
    1768                      .dwattr $C$DW$32, DW_AT_TI_end_file("C:/ti/controlSUITE/device_support/F2837xS/v170/F2837xS_common/so
    1769                      .dwattr $C$DW$32, DW_AT_TI_end_line(0x1a4)
    1770                      .dwattr $C$DW$32, DW_AT_TI_end_column(0x01)
    1771                      .dwendentry
    1772                      .dwendtag $C$DW$32
    1773              
    1774 00000140               .sect   ".text:retain"
    1775                      .retain
    1776                      .retainrefs
    1777                      .global _EPWM6_TZ_ISR
    1778              
    1779              $C$DW$33        .dwtag  DW_TAG_subprogram, DW_AT_name("EPWM6_TZ_ISR")
    1780                      .dwattr $C$DW$33, DW_AT_low_pc(_EPWM6_TZ_ISR)
    1781                      .dwattr $C$DW$33, DW_AT_high_pc(0x00)
    1782                      .dwattr $C$DW$33, DW_AT_TI_symbol_name("_EPWM6_TZ_ISR")
    1783                      .dwattr $C$DW$33, DW_AT_external
    1784                      .dwattr $C$DW$33, DW_AT_TI_begin_file("C:/ti/controlSUITE/device_support/F2837xS/v170/F2837xS_common/
    1785                      .dwattr $C$DW$33, DW_AT_TI_begin_line(0x1a7)
    1786                      .dwattr $C$DW$33, DW_AT_TI_begin_column(0x10)
    1787                      .dwattr $C$DW$33, DW_AT_TI_interrupt
    1788                      .dwattr $C$DW$33, DW_AT_TI_max_frame_size(-6)
    1789                      .dwpsn  file "C:/ti/controlSUITE/device_support/F2837xS/v170/F2837xS_common/source/F2837xS_DefaultISR
    1790              
    1791                      .dwfde $C$DW$CIE, _EPWM6_TZ_ISR
    1792              
    1793              ;***************************************************************
    1794              ;* FNAME: _EPWM6_TZ_ISR                 FR SIZE:   4           *
    1795              ;*                                                             *
    1796              ;* FUNCTION ENVIRONMENT                                        *
    1797              ;*                                                             *
    1798              ;* FUNCTION PROPERTIES                                         *
    1799              ;*                            0 Parameter,  0 Auto,  4 SOE     *
    1800              ;***************************************************************
    1801              
    1802 00000140       _EPWM6_TZ_ISR:
    1803                      .dwcfi  cfa_offset, -2
    1804                      .dwcfi  save_reg_to_mem, 26, 0
    1805 00000140 761B          ASP       ; [CPU_] 
    1806 00000141 FFF0          PUSH      RB                    ; [CPU_] 
TMS320C2000 Assembler PC v6.4.2 Thu Dec 14 15:26:09 2017

Tools Copyright (c) 1996-2015 Texas Instruments Incorporated
F2837xS_DefaultISR.asm                                               PAGE   35

    1807                      .dwcfi  save_reg_to_mem, 73, 2
    1808                      .dwcfi  save_reg_to_mem, 74, 3
    1809                      .dwcfi  cfa_offset, -4
    1810 00000142 E200          MOV32     *SP++,STF             ; [CPU_] 
         00000143 00BD 
    1811                      .dwcfi  save_reg_to_mem, 39, 4
    1812                      .dwcfi  save_reg_to_mem, 40, 5
    1813                      .dwcfi  cfa_offset, -6
    1814 00000144 E630          SETFLG    RNDF32=1, RNDF64=1    ; [CPU_] 
         00000145 0600 
    1815 00000146 2942          CLRC      PAGE0,OVM             ; [CPU_] 
    1816 00000147 5616          CLRC      AMODE                 ; [CPU_] 
    1817                      .dwpsn  file "C:/ti/controlSUITE/device_support/F2837xS/v170/F2837xS_common/source/F2837xS_DefaultISR
    1818 00000148 7625        ESTOP0
    1819 00000149       $C$L33:    
    1820                      .dwpsn  file "C:/ti/controlSUITE/device_support/F2837xS/v170/F2837xS_common/source/F2837xS_DefaultISR
    1821 00000149 6F00          B         $C$L33,UNC            ; [CPU_] |434| 
    1822                      ; branch occurs ; [] |434| 
    1823                      .dwattr $C$DW$33, DW_AT_TI_end_file("C:/ti/controlSUITE/device_support/F2837xS/v170/F2837xS_common/so
    1824                      .dwattr $C$DW$33, DW_AT_TI_end_line(0x1b3)
    1825                      .dwattr $C$DW$33, DW_AT_TI_end_column(0x01)
    1826                      .dwendentry
    1827                      .dwendtag $C$DW$33
    1828              
    1829 0000014a               .sect   ".text:retain"
    1830                      .retain
    1831                      .retainrefs
    1832                      .global _EPWM7_TZ_ISR
    1833              
    1834              $C$DW$34        .dwtag  DW_TAG_subprogram, DW_AT_name("EPWM7_TZ_ISR")
    1835                      .dwattr $C$DW$34, DW_AT_low_pc(_EPWM7_TZ_ISR)
    1836                      .dwattr $C$DW$34, DW_AT_high_pc(0x00)
    1837                      .dwattr $C$DW$34, DW_AT_TI_symbol_name("_EPWM7_TZ_ISR")
    1838                      .dwattr $C$DW$34, DW_AT_external
    1839                      .dwattr $C$DW$34, DW_AT_TI_begin_file("C:/ti/controlSUITE/device_support/F2837xS/v170/F2837xS_common/
    1840                      .dwattr $C$DW$34, DW_AT_TI_begin_line(0x1b6)
    1841                      .dwattr $C$DW$34, DW_AT_TI_begin_column(0x10)
    1842                      .dwattr $C$DW$34, DW_AT_TI_interrupt
    1843                      .dwattr $C$DW$34, DW_AT_TI_max_frame_size(-6)
    1844                      .dwpsn  file "C:/ti/controlSUITE/device_support/F2837xS/v170/F2837xS_common/source/F2837xS_DefaultISR
    1845              
    1846                      .dwfde $C$DW$CIE, _EPWM7_TZ_ISR
    1847              
    1848              ;***************************************************************
    1849              ;* FNAME: _EPWM7_TZ_ISR                 FR SIZE:   4           *
    1850              ;*                                                             *
    1851              ;* FUNCTION ENVIRONMENT                                        *
    1852              ;*                                                             *
    1853              ;* FUNCTION PROPERTIES                                         *
    1854              ;*                            0 Parameter,  0 Auto,  4 SOE     *
    1855              ;***************************************************************
    1856              
    1857 0000014a       _EPWM7_TZ_ISR:
    1858                      .dwcfi  cfa_offset, -2
    1859                      .dwcfi  save_reg_to_mem, 26, 0
TMS320C2000 Assembler PC v6.4.2 Thu Dec 14 15:26:09 2017

Tools Copyright (c) 1996-2015 Texas Instruments Incorporated
F2837xS_DefaultISR.asm                                               PAGE   36

    1860 0000014a 761B          ASP       ; [CPU_] 
    1861 0000014b FFF0          PUSH      RB                    ; [CPU_] 
    1862                      .dwcfi  save_reg_to_mem, 73, 2
    1863                      .dwcfi  save_reg_to_mem, 74, 3
    1864                      .dwcfi  cfa_offset, -4
    1865 0000014c E200          MOV32     *SP++,STF             ; [CPU_] 
         0000014d 00BD 
    1866                      .dwcfi  save_reg_to_mem, 39, 4
    1867                      .dwcfi  save_reg_to_mem, 40, 5
    1868                      .dwcfi  cfa_offset, -6
    1869 0000014e E630          SETFLG    RNDF32=1, RNDF64=1    ; [CPU_] 
         0000014f 0600 
    1870 00000150 2942          CLRC      PAGE0,OVM             ; [CPU_] 
    1871 00000151 5616          CLRC      AMODE                 ; [CPU_] 
    1872                      .dwpsn  file "C:/ti/controlSUITE/device_support/F2837xS/v170/F2837xS_common/source/F2837xS_DefaultISR
    1873 00000152 7625        ESTOP0
    1874 00000153       $C$L34:    
    1875                      .dwpsn  file "C:/ti/controlSUITE/device_support/F2837xS/v170/F2837xS_common/source/F2837xS_DefaultISR
    1876 00000153 6F00          B         $C$L34,UNC            ; [CPU_] |449| 
    1877                      ; branch occurs ; [] |449| 
    1878                      .dwattr $C$DW$34, DW_AT_TI_end_file("C:/ti/controlSUITE/device_support/F2837xS/v170/F2837xS_common/so
    1879                      .dwattr $C$DW$34, DW_AT_TI_end_line(0x1c2)
    1880                      .dwattr $C$DW$34, DW_AT_TI_end_column(0x01)
    1881                      .dwendentry
    1882                      .dwendtag $C$DW$34
    1883              
    1884 00000154               .sect   ".text:retain"
    1885                      .retain
    1886                      .retainrefs
    1887                      .global _EPWM8_TZ_ISR
    1888              
    1889              $C$DW$35        .dwtag  DW_TAG_subprogram, DW_AT_name("EPWM8_TZ_ISR")
    1890                      .dwattr $C$DW$35, DW_AT_low_pc(_EPWM8_TZ_ISR)
    1891                      .dwattr $C$DW$35, DW_AT_high_pc(0x00)
    1892                      .dwattr $C$DW$35, DW_AT_TI_symbol_name("_EPWM8_TZ_ISR")
    1893                      .dwattr $C$DW$35, DW_AT_external
    1894                      .dwattr $C$DW$35, DW_AT_TI_begin_file("C:/ti/controlSUITE/device_support/F2837xS/v170/F2837xS_common/
    1895                      .dwattr $C$DW$35, DW_AT_TI_begin_line(0x1c5)
    1896                      .dwattr $C$DW$35, DW_AT_TI_begin_column(0x10)
    1897                      .dwattr $C$DW$35, DW_AT_TI_interrupt
    1898                      .dwattr $C$DW$35, DW_AT_TI_max_frame_size(-6)
    1899                      .dwpsn  file "C:/ti/controlSUITE/device_support/F2837xS/v170/F2837xS_common/source/F2837xS_DefaultISR
    1900              
    1901                      .dwfde $C$DW$CIE, _EPWM8_TZ_ISR
    1902              
    1903              ;***************************************************************
    1904              ;* FNAME: _EPWM8_TZ_ISR                 FR SIZE:   4           *
    1905              ;*                                                             *
    1906              ;* FUNCTION ENVIRONMENT                                        *
    1907              ;*                                                             *
    1908              ;* FUNCTION PROPERTIES                                         *
    1909              ;*                            0 Parameter,  0 Auto,  4 SOE     *
    1910              ;***************************************************************
    1911              
    1912 00000154       _EPWM8_TZ_ISR:
TMS320C2000 Assembler PC v6.4.2 Thu Dec 14 15:26:09 2017

Tools Copyright (c) 1996-2015 Texas Instruments Incorporated
F2837xS_DefaultISR.asm                                               PAGE   37

    1913                      .dwcfi  cfa_offset, -2
    1914                      .dwcfi  save_reg_to_mem, 26, 0
    1915 00000154 761B          ASP       ; [CPU_] 
    1916 00000155 FFF0          PUSH      RB                    ; [CPU_] 
    1917                      .dwcfi  save_reg_to_mem, 73, 2
    1918                      .dwcfi  save_reg_to_mem, 74, 3
    1919                      .dwcfi  cfa_offset, -4
    1920 00000156 E200          MOV32     *SP++,STF             ; [CPU_] 
         00000157 00BD 
    1921                      .dwcfi  save_reg_to_mem, 39, 4
    1922                      .dwcfi  save_reg_to_mem, 40, 5
    1923                      .dwcfi  cfa_offset, -6
    1924 00000158 E630          SETFLG    RNDF32=1, RNDF64=1    ; [CPU_] 
         00000159 0600 
    1925 0000015a 2942          CLRC      PAGE0,OVM             ; [CPU_] 
    1926 0000015b 5616          CLRC      AMODE                 ; [CPU_] 
    1927                      .dwpsn  file "C:/ti/controlSUITE/device_support/F2837xS/v170/F2837xS_common/source/F2837xS_DefaultISR
    1928 0000015c 7625        ESTOP0
    1929 0000015d       $C$L35:    
    1930                      .dwpsn  file "C:/ti/controlSUITE/device_support/F2837xS/v170/F2837xS_common/source/F2837xS_DefaultISR
    1931 0000015d 6F00          B         $C$L35,UNC            ; [CPU_] |464| 
    1932                      ; branch occurs ; [] |464| 
    1933                      .dwattr $C$DW$35, DW_AT_TI_end_file("C:/ti/controlSUITE/device_support/F2837xS/v170/F2837xS_common/so
    1934                      .dwattr $C$DW$35, DW_AT_TI_end_line(0x1d1)
    1935                      .dwattr $C$DW$35, DW_AT_TI_end_column(0x01)
    1936                      .dwendentry
    1937                      .dwendtag $C$DW$35
    1938              
    1939 0000015e               .sect   ".text:retain"
    1940                      .retain
    1941                      .retainrefs
    1942                      .global _EPWM1_ISR
    1943              
    1944              $C$DW$36        .dwtag  DW_TAG_subprogram, DW_AT_name("EPWM1_ISR")
    1945                      .dwattr $C$DW$36, DW_AT_low_pc(_EPWM1_ISR)
    1946                      .dwattr $C$DW$36, DW_AT_high_pc(0x00)
    1947                      .dwattr $C$DW$36, DW_AT_TI_symbol_name("_EPWM1_ISR")
    1948                      .dwattr $C$DW$36, DW_AT_external
    1949                      .dwattr $C$DW$36, DW_AT_TI_begin_file("C:/ti/controlSUITE/device_support/F2837xS/v170/F2837xS_common/
    1950                      .dwattr $C$DW$36, DW_AT_TI_begin_line(0x1d4)
    1951                      .dwattr $C$DW$36, DW_AT_TI_begin_column(0x10)
    1952                      .dwattr $C$DW$36, DW_AT_TI_interrupt
    1953                      .dwattr $C$DW$36, DW_AT_TI_max_frame_size(-6)
    1954                      .dwpsn  file "C:/ti/controlSUITE/device_support/F2837xS/v170/F2837xS_common/source/F2837xS_DefaultISR
    1955              
    1956                      .dwfde $C$DW$CIE, _EPWM1_ISR
    1957              
    1958              ;***************************************************************
    1959              ;* FNAME: _EPWM1_ISR                    FR SIZE:   4           *
    1960              ;*                                                             *
    1961              ;* FUNCTION ENVIRONMENT                                        *
    1962              ;*                                                             *
    1963              ;* FUNCTION PROPERTIES                                         *
    1964              ;*                            0 Parameter,  0 Auto,  4 SOE     *
    1965              ;***************************************************************
TMS320C2000 Assembler PC v6.4.2 Thu Dec 14 15:26:09 2017

Tools Copyright (c) 1996-2015 Texas Instruments Incorporated
F2837xS_DefaultISR.asm                                               PAGE   38

    1966              
    1967 0000015e       _EPWM1_ISR:
    1968                      .dwcfi  cfa_offset, -2
    1969                      .dwcfi  save_reg_to_mem, 26, 0
    1970 0000015e 761B          ASP       ; [CPU_] 
    1971 0000015f FFF0          PUSH      RB                    ; [CPU_] 
    1972                      .dwcfi  save_reg_to_mem, 73, 2
    1973                      .dwcfi  save_reg_to_mem, 74, 3
    1974                      .dwcfi  cfa_offset, -4
    1975 00000160 E200          MOV32     *SP++,STF             ; [CPU_] 
         00000161 00BD 
    1976                      .dwcfi  save_reg_to_mem, 39, 4
    1977                      .dwcfi  save_reg_to_mem, 40, 5
    1978                      .dwcfi  cfa_offset, -6
    1979 00000162 E630          SETFLG    RNDF32=1, RNDF64=1    ; [CPU_] 
         00000163 0600 
    1980 00000164 2942          CLRC      PAGE0,OVM             ; [CPU_] 
    1981 00000165 5616          CLRC      AMODE                 ; [CPU_] 
    1982                      .dwpsn  file "C:/ti/controlSUITE/device_support/F2837xS/v170/F2837xS_common/source/F2837xS_DefaultISR
    1983 00000166 7625        ESTOP0
    1984 00000167       $C$L36:    
    1985                      .dwpsn  file "C:/ti/controlSUITE/device_support/F2837xS/v170/F2837xS_common/source/F2837xS_DefaultISR
    1986 00000167 6F00          B         $C$L36,UNC            ; [CPU_] |479| 
    1987                      ; branch occurs ; [] |479| 
    1988                      .dwattr $C$DW$36, DW_AT_TI_end_file("C:/ti/controlSUITE/device_support/F2837xS/v170/F2837xS_common/so
    1989                      .dwattr $C$DW$36, DW_AT_TI_end_line(0x1e0)
    1990                      .dwattr $C$DW$36, DW_AT_TI_end_column(0x01)
    1991                      .dwendentry
    1992                      .dwendtag $C$DW$36
    1993              
    1994 00000168               .sect   ".text:retain"
    1995                      .retain
    1996                      .retainrefs
    1997                      .global _EPWM2_ISR
    1998              
    1999              $C$DW$37        .dwtag  DW_TAG_subprogram, DW_AT_name("EPWM2_ISR")
    2000                      .dwattr $C$DW$37, DW_AT_low_pc(_EPWM2_ISR)
    2001                      .dwattr $C$DW$37, DW_AT_high_pc(0x00)
    2002                      .dwattr $C$DW$37, DW_AT_TI_symbol_name("_EPWM2_ISR")
    2003                      .dwattr $C$DW$37, DW_AT_external
    2004                      .dwattr $C$DW$37, DW_AT_TI_begin_file("C:/ti/controlSUITE/device_support/F2837xS/v170/F2837xS_common/
    2005                      .dwattr $C$DW$37, DW_AT_TI_begin_line(0x1e3)
    2006                      .dwattr $C$DW$37, DW_AT_TI_begin_column(0x10)
    2007                      .dwattr $C$DW$37, DW_AT_TI_interrupt
    2008                      .dwattr $C$DW$37, DW_AT_TI_max_frame_size(-6)
    2009                      .dwpsn  file "C:/ti/controlSUITE/device_support/F2837xS/v170/F2837xS_common/source/F2837xS_DefaultISR
    2010              
    2011                      .dwfde $C$DW$CIE, _EPWM2_ISR
    2012              
    2013              ;***************************************************************
    2014              ;* FNAME: _EPWM2_ISR                    FR SIZE:   4           *
    2015              ;*                                                             *
    2016              ;* FUNCTION ENVIRONMENT                                        *
    2017              ;*                                                             *
    2018              ;* FUNCTION PROPERTIES                                         *
TMS320C2000 Assembler PC v6.4.2 Thu Dec 14 15:26:09 2017

Tools Copyright (c) 1996-2015 Texas Instruments Incorporated
F2837xS_DefaultISR.asm                                               PAGE   39

    2019              ;*                            0 Parameter,  0 Auto,  4 SOE     *
    2020              ;***************************************************************
    2021              
    2022 00000168       _EPWM2_ISR:
    2023                      .dwcfi  cfa_offset, -2
    2024                      .dwcfi  save_reg_to_mem, 26, 0
    2025 00000168 761B          ASP       ; [CPU_] 
    2026 00000169 FFF0          PUSH      RB                    ; [CPU_] 
    2027                      .dwcfi  save_reg_to_mem, 73, 2
    2028                      .dwcfi  save_reg_to_mem, 74, 3
    2029                      .dwcfi  cfa_offset, -4
    2030 0000016a E200          MOV32     *SP++,STF             ; [CPU_] 
         0000016b 00BD 
    2031                      .dwcfi  save_reg_to_mem, 39, 4
    2032                      .dwcfi  save_reg_to_mem, 40, 5
    2033                      .dwcfi  cfa_offset, -6
    2034 0000016c E630          SETFLG    RNDF32=1, RNDF64=1    ; [CPU_] 
         0000016d 0600 
    2035 0000016e 2942          CLRC      PAGE0,OVM             ; [CPU_] 
    2036 0000016f 5616          CLRC      AMODE                 ; [CPU_] 
    2037                      .dwpsn  file "C:/ti/controlSUITE/device_support/F2837xS/v170/F2837xS_common/source/F2837xS_DefaultISR
    2038 00000170 7625        ESTOP0
    2039 00000171       $C$L37:    
    2040                      .dwpsn  file "C:/ti/controlSUITE/device_support/F2837xS/v170/F2837xS_common/source/F2837xS_DefaultISR
    2041 00000171 6F00          B         $C$L37,UNC            ; [CPU_] |494| 
    2042                      ; branch occurs ; [] |494| 
    2043                      .dwattr $C$DW$37, DW_AT_TI_end_file("C:/ti/controlSUITE/device_support/F2837xS/v170/F2837xS_common/so
    2044                      .dwattr $C$DW$37, DW_AT_TI_end_line(0x1ef)
    2045                      .dwattr $C$DW$37, DW_AT_TI_end_column(0x01)
    2046                      .dwendentry
    2047                      .dwendtag $C$DW$37
    2048              
    2049 00000172               .sect   ".text:retain"
    2050                      .retain
    2051                      .retainrefs
    2052                      .global _EPWM3_ISR
    2053              
    2054              $C$DW$38        .dwtag  DW_TAG_subprogram, DW_AT_name("EPWM3_ISR")
    2055                      .dwattr $C$DW$38, DW_AT_low_pc(_EPWM3_ISR)
    2056                      .dwattr $C$DW$38, DW_AT_high_pc(0x00)
    2057                      .dwattr $C$DW$38, DW_AT_TI_symbol_name("_EPWM3_ISR")
    2058                      .dwattr $C$DW$38, DW_AT_external
    2059                      .dwattr $C$DW$38, DW_AT_TI_begin_file("C:/ti/controlSUITE/device_support/F2837xS/v170/F2837xS_common/
    2060                      .dwattr $C$DW$38, DW_AT_TI_begin_line(0x1f2)
    2061                      .dwattr $C$DW$38, DW_AT_TI_begin_column(0x10)
    2062                      .dwattr $C$DW$38, DW_AT_TI_interrupt
    2063                      .dwattr $C$DW$38, DW_AT_TI_max_frame_size(-6)
    2064                      .dwpsn  file "C:/ti/controlSUITE/device_support/F2837xS/v170/F2837xS_common/source/F2837xS_DefaultISR
    2065              
    2066                      .dwfde $C$DW$CIE, _EPWM3_ISR
    2067              
    2068              ;***************************************************************
    2069              ;* FNAME: _EPWM3_ISR                    FR SIZE:   4           *
    2070              ;*                                                             *
    2071              ;* FUNCTION ENVIRONMENT                                        *
TMS320C2000 Assembler PC v6.4.2 Thu Dec 14 15:26:09 2017

Tools Copyright (c) 1996-2015 Texas Instruments Incorporated
F2837xS_DefaultISR.asm                                               PAGE   40

    2072              ;*                                                             *
    2073              ;* FUNCTION PROPERTIES                                         *
    2074              ;*                            0 Parameter,  0 Auto,  4 SOE     *
    2075              ;***************************************************************
    2076              
    2077 00000172       _EPWM3_ISR:
    2078                      .dwcfi  cfa_offset, -2
    2079                      .dwcfi  save_reg_to_mem, 26, 0
    2080 00000172 761B          ASP       ; [CPU_] 
    2081 00000173 FFF0          PUSH      RB                    ; [CPU_] 
    2082                      .dwcfi  save_reg_to_mem, 73, 2
    2083                      .dwcfi  save_reg_to_mem, 74, 3
    2084                      .dwcfi  cfa_offset, -4
    2085 00000174 E200          MOV32     *SP++,STF             ; [CPU_] 
         00000175 00BD 
    2086                      .dwcfi  save_reg_to_mem, 39, 4
    2087                      .dwcfi  save_reg_to_mem, 40, 5
    2088                      .dwcfi  cfa_offset, -6
    2089 00000176 E630          SETFLG    RNDF32=1, RNDF64=1    ; [CPU_] 
         00000177 0600 
    2090 00000178 2942          CLRC      PAGE0,OVM             ; [CPU_] 
    2091 00000179 5616          CLRC      AMODE                 ; [CPU_] 
    2092                      .dwpsn  file "C:/ti/controlSUITE/device_support/F2837xS/v170/F2837xS_common/source/F2837xS_DefaultISR
    2093 0000017a 7625        ESTOP0
    2094 0000017b       $C$L38:    
    2095                      .dwpsn  file "C:/ti/controlSUITE/device_support/F2837xS/v170/F2837xS_common/source/F2837xS_DefaultISR
    2096 0000017b 6F00          B         $C$L38,UNC            ; [CPU_] |509| 
    2097                      ; branch occurs ; [] |509| 
    2098                      .dwattr $C$DW$38, DW_AT_TI_end_file("C:/ti/controlSUITE/device_support/F2837xS/v170/F2837xS_common/so
    2099                      .dwattr $C$DW$38, DW_AT_TI_end_line(0x1fe)
    2100                      .dwattr $C$DW$38, DW_AT_TI_end_column(0x01)
    2101                      .dwendentry
    2102                      .dwendtag $C$DW$38
    2103              
    2104 0000017c               .sect   ".text:retain"
    2105                      .retain
    2106                      .retainrefs
    2107                      .global _EPWM4_ISR
    2108              
    2109              $C$DW$39        .dwtag  DW_TAG_subprogram, DW_AT_name("EPWM4_ISR")
    2110                      .dwattr $C$DW$39, DW_AT_low_pc(_EPWM4_ISR)
    2111                      .dwattr $C$DW$39, DW_AT_high_pc(0x00)
    2112                      .dwattr $C$DW$39, DW_AT_TI_symbol_name("_EPWM4_ISR")
    2113                      .dwattr $C$DW$39, DW_AT_external
    2114                      .dwattr $C$DW$39, DW_AT_TI_begin_file("C:/ti/controlSUITE/device_support/F2837xS/v170/F2837xS_common/
    2115                      .dwattr $C$DW$39, DW_AT_TI_begin_line(0x201)
    2116                      .dwattr $C$DW$39, DW_AT_TI_begin_column(0x10)
    2117                      .dwattr $C$DW$39, DW_AT_TI_interrupt
    2118                      .dwattr $C$DW$39, DW_AT_TI_max_frame_size(-6)
    2119                      .dwpsn  file "C:/ti/controlSUITE/device_support/F2837xS/v170/F2837xS_common/source/F2837xS_DefaultISR
    2120              
    2121                      .dwfde $C$DW$CIE, _EPWM4_ISR
    2122              
    2123              ;***************************************************************
    2124              ;* FNAME: _EPWM4_ISR                    FR SIZE:   4           *
TMS320C2000 Assembler PC v6.4.2 Thu Dec 14 15:26:09 2017

Tools Copyright (c) 1996-2015 Texas Instruments Incorporated
F2837xS_DefaultISR.asm                                               PAGE   41

    2125              ;*                                                             *
    2126              ;* FUNCTION ENVIRONMENT                                        *
    2127              ;*                                                             *
    2128              ;* FUNCTION PROPERTIES                                         *
    2129              ;*                            0 Parameter,  0 Auto,  4 SOE     *
    2130              ;***************************************************************
    2131              
    2132 0000017c       _EPWM4_ISR:
    2133                      .dwcfi  cfa_offset, -2
    2134                      .dwcfi  save_reg_to_mem, 26, 0
    2135 0000017c 761B          ASP       ; [CPU_] 
    2136 0000017d FFF0          PUSH      RB                    ; [CPU_] 
    2137                      .dwcfi  save_reg_to_mem, 73, 2
    2138                      .dwcfi  save_reg_to_mem, 74, 3
    2139                      .dwcfi  cfa_offset, -4
    2140 0000017e E200          MOV32     *SP++,STF             ; [CPU_] 
         0000017f 00BD 
    2141                      .dwcfi  save_reg_to_mem, 39, 4
    2142                      .dwcfi  save_reg_to_mem, 40, 5
    2143                      .dwcfi  cfa_offset, -6
    2144 00000180 E630          SETFLG    RNDF32=1, RNDF64=1    ; [CPU_] 
         00000181 0600 
    2145 00000182 2942          CLRC      PAGE0,OVM             ; [CPU_] 
    2146 00000183 5616          CLRC      AMODE                 ; [CPU_] 
    2147                      .dwpsn  file "C:/ti/controlSUITE/device_support/F2837xS/v170/F2837xS_common/source/F2837xS_DefaultISR
    2148 00000184 7625        ESTOP0
    2149 00000185       $C$L39:    
    2150                      .dwpsn  file "C:/ti/controlSUITE/device_support/F2837xS/v170/F2837xS_common/source/F2837xS_DefaultISR
    2151 00000185 6F00          B         $C$L39,UNC            ; [CPU_] |524| 
    2152                      ; branch occurs ; [] |524| 
    2153                      .dwattr $C$DW$39, DW_AT_TI_end_file("C:/ti/controlSUITE/device_support/F2837xS/v170/F2837xS_common/so
    2154                      .dwattr $C$DW$39, DW_AT_TI_end_line(0x20d)
    2155                      .dwattr $C$DW$39, DW_AT_TI_end_column(0x01)
    2156                      .dwendentry
    2157                      .dwendtag $C$DW$39
    2158              
    2159 00000186               .sect   ".text:retain"
    2160                      .retain
    2161                      .retainrefs
    2162                      .global _EPWM5_ISR
    2163              
    2164              $C$DW$40        .dwtag  DW_TAG_subprogram, DW_AT_name("EPWM5_ISR")
    2165                      .dwattr $C$DW$40, DW_AT_low_pc(_EPWM5_ISR)
    2166                      .dwattr $C$DW$40, DW_AT_high_pc(0x00)
    2167                      .dwattr $C$DW$40, DW_AT_TI_symbol_name("_EPWM5_ISR")
    2168                      .dwattr $C$DW$40, DW_AT_external
    2169                      .dwattr $C$DW$40, DW_AT_TI_begin_file("C:/ti/controlSUITE/device_support/F2837xS/v170/F2837xS_common/
    2170                      .dwattr $C$DW$40, DW_AT_TI_begin_line(0x210)
    2171                      .dwattr $C$DW$40, DW_AT_TI_begin_column(0x10)
    2172                      .dwattr $C$DW$40, DW_AT_TI_interrupt
    2173                      .dwattr $C$DW$40, DW_AT_TI_max_frame_size(-6)
    2174                      .dwpsn  file "C:/ti/controlSUITE/device_support/F2837xS/v170/F2837xS_common/source/F2837xS_DefaultISR
    2175              
    2176                      .dwfde $C$DW$CIE, _EPWM5_ISR
    2177              
TMS320C2000 Assembler PC v6.4.2 Thu Dec 14 15:26:09 2017

Tools Copyright (c) 1996-2015 Texas Instruments Incorporated
F2837xS_DefaultISR.asm                                               PAGE   42

    2178              ;***************************************************************
    2179              ;* FNAME: _EPWM5_ISR                    FR SIZE:   4           *
    2180              ;*                                                             *
    2181              ;* FUNCTION ENVIRONMENT                                        *
    2182              ;*                                                             *
    2183              ;* FUNCTION PROPERTIES                                         *
    2184              ;*                            0 Parameter,  0 Auto,  4 SOE     *
    2185              ;***************************************************************
    2186              
    2187 00000186       _EPWM5_ISR:
    2188                      .dwcfi  cfa_offset, -2
    2189                      .dwcfi  save_reg_to_mem, 26, 0
    2190 00000186 761B          ASP       ; [CPU_] 
    2191 00000187 FFF0          PUSH      RB                    ; [CPU_] 
    2192                      .dwcfi  save_reg_to_mem, 73, 2
    2193                      .dwcfi  save_reg_to_mem, 74, 3
    2194                      .dwcfi  cfa_offset, -4
    2195 00000188 E200          MOV32     *SP++,STF             ; [CPU_] 
         00000189 00BD 
    2196                      .dwcfi  save_reg_to_mem, 39, 4
    2197                      .dwcfi  save_reg_to_mem, 40, 5
    2198                      .dwcfi  cfa_offset, -6
    2199 0000018a E630          SETFLG    RNDF32=1, RNDF64=1    ; [CPU_] 
         0000018b 0600 
    2200 0000018c 2942          CLRC      PAGE0,OVM             ; [CPU_] 
    2201 0000018d 5616          CLRC      AMODE                 ; [CPU_] 
    2202                      .dwpsn  file "C:/ti/controlSUITE/device_support/F2837xS/v170/F2837xS_common/source/F2837xS_DefaultISR
    2203 0000018e 7625        ESTOP0
    2204 0000018f       $C$L40:    
    2205                      .dwpsn  file "C:/ti/controlSUITE/device_support/F2837xS/v170/F2837xS_common/source/F2837xS_DefaultISR
    2206 0000018f 6F00          B         $C$L40,UNC            ; [CPU_] |539| 
    2207                      ; branch occurs ; [] |539| 
    2208                      .dwattr $C$DW$40, DW_AT_TI_end_file("C:/ti/controlSUITE/device_support/F2837xS/v170/F2837xS_common/so
    2209                      .dwattr $C$DW$40, DW_AT_TI_end_line(0x21c)
    2210                      .dwattr $C$DW$40, DW_AT_TI_end_column(0x01)
    2211                      .dwendentry
    2212                      .dwendtag $C$DW$40
    2213              
    2214 00000190               .sect   ".text:retain"
    2215                      .retain
    2216                      .retainrefs
    2217                      .global _EPWM6_ISR
    2218              
    2219              $C$DW$41        .dwtag  DW_TAG_subprogram, DW_AT_name("EPWM6_ISR")
    2220                      .dwattr $C$DW$41, DW_AT_low_pc(_EPWM6_ISR)
    2221                      .dwattr $C$DW$41, DW_AT_high_pc(0x00)
    2222                      .dwattr $C$DW$41, DW_AT_TI_symbol_name("_EPWM6_ISR")
    2223                      .dwattr $C$DW$41, DW_AT_external
    2224                      .dwattr $C$DW$41, DW_AT_TI_begin_file("C:/ti/controlSUITE/device_support/F2837xS/v170/F2837xS_common/
    2225                      .dwattr $C$DW$41, DW_AT_TI_begin_line(0x21f)
    2226                      .dwattr $C$DW$41, DW_AT_TI_begin_column(0x10)
    2227                      .dwattr $C$DW$41, DW_AT_TI_interrupt
    2228                      .dwattr $C$DW$41, DW_AT_TI_max_frame_size(-6)
    2229                      .dwpsn  file "C:/ti/controlSUITE/device_support/F2837xS/v170/F2837xS_common/source/F2837xS_DefaultISR
    2230              
TMS320C2000 Assembler PC v6.4.2 Thu Dec 14 15:26:09 2017

Tools Copyright (c) 1996-2015 Texas Instruments Incorporated
F2837xS_DefaultISR.asm                                               PAGE   43

    2231                      .dwfde $C$DW$CIE, _EPWM6_ISR
    2232              
    2233              ;***************************************************************
    2234              ;* FNAME: _EPWM6_ISR                    FR SIZE:   4           *
    2235              ;*                                                             *
    2236              ;* FUNCTION ENVIRONMENT                                        *
    2237              ;*                                                             *
    2238              ;* FUNCTION PROPERTIES                                         *
    2239              ;*                            0 Parameter,  0 Auto,  4 SOE     *
    2240              ;***************************************************************
    2241              
    2242 00000190       _EPWM6_ISR:
    2243                      .dwcfi  cfa_offset, -2
    2244                      .dwcfi  save_reg_to_mem, 26, 0
    2245 00000190 761B          ASP       ; [CPU_] 
    2246 00000191 FFF0          PUSH      RB                    ; [CPU_] 
    2247                      .dwcfi  save_reg_to_mem, 73, 2
    2248                      .dwcfi  save_reg_to_mem, 74, 3
    2249                      .dwcfi  cfa_offset, -4
    2250 00000192 E200          MOV32     *SP++,STF             ; [CPU_] 
         00000193 00BD 
    2251                      .dwcfi  save_reg_to_mem, 39, 4
    2252                      .dwcfi  save_reg_to_mem, 40, 5
    2253                      .dwcfi  cfa_offset, -6
    2254 00000194 E630          SETFLG    RNDF32=1, RNDF64=1    ; [CPU_] 
         00000195 0600 
    2255 00000196 2942          CLRC      PAGE0,OVM             ; [CPU_] 
    2256 00000197 5616          CLRC      AMODE                 ; [CPU_] 
    2257                      .dwpsn  file "C:/ti/controlSUITE/device_support/F2837xS/v170/F2837xS_common/source/F2837xS_DefaultISR
    2258 00000198 7625        ESTOP0
    2259 00000199       $C$L41:    
    2260                      .dwpsn  file "C:/ti/controlSUITE/device_support/F2837xS/v170/F2837xS_common/source/F2837xS_DefaultISR
    2261 00000199 6F00          B         $C$L41,UNC            ; [CPU_] |554| 
    2262                      ; branch occurs ; [] |554| 
    2263                      .dwattr $C$DW$41, DW_AT_TI_end_file("C:/ti/controlSUITE/device_support/F2837xS/v170/F2837xS_common/so
    2264                      .dwattr $C$DW$41, DW_AT_TI_end_line(0x22b)
    2265                      .dwattr $C$DW$41, DW_AT_TI_end_column(0x01)
    2266                      .dwendentry
    2267                      .dwendtag $C$DW$41
    2268              
    2269 0000019a               .sect   ".text:retain"
    2270                      .retain
    2271                      .retainrefs
    2272                      .global _EPWM7_ISR
    2273              
    2274              $C$DW$42        .dwtag  DW_TAG_subprogram, DW_AT_name("EPWM7_ISR")
    2275                      .dwattr $C$DW$42, DW_AT_low_pc(_EPWM7_ISR)
    2276                      .dwattr $C$DW$42, DW_AT_high_pc(0x00)
    2277                      .dwattr $C$DW$42, DW_AT_TI_symbol_name("_EPWM7_ISR")
    2278                      .dwattr $C$DW$42, DW_AT_external
    2279                      .dwattr $C$DW$42, DW_AT_TI_begin_file("C:/ti/controlSUITE/device_support/F2837xS/v170/F2837xS_common/
    2280                      .dwattr $C$DW$42, DW_AT_TI_begin_line(0x22e)
    2281                      .dwattr $C$DW$42, DW_AT_TI_begin_column(0x10)
    2282                      .dwattr $C$DW$42, DW_AT_TI_interrupt
    2283                      .dwattr $C$DW$42, DW_AT_TI_max_frame_size(-6)
TMS320C2000 Assembler PC v6.4.2 Thu Dec 14 15:26:09 2017

Tools Copyright (c) 1996-2015 Texas Instruments Incorporated
F2837xS_DefaultISR.asm                                               PAGE   44

    2284                      .dwpsn  file "C:/ti/controlSUITE/device_support/F2837xS/v170/F2837xS_common/source/F2837xS_DefaultISR
    2285              
    2286                      .dwfde $C$DW$CIE, _EPWM7_ISR
    2287              
    2288              ;***************************************************************
    2289              ;* FNAME: _EPWM7_ISR                    FR SIZE:   4           *
    2290              ;*                                                             *
    2291              ;* FUNCTION ENVIRONMENT                                        *
    2292              ;*                                                             *
    2293              ;* FUNCTION PROPERTIES                                         *
    2294              ;*                            0 Parameter,  0 Auto,  4 SOE     *
    2295              ;***************************************************************
    2296              
    2297 0000019a       _EPWM7_ISR:
    2298                      .dwcfi  cfa_offset, -2
    2299                      .dwcfi  save_reg_to_mem, 26, 0
    2300 0000019a 761B          ASP       ; [CPU_] 
    2301 0000019b FFF0          PUSH      RB                    ; [CPU_] 
    2302                      .dwcfi  save_reg_to_mem, 73, 2
    2303                      .dwcfi  save_reg_to_mem, 74, 3
    2304                      .dwcfi  cfa_offset, -4
    2305 0000019c E200          MOV32     *SP++,STF             ; [CPU_] 
         0000019d 00BD 
    2306                      .dwcfi  save_reg_to_mem, 39, 4
    2307                      .dwcfi  save_reg_to_mem, 40, 5
    2308                      .dwcfi  cfa_offset, -6
    2309 0000019e E630          SETFLG    RNDF32=1, RNDF64=1    ; [CPU_] 
         0000019f 0600 
    2310 000001a0 2942          CLRC      PAGE0,OVM             ; [CPU_] 
    2311 000001a1 5616          CLRC      AMODE                 ; [CPU_] 
    2312                      .dwpsn  file "C:/ti/controlSUITE/device_support/F2837xS/v170/F2837xS_common/source/F2837xS_DefaultISR
    2313 000001a2 7625        ESTOP0
    2314 000001a3       $C$L42:    
    2315                      .dwpsn  file "C:/ti/controlSUITE/device_support/F2837xS/v170/F2837xS_common/source/F2837xS_DefaultISR
    2316 000001a3 6F00          B         $C$L42,UNC            ; [CPU_] |569| 
    2317                      ; branch occurs ; [] |569| 
    2318                      .dwattr $C$DW$42, DW_AT_TI_end_file("C:/ti/controlSUITE/device_support/F2837xS/v170/F2837xS_common/so
    2319                      .dwattr $C$DW$42, DW_AT_TI_end_line(0x23a)
    2320                      .dwattr $C$DW$42, DW_AT_TI_end_column(0x01)
    2321                      .dwendentry
    2322                      .dwendtag $C$DW$42
    2323              
    2324 000001a4               .sect   ".text:retain"
    2325                      .retain
    2326                      .retainrefs
    2327                      .global _EPWM8_ISR
    2328              
    2329              $C$DW$43        .dwtag  DW_TAG_subprogram, DW_AT_name("EPWM8_ISR")
    2330                      .dwattr $C$DW$43, DW_AT_low_pc(_EPWM8_ISR)
    2331                      .dwattr $C$DW$43, DW_AT_high_pc(0x00)
    2332                      .dwattr $C$DW$43, DW_AT_TI_symbol_name("_EPWM8_ISR")
    2333                      .dwattr $C$DW$43, DW_AT_external
    2334                      .dwattr $C$DW$43, DW_AT_TI_begin_file("C:/ti/controlSUITE/device_support/F2837xS/v170/F2837xS_common/
    2335                      .dwattr $C$DW$43, DW_AT_TI_begin_line(0x23d)
    2336                      .dwattr $C$DW$43, DW_AT_TI_begin_column(0x10)
TMS320C2000 Assembler PC v6.4.2 Thu Dec 14 15:26:09 2017

Tools Copyright (c) 1996-2015 Texas Instruments Incorporated
F2837xS_DefaultISR.asm                                               PAGE   45

    2337                      .dwattr $C$DW$43, DW_AT_TI_interrupt
    2338                      .dwattr $C$DW$43, DW_AT_TI_max_frame_size(-6)
    2339                      .dwpsn  file "C:/ti/controlSUITE/device_support/F2837xS/v170/F2837xS_common/source/F2837xS_DefaultISR
    2340              
    2341                      .dwfde $C$DW$CIE, _EPWM8_ISR
    2342              
    2343              ;***************************************************************
    2344              ;* FNAME: _EPWM8_ISR                    FR SIZE:   4           *
    2345              ;*                                                             *
    2346              ;* FUNCTION ENVIRONMENT                                        *
    2347              ;*                                                             *
    2348              ;* FUNCTION PROPERTIES                                         *
    2349              ;*                            0 Parameter,  0 Auto,  4 SOE     *
    2350              ;***************************************************************
    2351              
    2352 000001a4       _EPWM8_ISR:
    2353                      .dwcfi  cfa_offset, -2
    2354                      .dwcfi  save_reg_to_mem, 26, 0
    2355 000001a4 761B          ASP       ; [CPU_] 
    2356 000001a5 FFF0          PUSH      RB                    ; [CPU_] 
    2357                      .dwcfi  save_reg_to_mem, 73, 2
    2358                      .dwcfi  save_reg_to_mem, 74, 3
    2359                      .dwcfi  cfa_offset, -4
    2360 000001a6 E200          MOV32     *SP++,STF             ; [CPU_] 
         000001a7 00BD 
    2361                      .dwcfi  save_reg_to_mem, 39, 4
    2362                      .dwcfi  save_reg_to_mem, 40, 5
    2363                      .dwcfi  cfa_offset, -6
    2364 000001a8 E630          SETFLG    RNDF32=1, RNDF64=1    ; [CPU_] 
         000001a9 0600 
    2365 000001aa 2942          CLRC      PAGE0,OVM             ; [CPU_] 
    2366 000001ab 5616          CLRC      AMODE                 ; [CPU_] 
    2367                      .dwpsn  file "C:/ti/controlSUITE/device_support/F2837xS/v170/F2837xS_common/source/F2837xS_DefaultISR
    2368 000001ac 7625        ESTOP0
    2369 000001ad       $C$L43:    
    2370                      .dwpsn  file "C:/ti/controlSUITE/device_support/F2837xS/v170/F2837xS_common/source/F2837xS_DefaultISR
    2371 000001ad 6F00          B         $C$L43,UNC            ; [CPU_] |584| 
    2372                      ; branch occurs ; [] |584| 
    2373                      .dwattr $C$DW$43, DW_AT_TI_end_file("C:/ti/controlSUITE/device_support/F2837xS/v170/F2837xS_common/so
    2374                      .dwattr $C$DW$43, DW_AT_TI_end_line(0x249)
    2375                      .dwattr $C$DW$43, DW_AT_TI_end_column(0x01)
    2376                      .dwendentry
    2377                      .dwendtag $C$DW$43
    2378              
    2379 000001ae               .sect   ".text:retain"
    2380                      .retain
    2381                      .retainrefs
    2382                      .global _ECAP1_ISR
    2383              
    2384              $C$DW$44        .dwtag  DW_TAG_subprogram, DW_AT_name("ECAP1_ISR")
    2385                      .dwattr $C$DW$44, DW_AT_low_pc(_ECAP1_ISR)
    2386                      .dwattr $C$DW$44, DW_AT_high_pc(0x00)
    2387                      .dwattr $C$DW$44, DW_AT_TI_symbol_name("_ECAP1_ISR")
    2388                      .dwattr $C$DW$44, DW_AT_external
    2389                      .dwattr $C$DW$44, DW_AT_TI_begin_file("C:/ti/controlSUITE/device_support/F2837xS/v170/F2837xS_common/
TMS320C2000 Assembler PC v6.4.2 Thu Dec 14 15:26:09 2017

Tools Copyright (c) 1996-2015 Texas Instruments Incorporated
F2837xS_DefaultISR.asm                                               PAGE   46

    2390                      .dwattr $C$DW$44, DW_AT_TI_begin_line(0x24c)
    2391                      .dwattr $C$DW$44, DW_AT_TI_begin_column(0x10)
    2392                      .dwattr $C$DW$44, DW_AT_TI_interrupt
    2393                      .dwattr $C$DW$44, DW_AT_TI_max_frame_size(-6)
    2394                      .dwpsn  file "C:/ti/controlSUITE/device_support/F2837xS/v170/F2837xS_common/source/F2837xS_DefaultISR
    2395              
    2396                      .dwfde $C$DW$CIE, _ECAP1_ISR
    2397              
    2398              ;***************************************************************
    2399              ;* FNAME: _ECAP1_ISR                    FR SIZE:   4           *
    2400              ;*                                                             *
    2401              ;* FUNCTION ENVIRONMENT                                        *
    2402              ;*                                                             *
    2403              ;* FUNCTION PROPERTIES                                         *
    2404              ;*                            0 Parameter,  0 Auto,  4 SOE     *
    2405              ;***************************************************************
    2406              
    2407 000001ae       _ECAP1_ISR:
    2408                      .dwcfi  cfa_offset, -2
    2409                      .dwcfi  save_reg_to_mem, 26, 0
    2410 000001ae 761B          ASP       ; [CPU_] 
    2411 000001af FFF0          PUSH      RB                    ; [CPU_] 
    2412                      .dwcfi  save_reg_to_mem, 73, 2
    2413                      .dwcfi  save_reg_to_mem, 74, 3
    2414                      .dwcfi  cfa_offset, -4
    2415 000001b0 E200          MOV32     *SP++,STF             ; [CPU_] 
         000001b1 00BD 
    2416                      .dwcfi  save_reg_to_mem, 39, 4
    2417                      .dwcfi  save_reg_to_mem, 40, 5
    2418                      .dwcfi  cfa_offset, -6
    2419 000001b2 E630          SETFLG    RNDF32=1, RNDF64=1    ; [CPU_] 
         000001b3 0600 
    2420 000001b4 2942          CLRC      PAGE0,OVM             ; [CPU_] 
    2421 000001b5 5616          CLRC      AMODE                 ; [CPU_] 
    2422                      .dwpsn  file "C:/ti/controlSUITE/device_support/F2837xS/v170/F2837xS_common/source/F2837xS_DefaultISR
    2423 000001b6 7625        ESTOP0
    2424 000001b7       $C$L44:    
    2425                      .dwpsn  file "C:/ti/controlSUITE/device_support/F2837xS/v170/F2837xS_common/source/F2837xS_DefaultISR
    2426 000001b7 6F00          B         $C$L44,UNC            ; [CPU_] |599| 
    2427                      ; branch occurs ; [] |599| 
    2428                      .dwattr $C$DW$44, DW_AT_TI_end_file("C:/ti/controlSUITE/device_support/F2837xS/v170/F2837xS_common/so
    2429                      .dwattr $C$DW$44, DW_AT_TI_end_line(0x258)
    2430                      .dwattr $C$DW$44, DW_AT_TI_end_column(0x01)
    2431                      .dwendentry
    2432                      .dwendtag $C$DW$44
    2433              
    2434 000001b8               .sect   ".text:retain"
    2435                      .retain
    2436                      .retainrefs
    2437                      .global _ECAP2_ISR
    2438              
    2439              $C$DW$45        .dwtag  DW_TAG_subprogram, DW_AT_name("ECAP2_ISR")
    2440                      .dwattr $C$DW$45, DW_AT_low_pc(_ECAP2_ISR)
    2441                      .dwattr $C$DW$45, DW_AT_high_pc(0x00)
    2442                      .dwattr $C$DW$45, DW_AT_TI_symbol_name("_ECAP2_ISR")
TMS320C2000 Assembler PC v6.4.2 Thu Dec 14 15:26:09 2017

Tools Copyright (c) 1996-2015 Texas Instruments Incorporated
F2837xS_DefaultISR.asm                                               PAGE   47

    2443                      .dwattr $C$DW$45, DW_AT_external
    2444                      .dwattr $C$DW$45, DW_AT_TI_begin_file("C:/ti/controlSUITE/device_support/F2837xS/v170/F2837xS_common/
    2445                      .dwattr $C$DW$45, DW_AT_TI_begin_line(0x25b)
    2446                      .dwattr $C$DW$45, DW_AT_TI_begin_column(0x10)
    2447                      .dwattr $C$DW$45, DW_AT_TI_interrupt
    2448                      .dwattr $C$DW$45, DW_AT_TI_max_frame_size(-6)
    2449                      .dwpsn  file "C:/ti/controlSUITE/device_support/F2837xS/v170/F2837xS_common/source/F2837xS_DefaultISR
    2450              
    2451                      .dwfde $C$DW$CIE, _ECAP2_ISR
    2452              
    2453              ;***************************************************************
    2454              ;* FNAME: _ECAP2_ISR                    FR SIZE:   4           *
    2455              ;*                                                             *
    2456              ;* FUNCTION ENVIRONMENT                                        *
    2457              ;*                                                             *
    2458              ;* FUNCTION PROPERTIES                                         *
    2459              ;*                            0 Parameter,  0 Auto,  4 SOE     *
    2460              ;***************************************************************
    2461              
    2462 000001b8       _ECAP2_ISR:
    2463                      .dwcfi  cfa_offset, -2
    2464                      .dwcfi  save_reg_to_mem, 26, 0
    2465 000001b8 761B          ASP       ; [CPU_] 
    2466 000001b9 FFF0          PUSH      RB                    ; [CPU_] 
    2467                      .dwcfi  save_reg_to_mem, 73, 2
    2468                      .dwcfi  save_reg_to_mem, 74, 3
    2469                      .dwcfi  cfa_offset, -4
    2470 000001ba E200          MOV32     *SP++,STF             ; [CPU_] 
         000001bb 00BD 
    2471                      .dwcfi  save_reg_to_mem, 39, 4
    2472                      .dwcfi  save_reg_to_mem, 40, 5
    2473                      .dwcfi  cfa_offset, -6
    2474 000001bc E630          SETFLG    RNDF32=1, RNDF64=1    ; [CPU_] 
         000001bd 0600 
    2475 000001be 2942          CLRC      PAGE0,OVM             ; [CPU_] 
    2476 000001bf 5616          CLRC      AMODE                 ; [CPU_] 
    2477                      .dwpsn  file "C:/ti/controlSUITE/device_support/F2837xS/v170/F2837xS_common/source/F2837xS_DefaultISR
    2478 000001c0 7625        ESTOP0
    2479 000001c1       $C$L45:    
    2480                      .dwpsn  file "C:/ti/controlSUITE/device_support/F2837xS/v170/F2837xS_common/source/F2837xS_DefaultISR
    2481 000001c1 6F00          B         $C$L45,UNC            ; [CPU_] |614| 
    2482                      ; branch occurs ; [] |614| 
    2483                      .dwattr $C$DW$45, DW_AT_TI_end_file("C:/ti/controlSUITE/device_support/F2837xS/v170/F2837xS_common/so
    2484                      .dwattr $C$DW$45, DW_AT_TI_end_line(0x267)
    2485                      .dwattr $C$DW$45, DW_AT_TI_end_column(0x01)
    2486                      .dwendentry
    2487                      .dwendtag $C$DW$45
    2488              
    2489 000001c2               .sect   ".text:retain"
    2490                      .retain
    2491                      .retainrefs
    2492                      .global _ECAP3_ISR
    2493              
    2494              $C$DW$46        .dwtag  DW_TAG_subprogram, DW_AT_name("ECAP3_ISR")
    2495                      .dwattr $C$DW$46, DW_AT_low_pc(_ECAP3_ISR)
TMS320C2000 Assembler PC v6.4.2 Thu Dec 14 15:26:09 2017

Tools Copyright (c) 1996-2015 Texas Instruments Incorporated
F2837xS_DefaultISR.asm                                               PAGE   48

    2496                      .dwattr $C$DW$46, DW_AT_high_pc(0x00)
    2497                      .dwattr $C$DW$46, DW_AT_TI_symbol_name("_ECAP3_ISR")
    2498                      .dwattr $C$DW$46, DW_AT_external
    2499                      .dwattr $C$DW$46, DW_AT_TI_begin_file("C:/ti/controlSUITE/device_support/F2837xS/v170/F2837xS_common/
    2500                      .dwattr $C$DW$46, DW_AT_TI_begin_line(0x26a)
    2501                      .dwattr $C$DW$46, DW_AT_TI_begin_column(0x10)
    2502                      .dwattr $C$DW$46, DW_AT_TI_interrupt
    2503                      .dwattr $C$DW$46, DW_AT_TI_max_frame_size(-6)
    2504                      .dwpsn  file "C:/ti/controlSUITE/device_support/F2837xS/v170/F2837xS_common/source/F2837xS_DefaultISR
    2505              
    2506                      .dwfde $C$DW$CIE, _ECAP3_ISR
    2507              
    2508              ;***************************************************************
    2509              ;* FNAME: _ECAP3_ISR                    FR SIZE:   4           *
    2510              ;*                                                             *
    2511              ;* FUNCTION ENVIRONMENT                                        *
    2512              ;*                                                             *
    2513              ;* FUNCTION PROPERTIES                                         *
    2514              ;*                            0 Parameter,  0 Auto,  4 SOE     *
    2515              ;***************************************************************
    2516              
    2517 000001c2       _ECAP3_ISR:
    2518                      .dwcfi  cfa_offset, -2
    2519                      .dwcfi  save_reg_to_mem, 26, 0
    2520 000001c2 761B          ASP       ; [CPU_] 
    2521 000001c3 FFF0          PUSH      RB                    ; [CPU_] 
    2522                      .dwcfi  save_reg_to_mem, 73, 2
    2523                      .dwcfi  save_reg_to_mem, 74, 3
    2524                      .dwcfi  cfa_offset, -4
    2525 000001c4 E200          MOV32     *SP++,STF             ; [CPU_] 
         000001c5 00BD 
    2526                      .dwcfi  save_reg_to_mem, 39, 4
    2527                      .dwcfi  save_reg_to_mem, 40, 5
    2528                      .dwcfi  cfa_offset, -6
    2529 000001c6 E630          SETFLG    RNDF32=1, RNDF64=1    ; [CPU_] 
         000001c7 0600 
    2530 000001c8 2942          CLRC      PAGE0,OVM             ; [CPU_] 
    2531 000001c9 5616          CLRC      AMODE                 ; [CPU_] 
    2532                      .dwpsn  file "C:/ti/controlSUITE/device_support/F2837xS/v170/F2837xS_common/source/F2837xS_DefaultISR
    2533 000001ca 7625        ESTOP0
    2534 000001cb       $C$L46:    
    2535                      .dwpsn  file "C:/ti/controlSUITE/device_support/F2837xS/v170/F2837xS_common/source/F2837xS_DefaultISR
    2536 000001cb 6F00          B         $C$L46,UNC            ; [CPU_] |629| 
    2537                      ; branch occurs ; [] |629| 
    2538                      .dwattr $C$DW$46, DW_AT_TI_end_file("C:/ti/controlSUITE/device_support/F2837xS/v170/F2837xS_common/so
    2539                      .dwattr $C$DW$46, DW_AT_TI_end_line(0x276)
    2540                      .dwattr $C$DW$46, DW_AT_TI_end_column(0x01)
    2541                      .dwendentry
    2542                      .dwendtag $C$DW$46
    2543              
    2544 000001cc               .sect   ".text:retain"
    2545                      .retain
    2546                      .retainrefs
    2547                      .global _ECAP4_ISR
    2548              
TMS320C2000 Assembler PC v6.4.2 Thu Dec 14 15:26:09 2017

Tools Copyright (c) 1996-2015 Texas Instruments Incorporated
F2837xS_DefaultISR.asm                                               PAGE   49

    2549              $C$DW$47        .dwtag  DW_TAG_subprogram, DW_AT_name("ECAP4_ISR")
    2550                      .dwattr $C$DW$47, DW_AT_low_pc(_ECAP4_ISR)
    2551                      .dwattr $C$DW$47, DW_AT_high_pc(0x00)
    2552                      .dwattr $C$DW$47, DW_AT_TI_symbol_name("_ECAP4_ISR")
    2553                      .dwattr $C$DW$47, DW_AT_external
    2554                      .dwattr $C$DW$47, DW_AT_TI_begin_file("C:/ti/controlSUITE/device_support/F2837xS/v170/F2837xS_common/
    2555                      .dwattr $C$DW$47, DW_AT_TI_begin_line(0x279)
    2556                      .dwattr $C$DW$47, DW_AT_TI_begin_column(0x10)
    2557                      .dwattr $C$DW$47, DW_AT_TI_interrupt
    2558                      .dwattr $C$DW$47, DW_AT_TI_max_frame_size(-6)
    2559                      .dwpsn  file "C:/ti/controlSUITE/device_support/F2837xS/v170/F2837xS_common/source/F2837xS_DefaultISR
    2560              
    2561                      .dwfde $C$DW$CIE, _ECAP4_ISR
    2562              
    2563              ;***************************************************************
    2564              ;* FNAME: _ECAP4_ISR                    FR SIZE:   4           *
    2565              ;*                                                             *
    2566              ;* FUNCTION ENVIRONMENT                                        *
    2567              ;*                                                             *
    2568              ;* FUNCTION PROPERTIES                                         *
    2569              ;*                            0 Parameter,  0 Auto,  4 SOE     *
    2570              ;***************************************************************
    2571              
    2572 000001cc       _ECAP4_ISR:
    2573                      .dwcfi  cfa_offset, -2
    2574                      .dwcfi  save_reg_to_mem, 26, 0
    2575 000001cc 761B          ASP       ; [CPU_] 
    2576 000001cd FFF0          PUSH      RB                    ; [CPU_] 
    2577                      .dwcfi  save_reg_to_mem, 73, 2
    2578                      .dwcfi  save_reg_to_mem, 74, 3
    2579                      .dwcfi  cfa_offset, -4
    2580 000001ce E200          MOV32     *SP++,STF             ; [CPU_] 
         000001cf 00BD 
    2581                      .dwcfi  save_reg_to_mem, 39, 4
    2582                      .dwcfi  save_reg_to_mem, 40, 5
    2583                      .dwcfi  cfa_offset, -6
    2584 000001d0 E630          SETFLG    RNDF32=1, RNDF64=1    ; [CPU_] 
         000001d1 0600 
    2585 000001d2 2942          CLRC      PAGE0,OVM             ; [CPU_] 
    2586 000001d3 5616          CLRC      AMODE                 ; [CPU_] 
    2587                      .dwpsn  file "C:/ti/controlSUITE/device_support/F2837xS/v170/F2837xS_common/source/F2837xS_DefaultISR
    2588 000001d4 7625        ESTOP0
    2589 000001d5       $C$L47:    
    2590                      .dwpsn  file "C:/ti/controlSUITE/device_support/F2837xS/v170/F2837xS_common/source/F2837xS_DefaultISR
    2591 000001d5 6F00          B         $C$L47,UNC            ; [CPU_] |644| 
    2592                      ; branch occurs ; [] |644| 
    2593                      .dwattr $C$DW$47, DW_AT_TI_end_file("C:/ti/controlSUITE/device_support/F2837xS/v170/F2837xS_common/so
    2594                      .dwattr $C$DW$47, DW_AT_TI_end_line(0x285)
    2595                      .dwattr $C$DW$47, DW_AT_TI_end_column(0x01)
    2596                      .dwendentry
    2597                      .dwendtag $C$DW$47
    2598              
    2599 000001d6               .sect   ".text:retain"
    2600                      .retain
    2601                      .retainrefs
TMS320C2000 Assembler PC v6.4.2 Thu Dec 14 15:26:09 2017

Tools Copyright (c) 1996-2015 Texas Instruments Incorporated
F2837xS_DefaultISR.asm                                               PAGE   50

    2602                      .global _ECAP5_ISR
    2603              
    2604              $C$DW$48        .dwtag  DW_TAG_subprogram, DW_AT_name("ECAP5_ISR")
    2605                      .dwattr $C$DW$48, DW_AT_low_pc(_ECAP5_ISR)
    2606                      .dwattr $C$DW$48, DW_AT_high_pc(0x00)
    2607                      .dwattr $C$DW$48, DW_AT_TI_symbol_name("_ECAP5_ISR")
    2608                      .dwattr $C$DW$48, DW_AT_external
    2609                      .dwattr $C$DW$48, DW_AT_TI_begin_file("C:/ti/controlSUITE/device_support/F2837xS/v170/F2837xS_common/
    2610                      .dwattr $C$DW$48, DW_AT_TI_begin_line(0x288)
    2611                      .dwattr $C$DW$48, DW_AT_TI_begin_column(0x10)
    2612                      .dwattr $C$DW$48, DW_AT_TI_interrupt
    2613                      .dwattr $C$DW$48, DW_AT_TI_max_frame_size(-6)
    2614                      .dwpsn  file "C:/ti/controlSUITE/device_support/F2837xS/v170/F2837xS_common/source/F2837xS_DefaultISR
    2615              
    2616                      .dwfde $C$DW$CIE, _ECAP5_ISR
    2617              
    2618              ;***************************************************************
    2619              ;* FNAME: _ECAP5_ISR                    FR SIZE:   4           *
    2620              ;*                                                             *
    2621              ;* FUNCTION ENVIRONMENT                                        *
    2622              ;*                                                             *
    2623              ;* FUNCTION PROPERTIES                                         *
    2624              ;*                            0 Parameter,  0 Auto,  4 SOE     *
    2625              ;***************************************************************
    2626              
    2627 000001d6       _ECAP5_ISR:
    2628                      .dwcfi  cfa_offset, -2
    2629                      .dwcfi  save_reg_to_mem, 26, 0
    2630 000001d6 761B          ASP       ; [CPU_] 
    2631 000001d7 FFF0          PUSH      RB                    ; [CPU_] 
    2632                      .dwcfi  save_reg_to_mem, 73, 2
    2633                      .dwcfi  save_reg_to_mem, 74, 3
    2634                      .dwcfi  cfa_offset, -4
    2635 000001d8 E200          MOV32     *SP++,STF             ; [CPU_] 
         000001d9 00BD 
    2636                      .dwcfi  save_reg_to_mem, 39, 4
    2637                      .dwcfi  save_reg_to_mem, 40, 5
    2638                      .dwcfi  cfa_offset, -6
    2639 000001da E630          SETFLG    RNDF32=1, RNDF64=1    ; [CPU_] 
         000001db 0600 
    2640 000001dc 2942          CLRC      PAGE0,OVM             ; [CPU_] 
    2641 000001dd 5616          CLRC      AMODE                 ; [CPU_] 
    2642                      .dwpsn  file "C:/ti/controlSUITE/device_support/F2837xS/v170/F2837xS_common/source/F2837xS_DefaultISR
    2643 000001de 7625        ESTOP0
    2644 000001df       $C$L48:    
    2645                      .dwpsn  file "C:/ti/controlSUITE/device_support/F2837xS/v170/F2837xS_common/source/F2837xS_DefaultISR
    2646 000001df 6F00          B         $C$L48,UNC            ; [CPU_] |659| 
    2647                      ; branch occurs ; [] |659| 
    2648                      .dwattr $C$DW$48, DW_AT_TI_end_file("C:/ti/controlSUITE/device_support/F2837xS/v170/F2837xS_common/so
    2649                      .dwattr $C$DW$48, DW_AT_TI_end_line(0x294)
    2650                      .dwattr $C$DW$48, DW_AT_TI_end_column(0x01)
    2651                      .dwendentry
    2652                      .dwendtag $C$DW$48
    2653              
    2654 000001e0               .sect   ".text:retain"
TMS320C2000 Assembler PC v6.4.2 Thu Dec 14 15:26:09 2017

Tools Copyright (c) 1996-2015 Texas Instruments Incorporated
F2837xS_DefaultISR.asm                                               PAGE   51

    2655                      .retain
    2656                      .retainrefs
    2657                      .global _ECAP6_ISR
    2658              
    2659              $C$DW$49        .dwtag  DW_TAG_subprogram, DW_AT_name("ECAP6_ISR")
    2660                      .dwattr $C$DW$49, DW_AT_low_pc(_ECAP6_ISR)
    2661                      .dwattr $C$DW$49, DW_AT_high_pc(0x00)
    2662                      .dwattr $C$DW$49, DW_AT_TI_symbol_name("_ECAP6_ISR")
    2663                      .dwattr $C$DW$49, DW_AT_external
    2664                      .dwattr $C$DW$49, DW_AT_TI_begin_file("C:/ti/controlSUITE/device_support/F2837xS/v170/F2837xS_common/
    2665                      .dwattr $C$DW$49, DW_AT_TI_begin_line(0x297)
    2666                      .dwattr $C$DW$49, DW_AT_TI_begin_column(0x10)
    2667                      .dwattr $C$DW$49, DW_AT_TI_interrupt
    2668                      .dwattr $C$DW$49, DW_AT_TI_max_frame_size(-6)
    2669                      .dwpsn  file "C:/ti/controlSUITE/device_support/F2837xS/v170/F2837xS_common/source/F2837xS_DefaultISR
    2670              
    2671                      .dwfde $C$DW$CIE, _ECAP6_ISR
    2672              
    2673              ;***************************************************************
    2674              ;* FNAME: _ECAP6_ISR                    FR SIZE:   4           *
    2675              ;*                                                             *
    2676              ;* FUNCTION ENVIRONMENT                                        *
    2677              ;*                                                             *
    2678              ;* FUNCTION PROPERTIES                                         *
    2679              ;*                            0 Parameter,  0 Auto,  4 SOE     *
    2680              ;***************************************************************
    2681              
    2682 000001e0       _ECAP6_ISR:
    2683                      .dwcfi  cfa_offset, -2
    2684                      .dwcfi  save_reg_to_mem, 26, 0
    2685 000001e0 761B          ASP       ; [CPU_] 
    2686 000001e1 FFF0          PUSH      RB                    ; [CPU_] 
    2687                      .dwcfi  save_reg_to_mem, 73, 2
    2688                      .dwcfi  save_reg_to_mem, 74, 3
    2689                      .dwcfi  cfa_offset, -4
    2690 000001e2 E200          MOV32     *SP++,STF             ; [CPU_] 
         000001e3 00BD 
    2691                      .dwcfi  save_reg_to_mem, 39, 4
    2692                      .dwcfi  save_reg_to_mem, 40, 5
    2693                      .dwcfi  cfa_offset, -6
    2694 000001e4 E630          SETFLG    RNDF32=1, RNDF64=1    ; [CPU_] 
         000001e5 0600 
    2695 000001e6 2942          CLRC      PAGE0,OVM             ; [CPU_] 
    2696 000001e7 5616          CLRC      AMODE                 ; [CPU_] 
    2697                      .dwpsn  file "C:/ti/controlSUITE/device_support/F2837xS/v170/F2837xS_common/source/F2837xS_DefaultISR
    2698 000001e8 7625        ESTOP0
    2699 000001e9       $C$L49:    
    2700                      .dwpsn  file "C:/ti/controlSUITE/device_support/F2837xS/v170/F2837xS_common/source/F2837xS_DefaultISR
    2701 000001e9 6F00          B         $C$L49,UNC            ; [CPU_] |674| 
    2702                      ; branch occurs ; [] |674| 
    2703                      .dwattr $C$DW$49, DW_AT_TI_end_file("C:/ti/controlSUITE/device_support/F2837xS/v170/F2837xS_common/so
    2704                      .dwattr $C$DW$49, DW_AT_TI_end_line(0x2a3)
    2705                      .dwattr $C$DW$49, DW_AT_TI_end_column(0x01)
    2706                      .dwendentry
    2707                      .dwendtag $C$DW$49
TMS320C2000 Assembler PC v6.4.2 Thu Dec 14 15:26:09 2017

Tools Copyright (c) 1996-2015 Texas Instruments Incorporated
F2837xS_DefaultISR.asm                                               PAGE   52

    2708              
    2709 000001ea               .sect   ".text:retain"
    2710                      .retain
    2711                      .retainrefs
    2712                      .global _EQEP1_ISR
    2713              
    2714              $C$DW$50        .dwtag  DW_TAG_subprogram, DW_AT_name("EQEP1_ISR")
    2715                      .dwattr $C$DW$50, DW_AT_low_pc(_EQEP1_ISR)
    2716                      .dwattr $C$DW$50, DW_AT_high_pc(0x00)
    2717                      .dwattr $C$DW$50, DW_AT_TI_symbol_name("_EQEP1_ISR")
    2718                      .dwattr $C$DW$50, DW_AT_external
    2719                      .dwattr $C$DW$50, DW_AT_TI_begin_file("C:/ti/controlSUITE/device_support/F2837xS/v170/F2837xS_common/
    2720                      .dwattr $C$DW$50, DW_AT_TI_begin_line(0x2a6)
    2721                      .dwattr $C$DW$50, DW_AT_TI_begin_column(0x10)
    2722                      .dwattr $C$DW$50, DW_AT_TI_interrupt
    2723                      .dwattr $C$DW$50, DW_AT_TI_max_frame_size(-6)
    2724                      .dwpsn  file "C:/ti/controlSUITE/device_support/F2837xS/v170/F2837xS_common/source/F2837xS_DefaultISR
    2725              
    2726                      .dwfde $C$DW$CIE, _EQEP1_ISR
    2727              
    2728              ;***************************************************************
    2729              ;* FNAME: _EQEP1_ISR                    FR SIZE:   4           *
    2730              ;*                                                             *
    2731              ;* FUNCTION ENVIRONMENT                                        *
    2732              ;*                                                             *
    2733              ;* FUNCTION PROPERTIES                                         *
    2734              ;*                            0 Parameter,  0 Auto,  4 SOE     *
    2735              ;***************************************************************
    2736              
    2737 000001ea       _EQEP1_ISR:
    2738                      .dwcfi  cfa_offset, -2
    2739                      .dwcfi  save_reg_to_mem, 26, 0
    2740 000001ea 761B          ASP       ; [CPU_] 
    2741 000001eb FFF0          PUSH      RB                    ; [CPU_] 
    2742                      .dwcfi  save_reg_to_mem, 73, 2
    2743                      .dwcfi  save_reg_to_mem, 74, 3
    2744                      .dwcfi  cfa_offset, -4
    2745 000001ec E200          MOV32     *SP++,STF             ; [CPU_] 
         000001ed 00BD 
    2746                      .dwcfi  save_reg_to_mem, 39, 4
    2747                      .dwcfi  save_reg_to_mem, 40, 5
    2748                      .dwcfi  cfa_offset, -6
    2749 000001ee E630          SETFLG    RNDF32=1, RNDF64=1    ; [CPU_] 
         000001ef 0600 
    2750 000001f0 2942          CLRC      PAGE0,OVM             ; [CPU_] 
    2751 000001f1 5616          CLRC      AMODE                 ; [CPU_] 
    2752                      .dwpsn  file "C:/ti/controlSUITE/device_support/F2837xS/v170/F2837xS_common/source/F2837xS_DefaultISR
    2753 000001f2 7625        ESTOP0
    2754 000001f3       $C$L50:    
    2755                      .dwpsn  file "C:/ti/controlSUITE/device_support/F2837xS/v170/F2837xS_common/source/F2837xS_DefaultISR
    2756 000001f3 6F00          B         $C$L50,UNC            ; [CPU_] |689| 
    2757                      ; branch occurs ; [] |689| 
    2758                      .dwattr $C$DW$50, DW_AT_TI_end_file("C:/ti/controlSUITE/device_support/F2837xS/v170/F2837xS_common/so
    2759                      .dwattr $C$DW$50, DW_AT_TI_end_line(0x2b2)
    2760                      .dwattr $C$DW$50, DW_AT_TI_end_column(0x01)
TMS320C2000 Assembler PC v6.4.2 Thu Dec 14 15:26:09 2017

Tools Copyright (c) 1996-2015 Texas Instruments Incorporated
F2837xS_DefaultISR.asm                                               PAGE   53

    2761                      .dwendentry
    2762                      .dwendtag $C$DW$50
    2763              
    2764 000001f4               .sect   ".text:retain"
    2765                      .retain
    2766                      .retainrefs
    2767                      .global _EQEP2_ISR
    2768              
    2769              $C$DW$51        .dwtag  DW_TAG_subprogram, DW_AT_name("EQEP2_ISR")
    2770                      .dwattr $C$DW$51, DW_AT_low_pc(_EQEP2_ISR)
    2771                      .dwattr $C$DW$51, DW_AT_high_pc(0x00)
    2772                      .dwattr $C$DW$51, DW_AT_TI_symbol_name("_EQEP2_ISR")
    2773                      .dwattr $C$DW$51, DW_AT_external
    2774                      .dwattr $C$DW$51, DW_AT_TI_begin_file("C:/ti/controlSUITE/device_support/F2837xS/v170/F2837xS_common/
    2775                      .dwattr $C$DW$51, DW_AT_TI_begin_line(0x2b5)
    2776                      .dwattr $C$DW$51, DW_AT_TI_begin_column(0x10)
    2777                      .dwattr $C$DW$51, DW_AT_TI_interrupt
    2778                      .dwattr $C$DW$51, DW_AT_TI_max_frame_size(-6)
    2779                      .dwpsn  file "C:/ti/controlSUITE/device_support/F2837xS/v170/F2837xS_common/source/F2837xS_DefaultISR
    2780              
    2781                      .dwfde $C$DW$CIE, _EQEP2_ISR
    2782              
    2783              ;***************************************************************
    2784              ;* FNAME: _EQEP2_ISR                    FR SIZE:   4           *
    2785              ;*                                                             *
    2786              ;* FUNCTION ENVIRONMENT                                        *
    2787              ;*                                                             *
    2788              ;* FUNCTION PROPERTIES                                         *
    2789              ;*                            0 Parameter,  0 Auto,  4 SOE     *
    2790              ;***************************************************************
    2791              
    2792 000001f4       _EQEP2_ISR:
    2793                      .dwcfi  cfa_offset, -2
    2794                      .dwcfi  save_reg_to_mem, 26, 0
    2795 000001f4 761B          ASP       ; [CPU_] 
    2796 000001f5 FFF0          PUSH      RB                    ; [CPU_] 
    2797                      .dwcfi  save_reg_to_mem, 73, 2
    2798                      .dwcfi  save_reg_to_mem, 74, 3
    2799                      .dwcfi  cfa_offset, -4
    2800 000001f6 E200          MOV32     *SP++,STF             ; [CPU_] 
         000001f7 00BD 
    2801                      .dwcfi  save_reg_to_mem, 39, 4
    2802                      .dwcfi  save_reg_to_mem, 40, 5
    2803                      .dwcfi  cfa_offset, -6
    2804 000001f8 E630          SETFLG    RNDF32=1, RNDF64=1    ; [CPU_] 
         000001f9 0600 
    2805 000001fa 2942          CLRC      PAGE0,OVM             ; [CPU_] 
    2806 000001fb 5616          CLRC      AMODE                 ; [CPU_] 
    2807                      .dwpsn  file "C:/ti/controlSUITE/device_support/F2837xS/v170/F2837xS_common/source/F2837xS_DefaultISR
    2808 000001fc 7625        ESTOP0
    2809 000001fd       $C$L51:    
    2810                      .dwpsn  file "C:/ti/controlSUITE/device_support/F2837xS/v170/F2837xS_common/source/F2837xS_DefaultISR
    2811 000001fd 6F00          B         $C$L51,UNC            ; [CPU_] |704| 
    2812                      ; branch occurs ; [] |704| 
    2813                      .dwattr $C$DW$51, DW_AT_TI_end_file("C:/ti/controlSUITE/device_support/F2837xS/v170/F2837xS_common/so
TMS320C2000 Assembler PC v6.4.2 Thu Dec 14 15:26:09 2017

Tools Copyright (c) 1996-2015 Texas Instruments Incorporated
F2837xS_DefaultISR.asm                                               PAGE   54

    2814                      .dwattr $C$DW$51, DW_AT_TI_end_line(0x2c1)
    2815                      .dwattr $C$DW$51, DW_AT_TI_end_column(0x01)
    2816                      .dwendentry
    2817                      .dwendtag $C$DW$51
    2818              
    2819 000001fe               .sect   ".text:retain"
    2820                      .retain
    2821                      .retainrefs
    2822                      .global _EQEP3_ISR
    2823              
    2824              $C$DW$52        .dwtag  DW_TAG_subprogram, DW_AT_name("EQEP3_ISR")
    2825                      .dwattr $C$DW$52, DW_AT_low_pc(_EQEP3_ISR)
    2826                      .dwattr $C$DW$52, DW_AT_high_pc(0x00)
    2827                      .dwattr $C$DW$52, DW_AT_TI_symbol_name("_EQEP3_ISR")
    2828                      .dwattr $C$DW$52, DW_AT_external
    2829                      .dwattr $C$DW$52, DW_AT_TI_begin_file("C:/ti/controlSUITE/device_support/F2837xS/v170/F2837xS_common/
    2830                      .dwattr $C$DW$52, DW_AT_TI_begin_line(0x2c4)
    2831                      .dwattr $C$DW$52, DW_AT_TI_begin_column(0x10)
    2832                      .dwattr $C$DW$52, DW_AT_TI_interrupt
    2833                      .dwattr $C$DW$52, DW_AT_TI_max_frame_size(-6)
    2834                      .dwpsn  file "C:/ti/controlSUITE/device_support/F2837xS/v170/F2837xS_common/source/F2837xS_DefaultISR
    2835              
    2836                      .dwfde $C$DW$CIE, _EQEP3_ISR
    2837              
    2838              ;***************************************************************
    2839              ;* FNAME: _EQEP3_ISR                    FR SIZE:   4           *
    2840              ;*                                                             *
    2841              ;* FUNCTION ENVIRONMENT                                        *
    2842              ;*                                                             *
    2843              ;* FUNCTION PROPERTIES                                         *
    2844              ;*                            0 Parameter,  0 Auto,  4 SOE     *
    2845              ;***************************************************************
    2846              
    2847 000001fe       _EQEP3_ISR:
    2848                      .dwcfi  cfa_offset, -2
    2849                      .dwcfi  save_reg_to_mem, 26, 0
    2850 000001fe 761B          ASP       ; [CPU_] 
    2851 000001ff FFF0          PUSH      RB                    ; [CPU_] 
    2852                      .dwcfi  save_reg_to_mem, 73, 2
    2853                      .dwcfi  save_reg_to_mem, 74, 3
    2854                      .dwcfi  cfa_offset, -4
    2855 00000200 E200          MOV32     *SP++,STF             ; [CPU_] 
         00000201 00BD 
    2856                      .dwcfi  save_reg_to_mem, 39, 4
    2857                      .dwcfi  save_reg_to_mem, 40, 5
    2858                      .dwcfi  cfa_offset, -6
    2859 00000202 E630          SETFLG    RNDF32=1, RNDF64=1    ; [CPU_] 
         00000203 0600 
    2860 00000204 2942          CLRC      PAGE0,OVM             ; [CPU_] 
    2861 00000205 5616          CLRC      AMODE                 ; [CPU_] 
    2862                      .dwpsn  file "C:/ti/controlSUITE/device_support/F2837xS/v170/F2837xS_common/source/F2837xS_DefaultISR
    2863 00000206 7625        ESTOP0
    2864 00000207       $C$L52:    
    2865                      .dwpsn  file "C:/ti/controlSUITE/device_support/F2837xS/v170/F2837xS_common/source/F2837xS_DefaultISR
    2866 00000207 6F00          B         $C$L52,UNC            ; [CPU_] |719| 
TMS320C2000 Assembler PC v6.4.2 Thu Dec 14 15:26:09 2017

Tools Copyright (c) 1996-2015 Texas Instruments Incorporated
F2837xS_DefaultISR.asm                                               PAGE   55

    2867                      ; branch occurs ; [] |719| 
    2868                      .dwattr $C$DW$52, DW_AT_TI_end_file("C:/ti/controlSUITE/device_support/F2837xS/v170/F2837xS_common/so
    2869                      .dwattr $C$DW$52, DW_AT_TI_end_line(0x2d0)
    2870                      .dwattr $C$DW$52, DW_AT_TI_end_column(0x01)
    2871                      .dwendentry
    2872                      .dwendtag $C$DW$52
    2873              
    2874 00000208               .sect   ".text:retain"
    2875                      .retain
    2876                      .retainrefs
    2877                      .global _SPIA_RX_ISR
    2878              
    2879              $C$DW$53        .dwtag  DW_TAG_subprogram, DW_AT_name("SPIA_RX_ISR")
    2880                      .dwattr $C$DW$53, DW_AT_low_pc(_SPIA_RX_ISR)
    2881                      .dwattr $C$DW$53, DW_AT_high_pc(0x00)
    2882                      .dwattr $C$DW$53, DW_AT_TI_symbol_name("_SPIA_RX_ISR")
    2883                      .dwattr $C$DW$53, DW_AT_external
    2884                      .dwattr $C$DW$53, DW_AT_TI_begin_file("C:/ti/controlSUITE/device_support/F2837xS/v170/F2837xS_common/
    2885                      .dwattr $C$DW$53, DW_AT_TI_begin_line(0x2d3)
    2886                      .dwattr $C$DW$53, DW_AT_TI_begin_column(0x10)
    2887                      .dwattr $C$DW$53, DW_AT_TI_interrupt
    2888                      .dwattr $C$DW$53, DW_AT_TI_max_frame_size(-6)
    2889                      .dwpsn  file "C:/ti/controlSUITE/device_support/F2837xS/v170/F2837xS_common/source/F2837xS_DefaultISR
    2890              
    2891                      .dwfde $C$DW$CIE, _SPIA_RX_ISR
    2892              
    2893              ;***************************************************************
    2894              ;* FNAME: _SPIA_RX_ISR                  FR SIZE:   4           *
    2895              ;*                                                             *
    2896              ;* FUNCTION ENVIRONMENT                                        *
    2897              ;*                                                             *
    2898              ;* FUNCTION PROPERTIES                                         *
    2899              ;*                            0 Parameter,  0 Auto,  4 SOE     *
    2900              ;***************************************************************
    2901              
    2902 00000208       _SPIA_RX_ISR:
    2903                      .dwcfi  cfa_offset, -2
    2904                      .dwcfi  save_reg_to_mem, 26, 0
    2905 00000208 761B          ASP       ; [CPU_] 
    2906 00000209 FFF0          PUSH      RB                    ; [CPU_] 
    2907                      .dwcfi  save_reg_to_mem, 73, 2
    2908                      .dwcfi  save_reg_to_mem, 74, 3
    2909                      .dwcfi  cfa_offset, -4
    2910 0000020a E200          MOV32     *SP++,STF             ; [CPU_] 
         0000020b 00BD 
    2911                      .dwcfi  save_reg_to_mem, 39, 4
    2912                      .dwcfi  save_reg_to_mem, 40, 5
    2913                      .dwcfi  cfa_offset, -6
    2914 0000020c E630          SETFLG    RNDF32=1, RNDF64=1    ; [CPU_] 
         0000020d 0600 
    2915 0000020e 2942          CLRC      PAGE0,OVM             ; [CPU_] 
    2916 0000020f 5616          CLRC      AMODE                 ; [CPU_] 
    2917                      .dwpsn  file "C:/ti/controlSUITE/device_support/F2837xS/v170/F2837xS_common/source/F2837xS_DefaultISR
    2918 00000210 7625        ESTOP0
    2919 00000211       $C$L53:    
TMS320C2000 Assembler PC v6.4.2 Thu Dec 14 15:26:09 2017

Tools Copyright (c) 1996-2015 Texas Instruments Incorporated
F2837xS_DefaultISR.asm                                               PAGE   56

    2920                      .dwpsn  file "C:/ti/controlSUITE/device_support/F2837xS/v170/F2837xS_common/source/F2837xS_DefaultISR
    2921 00000211 6F00          B         $C$L53,UNC            ; [CPU_] |734| 
    2922                      ; branch occurs ; [] |734| 
    2923                      .dwattr $C$DW$53, DW_AT_TI_end_file("C:/ti/controlSUITE/device_support/F2837xS/v170/F2837xS_common/so
    2924                      .dwattr $C$DW$53, DW_AT_TI_end_line(0x2df)
    2925                      .dwattr $C$DW$53, DW_AT_TI_end_column(0x01)
    2926                      .dwendentry
    2927                      .dwendtag $C$DW$53
    2928              
    2929 00000212               .sect   ".text:retain"
    2930                      .retain
    2931                      .retainrefs
    2932                      .global _SPIA_TX_ISR
    2933              
    2934              $C$DW$54        .dwtag  DW_TAG_subprogram, DW_AT_name("SPIA_TX_ISR")
    2935                      .dwattr $C$DW$54, DW_AT_low_pc(_SPIA_TX_ISR)
    2936                      .dwattr $C$DW$54, DW_AT_high_pc(0x00)
    2937                      .dwattr $C$DW$54, DW_AT_TI_symbol_name("_SPIA_TX_ISR")
    2938                      .dwattr $C$DW$54, DW_AT_external
    2939                      .dwattr $C$DW$54, DW_AT_TI_begin_file("C:/ti/controlSUITE/device_support/F2837xS/v170/F2837xS_common/
    2940                      .dwattr $C$DW$54, DW_AT_TI_begin_line(0x2e2)
    2941                      .dwattr $C$DW$54, DW_AT_TI_begin_column(0x10)
    2942                      .dwattr $C$DW$54, DW_AT_TI_interrupt
    2943                      .dwattr $C$DW$54, DW_AT_TI_max_frame_size(-6)
    2944                      .dwpsn  file "C:/ti/controlSUITE/device_support/F2837xS/v170/F2837xS_common/source/F2837xS_DefaultISR
    2945              
    2946                      .dwfde $C$DW$CIE, _SPIA_TX_ISR
    2947              
    2948              ;***************************************************************
    2949              ;* FNAME: _SPIA_TX_ISR                  FR SIZE:   4           *
    2950              ;*                                                             *
    2951              ;* FUNCTION ENVIRONMENT                                        *
    2952              ;*                                                             *
    2953              ;* FUNCTION PROPERTIES                                         *
    2954              ;*                            0 Parameter,  0 Auto,  4 SOE     *
    2955              ;***************************************************************
    2956              
    2957 00000212       _SPIA_TX_ISR:
    2958                      .dwcfi  cfa_offset, -2
    2959                      .dwcfi  save_reg_to_mem, 26, 0
    2960 00000212 761B          ASP       ; [CPU_] 
    2961 00000213 FFF0          PUSH      RB                    ; [CPU_] 
    2962                      .dwcfi  save_reg_to_mem, 73, 2
    2963                      .dwcfi  save_reg_to_mem, 74, 3
    2964                      .dwcfi  cfa_offset, -4
    2965 00000214 E200          MOV32     *SP++,STF             ; [CPU_] 
         00000215 00BD 
    2966                      .dwcfi  save_reg_to_mem, 39, 4
    2967                      .dwcfi  save_reg_to_mem, 40, 5
    2968                      .dwcfi  cfa_offset, -6
    2969 00000216 E630          SETFLG    RNDF32=1, RNDF64=1    ; [CPU_] 
         00000217 0600 
    2970 00000218 2942          CLRC      PAGE0,OVM             ; [CPU_] 
    2971 00000219 5616          CLRC      AMODE                 ; [CPU_] 
    2972                      .dwpsn  file "C:/ti/controlSUITE/device_support/F2837xS/v170/F2837xS_common/source/F2837xS_DefaultISR
TMS320C2000 Assembler PC v6.4.2 Thu Dec 14 15:26:09 2017

Tools Copyright (c) 1996-2015 Texas Instruments Incorporated
F2837xS_DefaultISR.asm                                               PAGE   57

    2973 0000021a 7625        ESTOP0
    2974 0000021b       $C$L54:    
    2975                      .dwpsn  file "C:/ti/controlSUITE/device_support/F2837xS/v170/F2837xS_common/source/F2837xS_DefaultISR
    2976 0000021b 6F00          B         $C$L54,UNC            ; [CPU_] |749| 
    2977                      ; branch occurs ; [] |749| 
    2978                      .dwattr $C$DW$54, DW_AT_TI_end_file("C:/ti/controlSUITE/device_support/F2837xS/v170/F2837xS_common/so
    2979                      .dwattr $C$DW$54, DW_AT_TI_end_line(0x2ee)
    2980                      .dwattr $C$DW$54, DW_AT_TI_end_column(0x01)
    2981                      .dwendentry
    2982                      .dwendtag $C$DW$54
    2983              
    2984 0000021c               .sect   ".text:retain"
    2985                      .retain
    2986                      .retainrefs
    2987                      .global _SPIB_RX_ISR
    2988              
    2989              $C$DW$55        .dwtag  DW_TAG_subprogram, DW_AT_name("SPIB_RX_ISR")
    2990                      .dwattr $C$DW$55, DW_AT_low_pc(_SPIB_RX_ISR)
    2991                      .dwattr $C$DW$55, DW_AT_high_pc(0x00)
    2992                      .dwattr $C$DW$55, DW_AT_TI_symbol_name("_SPIB_RX_ISR")
    2993                      .dwattr $C$DW$55, DW_AT_external
    2994                      .dwattr $C$DW$55, DW_AT_TI_begin_file("C:/ti/controlSUITE/device_support/F2837xS/v170/F2837xS_common/
    2995                      .dwattr $C$DW$55, DW_AT_TI_begin_line(0x2f1)
    2996                      .dwattr $C$DW$55, DW_AT_TI_begin_column(0x10)
    2997                      .dwattr $C$DW$55, DW_AT_TI_interrupt
    2998                      .dwattr $C$DW$55, DW_AT_TI_max_frame_size(-6)
    2999                      .dwpsn  file "C:/ti/controlSUITE/device_support/F2837xS/v170/F2837xS_common/source/F2837xS_DefaultISR
    3000              
    3001                      .dwfde $C$DW$CIE, _SPIB_RX_ISR
    3002              
    3003              ;***************************************************************
    3004              ;* FNAME: _SPIB_RX_ISR                  FR SIZE:   4           *
    3005              ;*                                                             *
    3006              ;* FUNCTION ENVIRONMENT                                        *
    3007              ;*                                                             *
    3008              ;* FUNCTION PROPERTIES                                         *
    3009              ;*                            0 Parameter,  0 Auto,  4 SOE     *
    3010              ;***************************************************************
    3011              
    3012 0000021c       _SPIB_RX_ISR:
    3013                      .dwcfi  cfa_offset, -2
    3014                      .dwcfi  save_reg_to_mem, 26, 0
    3015 0000021c 761B          ASP       ; [CPU_] 
    3016 0000021d FFF0          PUSH      RB                    ; [CPU_] 
    3017                      .dwcfi  save_reg_to_mem, 73, 2
    3018                      .dwcfi  save_reg_to_mem, 74, 3
    3019                      .dwcfi  cfa_offset, -4
    3020 0000021e E200          MOV32     *SP++,STF             ; [CPU_] 
         0000021f 00BD 
    3021                      .dwcfi  save_reg_to_mem, 39, 4
    3022                      .dwcfi  save_reg_to_mem, 40, 5
    3023                      .dwcfi  cfa_offset, -6
    3024 00000220 E630          SETFLG    RNDF32=1, RNDF64=1    ; [CPU_] 
         00000221 0600 
    3025 00000222 2942          CLRC      PAGE0,OVM             ; [CPU_] 
TMS320C2000 Assembler PC v6.4.2 Thu Dec 14 15:26:09 2017

Tools Copyright (c) 1996-2015 Texas Instruments Incorporated
F2837xS_DefaultISR.asm                                               PAGE   58

    3026 00000223 5616          CLRC      AMODE                 ; [CPU_] 
    3027                      .dwpsn  file "C:/ti/controlSUITE/device_support/F2837xS/v170/F2837xS_common/source/F2837xS_DefaultISR
    3028 00000224 7625        ESTOP0
    3029 00000225       $C$L55:    
    3030                      .dwpsn  file "C:/ti/controlSUITE/device_support/F2837xS/v170/F2837xS_common/source/F2837xS_DefaultISR
    3031 00000225 6F00          B         $C$L55,UNC            ; [CPU_] |764| 
    3032                      ; branch occurs ; [] |764| 
    3033                      .dwattr $C$DW$55, DW_AT_TI_end_file("C:/ti/controlSUITE/device_support/F2837xS/v170/F2837xS_common/so
    3034                      .dwattr $C$DW$55, DW_AT_TI_end_line(0x2fd)
    3035                      .dwattr $C$DW$55, DW_AT_TI_end_column(0x01)
    3036                      .dwendentry
    3037                      .dwendtag $C$DW$55
    3038              
    3039 00000226               .sect   ".text:retain"
    3040                      .retain
    3041                      .retainrefs
    3042                      .global _SPIB_TX_ISR
    3043              
    3044              $C$DW$56        .dwtag  DW_TAG_subprogram, DW_AT_name("SPIB_TX_ISR")
    3045                      .dwattr $C$DW$56, DW_AT_low_pc(_SPIB_TX_ISR)
    3046                      .dwattr $C$DW$56, DW_AT_high_pc(0x00)
    3047                      .dwattr $C$DW$56, DW_AT_TI_symbol_name("_SPIB_TX_ISR")
    3048                      .dwattr $C$DW$56, DW_AT_external
    3049                      .dwattr $C$DW$56, DW_AT_TI_begin_file("C:/ti/controlSUITE/device_support/F2837xS/v170/F2837xS_common/
    3050                      .dwattr $C$DW$56, DW_AT_TI_begin_line(0x300)
    3051                      .dwattr $C$DW$56, DW_AT_TI_begin_column(0x10)
    3052                      .dwattr $C$DW$56, DW_AT_TI_interrupt
    3053                      .dwattr $C$DW$56, DW_AT_TI_max_frame_size(-6)
    3054                      .dwpsn  file "C:/ti/controlSUITE/device_support/F2837xS/v170/F2837xS_common/source/F2837xS_DefaultISR
    3055              
    3056                      .dwfde $C$DW$CIE, _SPIB_TX_ISR
    3057              
    3058              ;***************************************************************
    3059              ;* FNAME: _SPIB_TX_ISR                  FR SIZE:   4           *
    3060              ;*                                                             *
    3061              ;* FUNCTION ENVIRONMENT                                        *
    3062              ;*                                                             *
    3063              ;* FUNCTION PROPERTIES                                         *
    3064              ;*                            0 Parameter,  0 Auto,  4 SOE     *
    3065              ;***************************************************************
    3066              
    3067 00000226       _SPIB_TX_ISR:
    3068                      .dwcfi  cfa_offset, -2
    3069                      .dwcfi  save_reg_to_mem, 26, 0
    3070 00000226 761B          ASP       ; [CPU_] 
    3071 00000227 FFF0          PUSH      RB                    ; [CPU_] 
    3072                      .dwcfi  save_reg_to_mem, 73, 2
    3073                      .dwcfi  save_reg_to_mem, 74, 3
    3074                      .dwcfi  cfa_offset, -4
    3075 00000228 E200          MOV32     *SP++,STF             ; [CPU_] 
         00000229 00BD 
    3076                      .dwcfi  save_reg_to_mem, 39, 4
    3077                      .dwcfi  save_reg_to_mem, 40, 5
    3078                      .dwcfi  cfa_offset, -6
    3079 0000022a E630          SETFLG    RNDF32=1, RNDF64=1    ; [CPU_] 
TMS320C2000 Assembler PC v6.4.2 Thu Dec 14 15:26:09 2017

Tools Copyright (c) 1996-2015 Texas Instruments Incorporated
F2837xS_DefaultISR.asm                                               PAGE   59

         0000022b 0600 
    3080 0000022c 2942          CLRC      PAGE0,OVM             ; [CPU_] 
    3081 0000022d 5616          CLRC      AMODE                 ; [CPU_] 
    3082                      .dwpsn  file "C:/ti/controlSUITE/device_support/F2837xS/v170/F2837xS_common/source/F2837xS_DefaultISR
    3083 0000022e 7625        ESTOP0
    3084 0000022f       $C$L56:    
    3085                      .dwpsn  file "C:/ti/controlSUITE/device_support/F2837xS/v170/F2837xS_common/source/F2837xS_DefaultISR
    3086 0000022f 6F00          B         $C$L56,UNC            ; [CPU_] |779| 
    3087                      ; branch occurs ; [] |779| 
    3088                      .dwattr $C$DW$56, DW_AT_TI_end_file("C:/ti/controlSUITE/device_support/F2837xS/v170/F2837xS_common/so
    3089                      .dwattr $C$DW$56, DW_AT_TI_end_line(0x30c)
    3090                      .dwattr $C$DW$56, DW_AT_TI_end_column(0x01)
    3091                      .dwendentry
    3092                      .dwendtag $C$DW$56
    3093              
    3094 00000230               .sect   ".text:retain"
    3095                      .retain
    3096                      .retainrefs
    3097                      .global _MCBSPA_RX_ISR
    3098              
    3099              $C$DW$57        .dwtag  DW_TAG_subprogram, DW_AT_name("MCBSPA_RX_ISR")
    3100                      .dwattr $C$DW$57, DW_AT_low_pc(_MCBSPA_RX_ISR)
    3101                      .dwattr $C$DW$57, DW_AT_high_pc(0x00)
    3102                      .dwattr $C$DW$57, DW_AT_TI_symbol_name("_MCBSPA_RX_ISR")
    3103                      .dwattr $C$DW$57, DW_AT_external
    3104                      .dwattr $C$DW$57, DW_AT_TI_begin_file("C:/ti/controlSUITE/device_support/F2837xS/v170/F2837xS_common/
    3105                      .dwattr $C$DW$57, DW_AT_TI_begin_line(0x30f)
    3106                      .dwattr $C$DW$57, DW_AT_TI_begin_column(0x10)
    3107                      .dwattr $C$DW$57, DW_AT_TI_interrupt
    3108                      .dwattr $C$DW$57, DW_AT_TI_max_frame_size(-6)
    3109                      .dwpsn  file "C:/ti/controlSUITE/device_support/F2837xS/v170/F2837xS_common/source/F2837xS_DefaultISR
    3110              
    3111                      .dwfde $C$DW$CIE, _MCBSPA_RX_ISR
    3112              
    3113              ;***************************************************************
    3114              ;* FNAME: _MCBSPA_RX_ISR                FR SIZE:   4           *
    3115              ;*                                                             *
    3116              ;* FUNCTION ENVIRONMENT                                        *
    3117              ;*                                                             *
    3118              ;* FUNCTION PROPERTIES                                         *
    3119              ;*                            0 Parameter,  0 Auto,  4 SOE     *
    3120              ;***************************************************************
    3121              
    3122 00000230       _MCBSPA_RX_ISR:
    3123                      .dwcfi  cfa_offset, -2
    3124                      .dwcfi  save_reg_to_mem, 26, 0
    3125 00000230 761B          ASP       ; [CPU_] 
    3126 00000231 FFF0          PUSH      RB                    ; [CPU_] 
    3127                      .dwcfi  save_reg_to_mem, 73, 2
    3128                      .dwcfi  save_reg_to_mem, 74, 3
    3129                      .dwcfi  cfa_offset, -4
    3130 00000232 E200          MOV32     *SP++,STF             ; [CPU_] 
         00000233 00BD 
    3131                      .dwcfi  save_reg_to_mem, 39, 4
    3132                      .dwcfi  save_reg_to_mem, 40, 5
TMS320C2000 Assembler PC v6.4.2 Thu Dec 14 15:26:09 2017

Tools Copyright (c) 1996-2015 Texas Instruments Incorporated
F2837xS_DefaultISR.asm                                               PAGE   60

    3133                      .dwcfi  cfa_offset, -6
    3134 00000234 E630          SETFLG    RNDF32=1, RNDF64=1    ; [CPU_] 
         00000235 0600 
    3135 00000236 2942          CLRC      PAGE0,OVM             ; [CPU_] 
    3136 00000237 5616          CLRC      AMODE                 ; [CPU_] 
    3137                      .dwpsn  file "C:/ti/controlSUITE/device_support/F2837xS/v170/F2837xS_common/source/F2837xS_DefaultISR
    3138 00000238 7625        ESTOP0
    3139 00000239       $C$L57:    
    3140                      .dwpsn  file "C:/ti/controlSUITE/device_support/F2837xS/v170/F2837xS_common/source/F2837xS_DefaultISR
    3141 00000239 6F00          B         $C$L57,UNC            ; [CPU_] |794| 
    3142                      ; branch occurs ; [] |794| 
    3143                      .dwattr $C$DW$57, DW_AT_TI_end_file("C:/ti/controlSUITE/device_support/F2837xS/v170/F2837xS_common/so
    3144                      .dwattr $C$DW$57, DW_AT_TI_end_line(0x31b)
    3145                      .dwattr $C$DW$57, DW_AT_TI_end_column(0x01)
    3146                      .dwendentry
    3147                      .dwendtag $C$DW$57
    3148              
    3149 0000023a               .sect   ".text:retain"
    3150                      .retain
    3151                      .retainrefs
    3152                      .global _MCBSPA_TX_ISR
    3153              
    3154              $C$DW$58        .dwtag  DW_TAG_subprogram, DW_AT_name("MCBSPA_TX_ISR")
    3155                      .dwattr $C$DW$58, DW_AT_low_pc(_MCBSPA_TX_ISR)
    3156                      .dwattr $C$DW$58, DW_AT_high_pc(0x00)
    3157                      .dwattr $C$DW$58, DW_AT_TI_symbol_name("_MCBSPA_TX_ISR")
    3158                      .dwattr $C$DW$58, DW_AT_external
    3159                      .dwattr $C$DW$58, DW_AT_TI_begin_file("C:/ti/controlSUITE/device_support/F2837xS/v170/F2837xS_common/
    3160                      .dwattr $C$DW$58, DW_AT_TI_begin_line(0x31e)
    3161                      .dwattr $C$DW$58, DW_AT_TI_begin_column(0x10)
    3162                      .dwattr $C$DW$58, DW_AT_TI_interrupt
    3163                      .dwattr $C$DW$58, DW_AT_TI_max_frame_size(-6)
    3164                      .dwpsn  file "C:/ti/controlSUITE/device_support/F2837xS/v170/F2837xS_common/source/F2837xS_DefaultISR
    3165              
    3166                      .dwfde $C$DW$CIE, _MCBSPA_TX_ISR
    3167              
    3168              ;***************************************************************
    3169              ;* FNAME: _MCBSPA_TX_ISR                FR SIZE:   4           *
    3170              ;*                                                             *
    3171              ;* FUNCTION ENVIRONMENT                                        *
    3172              ;*                                                             *
    3173              ;* FUNCTION PROPERTIES                                         *
    3174              ;*                            0 Parameter,  0 Auto,  4 SOE     *
    3175              ;***************************************************************
    3176              
    3177 0000023a       _MCBSPA_TX_ISR:
    3178                      .dwcfi  cfa_offset, -2
    3179                      .dwcfi  save_reg_to_mem, 26, 0
    3180 0000023a 761B          ASP       ; [CPU_] 
    3181 0000023b FFF0          PUSH      RB                    ; [CPU_] 
    3182                      .dwcfi  save_reg_to_mem, 73, 2
    3183                      .dwcfi  save_reg_to_mem, 74, 3
    3184                      .dwcfi  cfa_offset, -4
    3185 0000023c E200          MOV32     *SP++,STF             ; [CPU_] 
         0000023d 00BD 
TMS320C2000 Assembler PC v6.4.2 Thu Dec 14 15:26:09 2017

Tools Copyright (c) 1996-2015 Texas Instruments Incorporated
F2837xS_DefaultISR.asm                                               PAGE   61

    3186                      .dwcfi  save_reg_to_mem, 39, 4
    3187                      .dwcfi  save_reg_to_mem, 40, 5
    3188                      .dwcfi  cfa_offset, -6
    3189 0000023e E630          SETFLG    RNDF32=1, RNDF64=1    ; [CPU_] 
         0000023f 0600 
    3190 00000240 2942          CLRC      PAGE0,OVM             ; [CPU_] 
    3191 00000241 5616          CLRC      AMODE                 ; [CPU_] 
    3192                      .dwpsn  file "C:/ti/controlSUITE/device_support/F2837xS/v170/F2837xS_common/source/F2837xS_DefaultISR
    3193 00000242 7625        ESTOP0
    3194 00000243       $C$L58:    
    3195                      .dwpsn  file "C:/ti/controlSUITE/device_support/F2837xS/v170/F2837xS_common/source/F2837xS_DefaultISR
    3196 00000243 6F00          B         $C$L58,UNC            ; [CPU_] |809| 
    3197                      ; branch occurs ; [] |809| 
    3198                      .dwattr $C$DW$58, DW_AT_TI_end_file("C:/ti/controlSUITE/device_support/F2837xS/v170/F2837xS_common/so
    3199                      .dwattr $C$DW$58, DW_AT_TI_end_line(0x32a)
    3200                      .dwattr $C$DW$58, DW_AT_TI_end_column(0x01)
    3201                      .dwendentry
    3202                      .dwendtag $C$DW$58
    3203              
    3204 00000244               .sect   ".text:retain"
    3205                      .retain
    3206                      .retainrefs
    3207                      .global _MCBSPB_RX_ISR
    3208              
    3209              $C$DW$59        .dwtag  DW_TAG_subprogram, DW_AT_name("MCBSPB_RX_ISR")
    3210                      .dwattr $C$DW$59, DW_AT_low_pc(_MCBSPB_RX_ISR)
    3211                      .dwattr $C$DW$59, DW_AT_high_pc(0x00)
    3212                      .dwattr $C$DW$59, DW_AT_TI_symbol_name("_MCBSPB_RX_ISR")
    3213                      .dwattr $C$DW$59, DW_AT_external
    3214                      .dwattr $C$DW$59, DW_AT_TI_begin_file("C:/ti/controlSUITE/device_support/F2837xS/v170/F2837xS_common/
    3215                      .dwattr $C$DW$59, DW_AT_TI_begin_line(0x32d)
    3216                      .dwattr $C$DW$59, DW_AT_TI_begin_column(0x10)
    3217                      .dwattr $C$DW$59, DW_AT_TI_interrupt
    3218                      .dwattr $C$DW$59, DW_AT_TI_max_frame_size(-6)
    3219                      .dwpsn  file "C:/ti/controlSUITE/device_support/F2837xS/v170/F2837xS_common/source/F2837xS_DefaultISR
    3220              
    3221                      .dwfde $C$DW$CIE, _MCBSPB_RX_ISR
    3222              
    3223              ;***************************************************************
    3224              ;* FNAME: _MCBSPB_RX_ISR                FR SIZE:   4           *
    3225              ;*                                                             *
    3226              ;* FUNCTION ENVIRONMENT                                        *
    3227              ;*                                                             *
    3228              ;* FUNCTION PROPERTIES                                         *
    3229              ;*                            0 Parameter,  0 Auto,  4 SOE     *
    3230              ;***************************************************************
    3231              
    3232 00000244       _MCBSPB_RX_ISR:
    3233                      .dwcfi  cfa_offset, -2
    3234                      .dwcfi  save_reg_to_mem, 26, 0
    3235 00000244 761B          ASP       ; [CPU_] 
    3236 00000245 FFF0          PUSH      RB                    ; [CPU_] 
    3237                      .dwcfi  save_reg_to_mem, 73, 2
    3238                      .dwcfi  save_reg_to_mem, 74, 3
    3239                      .dwcfi  cfa_offset, -4
TMS320C2000 Assembler PC v6.4.2 Thu Dec 14 15:26:09 2017

Tools Copyright (c) 1996-2015 Texas Instruments Incorporated
F2837xS_DefaultISR.asm                                               PAGE   62

    3240 00000246 E200          MOV32     *SP++,STF             ; [CPU_] 
         00000247 00BD 
    3241                      .dwcfi  save_reg_to_mem, 39, 4
    3242                      .dwcfi  save_reg_to_mem, 40, 5
    3243                      .dwcfi  cfa_offset, -6
    3244 00000248 E630          SETFLG    RNDF32=1, RNDF64=1    ; [CPU_] 
         00000249 0600 
    3245 0000024a 2942          CLRC      PAGE0,OVM             ; [CPU_] 
    3246 0000024b 5616          CLRC      AMODE                 ; [CPU_] 
    3247                      .dwpsn  file "C:/ti/controlSUITE/device_support/F2837xS/v170/F2837xS_common/source/F2837xS_DefaultISR
    3248 0000024c 7625        ESTOP0
    3249 0000024d       $C$L59:    
    3250                      .dwpsn  file "C:/ti/controlSUITE/device_support/F2837xS/v170/F2837xS_common/source/F2837xS_DefaultISR
    3251 0000024d 6F00          B         $C$L59,UNC            ; [CPU_] |824| 
    3252                      ; branch occurs ; [] |824| 
    3253                      .dwattr $C$DW$59, DW_AT_TI_end_file("C:/ti/controlSUITE/device_support/F2837xS/v170/F2837xS_common/so
    3254                      .dwattr $C$DW$59, DW_AT_TI_end_line(0x339)
    3255                      .dwattr $C$DW$59, DW_AT_TI_end_column(0x01)
    3256                      .dwendentry
    3257                      .dwendtag $C$DW$59
    3258              
    3259 0000024e               .sect   ".text:retain"
    3260                      .retain
    3261                      .retainrefs
    3262                      .global _MCBSPB_TX_ISR
    3263              
    3264              $C$DW$60        .dwtag  DW_TAG_subprogram, DW_AT_name("MCBSPB_TX_ISR")
    3265                      .dwattr $C$DW$60, DW_AT_low_pc(_MCBSPB_TX_ISR)
    3266                      .dwattr $C$DW$60, DW_AT_high_pc(0x00)
    3267                      .dwattr $C$DW$60, DW_AT_TI_symbol_name("_MCBSPB_TX_ISR")
    3268                      .dwattr $C$DW$60, DW_AT_external
    3269                      .dwattr $C$DW$60, DW_AT_TI_begin_file("C:/ti/controlSUITE/device_support/F2837xS/v170/F2837xS_common/
    3270                      .dwattr $C$DW$60, DW_AT_TI_begin_line(0x33c)
    3271                      .dwattr $C$DW$60, DW_AT_TI_begin_column(0x10)
    3272                      .dwattr $C$DW$60, DW_AT_TI_interrupt
    3273                      .dwattr $C$DW$60, DW_AT_TI_max_frame_size(-6)
    3274                      .dwpsn  file "C:/ti/controlSUITE/device_support/F2837xS/v170/F2837xS_common/source/F2837xS_DefaultISR
    3275              
    3276                      .dwfde $C$DW$CIE, _MCBSPB_TX_ISR
    3277              
    3278              ;***************************************************************
    3279              ;* FNAME: _MCBSPB_TX_ISR                FR SIZE:   4           *
    3280              ;*                                                             *
    3281              ;* FUNCTION ENVIRONMENT                                        *
    3282              ;*                                                             *
    3283              ;* FUNCTION PROPERTIES                                         *
    3284              ;*                            0 Parameter,  0 Auto,  4 SOE     *
    3285              ;***************************************************************
    3286              
    3287 0000024e       _MCBSPB_TX_ISR:
    3288                      .dwcfi  cfa_offset, -2
    3289                      .dwcfi  save_reg_to_mem, 26, 0
    3290 0000024e 761B          ASP       ; [CPU_] 
    3291 0000024f FFF0          PUSH      RB                    ; [CPU_] 
    3292                      .dwcfi  save_reg_to_mem, 73, 2
TMS320C2000 Assembler PC v6.4.2 Thu Dec 14 15:26:09 2017

Tools Copyright (c) 1996-2015 Texas Instruments Incorporated
F2837xS_DefaultISR.asm                                               PAGE   63

    3293                      .dwcfi  save_reg_to_mem, 74, 3
    3294                      .dwcfi  cfa_offset, -4
    3295 00000250 E200          MOV32     *SP++,STF             ; [CPU_] 
         00000251 00BD 
    3296                      .dwcfi  save_reg_to_mem, 39, 4
    3297                      .dwcfi  save_reg_to_mem, 40, 5
    3298                      .dwcfi  cfa_offset, -6
    3299 00000252 E630          SETFLG    RNDF32=1, RNDF64=1    ; [CPU_] 
         00000253 0600 
    3300 00000254 2942          CLRC      PAGE0,OVM             ; [CPU_] 
    3301 00000255 5616          CLRC      AMODE                 ; [CPU_] 
    3302                      .dwpsn  file "C:/ti/controlSUITE/device_support/F2837xS/v170/F2837xS_common/source/F2837xS_DefaultISR
    3303 00000256 7625        ESTOP0
    3304 00000257       $C$L60:    
    3305                      .dwpsn  file "C:/ti/controlSUITE/device_support/F2837xS/v170/F2837xS_common/source/F2837xS_DefaultISR
    3306 00000257 6F00          B         $C$L60,UNC            ; [CPU_] |839| 
    3307                      ; branch occurs ; [] |839| 
    3308                      .dwattr $C$DW$60, DW_AT_TI_end_file("C:/ti/controlSUITE/device_support/F2837xS/v170/F2837xS_common/so
    3309                      .dwattr $C$DW$60, DW_AT_TI_end_line(0x348)
    3310                      .dwattr $C$DW$60, DW_AT_TI_end_column(0x01)
    3311                      .dwendentry
    3312                      .dwendtag $C$DW$60
    3313              
    3314 00000258               .sect   ".text:retain"
    3315                      .retain
    3316                      .retainrefs
    3317                      .global _DMA_CH1_ISR
    3318              
    3319              $C$DW$61        .dwtag  DW_TAG_subprogram, DW_AT_name("DMA_CH1_ISR")
    3320                      .dwattr $C$DW$61, DW_AT_low_pc(_DMA_CH1_ISR)
    3321                      .dwattr $C$DW$61, DW_AT_high_pc(0x00)
    3322                      .dwattr $C$DW$61, DW_AT_TI_symbol_name("_DMA_CH1_ISR")
    3323                      .dwattr $C$DW$61, DW_AT_external
    3324                      .dwattr $C$DW$61, DW_AT_TI_begin_file("C:/ti/controlSUITE/device_support/F2837xS/v170/F2837xS_common/
    3325                      .dwattr $C$DW$61, DW_AT_TI_begin_line(0x34b)
    3326                      .dwattr $C$DW$61, DW_AT_TI_begin_column(0x10)
    3327                      .dwattr $C$DW$61, DW_AT_TI_interrupt
    3328                      .dwattr $C$DW$61, DW_AT_TI_max_frame_size(-6)
    3329                      .dwpsn  file "C:/ti/controlSUITE/device_support/F2837xS/v170/F2837xS_common/source/F2837xS_DefaultISR
    3330              
    3331                      .dwfde $C$DW$CIE, _DMA_CH1_ISR
    3332              
    3333              ;***************************************************************
    3334              ;* FNAME: _DMA_CH1_ISR                  FR SIZE:   4           *
    3335              ;*                                                             *
    3336              ;* FUNCTION ENVIRONMENT                                        *
    3337              ;*                                                             *
    3338              ;* FUNCTION PROPERTIES                                         *
    3339              ;*                            0 Parameter,  0 Auto,  4 SOE     *
    3340              ;***************************************************************
    3341              
    3342 00000258       _DMA_CH1_ISR:
    3343                      .dwcfi  cfa_offset, -2
    3344                      .dwcfi  save_reg_to_mem, 26, 0
    3345 00000258 761B          ASP       ; [CPU_] 
TMS320C2000 Assembler PC v6.4.2 Thu Dec 14 15:26:09 2017

Tools Copyright (c) 1996-2015 Texas Instruments Incorporated
F2837xS_DefaultISR.asm                                               PAGE   64

    3346 00000259 FFF0          PUSH      RB                    ; [CPU_] 
    3347                      .dwcfi  save_reg_to_mem, 73, 2
    3348                      .dwcfi  save_reg_to_mem, 74, 3
    3349                      .dwcfi  cfa_offset, -4
    3350 0000025a E200          MOV32     *SP++,STF             ; [CPU_] 
         0000025b 00BD 
    3351                      .dwcfi  save_reg_to_mem, 39, 4
    3352                      .dwcfi  save_reg_to_mem, 40, 5
    3353                      .dwcfi  cfa_offset, -6
    3354 0000025c E630          SETFLG    RNDF32=1, RNDF64=1    ; [CPU_] 
         0000025d 0600 
    3355 0000025e 2942          CLRC      PAGE0,OVM             ; [CPU_] 
    3356 0000025f 5616          CLRC      AMODE                 ; [CPU_] 
    3357                      .dwpsn  file "C:/ti/controlSUITE/device_support/F2837xS/v170/F2837xS_common/source/F2837xS_DefaultISR
    3358 00000260 7625        ESTOP0
    3359 00000261       $C$L61:    
    3360                      .dwpsn  file "C:/ti/controlSUITE/device_support/F2837xS/v170/F2837xS_common/source/F2837xS_DefaultISR
    3361 00000261 6F00          B         $C$L61,UNC            ; [CPU_] |854| 
    3362                      ; branch occurs ; [] |854| 
    3363                      .dwattr $C$DW$61, DW_AT_TI_end_file("C:/ti/controlSUITE/device_support/F2837xS/v170/F2837xS_common/so
    3364                      .dwattr $C$DW$61, DW_AT_TI_end_line(0x357)
    3365                      .dwattr $C$DW$61, DW_AT_TI_end_column(0x01)
    3366                      .dwendentry
    3367                      .dwendtag $C$DW$61
    3368              
    3369 00000262               .sect   ".text:retain"
    3370                      .retain
    3371                      .retainrefs
    3372                      .global _DMA_CH2_ISR
    3373              
    3374              $C$DW$62        .dwtag  DW_TAG_subprogram, DW_AT_name("DMA_CH2_ISR")
    3375                      .dwattr $C$DW$62, DW_AT_low_pc(_DMA_CH2_ISR)
    3376                      .dwattr $C$DW$62, DW_AT_high_pc(0x00)
    3377                      .dwattr $C$DW$62, DW_AT_TI_symbol_name("_DMA_CH2_ISR")
    3378                      .dwattr $C$DW$62, DW_AT_external
    3379                      .dwattr $C$DW$62, DW_AT_TI_begin_file("C:/ti/controlSUITE/device_support/F2837xS/v170/F2837xS_common/
    3380                      .dwattr $C$DW$62, DW_AT_TI_begin_line(0x35a)
    3381                      .dwattr $C$DW$62, DW_AT_TI_begin_column(0x10)
    3382                      .dwattr $C$DW$62, DW_AT_TI_interrupt
    3383                      .dwattr $C$DW$62, DW_AT_TI_max_frame_size(-6)
    3384                      .dwpsn  file "C:/ti/controlSUITE/device_support/F2837xS/v170/F2837xS_common/source/F2837xS_DefaultISR
    3385              
    3386                      .dwfde $C$DW$CIE, _DMA_CH2_ISR
    3387              
    3388              ;***************************************************************
    3389              ;* FNAME: _DMA_CH2_ISR                  FR SIZE:   4           *
    3390              ;*                                                             *
    3391              ;* FUNCTION ENVIRONMENT                                        *
    3392              ;*                                                             *
    3393              ;* FUNCTION PROPERTIES                                         *
    3394              ;*                            0 Parameter,  0 Auto,  4 SOE     *
    3395              ;***************************************************************
    3396              
    3397 00000262       _DMA_CH2_ISR:
    3398                      .dwcfi  cfa_offset, -2
TMS320C2000 Assembler PC v6.4.2 Thu Dec 14 15:26:09 2017

Tools Copyright (c) 1996-2015 Texas Instruments Incorporated
F2837xS_DefaultISR.asm                                               PAGE   65

    3399                      .dwcfi  save_reg_to_mem, 26, 0
    3400 00000262 761B          ASP       ; [CPU_] 
    3401 00000263 FFF0          PUSH      RB                    ; [CPU_] 
    3402                      .dwcfi  save_reg_to_mem, 73, 2
    3403                      .dwcfi  save_reg_to_mem, 74, 3
    3404                      .dwcfi  cfa_offset, -4
    3405 00000264 E200          MOV32     *SP++,STF             ; [CPU_] 
         00000265 00BD 
    3406                      .dwcfi  save_reg_to_mem, 39, 4
    3407                      .dwcfi  save_reg_to_mem, 40, 5
    3408                      .dwcfi  cfa_offset, -6
    3409 00000266 E630          SETFLG    RNDF32=1, RNDF64=1    ; [CPU_] 
         00000267 0600 
    3410 00000268 2942          CLRC      PAGE0,OVM             ; [CPU_] 
    3411 00000269 5616          CLRC      AMODE                 ; [CPU_] 
    3412                      .dwpsn  file "C:/ti/controlSUITE/device_support/F2837xS/v170/F2837xS_common/source/F2837xS_DefaultISR
    3413 0000026a 7625        ESTOP0
    3414 0000026b       $C$L62:    
    3415                      .dwpsn  file "C:/ti/controlSUITE/device_support/F2837xS/v170/F2837xS_common/source/F2837xS_DefaultISR
    3416 0000026b 6F00          B         $C$L62,UNC            ; [CPU_] |869| 
    3417                      ; branch occurs ; [] |869| 
    3418                      .dwattr $C$DW$62, DW_AT_TI_end_file("C:/ti/controlSUITE/device_support/F2837xS/v170/F2837xS_common/so
    3419                      .dwattr $C$DW$62, DW_AT_TI_end_line(0x366)
    3420                      .dwattr $C$DW$62, DW_AT_TI_end_column(0x01)
    3421                      .dwendentry
    3422                      .dwendtag $C$DW$62
    3423              
    3424 0000026c               .sect   ".text:retain"
    3425                      .retain
    3426                      .retainrefs
    3427                      .global _DMA_CH3_ISR
    3428              
    3429              $C$DW$63        .dwtag  DW_TAG_subprogram, DW_AT_name("DMA_CH3_ISR")
    3430                      .dwattr $C$DW$63, DW_AT_low_pc(_DMA_CH3_ISR)
    3431                      .dwattr $C$DW$63, DW_AT_high_pc(0x00)
    3432                      .dwattr $C$DW$63, DW_AT_TI_symbol_name("_DMA_CH3_ISR")
    3433                      .dwattr $C$DW$63, DW_AT_external
    3434                      .dwattr $C$DW$63, DW_AT_TI_begin_file("C:/ti/controlSUITE/device_support/F2837xS/v170/F2837xS_common/
    3435                      .dwattr $C$DW$63, DW_AT_TI_begin_line(0x369)
    3436                      .dwattr $C$DW$63, DW_AT_TI_begin_column(0x10)
    3437                      .dwattr $C$DW$63, DW_AT_TI_interrupt
    3438                      .dwattr $C$DW$63, DW_AT_TI_max_frame_size(-6)
    3439                      .dwpsn  file "C:/ti/controlSUITE/device_support/F2837xS/v170/F2837xS_common/source/F2837xS_DefaultISR
    3440              
    3441                      .dwfde $C$DW$CIE, _DMA_CH3_ISR
    3442              
    3443              ;***************************************************************
    3444              ;* FNAME: _DMA_CH3_ISR                  FR SIZE:   4           *
    3445              ;*                                                             *
    3446              ;* FUNCTION ENVIRONMENT                                        *
    3447              ;*                                                             *
    3448              ;* FUNCTION PROPERTIES                                         *
    3449              ;*                            0 Parameter,  0 Auto,  4 SOE     *
    3450              ;***************************************************************
    3451              
TMS320C2000 Assembler PC v6.4.2 Thu Dec 14 15:26:09 2017

Tools Copyright (c) 1996-2015 Texas Instruments Incorporated
F2837xS_DefaultISR.asm                                               PAGE   66

    3452 0000026c       _DMA_CH3_ISR:
    3453                      .dwcfi  cfa_offset, -2
    3454                      .dwcfi  save_reg_to_mem, 26, 0
    3455 0000026c 761B          ASP       ; [CPU_] 
    3456 0000026d FFF0          PUSH      RB                    ; [CPU_] 
    3457                      .dwcfi  save_reg_to_mem, 73, 2
    3458                      .dwcfi  save_reg_to_mem, 74, 3
    3459                      .dwcfi  cfa_offset, -4
    3460 0000026e E200          MOV32     *SP++,STF             ; [CPU_] 
         0000026f 00BD 
    3461                      .dwcfi  save_reg_to_mem, 39, 4
    3462                      .dwcfi  save_reg_to_mem, 40, 5
    3463                      .dwcfi  cfa_offset, -6
    3464 00000270 E630          SETFLG    RNDF32=1, RNDF64=1    ; [CPU_] 
         00000271 0600 
    3465 00000272 2942          CLRC      PAGE0,OVM             ; [CPU_] 
    3466 00000273 5616          CLRC      AMODE                 ; [CPU_] 
    3467                      .dwpsn  file "C:/ti/controlSUITE/device_support/F2837xS/v170/F2837xS_common/source/F2837xS_DefaultISR
    3468 00000274 7625        ESTOP0
    3469 00000275       $C$L63:    
    3470                      .dwpsn  file "C:/ti/controlSUITE/device_support/F2837xS/v170/F2837xS_common/source/F2837xS_DefaultISR
    3471 00000275 6F00          B         $C$L63,UNC            ; [CPU_] |884| 
    3472                      ; branch occurs ; [] |884| 
    3473                      .dwattr $C$DW$63, DW_AT_TI_end_file("C:/ti/controlSUITE/device_support/F2837xS/v170/F2837xS_common/so
    3474                      .dwattr $C$DW$63, DW_AT_TI_end_line(0x375)
    3475                      .dwattr $C$DW$63, DW_AT_TI_end_column(0x01)
    3476                      .dwendentry
    3477                      .dwendtag $C$DW$63
    3478              
    3479 00000276               .sect   ".text:retain"
    3480                      .retain
    3481                      .retainrefs
    3482                      .global _DMA_CH4_ISR
    3483              
    3484              $C$DW$64        .dwtag  DW_TAG_subprogram, DW_AT_name("DMA_CH4_ISR")
    3485                      .dwattr $C$DW$64, DW_AT_low_pc(_DMA_CH4_ISR)
    3486                      .dwattr $C$DW$64, DW_AT_high_pc(0x00)
    3487                      .dwattr $C$DW$64, DW_AT_TI_symbol_name("_DMA_CH4_ISR")
    3488                      .dwattr $C$DW$64, DW_AT_external
    3489                      .dwattr $C$DW$64, DW_AT_TI_begin_file("C:/ti/controlSUITE/device_support/F2837xS/v170/F2837xS_common/
    3490                      .dwattr $C$DW$64, DW_AT_TI_begin_line(0x378)
    3491                      .dwattr $C$DW$64, DW_AT_TI_begin_column(0x10)
    3492                      .dwattr $C$DW$64, DW_AT_TI_interrupt
    3493                      .dwattr $C$DW$64, DW_AT_TI_max_frame_size(-6)
    3494                      .dwpsn  file "C:/ti/controlSUITE/device_support/F2837xS/v170/F2837xS_common/source/F2837xS_DefaultISR
    3495              
    3496                      .dwfde $C$DW$CIE, _DMA_CH4_ISR
    3497              
    3498              ;***************************************************************
    3499              ;* FNAME: _DMA_CH4_ISR                  FR SIZE:   4           *
    3500              ;*                                                             *
    3501              ;* FUNCTION ENVIRONMENT                                        *
    3502              ;*                                                             *
    3503              ;* FUNCTION PROPERTIES                                         *
    3504              ;*                            0 Parameter,  0 Auto,  4 SOE     *
TMS320C2000 Assembler PC v6.4.2 Thu Dec 14 15:26:09 2017

Tools Copyright (c) 1996-2015 Texas Instruments Incorporated
F2837xS_DefaultISR.asm                                               PAGE   67

    3505              ;***************************************************************
    3506              
    3507 00000276       _DMA_CH4_ISR:
    3508                      .dwcfi  cfa_offset, -2
    3509                      .dwcfi  save_reg_to_mem, 26, 0
    3510 00000276 761B          ASP       ; [CPU_] 
    3511 00000277 FFF0          PUSH      RB                    ; [CPU_] 
    3512                      .dwcfi  save_reg_to_mem, 73, 2
    3513                      .dwcfi  save_reg_to_mem, 74, 3
    3514                      .dwcfi  cfa_offset, -4
    3515 00000278 E200          MOV32     *SP++,STF             ; [CPU_] 
         00000279 00BD 
    3516                      .dwcfi  save_reg_to_mem, 39, 4
    3517                      .dwcfi  save_reg_to_mem, 40, 5
    3518                      .dwcfi  cfa_offset, -6
    3519 0000027a E630          SETFLG    RNDF32=1, RNDF64=1    ; [CPU_] 
         0000027b 0600 
    3520 0000027c 2942          CLRC      PAGE0,OVM             ; [CPU_] 
    3521 0000027d 5616          CLRC      AMODE                 ; [CPU_] 
    3522                      .dwpsn  file "C:/ti/controlSUITE/device_support/F2837xS/v170/F2837xS_common/source/F2837xS_DefaultISR
    3523 0000027e 7625        ESTOP0
    3524 0000027f       $C$L64:    
    3525                      .dwpsn  file "C:/ti/controlSUITE/device_support/F2837xS/v170/F2837xS_common/source/F2837xS_DefaultISR
    3526 0000027f 6F00          B         $C$L64,UNC            ; [CPU_] |899| 
    3527                      ; branch occurs ; [] |899| 
    3528                      .dwattr $C$DW$64, DW_AT_TI_end_file("C:/ti/controlSUITE/device_support/F2837xS/v170/F2837xS_common/so
    3529                      .dwattr $C$DW$64, DW_AT_TI_end_line(0x384)
    3530                      .dwattr $C$DW$64, DW_AT_TI_end_column(0x01)
    3531                      .dwendentry
    3532                      .dwendtag $C$DW$64
    3533              
    3534 00000280               .sect   ".text:retain"
    3535                      .retain
    3536                      .retainrefs
    3537                      .global _DMA_CH5_ISR
    3538              
    3539              $C$DW$65        .dwtag  DW_TAG_subprogram, DW_AT_name("DMA_CH5_ISR")
    3540                      .dwattr $C$DW$65, DW_AT_low_pc(_DMA_CH5_ISR)
    3541                      .dwattr $C$DW$65, DW_AT_high_pc(0x00)
    3542                      .dwattr $C$DW$65, DW_AT_TI_symbol_name("_DMA_CH5_ISR")
    3543                      .dwattr $C$DW$65, DW_AT_external
    3544                      .dwattr $C$DW$65, DW_AT_TI_begin_file("C:/ti/controlSUITE/device_support/F2837xS/v170/F2837xS_common/
    3545                      .dwattr $C$DW$65, DW_AT_TI_begin_line(0x387)
    3546                      .dwattr $C$DW$65, DW_AT_TI_begin_column(0x10)
    3547                      .dwattr $C$DW$65, DW_AT_TI_interrupt
    3548                      .dwattr $C$DW$65, DW_AT_TI_max_frame_size(-6)
    3549                      .dwpsn  file "C:/ti/controlSUITE/device_support/F2837xS/v170/F2837xS_common/source/F2837xS_DefaultISR
    3550              
    3551                      .dwfde $C$DW$CIE, _DMA_CH5_ISR
    3552              
    3553              ;***************************************************************
    3554              ;* FNAME: _DMA_CH5_ISR                  FR SIZE:   4           *
    3555              ;*                                                             *
    3556              ;* FUNCTION ENVIRONMENT                                        *
    3557              ;*                                                             *
TMS320C2000 Assembler PC v6.4.2 Thu Dec 14 15:26:09 2017

Tools Copyright (c) 1996-2015 Texas Instruments Incorporated
F2837xS_DefaultISR.asm                                               PAGE   68

    3558              ;* FUNCTION PROPERTIES                                         *
    3559              ;*                            0 Parameter,  0 Auto,  4 SOE     *
    3560              ;***************************************************************
    3561              
    3562 00000280       _DMA_CH5_ISR:
    3563                      .dwcfi  cfa_offset, -2
    3564                      .dwcfi  save_reg_to_mem, 26, 0
    3565 00000280 761B          ASP       ; [CPU_] 
    3566 00000281 FFF0          PUSH      RB                    ; [CPU_] 
    3567                      .dwcfi  save_reg_to_mem, 73, 2
    3568                      .dwcfi  save_reg_to_mem, 74, 3
    3569                      .dwcfi  cfa_offset, -4
    3570 00000282 E200          MOV32     *SP++,STF             ; [CPU_] 
         00000283 00BD 
    3571                      .dwcfi  save_reg_to_mem, 39, 4
    3572                      .dwcfi  save_reg_to_mem, 40, 5
    3573                      .dwcfi  cfa_offset, -6
    3574 00000284 E630          SETFLG    RNDF32=1, RNDF64=1    ; [CPU_] 
         00000285 0600 
    3575 00000286 2942          CLRC      PAGE0,OVM             ; [CPU_] 
    3576 00000287 5616          CLRC      AMODE                 ; [CPU_] 
    3577                      .dwpsn  file "C:/ti/controlSUITE/device_support/F2837xS/v170/F2837xS_common/source/F2837xS_DefaultISR
    3578 00000288 7625        ESTOP0
    3579 00000289       $C$L65:    
    3580                      .dwpsn  file "C:/ti/controlSUITE/device_support/F2837xS/v170/F2837xS_common/source/F2837xS_DefaultISR
    3581 00000289 6F00          B         $C$L65,UNC            ; [CPU_] |914| 
    3582                      ; branch occurs ; [] |914| 
    3583                      .dwattr $C$DW$65, DW_AT_TI_end_file("C:/ti/controlSUITE/device_support/F2837xS/v170/F2837xS_common/so
    3584                      .dwattr $C$DW$65, DW_AT_TI_end_line(0x393)
    3585                      .dwattr $C$DW$65, DW_AT_TI_end_column(0x01)
    3586                      .dwendentry
    3587                      .dwendtag $C$DW$65
    3588              
    3589 0000028a               .sect   ".text:retain"
    3590                      .retain
    3591                      .retainrefs
    3592                      .global _DMA_CH6_ISR
    3593              
    3594              $C$DW$66        .dwtag  DW_TAG_subprogram, DW_AT_name("DMA_CH6_ISR")
    3595                      .dwattr $C$DW$66, DW_AT_low_pc(_DMA_CH6_ISR)
    3596                      .dwattr $C$DW$66, DW_AT_high_pc(0x00)
    3597                      .dwattr $C$DW$66, DW_AT_TI_symbol_name("_DMA_CH6_ISR")
    3598                      .dwattr $C$DW$66, DW_AT_external
    3599                      .dwattr $C$DW$66, DW_AT_TI_begin_file("C:/ti/controlSUITE/device_support/F2837xS/v170/F2837xS_common/
    3600                      .dwattr $C$DW$66, DW_AT_TI_begin_line(0x396)
    3601                      .dwattr $C$DW$66, DW_AT_TI_begin_column(0x10)
    3602                      .dwattr $C$DW$66, DW_AT_TI_interrupt
    3603                      .dwattr $C$DW$66, DW_AT_TI_max_frame_size(-6)
    3604                      .dwpsn  file "C:/ti/controlSUITE/device_support/F2837xS/v170/F2837xS_common/source/F2837xS_DefaultISR
    3605              
    3606                      .dwfde $C$DW$CIE, _DMA_CH6_ISR
    3607              
    3608              ;***************************************************************
    3609              ;* FNAME: _DMA_CH6_ISR                  FR SIZE:   4           *
    3610              ;*                                                             *
TMS320C2000 Assembler PC v6.4.2 Thu Dec 14 15:26:09 2017

Tools Copyright (c) 1996-2015 Texas Instruments Incorporated
F2837xS_DefaultISR.asm                                               PAGE   69

    3611              ;* FUNCTION ENVIRONMENT                                        *
    3612              ;*                                                             *
    3613              ;* FUNCTION PROPERTIES                                         *
    3614              ;*                            0 Parameter,  0 Auto,  4 SOE     *
    3615              ;***************************************************************
    3616              
    3617 0000028a       _DMA_CH6_ISR:
    3618                      .dwcfi  cfa_offset, -2
    3619                      .dwcfi  save_reg_to_mem, 26, 0
    3620 0000028a 761B          ASP       ; [CPU_] 
    3621 0000028b FFF0          PUSH      RB                    ; [CPU_] 
    3622                      .dwcfi  save_reg_to_mem, 73, 2
    3623                      .dwcfi  save_reg_to_mem, 74, 3
    3624                      .dwcfi  cfa_offset, -4
    3625 0000028c E200          MOV32     *SP++,STF             ; [CPU_] 
         0000028d 00BD 
    3626                      .dwcfi  save_reg_to_mem, 39, 4
    3627                      .dwcfi  save_reg_to_mem, 40, 5
    3628                      .dwcfi  cfa_offset, -6
    3629 0000028e E630          SETFLG    RNDF32=1, RNDF64=1    ; [CPU_] 
         0000028f 0600 
    3630 00000290 2942          CLRC      PAGE0,OVM             ; [CPU_] 
    3631 00000291 5616          CLRC      AMODE                 ; [CPU_] 
    3632                      .dwpsn  file "C:/ti/controlSUITE/device_support/F2837xS/v170/F2837xS_common/source/F2837xS_DefaultISR
    3633 00000292 7625        ESTOP0
    3634 00000293       $C$L66:    
    3635                      .dwpsn  file "C:/ti/controlSUITE/device_support/F2837xS/v170/F2837xS_common/source/F2837xS_DefaultISR
    3636 00000293 6F00          B         $C$L66,UNC            ; [CPU_] |929| 
    3637                      ; branch occurs ; [] |929| 
    3638                      .dwattr $C$DW$66, DW_AT_TI_end_file("C:/ti/controlSUITE/device_support/F2837xS/v170/F2837xS_common/so
    3639                      .dwattr $C$DW$66, DW_AT_TI_end_line(0x3a2)
    3640                      .dwattr $C$DW$66, DW_AT_TI_end_column(0x01)
    3641                      .dwendentry
    3642                      .dwendtag $C$DW$66
    3643              
    3644 00000294               .sect   ".text:retain"
    3645                      .retain
    3646                      .retainrefs
    3647                      .global _I2CA_ISR
    3648              
    3649              $C$DW$67        .dwtag  DW_TAG_subprogram, DW_AT_name("I2CA_ISR")
    3650                      .dwattr $C$DW$67, DW_AT_low_pc(_I2CA_ISR)
    3651                      .dwattr $C$DW$67, DW_AT_high_pc(0x00)
    3652                      .dwattr $C$DW$67, DW_AT_TI_symbol_name("_I2CA_ISR")
    3653                      .dwattr $C$DW$67, DW_AT_external
    3654                      .dwattr $C$DW$67, DW_AT_TI_begin_file("C:/ti/controlSUITE/device_support/F2837xS/v170/F2837xS_common/
    3655                      .dwattr $C$DW$67, DW_AT_TI_begin_line(0x3a5)
    3656                      .dwattr $C$DW$67, DW_AT_TI_begin_column(0x10)
    3657                      .dwattr $C$DW$67, DW_AT_TI_interrupt
    3658                      .dwattr $C$DW$67, DW_AT_TI_max_frame_size(-6)
    3659                      .dwpsn  file "C:/ti/controlSUITE/device_support/F2837xS/v170/F2837xS_common/source/F2837xS_DefaultISR
    3660              
    3661                      .dwfde $C$DW$CIE, _I2CA_ISR
    3662              
    3663              ;***************************************************************
TMS320C2000 Assembler PC v6.4.2 Thu Dec 14 15:26:09 2017

Tools Copyright (c) 1996-2015 Texas Instruments Incorporated
F2837xS_DefaultISR.asm                                               PAGE   70

    3664              ;* FNAME: _I2CA_ISR                     FR SIZE:   4           *
    3665              ;*                                                             *
    3666              ;* FUNCTION ENVIRONMENT                                        *
    3667              ;*                                                             *
    3668              ;* FUNCTION PROPERTIES                                         *
    3669              ;*                            0 Parameter,  0 Auto,  4 SOE     *
    3670              ;***************************************************************
    3671              
    3672 00000294       _I2CA_ISR:
    3673                      .dwcfi  cfa_offset, -2
    3674                      .dwcfi  save_reg_to_mem, 26, 0
    3675 00000294 761B          ASP       ; [CPU_] 
    3676 00000295 FFF0          PUSH      RB                    ; [CPU_] 
    3677                      .dwcfi  save_reg_to_mem, 73, 2
    3678                      .dwcfi  save_reg_to_mem, 74, 3
    3679                      .dwcfi  cfa_offset, -4
    3680 00000296 E200          MOV32     *SP++,STF             ; [CPU_] 
         00000297 00BD 
    3681                      .dwcfi  save_reg_to_mem, 39, 4
    3682                      .dwcfi  save_reg_to_mem, 40, 5
    3683                      .dwcfi  cfa_offset, -6
    3684 00000298 E630          SETFLG    RNDF32=1, RNDF64=1    ; [CPU_] 
         00000299 0600 
    3685 0000029a 2942          CLRC      PAGE0,OVM             ; [CPU_] 
    3686 0000029b 5616          CLRC      AMODE                 ; [CPU_] 
    3687                      .dwpsn  file "C:/ti/controlSUITE/device_support/F2837xS/v170/F2837xS_common/source/F2837xS_DefaultISR
    3688 0000029c 7625        ESTOP0
    3689 0000029d       $C$L67:    
    3690                      .dwpsn  file "C:/ti/controlSUITE/device_support/F2837xS/v170/F2837xS_common/source/F2837xS_DefaultISR
    3691 0000029d 6F00          B         $C$L67,UNC            ; [CPU_] |944| 
    3692                      ; branch occurs ; [] |944| 
    3693                      .dwattr $C$DW$67, DW_AT_TI_end_file("C:/ti/controlSUITE/device_support/F2837xS/v170/F2837xS_common/so
    3694                      .dwattr $C$DW$67, DW_AT_TI_end_line(0x3b1)
    3695                      .dwattr $C$DW$67, DW_AT_TI_end_column(0x01)
    3696                      .dwendentry
    3697                      .dwendtag $C$DW$67
    3698              
    3699 0000029e               .sect   ".text:retain"
    3700                      .retain
    3701                      .retainrefs
    3702                      .global _I2CA_FIFO_ISR
    3703              
    3704              $C$DW$68        .dwtag  DW_TAG_subprogram, DW_AT_name("I2CA_FIFO_ISR")
    3705                      .dwattr $C$DW$68, DW_AT_low_pc(_I2CA_FIFO_ISR)
    3706                      .dwattr $C$DW$68, DW_AT_high_pc(0x00)
    3707                      .dwattr $C$DW$68, DW_AT_TI_symbol_name("_I2CA_FIFO_ISR")
    3708                      .dwattr $C$DW$68, DW_AT_external
    3709                      .dwattr $C$DW$68, DW_AT_TI_begin_file("C:/ti/controlSUITE/device_support/F2837xS/v170/F2837xS_common/
    3710                      .dwattr $C$DW$68, DW_AT_TI_begin_line(0x3b4)
    3711                      .dwattr $C$DW$68, DW_AT_TI_begin_column(0x10)
    3712                      .dwattr $C$DW$68, DW_AT_TI_interrupt
    3713                      .dwattr $C$DW$68, DW_AT_TI_max_frame_size(-6)
    3714                      .dwpsn  file "C:/ti/controlSUITE/device_support/F2837xS/v170/F2837xS_common/source/F2837xS_DefaultISR
    3715              
    3716                      .dwfde $C$DW$CIE, _I2CA_FIFO_ISR
TMS320C2000 Assembler PC v6.4.2 Thu Dec 14 15:26:09 2017

Tools Copyright (c) 1996-2015 Texas Instruments Incorporated
F2837xS_DefaultISR.asm                                               PAGE   71

    3717              
    3718              ;***************************************************************
    3719              ;* FNAME: _I2CA_FIFO_ISR                FR SIZE:   4           *
    3720              ;*                                                             *
    3721              ;* FUNCTION ENVIRONMENT                                        *
    3722              ;*                                                             *
    3723              ;* FUNCTION PROPERTIES                                         *
    3724              ;*                            0 Parameter,  0 Auto,  4 SOE     *
    3725              ;***************************************************************
    3726              
    3727 0000029e       _I2CA_FIFO_ISR:
    3728                      .dwcfi  cfa_offset, -2
    3729                      .dwcfi  save_reg_to_mem, 26, 0
    3730 0000029e 761B          ASP       ; [CPU_] 
    3731 0000029f FFF0          PUSH      RB                    ; [CPU_] 
    3732                      .dwcfi  save_reg_to_mem, 73, 2
    3733                      .dwcfi  save_reg_to_mem, 74, 3
    3734                      .dwcfi  cfa_offset, -4
    3735 000002a0 E200          MOV32     *SP++,STF             ; [CPU_] 
         000002a1 00BD 
    3736                      .dwcfi  save_reg_to_mem, 39, 4
    3737                      .dwcfi  save_reg_to_mem, 40, 5
    3738                      .dwcfi  cfa_offset, -6
    3739 000002a2 E630          SETFLG    RNDF32=1, RNDF64=1    ; [CPU_] 
         000002a3 0600 
    3740 000002a4 2942          CLRC      PAGE0,OVM             ; [CPU_] 
    3741 000002a5 5616          CLRC      AMODE                 ; [CPU_] 
    3742                      .dwpsn  file "C:/ti/controlSUITE/device_support/F2837xS/v170/F2837xS_common/source/F2837xS_DefaultISR
    3743 000002a6 7625        ESTOP0
    3744 000002a7       $C$L68:    
    3745                      .dwpsn  file "C:/ti/controlSUITE/device_support/F2837xS/v170/F2837xS_common/source/F2837xS_DefaultISR
    3746 000002a7 6F00          B         $C$L68,UNC            ; [CPU_] |959| 
    3747                      ; branch occurs ; [] |959| 
    3748                      .dwattr $C$DW$68, DW_AT_TI_end_file("C:/ti/controlSUITE/device_support/F2837xS/v170/F2837xS_common/so
    3749                      .dwattr $C$DW$68, DW_AT_TI_end_line(0x3c0)
    3750                      .dwattr $C$DW$68, DW_AT_TI_end_column(0x01)
    3751                      .dwendentry
    3752                      .dwendtag $C$DW$68
    3753              
    3754 000002a8               .sect   ".text:retain"
    3755                      .retain
    3756                      .retainrefs
    3757                      .global _I2CB_ISR
    3758              
    3759              $C$DW$69        .dwtag  DW_TAG_subprogram, DW_AT_name("I2CB_ISR")
    3760                      .dwattr $C$DW$69, DW_AT_low_pc(_I2CB_ISR)
    3761                      .dwattr $C$DW$69, DW_AT_high_pc(0x00)
    3762                      .dwattr $C$DW$69, DW_AT_TI_symbol_name("_I2CB_ISR")
    3763                      .dwattr $C$DW$69, DW_AT_external
    3764                      .dwattr $C$DW$69, DW_AT_TI_begin_file("C:/ti/controlSUITE/device_support/F2837xS/v170/F2837xS_common/
    3765                      .dwattr $C$DW$69, DW_AT_TI_begin_line(0x3c3)
    3766                      .dwattr $C$DW$69, DW_AT_TI_begin_column(0x10)
    3767                      .dwattr $C$DW$69, DW_AT_TI_interrupt
    3768                      .dwattr $C$DW$69, DW_AT_TI_max_frame_size(-6)
    3769                      .dwpsn  file "C:/ti/controlSUITE/device_support/F2837xS/v170/F2837xS_common/source/F2837xS_DefaultISR
TMS320C2000 Assembler PC v6.4.2 Thu Dec 14 15:26:09 2017

Tools Copyright (c) 1996-2015 Texas Instruments Incorporated
F2837xS_DefaultISR.asm                                               PAGE   72

    3770              
    3771                      .dwfde $C$DW$CIE, _I2CB_ISR
    3772              
    3773              ;***************************************************************
    3774              ;* FNAME: _I2CB_ISR                     FR SIZE:   4           *
    3775              ;*                                                             *
    3776              ;* FUNCTION ENVIRONMENT                                        *
    3777              ;*                                                             *
    3778              ;* FUNCTION PROPERTIES                                         *
    3779              ;*                            0 Parameter,  0 Auto,  4 SOE     *
    3780              ;***************************************************************
    3781              
    3782 000002a8       _I2CB_ISR:
    3783                      .dwcfi  cfa_offset, -2
    3784                      .dwcfi  save_reg_to_mem, 26, 0
    3785 000002a8 761B          ASP       ; [CPU_] 
    3786 000002a9 FFF0          PUSH      RB                    ; [CPU_] 
    3787                      .dwcfi  save_reg_to_mem, 73, 2
    3788                      .dwcfi  save_reg_to_mem, 74, 3
    3789                      .dwcfi  cfa_offset, -4
    3790 000002aa E200          MOV32     *SP++,STF             ; [CPU_] 
         000002ab 00BD 
    3791                      .dwcfi  save_reg_to_mem, 39, 4
    3792                      .dwcfi  save_reg_to_mem, 40, 5
    3793                      .dwcfi  cfa_offset, -6
    3794 000002ac E630          SETFLG    RNDF32=1, RNDF64=1    ; [CPU_] 
         000002ad 0600 
    3795 000002ae 2942          CLRC      PAGE0,OVM             ; [CPU_] 
    3796 000002af 5616          CLRC      AMODE                 ; [CPU_] 
    3797                      .dwpsn  file "C:/ti/controlSUITE/device_support/F2837xS/v170/F2837xS_common/source/F2837xS_DefaultISR
    3798 000002b0 7625        ESTOP0
    3799 000002b1       $C$L69:    
    3800                      .dwpsn  file "C:/ti/controlSUITE/device_support/F2837xS/v170/F2837xS_common/source/F2837xS_DefaultISR
    3801 000002b1 6F00          B         $C$L69,UNC            ; [CPU_] |974| 
    3802                      ; branch occurs ; [] |974| 
    3803                      .dwattr $C$DW$69, DW_AT_TI_end_file("C:/ti/controlSUITE/device_support/F2837xS/v170/F2837xS_common/so
    3804                      .dwattr $C$DW$69, DW_AT_TI_end_line(0x3cf)
    3805                      .dwattr $C$DW$69, DW_AT_TI_end_column(0x01)
    3806                      .dwendentry
    3807                      .dwendtag $C$DW$69
    3808              
    3809 000002b2               .sect   ".text:retain"
    3810                      .retain
    3811                      .retainrefs
    3812                      .global _I2CB_FIFO_ISR
    3813              
    3814              $C$DW$70        .dwtag  DW_TAG_subprogram, DW_AT_name("I2CB_FIFO_ISR")
    3815                      .dwattr $C$DW$70, DW_AT_low_pc(_I2CB_FIFO_ISR)
    3816                      .dwattr $C$DW$70, DW_AT_high_pc(0x00)
    3817                      .dwattr $C$DW$70, DW_AT_TI_symbol_name("_I2CB_FIFO_ISR")
    3818                      .dwattr $C$DW$70, DW_AT_external
    3819                      .dwattr $C$DW$70, DW_AT_TI_begin_file("C:/ti/controlSUITE/device_support/F2837xS/v170/F2837xS_common/
    3820                      .dwattr $C$DW$70, DW_AT_TI_begin_line(0x3d2)
    3821                      .dwattr $C$DW$70, DW_AT_TI_begin_column(0x10)
    3822                      .dwattr $C$DW$70, DW_AT_TI_interrupt
TMS320C2000 Assembler PC v6.4.2 Thu Dec 14 15:26:09 2017

Tools Copyright (c) 1996-2015 Texas Instruments Incorporated
F2837xS_DefaultISR.asm                                               PAGE   73

    3823                      .dwattr $C$DW$70, DW_AT_TI_max_frame_size(-6)
    3824                      .dwpsn  file "C:/ti/controlSUITE/device_support/F2837xS/v170/F2837xS_common/source/F2837xS_DefaultISR
    3825              
    3826                      .dwfde $C$DW$CIE, _I2CB_FIFO_ISR
    3827              
    3828              ;***************************************************************
    3829              ;* FNAME: _I2CB_FIFO_ISR                FR SIZE:   4           *
    3830              ;*                                                             *
    3831              ;* FUNCTION ENVIRONMENT                                        *
    3832              ;*                                                             *
    3833              ;* FUNCTION PROPERTIES                                         *
    3834              ;*                            0 Parameter,  0 Auto,  4 SOE     *
    3835              ;***************************************************************
    3836              
    3837 000002b2       _I2CB_FIFO_ISR:
    3838                      .dwcfi  cfa_offset, -2
    3839                      .dwcfi  save_reg_to_mem, 26, 0
    3840 000002b2 761B          ASP       ; [CPU_] 
    3841 000002b3 FFF0          PUSH      RB                    ; [CPU_] 
    3842                      .dwcfi  save_reg_to_mem, 73, 2
    3843                      .dwcfi  save_reg_to_mem, 74, 3
    3844                      .dwcfi  cfa_offset, -4
    3845 000002b4 E200          MOV32     *SP++,STF             ; [CPU_] 
         000002b5 00BD 
    3846                      .dwcfi  save_reg_to_mem, 39, 4
    3847                      .dwcfi  save_reg_to_mem, 40, 5
    3848                      .dwcfi  cfa_offset, -6
    3849 000002b6 E630          SETFLG    RNDF32=1, RNDF64=1    ; [CPU_] 
         000002b7 0600 
    3850 000002b8 2942          CLRC      PAGE0,OVM             ; [CPU_] 
    3851 000002b9 5616          CLRC      AMODE                 ; [CPU_] 
    3852                      .dwpsn  file "C:/ti/controlSUITE/device_support/F2837xS/v170/F2837xS_common/source/F2837xS_DefaultISR
    3853 000002ba 7625        ESTOP0
    3854 000002bb       $C$L70:    
    3855                      .dwpsn  file "C:/ti/controlSUITE/device_support/F2837xS/v170/F2837xS_common/source/F2837xS_DefaultISR
    3856 000002bb 6F00          B         $C$L70,UNC            ; [CPU_] |989| 
    3857                      ; branch occurs ; [] |989| 
    3858                      .dwattr $C$DW$70, DW_AT_TI_end_file("C:/ti/controlSUITE/device_support/F2837xS/v170/F2837xS_common/so
    3859                      .dwattr $C$DW$70, DW_AT_TI_end_line(0x3de)
    3860                      .dwattr $C$DW$70, DW_AT_TI_end_column(0x01)
    3861                      .dwendentry
    3862                      .dwendtag $C$DW$70
    3863              
    3864 000002bc               .sect   ".text:retain"
    3865                      .retain
    3866                      .retainrefs
    3867                      .global _SCIC_RX_ISR
    3868              
    3869              $C$DW$71        .dwtag  DW_TAG_subprogram, DW_AT_name("SCIC_RX_ISR")
    3870                      .dwattr $C$DW$71, DW_AT_low_pc(_SCIC_RX_ISR)
    3871                      .dwattr $C$DW$71, DW_AT_high_pc(0x00)
    3872                      .dwattr $C$DW$71, DW_AT_TI_symbol_name("_SCIC_RX_ISR")
    3873                      .dwattr $C$DW$71, DW_AT_external
    3874                      .dwattr $C$DW$71, DW_AT_TI_begin_file("C:/ti/controlSUITE/device_support/F2837xS/v170/F2837xS_common/
    3875                      .dwattr $C$DW$71, DW_AT_TI_begin_line(0x3e1)
TMS320C2000 Assembler PC v6.4.2 Thu Dec 14 15:26:09 2017

Tools Copyright (c) 1996-2015 Texas Instruments Incorporated
F2837xS_DefaultISR.asm                                               PAGE   74

    3876                      .dwattr $C$DW$71, DW_AT_TI_begin_column(0x10)
    3877                      .dwattr $C$DW$71, DW_AT_TI_interrupt
    3878                      .dwattr $C$DW$71, DW_AT_TI_max_frame_size(-6)
    3879                      .dwpsn  file "C:/ti/controlSUITE/device_support/F2837xS/v170/F2837xS_common/source/F2837xS_DefaultISR
    3880              
    3881                      .dwfde $C$DW$CIE, _SCIC_RX_ISR
    3882              
    3883              ;***************************************************************
    3884              ;* FNAME: _SCIC_RX_ISR                  FR SIZE:   4           *
    3885              ;*                                                             *
    3886              ;* FUNCTION ENVIRONMENT                                        *
    3887              ;*                                                             *
    3888              ;* FUNCTION PROPERTIES                                         *
    3889              ;*                            0 Parameter,  0 Auto,  4 SOE     *
    3890              ;***************************************************************
    3891              
    3892 000002bc       _SCIC_RX_ISR:
    3893                      .dwcfi  cfa_offset, -2
    3894                      .dwcfi  save_reg_to_mem, 26, 0
    3895 000002bc 761B          ASP       ; [CPU_] 
    3896 000002bd FFF0          PUSH      RB                    ; [CPU_] 
    3897                      .dwcfi  save_reg_to_mem, 73, 2
    3898                      .dwcfi  save_reg_to_mem, 74, 3
    3899                      .dwcfi  cfa_offset, -4
    3900 000002be E200          MOV32     *SP++,STF             ; [CPU_] 
         000002bf 00BD 
    3901                      .dwcfi  save_reg_to_mem, 39, 4
    3902                      .dwcfi  save_reg_to_mem, 40, 5
    3903                      .dwcfi  cfa_offset, -6
    3904 000002c0 E630          SETFLG    RNDF32=1, RNDF64=1    ; [CPU_] 
         000002c1 0600 
    3905 000002c2 2942          CLRC      PAGE0,OVM             ; [CPU_] 
    3906 000002c3 5616          CLRC      AMODE                 ; [CPU_] 
    3907                      .dwpsn  file "C:/ti/controlSUITE/device_support/F2837xS/v170/F2837xS_common/source/F2837xS_DefaultISR
    3908 000002c4 7625        ESTOP0
    3909 000002c5       $C$L71:    
    3910                      .dwpsn  file "C:/ti/controlSUITE/device_support/F2837xS/v170/F2837xS_common/source/F2837xS_DefaultISR
    3911 000002c5 6F00          B         $C$L71,UNC            ; [CPU_] |1004| 
    3912                      ; branch occurs ; [] |1004| 
    3913                      .dwattr $C$DW$71, DW_AT_TI_end_file("C:/ti/controlSUITE/device_support/F2837xS/v170/F2837xS_common/so
    3914                      .dwattr $C$DW$71, DW_AT_TI_end_line(0x3ed)
    3915                      .dwattr $C$DW$71, DW_AT_TI_end_column(0x01)
    3916                      .dwendentry
    3917                      .dwendtag $C$DW$71
    3918              
    3919 000002c6               .sect   ".text:retain"
    3920                      .retain
    3921                      .retainrefs
    3922                      .global _SCIC_TX_ISR
    3923              
    3924              $C$DW$72        .dwtag  DW_TAG_subprogram, DW_AT_name("SCIC_TX_ISR")
    3925                      .dwattr $C$DW$72, DW_AT_low_pc(_SCIC_TX_ISR)
    3926                      .dwattr $C$DW$72, DW_AT_high_pc(0x00)
    3927                      .dwattr $C$DW$72, DW_AT_TI_symbol_name("_SCIC_TX_ISR")
    3928                      .dwattr $C$DW$72, DW_AT_external
TMS320C2000 Assembler PC v6.4.2 Thu Dec 14 15:26:09 2017

Tools Copyright (c) 1996-2015 Texas Instruments Incorporated
F2837xS_DefaultISR.asm                                               PAGE   75

    3929                      .dwattr $C$DW$72, DW_AT_TI_begin_file("C:/ti/controlSUITE/device_support/F2837xS/v170/F2837xS_common/
    3930                      .dwattr $C$DW$72, DW_AT_TI_begin_line(0x3f0)
    3931                      .dwattr $C$DW$72, DW_AT_TI_begin_column(0x10)
    3932                      .dwattr $C$DW$72, DW_AT_TI_interrupt
    3933                      .dwattr $C$DW$72, DW_AT_TI_max_frame_size(-6)
    3934                      .dwpsn  file "C:/ti/controlSUITE/device_support/F2837xS/v170/F2837xS_common/source/F2837xS_DefaultISR
    3935              
    3936                      .dwfde $C$DW$CIE, _SCIC_TX_ISR
    3937              
    3938              ;***************************************************************
    3939              ;* FNAME: _SCIC_TX_ISR                  FR SIZE:   4           *
    3940              ;*                                                             *
    3941              ;* FUNCTION ENVIRONMENT                                        *
    3942              ;*                                                             *
    3943              ;* FUNCTION PROPERTIES                                         *
    3944              ;*                            0 Parameter,  0 Auto,  4 SOE     *
    3945              ;***************************************************************
    3946              
    3947 000002c6       _SCIC_TX_ISR:
    3948                      .dwcfi  cfa_offset, -2
    3949                      .dwcfi  save_reg_to_mem, 26, 0
    3950 000002c6 761B          ASP       ; [CPU_] 
    3951 000002c7 FFF0          PUSH      RB                    ; [CPU_] 
    3952                      .dwcfi  save_reg_to_mem, 73, 2
    3953                      .dwcfi  save_reg_to_mem, 74, 3
    3954                      .dwcfi  cfa_offset, -4
    3955 000002c8 E200          MOV32     *SP++,STF             ; [CPU_] 
         000002c9 00BD 
    3956                      .dwcfi  save_reg_to_mem, 39, 4
    3957                      .dwcfi  save_reg_to_mem, 40, 5
    3958                      .dwcfi  cfa_offset, -6
    3959 000002ca E630          SETFLG    RNDF32=1, RNDF64=1    ; [CPU_] 
         000002cb 0600 
    3960 000002cc 2942          CLRC      PAGE0,OVM             ; [CPU_] 
    3961 000002cd 5616          CLRC      AMODE                 ; [CPU_] 
    3962                      .dwpsn  file "C:/ti/controlSUITE/device_support/F2837xS/v170/F2837xS_common/source/F2837xS_DefaultISR
    3963 000002ce 7625        ESTOP0
    3964 000002cf       $C$L72:    
    3965                      .dwpsn  file "C:/ti/controlSUITE/device_support/F2837xS/v170/F2837xS_common/source/F2837xS_DefaultISR
    3966 000002cf 6F00          B         $C$L72,UNC            ; [CPU_] |1019| 
    3967                      ; branch occurs ; [] |1019| 
    3968                      .dwattr $C$DW$72, DW_AT_TI_end_file("C:/ti/controlSUITE/device_support/F2837xS/v170/F2837xS_common/so
    3969                      .dwattr $C$DW$72, DW_AT_TI_end_line(0x3fc)
    3970                      .dwattr $C$DW$72, DW_AT_TI_end_column(0x01)
    3971                      .dwendentry
    3972                      .dwendtag $C$DW$72
    3973              
    3974 000002d0               .sect   ".text:retain"
    3975                      .retain
    3976                      .retainrefs
    3977                      .global _SCID_RX_ISR
    3978              
    3979              $C$DW$73        .dwtag  DW_TAG_subprogram, DW_AT_name("SCID_RX_ISR")
    3980                      .dwattr $C$DW$73, DW_AT_low_pc(_SCID_RX_ISR)
    3981                      .dwattr $C$DW$73, DW_AT_high_pc(0x00)
TMS320C2000 Assembler PC v6.4.2 Thu Dec 14 15:26:09 2017

Tools Copyright (c) 1996-2015 Texas Instruments Incorporated
F2837xS_DefaultISR.asm                                               PAGE   76

    3982                      .dwattr $C$DW$73, DW_AT_TI_symbol_name("_SCID_RX_ISR")
    3983                      .dwattr $C$DW$73, DW_AT_external
    3984                      .dwattr $C$DW$73, DW_AT_TI_begin_file("C:/ti/controlSUITE/device_support/F2837xS/v170/F2837xS_common/
    3985                      .dwattr $C$DW$73, DW_AT_TI_begin_line(0x3ff)
    3986                      .dwattr $C$DW$73, DW_AT_TI_begin_column(0x10)
    3987                      .dwattr $C$DW$73, DW_AT_TI_interrupt
    3988                      .dwattr $C$DW$73, DW_AT_TI_max_frame_size(-6)
    3989                      .dwpsn  file "C:/ti/controlSUITE/device_support/F2837xS/v170/F2837xS_common/source/F2837xS_DefaultISR
    3990              
    3991                      .dwfde $C$DW$CIE, _SCID_RX_ISR
    3992              
    3993              ;***************************************************************
    3994              ;* FNAME: _SCID_RX_ISR                  FR SIZE:   4           *
    3995              ;*                                                             *
    3996              ;* FUNCTION ENVIRONMENT                                        *
    3997              ;*                                                             *
    3998              ;* FUNCTION PROPERTIES                                         *
    3999              ;*                            0 Parameter,  0 Auto,  4 SOE     *
    4000              ;***************************************************************
    4001              
    4002 000002d0       _SCID_RX_ISR:
    4003                      .dwcfi  cfa_offset, -2
    4004                      .dwcfi  save_reg_to_mem, 26, 0
    4005 000002d0 761B          ASP       ; [CPU_] 
    4006 000002d1 FFF0          PUSH      RB                    ; [CPU_] 
    4007                      .dwcfi  save_reg_to_mem, 73, 2
    4008                      .dwcfi  save_reg_to_mem, 74, 3
    4009                      .dwcfi  cfa_offset, -4
    4010 000002d2 E200          MOV32     *SP++,STF             ; [CPU_] 
         000002d3 00BD 
    4011                      .dwcfi  save_reg_to_mem, 39, 4
    4012                      .dwcfi  save_reg_to_mem, 40, 5
    4013                      .dwcfi  cfa_offset, -6
    4014 000002d4 E630          SETFLG    RNDF32=1, RNDF64=1    ; [CPU_] 
         000002d5 0600 
    4015 000002d6 2942          CLRC      PAGE0,OVM             ; [CPU_] 
    4016 000002d7 5616          CLRC      AMODE                 ; [CPU_] 
    4017                      .dwpsn  file "C:/ti/controlSUITE/device_support/F2837xS/v170/F2837xS_common/source/F2837xS_DefaultISR
    4018 000002d8 7625        ESTOP0
    4019 000002d9       $C$L73:    
    4020                      .dwpsn  file "C:/ti/controlSUITE/device_support/F2837xS/v170/F2837xS_common/source/F2837xS_DefaultISR
    4021 000002d9 6F00          B         $C$L73,UNC            ; [CPU_] |1034| 
    4022                      ; branch occurs ; [] |1034| 
    4023                      .dwattr $C$DW$73, DW_AT_TI_end_file("C:/ti/controlSUITE/device_support/F2837xS/v170/F2837xS_common/so
    4024                      .dwattr $C$DW$73, DW_AT_TI_end_line(0x40b)
    4025                      .dwattr $C$DW$73, DW_AT_TI_end_column(0x01)
    4026                      .dwendentry
    4027                      .dwendtag $C$DW$73
    4028              
    4029 000002da               .sect   ".text:retain"
    4030                      .retain
    4031                      .retainrefs
    4032                      .global _SCID_TX_ISR
    4033              
    4034              $C$DW$74        .dwtag  DW_TAG_subprogram, DW_AT_name("SCID_TX_ISR")
TMS320C2000 Assembler PC v6.4.2 Thu Dec 14 15:26:09 2017

Tools Copyright (c) 1996-2015 Texas Instruments Incorporated
F2837xS_DefaultISR.asm                                               PAGE   77

    4035                      .dwattr $C$DW$74, DW_AT_low_pc(_SCID_TX_ISR)
    4036                      .dwattr $C$DW$74, DW_AT_high_pc(0x00)
    4037                      .dwattr $C$DW$74, DW_AT_TI_symbol_name("_SCID_TX_ISR")
    4038                      .dwattr $C$DW$74, DW_AT_external
    4039                      .dwattr $C$DW$74, DW_AT_TI_begin_file("C:/ti/controlSUITE/device_support/F2837xS/v170/F2837xS_common/
    4040                      .dwattr $C$DW$74, DW_AT_TI_begin_line(0x40e)
    4041                      .dwattr $C$DW$74, DW_AT_TI_begin_column(0x10)
    4042                      .dwattr $C$DW$74, DW_AT_TI_interrupt
    4043                      .dwattr $C$DW$74, DW_AT_TI_max_frame_size(-6)
    4044                      .dwpsn  file "C:/ti/controlSUITE/device_support/F2837xS/v170/F2837xS_common/source/F2837xS_DefaultISR
    4045              
    4046                      .dwfde $C$DW$CIE, _SCID_TX_ISR
    4047              
    4048              ;***************************************************************
    4049              ;* FNAME: _SCID_TX_ISR                  FR SIZE:   4           *
    4050              ;*                                                             *
    4051              ;* FUNCTION ENVIRONMENT                                        *
    4052              ;*                                                             *
    4053              ;* FUNCTION PROPERTIES                                         *
    4054              ;*                            0 Parameter,  0 Auto,  4 SOE     *
    4055              ;***************************************************************
    4056              
    4057 000002da       _SCID_TX_ISR:
    4058                      .dwcfi  cfa_offset, -2
    4059                      .dwcfi  save_reg_to_mem, 26, 0
    4060 000002da 761B          ASP       ; [CPU_] 
    4061 000002db FFF0          PUSH      RB                    ; [CPU_] 
    4062                      .dwcfi  save_reg_to_mem, 73, 2
    4063                      .dwcfi  save_reg_to_mem, 74, 3
    4064                      .dwcfi  cfa_offset, -4
    4065 000002dc E200          MOV32     *SP++,STF             ; [CPU_] 
         000002dd 00BD 
    4066                      .dwcfi  save_reg_to_mem, 39, 4
    4067                      .dwcfi  save_reg_to_mem, 40, 5
    4068                      .dwcfi  cfa_offset, -6
    4069 000002de E630          SETFLG    RNDF32=1, RNDF64=1    ; [CPU_] 
         000002df 0600 
    4070 000002e0 2942          CLRC      PAGE0,OVM             ; [CPU_] 
    4071 000002e1 5616          CLRC      AMODE                 ; [CPU_] 
    4072                      .dwpsn  file "C:/ti/controlSUITE/device_support/F2837xS/v170/F2837xS_common/source/F2837xS_DefaultISR
    4073 000002e2 7625        ESTOP0
    4074 000002e3       $C$L74:    
    4075                      .dwpsn  file "C:/ti/controlSUITE/device_support/F2837xS/v170/F2837xS_common/source/F2837xS_DefaultISR
    4076 000002e3 6F00          B         $C$L74,UNC            ; [CPU_] |1049| 
    4077                      ; branch occurs ; [] |1049| 
    4078                      .dwattr $C$DW$74, DW_AT_TI_end_file("C:/ti/controlSUITE/device_support/F2837xS/v170/F2837xS_common/so
    4079                      .dwattr $C$DW$74, DW_AT_TI_end_line(0x41a)
    4080                      .dwattr $C$DW$74, DW_AT_TI_end_column(0x01)
    4081                      .dwendentry
    4082                      .dwendtag $C$DW$74
    4083              
    4084 000002e4               .sect   ".text:retain"
    4085                      .retain
    4086                      .retainrefs
    4087                      .global _SCIA_RX_ISR
TMS320C2000 Assembler PC v6.4.2 Thu Dec 14 15:26:09 2017

Tools Copyright (c) 1996-2015 Texas Instruments Incorporated
F2837xS_DefaultISR.asm                                               PAGE   78

    4088              
    4089              $C$DW$75        .dwtag  DW_TAG_subprogram, DW_AT_name("SCIA_RX_ISR")
    4090                      .dwattr $C$DW$75, DW_AT_low_pc(_SCIA_RX_ISR)
    4091                      .dwattr $C$DW$75, DW_AT_high_pc(0x00)
    4092                      .dwattr $C$DW$75, DW_AT_TI_symbol_name("_SCIA_RX_ISR")
    4093                      .dwattr $C$DW$75, DW_AT_external
    4094                      .dwattr $C$DW$75, DW_AT_TI_begin_file("C:/ti/controlSUITE/device_support/F2837xS/v170/F2837xS_common/
    4095                      .dwattr $C$DW$75, DW_AT_TI_begin_line(0x41d)
    4096                      .dwattr $C$DW$75, DW_AT_TI_begin_column(0x10)
    4097                      .dwattr $C$DW$75, DW_AT_TI_interrupt
    4098                      .dwattr $C$DW$75, DW_AT_TI_max_frame_size(-6)
    4099                      .dwpsn  file "C:/ti/controlSUITE/device_support/F2837xS/v170/F2837xS_common/source/F2837xS_DefaultISR
    4100              
    4101                      .dwfde $C$DW$CIE, _SCIA_RX_ISR
    4102              
    4103              ;***************************************************************
    4104              ;* FNAME: _SCIA_RX_ISR                  FR SIZE:   4           *
    4105              ;*                                                             *
    4106              ;* FUNCTION ENVIRONMENT                                        *
    4107              ;*                                                             *
    4108              ;* FUNCTION PROPERTIES                                         *
    4109              ;*                            0 Parameter,  0 Auto,  4 SOE     *
    4110              ;***************************************************************
    4111              
    4112 000002e4       _SCIA_RX_ISR:
    4113                      .dwcfi  cfa_offset, -2
    4114                      .dwcfi  save_reg_to_mem, 26, 0
    4115 000002e4 761B          ASP       ; [CPU_] 
    4116 000002e5 FFF0          PUSH      RB                    ; [CPU_] 
    4117                      .dwcfi  save_reg_to_mem, 73, 2
    4118                      .dwcfi  save_reg_to_mem, 74, 3
    4119                      .dwcfi  cfa_offset, -4
    4120 000002e6 E200          MOV32     *SP++,STF             ; [CPU_] 
         000002e7 00BD 
    4121                      .dwcfi  save_reg_to_mem, 39, 4
    4122                      .dwcfi  save_reg_to_mem, 40, 5
    4123                      .dwcfi  cfa_offset, -6
    4124 000002e8 E630          SETFLG    RNDF32=1, RNDF64=1    ; [CPU_] 
         000002e9 0600 
    4125 000002ea 2942          CLRC      PAGE0,OVM             ; [CPU_] 
    4126 000002eb 5616          CLRC      AMODE                 ; [CPU_] 
    4127                      .dwpsn  file "C:/ti/controlSUITE/device_support/F2837xS/v170/F2837xS_common/source/F2837xS_DefaultISR
    4128 000002ec 7625        ESTOP0
    4129 000002ed       $C$L75:    
    4130                      .dwpsn  file "C:/ti/controlSUITE/device_support/F2837xS/v170/F2837xS_common/source/F2837xS_DefaultISR
    4131 000002ed 6F00          B         $C$L75,UNC            ; [CPU_] |1064| 
    4132                      ; branch occurs ; [] |1064| 
    4133                      .dwattr $C$DW$75, DW_AT_TI_end_file("C:/ti/controlSUITE/device_support/F2837xS/v170/F2837xS_common/so
    4134                      .dwattr $C$DW$75, DW_AT_TI_end_line(0x429)
    4135                      .dwattr $C$DW$75, DW_AT_TI_end_column(0x01)
    4136                      .dwendentry
    4137                      .dwendtag $C$DW$75
    4138              
    4139 000002ee               .sect   ".text:retain"
    4140                      .retain
TMS320C2000 Assembler PC v6.4.2 Thu Dec 14 15:26:09 2017

Tools Copyright (c) 1996-2015 Texas Instruments Incorporated
F2837xS_DefaultISR.asm                                               PAGE   79

    4141                      .retainrefs
    4142                      .global _SCIA_TX_ISR
    4143              
    4144              $C$DW$76        .dwtag  DW_TAG_subprogram, DW_AT_name("SCIA_TX_ISR")
    4145                      .dwattr $C$DW$76, DW_AT_low_pc(_SCIA_TX_ISR)
    4146                      .dwattr $C$DW$76, DW_AT_high_pc(0x00)
    4147                      .dwattr $C$DW$76, DW_AT_TI_symbol_name("_SCIA_TX_ISR")
    4148                      .dwattr $C$DW$76, DW_AT_external
    4149                      .dwattr $C$DW$76, DW_AT_TI_begin_file("C:/ti/controlSUITE/device_support/F2837xS/v170/F2837xS_common/
    4150                      .dwattr $C$DW$76, DW_AT_TI_begin_line(0x42c)
    4151                      .dwattr $C$DW$76, DW_AT_TI_begin_column(0x10)
    4152                      .dwattr $C$DW$76, DW_AT_TI_interrupt
    4153                      .dwattr $C$DW$76, DW_AT_TI_max_frame_size(-6)
    4154                      .dwpsn  file "C:/ti/controlSUITE/device_support/F2837xS/v170/F2837xS_common/source/F2837xS_DefaultISR
    4155              
    4156                      .dwfde $C$DW$CIE, _SCIA_TX_ISR
    4157              
    4158              ;***************************************************************
    4159              ;* FNAME: _SCIA_TX_ISR                  FR SIZE:   4           *
    4160              ;*                                                             *
    4161              ;* FUNCTION ENVIRONMENT                                        *
    4162              ;*                                                             *
    4163              ;* FUNCTION PROPERTIES                                         *
    4164              ;*                            0 Parameter,  0 Auto,  4 SOE     *
    4165              ;***************************************************************
    4166              
    4167 000002ee       _SCIA_TX_ISR:
    4168                      .dwcfi  cfa_offset, -2
    4169                      .dwcfi  save_reg_to_mem, 26, 0
    4170 000002ee 761B          ASP       ; [CPU_] 
    4171 000002ef FFF0          PUSH      RB                    ; [CPU_] 
    4172                      .dwcfi  save_reg_to_mem, 73, 2
    4173                      .dwcfi  save_reg_to_mem, 74, 3
    4174                      .dwcfi  cfa_offset, -4
    4175 000002f0 E200          MOV32     *SP++,STF             ; [CPU_] 
         000002f1 00BD 
    4176                      .dwcfi  save_reg_to_mem, 39, 4
    4177                      .dwcfi  save_reg_to_mem, 40, 5
    4178                      .dwcfi  cfa_offset, -6
    4179 000002f2 E630          SETFLG    RNDF32=1, RNDF64=1    ; [CPU_] 
         000002f3 0600 
    4180 000002f4 2942          CLRC      PAGE0,OVM             ; [CPU_] 
    4181 000002f5 5616          CLRC      AMODE                 ; [CPU_] 
    4182                      .dwpsn  file "C:/ti/controlSUITE/device_support/F2837xS/v170/F2837xS_common/source/F2837xS_DefaultISR
    4183 000002f6 7625        ESTOP0
    4184 000002f7       $C$L76:    
    4185                      .dwpsn  file "C:/ti/controlSUITE/device_support/F2837xS/v170/F2837xS_common/source/F2837xS_DefaultISR
    4186 000002f7 6F00          B         $C$L76,UNC            ; [CPU_] |1079| 
    4187                      ; branch occurs ; [] |1079| 
    4188                      .dwattr $C$DW$76, DW_AT_TI_end_file("C:/ti/controlSUITE/device_support/F2837xS/v170/F2837xS_common/so
    4189                      .dwattr $C$DW$76, DW_AT_TI_end_line(0x438)
    4190                      .dwattr $C$DW$76, DW_AT_TI_end_column(0x01)
    4191                      .dwendentry
    4192                      .dwendtag $C$DW$76
    4193              
TMS320C2000 Assembler PC v6.4.2 Thu Dec 14 15:26:09 2017

Tools Copyright (c) 1996-2015 Texas Instruments Incorporated
F2837xS_DefaultISR.asm                                               PAGE   80

    4194 000002f8               .sect   ".text:retain"
    4195                      .retain
    4196                      .retainrefs
    4197                      .global _SCIB_RX_ISR
    4198              
    4199              $C$DW$77        .dwtag  DW_TAG_subprogram, DW_AT_name("SCIB_RX_ISR")
    4200                      .dwattr $C$DW$77, DW_AT_low_pc(_SCIB_RX_ISR)
    4201                      .dwattr $C$DW$77, DW_AT_high_pc(0x00)
    4202                      .dwattr $C$DW$77, DW_AT_TI_symbol_name("_SCIB_RX_ISR")
    4203                      .dwattr $C$DW$77, DW_AT_external
    4204                      .dwattr $C$DW$77, DW_AT_TI_begin_file("C:/ti/controlSUITE/device_support/F2837xS/v170/F2837xS_common/
    4205                      .dwattr $C$DW$77, DW_AT_TI_begin_line(0x43b)
    4206                      .dwattr $C$DW$77, DW_AT_TI_begin_column(0x10)
    4207                      .dwattr $C$DW$77, DW_AT_TI_interrupt
    4208                      .dwattr $C$DW$77, DW_AT_TI_max_frame_size(-6)
    4209                      .dwpsn  file "C:/ti/controlSUITE/device_support/F2837xS/v170/F2837xS_common/source/F2837xS_DefaultISR
    4210              
    4211                      .dwfde $C$DW$CIE, _SCIB_RX_ISR
    4212              
    4213              ;***************************************************************
    4214              ;* FNAME: _SCIB_RX_ISR                  FR SIZE:   4           *
    4215              ;*                                                             *
    4216              ;* FUNCTION ENVIRONMENT                                        *
    4217              ;*                                                             *
    4218              ;* FUNCTION PROPERTIES                                         *
    4219              ;*                            0 Parameter,  0 Auto,  4 SOE     *
    4220              ;***************************************************************
    4221              
    4222 000002f8       _SCIB_RX_ISR:
    4223                      .dwcfi  cfa_offset, -2
    4224                      .dwcfi  save_reg_to_mem, 26, 0
    4225 000002f8 761B          ASP       ; [CPU_] 
    4226 000002f9 FFF0          PUSH      RB                    ; [CPU_] 
    4227                      .dwcfi  save_reg_to_mem, 73, 2
    4228                      .dwcfi  save_reg_to_mem, 74, 3
    4229                      .dwcfi  cfa_offset, -4
    4230 000002fa E200          MOV32     *SP++,STF             ; [CPU_] 
         000002fb 00BD 
    4231                      .dwcfi  save_reg_to_mem, 39, 4
    4232                      .dwcfi  save_reg_to_mem, 40, 5
    4233                      .dwcfi  cfa_offset, -6
    4234 000002fc E630          SETFLG    RNDF32=1, RNDF64=1    ; [CPU_] 
         000002fd 0600 
    4235 000002fe 2942          CLRC      PAGE0,OVM             ; [CPU_] 
    4236 000002ff 5616          CLRC      AMODE                 ; [CPU_] 
    4237                      .dwpsn  file "C:/ti/controlSUITE/device_support/F2837xS/v170/F2837xS_common/source/F2837xS_DefaultISR
    4238 00000300 7625        ESTOP0
    4239 00000301       $C$L77:    
    4240                      .dwpsn  file "C:/ti/controlSUITE/device_support/F2837xS/v170/F2837xS_common/source/F2837xS_DefaultISR
    4241 00000301 6F00          B         $C$L77,UNC            ; [CPU_] |1094| 
    4242                      ; branch occurs ; [] |1094| 
    4243                      .dwattr $C$DW$77, DW_AT_TI_end_file("C:/ti/controlSUITE/device_support/F2837xS/v170/F2837xS_common/so
    4244                      .dwattr $C$DW$77, DW_AT_TI_end_line(0x447)
    4245                      .dwattr $C$DW$77, DW_AT_TI_end_column(0x01)
    4246                      .dwendentry
TMS320C2000 Assembler PC v6.4.2 Thu Dec 14 15:26:09 2017

Tools Copyright (c) 1996-2015 Texas Instruments Incorporated
F2837xS_DefaultISR.asm                                               PAGE   81

    4247                      .dwendtag $C$DW$77
    4248              
    4249 00000302               .sect   ".text:retain"
    4250                      .retain
    4251                      .retainrefs
    4252                      .global _SCIB_TX_ISR
    4253              
    4254              $C$DW$78        .dwtag  DW_TAG_subprogram, DW_AT_name("SCIB_TX_ISR")
    4255                      .dwattr $C$DW$78, DW_AT_low_pc(_SCIB_TX_ISR)
    4256                      .dwattr $C$DW$78, DW_AT_high_pc(0x00)
    4257                      .dwattr $C$DW$78, DW_AT_TI_symbol_name("_SCIB_TX_ISR")
    4258                      .dwattr $C$DW$78, DW_AT_external
    4259                      .dwattr $C$DW$78, DW_AT_TI_begin_file("C:/ti/controlSUITE/device_support/F2837xS/v170/F2837xS_common/
    4260                      .dwattr $C$DW$78, DW_AT_TI_begin_line(0x44a)
    4261                      .dwattr $C$DW$78, DW_AT_TI_begin_column(0x10)
    4262                      .dwattr $C$DW$78, DW_AT_TI_interrupt
    4263                      .dwattr $C$DW$78, DW_AT_TI_max_frame_size(-6)
    4264                      .dwpsn  file "C:/ti/controlSUITE/device_support/F2837xS/v170/F2837xS_common/source/F2837xS_DefaultISR
    4265              
    4266                      .dwfde $C$DW$CIE, _SCIB_TX_ISR
    4267              
    4268              ;***************************************************************
    4269              ;* FNAME: _SCIB_TX_ISR                  FR SIZE:   4           *
    4270              ;*                                                             *
    4271              ;* FUNCTION ENVIRONMENT                                        *
    4272              ;*                                                             *
    4273              ;* FUNCTION PROPERTIES                                         *
    4274              ;*                            0 Parameter,  0 Auto,  4 SOE     *
    4275              ;***************************************************************
    4276              
    4277 00000302       _SCIB_TX_ISR:
    4278                      .dwcfi  cfa_offset, -2
    4279                      .dwcfi  save_reg_to_mem, 26, 0
    4280 00000302 761B          ASP       ; [CPU_] 
    4281 00000303 FFF0          PUSH      RB                    ; [CPU_] 
    4282                      .dwcfi  save_reg_to_mem, 73, 2
    4283                      .dwcfi  save_reg_to_mem, 74, 3
    4284                      .dwcfi  cfa_offset, -4
    4285 00000304 E200          MOV32     *SP++,STF             ; [CPU_] 
         00000305 00BD 
    4286                      .dwcfi  save_reg_to_mem, 39, 4
    4287                      .dwcfi  save_reg_to_mem, 40, 5
    4288                      .dwcfi  cfa_offset, -6
    4289 00000306 E630          SETFLG    RNDF32=1, RNDF64=1    ; [CPU_] 
         00000307 0600 
    4290 00000308 2942          CLRC      PAGE0,OVM             ; [CPU_] 
    4291 00000309 5616          CLRC      AMODE                 ; [CPU_] 
    4292                      .dwpsn  file "C:/ti/controlSUITE/device_support/F2837xS/v170/F2837xS_common/source/F2837xS_DefaultISR
    4293 0000030a 7625        ESTOP0
    4294 0000030b       $C$L78:    
    4295                      .dwpsn  file "C:/ti/controlSUITE/device_support/F2837xS/v170/F2837xS_common/source/F2837xS_DefaultISR
    4296 0000030b 6F00          B         $C$L78,UNC            ; [CPU_] |1109| 
    4297                      ; branch occurs ; [] |1109| 
    4298                      .dwattr $C$DW$78, DW_AT_TI_end_file("C:/ti/controlSUITE/device_support/F2837xS/v170/F2837xS_common/so
    4299                      .dwattr $C$DW$78, DW_AT_TI_end_line(0x456)
TMS320C2000 Assembler PC v6.4.2 Thu Dec 14 15:26:09 2017

Tools Copyright (c) 1996-2015 Texas Instruments Incorporated
F2837xS_DefaultISR.asm                                               PAGE   82

    4300                      .dwattr $C$DW$78, DW_AT_TI_end_column(0x01)
    4301                      .dwendentry
    4302                      .dwendtag $C$DW$78
    4303              
    4304 0000030c               .sect   ".text:retain"
    4305                      .retain
    4306                      .retainrefs
    4307                      .global _CANA0_ISR
    4308              
    4309              $C$DW$79        .dwtag  DW_TAG_subprogram, DW_AT_name("CANA0_ISR")
    4310                      .dwattr $C$DW$79, DW_AT_low_pc(_CANA0_ISR)
    4311                      .dwattr $C$DW$79, DW_AT_high_pc(0x00)
    4312                      .dwattr $C$DW$79, DW_AT_TI_symbol_name("_CANA0_ISR")
    4313                      .dwattr $C$DW$79, DW_AT_external
    4314                      .dwattr $C$DW$79, DW_AT_TI_begin_file("C:/ti/controlSUITE/device_support/F2837xS/v170/F2837xS_common/
    4315                      .dwattr $C$DW$79, DW_AT_TI_begin_line(0x459)
    4316                      .dwattr $C$DW$79, DW_AT_TI_begin_column(0x10)
    4317                      .dwattr $C$DW$79, DW_AT_TI_interrupt
    4318                      .dwattr $C$DW$79, DW_AT_TI_max_frame_size(-6)
    4319                      .dwpsn  file "C:/ti/controlSUITE/device_support/F2837xS/v170/F2837xS_common/source/F2837xS_DefaultISR
    4320              
    4321                      .dwfde $C$DW$CIE, _CANA0_ISR
    4322              
    4323              ;***************************************************************
    4324              ;* FNAME: _CANA0_ISR                    FR SIZE:   4           *
    4325              ;*                                                             *
    4326              ;* FUNCTION ENVIRONMENT                                        *
    4327              ;*                                                             *
    4328              ;* FUNCTION PROPERTIES                                         *
    4329              ;*                            0 Parameter,  0 Auto,  4 SOE     *
    4330              ;***************************************************************
    4331              
    4332 0000030c       _CANA0_ISR:
    4333                      .dwcfi  cfa_offset, -2
    4334                      .dwcfi  save_reg_to_mem, 26, 0
    4335 0000030c 761B          ASP       ; [CPU_] 
    4336 0000030d FFF0          PUSH      RB                    ; [CPU_] 
    4337                      .dwcfi  save_reg_to_mem, 73, 2
    4338                      .dwcfi  save_reg_to_mem, 74, 3
    4339                      .dwcfi  cfa_offset, -4
    4340 0000030e E200          MOV32     *SP++,STF             ; [CPU_] 
         0000030f 00BD 
    4341                      .dwcfi  save_reg_to_mem, 39, 4
    4342                      .dwcfi  save_reg_to_mem, 40, 5
    4343                      .dwcfi  cfa_offset, -6
    4344 00000310 E630          SETFLG    RNDF32=1, RNDF64=1    ; [CPU_] 
         00000311 0600 
    4345 00000312 2942          CLRC      PAGE0,OVM             ; [CPU_] 
    4346 00000313 5616          CLRC      AMODE                 ; [CPU_] 
    4347                      .dwpsn  file "C:/ti/controlSUITE/device_support/F2837xS/v170/F2837xS_common/source/F2837xS_DefaultISR
    4348 00000314 7625        ESTOP0
    4349 00000315       $C$L79:    
    4350                      .dwpsn  file "C:/ti/controlSUITE/device_support/F2837xS/v170/F2837xS_common/source/F2837xS_DefaultISR
    4351 00000315 6F00          B         $C$L79,UNC            ; [CPU_] |1124| 
    4352                      ; branch occurs ; [] |1124| 
TMS320C2000 Assembler PC v6.4.2 Thu Dec 14 15:26:09 2017

Tools Copyright (c) 1996-2015 Texas Instruments Incorporated
F2837xS_DefaultISR.asm                                               PAGE   83

    4353                      .dwattr $C$DW$79, DW_AT_TI_end_file("C:/ti/controlSUITE/device_support/F2837xS/v170/F2837xS_common/so
    4354                      .dwattr $C$DW$79, DW_AT_TI_end_line(0x465)
    4355                      .dwattr $C$DW$79, DW_AT_TI_end_column(0x01)
    4356                      .dwendentry
    4357                      .dwendtag $C$DW$79
    4358              
    4359 00000316               .sect   ".text:retain"
    4360                      .retain
    4361                      .retainrefs
    4362                      .global _CANA1_ISR
    4363              
    4364              $C$DW$80        .dwtag  DW_TAG_subprogram, DW_AT_name("CANA1_ISR")
    4365                      .dwattr $C$DW$80, DW_AT_low_pc(_CANA1_ISR)
    4366                      .dwattr $C$DW$80, DW_AT_high_pc(0x00)
    4367                      .dwattr $C$DW$80, DW_AT_TI_symbol_name("_CANA1_ISR")
    4368                      .dwattr $C$DW$80, DW_AT_external
    4369                      .dwattr $C$DW$80, DW_AT_TI_begin_file("C:/ti/controlSUITE/device_support/F2837xS/v170/F2837xS_common/
    4370                      .dwattr $C$DW$80, DW_AT_TI_begin_line(0x468)
    4371                      .dwattr $C$DW$80, DW_AT_TI_begin_column(0x10)
    4372                      .dwattr $C$DW$80, DW_AT_TI_interrupt
    4373                      .dwattr $C$DW$80, DW_AT_TI_max_frame_size(-6)
    4374                      .dwpsn  file "C:/ti/controlSUITE/device_support/F2837xS/v170/F2837xS_common/source/F2837xS_DefaultISR
    4375              
    4376                      .dwfde $C$DW$CIE, _CANA1_ISR
    4377              
    4378              ;***************************************************************
    4379              ;* FNAME: _CANA1_ISR                    FR SIZE:   4           *
    4380              ;*                                                             *
    4381              ;* FUNCTION ENVIRONMENT                                        *
    4382              ;*                                                             *
    4383              ;* FUNCTION PROPERTIES                                         *
    4384              ;*                            0 Parameter,  0 Auto,  4 SOE     *
    4385              ;***************************************************************
    4386              
    4387 00000316       _CANA1_ISR:
    4388                      .dwcfi  cfa_offset, -2
    4389                      .dwcfi  save_reg_to_mem, 26, 0
    4390 00000316 761B          ASP       ; [CPU_] 
    4391 00000317 FFF0          PUSH      RB                    ; [CPU_] 
    4392                      .dwcfi  save_reg_to_mem, 73, 2
    4393                      .dwcfi  save_reg_to_mem, 74, 3
    4394                      .dwcfi  cfa_offset, -4
    4395 00000318 E200          MOV32     *SP++,STF             ; [CPU_] 
         00000319 00BD 
    4396                      .dwcfi  save_reg_to_mem, 39, 4
    4397                      .dwcfi  save_reg_to_mem, 40, 5
    4398                      .dwcfi  cfa_offset, -6
    4399 0000031a E630          SETFLG    RNDF32=1, RNDF64=1    ; [CPU_] 
         0000031b 0600 
    4400 0000031c 2942          CLRC      PAGE0,OVM             ; [CPU_] 
    4401 0000031d 5616          CLRC      AMODE                 ; [CPU_] 
    4402                      .dwpsn  file "C:/ti/controlSUITE/device_support/F2837xS/v170/F2837xS_common/source/F2837xS_DefaultISR
    4403 0000031e 7625        ESTOP0
    4404 0000031f       $C$L80:    
    4405                      .dwpsn  file "C:/ti/controlSUITE/device_support/F2837xS/v170/F2837xS_common/source/F2837xS_DefaultISR
TMS320C2000 Assembler PC v6.4.2 Thu Dec 14 15:26:09 2017

Tools Copyright (c) 1996-2015 Texas Instruments Incorporated
F2837xS_DefaultISR.asm                                               PAGE   84

    4406 0000031f 6F00          B         $C$L80,UNC            ; [CPU_] |1139| 
    4407                      ; branch occurs ; [] |1139| 
    4408                      .dwattr $C$DW$80, DW_AT_TI_end_file("C:/ti/controlSUITE/device_support/F2837xS/v170/F2837xS_common/so
    4409                      .dwattr $C$DW$80, DW_AT_TI_end_line(0x474)
    4410                      .dwattr $C$DW$80, DW_AT_TI_end_column(0x01)
    4411                      .dwendentry
    4412                      .dwendtag $C$DW$80
    4413              
    4414 00000320               .sect   ".text:retain"
    4415                      .retain
    4416                      .retainrefs
    4417                      .global _CANB0_ISR
    4418              
    4419              $C$DW$81        .dwtag  DW_TAG_subprogram, DW_AT_name("CANB0_ISR")
    4420                      .dwattr $C$DW$81, DW_AT_low_pc(_CANB0_ISR)
    4421                      .dwattr $C$DW$81, DW_AT_high_pc(0x00)
    4422                      .dwattr $C$DW$81, DW_AT_TI_symbol_name("_CANB0_ISR")
    4423                      .dwattr $C$DW$81, DW_AT_external
    4424                      .dwattr $C$DW$81, DW_AT_TI_begin_file("C:/ti/controlSUITE/device_support/F2837xS/v170/F2837xS_common/
    4425                      .dwattr $C$DW$81, DW_AT_TI_begin_line(0x477)
    4426                      .dwattr $C$DW$81, DW_AT_TI_begin_column(0x10)
    4427                      .dwattr $C$DW$81, DW_AT_TI_interrupt
    4428                      .dwattr $C$DW$81, DW_AT_TI_max_frame_size(-6)
    4429                      .dwpsn  file "C:/ti/controlSUITE/device_support/F2837xS/v170/F2837xS_common/source/F2837xS_DefaultISR
    4430              
    4431                      .dwfde $C$DW$CIE, _CANB0_ISR
    4432              
    4433              ;***************************************************************
    4434              ;* FNAME: _CANB0_ISR                    FR SIZE:   4           *
    4435              ;*                                                             *
    4436              ;* FUNCTION ENVIRONMENT                                        *
    4437              ;*                                                             *
    4438              ;* FUNCTION PROPERTIES                                         *
    4439              ;*                            0 Parameter,  0 Auto,  4 SOE     *
    4440              ;***************************************************************
    4441              
    4442 00000320       _CANB0_ISR:
    4443                      .dwcfi  cfa_offset, -2
    4444                      .dwcfi  save_reg_to_mem, 26, 0
    4445 00000320 761B          ASP       ; [CPU_] 
    4446 00000321 FFF0          PUSH      RB                    ; [CPU_] 
    4447                      .dwcfi  save_reg_to_mem, 73, 2
    4448                      .dwcfi  save_reg_to_mem, 74, 3
    4449                      .dwcfi  cfa_offset, -4
    4450 00000322 E200          MOV32     *SP++,STF             ; [CPU_] 
         00000323 00BD 
    4451                      .dwcfi  save_reg_to_mem, 39, 4
    4452                      .dwcfi  save_reg_to_mem, 40, 5
    4453                      .dwcfi  cfa_offset, -6
    4454 00000324 E630          SETFLG    RNDF32=1, RNDF64=1    ; [CPU_] 
         00000325 0600 
    4455 00000326 2942          CLRC      PAGE0,OVM             ; [CPU_] 
    4456 00000327 5616          CLRC      AMODE                 ; [CPU_] 
    4457                      .dwpsn  file "C:/ti/controlSUITE/device_support/F2837xS/v170/F2837xS_common/source/F2837xS_DefaultISR
    4458 00000328 7625        ESTOP0
TMS320C2000 Assembler PC v6.4.2 Thu Dec 14 15:26:09 2017

Tools Copyright (c) 1996-2015 Texas Instruments Incorporated
F2837xS_DefaultISR.asm                                               PAGE   85

    4459 00000329       $C$L81:    
    4460                      .dwpsn  file "C:/ti/controlSUITE/device_support/F2837xS/v170/F2837xS_common/source/F2837xS_DefaultISR
    4461 00000329 6F00          B         $C$L81,UNC            ; [CPU_] |1154| 
    4462                      ; branch occurs ; [] |1154| 
    4463                      .dwattr $C$DW$81, DW_AT_TI_end_file("C:/ti/controlSUITE/device_support/F2837xS/v170/F2837xS_common/so
    4464                      .dwattr $C$DW$81, DW_AT_TI_end_line(0x483)
    4465                      .dwattr $C$DW$81, DW_AT_TI_end_column(0x01)
    4466                      .dwendentry
    4467                      .dwendtag $C$DW$81
    4468              
    4469 0000032a               .sect   ".text:retain"
    4470                      .retain
    4471                      .retainrefs
    4472                      .global _CANB1_ISR
    4473              
    4474              $C$DW$82        .dwtag  DW_TAG_subprogram, DW_AT_name("CANB1_ISR")
    4475                      .dwattr $C$DW$82, DW_AT_low_pc(_CANB1_ISR)
    4476                      .dwattr $C$DW$82, DW_AT_high_pc(0x00)
    4477                      .dwattr $C$DW$82, DW_AT_TI_symbol_name("_CANB1_ISR")
    4478                      .dwattr $C$DW$82, DW_AT_external
    4479                      .dwattr $C$DW$82, DW_AT_TI_begin_file("C:/ti/controlSUITE/device_support/F2837xS/v170/F2837xS_common/
    4480                      .dwattr $C$DW$82, DW_AT_TI_begin_line(0x486)
    4481                      .dwattr $C$DW$82, DW_AT_TI_begin_column(0x10)
    4482                      .dwattr $C$DW$82, DW_AT_TI_interrupt
    4483                      .dwattr $C$DW$82, DW_AT_TI_max_frame_size(-6)
    4484                      .dwpsn  file "C:/ti/controlSUITE/device_support/F2837xS/v170/F2837xS_common/source/F2837xS_DefaultISR
    4485              
    4486                      .dwfde $C$DW$CIE, _CANB1_ISR
    4487              
    4488              ;***************************************************************
    4489              ;* FNAME: _CANB1_ISR                    FR SIZE:   4           *
    4490              ;*                                                             *
    4491              ;* FUNCTION ENVIRONMENT                                        *
    4492              ;*                                                             *
    4493              ;* FUNCTION PROPERTIES                                         *
    4494              ;*                            0 Parameter,  0 Auto,  4 SOE     *
    4495              ;***************************************************************
    4496              
    4497 0000032a       _CANB1_ISR:
    4498                      .dwcfi  cfa_offset, -2
    4499                      .dwcfi  save_reg_to_mem, 26, 0
    4500 0000032a 761B          ASP       ; [CPU_] 
    4501 0000032b FFF0          PUSH      RB                    ; [CPU_] 
    4502                      .dwcfi  save_reg_to_mem, 73, 2
    4503                      .dwcfi  save_reg_to_mem, 74, 3
    4504                      .dwcfi  cfa_offset, -4
    4505 0000032c E200          MOV32     *SP++,STF             ; [CPU_] 
         0000032d 00BD 
    4506                      .dwcfi  save_reg_to_mem, 39, 4
    4507                      .dwcfi  save_reg_to_mem, 40, 5
    4508                      .dwcfi  cfa_offset, -6
    4509 0000032e E630          SETFLG    RNDF32=1, RNDF64=1    ; [CPU_] 
         0000032f 0600 
    4510 00000330 2942          CLRC      PAGE0,OVM             ; [CPU_] 
    4511 00000331 5616          CLRC      AMODE                 ; [CPU_] 
TMS320C2000 Assembler PC v6.4.2 Thu Dec 14 15:26:09 2017

Tools Copyright (c) 1996-2015 Texas Instruments Incorporated
F2837xS_DefaultISR.asm                                               PAGE   86

    4512                      .dwpsn  file "C:/ti/controlSUITE/device_support/F2837xS/v170/F2837xS_common/source/F2837xS_DefaultISR
    4513 00000332 7625        ESTOP0
    4514 00000333       $C$L82:    
    4515                      .dwpsn  file "C:/ti/controlSUITE/device_support/F2837xS/v170/F2837xS_common/source/F2837xS_DefaultISR
    4516 00000333 6F00          B         $C$L82,UNC            ; [CPU_] |1169| 
    4517                      ; branch occurs ; [] |1169| 
    4518                      .dwattr $C$DW$82, DW_AT_TI_end_file("C:/ti/controlSUITE/device_support/F2837xS/v170/F2837xS_common/so
    4519                      .dwattr $C$DW$82, DW_AT_TI_end_line(0x492)
    4520                      .dwattr $C$DW$82, DW_AT_TI_end_column(0x01)
    4521                      .dwendentry
    4522                      .dwendtag $C$DW$82
    4523              
    4524 00000334               .sect   ".text:retain"
    4525                      .retain
    4526                      .retainrefs
    4527                      .global _ADCA_EVT_ISR
    4528              
    4529              $C$DW$83        .dwtag  DW_TAG_subprogram, DW_AT_name("ADCA_EVT_ISR")
    4530                      .dwattr $C$DW$83, DW_AT_low_pc(_ADCA_EVT_ISR)
    4531                      .dwattr $C$DW$83, DW_AT_high_pc(0x00)
    4532                      .dwattr $C$DW$83, DW_AT_TI_symbol_name("_ADCA_EVT_ISR")
    4533                      .dwattr $C$DW$83, DW_AT_external
    4534                      .dwattr $C$DW$83, DW_AT_TI_begin_file("C:/ti/controlSUITE/device_support/F2837xS/v170/F2837xS_common/
    4535                      .dwattr $C$DW$83, DW_AT_TI_begin_line(0x495)
    4536                      .dwattr $C$DW$83, DW_AT_TI_begin_column(0x10)
    4537                      .dwattr $C$DW$83, DW_AT_TI_interrupt
    4538                      .dwattr $C$DW$83, DW_AT_TI_max_frame_size(-6)
    4539                      .dwpsn  file "C:/ti/controlSUITE/device_support/F2837xS/v170/F2837xS_common/source/F2837xS_DefaultISR
    4540              
    4541                      .dwfde $C$DW$CIE, _ADCA_EVT_ISR
    4542              
    4543              ;***************************************************************
    4544              ;* FNAME: _ADCA_EVT_ISR                 FR SIZE:   4           *
    4545              ;*                                                             *
    4546              ;* FUNCTION ENVIRONMENT                                        *
    4547              ;*                                                             *
    4548              ;* FUNCTION PROPERTIES                                         *
    4549              ;*                            0 Parameter,  0 Auto,  4 SOE     *
    4550              ;***************************************************************
    4551              
    4552 00000334       _ADCA_EVT_ISR:
    4553                      .dwcfi  cfa_offset, -2
    4554                      .dwcfi  save_reg_to_mem, 26, 0
    4555 00000334 761B          ASP       ; [CPU_] 
    4556 00000335 FFF0          PUSH      RB                    ; [CPU_] 
    4557                      .dwcfi  save_reg_to_mem, 73, 2
    4558                      .dwcfi  save_reg_to_mem, 74, 3
    4559                      .dwcfi  cfa_offset, -4
    4560 00000336 E200          MOV32     *SP++,STF             ; [CPU_] 
         00000337 00BD 
    4561                      .dwcfi  save_reg_to_mem, 39, 4
    4562                      .dwcfi  save_reg_to_mem, 40, 5
    4563                      .dwcfi  cfa_offset, -6
    4564 00000338 E630          SETFLG    RNDF32=1, RNDF64=1    ; [CPU_] 
         00000339 0600 
TMS320C2000 Assembler PC v6.4.2 Thu Dec 14 15:26:09 2017

Tools Copyright (c) 1996-2015 Texas Instruments Incorporated
F2837xS_DefaultISR.asm                                               PAGE   87

    4565 0000033a 2942          CLRC      PAGE0,OVM             ; [CPU_] 
    4566 0000033b 5616          CLRC      AMODE                 ; [CPU_] 
    4567                      .dwpsn  file "C:/ti/controlSUITE/device_support/F2837xS/v170/F2837xS_common/source/F2837xS_DefaultISR
    4568 0000033c 7625        ESTOP0
    4569 0000033d       $C$L83:    
    4570                      .dwpsn  file "C:/ti/controlSUITE/device_support/F2837xS/v170/F2837xS_common/source/F2837xS_DefaultISR
    4571 0000033d 6F00          B         $C$L83,UNC            ; [CPU_] |1184| 
    4572                      ; branch occurs ; [] |1184| 
    4573                      .dwattr $C$DW$83, DW_AT_TI_end_file("C:/ti/controlSUITE/device_support/F2837xS/v170/F2837xS_common/so
    4574                      .dwattr $C$DW$83, DW_AT_TI_end_line(0x4a1)
    4575                      .dwattr $C$DW$83, DW_AT_TI_end_column(0x01)
    4576                      .dwendentry
    4577                      .dwendtag $C$DW$83
    4578              
    4579 0000033e               .sect   ".text:retain"
    4580                      .retain
    4581                      .retainrefs
    4582                      .global _ADCA2_ISR
    4583              
    4584              $C$DW$84        .dwtag  DW_TAG_subprogram, DW_AT_name("ADCA2_ISR")
    4585                      .dwattr $C$DW$84, DW_AT_low_pc(_ADCA2_ISR)
    4586                      .dwattr $C$DW$84, DW_AT_high_pc(0x00)
    4587                      .dwattr $C$DW$84, DW_AT_TI_symbol_name("_ADCA2_ISR")
    4588                      .dwattr $C$DW$84, DW_AT_external
    4589                      .dwattr $C$DW$84, DW_AT_TI_begin_file("C:/ti/controlSUITE/device_support/F2837xS/v170/F2837xS_common/
    4590                      .dwattr $C$DW$84, DW_AT_TI_begin_line(0x4a4)
    4591                      .dwattr $C$DW$84, DW_AT_TI_begin_column(0x10)
    4592                      .dwattr $C$DW$84, DW_AT_TI_interrupt
    4593                      .dwattr $C$DW$84, DW_AT_TI_max_frame_size(-6)
    4594                      .dwpsn  file "C:/ti/controlSUITE/device_support/F2837xS/v170/F2837xS_common/source/F2837xS_DefaultISR
    4595              
    4596                      .dwfde $C$DW$CIE, _ADCA2_ISR
    4597              
    4598              ;***************************************************************
    4599              ;* FNAME: _ADCA2_ISR                    FR SIZE:   4           *
    4600              ;*                                                             *
    4601              ;* FUNCTION ENVIRONMENT                                        *
    4602              ;*                                                             *
    4603              ;* FUNCTION PROPERTIES                                         *
    4604              ;*                            0 Parameter,  0 Auto,  4 SOE     *
    4605              ;***************************************************************
    4606              
    4607 0000033e       _ADCA2_ISR:
    4608                      .dwcfi  cfa_offset, -2
    4609                      .dwcfi  save_reg_to_mem, 26, 0
    4610 0000033e 761B          ASP       ; [CPU_] 
    4611 0000033f FFF0          PUSH      RB                    ; [CPU_] 
    4612                      .dwcfi  save_reg_to_mem, 73, 2
    4613                      .dwcfi  save_reg_to_mem, 74, 3
    4614                      .dwcfi  cfa_offset, -4
    4615 00000340 E200          MOV32     *SP++,STF             ; [CPU_] 
         00000341 00BD 
    4616                      .dwcfi  save_reg_to_mem, 39, 4
    4617                      .dwcfi  save_reg_to_mem, 40, 5
    4618                      .dwcfi  cfa_offset, -6
TMS320C2000 Assembler PC v6.4.2 Thu Dec 14 15:26:09 2017

Tools Copyright (c) 1996-2015 Texas Instruments Incorporated
F2837xS_DefaultISR.asm                                               PAGE   88

    4619 00000342 E630          SETFLG    RNDF32=1, RNDF64=1    ; [CPU_] 
         00000343 0600 
    4620 00000344 2942          CLRC      PAGE0,OVM             ; [CPU_] 
    4621 00000345 5616          CLRC      AMODE                 ; [CPU_] 
    4622                      .dwpsn  file "C:/ti/controlSUITE/device_support/F2837xS/v170/F2837xS_common/source/F2837xS_DefaultISR
    4623 00000346 7625        ESTOP0
    4624 00000347       $C$L84:    
    4625                      .dwpsn  file "C:/ti/controlSUITE/device_support/F2837xS/v170/F2837xS_common/source/F2837xS_DefaultISR
    4626 00000347 6F00          B         $C$L84,UNC            ; [CPU_] |1199| 
    4627                      ; branch occurs ; [] |1199| 
    4628                      .dwattr $C$DW$84, DW_AT_TI_end_file("C:/ti/controlSUITE/device_support/F2837xS/v170/F2837xS_common/so
    4629                      .dwattr $C$DW$84, DW_AT_TI_end_line(0x4b0)
    4630                      .dwattr $C$DW$84, DW_AT_TI_end_column(0x01)
    4631                      .dwendentry
    4632                      .dwendtag $C$DW$84
    4633              
    4634 00000348               .sect   ".text:retain"
    4635                      .retain
    4636                      .retainrefs
    4637                      .global _ADCA3_ISR
    4638              
    4639              $C$DW$85        .dwtag  DW_TAG_subprogram, DW_AT_name("ADCA3_ISR")
    4640                      .dwattr $C$DW$85, DW_AT_low_pc(_ADCA3_ISR)
    4641                      .dwattr $C$DW$85, DW_AT_high_pc(0x00)
    4642                      .dwattr $C$DW$85, DW_AT_TI_symbol_name("_ADCA3_ISR")
    4643                      .dwattr $C$DW$85, DW_AT_external
    4644                      .dwattr $C$DW$85, DW_AT_TI_begin_file("C:/ti/controlSUITE/device_support/F2837xS/v170/F2837xS_common/
    4645                      .dwattr $C$DW$85, DW_AT_TI_begin_line(0x4b3)
    4646                      .dwattr $C$DW$85, DW_AT_TI_begin_column(0x10)
    4647                      .dwattr $C$DW$85, DW_AT_TI_interrupt
    4648                      .dwattr $C$DW$85, DW_AT_TI_max_frame_size(-6)
    4649                      .dwpsn  file "C:/ti/controlSUITE/device_support/F2837xS/v170/F2837xS_common/source/F2837xS_DefaultISR
    4650              
    4651                      .dwfde $C$DW$CIE, _ADCA3_ISR
    4652              
    4653              ;***************************************************************
    4654              ;* FNAME: _ADCA3_ISR                    FR SIZE:   4           *
    4655              ;*                                                             *
    4656              ;* FUNCTION ENVIRONMENT                                        *
    4657              ;*                                                             *
    4658              ;* FUNCTION PROPERTIES                                         *
    4659              ;*                            0 Parameter,  0 Auto,  4 SOE     *
    4660              ;***************************************************************
    4661              
    4662 00000348       _ADCA3_ISR:
    4663                      .dwcfi  cfa_offset, -2
    4664                      .dwcfi  save_reg_to_mem, 26, 0
    4665 00000348 761B          ASP       ; [CPU_] 
    4666 00000349 FFF0          PUSH      RB                    ; [CPU_] 
    4667                      .dwcfi  save_reg_to_mem, 73, 2
    4668                      .dwcfi  save_reg_to_mem, 74, 3
    4669                      .dwcfi  cfa_offset, -4
    4670 0000034a E200          MOV32     *SP++,STF             ; [CPU_] 
         0000034b 00BD 
    4671                      .dwcfi  save_reg_to_mem, 39, 4
TMS320C2000 Assembler PC v6.4.2 Thu Dec 14 15:26:09 2017

Tools Copyright (c) 1996-2015 Texas Instruments Incorporated
F2837xS_DefaultISR.asm                                               PAGE   89

    4672                      .dwcfi  save_reg_to_mem, 40, 5
    4673                      .dwcfi  cfa_offset, -6
    4674 0000034c E630          SETFLG    RNDF32=1, RNDF64=1    ; [CPU_] 
         0000034d 0600 
    4675 0000034e 2942          CLRC      PAGE0,OVM             ; [CPU_] 
    4676 0000034f 5616          CLRC      AMODE                 ; [CPU_] 
    4677                      .dwpsn  file "C:/ti/controlSUITE/device_support/F2837xS/v170/F2837xS_common/source/F2837xS_DefaultISR
    4678 00000350 7625        ESTOP0
    4679 00000351       $C$L85:    
    4680                      .dwpsn  file "C:/ti/controlSUITE/device_support/F2837xS/v170/F2837xS_common/source/F2837xS_DefaultISR
    4681 00000351 6F00          B         $C$L85,UNC            ; [CPU_] |1214| 
    4682                      ; branch occurs ; [] |1214| 
    4683                      .dwattr $C$DW$85, DW_AT_TI_end_file("C:/ti/controlSUITE/device_support/F2837xS/v170/F2837xS_common/so
    4684                      .dwattr $C$DW$85, DW_AT_TI_end_line(0x4bf)
    4685                      .dwattr $C$DW$85, DW_AT_TI_end_column(0x01)
    4686                      .dwendentry
    4687                      .dwendtag $C$DW$85
    4688              
    4689 00000352               .sect   ".text:retain"
    4690                      .retain
    4691                      .retainrefs
    4692                      .global _ADCA4_ISR
    4693              
    4694              $C$DW$86        .dwtag  DW_TAG_subprogram, DW_AT_name("ADCA4_ISR")
    4695                      .dwattr $C$DW$86, DW_AT_low_pc(_ADCA4_ISR)
    4696                      .dwattr $C$DW$86, DW_AT_high_pc(0x00)
    4697                      .dwattr $C$DW$86, DW_AT_TI_symbol_name("_ADCA4_ISR")
    4698                      .dwattr $C$DW$86, DW_AT_external
    4699                      .dwattr $C$DW$86, DW_AT_TI_begin_file("C:/ti/controlSUITE/device_support/F2837xS/v170/F2837xS_common/
    4700                      .dwattr $C$DW$86, DW_AT_TI_begin_line(0x4c2)
    4701                      .dwattr $C$DW$86, DW_AT_TI_begin_column(0x10)
    4702                      .dwattr $C$DW$86, DW_AT_TI_interrupt
    4703                      .dwattr $C$DW$86, DW_AT_TI_max_frame_size(-6)
    4704                      .dwpsn  file "C:/ti/controlSUITE/device_support/F2837xS/v170/F2837xS_common/source/F2837xS_DefaultISR
    4705              
    4706                      .dwfde $C$DW$CIE, _ADCA4_ISR
    4707              
    4708              ;***************************************************************
    4709              ;* FNAME: _ADCA4_ISR                    FR SIZE:   4           *
    4710              ;*                                                             *
    4711              ;* FUNCTION ENVIRONMENT                                        *
    4712              ;*                                                             *
    4713              ;* FUNCTION PROPERTIES                                         *
    4714              ;*                            0 Parameter,  0 Auto,  4 SOE     *
    4715              ;***************************************************************
    4716              
    4717 00000352       _ADCA4_ISR:
    4718                      .dwcfi  cfa_offset, -2
    4719                      .dwcfi  save_reg_to_mem, 26, 0
    4720 00000352 761B          ASP       ; [CPU_] 
    4721 00000353 FFF0          PUSH      RB                    ; [CPU_] 
    4722                      .dwcfi  save_reg_to_mem, 73, 2
    4723                      .dwcfi  save_reg_to_mem, 74, 3
    4724                      .dwcfi  cfa_offset, -4
    4725 00000354 E200          MOV32     *SP++,STF             ; [CPU_] 
TMS320C2000 Assembler PC v6.4.2 Thu Dec 14 15:26:09 2017

Tools Copyright (c) 1996-2015 Texas Instruments Incorporated
F2837xS_DefaultISR.asm                                               PAGE   90

         00000355 00BD 
    4726                      .dwcfi  save_reg_to_mem, 39, 4
    4727                      .dwcfi  save_reg_to_mem, 40, 5
    4728                      .dwcfi  cfa_offset, -6
    4729 00000356 E630          SETFLG    RNDF32=1, RNDF64=1    ; [CPU_] 
         00000357 0600 
    4730 00000358 2942          CLRC      PAGE0,OVM             ; [CPU_] 
    4731 00000359 5616          CLRC      AMODE                 ; [CPU_] 
    4732                      .dwpsn  file "C:/ti/controlSUITE/device_support/F2837xS/v170/F2837xS_common/source/F2837xS_DefaultISR
    4733 0000035a 7625        ESTOP0
    4734 0000035b       $C$L86:    
    4735                      .dwpsn  file "C:/ti/controlSUITE/device_support/F2837xS/v170/F2837xS_common/source/F2837xS_DefaultISR
    4736 0000035b 6F00          B         $C$L86,UNC            ; [CPU_] |1229| 
    4737                      ; branch occurs ; [] |1229| 
    4738                      .dwattr $C$DW$86, DW_AT_TI_end_file("C:/ti/controlSUITE/device_support/F2837xS/v170/F2837xS_common/so
    4739                      .dwattr $C$DW$86, DW_AT_TI_end_line(0x4ce)
    4740                      .dwattr $C$DW$86, DW_AT_TI_end_column(0x01)
    4741                      .dwendentry
    4742                      .dwendtag $C$DW$86
    4743              
    4744 0000035c               .sect   ".text:retain"
    4745                      .retain
    4746                      .retainrefs
    4747                      .global _ADCB_EVT_ISR
    4748              
    4749              $C$DW$87        .dwtag  DW_TAG_subprogram, DW_AT_name("ADCB_EVT_ISR")
    4750                      .dwattr $C$DW$87, DW_AT_low_pc(_ADCB_EVT_ISR)
    4751                      .dwattr $C$DW$87, DW_AT_high_pc(0x00)
    4752                      .dwattr $C$DW$87, DW_AT_TI_symbol_name("_ADCB_EVT_ISR")
    4753                      .dwattr $C$DW$87, DW_AT_external
    4754                      .dwattr $C$DW$87, DW_AT_TI_begin_file("C:/ti/controlSUITE/device_support/F2837xS/v170/F2837xS_common/
    4755                      .dwattr $C$DW$87, DW_AT_TI_begin_line(0x4d1)
    4756                      .dwattr $C$DW$87, DW_AT_TI_begin_column(0x10)
    4757                      .dwattr $C$DW$87, DW_AT_TI_interrupt
    4758                      .dwattr $C$DW$87, DW_AT_TI_max_frame_size(-6)
    4759                      .dwpsn  file "C:/ti/controlSUITE/device_support/F2837xS/v170/F2837xS_common/source/F2837xS_DefaultISR
    4760              
    4761                      .dwfde $C$DW$CIE, _ADCB_EVT_ISR
    4762              
    4763              ;***************************************************************
    4764              ;* FNAME: _ADCB_EVT_ISR                 FR SIZE:   4           *
    4765              ;*                                                             *
    4766              ;* FUNCTION ENVIRONMENT                                        *
    4767              ;*                                                             *
    4768              ;* FUNCTION PROPERTIES                                         *
    4769              ;*                            0 Parameter,  0 Auto,  4 SOE     *
    4770              ;***************************************************************
    4771              
    4772 0000035c       _ADCB_EVT_ISR:
    4773                      .dwcfi  cfa_offset, -2
    4774                      .dwcfi  save_reg_to_mem, 26, 0
    4775 0000035c 761B          ASP       ; [CPU_] 
    4776 0000035d FFF0          PUSH      RB                    ; [CPU_] 
    4777                      .dwcfi  save_reg_to_mem, 73, 2
    4778                      .dwcfi  save_reg_to_mem, 74, 3
TMS320C2000 Assembler PC v6.4.2 Thu Dec 14 15:26:09 2017

Tools Copyright (c) 1996-2015 Texas Instruments Incorporated
F2837xS_DefaultISR.asm                                               PAGE   91

    4779                      .dwcfi  cfa_offset, -4
    4780 0000035e E200          MOV32     *SP++,STF             ; [CPU_] 
         0000035f 00BD 
    4781                      .dwcfi  save_reg_to_mem, 39, 4
    4782                      .dwcfi  save_reg_to_mem, 40, 5
    4783                      .dwcfi  cfa_offset, -6
    4784 00000360 E630          SETFLG    RNDF32=1, RNDF64=1    ; [CPU_] 
         00000361 0600 
    4785 00000362 2942          CLRC      PAGE0,OVM             ; [CPU_] 
    4786 00000363 5616          CLRC      AMODE                 ; [CPU_] 
    4787                      .dwpsn  file "C:/ti/controlSUITE/device_support/F2837xS/v170/F2837xS_common/source/F2837xS_DefaultISR
    4788 00000364 7625        ESTOP0
    4789 00000365       $C$L87:    
    4790                      .dwpsn  file "C:/ti/controlSUITE/device_support/F2837xS/v170/F2837xS_common/source/F2837xS_DefaultISR
    4791 00000365 6F00          B         $C$L87,UNC            ; [CPU_] |1244| 
    4792                      ; branch occurs ; [] |1244| 
    4793                      .dwattr $C$DW$87, DW_AT_TI_end_file("C:/ti/controlSUITE/device_support/F2837xS/v170/F2837xS_common/so
    4794                      .dwattr $C$DW$87, DW_AT_TI_end_line(0x4dd)
    4795                      .dwattr $C$DW$87, DW_AT_TI_end_column(0x01)
    4796                      .dwendentry
    4797                      .dwendtag $C$DW$87
    4798              
    4799 00000366               .sect   ".text:retain"
    4800                      .retain
    4801                      .retainrefs
    4802                      .global _ADCB2_ISR
    4803              
    4804              $C$DW$88        .dwtag  DW_TAG_subprogram, DW_AT_name("ADCB2_ISR")
    4805                      .dwattr $C$DW$88, DW_AT_low_pc(_ADCB2_ISR)
    4806                      .dwattr $C$DW$88, DW_AT_high_pc(0x00)
    4807                      .dwattr $C$DW$88, DW_AT_TI_symbol_name("_ADCB2_ISR")
    4808                      .dwattr $C$DW$88, DW_AT_external
    4809                      .dwattr $C$DW$88, DW_AT_TI_begin_file("C:/ti/controlSUITE/device_support/F2837xS/v170/F2837xS_common/
    4810                      .dwattr $C$DW$88, DW_AT_TI_begin_line(0x4e0)
    4811                      .dwattr $C$DW$88, DW_AT_TI_begin_column(0x10)
    4812                      .dwattr $C$DW$88, DW_AT_TI_interrupt
    4813                      .dwattr $C$DW$88, DW_AT_TI_max_frame_size(-6)
    4814                      .dwpsn  file "C:/ti/controlSUITE/device_support/F2837xS/v170/F2837xS_common/source/F2837xS_DefaultISR
    4815              
    4816                      .dwfde $C$DW$CIE, _ADCB2_ISR
    4817              
    4818              ;***************************************************************
    4819              ;* FNAME: _ADCB2_ISR                    FR SIZE:   4           *
    4820              ;*                                                             *
    4821              ;* FUNCTION ENVIRONMENT                                        *
    4822              ;*                                                             *
    4823              ;* FUNCTION PROPERTIES                                         *
    4824              ;*                            0 Parameter,  0 Auto,  4 SOE     *
    4825              ;***************************************************************
    4826              
    4827 00000366       _ADCB2_ISR:
    4828                      .dwcfi  cfa_offset, -2
    4829                      .dwcfi  save_reg_to_mem, 26, 0
    4830 00000366 761B          ASP       ; [CPU_] 
    4831 00000367 FFF0          PUSH      RB                    ; [CPU_] 
TMS320C2000 Assembler PC v6.4.2 Thu Dec 14 15:26:09 2017

Tools Copyright (c) 1996-2015 Texas Instruments Incorporated
F2837xS_DefaultISR.asm                                               PAGE   92

    4832                      .dwcfi  save_reg_to_mem, 73, 2
    4833                      .dwcfi  save_reg_to_mem, 74, 3
    4834                      .dwcfi  cfa_offset, -4
    4835 00000368 E200          MOV32     *SP++,STF             ; [CPU_] 
         00000369 00BD 
    4836                      .dwcfi  save_reg_to_mem, 39, 4
    4837                      .dwcfi  save_reg_to_mem, 40, 5
    4838                      .dwcfi  cfa_offset, -6
    4839 0000036a E630          SETFLG    RNDF32=1, RNDF64=1    ; [CPU_] 
         0000036b 0600 
    4840 0000036c 2942          CLRC      PAGE0,OVM             ; [CPU_] 
    4841 0000036d 5616          CLRC      AMODE                 ; [CPU_] 
    4842                      .dwpsn  file "C:/ti/controlSUITE/device_support/F2837xS/v170/F2837xS_common/source/F2837xS_DefaultISR
    4843 0000036e 7625        ESTOP0
    4844 0000036f       $C$L88:    
    4845                      .dwpsn  file "C:/ti/controlSUITE/device_support/F2837xS/v170/F2837xS_common/source/F2837xS_DefaultISR
    4846 0000036f 6F00          B         $C$L88,UNC            ; [CPU_] |1259| 
    4847                      ; branch occurs ; [] |1259| 
    4848                      .dwattr $C$DW$88, DW_AT_TI_end_file("C:/ti/controlSUITE/device_support/F2837xS/v170/F2837xS_common/so
    4849                      .dwattr $C$DW$88, DW_AT_TI_end_line(0x4ec)
    4850                      .dwattr $C$DW$88, DW_AT_TI_end_column(0x01)
    4851                      .dwendentry
    4852                      .dwendtag $C$DW$88
    4853              
    4854 00000370               .sect   ".text:retain"
    4855                      .retain
    4856                      .retainrefs
    4857                      .global _ADCB3_ISR
    4858              
    4859              $C$DW$89        .dwtag  DW_TAG_subprogram, DW_AT_name("ADCB3_ISR")
    4860                      .dwattr $C$DW$89, DW_AT_low_pc(_ADCB3_ISR)
    4861                      .dwattr $C$DW$89, DW_AT_high_pc(0x00)
    4862                      .dwattr $C$DW$89, DW_AT_TI_symbol_name("_ADCB3_ISR")
    4863                      .dwattr $C$DW$89, DW_AT_external
    4864                      .dwattr $C$DW$89, DW_AT_TI_begin_file("C:/ti/controlSUITE/device_support/F2837xS/v170/F2837xS_common/
    4865                      .dwattr $C$DW$89, DW_AT_TI_begin_line(0x4ef)
    4866                      .dwattr $C$DW$89, DW_AT_TI_begin_column(0x10)
    4867                      .dwattr $C$DW$89, DW_AT_TI_interrupt
    4868                      .dwattr $C$DW$89, DW_AT_TI_max_frame_size(-6)
    4869                      .dwpsn  file "C:/ti/controlSUITE/device_support/F2837xS/v170/F2837xS_common/source/F2837xS_DefaultISR
    4870              
    4871                      .dwfde $C$DW$CIE, _ADCB3_ISR
    4872              
    4873              ;***************************************************************
    4874              ;* FNAME: _ADCB3_ISR                    FR SIZE:   4           *
    4875              ;*                                                             *
    4876              ;* FUNCTION ENVIRONMENT                                        *
    4877              ;*                                                             *
    4878              ;* FUNCTION PROPERTIES                                         *
    4879              ;*                            0 Parameter,  0 Auto,  4 SOE     *
    4880              ;***************************************************************
    4881              
    4882 00000370       _ADCB3_ISR:
    4883                      .dwcfi  cfa_offset, -2
    4884                      .dwcfi  save_reg_to_mem, 26, 0
TMS320C2000 Assembler PC v6.4.2 Thu Dec 14 15:26:09 2017

Tools Copyright (c) 1996-2015 Texas Instruments Incorporated
F2837xS_DefaultISR.asm                                               PAGE   93

    4885 00000370 761B          ASP       ; [CPU_] 
    4886 00000371 FFF0          PUSH      RB                    ; [CPU_] 
    4887                      .dwcfi  save_reg_to_mem, 73, 2
    4888                      .dwcfi  save_reg_to_mem, 74, 3
    4889                      .dwcfi  cfa_offset, -4
    4890 00000372 E200          MOV32     *SP++,STF             ; [CPU_] 
         00000373 00BD 
    4891                      .dwcfi  save_reg_to_mem, 39, 4
    4892                      .dwcfi  save_reg_to_mem, 40, 5
    4893                      .dwcfi  cfa_offset, -6
    4894 00000374 E630          SETFLG    RNDF32=1, RNDF64=1    ; [CPU_] 
         00000375 0600 
    4895 00000376 2942          CLRC      PAGE0,OVM             ; [CPU_] 
    4896 00000377 5616          CLRC      AMODE                 ; [CPU_] 
    4897                      .dwpsn  file "C:/ti/controlSUITE/device_support/F2837xS/v170/F2837xS_common/source/F2837xS_DefaultISR
    4898 00000378 7625        ESTOP0
    4899 00000379       $C$L89:    
    4900                      .dwpsn  file "C:/ti/controlSUITE/device_support/F2837xS/v170/F2837xS_common/source/F2837xS_DefaultISR
    4901 00000379 6F00          B         $C$L89,UNC            ; [CPU_] |1274| 
    4902                      ; branch occurs ; [] |1274| 
    4903                      .dwattr $C$DW$89, DW_AT_TI_end_file("C:/ti/controlSUITE/device_support/F2837xS/v170/F2837xS_common/so
    4904                      .dwattr $C$DW$89, DW_AT_TI_end_line(0x4fb)
    4905                      .dwattr $C$DW$89, DW_AT_TI_end_column(0x01)
    4906                      .dwendentry
    4907                      .dwendtag $C$DW$89
    4908              
    4909 0000037a               .sect   ".text:retain"
    4910                      .retain
    4911                      .retainrefs
    4912                      .global _ADCB4_ISR
    4913              
    4914              $C$DW$90        .dwtag  DW_TAG_subprogram, DW_AT_name("ADCB4_ISR")
    4915                      .dwattr $C$DW$90, DW_AT_low_pc(_ADCB4_ISR)
    4916                      .dwattr $C$DW$90, DW_AT_high_pc(0x00)
    4917                      .dwattr $C$DW$90, DW_AT_TI_symbol_name("_ADCB4_ISR")
    4918                      .dwattr $C$DW$90, DW_AT_external
    4919                      .dwattr $C$DW$90, DW_AT_TI_begin_file("C:/ti/controlSUITE/device_support/F2837xS/v170/F2837xS_common/
    4920                      .dwattr $C$DW$90, DW_AT_TI_begin_line(0x4fe)
    4921                      .dwattr $C$DW$90, DW_AT_TI_begin_column(0x10)
    4922                      .dwattr $C$DW$90, DW_AT_TI_interrupt
    4923                      .dwattr $C$DW$90, DW_AT_TI_max_frame_size(-6)
    4924                      .dwpsn  file "C:/ti/controlSUITE/device_support/F2837xS/v170/F2837xS_common/source/F2837xS_DefaultISR
    4925              
    4926                      .dwfde $C$DW$CIE, _ADCB4_ISR
    4927              
    4928              ;***************************************************************
    4929              ;* FNAME: _ADCB4_ISR                    FR SIZE:   4           *
    4930              ;*                                                             *
    4931              ;* FUNCTION ENVIRONMENT                                        *
    4932              ;*                                                             *
    4933              ;* FUNCTION PROPERTIES                                         *
    4934              ;*                            0 Parameter,  0 Auto,  4 SOE     *
    4935              ;***************************************************************
    4936              
    4937 0000037a       _ADCB4_ISR:
TMS320C2000 Assembler PC v6.4.2 Thu Dec 14 15:26:09 2017

Tools Copyright (c) 1996-2015 Texas Instruments Incorporated
F2837xS_DefaultISR.asm                                               PAGE   94

    4938                      .dwcfi  cfa_offset, -2
    4939                      .dwcfi  save_reg_to_mem, 26, 0
    4940 0000037a 761B          ASP       ; [CPU_] 
    4941 0000037b FFF0          PUSH      RB                    ; [CPU_] 
    4942                      .dwcfi  save_reg_to_mem, 73, 2
    4943                      .dwcfi  save_reg_to_mem, 74, 3
    4944                      .dwcfi  cfa_offset, -4
    4945 0000037c E200          MOV32     *SP++,STF             ; [CPU_] 
         0000037d 00BD 
    4946                      .dwcfi  save_reg_to_mem, 39, 4
    4947                      .dwcfi  save_reg_to_mem, 40, 5
    4948                      .dwcfi  cfa_offset, -6
    4949 0000037e E630          SETFLG    RNDF32=1, RNDF64=1    ; [CPU_] 
         0000037f 0600 
    4950 00000380 2942          CLRC      PAGE0,OVM             ; [CPU_] 
    4951 00000381 5616          CLRC      AMODE                 ; [CPU_] 
    4952                      .dwpsn  file "C:/ti/controlSUITE/device_support/F2837xS/v170/F2837xS_common/source/F2837xS_DefaultISR
    4953 00000382 7625        ESTOP0
    4954 00000383       $C$L90:    
    4955                      .dwpsn  file "C:/ti/controlSUITE/device_support/F2837xS/v170/F2837xS_common/source/F2837xS_DefaultISR
    4956 00000383 6F00          B         $C$L90,UNC            ; [CPU_] |1289| 
    4957                      ; branch occurs ; [] |1289| 
    4958                      .dwattr $C$DW$90, DW_AT_TI_end_file("C:/ti/controlSUITE/device_support/F2837xS/v170/F2837xS_common/so
    4959                      .dwattr $C$DW$90, DW_AT_TI_end_line(0x50a)
    4960                      .dwattr $C$DW$90, DW_AT_TI_end_column(0x01)
    4961                      .dwendentry
    4962                      .dwendtag $C$DW$90
    4963              
    4964 00000384               .sect   ".text:retain"
    4965                      .retain
    4966                      .retainrefs
    4967                      .global _CLA1_1_ISR
    4968              
    4969              $C$DW$91        .dwtag  DW_TAG_subprogram, DW_AT_name("CLA1_1_ISR")
    4970                      .dwattr $C$DW$91, DW_AT_low_pc(_CLA1_1_ISR)
    4971                      .dwattr $C$DW$91, DW_AT_high_pc(0x00)
    4972                      .dwattr $C$DW$91, DW_AT_TI_symbol_name("_CLA1_1_ISR")
    4973                      .dwattr $C$DW$91, DW_AT_external
    4974                      .dwattr $C$DW$91, DW_AT_TI_begin_file("C:/ti/controlSUITE/device_support/F2837xS/v170/F2837xS_common/
    4975                      .dwattr $C$DW$91, DW_AT_TI_begin_line(0x50d)
    4976                      .dwattr $C$DW$91, DW_AT_TI_begin_column(0x10)
    4977                      .dwattr $C$DW$91, DW_AT_TI_interrupt
    4978                      .dwattr $C$DW$91, DW_AT_TI_max_frame_size(-6)
    4979                      .dwpsn  file "C:/ti/controlSUITE/device_support/F2837xS/v170/F2837xS_common/source/F2837xS_DefaultISR
    4980              
    4981                      .dwfde $C$DW$CIE, _CLA1_1_ISR
    4982              
    4983              ;***************************************************************
    4984              ;* FNAME: _CLA1_1_ISR                   FR SIZE:   4           *
    4985              ;*                                                             *
    4986              ;* FUNCTION ENVIRONMENT                                        *
    4987              ;*                                                             *
    4988              ;* FUNCTION PROPERTIES                                         *
    4989              ;*                            0 Parameter,  0 Auto,  4 SOE     *
    4990              ;***************************************************************
TMS320C2000 Assembler PC v6.4.2 Thu Dec 14 15:26:09 2017

Tools Copyright (c) 1996-2015 Texas Instruments Incorporated
F2837xS_DefaultISR.asm                                               PAGE   95

    4991              
    4992 00000384       _CLA1_1_ISR:
    4993                      .dwcfi  cfa_offset, -2
    4994                      .dwcfi  save_reg_to_mem, 26, 0
    4995 00000384 761B          ASP       ; [CPU_] 
    4996 00000385 FFF0          PUSH      RB                    ; [CPU_] 
    4997                      .dwcfi  save_reg_to_mem, 73, 2
    4998                      .dwcfi  save_reg_to_mem, 74, 3
    4999                      .dwcfi  cfa_offset, -4
    5000 00000386 E200          MOV32     *SP++,STF             ; [CPU_] 
         00000387 00BD 
    5001                      .dwcfi  save_reg_to_mem, 39, 4
    5002                      .dwcfi  save_reg_to_mem, 40, 5
    5003                      .dwcfi  cfa_offset, -6
    5004 00000388 E630          SETFLG    RNDF32=1, RNDF64=1    ; [CPU_] 
         00000389 0600 
    5005 0000038a 2942          CLRC      PAGE0,OVM             ; [CPU_] 
    5006 0000038b 5616          CLRC      AMODE                 ; [CPU_] 
    5007                      .dwpsn  file "C:/ti/controlSUITE/device_support/F2837xS/v170/F2837xS_common/source/F2837xS_DefaultISR
    5008 0000038c 7625        ESTOP0
    5009 0000038d       $C$L91:    
    5010                      .dwpsn  file "C:/ti/controlSUITE/device_support/F2837xS/v170/F2837xS_common/source/F2837xS_DefaultISR
    5011 0000038d 6F00          B         $C$L91,UNC            ; [CPU_] |1304| 
    5012                      ; branch occurs ; [] |1304| 
    5013                      .dwattr $C$DW$91, DW_AT_TI_end_file("C:/ti/controlSUITE/device_support/F2837xS/v170/F2837xS_common/so
    5014                      .dwattr $C$DW$91, DW_AT_TI_end_line(0x519)
    5015                      .dwattr $C$DW$91, DW_AT_TI_end_column(0x01)
    5016                      .dwendentry
    5017                      .dwendtag $C$DW$91
    5018              
    5019 0000038e               .sect   ".text:retain"
    5020                      .retain
    5021                      .retainrefs
    5022                      .global _CLA1_2_ISR
    5023              
    5024              $C$DW$92        .dwtag  DW_TAG_subprogram, DW_AT_name("CLA1_2_ISR")
    5025                      .dwattr $C$DW$92, DW_AT_low_pc(_CLA1_2_ISR)
    5026                      .dwattr $C$DW$92, DW_AT_high_pc(0x00)
    5027                      .dwattr $C$DW$92, DW_AT_TI_symbol_name("_CLA1_2_ISR")
    5028                      .dwattr $C$DW$92, DW_AT_external
    5029                      .dwattr $C$DW$92, DW_AT_TI_begin_file("C:/ti/controlSUITE/device_support/F2837xS/v170/F2837xS_common/
    5030                      .dwattr $C$DW$92, DW_AT_TI_begin_line(0x51c)
    5031                      .dwattr $C$DW$92, DW_AT_TI_begin_column(0x10)
    5032                      .dwattr $C$DW$92, DW_AT_TI_interrupt
    5033                      .dwattr $C$DW$92, DW_AT_TI_max_frame_size(-6)
    5034                      .dwpsn  file "C:/ti/controlSUITE/device_support/F2837xS/v170/F2837xS_common/source/F2837xS_DefaultISR
    5035              
    5036                      .dwfde $C$DW$CIE, _CLA1_2_ISR
    5037              
    5038              ;***************************************************************
    5039              ;* FNAME: _CLA1_2_ISR                   FR SIZE:   4           *
    5040              ;*                                                             *
    5041              ;* FUNCTION ENVIRONMENT                                        *
    5042              ;*                                                             *
    5043              ;* FUNCTION PROPERTIES                                         *
TMS320C2000 Assembler PC v6.4.2 Thu Dec 14 15:26:09 2017

Tools Copyright (c) 1996-2015 Texas Instruments Incorporated
F2837xS_DefaultISR.asm                                               PAGE   96

    5044              ;*                            0 Parameter,  0 Auto,  4 SOE     *
    5045              ;***************************************************************
    5046              
    5047 0000038e       _CLA1_2_ISR:
    5048                      .dwcfi  cfa_offset, -2
    5049                      .dwcfi  save_reg_to_mem, 26, 0
    5050 0000038e 761B          ASP       ; [CPU_] 
    5051 0000038f FFF0          PUSH      RB                    ; [CPU_] 
    5052                      .dwcfi  save_reg_to_mem, 73, 2
    5053                      .dwcfi  save_reg_to_mem, 74, 3
    5054                      .dwcfi  cfa_offset, -4
    5055 00000390 E200          MOV32     *SP++,STF             ; [CPU_] 
         00000391 00BD 
    5056                      .dwcfi  save_reg_to_mem, 39, 4
    5057                      .dwcfi  save_reg_to_mem, 40, 5
    5058                      .dwcfi  cfa_offset, -6
    5059 00000392 E630          SETFLG    RNDF32=1, RNDF64=1    ; [CPU_] 
         00000393 0600 
    5060 00000394 2942          CLRC      PAGE0,OVM             ; [CPU_] 
    5061 00000395 5616          CLRC      AMODE                 ; [CPU_] 
    5062                      .dwpsn  file "C:/ti/controlSUITE/device_support/F2837xS/v170/F2837xS_common/source/F2837xS_DefaultISR
    5063 00000396 7625        ESTOP0
    5064 00000397       $C$L92:    
    5065                      .dwpsn  file "C:/ti/controlSUITE/device_support/F2837xS/v170/F2837xS_common/source/F2837xS_DefaultISR
    5066 00000397 6F00          B         $C$L92,UNC            ; [CPU_] |1319| 
    5067                      ; branch occurs ; [] |1319| 
    5068                      .dwattr $C$DW$92, DW_AT_TI_end_file("C:/ti/controlSUITE/device_support/F2837xS/v170/F2837xS_common/so
    5069                      .dwattr $C$DW$92, DW_AT_TI_end_line(0x528)
    5070                      .dwattr $C$DW$92, DW_AT_TI_end_column(0x01)
    5071                      .dwendentry
    5072                      .dwendtag $C$DW$92
    5073              
    5074 00000398               .sect   ".text:retain"
    5075                      .retain
    5076                      .retainrefs
    5077                      .global _CLA1_3_ISR
    5078              
    5079              $C$DW$93        .dwtag  DW_TAG_subprogram, DW_AT_name("CLA1_3_ISR")
    5080                      .dwattr $C$DW$93, DW_AT_low_pc(_CLA1_3_ISR)
    5081                      .dwattr $C$DW$93, DW_AT_high_pc(0x00)
    5082                      .dwattr $C$DW$93, DW_AT_TI_symbol_name("_CLA1_3_ISR")
    5083                      .dwattr $C$DW$93, DW_AT_external
    5084                      .dwattr $C$DW$93, DW_AT_TI_begin_file("C:/ti/controlSUITE/device_support/F2837xS/v170/F2837xS_common/
    5085                      .dwattr $C$DW$93, DW_AT_TI_begin_line(0x52b)
    5086                      .dwattr $C$DW$93, DW_AT_TI_begin_column(0x10)
    5087                      .dwattr $C$DW$93, DW_AT_TI_interrupt
    5088                      .dwattr $C$DW$93, DW_AT_TI_max_frame_size(-6)
    5089                      .dwpsn  file "C:/ti/controlSUITE/device_support/F2837xS/v170/F2837xS_common/source/F2837xS_DefaultISR
    5090              
    5091                      .dwfde $C$DW$CIE, _CLA1_3_ISR
    5092              
    5093              ;***************************************************************
    5094              ;* FNAME: _CLA1_3_ISR                   FR SIZE:   4           *
    5095              ;*                                                             *
    5096              ;* FUNCTION ENVIRONMENT                                        *
TMS320C2000 Assembler PC v6.4.2 Thu Dec 14 15:26:09 2017

Tools Copyright (c) 1996-2015 Texas Instruments Incorporated
F2837xS_DefaultISR.asm                                               PAGE   97

    5097              ;*                                                             *
    5098              ;* FUNCTION PROPERTIES                                         *
    5099              ;*                            0 Parameter,  0 Auto,  4 SOE     *
    5100              ;***************************************************************
    5101              
    5102 00000398       _CLA1_3_ISR:
    5103                      .dwcfi  cfa_offset, -2
    5104                      .dwcfi  save_reg_to_mem, 26, 0
    5105 00000398 761B          ASP       ; [CPU_] 
    5106 00000399 FFF0          PUSH      RB                    ; [CPU_] 
    5107                      .dwcfi  save_reg_to_mem, 73, 2
    5108                      .dwcfi  save_reg_to_mem, 74, 3
    5109                      .dwcfi  cfa_offset, -4
    5110 0000039a E200          MOV32     *SP++,STF             ; [CPU_] 
         0000039b 00BD 
    5111                      .dwcfi  save_reg_to_mem, 39, 4
    5112                      .dwcfi  save_reg_to_mem, 40, 5
    5113                      .dwcfi  cfa_offset, -6
    5114 0000039c E630          SETFLG    RNDF32=1, RNDF64=1    ; [CPU_] 
         0000039d 0600 
    5115 0000039e 2942          CLRC      PAGE0,OVM             ; [CPU_] 
    5116 0000039f 5616          CLRC      AMODE                 ; [CPU_] 
    5117                      .dwpsn  file "C:/ti/controlSUITE/device_support/F2837xS/v170/F2837xS_common/source/F2837xS_DefaultISR
    5118 000003a0 7625        ESTOP0
    5119 000003a1       $C$L93:    
    5120                      .dwpsn  file "C:/ti/controlSUITE/device_support/F2837xS/v170/F2837xS_common/source/F2837xS_DefaultISR
    5121 000003a1 6F00          B         $C$L93,UNC            ; [CPU_] |1334| 
    5122                      ; branch occurs ; [] |1334| 
    5123                      .dwattr $C$DW$93, DW_AT_TI_end_file("C:/ti/controlSUITE/device_support/F2837xS/v170/F2837xS_common/so
    5124                      .dwattr $C$DW$93, DW_AT_TI_end_line(0x537)
    5125                      .dwattr $C$DW$93, DW_AT_TI_end_column(0x01)
    5126                      .dwendentry
    5127                      .dwendtag $C$DW$93
    5128              
    5129 000003a2               .sect   ".text:retain"
    5130                      .retain
    5131                      .retainrefs
    5132                      .global _CLA1_4_ISR
    5133              
    5134              $C$DW$94        .dwtag  DW_TAG_subprogram, DW_AT_name("CLA1_4_ISR")
    5135                      .dwattr $C$DW$94, DW_AT_low_pc(_CLA1_4_ISR)
    5136                      .dwattr $C$DW$94, DW_AT_high_pc(0x00)
    5137                      .dwattr $C$DW$94, DW_AT_TI_symbol_name("_CLA1_4_ISR")
    5138                      .dwattr $C$DW$94, DW_AT_external
    5139                      .dwattr $C$DW$94, DW_AT_TI_begin_file("C:/ti/controlSUITE/device_support/F2837xS/v170/F2837xS_common/
    5140                      .dwattr $C$DW$94, DW_AT_TI_begin_line(0x53a)
    5141                      .dwattr $C$DW$94, DW_AT_TI_begin_column(0x10)
    5142                      .dwattr $C$DW$94, DW_AT_TI_interrupt
    5143                      .dwattr $C$DW$94, DW_AT_TI_max_frame_size(-6)
    5144                      .dwpsn  file "C:/ti/controlSUITE/device_support/F2837xS/v170/F2837xS_common/source/F2837xS_DefaultISR
    5145              
    5146                      .dwfde $C$DW$CIE, _CLA1_4_ISR
    5147              
    5148              ;***************************************************************
    5149              ;* FNAME: _CLA1_4_ISR                   FR SIZE:   4           *
TMS320C2000 Assembler PC v6.4.2 Thu Dec 14 15:26:09 2017

Tools Copyright (c) 1996-2015 Texas Instruments Incorporated
F2837xS_DefaultISR.asm                                               PAGE   98

    5150              ;*                                                             *
    5151              ;* FUNCTION ENVIRONMENT                                        *
    5152              ;*                                                             *
    5153              ;* FUNCTION PROPERTIES                                         *
    5154              ;*                            0 Parameter,  0 Auto,  4 SOE     *
    5155              ;***************************************************************
    5156              
    5157 000003a2       _CLA1_4_ISR:
    5158                      .dwcfi  cfa_offset, -2
    5159                      .dwcfi  save_reg_to_mem, 26, 0
    5160 000003a2 761B          ASP       ; [CPU_] 
    5161 000003a3 FFF0          PUSH      RB                    ; [CPU_] 
    5162                      .dwcfi  save_reg_to_mem, 73, 2
    5163                      .dwcfi  save_reg_to_mem, 74, 3
    5164                      .dwcfi  cfa_offset, -4
    5165 000003a4 E200          MOV32     *SP++,STF             ; [CPU_] 
         000003a5 00BD 
    5166                      .dwcfi  save_reg_to_mem, 39, 4
    5167                      .dwcfi  save_reg_to_mem, 40, 5
    5168                      .dwcfi  cfa_offset, -6
    5169 000003a6 E630          SETFLG    RNDF32=1, RNDF64=1    ; [CPU_] 
         000003a7 0600 
    5170 000003a8 2942          CLRC      PAGE0,OVM             ; [CPU_] 
    5171 000003a9 5616          CLRC      AMODE                 ; [CPU_] 
    5172                      .dwpsn  file "C:/ti/controlSUITE/device_support/F2837xS/v170/F2837xS_common/source/F2837xS_DefaultISR
    5173 000003aa 7625        ESTOP0
    5174 000003ab       $C$L94:    
    5175                      .dwpsn  file "C:/ti/controlSUITE/device_support/F2837xS/v170/F2837xS_common/source/F2837xS_DefaultISR
    5176 000003ab 6F00          B         $C$L94,UNC            ; [CPU_] |1349| 
    5177                      ; branch occurs ; [] |1349| 
    5178                      .dwattr $C$DW$94, DW_AT_TI_end_file("C:/ti/controlSUITE/device_support/F2837xS/v170/F2837xS_common/so
    5179                      .dwattr $C$DW$94, DW_AT_TI_end_line(0x546)
    5180                      .dwattr $C$DW$94, DW_AT_TI_end_column(0x01)
    5181                      .dwendentry
    5182                      .dwendtag $C$DW$94
    5183              
    5184 000003ac               .sect   ".text:retain"
    5185                      .retain
    5186                      .retainrefs
    5187                      .global _CLA1_5_ISR
    5188              
    5189              $C$DW$95        .dwtag  DW_TAG_subprogram, DW_AT_name("CLA1_5_ISR")
    5190                      .dwattr $C$DW$95, DW_AT_low_pc(_CLA1_5_ISR)
    5191                      .dwattr $C$DW$95, DW_AT_high_pc(0x00)
    5192                      .dwattr $C$DW$95, DW_AT_TI_symbol_name("_CLA1_5_ISR")
    5193                      .dwattr $C$DW$95, DW_AT_external
    5194                      .dwattr $C$DW$95, DW_AT_TI_begin_file("C:/ti/controlSUITE/device_support/F2837xS/v170/F2837xS_common/
    5195                      .dwattr $C$DW$95, DW_AT_TI_begin_line(0x549)
    5196                      .dwattr $C$DW$95, DW_AT_TI_begin_column(0x10)
    5197                      .dwattr $C$DW$95, DW_AT_TI_interrupt
    5198                      .dwattr $C$DW$95, DW_AT_TI_max_frame_size(-6)
    5199                      .dwpsn  file "C:/ti/controlSUITE/device_support/F2837xS/v170/F2837xS_common/source/F2837xS_DefaultISR
    5200              
    5201                      .dwfde $C$DW$CIE, _CLA1_5_ISR
    5202              
TMS320C2000 Assembler PC v6.4.2 Thu Dec 14 15:26:09 2017

Tools Copyright (c) 1996-2015 Texas Instruments Incorporated
F2837xS_DefaultISR.asm                                               PAGE   99

    5203              ;***************************************************************
    5204              ;* FNAME: _CLA1_5_ISR                   FR SIZE:   4           *
    5205              ;*                                                             *
    5206              ;* FUNCTION ENVIRONMENT                                        *
    5207              ;*                                                             *
    5208              ;* FUNCTION PROPERTIES                                         *
    5209              ;*                            0 Parameter,  0 Auto,  4 SOE     *
    5210              ;***************************************************************
    5211              
    5212 000003ac       _CLA1_5_ISR:
    5213                      .dwcfi  cfa_offset, -2
    5214                      .dwcfi  save_reg_to_mem, 26, 0
    5215 000003ac 761B          ASP       ; [CPU_] 
    5216 000003ad FFF0          PUSH      RB                    ; [CPU_] 
    5217                      .dwcfi  save_reg_to_mem, 73, 2
    5218                      .dwcfi  save_reg_to_mem, 74, 3
    5219                      .dwcfi  cfa_offset, -4
    5220 000003ae E200          MOV32     *SP++,STF             ; [CPU_] 
         000003af 00BD 
    5221                      .dwcfi  save_reg_to_mem, 39, 4
    5222                      .dwcfi  save_reg_to_mem, 40, 5
    5223                      .dwcfi  cfa_offset, -6
    5224 000003b0 E630          SETFLG    RNDF32=1, RNDF64=1    ; [CPU_] 
         000003b1 0600 
    5225 000003b2 2942          CLRC      PAGE0,OVM             ; [CPU_] 
    5226 000003b3 5616          CLRC      AMODE                 ; [CPU_] 
    5227                      .dwpsn  file "C:/ti/controlSUITE/device_support/F2837xS/v170/F2837xS_common/source/F2837xS_DefaultISR
    5228 000003b4 7625        ESTOP0
    5229 000003b5       $C$L95:    
    5230                      .dwpsn  file "C:/ti/controlSUITE/device_support/F2837xS/v170/F2837xS_common/source/F2837xS_DefaultISR
    5231 000003b5 6F00          B         $C$L95,UNC            ; [CPU_] |1364| 
    5232                      ; branch occurs ; [] |1364| 
    5233                      .dwattr $C$DW$95, DW_AT_TI_end_file("C:/ti/controlSUITE/device_support/F2837xS/v170/F2837xS_common/so
    5234                      .dwattr $C$DW$95, DW_AT_TI_end_line(0x555)
    5235                      .dwattr $C$DW$95, DW_AT_TI_end_column(0x01)
    5236                      .dwendentry
    5237                      .dwendtag $C$DW$95
    5238              
    5239 000003b6               .sect   ".text:retain"
    5240                      .retain
    5241                      .retainrefs
    5242                      .global _CLA1_6_ISR
    5243              
    5244              $C$DW$96        .dwtag  DW_TAG_subprogram, DW_AT_name("CLA1_6_ISR")
    5245                      .dwattr $C$DW$96, DW_AT_low_pc(_CLA1_6_ISR)
    5246                      .dwattr $C$DW$96, DW_AT_high_pc(0x00)
    5247                      .dwattr $C$DW$96, DW_AT_TI_symbol_name("_CLA1_6_ISR")
    5248                      .dwattr $C$DW$96, DW_AT_external
    5249                      .dwattr $C$DW$96, DW_AT_TI_begin_file("C:/ti/controlSUITE/device_support/F2837xS/v170/F2837xS_common/
    5250                      .dwattr $C$DW$96, DW_AT_TI_begin_line(0x558)
    5251                      .dwattr $C$DW$96, DW_AT_TI_begin_column(0x10)
    5252                      .dwattr $C$DW$96, DW_AT_TI_interrupt
    5253                      .dwattr $C$DW$96, DW_AT_TI_max_frame_size(-6)
    5254                      .dwpsn  file "C:/ti/controlSUITE/device_support/F2837xS/v170/F2837xS_common/source/F2837xS_DefaultISR
    5255              
TMS320C2000 Assembler PC v6.4.2 Thu Dec 14 15:26:09 2017

Tools Copyright (c) 1996-2015 Texas Instruments Incorporated
F2837xS_DefaultISR.asm                                               PAGE  100

    5256                      .dwfde $C$DW$CIE, _CLA1_6_ISR
    5257              
    5258              ;***************************************************************
    5259              ;* FNAME: _CLA1_6_ISR                   FR SIZE:   4           *
    5260              ;*                                                             *
    5261              ;* FUNCTION ENVIRONMENT                                        *
    5262              ;*                                                             *
    5263              ;* FUNCTION PROPERTIES                                         *
    5264              ;*                            0 Parameter,  0 Auto,  4 SOE     *
    5265              ;***************************************************************
    5266              
    5267 000003b6       _CLA1_6_ISR:
    5268                      .dwcfi  cfa_offset, -2
    5269                      .dwcfi  save_reg_to_mem, 26, 0
    5270 000003b6 761B          ASP       ; [CPU_] 
    5271 000003b7 FFF0          PUSH      RB                    ; [CPU_] 
    5272                      .dwcfi  save_reg_to_mem, 73, 2
    5273                      .dwcfi  save_reg_to_mem, 74, 3
    5274                      .dwcfi  cfa_offset, -4
    5275 000003b8 E200          MOV32     *SP++,STF             ; [CPU_] 
         000003b9 00BD 
    5276                      .dwcfi  save_reg_to_mem, 39, 4
    5277                      .dwcfi  save_reg_to_mem, 40, 5
    5278                      .dwcfi  cfa_offset, -6
    5279 000003ba E630          SETFLG    RNDF32=1, RNDF64=1    ; [CPU_] 
         000003bb 0600 
    5280 000003bc 2942          CLRC      PAGE0,OVM             ; [CPU_] 
    5281 000003bd 5616          CLRC      AMODE                 ; [CPU_] 
    5282                      .dwpsn  file "C:/ti/controlSUITE/device_support/F2837xS/v170/F2837xS_common/source/F2837xS_DefaultISR
    5283 000003be 7625        ESTOP0
    5284 000003bf       $C$L96:    
    5285                      .dwpsn  file "C:/ti/controlSUITE/device_support/F2837xS/v170/F2837xS_common/source/F2837xS_DefaultISR
    5286 000003bf 6F00          B         $C$L96,UNC            ; [CPU_] |1379| 
    5287                      ; branch occurs ; [] |1379| 
    5288                      .dwattr $C$DW$96, DW_AT_TI_end_file("C:/ti/controlSUITE/device_support/F2837xS/v170/F2837xS_common/so
    5289                      .dwattr $C$DW$96, DW_AT_TI_end_line(0x564)
    5290                      .dwattr $C$DW$96, DW_AT_TI_end_column(0x01)
    5291                      .dwendentry
    5292                      .dwendtag $C$DW$96
    5293              
    5294 000003c0               .sect   ".text:retain"
    5295                      .retain
    5296                      .retainrefs
    5297                      .global _CLA1_7_ISR
    5298              
    5299              $C$DW$97        .dwtag  DW_TAG_subprogram, DW_AT_name("CLA1_7_ISR")
    5300                      .dwattr $C$DW$97, DW_AT_low_pc(_CLA1_7_ISR)
    5301                      .dwattr $C$DW$97, DW_AT_high_pc(0x00)
    5302                      .dwattr $C$DW$97, DW_AT_TI_symbol_name("_CLA1_7_ISR")
    5303                      .dwattr $C$DW$97, DW_AT_external
    5304                      .dwattr $C$DW$97, DW_AT_TI_begin_file("C:/ti/controlSUITE/device_support/F2837xS/v170/F2837xS_common/
    5305                      .dwattr $C$DW$97, DW_AT_TI_begin_line(0x567)
    5306                      .dwattr $C$DW$97, DW_AT_TI_begin_column(0x10)
    5307                      .dwattr $C$DW$97, DW_AT_TI_interrupt
    5308                      .dwattr $C$DW$97, DW_AT_TI_max_frame_size(-6)
TMS320C2000 Assembler PC v6.4.2 Thu Dec 14 15:26:09 2017

Tools Copyright (c) 1996-2015 Texas Instruments Incorporated
F2837xS_DefaultISR.asm                                               PAGE  101

    5309                      .dwpsn  file "C:/ti/controlSUITE/device_support/F2837xS/v170/F2837xS_common/source/F2837xS_DefaultISR
    5310              
    5311                      .dwfde $C$DW$CIE, _CLA1_7_ISR
    5312              
    5313              ;***************************************************************
    5314              ;* FNAME: _CLA1_7_ISR                   FR SIZE:   4           *
    5315              ;*                                                             *
    5316              ;* FUNCTION ENVIRONMENT                                        *
    5317              ;*                                                             *
    5318              ;* FUNCTION PROPERTIES                                         *
    5319              ;*                            0 Parameter,  0 Auto,  4 SOE     *
    5320              ;***************************************************************
    5321              
    5322 000003c0       _CLA1_7_ISR:
    5323                      .dwcfi  cfa_offset, -2
    5324                      .dwcfi  save_reg_to_mem, 26, 0
    5325 000003c0 761B          ASP       ; [CPU_] 
    5326 000003c1 FFF0          PUSH      RB                    ; [CPU_] 
    5327                      .dwcfi  save_reg_to_mem, 73, 2
    5328                      .dwcfi  save_reg_to_mem, 74, 3
    5329                      .dwcfi  cfa_offset, -4
    5330 000003c2 E200          MOV32     *SP++,STF             ; [CPU_] 
         000003c3 00BD 
    5331                      .dwcfi  save_reg_to_mem, 39, 4
    5332                      .dwcfi  save_reg_to_mem, 40, 5
    5333                      .dwcfi  cfa_offset, -6
    5334 000003c4 E630          SETFLG    RNDF32=1, RNDF64=1    ; [CPU_] 
         000003c5 0600 
    5335 000003c6 2942          CLRC      PAGE0,OVM             ; [CPU_] 
    5336 000003c7 5616          CLRC      AMODE                 ; [CPU_] 
    5337                      .dwpsn  file "C:/ti/controlSUITE/device_support/F2837xS/v170/F2837xS_common/source/F2837xS_DefaultISR
    5338 000003c8 7625        ESTOP0
    5339 000003c9       $C$L97:    
    5340                      .dwpsn  file "C:/ti/controlSUITE/device_support/F2837xS/v170/F2837xS_common/source/F2837xS_DefaultISR
    5341 000003c9 6F00          B         $C$L97,UNC            ; [CPU_] |1394| 
    5342                      ; branch occurs ; [] |1394| 
    5343                      .dwattr $C$DW$97, DW_AT_TI_end_file("C:/ti/controlSUITE/device_support/F2837xS/v170/F2837xS_common/so
    5344                      .dwattr $C$DW$97, DW_AT_TI_end_line(0x573)
    5345                      .dwattr $C$DW$97, DW_AT_TI_end_column(0x01)
    5346                      .dwendentry
    5347                      .dwendtag $C$DW$97
    5348              
    5349 000003ca               .sect   ".text:retain"
    5350                      .retain
    5351                      .retainrefs
    5352                      .global _CLA1_8_ISR
    5353              
    5354              $C$DW$98        .dwtag  DW_TAG_subprogram, DW_AT_name("CLA1_8_ISR")
    5355                      .dwattr $C$DW$98, DW_AT_low_pc(_CLA1_8_ISR)
    5356                      .dwattr $C$DW$98, DW_AT_high_pc(0x00)
    5357                      .dwattr $C$DW$98, DW_AT_TI_symbol_name("_CLA1_8_ISR")
    5358                      .dwattr $C$DW$98, DW_AT_external
    5359                      .dwattr $C$DW$98, DW_AT_TI_begin_file("C:/ti/controlSUITE/device_support/F2837xS/v170/F2837xS_common/
    5360                      .dwattr $C$DW$98, DW_AT_TI_begin_line(0x576)
    5361                      .dwattr $C$DW$98, DW_AT_TI_begin_column(0x10)
TMS320C2000 Assembler PC v6.4.2 Thu Dec 14 15:26:09 2017

Tools Copyright (c) 1996-2015 Texas Instruments Incorporated
F2837xS_DefaultISR.asm                                               PAGE  102

    5362                      .dwattr $C$DW$98, DW_AT_TI_interrupt
    5363                      .dwattr $C$DW$98, DW_AT_TI_max_frame_size(-6)
    5364                      .dwpsn  file "C:/ti/controlSUITE/device_support/F2837xS/v170/F2837xS_common/source/F2837xS_DefaultISR
    5365              
    5366                      .dwfde $C$DW$CIE, _CLA1_8_ISR
    5367              
    5368              ;***************************************************************
    5369              ;* FNAME: _CLA1_8_ISR                   FR SIZE:   4           *
    5370              ;*                                                             *
    5371              ;* FUNCTION ENVIRONMENT                                        *
    5372              ;*                                                             *
    5373              ;* FUNCTION PROPERTIES                                         *
    5374              ;*                            0 Parameter,  0 Auto,  4 SOE     *
    5375              ;***************************************************************
    5376              
    5377 000003ca       _CLA1_8_ISR:
    5378                      .dwcfi  cfa_offset, -2
    5379                      .dwcfi  save_reg_to_mem, 26, 0
    5380 000003ca 761B          ASP       ; [CPU_] 
    5381 000003cb FFF0          PUSH      RB                    ; [CPU_] 
    5382                      .dwcfi  save_reg_to_mem, 73, 2
    5383                      .dwcfi  save_reg_to_mem, 74, 3
    5384                      .dwcfi  cfa_offset, -4
    5385 000003cc E200          MOV32     *SP++,STF             ; [CPU_] 
         000003cd 00BD 
    5386                      .dwcfi  save_reg_to_mem, 39, 4
    5387                      .dwcfi  save_reg_to_mem, 40, 5
    5388                      .dwcfi  cfa_offset, -6
    5389 000003ce E630          SETFLG    RNDF32=1, RNDF64=1    ; [CPU_] 
         000003cf 0600 
    5390 000003d0 2942          CLRC      PAGE0,OVM             ; [CPU_] 
    5391 000003d1 5616          CLRC      AMODE                 ; [CPU_] 
    5392                      .dwpsn  file "C:/ti/controlSUITE/device_support/F2837xS/v170/F2837xS_common/source/F2837xS_DefaultISR
    5393 000003d2 7625        ESTOP0
    5394 000003d3       $C$L98:    
    5395                      .dwpsn  file "C:/ti/controlSUITE/device_support/F2837xS/v170/F2837xS_common/source/F2837xS_DefaultISR
    5396 000003d3 6F00          B         $C$L98,UNC            ; [CPU_] |1409| 
    5397                      ; branch occurs ; [] |1409| 
    5398                      .dwattr $C$DW$98, DW_AT_TI_end_file("C:/ti/controlSUITE/device_support/F2837xS/v170/F2837xS_common/so
    5399                      .dwattr $C$DW$98, DW_AT_TI_end_line(0x582)
    5400                      .dwattr $C$DW$98, DW_AT_TI_end_column(0x01)
    5401                      .dwendentry
    5402                      .dwendtag $C$DW$98
    5403              
    5404 000003d4               .sect   ".text:retain"
    5405                      .retain
    5406                      .retainrefs
    5407                      .global _XINT3_ISR
    5408              
    5409              $C$DW$99        .dwtag  DW_TAG_subprogram, DW_AT_name("XINT3_ISR")
    5410                      .dwattr $C$DW$99, DW_AT_low_pc(_XINT3_ISR)
    5411                      .dwattr $C$DW$99, DW_AT_high_pc(0x00)
    5412                      .dwattr $C$DW$99, DW_AT_TI_symbol_name("_XINT3_ISR")
    5413                      .dwattr $C$DW$99, DW_AT_external
    5414                      .dwattr $C$DW$99, DW_AT_TI_begin_file("C:/ti/controlSUITE/device_support/F2837xS/v170/F2837xS_common/
TMS320C2000 Assembler PC v6.4.2 Thu Dec 14 15:26:09 2017

Tools Copyright (c) 1996-2015 Texas Instruments Incorporated
F2837xS_DefaultISR.asm                                               PAGE  103

    5415                      .dwattr $C$DW$99, DW_AT_TI_begin_line(0x585)
    5416                      .dwattr $C$DW$99, DW_AT_TI_begin_column(0x10)
    5417                      .dwattr $C$DW$99, DW_AT_TI_interrupt
    5418                      .dwattr $C$DW$99, DW_AT_TI_max_frame_size(-6)
    5419                      .dwpsn  file "C:/ti/controlSUITE/device_support/F2837xS/v170/F2837xS_common/source/F2837xS_DefaultISR
    5420              
    5421                      .dwfde $C$DW$CIE, _XINT3_ISR
    5422              
    5423              ;***************************************************************
    5424              ;* FNAME: _XINT3_ISR                    FR SIZE:   4           *
    5425              ;*                                                             *
    5426              ;* FUNCTION ENVIRONMENT                                        *
    5427              ;*                                                             *
    5428              ;* FUNCTION PROPERTIES                                         *
    5429              ;*                            0 Parameter,  0 Auto,  4 SOE     *
    5430              ;***************************************************************
    5431              
    5432 000003d4       _XINT3_ISR:
    5433                      .dwcfi  cfa_offset, -2
    5434                      .dwcfi  save_reg_to_mem, 26, 0
    5435 000003d4 761B          ASP       ; [CPU_] 
    5436 000003d5 FFF0          PUSH      RB                    ; [CPU_] 
    5437                      .dwcfi  save_reg_to_mem, 73, 2
    5438                      .dwcfi  save_reg_to_mem, 74, 3
    5439                      .dwcfi  cfa_offset, -4
    5440 000003d6 E200          MOV32     *SP++,STF             ; [CPU_] 
         000003d7 00BD 
    5441                      .dwcfi  save_reg_to_mem, 39, 4
    5442                      .dwcfi  save_reg_to_mem, 40, 5
    5443                      .dwcfi  cfa_offset, -6
    5444 000003d8 E630          SETFLG    RNDF32=1, RNDF64=1    ; [CPU_] 
         000003d9 0600 
    5445 000003da 2942          CLRC      PAGE0,OVM             ; [CPU_] 
    5446 000003db 5616          CLRC      AMODE                 ; [CPU_] 
    5447                      .dwpsn  file "C:/ti/controlSUITE/device_support/F2837xS/v170/F2837xS_common/source/F2837xS_DefaultISR
    5448 000003dc 7625        ESTOP0
    5449 000003dd       $C$L99:    
    5450                      .dwpsn  file "C:/ti/controlSUITE/device_support/F2837xS/v170/F2837xS_common/source/F2837xS_DefaultISR
    5451 000003dd 6F00          B         $C$L99,UNC            ; [CPU_] |1424| 
    5452                      ; branch occurs ; [] |1424| 
    5453                      .dwattr $C$DW$99, DW_AT_TI_end_file("C:/ti/controlSUITE/device_support/F2837xS/v170/F2837xS_common/so
    5454                      .dwattr $C$DW$99, DW_AT_TI_end_line(0x591)
    5455                      .dwattr $C$DW$99, DW_AT_TI_end_column(0x01)
    5456                      .dwendentry
    5457                      .dwendtag $C$DW$99
    5458              
    5459 000003de               .sect   ".text:retain"
    5460                      .retain
    5461                      .retainrefs
    5462                      .global _XINT4_ISR
    5463              
    5464              $C$DW$100       .dwtag  DW_TAG_subprogram, DW_AT_name("XINT4_ISR")
    5465                      .dwattr $C$DW$100, DW_AT_low_pc(_XINT4_ISR)
    5466                      .dwattr $C$DW$100, DW_AT_high_pc(0x00)
    5467                      .dwattr $C$DW$100, DW_AT_TI_symbol_name("_XINT4_ISR")
TMS320C2000 Assembler PC v6.4.2 Thu Dec 14 15:26:09 2017

Tools Copyright (c) 1996-2015 Texas Instruments Incorporated
F2837xS_DefaultISR.asm                                               PAGE  104

    5468                      .dwattr $C$DW$100, DW_AT_external
    5469                      .dwattr $C$DW$100, DW_AT_TI_begin_file("C:/ti/controlSUITE/device_support/F2837xS/v170/F2837xS_common
    5470                      .dwattr $C$DW$100, DW_AT_TI_begin_line(0x594)
    5471                      .dwattr $C$DW$100, DW_AT_TI_begin_column(0x10)
    5472                      .dwattr $C$DW$100, DW_AT_TI_interrupt
    5473                      .dwattr $C$DW$100, DW_AT_TI_max_frame_size(-6)
    5474                      .dwpsn  file "C:/ti/controlSUITE/device_support/F2837xS/v170/F2837xS_common/source/F2837xS_DefaultISR
    5475              
    5476                      .dwfde $C$DW$CIE, _XINT4_ISR
    5477              
    5478              ;***************************************************************
    5479              ;* FNAME: _XINT4_ISR                    FR SIZE:   4           *
    5480              ;*                                                             *
    5481              ;* FUNCTION ENVIRONMENT                                        *
    5482              ;*                                                             *
    5483              ;* FUNCTION PROPERTIES                                         *
    5484              ;*                            0 Parameter,  0 Auto,  4 SOE     *
    5485              ;***************************************************************
    5486              
    5487 000003de       _XINT4_ISR:
    5488                      .dwcfi  cfa_offset, -2
    5489                      .dwcfi  save_reg_to_mem, 26, 0
    5490 000003de 761B          ASP       ; [CPU_] 
    5491 000003df FFF0          PUSH      RB                    ; [CPU_] 
    5492                      .dwcfi  save_reg_to_mem, 73, 2
    5493                      .dwcfi  save_reg_to_mem, 74, 3
    5494                      .dwcfi  cfa_offset, -4
    5495 000003e0 E200          MOV32     *SP++,STF             ; [CPU_] 
         000003e1 00BD 
    5496                      .dwcfi  save_reg_to_mem, 39, 4
    5497                      .dwcfi  save_reg_to_mem, 40, 5
    5498                      .dwcfi  cfa_offset, -6
    5499 000003e2 E630          SETFLG    RNDF32=1, RNDF64=1    ; [CPU_] 
         000003e3 0600 
    5500 000003e4 2942          CLRC      PAGE0,OVM             ; [CPU_] 
    5501 000003e5 5616          CLRC      AMODE                 ; [CPU_] 
    5502                      .dwpsn  file "C:/ti/controlSUITE/device_support/F2837xS/v170/F2837xS_common/source/F2837xS_DefaultISR
    5503 000003e6 7625        ESTOP0
    5504 000003e7       $C$L100:    
    5505                      .dwpsn  file "C:/ti/controlSUITE/device_support/F2837xS/v170/F2837xS_common/source/F2837xS_DefaultISR
    5506 000003e7 6F00          B         $C$L100,UNC           ; [CPU_] |1439| 
    5507                      ; branch occurs ; [] |1439| 
    5508                      .dwattr $C$DW$100, DW_AT_TI_end_file("C:/ti/controlSUITE/device_support/F2837xS/v170/F2837xS_common/s
    5509                      .dwattr $C$DW$100, DW_AT_TI_end_line(0x5a0)
    5510                      .dwattr $C$DW$100, DW_AT_TI_end_column(0x01)
    5511                      .dwendentry
    5512                      .dwendtag $C$DW$100
    5513              
    5514 000003e8               .sect   ".text:retain"
    5515                      .retain
    5516                      .retainrefs
    5517                      .global _XINT5_ISR
    5518              
    5519              $C$DW$101       .dwtag  DW_TAG_subprogram, DW_AT_name("XINT5_ISR")
    5520                      .dwattr $C$DW$101, DW_AT_low_pc(_XINT5_ISR)
TMS320C2000 Assembler PC v6.4.2 Thu Dec 14 15:26:09 2017

Tools Copyright (c) 1996-2015 Texas Instruments Incorporated
F2837xS_DefaultISR.asm                                               PAGE  105

    5521                      .dwattr $C$DW$101, DW_AT_high_pc(0x00)
    5522                      .dwattr $C$DW$101, DW_AT_TI_symbol_name("_XINT5_ISR")
    5523                      .dwattr $C$DW$101, DW_AT_external
    5524                      .dwattr $C$DW$101, DW_AT_TI_begin_file("C:/ti/controlSUITE/device_support/F2837xS/v170/F2837xS_common
    5525                      .dwattr $C$DW$101, DW_AT_TI_begin_line(0x5a3)
    5526                      .dwattr $C$DW$101, DW_AT_TI_begin_column(0x10)
    5527                      .dwattr $C$DW$101, DW_AT_TI_interrupt
    5528                      .dwattr $C$DW$101, DW_AT_TI_max_frame_size(-6)
    5529                      .dwpsn  file "C:/ti/controlSUITE/device_support/F2837xS/v170/F2837xS_common/source/F2837xS_DefaultISR
    5530              
    5531                      .dwfde $C$DW$CIE, _XINT5_ISR
    5532              
    5533              ;***************************************************************
    5534              ;* FNAME: _XINT5_ISR                    FR SIZE:   4           *
    5535              ;*                                                             *
    5536              ;* FUNCTION ENVIRONMENT                                        *
    5537              ;*                                                             *
    5538              ;* FUNCTION PROPERTIES                                         *
    5539              ;*                            0 Parameter,  0 Auto,  4 SOE     *
    5540              ;***************************************************************
    5541              
    5542 000003e8       _XINT5_ISR:
    5543                      .dwcfi  cfa_offset, -2
    5544                      .dwcfi  save_reg_to_mem, 26, 0
    5545 000003e8 761B          ASP       ; [CPU_] 
    5546 000003e9 FFF0          PUSH      RB                    ; [CPU_] 
    5547                      .dwcfi  save_reg_to_mem, 73, 2
    5548                      .dwcfi  save_reg_to_mem, 74, 3
    5549                      .dwcfi  cfa_offset, -4
    5550 000003ea E200          MOV32     *SP++,STF             ; [CPU_] 
         000003eb 00BD 
    5551                      .dwcfi  save_reg_to_mem, 39, 4
    5552                      .dwcfi  save_reg_to_mem, 40, 5
    5553                      .dwcfi  cfa_offset, -6
    5554 000003ec E630          SETFLG    RNDF32=1, RNDF64=1    ; [CPU_] 
         000003ed 0600 
    5555 000003ee 2942          CLRC      PAGE0,OVM             ; [CPU_] 
    5556 000003ef 5616          CLRC      AMODE                 ; [CPU_] 
    5557                      .dwpsn  file "C:/ti/controlSUITE/device_support/F2837xS/v170/F2837xS_common/source/F2837xS_DefaultISR
    5558 000003f0 7625        ESTOP0
    5559 000003f1       $C$L101:    
    5560                      .dwpsn  file "C:/ti/controlSUITE/device_support/F2837xS/v170/F2837xS_common/source/F2837xS_DefaultISR
    5561 000003f1 6F00          B         $C$L101,UNC           ; [CPU_] |1454| 
    5562                      ; branch occurs ; [] |1454| 
    5563                      .dwattr $C$DW$101, DW_AT_TI_end_file("C:/ti/controlSUITE/device_support/F2837xS/v170/F2837xS_common/s
    5564                      .dwattr $C$DW$101, DW_AT_TI_end_line(0x5af)
    5565                      .dwattr $C$DW$101, DW_AT_TI_end_column(0x01)
    5566                      .dwendentry
    5567                      .dwendtag $C$DW$101
    5568              
    5569 000003f2               .sect   ".text:retain"
    5570                      .retain
    5571                      .retainrefs
    5572                      .global _VCU_ISR
    5573              
TMS320C2000 Assembler PC v6.4.2 Thu Dec 14 15:26:09 2017

Tools Copyright (c) 1996-2015 Texas Instruments Incorporated
F2837xS_DefaultISR.asm                                               PAGE  106

    5574              $C$DW$102       .dwtag  DW_TAG_subprogram, DW_AT_name("VCU_ISR")
    5575                      .dwattr $C$DW$102, DW_AT_low_pc(_VCU_ISR)
    5576                      .dwattr $C$DW$102, DW_AT_high_pc(0x00)
    5577                      .dwattr $C$DW$102, DW_AT_TI_symbol_name("_VCU_ISR")
    5578                      .dwattr $C$DW$102, DW_AT_external
    5579                      .dwattr $C$DW$102, DW_AT_TI_begin_file("C:/ti/controlSUITE/device_support/F2837xS/v170/F2837xS_common
    5580                      .dwattr $C$DW$102, DW_AT_TI_begin_line(0x5b2)
    5581                      .dwattr $C$DW$102, DW_AT_TI_begin_column(0x10)
    5582                      .dwattr $C$DW$102, DW_AT_TI_interrupt
    5583                      .dwattr $C$DW$102, DW_AT_TI_max_frame_size(-6)
    5584                      .dwpsn  file "C:/ti/controlSUITE/device_support/F2837xS/v170/F2837xS_common/source/F2837xS_DefaultISR
    5585              
    5586                      .dwfde $C$DW$CIE, _VCU_ISR
    5587              
    5588              ;***************************************************************
    5589              ;* FNAME: _VCU_ISR                      FR SIZE:   4           *
    5590              ;*                                                             *
    5591              ;* FUNCTION ENVIRONMENT                                        *
    5592              ;*                                                             *
    5593              ;* FUNCTION PROPERTIES                                         *
    5594              ;*                            0 Parameter,  0 Auto,  4 SOE     *
    5595              ;***************************************************************
    5596              
    5597 000003f2       _VCU_ISR:
    5598                      .dwcfi  cfa_offset, -2
    5599                      .dwcfi  save_reg_to_mem, 26, 0
    5600 000003f2 761B          ASP       ; [CPU_] 
    5601 000003f3 FFF0          PUSH      RB                    ; [CPU_] 
    5602                      .dwcfi  save_reg_to_mem, 73, 2
    5603                      .dwcfi  save_reg_to_mem, 74, 3
    5604                      .dwcfi  cfa_offset, -4
    5605 000003f4 E200          MOV32     *SP++,STF             ; [CPU_] 
         000003f5 00BD 
    5606                      .dwcfi  save_reg_to_mem, 39, 4
    5607                      .dwcfi  save_reg_to_mem, 40, 5
    5608                      .dwcfi  cfa_offset, -6
    5609 000003f6 E630          SETFLG    RNDF32=1, RNDF64=1    ; [CPU_] 
         000003f7 0600 
    5610 000003f8 2942          CLRC      PAGE0,OVM             ; [CPU_] 
    5611 000003f9 5616          CLRC      AMODE                 ; [CPU_] 
    5612                      .dwpsn  file "C:/ti/controlSUITE/device_support/F2837xS/v170/F2837xS_common/source/F2837xS_DefaultISR
    5613 000003fa 7625        ESTOP0
    5614 000003fb       $C$L102:    
    5615                      .dwpsn  file "C:/ti/controlSUITE/device_support/F2837xS/v170/F2837xS_common/source/F2837xS_DefaultISR
    5616 000003fb 6F00          B         $C$L102,UNC           ; [CPU_] |1469| 
    5617                      ; branch occurs ; [] |1469| 
    5618                      .dwattr $C$DW$102, DW_AT_TI_end_file("C:/ti/controlSUITE/device_support/F2837xS/v170/F2837xS_common/s
    5619                      .dwattr $C$DW$102, DW_AT_TI_end_line(0x5be)
    5620                      .dwattr $C$DW$102, DW_AT_TI_end_column(0x01)
    5621                      .dwendentry
    5622                      .dwendtag $C$DW$102
    5623              
    5624 000003fc               .sect   ".text:retain"
    5625                      .retain
    5626                      .retainrefs
TMS320C2000 Assembler PC v6.4.2 Thu Dec 14 15:26:09 2017

Tools Copyright (c) 1996-2015 Texas Instruments Incorporated
F2837xS_DefaultISR.asm                                               PAGE  107

    5627                      .global _FPU_OVERFLOW_ISR
    5628              
    5629              $C$DW$103       .dwtag  DW_TAG_subprogram, DW_AT_name("FPU_OVERFLOW_ISR")
    5630                      .dwattr $C$DW$103, DW_AT_low_pc(_FPU_OVERFLOW_ISR)
    5631                      .dwattr $C$DW$103, DW_AT_high_pc(0x00)
    5632                      .dwattr $C$DW$103, DW_AT_TI_symbol_name("_FPU_OVERFLOW_ISR")
    5633                      .dwattr $C$DW$103, DW_AT_external
    5634                      .dwattr $C$DW$103, DW_AT_TI_begin_file("C:/ti/controlSUITE/device_support/F2837xS/v170/F2837xS_common
    5635                      .dwattr $C$DW$103, DW_AT_TI_begin_line(0x5c1)
    5636                      .dwattr $C$DW$103, DW_AT_TI_begin_column(0x10)
    5637                      .dwattr $C$DW$103, DW_AT_TI_interrupt
    5638                      .dwattr $C$DW$103, DW_AT_TI_max_frame_size(-6)
    5639                      .dwpsn  file "C:/ti/controlSUITE/device_support/F2837xS/v170/F2837xS_common/source/F2837xS_DefaultISR
    5640              
    5641                      .dwfde $C$DW$CIE, _FPU_OVERFLOW_ISR
    5642              
    5643              ;***************************************************************
    5644              ;* FNAME: _FPU_OVERFLOW_ISR             FR SIZE:   4           *
    5645              ;*                                                             *
    5646              ;* FUNCTION ENVIRONMENT                                        *
    5647              ;*                                                             *
    5648              ;* FUNCTION PROPERTIES                                         *
    5649              ;*                            0 Parameter,  0 Auto,  4 SOE     *
    5650              ;***************************************************************
    5651              
    5652 000003fc       _FPU_OVERFLOW_ISR:
    5653                      .dwcfi  cfa_offset, -2
    5654                      .dwcfi  save_reg_to_mem, 26, 0
    5655 000003fc 761B          ASP       ; [CPU_] 
    5656 000003fd FFF0          PUSH      RB                    ; [CPU_] 
    5657                      .dwcfi  save_reg_to_mem, 73, 2
    5658                      .dwcfi  save_reg_to_mem, 74, 3
    5659                      .dwcfi  cfa_offset, -4
    5660 000003fe E200          MOV32     *SP++,STF             ; [CPU_] 
         000003ff 00BD 
    5661                      .dwcfi  save_reg_to_mem, 39, 4
    5662                      .dwcfi  save_reg_to_mem, 40, 5
    5663                      .dwcfi  cfa_offset, -6
    5664 00000400 E630          SETFLG    RNDF32=1, RNDF64=1    ; [CPU_] 
         00000401 0600 
    5665 00000402 2942          CLRC      PAGE0,OVM             ; [CPU_] 
    5666 00000403 5616          CLRC      AMODE                 ; [CPU_] 
    5667                      .dwpsn  file "C:/ti/controlSUITE/device_support/F2837xS/v170/F2837xS_common/source/F2837xS_DefaultISR
    5668 00000404 7625        ESTOP0
    5669 00000405       $C$L103:    
    5670                      .dwpsn  file "C:/ti/controlSUITE/device_support/F2837xS/v170/F2837xS_common/source/F2837xS_DefaultISR
    5671 00000405 6F00          B         $C$L103,UNC           ; [CPU_] |1484| 
    5672                      ; branch occurs ; [] |1484| 
    5673                      .dwattr $C$DW$103, DW_AT_TI_end_file("C:/ti/controlSUITE/device_support/F2837xS/v170/F2837xS_common/s
    5674                      .dwattr $C$DW$103, DW_AT_TI_end_line(0x5cd)
    5675                      .dwattr $C$DW$103, DW_AT_TI_end_column(0x01)
    5676                      .dwendentry
    5677                      .dwendtag $C$DW$103
    5678              
    5679 00000406               .sect   ".text:retain"
TMS320C2000 Assembler PC v6.4.2 Thu Dec 14 15:26:09 2017

Tools Copyright (c) 1996-2015 Texas Instruments Incorporated
F2837xS_DefaultISR.asm                                               PAGE  108

    5680                      .retain
    5681                      .retainrefs
    5682                      .global _FPU_UNDERFLOW_ISR
    5683              
    5684              $C$DW$104       .dwtag  DW_TAG_subprogram, DW_AT_name("FPU_UNDERFLOW_ISR")
    5685                      .dwattr $C$DW$104, DW_AT_low_pc(_FPU_UNDERFLOW_ISR)
    5686                      .dwattr $C$DW$104, DW_AT_high_pc(0x00)
    5687                      .dwattr $C$DW$104, DW_AT_TI_symbol_name("_FPU_UNDERFLOW_ISR")
    5688                      .dwattr $C$DW$104, DW_AT_external
    5689                      .dwattr $C$DW$104, DW_AT_TI_begin_file("C:/ti/controlSUITE/device_support/F2837xS/v170/F2837xS_common
    5690                      .dwattr $C$DW$104, DW_AT_TI_begin_line(0x5d0)
    5691                      .dwattr $C$DW$104, DW_AT_TI_begin_column(0x10)
    5692                      .dwattr $C$DW$104, DW_AT_TI_interrupt
    5693                      .dwattr $C$DW$104, DW_AT_TI_max_frame_size(-6)
    5694                      .dwpsn  file "C:/ti/controlSUITE/device_support/F2837xS/v170/F2837xS_common/source/F2837xS_DefaultISR
    5695              
    5696                      .dwfde $C$DW$CIE, _FPU_UNDERFLOW_ISR
    5697              
    5698              ;***************************************************************
    5699              ;* FNAME: _FPU_UNDERFLOW_ISR            FR SIZE:   4           *
    5700              ;*                                                             *
    5701              ;* FUNCTION ENVIRONMENT                                        *
    5702              ;*                                                             *
    5703              ;* FUNCTION PROPERTIES                                         *
    5704              ;*                            0 Parameter,  0 Auto,  4 SOE     *
    5705              ;***************************************************************
    5706              
    5707 00000406       _FPU_UNDERFLOW_ISR:
    5708                      .dwcfi  cfa_offset, -2
    5709                      .dwcfi  save_reg_to_mem, 26, 0
    5710 00000406 761B          ASP       ; [CPU_] 
    5711 00000407 FFF0          PUSH      RB                    ; [CPU_] 
    5712                      .dwcfi  save_reg_to_mem, 73, 2
    5713                      .dwcfi  save_reg_to_mem, 74, 3
    5714                      .dwcfi  cfa_offset, -4
    5715 00000408 E200          MOV32     *SP++,STF             ; [CPU_] 
         00000409 00BD 
    5716                      .dwcfi  save_reg_to_mem, 39, 4
    5717                      .dwcfi  save_reg_to_mem, 40, 5
    5718                      .dwcfi  cfa_offset, -6
    5719 0000040a E630          SETFLG    RNDF32=1, RNDF64=1    ; [CPU_] 
         0000040b 0600 
    5720 0000040c 2942          CLRC      PAGE0,OVM             ; [CPU_] 
    5721 0000040d 5616          CLRC      AMODE                 ; [CPU_] 
    5722                      .dwpsn  file "C:/ti/controlSUITE/device_support/F2837xS/v170/F2837xS_common/source/F2837xS_DefaultISR
    5723 0000040e 7625        ESTOP0
    5724 0000040f       $C$L104:    
    5725                      .dwpsn  file "C:/ti/controlSUITE/device_support/F2837xS/v170/F2837xS_common/source/F2837xS_DefaultISR
    5726 0000040f 6F00          B         $C$L104,UNC           ; [CPU_] |1499| 
    5727                      ; branch occurs ; [] |1499| 
    5728                      .dwattr $C$DW$104, DW_AT_TI_end_file("C:/ti/controlSUITE/device_support/F2837xS/v170/F2837xS_common/s
    5729                      .dwattr $C$DW$104, DW_AT_TI_end_line(0x5dc)
    5730                      .dwattr $C$DW$104, DW_AT_TI_end_column(0x01)
    5731                      .dwendentry
    5732                      .dwendtag $C$DW$104
TMS320C2000 Assembler PC v6.4.2 Thu Dec 14 15:26:09 2017

Tools Copyright (c) 1996-2015 Texas Instruments Incorporated
F2837xS_DefaultISR.asm                                               PAGE  109

    5733              
    5734 00000410               .sect   ".text:retain"
    5735                      .retain
    5736                      .retainrefs
    5737                      .global _IPC0_ISR
    5738              
    5739              $C$DW$105       .dwtag  DW_TAG_subprogram, DW_AT_name("IPC0_ISR")
    5740                      .dwattr $C$DW$105, DW_AT_low_pc(_IPC0_ISR)
    5741                      .dwattr $C$DW$105, DW_AT_high_pc(0x00)
    5742                      .dwattr $C$DW$105, DW_AT_TI_symbol_name("_IPC0_ISR")
    5743                      .dwattr $C$DW$105, DW_AT_external
    5744                      .dwattr $C$DW$105, DW_AT_TI_begin_file("C:/ti/controlSUITE/device_support/F2837xS/v170/F2837xS_common
    5745                      .dwattr $C$DW$105, DW_AT_TI_begin_line(0x5df)
    5746                      .dwattr $C$DW$105, DW_AT_TI_begin_column(0x10)
    5747                      .dwattr $C$DW$105, DW_AT_TI_interrupt
    5748                      .dwattr $C$DW$105, DW_AT_TI_max_frame_size(-6)
    5749                      .dwpsn  file "C:/ti/controlSUITE/device_support/F2837xS/v170/F2837xS_common/source/F2837xS_DefaultISR
    5750              
    5751                      .dwfde $C$DW$CIE, _IPC0_ISR
    5752              
    5753              ;***************************************************************
    5754              ;* FNAME: _IPC0_ISR                     FR SIZE:   4           *
    5755              ;*                                                             *
    5756              ;* FUNCTION ENVIRONMENT                                        *
    5757              ;*                                                             *
    5758              ;* FUNCTION PROPERTIES                                         *
    5759              ;*                            0 Parameter,  0 Auto,  4 SOE     *
    5760              ;***************************************************************
    5761              
    5762 00000410       _IPC0_ISR:
    5763                      .dwcfi  cfa_offset, -2
    5764                      .dwcfi  save_reg_to_mem, 26, 0
    5765 00000410 761B          ASP       ; [CPU_] 
    5766 00000411 FFF0          PUSH      RB                    ; [CPU_] 
    5767                      .dwcfi  save_reg_to_mem, 73, 2
    5768                      .dwcfi  save_reg_to_mem, 74, 3
    5769                      .dwcfi  cfa_offset, -4
    5770 00000412 E200          MOV32     *SP++,STF             ; [CPU_] 
         00000413 00BD 
    5771                      .dwcfi  save_reg_to_mem, 39, 4
    5772                      .dwcfi  save_reg_to_mem, 40, 5
    5773                      .dwcfi  cfa_offset, -6
    5774 00000414 E630          SETFLG    RNDF32=1, RNDF64=1    ; [CPU_] 
         00000415 0600 
    5775 00000416 2942          CLRC      PAGE0,OVM             ; [CPU_] 
    5776 00000417 5616          CLRC      AMODE                 ; [CPU_] 
    5777                      .dwpsn  file "C:/ti/controlSUITE/device_support/F2837xS/v170/F2837xS_common/source/F2837xS_DefaultISR
    5778 00000418 7625        ESTOP0
    5779 00000419       $C$L105:    
    5780                      .dwpsn  file "C:/ti/controlSUITE/device_support/F2837xS/v170/F2837xS_common/source/F2837xS_DefaultISR
    5781 00000419 6F00          B         $C$L105,UNC           ; [CPU_] |1514| 
    5782                      ; branch occurs ; [] |1514| 
    5783                      .dwattr $C$DW$105, DW_AT_TI_end_file("C:/ti/controlSUITE/device_support/F2837xS/v170/F2837xS_common/s
    5784                      .dwattr $C$DW$105, DW_AT_TI_end_line(0x5eb)
    5785                      .dwattr $C$DW$105, DW_AT_TI_end_column(0x01)
TMS320C2000 Assembler PC v6.4.2 Thu Dec 14 15:26:09 2017

Tools Copyright (c) 1996-2015 Texas Instruments Incorporated
F2837xS_DefaultISR.asm                                               PAGE  110

    5786                      .dwendentry
    5787                      .dwendtag $C$DW$105
    5788              
    5789 0000041a               .sect   ".text:retain"
    5790                      .retain
    5791                      .retainrefs
    5792                      .global _IPC1_ISR
    5793              
    5794              $C$DW$106       .dwtag  DW_TAG_subprogram, DW_AT_name("IPC1_ISR")
    5795                      .dwattr $C$DW$106, DW_AT_low_pc(_IPC1_ISR)
    5796                      .dwattr $C$DW$106, DW_AT_high_pc(0x00)
    5797                      .dwattr $C$DW$106, DW_AT_TI_symbol_name("_IPC1_ISR")
    5798                      .dwattr $C$DW$106, DW_AT_external
    5799                      .dwattr $C$DW$106, DW_AT_TI_begin_file("C:/ti/controlSUITE/device_support/F2837xS/v170/F2837xS_common
    5800                      .dwattr $C$DW$106, DW_AT_TI_begin_line(0x5ee)
    5801                      .dwattr $C$DW$106, DW_AT_TI_begin_column(0x10)
    5802                      .dwattr $C$DW$106, DW_AT_TI_interrupt
    5803                      .dwattr $C$DW$106, DW_AT_TI_max_frame_size(-6)
    5804                      .dwpsn  file "C:/ti/controlSUITE/device_support/F2837xS/v170/F2837xS_common/source/F2837xS_DefaultISR
    5805              
    5806                      .dwfde $C$DW$CIE, _IPC1_ISR
    5807              
    5808              ;***************************************************************
    5809              ;* FNAME: _IPC1_ISR                     FR SIZE:   4           *
    5810              ;*                                                             *
    5811              ;* FUNCTION ENVIRONMENT                                        *
    5812              ;*                                                             *
    5813              ;* FUNCTION PROPERTIES                                         *
    5814              ;*                            0 Parameter,  0 Auto,  4 SOE     *
    5815              ;***************************************************************
    5816              
    5817 0000041a       _IPC1_ISR:
    5818                      .dwcfi  cfa_offset, -2
    5819                      .dwcfi  save_reg_to_mem, 26, 0
    5820 0000041a 761B          ASP       ; [CPU_] 
    5821 0000041b FFF0          PUSH      RB                    ; [CPU_] 
    5822                      .dwcfi  save_reg_to_mem, 73, 2
    5823                      .dwcfi  save_reg_to_mem, 74, 3
    5824                      .dwcfi  cfa_offset, -4
    5825 0000041c E200          MOV32     *SP++,STF             ; [CPU_] 
         0000041d 00BD 
    5826                      .dwcfi  save_reg_to_mem, 39, 4
    5827                      .dwcfi  save_reg_to_mem, 40, 5
    5828                      .dwcfi  cfa_offset, -6
    5829 0000041e E630          SETFLG    RNDF32=1, RNDF64=1    ; [CPU_] 
         0000041f 0600 
    5830 00000420 2942          CLRC      PAGE0,OVM             ; [CPU_] 
    5831 00000421 5616          CLRC      AMODE                 ; [CPU_] 
    5832                      .dwpsn  file "C:/ti/controlSUITE/device_support/F2837xS/v170/F2837xS_common/source/F2837xS_DefaultISR
    5833 00000422 7625        ESTOP0
    5834 00000423       $C$L106:    
    5835                      .dwpsn  file "C:/ti/controlSUITE/device_support/F2837xS/v170/F2837xS_common/source/F2837xS_DefaultISR
    5836 00000423 6F00          B         $C$L106,UNC           ; [CPU_] |1529| 
    5837                      ; branch occurs ; [] |1529| 
    5838                      .dwattr $C$DW$106, DW_AT_TI_end_file("C:/ti/controlSUITE/device_support/F2837xS/v170/F2837xS_common/s
TMS320C2000 Assembler PC v6.4.2 Thu Dec 14 15:26:09 2017

Tools Copyright (c) 1996-2015 Texas Instruments Incorporated
F2837xS_DefaultISR.asm                                               PAGE  111

    5839                      .dwattr $C$DW$106, DW_AT_TI_end_line(0x5fa)
    5840                      .dwattr $C$DW$106, DW_AT_TI_end_column(0x01)
    5841                      .dwendentry
    5842                      .dwendtag $C$DW$106
    5843              
    5844 00000424               .sect   ".text:retain"
    5845                      .retain
    5846                      .retainrefs
    5847                      .global _IPC2_ISR
    5848              
    5849              $C$DW$107       .dwtag  DW_TAG_subprogram, DW_AT_name("IPC2_ISR")
    5850                      .dwattr $C$DW$107, DW_AT_low_pc(_IPC2_ISR)
    5851                      .dwattr $C$DW$107, DW_AT_high_pc(0x00)
    5852                      .dwattr $C$DW$107, DW_AT_TI_symbol_name("_IPC2_ISR")
    5853                      .dwattr $C$DW$107, DW_AT_external
    5854                      .dwattr $C$DW$107, DW_AT_TI_begin_file("C:/ti/controlSUITE/device_support/F2837xS/v170/F2837xS_common
    5855                      .dwattr $C$DW$107, DW_AT_TI_begin_line(0x5fd)
    5856                      .dwattr $C$DW$107, DW_AT_TI_begin_column(0x10)
    5857                      .dwattr $C$DW$107, DW_AT_TI_interrupt
    5858                      .dwattr $C$DW$107, DW_AT_TI_max_frame_size(-6)
    5859                      .dwpsn  file "C:/ti/controlSUITE/device_support/F2837xS/v170/F2837xS_common/source/F2837xS_DefaultISR
    5860              
    5861                      .dwfde $C$DW$CIE, _IPC2_ISR
    5862              
    5863              ;***************************************************************
    5864              ;* FNAME: _IPC2_ISR                     FR SIZE:   4           *
    5865              ;*                                                             *
    5866              ;* FUNCTION ENVIRONMENT                                        *
    5867              ;*                                                             *
    5868              ;* FUNCTION PROPERTIES                                         *
    5869              ;*                            0 Parameter,  0 Auto,  4 SOE     *
    5870              ;***************************************************************
    5871              
    5872 00000424       _IPC2_ISR:
    5873                      .dwcfi  cfa_offset, -2
    5874                      .dwcfi  save_reg_to_mem, 26, 0
    5875 00000424 761B          ASP       ; [CPU_] 
    5876 00000425 FFF0          PUSH      RB                    ; [CPU_] 
    5877                      .dwcfi  save_reg_to_mem, 73, 2
    5878                      .dwcfi  save_reg_to_mem, 74, 3
    5879                      .dwcfi  cfa_offset, -4
    5880 00000426 E200          MOV32     *SP++,STF             ; [CPU_] 
         00000427 00BD 
    5881                      .dwcfi  save_reg_to_mem, 39, 4
    5882                      .dwcfi  save_reg_to_mem, 40, 5
    5883                      .dwcfi  cfa_offset, -6
    5884 00000428 E630          SETFLG    RNDF32=1, RNDF64=1    ; [CPU_] 
         00000429 0600 
    5885 0000042a 2942          CLRC      PAGE0,OVM             ; [CPU_] 
    5886 0000042b 5616          CLRC      AMODE                 ; [CPU_] 
    5887                      .dwpsn  file "C:/ti/controlSUITE/device_support/F2837xS/v170/F2837xS_common/source/F2837xS_DefaultISR
    5888 0000042c 7625        ESTOP0
    5889 0000042d       $C$L107:    
    5890                      .dwpsn  file "C:/ti/controlSUITE/device_support/F2837xS/v170/F2837xS_common/source/F2837xS_DefaultISR
    5891 0000042d 6F00          B         $C$L107,UNC           ; [CPU_] |1544| 
TMS320C2000 Assembler PC v6.4.2 Thu Dec 14 15:26:09 2017

Tools Copyright (c) 1996-2015 Texas Instruments Incorporated
F2837xS_DefaultISR.asm                                               PAGE  112

    5892                      ; branch occurs ; [] |1544| 
    5893                      .dwattr $C$DW$107, DW_AT_TI_end_file("C:/ti/controlSUITE/device_support/F2837xS/v170/F2837xS_common/s
    5894                      .dwattr $C$DW$107, DW_AT_TI_end_line(0x609)
    5895                      .dwattr $C$DW$107, DW_AT_TI_end_column(0x01)
    5896                      .dwendentry
    5897                      .dwendtag $C$DW$107
    5898              
    5899 0000042e               .sect   ".text:retain"
    5900                      .retain
    5901                      .retainrefs
    5902                      .global _IPC3_ISR
    5903              
    5904              $C$DW$108       .dwtag  DW_TAG_subprogram, DW_AT_name("IPC3_ISR")
    5905                      .dwattr $C$DW$108, DW_AT_low_pc(_IPC3_ISR)
    5906                      .dwattr $C$DW$108, DW_AT_high_pc(0x00)
    5907                      .dwattr $C$DW$108, DW_AT_TI_symbol_name("_IPC3_ISR")
    5908                      .dwattr $C$DW$108, DW_AT_external
    5909                      .dwattr $C$DW$108, DW_AT_TI_begin_file("C:/ti/controlSUITE/device_support/F2837xS/v170/F2837xS_common
    5910                      .dwattr $C$DW$108, DW_AT_TI_begin_line(0x60c)
    5911                      .dwattr $C$DW$108, DW_AT_TI_begin_column(0x10)
    5912                      .dwattr $C$DW$108, DW_AT_TI_interrupt
    5913                      .dwattr $C$DW$108, DW_AT_TI_max_frame_size(-6)
    5914                      .dwpsn  file "C:/ti/controlSUITE/device_support/F2837xS/v170/F2837xS_common/source/F2837xS_DefaultISR
    5915              
    5916                      .dwfde $C$DW$CIE, _IPC3_ISR
    5917              
    5918              ;***************************************************************
    5919              ;* FNAME: _IPC3_ISR                     FR SIZE:   4           *
    5920              ;*                                                             *
    5921              ;* FUNCTION ENVIRONMENT                                        *
    5922              ;*                                                             *
    5923              ;* FUNCTION PROPERTIES                                         *
    5924              ;*                            0 Parameter,  0 Auto,  4 SOE     *
    5925              ;***************************************************************
    5926              
    5927 0000042e       _IPC3_ISR:
    5928                      .dwcfi  cfa_offset, -2
    5929                      .dwcfi  save_reg_to_mem, 26, 0
    5930 0000042e 761B          ASP       ; [CPU_] 
    5931 0000042f FFF0          PUSH      RB                    ; [CPU_] 
    5932                      .dwcfi  save_reg_to_mem, 73, 2
    5933                      .dwcfi  save_reg_to_mem, 74, 3
    5934                      .dwcfi  cfa_offset, -4
    5935 00000430 E200          MOV32     *SP++,STF             ; [CPU_] 
         00000431 00BD 
    5936                      .dwcfi  save_reg_to_mem, 39, 4
    5937                      .dwcfi  save_reg_to_mem, 40, 5
    5938                      .dwcfi  cfa_offset, -6
    5939 00000432 E630          SETFLG    RNDF32=1, RNDF64=1    ; [CPU_] 
         00000433 0600 
    5940 00000434 2942          CLRC      PAGE0,OVM             ; [CPU_] 
    5941 00000435 5616          CLRC      AMODE                 ; [CPU_] 
    5942                      .dwpsn  file "C:/ti/controlSUITE/device_support/F2837xS/v170/F2837xS_common/source/F2837xS_DefaultISR
    5943 00000436 7625        ESTOP0
    5944 00000437       $C$L108:    
TMS320C2000 Assembler PC v6.4.2 Thu Dec 14 15:26:09 2017

Tools Copyright (c) 1996-2015 Texas Instruments Incorporated
F2837xS_DefaultISR.asm                                               PAGE  113

    5945                      .dwpsn  file "C:/ti/controlSUITE/device_support/F2837xS/v170/F2837xS_common/source/F2837xS_DefaultISR
    5946 00000437 6F00          B         $C$L108,UNC           ; [CPU_] |1559| 
    5947                      ; branch occurs ; [] |1559| 
    5948                      .dwattr $C$DW$108, DW_AT_TI_end_file("C:/ti/controlSUITE/device_support/F2837xS/v170/F2837xS_common/s
    5949                      .dwattr $C$DW$108, DW_AT_TI_end_line(0x618)
    5950                      .dwattr $C$DW$108, DW_AT_TI_end_column(0x01)
    5951                      .dwendentry
    5952                      .dwendtag $C$DW$108
    5953              
    5954 00000438               .sect   ".text:retain"
    5955                      .retain
    5956                      .retainrefs
    5957                      .global _EPWM9_TZ_ISR
    5958              
    5959              $C$DW$109       .dwtag  DW_TAG_subprogram, DW_AT_name("EPWM9_TZ_ISR")
    5960                      .dwattr $C$DW$109, DW_AT_low_pc(_EPWM9_TZ_ISR)
    5961                      .dwattr $C$DW$109, DW_AT_high_pc(0x00)
    5962                      .dwattr $C$DW$109, DW_AT_TI_symbol_name("_EPWM9_TZ_ISR")
    5963                      .dwattr $C$DW$109, DW_AT_external
    5964                      .dwattr $C$DW$109, DW_AT_TI_begin_file("C:/ti/controlSUITE/device_support/F2837xS/v170/F2837xS_common
    5965                      .dwattr $C$DW$109, DW_AT_TI_begin_line(0x61b)
    5966                      .dwattr $C$DW$109, DW_AT_TI_begin_column(0x10)
    5967                      .dwattr $C$DW$109, DW_AT_TI_interrupt
    5968                      .dwattr $C$DW$109, DW_AT_TI_max_frame_size(-6)
    5969                      .dwpsn  file "C:/ti/controlSUITE/device_support/F2837xS/v170/F2837xS_common/source/F2837xS_DefaultISR
    5970              
    5971                      .dwfde $C$DW$CIE, _EPWM9_TZ_ISR
    5972              
    5973              ;***************************************************************
    5974              ;* FNAME: _EPWM9_TZ_ISR                 FR SIZE:   4           *
    5975              ;*                                                             *
    5976              ;* FUNCTION ENVIRONMENT                                        *
    5977              ;*                                                             *
    5978              ;* FUNCTION PROPERTIES                                         *
    5979              ;*                            0 Parameter,  0 Auto,  4 SOE     *
    5980              ;***************************************************************
    5981              
    5982 00000438       _EPWM9_TZ_ISR:
    5983                      .dwcfi  cfa_offset, -2
    5984                      .dwcfi  save_reg_to_mem, 26, 0
    5985 00000438 761B          ASP       ; [CPU_] 
    5986 00000439 FFF0          PUSH      RB                    ; [CPU_] 
    5987                      .dwcfi  save_reg_to_mem, 73, 2
    5988                      .dwcfi  save_reg_to_mem, 74, 3
    5989                      .dwcfi  cfa_offset, -4
    5990 0000043a E200          MOV32     *SP++,STF             ; [CPU_] 
         0000043b 00BD 
    5991                      .dwcfi  save_reg_to_mem, 39, 4
    5992                      .dwcfi  save_reg_to_mem, 40, 5
    5993                      .dwcfi  cfa_offset, -6
    5994 0000043c E630          SETFLG    RNDF32=1, RNDF64=1    ; [CPU_] 
         0000043d 0600 
    5995 0000043e 2942          CLRC      PAGE0,OVM             ; [CPU_] 
    5996 0000043f 5616          CLRC      AMODE                 ; [CPU_] 
    5997                      .dwpsn  file "C:/ti/controlSUITE/device_support/F2837xS/v170/F2837xS_common/source/F2837xS_DefaultISR
TMS320C2000 Assembler PC v6.4.2 Thu Dec 14 15:26:09 2017

Tools Copyright (c) 1996-2015 Texas Instruments Incorporated
F2837xS_DefaultISR.asm                                               PAGE  114

    5998 00000440 7625        ESTOP0
    5999 00000441       $C$L109:    
    6000                      .dwpsn  file "C:/ti/controlSUITE/device_support/F2837xS/v170/F2837xS_common/source/F2837xS_DefaultISR
    6001 00000441 6F00          B         $C$L109,UNC           ; [CPU_] |1574| 
    6002                      ; branch occurs ; [] |1574| 
    6003                      .dwattr $C$DW$109, DW_AT_TI_end_file("C:/ti/controlSUITE/device_support/F2837xS/v170/F2837xS_common/s
    6004                      .dwattr $C$DW$109, DW_AT_TI_end_line(0x627)
    6005                      .dwattr $C$DW$109, DW_AT_TI_end_column(0x01)
    6006                      .dwendentry
    6007                      .dwendtag $C$DW$109
    6008              
    6009 00000442               .sect   ".text:retain"
    6010                      .retain
    6011                      .retainrefs
    6012                      .global _EPWM10_TZ_ISR
    6013              
    6014              $C$DW$110       .dwtag  DW_TAG_subprogram, DW_AT_name("EPWM10_TZ_ISR")
    6015                      .dwattr $C$DW$110, DW_AT_low_pc(_EPWM10_TZ_ISR)
    6016                      .dwattr $C$DW$110, DW_AT_high_pc(0x00)
    6017                      .dwattr $C$DW$110, DW_AT_TI_symbol_name("_EPWM10_TZ_ISR")
    6018                      .dwattr $C$DW$110, DW_AT_external
    6019                      .dwattr $C$DW$110, DW_AT_TI_begin_file("C:/ti/controlSUITE/device_support/F2837xS/v170/F2837xS_common
    6020                      .dwattr $C$DW$110, DW_AT_TI_begin_line(0x62a)
    6021                      .dwattr $C$DW$110, DW_AT_TI_begin_column(0x10)
    6022                      .dwattr $C$DW$110, DW_AT_TI_interrupt
    6023                      .dwattr $C$DW$110, DW_AT_TI_max_frame_size(-6)
    6024                      .dwpsn  file "C:/ti/controlSUITE/device_support/F2837xS/v170/F2837xS_common/source/F2837xS_DefaultISR
    6025              
    6026                      .dwfde $C$DW$CIE, _EPWM10_TZ_ISR
    6027              
    6028              ;***************************************************************
    6029              ;* FNAME: _EPWM10_TZ_ISR                FR SIZE:   4           *
    6030              ;*                                                             *
    6031              ;* FUNCTION ENVIRONMENT                                        *
    6032              ;*                                                             *
    6033              ;* FUNCTION PROPERTIES                                         *
    6034              ;*                            0 Parameter,  0 Auto,  4 SOE     *
    6035              ;***************************************************************
    6036              
    6037 00000442       _EPWM10_TZ_ISR:
    6038                      .dwcfi  cfa_offset, -2
    6039                      .dwcfi  save_reg_to_mem, 26, 0
    6040 00000442 761B          ASP       ; [CPU_] 
    6041 00000443 FFF0          PUSH      RB                    ; [CPU_] 
    6042                      .dwcfi  save_reg_to_mem, 73, 2
    6043                      .dwcfi  save_reg_to_mem, 74, 3
    6044                      .dwcfi  cfa_offset, -4
    6045 00000444 E200          MOV32     *SP++,STF             ; [CPU_] 
         00000445 00BD 
    6046                      .dwcfi  save_reg_to_mem, 39, 4
    6047                      .dwcfi  save_reg_to_mem, 40, 5
    6048                      .dwcfi  cfa_offset, -6
    6049 00000446 E630          SETFLG    RNDF32=1, RNDF64=1    ; [CPU_] 
         00000447 0600 
    6050 00000448 2942          CLRC      PAGE0,OVM             ; [CPU_] 
TMS320C2000 Assembler PC v6.4.2 Thu Dec 14 15:26:09 2017

Tools Copyright (c) 1996-2015 Texas Instruments Incorporated
F2837xS_DefaultISR.asm                                               PAGE  115

    6051 00000449 5616          CLRC      AMODE                 ; [CPU_] 
    6052                      .dwpsn  file "C:/ti/controlSUITE/device_support/F2837xS/v170/F2837xS_common/source/F2837xS_DefaultISR
    6053 0000044a 7625        ESTOP0
    6054 0000044b       $C$L110:    
    6055                      .dwpsn  file "C:/ti/controlSUITE/device_support/F2837xS/v170/F2837xS_common/source/F2837xS_DefaultISR
    6056 0000044b 6F00          B         $C$L110,UNC           ; [CPU_] |1589| 
    6057                      ; branch occurs ; [] |1589| 
    6058                      .dwattr $C$DW$110, DW_AT_TI_end_file("C:/ti/controlSUITE/device_support/F2837xS/v170/F2837xS_common/s
    6059                      .dwattr $C$DW$110, DW_AT_TI_end_line(0x636)
    6060                      .dwattr $C$DW$110, DW_AT_TI_end_column(0x01)
    6061                      .dwendentry
    6062                      .dwendtag $C$DW$110
    6063              
    6064 0000044c               .sect   ".text:retain"
    6065                      .retain
    6066                      .retainrefs
    6067                      .global _EPWM11_TZ_ISR
    6068              
    6069              $C$DW$111       .dwtag  DW_TAG_subprogram, DW_AT_name("EPWM11_TZ_ISR")
    6070                      .dwattr $C$DW$111, DW_AT_low_pc(_EPWM11_TZ_ISR)
    6071                      .dwattr $C$DW$111, DW_AT_high_pc(0x00)
    6072                      .dwattr $C$DW$111, DW_AT_TI_symbol_name("_EPWM11_TZ_ISR")
    6073                      .dwattr $C$DW$111, DW_AT_external
    6074                      .dwattr $C$DW$111, DW_AT_TI_begin_file("C:/ti/controlSUITE/device_support/F2837xS/v170/F2837xS_common
    6075                      .dwattr $C$DW$111, DW_AT_TI_begin_line(0x639)
    6076                      .dwattr $C$DW$111, DW_AT_TI_begin_column(0x10)
    6077                      .dwattr $C$DW$111, DW_AT_TI_interrupt
    6078                      .dwattr $C$DW$111, DW_AT_TI_max_frame_size(-6)
    6079                      .dwpsn  file "C:/ti/controlSUITE/device_support/F2837xS/v170/F2837xS_common/source/F2837xS_DefaultISR
    6080              
    6081                      .dwfde $C$DW$CIE, _EPWM11_TZ_ISR
    6082              
    6083              ;***************************************************************
    6084              ;* FNAME: _EPWM11_TZ_ISR                FR SIZE:   4           *
    6085              ;*                                                             *
    6086              ;* FUNCTION ENVIRONMENT                                        *
    6087              ;*                                                             *
    6088              ;* FUNCTION PROPERTIES                                         *
    6089              ;*                            0 Parameter,  0 Auto,  4 SOE     *
    6090              ;***************************************************************
    6091              
    6092 0000044c       _EPWM11_TZ_ISR:
    6093                      .dwcfi  cfa_offset, -2
    6094                      .dwcfi  save_reg_to_mem, 26, 0
    6095 0000044c 761B          ASP       ; [CPU_] 
    6096 0000044d FFF0          PUSH      RB                    ; [CPU_] 
    6097                      .dwcfi  save_reg_to_mem, 73, 2
    6098                      .dwcfi  save_reg_to_mem, 74, 3
    6099                      .dwcfi  cfa_offset, -4
    6100 0000044e E200          MOV32     *SP++,STF             ; [CPU_] 
         0000044f 00BD 
    6101                      .dwcfi  save_reg_to_mem, 39, 4
    6102                      .dwcfi  save_reg_to_mem, 40, 5
    6103                      .dwcfi  cfa_offset, -6
    6104 00000450 E630          SETFLG    RNDF32=1, RNDF64=1    ; [CPU_] 
TMS320C2000 Assembler PC v6.4.2 Thu Dec 14 15:26:09 2017

Tools Copyright (c) 1996-2015 Texas Instruments Incorporated
F2837xS_DefaultISR.asm                                               PAGE  116

         00000451 0600 
    6105 00000452 2942          CLRC      PAGE0,OVM             ; [CPU_] 
    6106 00000453 5616          CLRC      AMODE                 ; [CPU_] 
    6107                      .dwpsn  file "C:/ti/controlSUITE/device_support/F2837xS/v170/F2837xS_common/source/F2837xS_DefaultISR
    6108 00000454 7625        ESTOP0
    6109 00000455       $C$L111:    
    6110                      .dwpsn  file "C:/ti/controlSUITE/device_support/F2837xS/v170/F2837xS_common/source/F2837xS_DefaultISR
    6111 00000455 6F00          B         $C$L111,UNC           ; [CPU_] |1604| 
    6112                      ; branch occurs ; [] |1604| 
    6113                      .dwattr $C$DW$111, DW_AT_TI_end_file("C:/ti/controlSUITE/device_support/F2837xS/v170/F2837xS_common/s
    6114                      .dwattr $C$DW$111, DW_AT_TI_end_line(0x645)
    6115                      .dwattr $C$DW$111, DW_AT_TI_end_column(0x01)
    6116                      .dwendentry
    6117                      .dwendtag $C$DW$111
    6118              
    6119 00000456               .sect   ".text:retain"
    6120                      .retain
    6121                      .retainrefs
    6122                      .global _EPWM12_TZ_ISR
    6123              
    6124              $C$DW$112       .dwtag  DW_TAG_subprogram, DW_AT_name("EPWM12_TZ_ISR")
    6125                      .dwattr $C$DW$112, DW_AT_low_pc(_EPWM12_TZ_ISR)
    6126                      .dwattr $C$DW$112, DW_AT_high_pc(0x00)
    6127                      .dwattr $C$DW$112, DW_AT_TI_symbol_name("_EPWM12_TZ_ISR")
    6128                      .dwattr $C$DW$112, DW_AT_external
    6129                      .dwattr $C$DW$112, DW_AT_TI_begin_file("C:/ti/controlSUITE/device_support/F2837xS/v170/F2837xS_common
    6130                      .dwattr $C$DW$112, DW_AT_TI_begin_line(0x648)
    6131                      .dwattr $C$DW$112, DW_AT_TI_begin_column(0x10)
    6132                      .dwattr $C$DW$112, DW_AT_TI_interrupt
    6133                      .dwattr $C$DW$112, DW_AT_TI_max_frame_size(-6)
    6134                      .dwpsn  file "C:/ti/controlSUITE/device_support/F2837xS/v170/F2837xS_common/source/F2837xS_DefaultISR
    6135              
    6136                      .dwfde $C$DW$CIE, _EPWM12_TZ_ISR
    6137              
    6138              ;***************************************************************
    6139              ;* FNAME: _EPWM12_TZ_ISR                FR SIZE:   4           *
    6140              ;*                                                             *
    6141              ;* FUNCTION ENVIRONMENT                                        *
    6142              ;*                                                             *
    6143              ;* FUNCTION PROPERTIES                                         *
    6144              ;*                            0 Parameter,  0 Auto,  4 SOE     *
    6145              ;***************************************************************
    6146              
    6147 00000456       _EPWM12_TZ_ISR:
    6148                      .dwcfi  cfa_offset, -2
    6149                      .dwcfi  save_reg_to_mem, 26, 0
    6150 00000456 761B          ASP       ; [CPU_] 
    6151 00000457 FFF0          PUSH      RB                    ; [CPU_] 
    6152                      .dwcfi  save_reg_to_mem, 73, 2
    6153                      .dwcfi  save_reg_to_mem, 74, 3
    6154                      .dwcfi  cfa_offset, -4
    6155 00000458 E200          MOV32     *SP++,STF             ; [CPU_] 
         00000459 00BD 
    6156                      .dwcfi  save_reg_to_mem, 39, 4
    6157                      .dwcfi  save_reg_to_mem, 40, 5
TMS320C2000 Assembler PC v6.4.2 Thu Dec 14 15:26:09 2017

Tools Copyright (c) 1996-2015 Texas Instruments Incorporated
F2837xS_DefaultISR.asm                                               PAGE  117

    6158                      .dwcfi  cfa_offset, -6
    6159 0000045a E630          SETFLG    RNDF32=1, RNDF64=1    ; [CPU_] 
         0000045b 0600 
    6160 0000045c 2942          CLRC      PAGE0,OVM             ; [CPU_] 
    6161 0000045d 5616          CLRC      AMODE                 ; [CPU_] 
    6162                      .dwpsn  file "C:/ti/controlSUITE/device_support/F2837xS/v170/F2837xS_common/source/F2837xS_DefaultISR
    6163 0000045e 7625        ESTOP0
    6164 0000045f       $C$L112:    
    6165                      .dwpsn  file "C:/ti/controlSUITE/device_support/F2837xS/v170/F2837xS_common/source/F2837xS_DefaultISR
    6166 0000045f 6F00          B         $C$L112,UNC           ; [CPU_] |1619| 
    6167                      ; branch occurs ; [] |1619| 
    6168                      .dwattr $C$DW$112, DW_AT_TI_end_file("C:/ti/controlSUITE/device_support/F2837xS/v170/F2837xS_common/s
    6169                      .dwattr $C$DW$112, DW_AT_TI_end_line(0x654)
    6170                      .dwattr $C$DW$112, DW_AT_TI_end_column(0x01)
    6171                      .dwendentry
    6172                      .dwendtag $C$DW$112
    6173              
    6174 00000460               .sect   ".text:retain"
    6175                      .retain
    6176                      .retainrefs
    6177                      .global _EPWM9_ISR
    6178              
    6179              $C$DW$113       .dwtag  DW_TAG_subprogram, DW_AT_name("EPWM9_ISR")
    6180                      .dwattr $C$DW$113, DW_AT_low_pc(_EPWM9_ISR)
    6181                      .dwattr $C$DW$113, DW_AT_high_pc(0x00)
    6182                      .dwattr $C$DW$113, DW_AT_TI_symbol_name("_EPWM9_ISR")
    6183                      .dwattr $C$DW$113, DW_AT_external
    6184                      .dwattr $C$DW$113, DW_AT_TI_begin_file("C:/ti/controlSUITE/device_support/F2837xS/v170/F2837xS_common
    6185                      .dwattr $C$DW$113, DW_AT_TI_begin_line(0x657)
    6186                      .dwattr $C$DW$113, DW_AT_TI_begin_column(0x10)
    6187                      .dwattr $C$DW$113, DW_AT_TI_interrupt
    6188                      .dwattr $C$DW$113, DW_AT_TI_max_frame_size(-6)
    6189                      .dwpsn  file "C:/ti/controlSUITE/device_support/F2837xS/v170/F2837xS_common/source/F2837xS_DefaultISR
    6190              
    6191                      .dwfde $C$DW$CIE, _EPWM9_ISR
    6192              
    6193              ;***************************************************************
    6194              ;* FNAME: _EPWM9_ISR                    FR SIZE:   4           *
    6195              ;*                                                             *
    6196              ;* FUNCTION ENVIRONMENT                                        *
    6197              ;*                                                             *
    6198              ;* FUNCTION PROPERTIES                                         *
    6199              ;*                            0 Parameter,  0 Auto,  4 SOE     *
    6200              ;***************************************************************
    6201              
    6202 00000460       _EPWM9_ISR:
    6203                      .dwcfi  cfa_offset, -2
    6204                      .dwcfi  save_reg_to_mem, 26, 0
    6205 00000460 761B          ASP       ; [CPU_] 
    6206 00000461 FFF0          PUSH      RB                    ; [CPU_] 
    6207                      .dwcfi  save_reg_to_mem, 73, 2
    6208                      .dwcfi  save_reg_to_mem, 74, 3
    6209                      .dwcfi  cfa_offset, -4
    6210 00000462 E200          MOV32     *SP++,STF             ; [CPU_] 
         00000463 00BD 
TMS320C2000 Assembler PC v6.4.2 Thu Dec 14 15:26:09 2017

Tools Copyright (c) 1996-2015 Texas Instruments Incorporated
F2837xS_DefaultISR.asm                                               PAGE  118

    6211                      .dwcfi  save_reg_to_mem, 39, 4
    6212                      .dwcfi  save_reg_to_mem, 40, 5
    6213                      .dwcfi  cfa_offset, -6
    6214 00000464 E630          SETFLG    RNDF32=1, RNDF64=1    ; [CPU_] 
         00000465 0600 
    6215 00000466 2942          CLRC      PAGE0,OVM             ; [CPU_] 
    6216 00000467 5616          CLRC      AMODE                 ; [CPU_] 
    6217                      .dwpsn  file "C:/ti/controlSUITE/device_support/F2837xS/v170/F2837xS_common/source/F2837xS_DefaultISR
    6218 00000468 7625        ESTOP0
    6219 00000469       $C$L113:    
    6220                      .dwpsn  file "C:/ti/controlSUITE/device_support/F2837xS/v170/F2837xS_common/source/F2837xS_DefaultISR
    6221 00000469 6F00          B         $C$L113,UNC           ; [CPU_] |1634| 
    6222                      ; branch occurs ; [] |1634| 
    6223                      .dwattr $C$DW$113, DW_AT_TI_end_file("C:/ti/controlSUITE/device_support/F2837xS/v170/F2837xS_common/s
    6224                      .dwattr $C$DW$113, DW_AT_TI_end_line(0x663)
    6225                      .dwattr $C$DW$113, DW_AT_TI_end_column(0x01)
    6226                      .dwendentry
    6227                      .dwendtag $C$DW$113
    6228              
    6229 0000046a               .sect   ".text:retain"
    6230                      .retain
    6231                      .retainrefs
    6232                      .global _EPWM10_ISR
    6233              
    6234              $C$DW$114       .dwtag  DW_TAG_subprogram, DW_AT_name("EPWM10_ISR")
    6235                      .dwattr $C$DW$114, DW_AT_low_pc(_EPWM10_ISR)
    6236                      .dwattr $C$DW$114, DW_AT_high_pc(0x00)
    6237                      .dwattr $C$DW$114, DW_AT_TI_symbol_name("_EPWM10_ISR")
    6238                      .dwattr $C$DW$114, DW_AT_external
    6239                      .dwattr $C$DW$114, DW_AT_TI_begin_file("C:/ti/controlSUITE/device_support/F2837xS/v170/F2837xS_common
    6240                      .dwattr $C$DW$114, DW_AT_TI_begin_line(0x666)
    6241                      .dwattr $C$DW$114, DW_AT_TI_begin_column(0x10)
    6242                      .dwattr $C$DW$114, DW_AT_TI_interrupt
    6243                      .dwattr $C$DW$114, DW_AT_TI_max_frame_size(-6)
    6244                      .dwpsn  file "C:/ti/controlSUITE/device_support/F2837xS/v170/F2837xS_common/source/F2837xS_DefaultISR
    6245              
    6246                      .dwfde $C$DW$CIE, _EPWM10_ISR
    6247              
    6248              ;***************************************************************
    6249              ;* FNAME: _EPWM10_ISR                   FR SIZE:   4           *
    6250              ;*                                                             *
    6251              ;* FUNCTION ENVIRONMENT                                        *
    6252              ;*                                                             *
    6253              ;* FUNCTION PROPERTIES                                         *
    6254              ;*                            0 Parameter,  0 Auto,  4 SOE     *
    6255              ;***************************************************************
    6256              
    6257 0000046a       _EPWM10_ISR:
    6258                      .dwcfi  cfa_offset, -2
    6259                      .dwcfi  save_reg_to_mem, 26, 0
    6260 0000046a 761B          ASP       ; [CPU_] 
    6261 0000046b FFF0          PUSH      RB                    ; [CPU_] 
    6262                      .dwcfi  save_reg_to_mem, 73, 2
    6263                      .dwcfi  save_reg_to_mem, 74, 3
    6264                      .dwcfi  cfa_offset, -4
TMS320C2000 Assembler PC v6.4.2 Thu Dec 14 15:26:09 2017

Tools Copyright (c) 1996-2015 Texas Instruments Incorporated
F2837xS_DefaultISR.asm                                               PAGE  119

    6265 0000046c E200          MOV32     *SP++,STF             ; [CPU_] 
         0000046d 00BD 
    6266                      .dwcfi  save_reg_to_mem, 39, 4
    6267                      .dwcfi  save_reg_to_mem, 40, 5
    6268                      .dwcfi  cfa_offset, -6
    6269 0000046e E630          SETFLG    RNDF32=1, RNDF64=1    ; [CPU_] 
         0000046f 0600 
    6270 00000470 2942          CLRC      PAGE0,OVM             ; [CPU_] 
    6271 00000471 5616          CLRC      AMODE                 ; [CPU_] 
    6272                      .dwpsn  file "C:/ti/controlSUITE/device_support/F2837xS/v170/F2837xS_common/source/F2837xS_DefaultISR
    6273 00000472 7625        ESTOP0
    6274 00000473       $C$L114:    
    6275                      .dwpsn  file "C:/ti/controlSUITE/device_support/F2837xS/v170/F2837xS_common/source/F2837xS_DefaultISR
    6276 00000473 6F00          B         $C$L114,UNC           ; [CPU_] |1649| 
    6277                      ; branch occurs ; [] |1649| 
    6278                      .dwattr $C$DW$114, DW_AT_TI_end_file("C:/ti/controlSUITE/device_support/F2837xS/v170/F2837xS_common/s
    6279                      .dwattr $C$DW$114, DW_AT_TI_end_line(0x672)
    6280                      .dwattr $C$DW$114, DW_AT_TI_end_column(0x01)
    6281                      .dwendentry
    6282                      .dwendtag $C$DW$114
    6283              
    6284 00000474               .sect   ".text:retain"
    6285                      .retain
    6286                      .retainrefs
    6287                      .global _EPWM11_ISR
    6288              
    6289              $C$DW$115       .dwtag  DW_TAG_subprogram, DW_AT_name("EPWM11_ISR")
    6290                      .dwattr $C$DW$115, DW_AT_low_pc(_EPWM11_ISR)
    6291                      .dwattr $C$DW$115, DW_AT_high_pc(0x00)
    6292                      .dwattr $C$DW$115, DW_AT_TI_symbol_name("_EPWM11_ISR")
    6293                      .dwattr $C$DW$115, DW_AT_external
    6294                      .dwattr $C$DW$115, DW_AT_TI_begin_file("C:/ti/controlSUITE/device_support/F2837xS/v170/F2837xS_common
    6295                      .dwattr $C$DW$115, DW_AT_TI_begin_line(0x675)
    6296                      .dwattr $C$DW$115, DW_AT_TI_begin_column(0x10)
    6297                      .dwattr $C$DW$115, DW_AT_TI_interrupt
    6298                      .dwattr $C$DW$115, DW_AT_TI_max_frame_size(-6)
    6299                      .dwpsn  file "C:/ti/controlSUITE/device_support/F2837xS/v170/F2837xS_common/source/F2837xS_DefaultISR
    6300              
    6301                      .dwfde $C$DW$CIE, _EPWM11_ISR
    6302              
    6303              ;***************************************************************
    6304              ;* FNAME: _EPWM11_ISR                   FR SIZE:   4           *
    6305              ;*                                                             *
    6306              ;* FUNCTION ENVIRONMENT                                        *
    6307              ;*                                                             *
    6308              ;* FUNCTION PROPERTIES                                         *
    6309              ;*                            0 Parameter,  0 Auto,  4 SOE     *
    6310              ;***************************************************************
    6311              
    6312 00000474       _EPWM11_ISR:
    6313                      .dwcfi  cfa_offset, -2
    6314                      .dwcfi  save_reg_to_mem, 26, 0
    6315 00000474 761B          ASP       ; [CPU_] 
    6316 00000475 FFF0          PUSH      RB                    ; [CPU_] 
    6317                      .dwcfi  save_reg_to_mem, 73, 2
TMS320C2000 Assembler PC v6.4.2 Thu Dec 14 15:26:09 2017

Tools Copyright (c) 1996-2015 Texas Instruments Incorporated
F2837xS_DefaultISR.asm                                               PAGE  120

    6318                      .dwcfi  save_reg_to_mem, 74, 3
    6319                      .dwcfi  cfa_offset, -4
    6320 00000476 E200          MOV32     *SP++,STF             ; [CPU_] 
         00000477 00BD 
    6321                      .dwcfi  save_reg_to_mem, 39, 4
    6322                      .dwcfi  save_reg_to_mem, 40, 5
    6323                      .dwcfi  cfa_offset, -6
    6324 00000478 E630          SETFLG    RNDF32=1, RNDF64=1    ; [CPU_] 
         00000479 0600 
    6325 0000047a 2942          CLRC      PAGE0,OVM             ; [CPU_] 
    6326 0000047b 5616          CLRC      AMODE                 ; [CPU_] 
    6327                      .dwpsn  file "C:/ti/controlSUITE/device_support/F2837xS/v170/F2837xS_common/source/F2837xS_DefaultISR
    6328 0000047c 7625        ESTOP0
    6329 0000047d       $C$L115:    
    6330                      .dwpsn  file "C:/ti/controlSUITE/device_support/F2837xS/v170/F2837xS_common/source/F2837xS_DefaultISR
    6331 0000047d 6F00          B         $C$L115,UNC           ; [CPU_] |1664| 
    6332                      ; branch occurs ; [] |1664| 
    6333                      .dwattr $C$DW$115, DW_AT_TI_end_file("C:/ti/controlSUITE/device_support/F2837xS/v170/F2837xS_common/s
    6334                      .dwattr $C$DW$115, DW_AT_TI_end_line(0x681)
    6335                      .dwattr $C$DW$115, DW_AT_TI_end_column(0x01)
    6336                      .dwendentry
    6337                      .dwendtag $C$DW$115
    6338              
    6339 0000047e               .sect   ".text:retain"
    6340                      .retain
    6341                      .retainrefs
    6342                      .global _EPWM12_ISR
    6343              
    6344              $C$DW$116       .dwtag  DW_TAG_subprogram, DW_AT_name("EPWM12_ISR")
    6345                      .dwattr $C$DW$116, DW_AT_low_pc(_EPWM12_ISR)
    6346                      .dwattr $C$DW$116, DW_AT_high_pc(0x00)
    6347                      .dwattr $C$DW$116, DW_AT_TI_symbol_name("_EPWM12_ISR")
    6348                      .dwattr $C$DW$116, DW_AT_external
    6349                      .dwattr $C$DW$116, DW_AT_TI_begin_file("C:/ti/controlSUITE/device_support/F2837xS/v170/F2837xS_common
    6350                      .dwattr $C$DW$116, DW_AT_TI_begin_line(0x684)
    6351                      .dwattr $C$DW$116, DW_AT_TI_begin_column(0x10)
    6352                      .dwattr $C$DW$116, DW_AT_TI_interrupt
    6353                      .dwattr $C$DW$116, DW_AT_TI_max_frame_size(-6)
    6354                      .dwpsn  file "C:/ti/controlSUITE/device_support/F2837xS/v170/F2837xS_common/source/F2837xS_DefaultISR
    6355              
    6356                      .dwfde $C$DW$CIE, _EPWM12_ISR
    6357              
    6358              ;***************************************************************
    6359              ;* FNAME: _EPWM12_ISR                   FR SIZE:   4           *
    6360              ;*                                                             *
    6361              ;* FUNCTION ENVIRONMENT                                        *
    6362              ;*                                                             *
    6363              ;* FUNCTION PROPERTIES                                         *
    6364              ;*                            0 Parameter,  0 Auto,  4 SOE     *
    6365              ;***************************************************************
    6366              
    6367 0000047e       _EPWM12_ISR:
    6368                      .dwcfi  cfa_offset, -2
    6369                      .dwcfi  save_reg_to_mem, 26, 0
    6370 0000047e 761B          ASP       ; [CPU_] 
TMS320C2000 Assembler PC v6.4.2 Thu Dec 14 15:26:09 2017

Tools Copyright (c) 1996-2015 Texas Instruments Incorporated
F2837xS_DefaultISR.asm                                               PAGE  121

    6371 0000047f FFF0          PUSH      RB                    ; [CPU_] 
    6372                      .dwcfi  save_reg_to_mem, 73, 2
    6373                      .dwcfi  save_reg_to_mem, 74, 3
    6374                      .dwcfi  cfa_offset, -4
    6375 00000480 E200          MOV32     *SP++,STF             ; [CPU_] 
         00000481 00BD 
    6376                      .dwcfi  save_reg_to_mem, 39, 4
    6377                      .dwcfi  save_reg_to_mem, 40, 5
    6378                      .dwcfi  cfa_offset, -6
    6379 00000482 E630          SETFLG    RNDF32=1, RNDF64=1    ; [CPU_] 
         00000483 0600 
    6380 00000484 2942          CLRC      PAGE0,OVM             ; [CPU_] 
    6381 00000485 5616          CLRC      AMODE                 ; [CPU_] 
    6382                      .dwpsn  file "C:/ti/controlSUITE/device_support/F2837xS/v170/F2837xS_common/source/F2837xS_DefaultISR
    6383 00000486 7625        ESTOP0
    6384 00000487       $C$L116:    
    6385                      .dwpsn  file "C:/ti/controlSUITE/device_support/F2837xS/v170/F2837xS_common/source/F2837xS_DefaultISR
    6386 00000487 6F00          B         $C$L116,UNC           ; [CPU_] |1679| 
    6387                      ; branch occurs ; [] |1679| 
    6388                      .dwattr $C$DW$116, DW_AT_TI_end_file("C:/ti/controlSUITE/device_support/F2837xS/v170/F2837xS_common/s
    6389                      .dwattr $C$DW$116, DW_AT_TI_end_line(0x690)
    6390                      .dwattr $C$DW$116, DW_AT_TI_end_column(0x01)
    6391                      .dwendentry
    6392                      .dwendtag $C$DW$116
    6393              
    6394 00000488               .sect   ".text:retain"
    6395                      .retain
    6396                      .retainrefs
    6397                      .global _SD1_ISR
    6398              
    6399              $C$DW$117       .dwtag  DW_TAG_subprogram, DW_AT_name("SD1_ISR")
    6400                      .dwattr $C$DW$117, DW_AT_low_pc(_SD1_ISR)
    6401                      .dwattr $C$DW$117, DW_AT_high_pc(0x00)
    6402                      .dwattr $C$DW$117, DW_AT_TI_symbol_name("_SD1_ISR")
    6403                      .dwattr $C$DW$117, DW_AT_external
    6404                      .dwattr $C$DW$117, DW_AT_TI_begin_file("C:/ti/controlSUITE/device_support/F2837xS/v170/F2837xS_common
    6405                      .dwattr $C$DW$117, DW_AT_TI_begin_line(0x693)
    6406                      .dwattr $C$DW$117, DW_AT_TI_begin_column(0x10)
    6407                      .dwattr $C$DW$117, DW_AT_TI_interrupt
    6408                      .dwattr $C$DW$117, DW_AT_TI_max_frame_size(-6)
    6409                      .dwpsn  file "C:/ti/controlSUITE/device_support/F2837xS/v170/F2837xS_common/source/F2837xS_DefaultISR
    6410              
    6411                      .dwfde $C$DW$CIE, _SD1_ISR
    6412              
    6413              ;***************************************************************
    6414              ;* FNAME: _SD1_ISR                      FR SIZE:   4           *
    6415              ;*                                                             *
    6416              ;* FUNCTION ENVIRONMENT                                        *
    6417              ;*                                                             *
    6418              ;* FUNCTION PROPERTIES                                         *
    6419              ;*                            0 Parameter,  0 Auto,  4 SOE     *
    6420              ;***************************************************************
    6421              
    6422 00000488       _SD1_ISR:
    6423                      .dwcfi  cfa_offset, -2
TMS320C2000 Assembler PC v6.4.2 Thu Dec 14 15:26:09 2017

Tools Copyright (c) 1996-2015 Texas Instruments Incorporated
F2837xS_DefaultISR.asm                                               PAGE  122

    6424                      .dwcfi  save_reg_to_mem, 26, 0
    6425 00000488 761B          ASP       ; [CPU_] 
    6426 00000489 FFF0          PUSH      RB                    ; [CPU_] 
    6427                      .dwcfi  save_reg_to_mem, 73, 2
    6428                      .dwcfi  save_reg_to_mem, 74, 3
    6429                      .dwcfi  cfa_offset, -4
    6430 0000048a E200          MOV32     *SP++,STF             ; [CPU_] 
         0000048b 00BD 
    6431                      .dwcfi  save_reg_to_mem, 39, 4
    6432                      .dwcfi  save_reg_to_mem, 40, 5
    6433                      .dwcfi  cfa_offset, -6
    6434 0000048c E630          SETFLG    RNDF32=1, RNDF64=1    ; [CPU_] 
         0000048d 0600 
    6435 0000048e 2942          CLRC      PAGE0,OVM             ; [CPU_] 
    6436 0000048f 5616          CLRC      AMODE                 ; [CPU_] 
    6437                      .dwpsn  file "C:/ti/controlSUITE/device_support/F2837xS/v170/F2837xS_common/source/F2837xS_DefaultISR
    6438 00000490 7625        ESTOP0
    6439 00000491       $C$L117:    
    6440                      .dwpsn  file "C:/ti/controlSUITE/device_support/F2837xS/v170/F2837xS_common/source/F2837xS_DefaultISR
    6441 00000491 6F00          B         $C$L117,UNC           ; [CPU_] |1694| 
    6442                      ; branch occurs ; [] |1694| 
    6443                      .dwattr $C$DW$117, DW_AT_TI_end_file("C:/ti/controlSUITE/device_support/F2837xS/v170/F2837xS_common/s
    6444                      .dwattr $C$DW$117, DW_AT_TI_end_line(0x69f)
    6445                      .dwattr $C$DW$117, DW_AT_TI_end_column(0x01)
    6446                      .dwendentry
    6447                      .dwendtag $C$DW$117
    6448              
    6449 00000492               .sect   ".text:retain"
    6450                      .retain
    6451                      .retainrefs
    6452                      .global _SD2_ISR
    6453              
    6454              $C$DW$118       .dwtag  DW_TAG_subprogram, DW_AT_name("SD2_ISR")
    6455                      .dwattr $C$DW$118, DW_AT_low_pc(_SD2_ISR)
    6456                      .dwattr $C$DW$118, DW_AT_high_pc(0x00)
    6457                      .dwattr $C$DW$118, DW_AT_TI_symbol_name("_SD2_ISR")
    6458                      .dwattr $C$DW$118, DW_AT_external
    6459                      .dwattr $C$DW$118, DW_AT_TI_begin_file("C:/ti/controlSUITE/device_support/F2837xS/v170/F2837xS_common
    6460                      .dwattr $C$DW$118, DW_AT_TI_begin_line(0x6a2)
    6461                      .dwattr $C$DW$118, DW_AT_TI_begin_column(0x10)
    6462                      .dwattr $C$DW$118, DW_AT_TI_interrupt
    6463                      .dwattr $C$DW$118, DW_AT_TI_max_frame_size(-6)
    6464                      .dwpsn  file "C:/ti/controlSUITE/device_support/F2837xS/v170/F2837xS_common/source/F2837xS_DefaultISR
    6465              
    6466                      .dwfde $C$DW$CIE, _SD2_ISR
    6467              
    6468              ;***************************************************************
    6469              ;* FNAME: _SD2_ISR                      FR SIZE:   4           *
    6470              ;*                                                             *
    6471              ;* FUNCTION ENVIRONMENT                                        *
    6472              ;*                                                             *
    6473              ;* FUNCTION PROPERTIES                                         *
    6474              ;*                            0 Parameter,  0 Auto,  4 SOE     *
    6475              ;***************************************************************
    6476              
TMS320C2000 Assembler PC v6.4.2 Thu Dec 14 15:26:09 2017

Tools Copyright (c) 1996-2015 Texas Instruments Incorporated
F2837xS_DefaultISR.asm                                               PAGE  123

    6477 00000492       _SD2_ISR:
    6478                      .dwcfi  cfa_offset, -2
    6479                      .dwcfi  save_reg_to_mem, 26, 0
    6480 00000492 761B          ASP       ; [CPU_] 
    6481 00000493 FFF0          PUSH      RB                    ; [CPU_] 
    6482                      .dwcfi  save_reg_to_mem, 73, 2
    6483                      .dwcfi  save_reg_to_mem, 74, 3
    6484                      .dwcfi  cfa_offset, -4
    6485 00000494 E200          MOV32     *SP++,STF             ; [CPU_] 
         00000495 00BD 
    6486                      .dwcfi  save_reg_to_mem, 39, 4
    6487                      .dwcfi  save_reg_to_mem, 40, 5
    6488                      .dwcfi  cfa_offset, -6
    6489 00000496 E630          SETFLG    RNDF32=1, RNDF64=1    ; [CPU_] 
         00000497 0600 
    6490 00000498 2942          CLRC      PAGE0,OVM             ; [CPU_] 
    6491 00000499 5616          CLRC      AMODE                 ; [CPU_] 
    6492                      .dwpsn  file "C:/ti/controlSUITE/device_support/F2837xS/v170/F2837xS_common/source/F2837xS_DefaultISR
    6493 0000049a 7625        ESTOP0
    6494 0000049b       $C$L118:    
    6495                      .dwpsn  file "C:/ti/controlSUITE/device_support/F2837xS/v170/F2837xS_common/source/F2837xS_DefaultISR
    6496 0000049b 6F00          B         $C$L118,UNC           ; [CPU_] |1709| 
    6497                      ; branch occurs ; [] |1709| 
    6498                      .dwattr $C$DW$118, DW_AT_TI_end_file("C:/ti/controlSUITE/device_support/F2837xS/v170/F2837xS_common/s
    6499                      .dwattr $C$DW$118, DW_AT_TI_end_line(0x6ae)
    6500                      .dwattr $C$DW$118, DW_AT_TI_end_column(0x01)
    6501                      .dwendentry
    6502                      .dwendtag $C$DW$118
    6503              
    6504 0000049c               .sect   ".text:retain"
    6505                      .retain
    6506                      .retainrefs
    6507                      .global _SPIC_RX_ISR
    6508              
    6509              $C$DW$119       .dwtag  DW_TAG_subprogram, DW_AT_name("SPIC_RX_ISR")
    6510                      .dwattr $C$DW$119, DW_AT_low_pc(_SPIC_RX_ISR)
    6511                      .dwattr $C$DW$119, DW_AT_high_pc(0x00)
    6512                      .dwattr $C$DW$119, DW_AT_TI_symbol_name("_SPIC_RX_ISR")
    6513                      .dwattr $C$DW$119, DW_AT_external
    6514                      .dwattr $C$DW$119, DW_AT_TI_begin_file("C:/ti/controlSUITE/device_support/F2837xS/v170/F2837xS_common
    6515                      .dwattr $C$DW$119, DW_AT_TI_begin_line(0x6b1)
    6516                      .dwattr $C$DW$119, DW_AT_TI_begin_column(0x10)
    6517                      .dwattr $C$DW$119, DW_AT_TI_interrupt
    6518                      .dwattr $C$DW$119, DW_AT_TI_max_frame_size(-6)
    6519                      .dwpsn  file "C:/ti/controlSUITE/device_support/F2837xS/v170/F2837xS_common/source/F2837xS_DefaultISR
    6520              
    6521                      .dwfde $C$DW$CIE, _SPIC_RX_ISR
    6522              
    6523              ;***************************************************************
    6524              ;* FNAME: _SPIC_RX_ISR                  FR SIZE:   4           *
    6525              ;*                                                             *
    6526              ;* FUNCTION ENVIRONMENT                                        *
    6527              ;*                                                             *
    6528              ;* FUNCTION PROPERTIES                                         *
    6529              ;*                            0 Parameter,  0 Auto,  4 SOE     *
TMS320C2000 Assembler PC v6.4.2 Thu Dec 14 15:26:09 2017

Tools Copyright (c) 1996-2015 Texas Instruments Incorporated
F2837xS_DefaultISR.asm                                               PAGE  124

    6530              ;***************************************************************
    6531              
    6532 0000049c       _SPIC_RX_ISR:
    6533                      .dwcfi  cfa_offset, -2
    6534                      .dwcfi  save_reg_to_mem, 26, 0
    6535 0000049c 761B          ASP       ; [CPU_] 
    6536 0000049d FFF0          PUSH      RB                    ; [CPU_] 
    6537                      .dwcfi  save_reg_to_mem, 73, 2
    6538                      .dwcfi  save_reg_to_mem, 74, 3
    6539                      .dwcfi  cfa_offset, -4
    6540 0000049e E200          MOV32     *SP++,STF             ; [CPU_] 
         0000049f 00BD 
    6541                      .dwcfi  save_reg_to_mem, 39, 4
    6542                      .dwcfi  save_reg_to_mem, 40, 5
    6543                      .dwcfi  cfa_offset, -6
    6544 000004a0 E630          SETFLG    RNDF32=1, RNDF64=1    ; [CPU_] 
         000004a1 0600 
    6545 000004a2 2942          CLRC      PAGE0,OVM             ; [CPU_] 
    6546 000004a3 5616          CLRC      AMODE                 ; [CPU_] 
    6547                      .dwpsn  file "C:/ti/controlSUITE/device_support/F2837xS/v170/F2837xS_common/source/F2837xS_DefaultISR
    6548 000004a4 7625        ESTOP0
    6549 000004a5       $C$L119:    
    6550                      .dwpsn  file "C:/ti/controlSUITE/device_support/F2837xS/v170/F2837xS_common/source/F2837xS_DefaultISR
    6551 000004a5 6F00          B         $C$L119,UNC           ; [CPU_] |1724| 
    6552                      ; branch occurs ; [] |1724| 
    6553                      .dwattr $C$DW$119, DW_AT_TI_end_file("C:/ti/controlSUITE/device_support/F2837xS/v170/F2837xS_common/s
    6554                      .dwattr $C$DW$119, DW_AT_TI_end_line(0x6bd)
    6555                      .dwattr $C$DW$119, DW_AT_TI_end_column(0x01)
    6556                      .dwendentry
    6557                      .dwendtag $C$DW$119
    6558              
    6559 000004a6               .sect   ".text:retain"
    6560                      .retain
    6561                      .retainrefs
    6562                      .global _SPIC_TX_ISR
    6563              
    6564              $C$DW$120       .dwtag  DW_TAG_subprogram, DW_AT_name("SPIC_TX_ISR")
    6565                      .dwattr $C$DW$120, DW_AT_low_pc(_SPIC_TX_ISR)
    6566                      .dwattr $C$DW$120, DW_AT_high_pc(0x00)
    6567                      .dwattr $C$DW$120, DW_AT_TI_symbol_name("_SPIC_TX_ISR")
    6568                      .dwattr $C$DW$120, DW_AT_external
    6569                      .dwattr $C$DW$120, DW_AT_TI_begin_file("C:/ti/controlSUITE/device_support/F2837xS/v170/F2837xS_common
    6570                      .dwattr $C$DW$120, DW_AT_TI_begin_line(0x6c0)
    6571                      .dwattr $C$DW$120, DW_AT_TI_begin_column(0x10)
    6572                      .dwattr $C$DW$120, DW_AT_TI_interrupt
    6573                      .dwattr $C$DW$120, DW_AT_TI_max_frame_size(-6)
    6574                      .dwpsn  file "C:/ti/controlSUITE/device_support/F2837xS/v170/F2837xS_common/source/F2837xS_DefaultISR
    6575              
    6576                      .dwfde $C$DW$CIE, _SPIC_TX_ISR
    6577              
    6578              ;***************************************************************
    6579              ;* FNAME: _SPIC_TX_ISR                  FR SIZE:   4           *
    6580              ;*                                                             *
    6581              ;* FUNCTION ENVIRONMENT                                        *
    6582              ;*                                                             *
TMS320C2000 Assembler PC v6.4.2 Thu Dec 14 15:26:09 2017

Tools Copyright (c) 1996-2015 Texas Instruments Incorporated
F2837xS_DefaultISR.asm                                               PAGE  125

    6583              ;* FUNCTION PROPERTIES                                         *
    6584              ;*                            0 Parameter,  0 Auto,  4 SOE     *
    6585              ;***************************************************************
    6586              
    6587 000004a6       _SPIC_TX_ISR:
    6588                      .dwcfi  cfa_offset, -2
    6589                      .dwcfi  save_reg_to_mem, 26, 0
    6590 000004a6 761B          ASP       ; [CPU_] 
    6591 000004a7 FFF0          PUSH      RB                    ; [CPU_] 
    6592                      .dwcfi  save_reg_to_mem, 73, 2
    6593                      .dwcfi  save_reg_to_mem, 74, 3
    6594                      .dwcfi  cfa_offset, -4
    6595 000004a8 E200          MOV32     *SP++,STF             ; [CPU_] 
         000004a9 00BD 
    6596                      .dwcfi  save_reg_to_mem, 39, 4
    6597                      .dwcfi  save_reg_to_mem, 40, 5
    6598                      .dwcfi  cfa_offset, -6
    6599 000004aa E630          SETFLG    RNDF32=1, RNDF64=1    ; [CPU_] 
         000004ab 0600 
    6600 000004ac 2942          CLRC      PAGE0,OVM             ; [CPU_] 
    6601 000004ad 5616          CLRC      AMODE                 ; [CPU_] 
    6602                      .dwpsn  file "C:/ti/controlSUITE/device_support/F2837xS/v170/F2837xS_common/source/F2837xS_DefaultISR
    6603 000004ae 7625        ESTOP0
    6604 000004af       $C$L120:    
    6605                      .dwpsn  file "C:/ti/controlSUITE/device_support/F2837xS/v170/F2837xS_common/source/F2837xS_DefaultISR
    6606 000004af 6F00          B         $C$L120,UNC           ; [CPU_] |1739| 
    6607                      ; branch occurs ; [] |1739| 
    6608                      .dwattr $C$DW$120, DW_AT_TI_end_file("C:/ti/controlSUITE/device_support/F2837xS/v170/F2837xS_common/s
    6609                      .dwattr $C$DW$120, DW_AT_TI_end_line(0x6cc)
    6610                      .dwattr $C$DW$120, DW_AT_TI_end_column(0x01)
    6611                      .dwendentry
    6612                      .dwendtag $C$DW$120
    6613              
    6614 000004b0               .sect   ".text:retain"
    6615                      .retain
    6616                      .retainrefs
    6617                      .global _UPPA_ISR
    6618              
    6619              $C$DW$121       .dwtag  DW_TAG_subprogram, DW_AT_name("UPPA_ISR")
    6620                      .dwattr $C$DW$121, DW_AT_low_pc(_UPPA_ISR)
    6621                      .dwattr $C$DW$121, DW_AT_high_pc(0x00)
    6622                      .dwattr $C$DW$121, DW_AT_TI_symbol_name("_UPPA_ISR")
    6623                      .dwattr $C$DW$121, DW_AT_external
    6624                      .dwattr $C$DW$121, DW_AT_TI_begin_file("C:/ti/controlSUITE/device_support/F2837xS/v170/F2837xS_common
    6625                      .dwattr $C$DW$121, DW_AT_TI_begin_line(0x6cf)
    6626                      .dwattr $C$DW$121, DW_AT_TI_begin_column(0x10)
    6627                      .dwattr $C$DW$121, DW_AT_TI_interrupt
    6628                      .dwattr $C$DW$121, DW_AT_TI_max_frame_size(-6)
    6629                      .dwpsn  file "C:/ti/controlSUITE/device_support/F2837xS/v170/F2837xS_common/source/F2837xS_DefaultISR
    6630              
    6631                      .dwfde $C$DW$CIE, _UPPA_ISR
    6632              
    6633              ;***************************************************************
    6634              ;* FNAME: _UPPA_ISR                     FR SIZE:   4           *
    6635              ;*                                                             *
TMS320C2000 Assembler PC v6.4.2 Thu Dec 14 15:26:09 2017

Tools Copyright (c) 1996-2015 Texas Instruments Incorporated
F2837xS_DefaultISR.asm                                               PAGE  126

    6636              ;* FUNCTION ENVIRONMENT                                        *
    6637              ;*                                                             *
    6638              ;* FUNCTION PROPERTIES                                         *
    6639              ;*                            0 Parameter,  0 Auto,  4 SOE     *
    6640              ;***************************************************************
    6641              
    6642 000004b0       _UPPA_ISR:
    6643                      .dwcfi  cfa_offset, -2
    6644                      .dwcfi  save_reg_to_mem, 26, 0
    6645 000004b0 761B          ASP       ; [CPU_] 
    6646 000004b1 FFF0          PUSH      RB                    ; [CPU_] 
    6647                      .dwcfi  save_reg_to_mem, 73, 2
    6648                      .dwcfi  save_reg_to_mem, 74, 3
    6649                      .dwcfi  cfa_offset, -4
    6650 000004b2 E200          MOV32     *SP++,STF             ; [CPU_] 
         000004b3 00BD 
    6651                      .dwcfi  save_reg_to_mem, 39, 4
    6652                      .dwcfi  save_reg_to_mem, 40, 5
    6653                      .dwcfi  cfa_offset, -6
    6654 000004b4 E630          SETFLG    RNDF32=1, RNDF64=1    ; [CPU_] 
         000004b5 0600 
    6655 000004b6 2942          CLRC      PAGE0,OVM             ; [CPU_] 
    6656 000004b7 5616          CLRC      AMODE                 ; [CPU_] 
    6657                      .dwpsn  file "C:/ti/controlSUITE/device_support/F2837xS/v170/F2837xS_common/source/F2837xS_DefaultISR
    6658 000004b8 7625        ESTOP0
    6659 000004b9       $C$L121:    
    6660                      .dwpsn  file "C:/ti/controlSUITE/device_support/F2837xS/v170/F2837xS_common/source/F2837xS_DefaultISR
    6661 000004b9 6F00          B         $C$L121,UNC           ; [CPU_] |1754| 
    6662                      ; branch occurs ; [] |1754| 
    6663                      .dwattr $C$DW$121, DW_AT_TI_end_file("C:/ti/controlSUITE/device_support/F2837xS/v170/F2837xS_common/s
    6664                      .dwattr $C$DW$121, DW_AT_TI_end_line(0x6db)
    6665                      .dwattr $C$DW$121, DW_AT_TI_end_column(0x01)
    6666                      .dwendentry
    6667                      .dwendtag $C$DW$121
    6668              
    6669 000004ba               .sect   ".text:retain"
    6670                      .retain
    6671                      .retainrefs
    6672                      .global _USBA_ISR
    6673              
    6674              $C$DW$122       .dwtag  DW_TAG_subprogram, DW_AT_name("USBA_ISR")
    6675                      .dwattr $C$DW$122, DW_AT_low_pc(_USBA_ISR)
    6676                      .dwattr $C$DW$122, DW_AT_high_pc(0x00)
    6677                      .dwattr $C$DW$122, DW_AT_TI_symbol_name("_USBA_ISR")
    6678                      .dwattr $C$DW$122, DW_AT_external
    6679                      .dwattr $C$DW$122, DW_AT_TI_begin_file("C:/ti/controlSUITE/device_support/F2837xS/v170/F2837xS_common
    6680                      .dwattr $C$DW$122, DW_AT_TI_begin_line(0x6de)
    6681                      .dwattr $C$DW$122, DW_AT_TI_begin_column(0x10)
    6682                      .dwattr $C$DW$122, DW_AT_TI_interrupt
    6683                      .dwattr $C$DW$122, DW_AT_TI_max_frame_size(-6)
    6684                      .dwpsn  file "C:/ti/controlSUITE/device_support/F2837xS/v170/F2837xS_common/source/F2837xS_DefaultISR
    6685              
    6686                      .dwfde $C$DW$CIE, _USBA_ISR
    6687              
    6688              ;***************************************************************
TMS320C2000 Assembler PC v6.4.2 Thu Dec 14 15:26:09 2017

Tools Copyright (c) 1996-2015 Texas Instruments Incorporated
F2837xS_DefaultISR.asm                                               PAGE  127

    6689              ;* FNAME: _USBA_ISR                     FR SIZE:   4           *
    6690              ;*                                                             *
    6691              ;* FUNCTION ENVIRONMENT                                        *
    6692              ;*                                                             *
    6693              ;* FUNCTION PROPERTIES                                         *
    6694              ;*                            0 Parameter,  0 Auto,  4 SOE     *
    6695              ;***************************************************************
    6696              
    6697 000004ba       _USBA_ISR:
    6698                      .dwcfi  cfa_offset, -2
    6699                      .dwcfi  save_reg_to_mem, 26, 0
    6700 000004ba 761B          ASP       ; [CPU_] 
    6701 000004bb FFF0          PUSH      RB                    ; [CPU_] 
    6702                      .dwcfi  save_reg_to_mem, 73, 2
    6703                      .dwcfi  save_reg_to_mem, 74, 3
    6704                      .dwcfi  cfa_offset, -4
    6705 000004bc E200          MOV32     *SP++,STF             ; [CPU_] 
         000004bd 00BD 
    6706                      .dwcfi  save_reg_to_mem, 39, 4
    6707                      .dwcfi  save_reg_to_mem, 40, 5
    6708                      .dwcfi  cfa_offset, -6
    6709 000004be E630          SETFLG    RNDF32=1, RNDF64=1    ; [CPU_] 
         000004bf 0600 
    6710 000004c0 2942          CLRC      PAGE0,OVM             ; [CPU_] 
    6711 000004c1 5616          CLRC      AMODE                 ; [CPU_] 
    6712                      .dwpsn  file "C:/ti/controlSUITE/device_support/F2837xS/v170/F2837xS_common/source/F2837xS_DefaultISR
    6713 000004c2 7625        ESTOP0
    6714 000004c3       $C$L122:    
    6715                      .dwpsn  file "C:/ti/controlSUITE/device_support/F2837xS/v170/F2837xS_common/source/F2837xS_DefaultISR
    6716 000004c3 6F00          B         $C$L122,UNC           ; [CPU_] |1769| 
    6717                      ; branch occurs ; [] |1769| 
    6718                      .dwattr $C$DW$122, DW_AT_TI_end_file("C:/ti/controlSUITE/device_support/F2837xS/v170/F2837xS_common/s
    6719                      .dwattr $C$DW$122, DW_AT_TI_end_line(0x6ea)
    6720                      .dwattr $C$DW$122, DW_AT_TI_end_column(0x01)
    6721                      .dwendentry
    6722                      .dwendtag $C$DW$122
    6723              
    6724 000004c4               .sect   ".text:retain"
    6725                      .retain
    6726                      .retainrefs
    6727                      .global _ADCC_EVT_ISR
    6728              
    6729              $C$DW$123       .dwtag  DW_TAG_subprogram, DW_AT_name("ADCC_EVT_ISR")
    6730                      .dwattr $C$DW$123, DW_AT_low_pc(_ADCC_EVT_ISR)
    6731                      .dwattr $C$DW$123, DW_AT_high_pc(0x00)
    6732                      .dwattr $C$DW$123, DW_AT_TI_symbol_name("_ADCC_EVT_ISR")
    6733                      .dwattr $C$DW$123, DW_AT_external
    6734                      .dwattr $C$DW$123, DW_AT_TI_begin_file("C:/ti/controlSUITE/device_support/F2837xS/v170/F2837xS_common
    6735                      .dwattr $C$DW$123, DW_AT_TI_begin_line(0x6ed)
    6736                      .dwattr $C$DW$123, DW_AT_TI_begin_column(0x10)
    6737                      .dwattr $C$DW$123, DW_AT_TI_interrupt
    6738                      .dwattr $C$DW$123, DW_AT_TI_max_frame_size(-6)
    6739                      .dwpsn  file "C:/ti/controlSUITE/device_support/F2837xS/v170/F2837xS_common/source/F2837xS_DefaultISR
    6740              
    6741                      .dwfde $C$DW$CIE, _ADCC_EVT_ISR
TMS320C2000 Assembler PC v6.4.2 Thu Dec 14 15:26:09 2017

Tools Copyright (c) 1996-2015 Texas Instruments Incorporated
F2837xS_DefaultISR.asm                                               PAGE  128

    6742              
    6743              ;***************************************************************
    6744              ;* FNAME: _ADCC_EVT_ISR                 FR SIZE:   4           *
    6745              ;*                                                             *
    6746              ;* FUNCTION ENVIRONMENT                                        *
    6747              ;*                                                             *
    6748              ;* FUNCTION PROPERTIES                                         *
    6749              ;*                            0 Parameter,  0 Auto,  4 SOE     *
    6750              ;***************************************************************
    6751              
    6752 000004c4       _ADCC_EVT_ISR:
    6753                      .dwcfi  cfa_offset, -2
    6754                      .dwcfi  save_reg_to_mem, 26, 0
    6755 000004c4 761B          ASP       ; [CPU_] 
    6756 000004c5 FFF0          PUSH      RB                    ; [CPU_] 
    6757                      .dwcfi  save_reg_to_mem, 73, 2
    6758                      .dwcfi  save_reg_to_mem, 74, 3
    6759                      .dwcfi  cfa_offset, -4
    6760 000004c6 E200          MOV32     *SP++,STF             ; [CPU_] 
         000004c7 00BD 
    6761                      .dwcfi  save_reg_to_mem, 39, 4
    6762                      .dwcfi  save_reg_to_mem, 40, 5
    6763                      .dwcfi  cfa_offset, -6
    6764 000004c8 E630          SETFLG    RNDF32=1, RNDF64=1    ; [CPU_] 
         000004c9 0600 
    6765 000004ca 2942          CLRC      PAGE0,OVM             ; [CPU_] 
    6766 000004cb 5616          CLRC      AMODE                 ; [CPU_] 
    6767                      .dwpsn  file "C:/ti/controlSUITE/device_support/F2837xS/v170/F2837xS_common/source/F2837xS_DefaultISR
    6768 000004cc 7625        ESTOP0
    6769 000004cd       $C$L123:    
    6770                      .dwpsn  file "C:/ti/controlSUITE/device_support/F2837xS/v170/F2837xS_common/source/F2837xS_DefaultISR
    6771 000004cd 6F00          B         $C$L123,UNC           ; [CPU_] |1784| 
    6772                      ; branch occurs ; [] |1784| 
    6773                      .dwattr $C$DW$123, DW_AT_TI_end_file("C:/ti/controlSUITE/device_support/F2837xS/v170/F2837xS_common/s
    6774                      .dwattr $C$DW$123, DW_AT_TI_end_line(0x6f9)
    6775                      .dwattr $C$DW$123, DW_AT_TI_end_column(0x01)
    6776                      .dwendentry
    6777                      .dwendtag $C$DW$123
    6778              
    6779 000004ce               .sect   ".text:retain"
    6780                      .retain
    6781                      .retainrefs
    6782                      .global _ADCC2_ISR
    6783              
    6784              $C$DW$124       .dwtag  DW_TAG_subprogram, DW_AT_name("ADCC2_ISR")
    6785                      .dwattr $C$DW$124, DW_AT_low_pc(_ADCC2_ISR)
    6786                      .dwattr $C$DW$124, DW_AT_high_pc(0x00)
    6787                      .dwattr $C$DW$124, DW_AT_TI_symbol_name("_ADCC2_ISR")
    6788                      .dwattr $C$DW$124, DW_AT_external
    6789                      .dwattr $C$DW$124, DW_AT_TI_begin_file("C:/ti/controlSUITE/device_support/F2837xS/v170/F2837xS_common
    6790                      .dwattr $C$DW$124, DW_AT_TI_begin_line(0x6fc)
    6791                      .dwattr $C$DW$124, DW_AT_TI_begin_column(0x10)
    6792                      .dwattr $C$DW$124, DW_AT_TI_interrupt
    6793                      .dwattr $C$DW$124, DW_AT_TI_max_frame_size(-6)
    6794                      .dwpsn  file "C:/ti/controlSUITE/device_support/F2837xS/v170/F2837xS_common/source/F2837xS_DefaultISR
TMS320C2000 Assembler PC v6.4.2 Thu Dec 14 15:26:09 2017

Tools Copyright (c) 1996-2015 Texas Instruments Incorporated
F2837xS_DefaultISR.asm                                               PAGE  129

    6795              
    6796                      .dwfde $C$DW$CIE, _ADCC2_ISR
    6797              
    6798              ;***************************************************************
    6799              ;* FNAME: _ADCC2_ISR                    FR SIZE:   4           *
    6800              ;*                                                             *
    6801              ;* FUNCTION ENVIRONMENT                                        *
    6802              ;*                                                             *
    6803              ;* FUNCTION PROPERTIES                                         *
    6804              ;*                            0 Parameter,  0 Auto,  4 SOE     *
    6805              ;***************************************************************
    6806              
    6807 000004ce       _ADCC2_ISR:
    6808                      .dwcfi  cfa_offset, -2
    6809                      .dwcfi  save_reg_to_mem, 26, 0
    6810 000004ce 761B          ASP       ; [CPU_] 
    6811 000004cf FFF0          PUSH      RB                    ; [CPU_] 
    6812                      .dwcfi  save_reg_to_mem, 73, 2
    6813                      .dwcfi  save_reg_to_mem, 74, 3
    6814                      .dwcfi  cfa_offset, -4
    6815 000004d0 E200          MOV32     *SP++,STF             ; [CPU_] 
         000004d1 00BD 
    6816                      .dwcfi  save_reg_to_mem, 39, 4
    6817                      .dwcfi  save_reg_to_mem, 40, 5
    6818                      .dwcfi  cfa_offset, -6
    6819 000004d2 E630          SETFLG    RNDF32=1, RNDF64=1    ; [CPU_] 
         000004d3 0600 
    6820 000004d4 2942          CLRC      PAGE0,OVM             ; [CPU_] 
    6821 000004d5 5616          CLRC      AMODE                 ; [CPU_] 
    6822                      .dwpsn  file "C:/ti/controlSUITE/device_support/F2837xS/v170/F2837xS_common/source/F2837xS_DefaultISR
    6823 000004d6 7625        ESTOP0
    6824 000004d7       $C$L124:    
    6825                      .dwpsn  file "C:/ti/controlSUITE/device_support/F2837xS/v170/F2837xS_common/source/F2837xS_DefaultISR
    6826 000004d7 6F00          B         $C$L124,UNC           ; [CPU_] |1799| 
    6827                      ; branch occurs ; [] |1799| 
    6828                      .dwattr $C$DW$124, DW_AT_TI_end_file("C:/ti/controlSUITE/device_support/F2837xS/v170/F2837xS_common/s
    6829                      .dwattr $C$DW$124, DW_AT_TI_end_line(0x708)
    6830                      .dwattr $C$DW$124, DW_AT_TI_end_column(0x01)
    6831                      .dwendentry
    6832                      .dwendtag $C$DW$124
    6833              
    6834 000004d8               .sect   ".text:retain"
    6835                      .retain
    6836                      .retainrefs
    6837                      .global _ADCC3_ISR
    6838              
    6839              $C$DW$125       .dwtag  DW_TAG_subprogram, DW_AT_name("ADCC3_ISR")
    6840                      .dwattr $C$DW$125, DW_AT_low_pc(_ADCC3_ISR)
    6841                      .dwattr $C$DW$125, DW_AT_high_pc(0x00)
    6842                      .dwattr $C$DW$125, DW_AT_TI_symbol_name("_ADCC3_ISR")
    6843                      .dwattr $C$DW$125, DW_AT_external
    6844                      .dwattr $C$DW$125, DW_AT_TI_begin_file("C:/ti/controlSUITE/device_support/F2837xS/v170/F2837xS_common
    6845                      .dwattr $C$DW$125, DW_AT_TI_begin_line(0x70b)
    6846                      .dwattr $C$DW$125, DW_AT_TI_begin_column(0x10)
    6847                      .dwattr $C$DW$125, DW_AT_TI_interrupt
TMS320C2000 Assembler PC v6.4.2 Thu Dec 14 15:26:09 2017

Tools Copyright (c) 1996-2015 Texas Instruments Incorporated
F2837xS_DefaultISR.asm                                               PAGE  130

    6848                      .dwattr $C$DW$125, DW_AT_TI_max_frame_size(-6)
    6849                      .dwpsn  file "C:/ti/controlSUITE/device_support/F2837xS/v170/F2837xS_common/source/F2837xS_DefaultISR
    6850              
    6851                      .dwfde $C$DW$CIE, _ADCC3_ISR
    6852              
    6853              ;***************************************************************
    6854              ;* FNAME: _ADCC3_ISR                    FR SIZE:   4           *
    6855              ;*                                                             *
    6856              ;* FUNCTION ENVIRONMENT                                        *
    6857              ;*                                                             *
    6858              ;* FUNCTION PROPERTIES                                         *
    6859              ;*                            0 Parameter,  0 Auto,  4 SOE     *
    6860              ;***************************************************************
    6861              
    6862 000004d8       _ADCC3_ISR:
    6863                      .dwcfi  cfa_offset, -2
    6864                      .dwcfi  save_reg_to_mem, 26, 0
    6865 000004d8 761B          ASP       ; [CPU_] 
    6866 000004d9 FFF0          PUSH      RB                    ; [CPU_] 
    6867                      .dwcfi  save_reg_to_mem, 73, 2
    6868                      .dwcfi  save_reg_to_mem, 74, 3
    6869                      .dwcfi  cfa_offset, -4
    6870 000004da E200          MOV32     *SP++,STF             ; [CPU_] 
         000004db 00BD 
    6871                      .dwcfi  save_reg_to_mem, 39, 4
    6872                      .dwcfi  save_reg_to_mem, 40, 5
    6873                      .dwcfi  cfa_offset, -6
    6874 000004dc E630          SETFLG    RNDF32=1, RNDF64=1    ; [CPU_] 
         000004dd 0600 
    6875 000004de 2942          CLRC      PAGE0,OVM             ; [CPU_] 
    6876 000004df 5616          CLRC      AMODE                 ; [CPU_] 
    6877                      .dwpsn  file "C:/ti/controlSUITE/device_support/F2837xS/v170/F2837xS_common/source/F2837xS_DefaultISR
    6878 000004e0 7625        ESTOP0
    6879 000004e1       $C$L125:    
    6880                      .dwpsn  file "C:/ti/controlSUITE/device_support/F2837xS/v170/F2837xS_common/source/F2837xS_DefaultISR
    6881 000004e1 6F00          B         $C$L125,UNC           ; [CPU_] |1814| 
    6882                      ; branch occurs ; [] |1814| 
    6883                      .dwattr $C$DW$125, DW_AT_TI_end_file("C:/ti/controlSUITE/device_support/F2837xS/v170/F2837xS_common/s
    6884                      .dwattr $C$DW$125, DW_AT_TI_end_line(0x717)
    6885                      .dwattr $C$DW$125, DW_AT_TI_end_column(0x01)
    6886                      .dwendentry
    6887                      .dwendtag $C$DW$125
    6888              
    6889 000004e2               .sect   ".text:retain"
    6890                      .retain
    6891                      .retainrefs
    6892                      .global _ADCC4_ISR
    6893              
    6894              $C$DW$126       .dwtag  DW_TAG_subprogram, DW_AT_name("ADCC4_ISR")
    6895                      .dwattr $C$DW$126, DW_AT_low_pc(_ADCC4_ISR)
    6896                      .dwattr $C$DW$126, DW_AT_high_pc(0x00)
    6897                      .dwattr $C$DW$126, DW_AT_TI_symbol_name("_ADCC4_ISR")
    6898                      .dwattr $C$DW$126, DW_AT_external
    6899                      .dwattr $C$DW$126, DW_AT_TI_begin_file("C:/ti/controlSUITE/device_support/F2837xS/v170/F2837xS_common
    6900                      .dwattr $C$DW$126, DW_AT_TI_begin_line(0x71a)
TMS320C2000 Assembler PC v6.4.2 Thu Dec 14 15:26:09 2017

Tools Copyright (c) 1996-2015 Texas Instruments Incorporated
F2837xS_DefaultISR.asm                                               PAGE  131

    6901                      .dwattr $C$DW$126, DW_AT_TI_begin_column(0x10)
    6902                      .dwattr $C$DW$126, DW_AT_TI_interrupt
    6903                      .dwattr $C$DW$126, DW_AT_TI_max_frame_size(-6)
    6904                      .dwpsn  file "C:/ti/controlSUITE/device_support/F2837xS/v170/F2837xS_common/source/F2837xS_DefaultISR
    6905              
    6906                      .dwfde $C$DW$CIE, _ADCC4_ISR
    6907              
    6908              ;***************************************************************
    6909              ;* FNAME: _ADCC4_ISR                    FR SIZE:   4           *
    6910              ;*                                                             *
    6911              ;* FUNCTION ENVIRONMENT                                        *
    6912              ;*                                                             *
    6913              ;* FUNCTION PROPERTIES                                         *
    6914              ;*                            0 Parameter,  0 Auto,  4 SOE     *
    6915              ;***************************************************************
    6916              
    6917 000004e2       _ADCC4_ISR:
    6918                      .dwcfi  cfa_offset, -2
    6919                      .dwcfi  save_reg_to_mem, 26, 0
    6920 000004e2 761B          ASP       ; [CPU_] 
    6921 000004e3 FFF0          PUSH      RB                    ; [CPU_] 
    6922                      .dwcfi  save_reg_to_mem, 73, 2
    6923                      .dwcfi  save_reg_to_mem, 74, 3
    6924                      .dwcfi  cfa_offset, -4
    6925 000004e4 E200          MOV32     *SP++,STF             ; [CPU_] 
         000004e5 00BD 
    6926                      .dwcfi  save_reg_to_mem, 39, 4
    6927                      .dwcfi  save_reg_to_mem, 40, 5
    6928                      .dwcfi  cfa_offset, -6
    6929 000004e6 E630          SETFLG    RNDF32=1, RNDF64=1    ; [CPU_] 
         000004e7 0600 
    6930 000004e8 2942          CLRC      PAGE0,OVM             ; [CPU_] 
    6931 000004e9 5616          CLRC      AMODE                 ; [CPU_] 
    6932                      .dwpsn  file "C:/ti/controlSUITE/device_support/F2837xS/v170/F2837xS_common/source/F2837xS_DefaultISR
    6933 000004ea 7625        ESTOP0
    6934 000004eb       $C$L126:    
    6935                      .dwpsn  file "C:/ti/controlSUITE/device_support/F2837xS/v170/F2837xS_common/source/F2837xS_DefaultISR
    6936 000004eb 6F00          B         $C$L126,UNC           ; [CPU_] |1829| 
    6937                      ; branch occurs ; [] |1829| 
    6938                      .dwattr $C$DW$126, DW_AT_TI_end_file("C:/ti/controlSUITE/device_support/F2837xS/v170/F2837xS_common/s
    6939                      .dwattr $C$DW$126, DW_AT_TI_end_line(0x726)
    6940                      .dwattr $C$DW$126, DW_AT_TI_end_column(0x01)
    6941                      .dwendentry
    6942                      .dwendtag $C$DW$126
    6943              
    6944 000004ec               .sect   ".text:retain"
    6945                      .retain
    6946                      .retainrefs
    6947                      .global _ADCD_EVT_ISR
    6948              
    6949              $C$DW$127       .dwtag  DW_TAG_subprogram, DW_AT_name("ADCD_EVT_ISR")
    6950                      .dwattr $C$DW$127, DW_AT_low_pc(_ADCD_EVT_ISR)
    6951                      .dwattr $C$DW$127, DW_AT_high_pc(0x00)
    6952                      .dwattr $C$DW$127, DW_AT_TI_symbol_name("_ADCD_EVT_ISR")
    6953                      .dwattr $C$DW$127, DW_AT_external
TMS320C2000 Assembler PC v6.4.2 Thu Dec 14 15:26:09 2017

Tools Copyright (c) 1996-2015 Texas Instruments Incorporated
F2837xS_DefaultISR.asm                                               PAGE  132

    6954                      .dwattr $C$DW$127, DW_AT_TI_begin_file("C:/ti/controlSUITE/device_support/F2837xS/v170/F2837xS_common
    6955                      .dwattr $C$DW$127, DW_AT_TI_begin_line(0x729)
    6956                      .dwattr $C$DW$127, DW_AT_TI_begin_column(0x10)
    6957                      .dwattr $C$DW$127, DW_AT_TI_interrupt
    6958                      .dwattr $C$DW$127, DW_AT_TI_max_frame_size(-6)
    6959                      .dwpsn  file "C:/ti/controlSUITE/device_support/F2837xS/v170/F2837xS_common/source/F2837xS_DefaultISR
    6960              
    6961                      .dwfde $C$DW$CIE, _ADCD_EVT_ISR
    6962              
    6963              ;***************************************************************
    6964              ;* FNAME: _ADCD_EVT_ISR                 FR SIZE:   4           *
    6965              ;*                                                             *
    6966              ;* FUNCTION ENVIRONMENT                                        *
    6967              ;*                                                             *
    6968              ;* FUNCTION PROPERTIES                                         *
    6969              ;*                            0 Parameter,  0 Auto,  4 SOE     *
    6970              ;***************************************************************
    6971              
    6972 000004ec       _ADCD_EVT_ISR:
    6973                      .dwcfi  cfa_offset, -2
    6974                      .dwcfi  save_reg_to_mem, 26, 0
    6975 000004ec 761B          ASP       ; [CPU_] 
    6976 000004ed FFF0          PUSH      RB                    ; [CPU_] 
    6977                      .dwcfi  save_reg_to_mem, 73, 2
    6978                      .dwcfi  save_reg_to_mem, 74, 3
    6979                      .dwcfi  cfa_offset, -4
    6980 000004ee E200          MOV32     *SP++,STF             ; [CPU_] 
         000004ef 00BD 
    6981                      .dwcfi  save_reg_to_mem, 39, 4
    6982                      .dwcfi  save_reg_to_mem, 40, 5
    6983                      .dwcfi  cfa_offset, -6
    6984 000004f0 E630          SETFLG    RNDF32=1, RNDF64=1    ; [CPU_] 
         000004f1 0600 
    6985 000004f2 2942          CLRC      PAGE0,OVM             ; [CPU_] 
    6986 000004f3 5616          CLRC      AMODE                 ; [CPU_] 
    6987                      .dwpsn  file "C:/ti/controlSUITE/device_support/F2837xS/v170/F2837xS_common/source/F2837xS_DefaultISR
    6988 000004f4 7625        ESTOP0
    6989 000004f5       $C$L127:    
    6990                      .dwpsn  file "C:/ti/controlSUITE/device_support/F2837xS/v170/F2837xS_common/source/F2837xS_DefaultISR
    6991 000004f5 6F00          B         $C$L127,UNC           ; [CPU_] |1844| 
    6992                      ; branch occurs ; [] |1844| 
    6993                      .dwattr $C$DW$127, DW_AT_TI_end_file("C:/ti/controlSUITE/device_support/F2837xS/v170/F2837xS_common/s
    6994                      .dwattr $C$DW$127, DW_AT_TI_end_line(0x735)
    6995                      .dwattr $C$DW$127, DW_AT_TI_end_column(0x01)
    6996                      .dwendentry
    6997                      .dwendtag $C$DW$127
    6998              
    6999 000004f6               .sect   ".text:retain"
    7000                      .retain
    7001                      .retainrefs
    7002                      .global _ADCD2_ISR
    7003              
    7004              $C$DW$128       .dwtag  DW_TAG_subprogram, DW_AT_name("ADCD2_ISR")
    7005                      .dwattr $C$DW$128, DW_AT_low_pc(_ADCD2_ISR)
    7006                      .dwattr $C$DW$128, DW_AT_high_pc(0x00)
TMS320C2000 Assembler PC v6.4.2 Thu Dec 14 15:26:09 2017

Tools Copyright (c) 1996-2015 Texas Instruments Incorporated
F2837xS_DefaultISR.asm                                               PAGE  133

    7007                      .dwattr $C$DW$128, DW_AT_TI_symbol_name("_ADCD2_ISR")
    7008                      .dwattr $C$DW$128, DW_AT_external
    7009                      .dwattr $C$DW$128, DW_AT_TI_begin_file("C:/ti/controlSUITE/device_support/F2837xS/v170/F2837xS_common
    7010                      .dwattr $C$DW$128, DW_AT_TI_begin_line(0x738)
    7011                      .dwattr $C$DW$128, DW_AT_TI_begin_column(0x10)
    7012                      .dwattr $C$DW$128, DW_AT_TI_interrupt
    7013                      .dwattr $C$DW$128, DW_AT_TI_max_frame_size(-6)
    7014                      .dwpsn  file "C:/ti/controlSUITE/device_support/F2837xS/v170/F2837xS_common/source/F2837xS_DefaultISR
    7015              
    7016                      .dwfde $C$DW$CIE, _ADCD2_ISR
    7017              
    7018              ;***************************************************************
    7019              ;* FNAME: _ADCD2_ISR                    FR SIZE:   4           *
    7020              ;*                                                             *
    7021              ;* FUNCTION ENVIRONMENT                                        *
    7022              ;*                                                             *
    7023              ;* FUNCTION PROPERTIES                                         *
    7024              ;*                            0 Parameter,  0 Auto,  4 SOE     *
    7025              ;***************************************************************
    7026              
    7027 000004f6       _ADCD2_ISR:
    7028                      .dwcfi  cfa_offset, -2
    7029                      .dwcfi  save_reg_to_mem, 26, 0
    7030 000004f6 761B          ASP       ; [CPU_] 
    7031 000004f7 FFF0          PUSH      RB                    ; [CPU_] 
    7032                      .dwcfi  save_reg_to_mem, 73, 2
    7033                      .dwcfi  save_reg_to_mem, 74, 3
    7034                      .dwcfi  cfa_offset, -4
    7035 000004f8 E200          MOV32     *SP++,STF             ; [CPU_] 
         000004f9 00BD 
    7036                      .dwcfi  save_reg_to_mem, 39, 4
    7037                      .dwcfi  save_reg_to_mem, 40, 5
    7038                      .dwcfi  cfa_offset, -6
    7039 000004fa E630          SETFLG    RNDF32=1, RNDF64=1    ; [CPU_] 
         000004fb 0600 
    7040 000004fc 2942          CLRC      PAGE0,OVM             ; [CPU_] 
    7041 000004fd 5616          CLRC      AMODE                 ; [CPU_] 
    7042                      .dwpsn  file "C:/ti/controlSUITE/device_support/F2837xS/v170/F2837xS_common/source/F2837xS_DefaultISR
    7043 000004fe 7625        ESTOP0
    7044 000004ff       $C$L128:    
    7045                      .dwpsn  file "C:/ti/controlSUITE/device_support/F2837xS/v170/F2837xS_common/source/F2837xS_DefaultISR
    7046 000004ff 6F00          B         $C$L128,UNC           ; [CPU_] |1859| 
    7047                      ; branch occurs ; [] |1859| 
    7048                      .dwattr $C$DW$128, DW_AT_TI_end_file("C:/ti/controlSUITE/device_support/F2837xS/v170/F2837xS_common/s
    7049                      .dwattr $C$DW$128, DW_AT_TI_end_line(0x744)
    7050                      .dwattr $C$DW$128, DW_AT_TI_end_column(0x01)
    7051                      .dwendentry
    7052                      .dwendtag $C$DW$128
    7053              
    7054 00000500               .sect   ".text:retain"
    7055                      .retain
    7056                      .retainrefs
    7057                      .global _ADCD3_ISR
    7058              
    7059              $C$DW$129       .dwtag  DW_TAG_subprogram, DW_AT_name("ADCD3_ISR")
TMS320C2000 Assembler PC v6.4.2 Thu Dec 14 15:26:09 2017

Tools Copyright (c) 1996-2015 Texas Instruments Incorporated
F2837xS_DefaultISR.asm                                               PAGE  134

    7060                      .dwattr $C$DW$129, DW_AT_low_pc(_ADCD3_ISR)
    7061                      .dwattr $C$DW$129, DW_AT_high_pc(0x00)
    7062                      .dwattr $C$DW$129, DW_AT_TI_symbol_name("_ADCD3_ISR")
    7063                      .dwattr $C$DW$129, DW_AT_external
    7064                      .dwattr $C$DW$129, DW_AT_TI_begin_file("C:/ti/controlSUITE/device_support/F2837xS/v170/F2837xS_common
    7065                      .dwattr $C$DW$129, DW_AT_TI_begin_line(0x747)
    7066                      .dwattr $C$DW$129, DW_AT_TI_begin_column(0x10)
    7067                      .dwattr $C$DW$129, DW_AT_TI_interrupt
    7068                      .dwattr $C$DW$129, DW_AT_TI_max_frame_size(-6)
    7069                      .dwpsn  file "C:/ti/controlSUITE/device_support/F2837xS/v170/F2837xS_common/source/F2837xS_DefaultISR
    7070              
    7071                      .dwfde $C$DW$CIE, _ADCD3_ISR
    7072              
    7073              ;***************************************************************
    7074              ;* FNAME: _ADCD3_ISR                    FR SIZE:   4           *
    7075              ;*                                                             *
    7076              ;* FUNCTION ENVIRONMENT                                        *
    7077              ;*                                                             *
    7078              ;* FUNCTION PROPERTIES                                         *
    7079              ;*                            0 Parameter,  0 Auto,  4 SOE     *
    7080              ;***************************************************************
    7081              
    7082 00000500       _ADCD3_ISR:
    7083                      .dwcfi  cfa_offset, -2
    7084                      .dwcfi  save_reg_to_mem, 26, 0
    7085 00000500 761B          ASP       ; [CPU_] 
    7086 00000501 FFF0          PUSH      RB                    ; [CPU_] 
    7087                      .dwcfi  save_reg_to_mem, 73, 2
    7088                      .dwcfi  save_reg_to_mem, 74, 3
    7089                      .dwcfi  cfa_offset, -4
    7090 00000502 E200          MOV32     *SP++,STF             ; [CPU_] 
         00000503 00BD 
    7091                      .dwcfi  save_reg_to_mem, 39, 4
    7092                      .dwcfi  save_reg_to_mem, 40, 5
    7093                      .dwcfi  cfa_offset, -6
    7094 00000504 E630          SETFLG    RNDF32=1, RNDF64=1    ; [CPU_] 
         00000505 0600 
    7095 00000506 2942          CLRC      PAGE0,OVM             ; [CPU_] 
    7096 00000507 5616          CLRC      AMODE                 ; [CPU_] 
    7097                      .dwpsn  file "C:/ti/controlSUITE/device_support/F2837xS/v170/F2837xS_common/source/F2837xS_DefaultISR
    7098 00000508 7625        ESTOP0
    7099 00000509       $C$L129:    
    7100                      .dwpsn  file "C:/ti/controlSUITE/device_support/F2837xS/v170/F2837xS_common/source/F2837xS_DefaultISR
    7101 00000509 6F00          B         $C$L129,UNC           ; [CPU_] |1874| 
    7102                      ; branch occurs ; [] |1874| 
    7103                      .dwattr $C$DW$129, DW_AT_TI_end_file("C:/ti/controlSUITE/device_support/F2837xS/v170/F2837xS_common/s
    7104                      .dwattr $C$DW$129, DW_AT_TI_end_line(0x753)
    7105                      .dwattr $C$DW$129, DW_AT_TI_end_column(0x01)
    7106                      .dwendentry
    7107                      .dwendtag $C$DW$129
    7108              
    7109 0000050a               .sect   ".text:retain"
    7110                      .retain
    7111                      .retainrefs
    7112                      .global _ADCD4_ISR
TMS320C2000 Assembler PC v6.4.2 Thu Dec 14 15:26:09 2017

Tools Copyright (c) 1996-2015 Texas Instruments Incorporated
F2837xS_DefaultISR.asm                                               PAGE  135

    7113              
    7114              $C$DW$130       .dwtag  DW_TAG_subprogram, DW_AT_name("ADCD4_ISR")
    7115                      .dwattr $C$DW$130, DW_AT_low_pc(_ADCD4_ISR)
    7116                      .dwattr $C$DW$130, DW_AT_high_pc(0x00)
    7117                      .dwattr $C$DW$130, DW_AT_TI_symbol_name("_ADCD4_ISR")
    7118                      .dwattr $C$DW$130, DW_AT_external
    7119                      .dwattr $C$DW$130, DW_AT_TI_begin_file("C:/ti/controlSUITE/device_support/F2837xS/v170/F2837xS_common
    7120                      .dwattr $C$DW$130, DW_AT_TI_begin_line(0x756)
    7121                      .dwattr $C$DW$130, DW_AT_TI_begin_column(0x10)
    7122                      .dwattr $C$DW$130, DW_AT_TI_interrupt
    7123                      .dwattr $C$DW$130, DW_AT_TI_max_frame_size(-6)
    7124                      .dwpsn  file "C:/ti/controlSUITE/device_support/F2837xS/v170/F2837xS_common/source/F2837xS_DefaultISR
    7125              
    7126                      .dwfde $C$DW$CIE, _ADCD4_ISR
    7127              
    7128              ;***************************************************************
    7129              ;* FNAME: _ADCD4_ISR                    FR SIZE:   4           *
    7130              ;*                                                             *
    7131              ;* FUNCTION ENVIRONMENT                                        *
    7132              ;*                                                             *
    7133              ;* FUNCTION PROPERTIES                                         *
    7134              ;*                            0 Parameter,  0 Auto,  4 SOE     *
    7135              ;***************************************************************
    7136              
    7137 0000050a       _ADCD4_ISR:
    7138                      .dwcfi  cfa_offset, -2
    7139                      .dwcfi  save_reg_to_mem, 26, 0
    7140 0000050a 761B          ASP       ; [CPU_] 
    7141 0000050b FFF0          PUSH      RB                    ; [CPU_] 
    7142                      .dwcfi  save_reg_to_mem, 73, 2
    7143                      .dwcfi  save_reg_to_mem, 74, 3
    7144                      .dwcfi  cfa_offset, -4
    7145 0000050c E200          MOV32     *SP++,STF             ; [CPU_] 
         0000050d 00BD 
    7146                      .dwcfi  save_reg_to_mem, 39, 4
    7147                      .dwcfi  save_reg_to_mem, 40, 5
    7148                      .dwcfi  cfa_offset, -6
    7149 0000050e E630          SETFLG    RNDF32=1, RNDF64=1    ; [CPU_] 
         0000050f 0600 
    7150 00000510 2942          CLRC      PAGE0,OVM             ; [CPU_] 
    7151 00000511 5616          CLRC      AMODE                 ; [CPU_] 
    7152                      .dwpsn  file "C:/ti/controlSUITE/device_support/F2837xS/v170/F2837xS_common/source/F2837xS_DefaultISR
    7153 00000512 7625        ESTOP0
    7154 00000513       $C$L130:    
    7155                      .dwpsn  file "C:/ti/controlSUITE/device_support/F2837xS/v170/F2837xS_common/source/F2837xS_DefaultISR
    7156 00000513 6F00          B         $C$L130,UNC           ; [CPU_] |1889| 
    7157                      ; branch occurs ; [] |1889| 
    7158                      .dwattr $C$DW$130, DW_AT_TI_end_file("C:/ti/controlSUITE/device_support/F2837xS/v170/F2837xS_common/s
    7159                      .dwattr $C$DW$130, DW_AT_TI_end_line(0x762)
    7160                      .dwattr $C$DW$130, DW_AT_TI_end_column(0x01)
    7161                      .dwendentry
    7162                      .dwendtag $C$DW$130
    7163              
    7164 00000514               .sect   ".text:retain"
    7165                      .retain
TMS320C2000 Assembler PC v6.4.2 Thu Dec 14 15:26:09 2017

Tools Copyright (c) 1996-2015 Texas Instruments Incorporated
F2837xS_DefaultISR.asm                                               PAGE  136

    7166                      .retainrefs
    7167                      .global _EMIF_ERROR_ISR
    7168              
    7169              $C$DW$131       .dwtag  DW_TAG_subprogram, DW_AT_name("EMIF_ERROR_ISR")
    7170                      .dwattr $C$DW$131, DW_AT_low_pc(_EMIF_ERROR_ISR)
    7171                      .dwattr $C$DW$131, DW_AT_high_pc(0x00)
    7172                      .dwattr $C$DW$131, DW_AT_TI_symbol_name("_EMIF_ERROR_ISR")
    7173                      .dwattr $C$DW$131, DW_AT_external
    7174                      .dwattr $C$DW$131, DW_AT_TI_begin_file("C:/ti/controlSUITE/device_support/F2837xS/v170/F2837xS_common
    7175                      .dwattr $C$DW$131, DW_AT_TI_begin_line(0x765)
    7176                      .dwattr $C$DW$131, DW_AT_TI_begin_column(0x10)
    7177                      .dwattr $C$DW$131, DW_AT_TI_interrupt
    7178                      .dwattr $C$DW$131, DW_AT_TI_max_frame_size(-6)
    7179                      .dwpsn  file "C:/ti/controlSUITE/device_support/F2837xS/v170/F2837xS_common/source/F2837xS_DefaultISR
    7180              
    7181                      .dwfde $C$DW$CIE, _EMIF_ERROR_ISR
    7182              
    7183              ;***************************************************************
    7184              ;* FNAME: _EMIF_ERROR_ISR               FR SIZE:   4           *
    7185              ;*                                                             *
    7186              ;* FUNCTION ENVIRONMENT                                        *
    7187              ;*                                                             *
    7188              ;* FUNCTION PROPERTIES                                         *
    7189              ;*                            0 Parameter,  0 Auto,  4 SOE     *
    7190              ;***************************************************************
    7191              
    7192 00000514       _EMIF_ERROR_ISR:
    7193                      .dwcfi  cfa_offset, -2
    7194                      .dwcfi  save_reg_to_mem, 26, 0
    7195 00000514 761B          ASP       ; [CPU_] 
    7196 00000515 FFF0          PUSH      RB                    ; [CPU_] 
    7197                      .dwcfi  save_reg_to_mem, 73, 2
    7198                      .dwcfi  save_reg_to_mem, 74, 3
    7199                      .dwcfi  cfa_offset, -4
    7200 00000516 E200          MOV32     *SP++,STF             ; [CPU_] 
         00000517 00BD 
    7201                      .dwcfi  save_reg_to_mem, 39, 4
    7202                      .dwcfi  save_reg_to_mem, 40, 5
    7203                      .dwcfi  cfa_offset, -6
    7204 00000518 E630          SETFLG    RNDF32=1, RNDF64=1    ; [CPU_] 
         00000519 0600 
    7205 0000051a 2942          CLRC      PAGE0,OVM             ; [CPU_] 
    7206 0000051b 5616          CLRC      AMODE                 ; [CPU_] 
    7207                      .dwpsn  file "C:/ti/controlSUITE/device_support/F2837xS/v170/F2837xS_common/source/F2837xS_DefaultISR
    7208 0000051c 7625        ESTOP0
    7209 0000051d       $C$L131:    
    7210                      .dwpsn  file "C:/ti/controlSUITE/device_support/F2837xS/v170/F2837xS_common/source/F2837xS_DefaultISR
    7211 0000051d 6F00          B         $C$L131,UNC           ; [CPU_] |1904| 
    7212                      ; branch occurs ; [] |1904| 
    7213                      .dwattr $C$DW$131, DW_AT_TI_end_file("C:/ti/controlSUITE/device_support/F2837xS/v170/F2837xS_common/s
    7214                      .dwattr $C$DW$131, DW_AT_TI_end_line(0x771)
    7215                      .dwattr $C$DW$131, DW_AT_TI_end_column(0x01)
    7216                      .dwendentry
    7217                      .dwendtag $C$DW$131
    7218              
TMS320C2000 Assembler PC v6.4.2 Thu Dec 14 15:26:09 2017

Tools Copyright (c) 1996-2015 Texas Instruments Incorporated
F2837xS_DefaultISR.asm                                               PAGE  137

    7219 0000051e               .sect   ".text:retain"
    7220                      .retain
    7221                      .retainrefs
    7222                      .global _RAM_CORRECTABLE_ERROR_ISR
    7223              
    7224              $C$DW$132       .dwtag  DW_TAG_subprogram, DW_AT_name("RAM_CORRECTABLE_ERROR_ISR")
    7225                      .dwattr $C$DW$132, DW_AT_low_pc(_RAM_CORRECTABLE_ERROR_ISR)
    7226                      .dwattr $C$DW$132, DW_AT_high_pc(0x00)
    7227                      .dwattr $C$DW$132, DW_AT_TI_symbol_name("_RAM_CORRECTABLE_ERROR_ISR")
    7228                      .dwattr $C$DW$132, DW_AT_external
    7229                      .dwattr $C$DW$132, DW_AT_TI_begin_file("C:/ti/controlSUITE/device_support/F2837xS/v170/F2837xS_common
    7230                      .dwattr $C$DW$132, DW_AT_TI_begin_line(0x774)
    7231                      .dwattr $C$DW$132, DW_AT_TI_begin_column(0x10)
    7232                      .dwattr $C$DW$132, DW_AT_TI_interrupt
    7233                      .dwattr $C$DW$132, DW_AT_TI_max_frame_size(-6)
    7234                      .dwpsn  file "C:/ti/controlSUITE/device_support/F2837xS/v170/F2837xS_common/source/F2837xS_DefaultISR
    7235              
    7236                      .dwfde $C$DW$CIE, _RAM_CORRECTABLE_ERROR_ISR
    7237              
    7238              ;***************************************************************
    7239              ;* FNAME: _RAM_CORRECTABLE_ERROR_ISR    FR SIZE:   4           *
    7240              ;*                                                             *
    7241              ;* FUNCTION ENVIRONMENT                                        *
    7242              ;*                                                             *
    7243              ;* FUNCTION PROPERTIES                                         *
    7244              ;*                            0 Parameter,  0 Auto,  4 SOE     *
    7245              ;***************************************************************
    7246              
    7247 0000051e       _RAM_CORRECTABLE_ERROR_ISR:
    7248                      .dwcfi  cfa_offset, -2
    7249                      .dwcfi  save_reg_to_mem, 26, 0
    7250 0000051e 761B          ASP       ; [CPU_] 
    7251 0000051f FFF0          PUSH      RB                    ; [CPU_] 
    7252                      .dwcfi  save_reg_to_mem, 73, 2
    7253                      .dwcfi  save_reg_to_mem, 74, 3
    7254                      .dwcfi  cfa_offset, -4
    7255 00000520 E200          MOV32     *SP++,STF             ; [CPU_] 
         00000521 00BD 
    7256                      .dwcfi  save_reg_to_mem, 39, 4
    7257                      .dwcfi  save_reg_to_mem, 40, 5
    7258                      .dwcfi  cfa_offset, -6
    7259 00000522 E630          SETFLG    RNDF32=1, RNDF64=1    ; [CPU_] 
         00000523 0600 
    7260 00000524 2942          CLRC      PAGE0,OVM             ; [CPU_] 
    7261 00000525 5616          CLRC      AMODE                 ; [CPU_] 
    7262                      .dwpsn  file "C:/ti/controlSUITE/device_support/F2837xS/v170/F2837xS_common/source/F2837xS_DefaultISR
    7263 00000526 7625        ESTOP0
    7264 00000527       $C$L132:    
    7265                      .dwpsn  file "C:/ti/controlSUITE/device_support/F2837xS/v170/F2837xS_common/source/F2837xS_DefaultISR
    7266 00000527 6F00          B         $C$L132,UNC           ; [CPU_] |1919| 
    7267                      ; branch occurs ; [] |1919| 
    7268                      .dwattr $C$DW$132, DW_AT_TI_end_file("C:/ti/controlSUITE/device_support/F2837xS/v170/F2837xS_common/s
    7269                      .dwattr $C$DW$132, DW_AT_TI_end_line(0x780)
    7270                      .dwattr $C$DW$132, DW_AT_TI_end_column(0x01)
    7271                      .dwendentry
TMS320C2000 Assembler PC v6.4.2 Thu Dec 14 15:26:09 2017

Tools Copyright (c) 1996-2015 Texas Instruments Incorporated
F2837xS_DefaultISR.asm                                               PAGE  138

    7272                      .dwendtag $C$DW$132
    7273              
    7274 00000528               .sect   ".text:retain"
    7275                      .retain
    7276                      .retainrefs
    7277                      .global _FLASH_CORRECTABLE_ERROR_ISR
    7278              
    7279              $C$DW$133       .dwtag  DW_TAG_subprogram, DW_AT_name("FLASH_CORRECTABLE_ERROR_ISR")
    7280                      .dwattr $C$DW$133, DW_AT_low_pc(_FLASH_CORRECTABLE_ERROR_ISR)
    7281                      .dwattr $C$DW$133, DW_AT_high_pc(0x00)
    7282                      .dwattr $C$DW$133, DW_AT_TI_symbol_name("_FLASH_CORRECTABLE_ERROR_ISR")
    7283                      .dwattr $C$DW$133, DW_AT_external
    7284                      .dwattr $C$DW$133, DW_AT_TI_begin_file("C:/ti/controlSUITE/device_support/F2837xS/v170/F2837xS_common
    7285                      .dwattr $C$DW$133, DW_AT_TI_begin_line(0x783)
    7286                      .dwattr $C$DW$133, DW_AT_TI_begin_column(0x10)
    7287                      .dwattr $C$DW$133, DW_AT_TI_interrupt
    7288                      .dwattr $C$DW$133, DW_AT_TI_max_frame_size(-6)
    7289                      .dwpsn  file "C:/ti/controlSUITE/device_support/F2837xS/v170/F2837xS_common/source/F2837xS_DefaultISR
    7290              
    7291                      .dwfde $C$DW$CIE, _FLASH_CORRECTABLE_ERROR_ISR
    7292              
    7293              ;***************************************************************
    7294              ;* FNAME: _FLASH_CORRECTABLE_ERROR_ISR  FR SIZE:   4           *
    7295              ;*                                                             *
    7296              ;* FUNCTION ENVIRONMENT                                        *
    7297              ;*                                                             *
    7298              ;* FUNCTION PROPERTIES                                         *
    7299              ;*                            0 Parameter,  0 Auto,  4 SOE     *
    7300              ;***************************************************************
    7301              
    7302 00000528       _FLASH_CORRECTABLE_ERROR_ISR:
    7303                      .dwcfi  cfa_offset, -2
    7304                      .dwcfi  save_reg_to_mem, 26, 0
    7305 00000528 761B          ASP       ; [CPU_] 
    7306 00000529 FFF0          PUSH      RB                    ; [CPU_] 
    7307                      .dwcfi  save_reg_to_mem, 73, 2
    7308                      .dwcfi  save_reg_to_mem, 74, 3
    7309                      .dwcfi  cfa_offset, -4
    7310 0000052a E200          MOV32     *SP++,STF             ; [CPU_] 
         0000052b 00BD 
    7311                      .dwcfi  save_reg_to_mem, 39, 4
    7312                      .dwcfi  save_reg_to_mem, 40, 5
    7313                      .dwcfi  cfa_offset, -6
    7314 0000052c E630          SETFLG    RNDF32=1, RNDF64=1    ; [CPU_] 
         0000052d 0600 
    7315 0000052e 2942          CLRC      PAGE0,OVM             ; [CPU_] 
    7316 0000052f 5616          CLRC      AMODE                 ; [CPU_] 
    7317                      .dwpsn  file "C:/ti/controlSUITE/device_support/F2837xS/v170/F2837xS_common/source/F2837xS_DefaultISR
    7318 00000530 7625        ESTOP0
    7319 00000531       $C$L133:    
    7320                      .dwpsn  file "C:/ti/controlSUITE/device_support/F2837xS/v170/F2837xS_common/source/F2837xS_DefaultISR
    7321 00000531 6F00          B         $C$L133,UNC           ; [CPU_] |1934| 
    7322                      ; branch occurs ; [] |1934| 
    7323                      .dwattr $C$DW$133, DW_AT_TI_end_file("C:/ti/controlSUITE/device_support/F2837xS/v170/F2837xS_common/s
    7324                      .dwattr $C$DW$133, DW_AT_TI_end_line(0x78f)
TMS320C2000 Assembler PC v6.4.2 Thu Dec 14 15:26:09 2017

Tools Copyright (c) 1996-2015 Texas Instruments Incorporated
F2837xS_DefaultISR.asm                                               PAGE  139

    7325                      .dwattr $C$DW$133, DW_AT_TI_end_column(0x01)
    7326                      .dwendentry
    7327                      .dwendtag $C$DW$133
    7328              
    7329 00000532               .sect   ".text:retain"
    7330                      .retain
    7331                      .retainrefs
    7332                      .global _RAM_ACCESS_VIOLATION_ISR
    7333              
    7334              $C$DW$134       .dwtag  DW_TAG_subprogram, DW_AT_name("RAM_ACCESS_VIOLATION_ISR")
    7335                      .dwattr $C$DW$134, DW_AT_low_pc(_RAM_ACCESS_VIOLATION_ISR)
    7336                      .dwattr $C$DW$134, DW_AT_high_pc(0x00)
    7337                      .dwattr $C$DW$134, DW_AT_TI_symbol_name("_RAM_ACCESS_VIOLATION_ISR")
    7338                      .dwattr $C$DW$134, DW_AT_external
    7339                      .dwattr $C$DW$134, DW_AT_TI_begin_file("C:/ti/controlSUITE/device_support/F2837xS/v170/F2837xS_common
    7340                      .dwattr $C$DW$134, DW_AT_TI_begin_line(0x792)
    7341                      .dwattr $C$DW$134, DW_AT_TI_begin_column(0x10)
    7342                      .dwattr $C$DW$134, DW_AT_TI_interrupt
    7343                      .dwattr $C$DW$134, DW_AT_TI_max_frame_size(-6)
    7344                      .dwpsn  file "C:/ti/controlSUITE/device_support/F2837xS/v170/F2837xS_common/source/F2837xS_DefaultISR
    7345              
    7346                      .dwfde $C$DW$CIE, _RAM_ACCESS_VIOLATION_ISR
    7347              
    7348              ;***************************************************************
    7349              ;* FNAME: _RAM_ACCESS_VIOLATION_ISR     FR SIZE:   4           *
    7350              ;*                                                             *
    7351              ;* FUNCTION ENVIRONMENT                                        *
    7352              ;*                                                             *
    7353              ;* FUNCTION PROPERTIES                                         *
    7354              ;*                            0 Parameter,  0 Auto,  4 SOE     *
    7355              ;***************************************************************
    7356              
    7357 00000532       _RAM_ACCESS_VIOLATION_ISR:
    7358                      .dwcfi  cfa_offset, -2
    7359                      .dwcfi  save_reg_to_mem, 26, 0
    7360 00000532 761B          ASP       ; [CPU_] 
    7361 00000533 FFF0          PUSH      RB                    ; [CPU_] 
    7362                      .dwcfi  save_reg_to_mem, 73, 2
    7363                      .dwcfi  save_reg_to_mem, 74, 3
    7364                      .dwcfi  cfa_offset, -4
    7365 00000534 E200          MOV32     *SP++,STF             ; [CPU_] 
         00000535 00BD 
    7366                      .dwcfi  save_reg_to_mem, 39, 4
    7367                      .dwcfi  save_reg_to_mem, 40, 5
    7368                      .dwcfi  cfa_offset, -6
    7369 00000536 E630          SETFLG    RNDF32=1, RNDF64=1    ; [CPU_] 
         00000537 0600 
    7370 00000538 2942          CLRC      PAGE0,OVM             ; [CPU_] 
    7371 00000539 5616          CLRC      AMODE                 ; [CPU_] 
    7372                      .dwpsn  file "C:/ti/controlSUITE/device_support/F2837xS/v170/F2837xS_common/source/F2837xS_DefaultISR
    7373 0000053a 7625        ESTOP0
    7374 0000053b       $C$L134:    
    7375                      .dwpsn  file "C:/ti/controlSUITE/device_support/F2837xS/v170/F2837xS_common/source/F2837xS_DefaultISR
    7376 0000053b 6F00          B         $C$L134,UNC           ; [CPU_] |1949| 
    7377                      ; branch occurs ; [] |1949| 
TMS320C2000 Assembler PC v6.4.2 Thu Dec 14 15:26:09 2017

Tools Copyright (c) 1996-2015 Texas Instruments Incorporated
F2837xS_DefaultISR.asm                                               PAGE  140

    7378                      .dwattr $C$DW$134, DW_AT_TI_end_file("C:/ti/controlSUITE/device_support/F2837xS/v170/F2837xS_common/s
    7379                      .dwattr $C$DW$134, DW_AT_TI_end_line(0x79e)
    7380                      .dwattr $C$DW$134, DW_AT_TI_end_column(0x01)
    7381                      .dwendentry
    7382                      .dwendtag $C$DW$134
    7383              
    7384 0000053c               .sect   ".text:retain"
    7385                      .retain
    7386                      .retainrefs
    7387                      .global _SYS_PLL_SLIP_ISR
    7388              
    7389              $C$DW$135       .dwtag  DW_TAG_subprogram, DW_AT_name("SYS_PLL_SLIP_ISR")
    7390                      .dwattr $C$DW$135, DW_AT_low_pc(_SYS_PLL_SLIP_ISR)
    7391                      .dwattr $C$DW$135, DW_AT_high_pc(0x00)
    7392                      .dwattr $C$DW$135, DW_AT_TI_symbol_name("_SYS_PLL_SLIP_ISR")
    7393                      .dwattr $C$DW$135, DW_AT_external
    7394                      .dwattr $C$DW$135, DW_AT_TI_begin_file("C:/ti/controlSUITE/device_support/F2837xS/v170/F2837xS_common
    7395                      .dwattr $C$DW$135, DW_AT_TI_begin_line(0x7a1)
    7396                      .dwattr $C$DW$135, DW_AT_TI_begin_column(0x10)
    7397                      .dwattr $C$DW$135, DW_AT_TI_interrupt
    7398                      .dwattr $C$DW$135, DW_AT_TI_max_frame_size(-6)
    7399                      .dwpsn  file "C:/ti/controlSUITE/device_support/F2837xS/v170/F2837xS_common/source/F2837xS_DefaultISR
    7400              
    7401                      .dwfde $C$DW$CIE, _SYS_PLL_SLIP_ISR
    7402              
    7403              ;***************************************************************
    7404              ;* FNAME: _SYS_PLL_SLIP_ISR             FR SIZE:   4           *
    7405              ;*                                                             *
    7406              ;* FUNCTION ENVIRONMENT                                        *
    7407              ;*                                                             *
    7408              ;* FUNCTION PROPERTIES                                         *
    7409              ;*                            0 Parameter,  0 Auto,  4 SOE     *
    7410              ;***************************************************************
    7411              
    7412 0000053c       _SYS_PLL_SLIP_ISR:
    7413                      .dwcfi  cfa_offset, -2
    7414                      .dwcfi  save_reg_to_mem, 26, 0
    7415 0000053c 761B          ASP       ; [CPU_] 
    7416 0000053d FFF0          PUSH      RB                    ; [CPU_] 
    7417                      .dwcfi  save_reg_to_mem, 73, 2
    7418                      .dwcfi  save_reg_to_mem, 74, 3
    7419                      .dwcfi  cfa_offset, -4
    7420 0000053e E200          MOV32     *SP++,STF             ; [CPU_] 
         0000053f 00BD 
    7421                      .dwcfi  save_reg_to_mem, 39, 4
    7422                      .dwcfi  save_reg_to_mem, 40, 5
    7423                      .dwcfi  cfa_offset, -6
    7424 00000540 E630          SETFLG    RNDF32=1, RNDF64=1    ; [CPU_] 
         00000541 0600 
    7425 00000542 2942          CLRC      PAGE0,OVM             ; [CPU_] 
    7426 00000543 5616          CLRC      AMODE                 ; [CPU_] 
    7427                      .dwpsn  file "C:/ti/controlSUITE/device_support/F2837xS/v170/F2837xS_common/source/F2837xS_DefaultISR
    7428 00000544 7625        ESTOP0
    7429 00000545       $C$L135:    
    7430                      .dwpsn  file "C:/ti/controlSUITE/device_support/F2837xS/v170/F2837xS_common/source/F2837xS_DefaultISR
TMS320C2000 Assembler PC v6.4.2 Thu Dec 14 15:26:09 2017

Tools Copyright (c) 1996-2015 Texas Instruments Incorporated
F2837xS_DefaultISR.asm                                               PAGE  141

    7431 00000545 6F00          B         $C$L135,UNC           ; [CPU_] |1964| 
    7432                      ; branch occurs ; [] |1964| 
    7433                      .dwattr $C$DW$135, DW_AT_TI_end_file("C:/ti/controlSUITE/device_support/F2837xS/v170/F2837xS_common/s
    7434                      .dwattr $C$DW$135, DW_AT_TI_end_line(0x7ad)
    7435                      .dwattr $C$DW$135, DW_AT_TI_end_column(0x01)
    7436                      .dwendentry
    7437                      .dwendtag $C$DW$135
    7438              
    7439 00000546               .sect   ".text:retain"
    7440                      .retain
    7441                      .retainrefs
    7442                      .global _AUX_PLL_SLIP_ISR
    7443              
    7444              $C$DW$136       .dwtag  DW_TAG_subprogram, DW_AT_name("AUX_PLL_SLIP_ISR")
    7445                      .dwattr $C$DW$136, DW_AT_low_pc(_AUX_PLL_SLIP_ISR)
    7446                      .dwattr $C$DW$136, DW_AT_high_pc(0x00)
    7447                      .dwattr $C$DW$136, DW_AT_TI_symbol_name("_AUX_PLL_SLIP_ISR")
    7448                      .dwattr $C$DW$136, DW_AT_external
    7449                      .dwattr $C$DW$136, DW_AT_TI_begin_file("C:/ti/controlSUITE/device_support/F2837xS/v170/F2837xS_common
    7450                      .dwattr $C$DW$136, DW_AT_TI_begin_line(0x7b0)
    7451                      .dwattr $C$DW$136, DW_AT_TI_begin_column(0x10)
    7452                      .dwattr $C$DW$136, DW_AT_TI_interrupt
    7453                      .dwattr $C$DW$136, DW_AT_TI_max_frame_size(-6)
    7454                      .dwpsn  file "C:/ti/controlSUITE/device_support/F2837xS/v170/F2837xS_common/source/F2837xS_DefaultISR
    7455              
    7456                      .dwfde $C$DW$CIE, _AUX_PLL_SLIP_ISR
    7457              
    7458              ;***************************************************************
    7459              ;* FNAME: _AUX_PLL_SLIP_ISR             FR SIZE:   4           *
    7460              ;*                                                             *
    7461              ;* FUNCTION ENVIRONMENT                                        *
    7462              ;*                                                             *
    7463              ;* FUNCTION PROPERTIES                                         *
    7464              ;*                            0 Parameter,  0 Auto,  4 SOE     *
    7465              ;***************************************************************
    7466              
    7467 00000546       _AUX_PLL_SLIP_ISR:
    7468                      .dwcfi  cfa_offset, -2
    7469                      .dwcfi  save_reg_to_mem, 26, 0
    7470 00000546 761B          ASP       ; [CPU_] 
    7471 00000547 FFF0          PUSH      RB                    ; [CPU_] 
    7472                      .dwcfi  save_reg_to_mem, 73, 2
    7473                      .dwcfi  save_reg_to_mem, 74, 3
    7474                      .dwcfi  cfa_offset, -4
    7475 00000548 E200          MOV32     *SP++,STF             ; [CPU_] 
         00000549 00BD 
    7476                      .dwcfi  save_reg_to_mem, 39, 4
    7477                      .dwcfi  save_reg_to_mem, 40, 5
    7478                      .dwcfi  cfa_offset, -6
    7479 0000054a E630          SETFLG    RNDF32=1, RNDF64=1    ; [CPU_] 
         0000054b 0600 
    7480 0000054c 2942          CLRC      PAGE0,OVM             ; [CPU_] 
    7481 0000054d 5616          CLRC      AMODE                 ; [CPU_] 
    7482                      .dwpsn  file "C:/ti/controlSUITE/device_support/F2837xS/v170/F2837xS_common/source/F2837xS_DefaultISR
    7483 0000054e 7625        ESTOP0
TMS320C2000 Assembler PC v6.4.2 Thu Dec 14 15:26:09 2017

Tools Copyright (c) 1996-2015 Texas Instruments Incorporated
F2837xS_DefaultISR.asm                                               PAGE  142

    7484 0000054f       $C$L136:    
    7485                      .dwpsn  file "C:/ti/controlSUITE/device_support/F2837xS/v170/F2837xS_common/source/F2837xS_DefaultISR
    7486 0000054f 6F00          B         $C$L136,UNC           ; [CPU_] |1979| 
    7487                      ; branch occurs ; [] |1979| 
    7488                      .dwattr $C$DW$136, DW_AT_TI_end_file("C:/ti/controlSUITE/device_support/F2837xS/v170/F2837xS_common/s
    7489                      .dwattr $C$DW$136, DW_AT_TI_end_line(0x7bc)
    7490                      .dwattr $C$DW$136, DW_AT_TI_end_column(0x01)
    7491                      .dwendentry
    7492                      .dwendtag $C$DW$136
    7493              
    7494 00000550               .sect   ".text:retain"
    7495                      .retain
    7496                      .retainrefs
    7497                      .global _CLA_OVERFLOW_ISR
    7498              
    7499              $C$DW$137       .dwtag  DW_TAG_subprogram, DW_AT_name("CLA_OVERFLOW_ISR")
    7500                      .dwattr $C$DW$137, DW_AT_low_pc(_CLA_OVERFLOW_ISR)
    7501                      .dwattr $C$DW$137, DW_AT_high_pc(0x00)
    7502                      .dwattr $C$DW$137, DW_AT_TI_symbol_name("_CLA_OVERFLOW_ISR")
    7503                      .dwattr $C$DW$137, DW_AT_external
    7504                      .dwattr $C$DW$137, DW_AT_TI_begin_file("C:/ti/controlSUITE/device_support/F2837xS/v170/F2837xS_common
    7505                      .dwattr $C$DW$137, DW_AT_TI_begin_line(0x7bf)
    7506                      .dwattr $C$DW$137, DW_AT_TI_begin_column(0x10)
    7507                      .dwattr $C$DW$137, DW_AT_TI_interrupt
    7508                      .dwattr $C$DW$137, DW_AT_TI_max_frame_size(-6)
    7509                      .dwpsn  file "C:/ti/controlSUITE/device_support/F2837xS/v170/F2837xS_common/source/F2837xS_DefaultISR
    7510              
    7511                      .dwfde $C$DW$CIE, _CLA_OVERFLOW_ISR
    7512              
    7513              ;***************************************************************
    7514              ;* FNAME: _CLA_OVERFLOW_ISR             FR SIZE:   4           *
    7515              ;*                                                             *
    7516              ;* FUNCTION ENVIRONMENT                                        *
    7517              ;*                                                             *
    7518              ;* FUNCTION PROPERTIES                                         *
    7519              ;*                            0 Parameter,  0 Auto,  4 SOE     *
    7520              ;***************************************************************
    7521              
    7522 00000550       _CLA_OVERFLOW_ISR:
    7523                      .dwcfi  cfa_offset, -2
    7524                      .dwcfi  save_reg_to_mem, 26, 0
    7525 00000550 761B          ASP       ; [CPU_] 
    7526 00000551 FFF0          PUSH      RB                    ; [CPU_] 
    7527                      .dwcfi  save_reg_to_mem, 73, 2
    7528                      .dwcfi  save_reg_to_mem, 74, 3
    7529                      .dwcfi  cfa_offset, -4
    7530 00000552 E200          MOV32     *SP++,STF             ; [CPU_] 
         00000553 00BD 
    7531                      .dwcfi  save_reg_to_mem, 39, 4
    7532                      .dwcfi  save_reg_to_mem, 40, 5
    7533                      .dwcfi  cfa_offset, -6
    7534 00000554 E630          SETFLG    RNDF32=1, RNDF64=1    ; [CPU_] 
         00000555 0600 
    7535 00000556 2942          CLRC      PAGE0,OVM             ; [CPU_] 
    7536 00000557 5616          CLRC      AMODE                 ; [CPU_] 
TMS320C2000 Assembler PC v6.4.2 Thu Dec 14 15:26:09 2017

Tools Copyright (c) 1996-2015 Texas Instruments Incorporated
F2837xS_DefaultISR.asm                                               PAGE  143

    7537                      .dwpsn  file "C:/ti/controlSUITE/device_support/F2837xS/v170/F2837xS_common/source/F2837xS_DefaultISR
    7538 00000558 7625        ESTOP0
    7539 00000559       $C$L137:    
    7540                      .dwpsn  file "C:/ti/controlSUITE/device_support/F2837xS/v170/F2837xS_common/source/F2837xS_DefaultISR
    7541 00000559 6F00          B         $C$L137,UNC           ; [CPU_] |1994| 
    7542                      ; branch occurs ; [] |1994| 
    7543                      .dwattr $C$DW$137, DW_AT_TI_end_file("C:/ti/controlSUITE/device_support/F2837xS/v170/F2837xS_common/s
    7544                      .dwattr $C$DW$137, DW_AT_TI_end_line(0x7cb)
    7545                      .dwattr $C$DW$137, DW_AT_TI_end_column(0x01)
    7546                      .dwendentry
    7547                      .dwendtag $C$DW$137
    7548              
    7549 0000055a               .sect   ".text:retain"
    7550                      .retain
    7551                      .retainrefs
    7552                      .global _CLA_UNDERFLOW_ISR
    7553              
    7554              $C$DW$138       .dwtag  DW_TAG_subprogram, DW_AT_name("CLA_UNDERFLOW_ISR")
    7555                      .dwattr $C$DW$138, DW_AT_low_pc(_CLA_UNDERFLOW_ISR)
    7556                      .dwattr $C$DW$138, DW_AT_high_pc(0x00)
    7557                      .dwattr $C$DW$138, DW_AT_TI_symbol_name("_CLA_UNDERFLOW_ISR")
    7558                      .dwattr $C$DW$138, DW_AT_external
    7559                      .dwattr $C$DW$138, DW_AT_TI_begin_file("C:/ti/controlSUITE/device_support/F2837xS/v170/F2837xS_common
    7560                      .dwattr $C$DW$138, DW_AT_TI_begin_line(0x7ce)
    7561                      .dwattr $C$DW$138, DW_AT_TI_begin_column(0x10)
    7562                      .dwattr $C$DW$138, DW_AT_TI_interrupt
    7563                      .dwattr $C$DW$138, DW_AT_TI_max_frame_size(-6)
    7564                      .dwpsn  file "C:/ti/controlSUITE/device_support/F2837xS/v170/F2837xS_common/source/F2837xS_DefaultISR
    7565              
    7566                      .dwfde $C$DW$CIE, _CLA_UNDERFLOW_ISR
    7567              
    7568              ;***************************************************************
    7569              ;* FNAME: _CLA_UNDERFLOW_ISR            FR SIZE:   4           *
    7570              ;*                                                             *
    7571              ;* FUNCTION ENVIRONMENT                                        *
    7572              ;*                                                             *
    7573              ;* FUNCTION PROPERTIES                                         *
    7574              ;*                            0 Parameter,  0 Auto,  4 SOE     *
    7575              ;***************************************************************
    7576              
    7577 0000055a       _CLA_UNDERFLOW_ISR:
    7578                      .dwcfi  cfa_offset, -2
    7579                      .dwcfi  save_reg_to_mem, 26, 0
    7580 0000055a 761B          ASP       ; [CPU_] 
    7581 0000055b FFF0          PUSH      RB                    ; [CPU_] 
    7582                      .dwcfi  save_reg_to_mem, 73, 2
    7583                      .dwcfi  save_reg_to_mem, 74, 3
    7584                      .dwcfi  cfa_offset, -4
    7585 0000055c E200          MOV32     *SP++,STF             ; [CPU_] 
         0000055d 00BD 
    7586                      .dwcfi  save_reg_to_mem, 39, 4
    7587                      .dwcfi  save_reg_to_mem, 40, 5
    7588                      .dwcfi  cfa_offset, -6
    7589 0000055e E630          SETFLG    RNDF32=1, RNDF64=1    ; [CPU_] 
         0000055f 0600 
TMS320C2000 Assembler PC v6.4.2 Thu Dec 14 15:26:09 2017

Tools Copyright (c) 1996-2015 Texas Instruments Incorporated
F2837xS_DefaultISR.asm                                               PAGE  144

    7590 00000560 2942          CLRC      PAGE0,OVM             ; [CPU_] 
    7591 00000561 5616          CLRC      AMODE                 ; [CPU_] 
    7592                      .dwpsn  file "C:/ti/controlSUITE/device_support/F2837xS/v170/F2837xS_common/source/F2837xS_DefaultISR
    7593 00000562 7625        ESTOP0
    7594 00000563       $C$L138:    
    7595                      .dwpsn  file "C:/ti/controlSUITE/device_support/F2837xS/v170/F2837xS_common/source/F2837xS_DefaultISR
    7596 00000563 6F00          B         $C$L138,UNC           ; [CPU_] |2009| 
    7597                      ; branch occurs ; [] |2009| 
    7598                      .dwattr $C$DW$138, DW_AT_TI_end_file("C:/ti/controlSUITE/device_support/F2837xS/v170/F2837xS_common/s
    7599                      .dwattr $C$DW$138, DW_AT_TI_end_line(0x7da)
    7600                      .dwattr $C$DW$138, DW_AT_TI_end_column(0x01)
    7601                      .dwendentry
    7602                      .dwendtag $C$DW$138
    7603              
    7604 00000564               .sect   ".text:retain"
    7605                      .retain
    7606                      .retainrefs
    7607                      .global _PIE_RESERVED_ISR
    7608              
    7609              $C$DW$139       .dwtag  DW_TAG_subprogram, DW_AT_name("PIE_RESERVED_ISR")
    7610                      .dwattr $C$DW$139, DW_AT_low_pc(_PIE_RESERVED_ISR)
    7611                      .dwattr $C$DW$139, DW_AT_high_pc(0x00)
    7612                      .dwattr $C$DW$139, DW_AT_TI_symbol_name("_PIE_RESERVED_ISR")
    7613                      .dwattr $C$DW$139, DW_AT_external
    7614                      .dwattr $C$DW$139, DW_AT_TI_begin_file("C:/ti/controlSUITE/device_support/F2837xS/v170/F2837xS_common
    7615                      .dwattr $C$DW$139, DW_AT_TI_begin_line(0x7e0)
    7616                      .dwattr $C$DW$139, DW_AT_TI_begin_column(0x10)
    7617                      .dwattr $C$DW$139, DW_AT_TI_interrupt
    7618                      .dwattr $C$DW$139, DW_AT_TI_max_frame_size(-6)
    7619                      .dwpsn  file "C:/ti/controlSUITE/device_support/F2837xS/v170/F2837xS_common/source/F2837xS_DefaultISR
    7620              
    7621                      .dwfde $C$DW$CIE, _PIE_RESERVED_ISR
    7622              
    7623              ;***************************************************************
    7624              ;* FNAME: _PIE_RESERVED_ISR             FR SIZE:   4           *
    7625              ;*                                                             *
    7626              ;* FUNCTION ENVIRONMENT                                        *
    7627              ;*                                                             *
    7628              ;* FUNCTION PROPERTIES                                         *
    7629              ;*                            0 Parameter,  0 Auto,  4 SOE     *
    7630              ;***************************************************************
    7631              
    7632 00000564       _PIE_RESERVED_ISR:
    7633                      .dwcfi  cfa_offset, -2
    7634                      .dwcfi  save_reg_to_mem, 26, 0
    7635 00000564 761B          ASP       ; [CPU_] 
    7636 00000565 FFF0          PUSH      RB                    ; [CPU_] 
    7637                      .dwcfi  save_reg_to_mem, 73, 2
    7638                      .dwcfi  save_reg_to_mem, 74, 3
    7639                      .dwcfi  cfa_offset, -4
    7640 00000566 E200          MOV32     *SP++,STF             ; [CPU_] 
         00000567 00BD 
    7641                      .dwcfi  save_reg_to_mem, 39, 4
    7642                      .dwcfi  save_reg_to_mem, 40, 5
    7643                      .dwcfi  cfa_offset, -6
TMS320C2000 Assembler PC v6.4.2 Thu Dec 14 15:26:09 2017

Tools Copyright (c) 1996-2015 Texas Instruments Incorporated
F2837xS_DefaultISR.asm                                               PAGE  145

    7644 00000568 E630          SETFLG    RNDF32=1, RNDF64=1    ; [CPU_] 
         00000569 0600 
    7645 0000056a 2942          CLRC      PAGE0,OVM             ; [CPU_] 
    7646 0000056b 5616          CLRC      AMODE                 ; [CPU_] 
    7647                      .dwpsn  file "C:/ti/controlSUITE/device_support/F2837xS/v170/F2837xS_common/source/F2837xS_DefaultISR
    7648 0000056c 7625        ESTOP0
    7649 0000056d       $C$L139:    
    7650                      .dwpsn  file "C:/ti/controlSUITE/device_support/F2837xS/v170/F2837xS_common/source/F2837xS_DefaultISR
    7651 0000056d 6F00          B         $C$L139,UNC           ; [CPU_] |2019| 
    7652                      ; branch occurs ; [] |2019| 
    7653                      .dwattr $C$DW$139, DW_AT_TI_end_file("C:/ti/controlSUITE/device_support/F2837xS/v170/F2837xS_common/s
    7654                      .dwattr $C$DW$139, DW_AT_TI_end_line(0x7e4)
    7655                      .dwattr $C$DW$139, DW_AT_TI_end_column(0x01)
    7656                      .dwendentry
    7657                      .dwendtag $C$DW$139
    7658              
    7659 0000056e               .sect   ".text:retain"
    7660                      .retain
    7661                      .retainrefs
    7662                      .global _EMPTY_ISR
    7663              
    7664              $C$DW$140       .dwtag  DW_TAG_subprogram, DW_AT_name("EMPTY_ISR")
    7665                      .dwattr $C$DW$140, DW_AT_low_pc(_EMPTY_ISR)
    7666                      .dwattr $C$DW$140, DW_AT_high_pc(0x00)
    7667                      .dwattr $C$DW$140, DW_AT_TI_symbol_name("_EMPTY_ISR")
    7668                      .dwattr $C$DW$140, DW_AT_external
    7669                      .dwattr $C$DW$140, DW_AT_TI_begin_file("C:/ti/controlSUITE/device_support/F2837xS/v170/F2837xS_common
    7670                      .dwattr $C$DW$140, DW_AT_TI_begin_line(0x7e7)
    7671                      .dwattr $C$DW$140, DW_AT_TI_begin_column(0x10)
    7672                      .dwattr $C$DW$140, DW_AT_TI_interrupt
    7673                      .dwattr $C$DW$140, DW_AT_TI_max_frame_size(-6)
    7674                      .dwpsn  file "C:/ti/controlSUITE/device_support/F2837xS/v170/F2837xS_common/source/F2837xS_DefaultISR
    7675              
    7676                      .dwfde $C$DW$CIE, _EMPTY_ISR
    7677              
    7678              ;***************************************************************
    7679              ;* FNAME: _EMPTY_ISR                    FR SIZE:   4           *
    7680              ;*                                                             *
    7681              ;* FUNCTION ENVIRONMENT                                        *
    7682              ;*                                                             *
    7683              ;* FUNCTION PROPERTIES                                         *
    7684              ;*                            0 Parameter,  0 Auto,  4 SOE     *
    7685              ;***************************************************************
    7686              
    7687 0000056e       _EMPTY_ISR:
    7688                      .dwcfi  cfa_offset, -2
    7689                      .dwcfi  save_reg_to_mem, 26, 0
    7690 0000056e 761B          ASP       ; [CPU_] 
    7691 0000056f FFF0          PUSH      RB                    ; [CPU_] 
    7692                      .dwcfi  save_reg_to_mem, 73, 2
    7693                      .dwcfi  save_reg_to_mem, 74, 3
    7694                      .dwcfi  cfa_offset, -4
    7695 00000570 E200          MOV32     *SP++,STF             ; [CPU_] 
         00000571 00BD 
    7696                      .dwcfi  save_reg_to_mem, 39, 4
TMS320C2000 Assembler PC v6.4.2 Thu Dec 14 15:26:09 2017

Tools Copyright (c) 1996-2015 Texas Instruments Incorporated
F2837xS_DefaultISR.asm                                               PAGE  146

    7697                      .dwcfi  save_reg_to_mem, 40, 5
    7698                      .dwcfi  cfa_offset, -6
    7699 00000572 E630          SETFLG    RNDF32=1, RNDF64=1    ; [CPU_] 
         00000573 0600 
    7700 00000574 2942          CLRC      PAGE0,OVM             ; [CPU_] 
    7701 00000575 5616          CLRC      AMODE                 ; [CPU_] 
    7702                      .dwpsn  file "C:/ti/controlSUITE/device_support/F2837xS/v170/F2837xS_common/source/F2837xS_DefaultISR
    7703 00000576 E280          MOV32     STF,*--SP             ; [CPU_] 
         00000577 00BE 
    7704                      .dwcfi  cfa_offset, -4
    7705                      .dwcfi  restore_reg, 39
    7706                      .dwcfi  restore_reg, 40
    7707 00000578 FFF1          POP       RB                    ; [CPU_] 
    7708                      .dwcfi  cfa_offset, -2
    7709                      .dwcfi  restore_reg, 73
    7710                      .dwcfi  restore_reg, 74
    7711 00000579 7617          NASP      ; [CPU_] 
    7712              $C$DW$141       .dwtag  DW_TAG_TI_branch
    7713                      .dwattr $C$DW$141, DW_AT_low_pc(0x00)
    7714                      .dwattr $C$DW$141, DW_AT_TI_return
    7715 0000057a 7602          IRET      ; [CPU_] 
    7716                      ; return occurs ; [] 
    7717                      .dwattr $C$DW$140, DW_AT_TI_end_file("C:/ti/controlSUITE/device_support/F2837xS/v170/F2837xS_common/s
    7718                      .dwattr $C$DW$140, DW_AT_TI_end_line(0x7ea)
    7719                      .dwattr $C$DW$140, DW_AT_TI_end_column(0x01)
    7720                      .dwendentry
    7721                      .dwendtag $C$DW$140
    7722              
    7723 0000057b               .sect   ".text:retain"
    7724                      .retain
    7725                      .retainrefs
    7726                      .global _NOTUSED_ISR
    7727              
    7728              $C$DW$142       .dwtag  DW_TAG_subprogram, DW_AT_name("NOTUSED_ISR")
    7729                      .dwattr $C$DW$142, DW_AT_low_pc(_NOTUSED_ISR)
    7730                      .dwattr $C$DW$142, DW_AT_high_pc(0x00)
    7731                      .dwattr $C$DW$142, DW_AT_TI_symbol_name("_NOTUSED_ISR")
    7732                      .dwattr $C$DW$142, DW_AT_external
    7733                      .dwattr $C$DW$142, DW_AT_TI_begin_file("C:/ti/controlSUITE/device_support/F2837xS/v170/F2837xS_common
    7734                      .dwattr $C$DW$142, DW_AT_TI_begin_line(0x7ed)
    7735                      .dwattr $C$DW$142, DW_AT_TI_begin_column(0x10)
    7736                      .dwattr $C$DW$142, DW_AT_TI_interrupt
    7737                      .dwattr $C$DW$142, DW_AT_TI_max_frame_size(-6)
    7738                      .dwpsn  file "C:/ti/controlSUITE/device_support/F2837xS/v170/F2837xS_common/source/F2837xS_DefaultISR
    7739              
    7740                      .dwfde $C$DW$CIE, _NOTUSED_ISR
    7741              
    7742              ;***************************************************************
    7743              ;* FNAME: _NOTUSED_ISR                  FR SIZE:   4           *
    7744              ;*                                                             *
    7745              ;* FUNCTION ENVIRONMENT                                        *
    7746              ;*                                                             *
    7747              ;* FUNCTION PROPERTIES                                         *
    7748              ;*                            0 Parameter,  0 Auto,  4 SOE     *
    7749              ;***************************************************************
TMS320C2000 Assembler PC v6.4.2 Thu Dec 14 15:26:09 2017

Tools Copyright (c) 1996-2015 Texas Instruments Incorporated
F2837xS_DefaultISR.asm                                               PAGE  147

    7750              
    7751 0000057b       _NOTUSED_ISR:
    7752                      .dwcfi  cfa_offset, -2
    7753                      .dwcfi  save_reg_to_mem, 26, 0
    7754 0000057b 761B          ASP       ; [CPU_] 
    7755 0000057c FFF0          PUSH      RB                    ; [CPU_] 
    7756                      .dwcfi  save_reg_to_mem, 73, 2
    7757                      .dwcfi  save_reg_to_mem, 74, 3
    7758                      .dwcfi  cfa_offset, -4
    7759 0000057d E200          MOV32     *SP++,STF             ; [CPU_] 
         0000057e 00BD 
    7760                      .dwcfi  save_reg_to_mem, 39, 4
    7761                      .dwcfi  save_reg_to_mem, 40, 5
    7762                      .dwcfi  cfa_offset, -6
    7763 0000057f E630          SETFLG    RNDF32=1, RNDF64=1    ; [CPU_] 
         00000580 0600 
    7764 00000581 2942          CLRC      PAGE0,OVM             ; [CPU_] 
    7765 00000582 5616          CLRC      AMODE                 ; [CPU_] 
    7766                      .dwpsn  file "C:/ti/controlSUITE/device_support/F2837xS/v170/F2837xS_common/source/F2837xS_DefaultISR
    7767 00000583 7625        ESTOP0
    7768 00000584       $C$L140:    
    7769                      .dwpsn  file "C:/ti/controlSUITE/device_support/F2837xS/v170/F2837xS_common/source/F2837xS_DefaultISR
    7770 00000584 6F00          B         $C$L140,UNC           ; [CPU_] |2032| 
    7771                      ; branch occurs ; [] |2032| 
    7772                      .dwattr $C$DW$142, DW_AT_TI_end_file("C:/ti/controlSUITE/device_support/F2837xS/v170/F2837xS_common/s
    7773                      .dwattr $C$DW$142, DW_AT_TI_end_line(0x7f1)
    7774                      .dwattr $C$DW$142, DW_AT_TI_end_column(0x01)
    7775                      .dwendentry
    7776                      .dwendtag $C$DW$142
    7777              
    7778              
    7779              ;***************************************************************
    7780              ;* TYPE INFORMATION                                            *
    7781              ;***************************************************************
    7782              $C$DW$T$2       .dwtag  DW_TAG_unspecified_type
    7783                      .dwattr $C$DW$T$2, DW_AT_name("void")
    7784              $C$DW$T$4       .dwtag  DW_TAG_base_type
    7785                      .dwattr $C$DW$T$4, DW_AT_encoding(DW_ATE_boolean)
    7786                      .dwattr $C$DW$T$4, DW_AT_name("bool")
    7787                      .dwattr $C$DW$T$4, DW_AT_byte_size(0x01)
    7788              $C$DW$T$5       .dwtag  DW_TAG_base_type
    7789                      .dwattr $C$DW$T$5, DW_AT_encoding(DW_ATE_signed_char)
    7790                      .dwattr $C$DW$T$5, DW_AT_name("signed char")
    7791                      .dwattr $C$DW$T$5, DW_AT_byte_size(0x01)
    7792              $C$DW$T$6       .dwtag  DW_TAG_base_type
    7793                      .dwattr $C$DW$T$6, DW_AT_encoding(DW_ATE_unsigned_char)
    7794                      .dwattr $C$DW$T$6, DW_AT_name("unsigned char")
    7795                      .dwattr $C$DW$T$6, DW_AT_byte_size(0x01)
    7796              $C$DW$T$7       .dwtag  DW_TAG_base_type
    7797                      .dwattr $C$DW$T$7, DW_AT_encoding(DW_ATE_signed_char)
    7798                      .dwattr $C$DW$T$7, DW_AT_name("wchar_t")
    7799                      .dwattr $C$DW$T$7, DW_AT_byte_size(0x01)
    7800              $C$DW$T$8       .dwtag  DW_TAG_base_type
    7801                      .dwattr $C$DW$T$8, DW_AT_encoding(DW_ATE_signed)
    7802                      .dwattr $C$DW$T$8, DW_AT_name("short")
TMS320C2000 Assembler PC v6.4.2 Thu Dec 14 15:26:09 2017

Tools Copyright (c) 1996-2015 Texas Instruments Incorporated
F2837xS_DefaultISR.asm                                               PAGE  148

    7803                      .dwattr $C$DW$T$8, DW_AT_byte_size(0x01)
    7804              $C$DW$T$9       .dwtag  DW_TAG_base_type
    7805                      .dwattr $C$DW$T$9, DW_AT_encoding(DW_ATE_unsigned)
    7806                      .dwattr $C$DW$T$9, DW_AT_name("unsigned short")
    7807                      .dwattr $C$DW$T$9, DW_AT_byte_size(0x01)
    7808              $C$DW$T$10      .dwtag  DW_TAG_base_type
    7809                      .dwattr $C$DW$T$10, DW_AT_encoding(DW_ATE_signed)
    7810                      .dwattr $C$DW$T$10, DW_AT_name("int")
    7811                      .dwattr $C$DW$T$10, DW_AT_byte_size(0x01)
    7812              $C$DW$T$11      .dwtag  DW_TAG_base_type
    7813                      .dwattr $C$DW$T$11, DW_AT_encoding(DW_ATE_unsigned)
    7814                      .dwattr $C$DW$T$11, DW_AT_name("unsigned int")
    7815                      .dwattr $C$DW$T$11, DW_AT_byte_size(0x01)
    7816              $C$DW$T$12      .dwtag  DW_TAG_base_type
    7817                      .dwattr $C$DW$T$12, DW_AT_encoding(DW_ATE_signed)
    7818                      .dwattr $C$DW$T$12, DW_AT_name("long")
    7819                      .dwattr $C$DW$T$12, DW_AT_byte_size(0x02)
    7820              $C$DW$T$13      .dwtag  DW_TAG_base_type
    7821                      .dwattr $C$DW$T$13, DW_AT_encoding(DW_ATE_unsigned)
    7822                      .dwattr $C$DW$T$13, DW_AT_name("unsigned long")
    7823                      .dwattr $C$DW$T$13, DW_AT_byte_size(0x02)
    7824              $C$DW$T$14      .dwtag  DW_TAG_base_type
    7825                      .dwattr $C$DW$T$14, DW_AT_encoding(DW_ATE_signed)
    7826                      .dwattr $C$DW$T$14, DW_AT_name("long long")
    7827                      .dwattr $C$DW$T$14, DW_AT_byte_size(0x04)
    7828              $C$DW$T$15      .dwtag  DW_TAG_base_type
    7829                      .dwattr $C$DW$T$15, DW_AT_encoding(DW_ATE_unsigned)
    7830                      .dwattr $C$DW$T$15, DW_AT_name("unsigned long long")
    7831                      .dwattr $C$DW$T$15, DW_AT_byte_size(0x04)
    7832              $C$DW$T$16      .dwtag  DW_TAG_base_type
    7833                      .dwattr $C$DW$T$16, DW_AT_encoding(DW_ATE_float)
    7834                      .dwattr $C$DW$T$16, DW_AT_name("float")
    7835                      .dwattr $C$DW$T$16, DW_AT_byte_size(0x02)
    7836              $C$DW$T$17      .dwtag  DW_TAG_base_type
    7837                      .dwattr $C$DW$T$17, DW_AT_encoding(DW_ATE_float)
    7838                      .dwattr $C$DW$T$17, DW_AT_name("double")
    7839                      .dwattr $C$DW$T$17, DW_AT_byte_size(0x02)
    7840              $C$DW$T$18      .dwtag  DW_TAG_base_type
    7841                      .dwattr $C$DW$T$18, DW_AT_encoding(DW_ATE_float)
    7842                      .dwattr $C$DW$T$18, DW_AT_name("long double")
    7843                      .dwattr $C$DW$T$18, DW_AT_byte_size(0x04)
    7844                      .dwattr $C$DW$CU, DW_AT_language(DW_LANG_C)
    7845              
    7846              ;***************************************************************
    7847              ;* DWARF CIE ENTRIES                                           *
    7848              ;***************************************************************
    7849              
    7850              $C$DW$CIE       .dwcie 26
    7851                      .dwcfi  cfa_register, 20
    7852                      .dwcfi  cfa_offset, 0
    7853                      .dwcfi  undefined, 0
    7854                      .dwcfi  undefined, 1
    7855                      .dwcfi  undefined, 2
    7856                      .dwcfi  undefined, 3
    7857                      .dwcfi  undefined, 20
TMS320C2000 Assembler PC v6.4.2 Thu Dec 14 15:26:09 2017

Tools Copyright (c) 1996-2015 Texas Instruments Incorporated
F2837xS_DefaultISR.asm                                               PAGE  149

    7858                      .dwcfi  undefined, 21
    7859                      .dwcfi  undefined, 22
    7860                      .dwcfi  undefined, 23
    7861                      .dwcfi  undefined, 24
    7862                      .dwcfi  undefined, 25
    7863                      .dwcfi  undefined, 26
    7864                      .dwcfi  same_value, 28
    7865                      .dwcfi  undefined, 29
    7866                      .dwcfi  undefined, 30
    7867                      .dwcfi  undefined, 31
    7868                      .dwcfi  undefined, 32
    7869                      .dwcfi  undefined, 33
    7870                      .dwcfi  undefined, 34
    7871                      .dwcfi  undefined, 35
    7872                      .dwcfi  undefined, 36
    7873                      .dwcfi  undefined, 37
    7874                      .dwcfi  undefined, 38
    7875                      .dwcfi  undefined, 75
    7876                      .dwcfi  undefined, 76
    7877                      .dwcfi  undefined, 77
    7878                      .dwcfi  undefined, 4
    7879                      .dwcfi  undefined, 5
    7880                      .dwcfi  same_value, 6
    7881                      .dwcfi  same_value, 7
    7882                      .dwcfi  same_value, 8
    7883                      .dwcfi  same_value, 9
    7884                      .dwcfi  same_value, 10
    7885                      .dwcfi  same_value, 11
    7886                      .dwcfi  undefined, 12
    7887                      .dwcfi  undefined, 13
    7888                      .dwcfi  undefined, 14
    7889                      .dwcfi  undefined, 15
    7890                      .dwcfi  undefined, 16
    7891                      .dwcfi  undefined, 17
    7892                      .dwcfi  undefined, 18
    7893                      .dwcfi  undefined, 19
    7894                      .dwcfi  undefined, 43
    7895                      .dwcfi  undefined, 44
    7896                      .dwcfi  undefined, 47
    7897                      .dwcfi  undefined, 48
    7898                      .dwcfi  undefined, 51
    7899                      .dwcfi  undefined, 52
    7900                      .dwcfi  undefined, 55
    7901                      .dwcfi  undefined, 56
    7902                      .dwcfi  same_value, 59
    7903                      .dwcfi  same_value, 60
    7904                      .dwcfi  same_value, 63
    7905                      .dwcfi  same_value, 64
    7906                      .dwcfi  same_value, 67
    7907                      .dwcfi  same_value, 68
    7908                      .dwcfi  same_value, 71
    7909                      .dwcfi  same_value, 72
    7910                      .dwcfi  undefined, 73
    7911                      .dwcfi  undefined, 74
    7912                      .dwcfi  undefined, 39
TMS320C2000 Assembler PC v6.4.2 Thu Dec 14 15:26:09 2017

Tools Copyright (c) 1996-2015 Texas Instruments Incorporated
F2837xS_DefaultISR.asm                                               PAGE  150

    7913                      .dwcfi  undefined, 40
    7914                      .dwcfi  undefined, 27
    7915                      .dwendentry
    7916              
    7917              ;***************************************************************
    7918              ;* DWARF REGISTER MAP                                          *
    7919              ;***************************************************************
    7920              
    7921              $C$DW$143       .dwtag  DW_TAG_TI_assign_register, DW_AT_name("AL")
    7922                      .dwattr $C$DW$143, DW_AT_location[DW_OP_reg0]
    7923              $C$DW$144       .dwtag  DW_TAG_TI_assign_register, DW_AT_name("AH")
    7924                      .dwattr $C$DW$144, DW_AT_location[DW_OP_reg1]
    7925              $C$DW$145       .dwtag  DW_TAG_TI_assign_register, DW_AT_name("PL")
    7926                      .dwattr $C$DW$145, DW_AT_location[DW_OP_reg2]
    7927              $C$DW$146       .dwtag  DW_TAG_TI_assign_register, DW_AT_name("PH")
    7928                      .dwattr $C$DW$146, DW_AT_location[DW_OP_reg3]
    7929              $C$DW$147       .dwtag  DW_TAG_TI_assign_register, DW_AT_name("SP")
    7930                      .dwattr $C$DW$147, DW_AT_location[DW_OP_reg20]
    7931              $C$DW$148       .dwtag  DW_TAG_TI_assign_register, DW_AT_name("XT")
    7932                      .dwattr $C$DW$148, DW_AT_location[DW_OP_reg21]
    7933              $C$DW$149       .dwtag  DW_TAG_TI_assign_register, DW_AT_name("T")
    7934                      .dwattr $C$DW$149, DW_AT_location[DW_OP_reg22]
    7935              $C$DW$150       .dwtag  DW_TAG_TI_assign_register, DW_AT_name("ST0")
    7936                      .dwattr $C$DW$150, DW_AT_location[DW_OP_reg23]
    7937              $C$DW$151       .dwtag  DW_TAG_TI_assign_register, DW_AT_name("ST1")
    7938                      .dwattr $C$DW$151, DW_AT_location[DW_OP_reg24]
    7939              $C$DW$152       .dwtag  DW_TAG_TI_assign_register, DW_AT_name("PC")
    7940                      .dwattr $C$DW$152, DW_AT_location[DW_OP_reg25]
    7941              $C$DW$153       .dwtag  DW_TAG_TI_assign_register, DW_AT_name("RPC")
    7942                      .dwattr $C$DW$153, DW_AT_location[DW_OP_reg26]
    7943              $C$DW$154       .dwtag  DW_TAG_TI_assign_register, DW_AT_name("FP")
    7944                      .dwattr $C$DW$154, DW_AT_location[DW_OP_reg28]
    7945              $C$DW$155       .dwtag  DW_TAG_TI_assign_register, DW_AT_name("DP")
    7946                      .dwattr $C$DW$155, DW_AT_location[DW_OP_reg29]
    7947              $C$DW$156       .dwtag  DW_TAG_TI_assign_register, DW_AT_name("SXM")
    7948                      .dwattr $C$DW$156, DW_AT_location[DW_OP_reg30]
    7949              $C$DW$157       .dwtag  DW_TAG_TI_assign_register, DW_AT_name("PM")
    7950                      .dwattr $C$DW$157, DW_AT_location[DW_OP_reg31]
    7951              $C$DW$158       .dwtag  DW_TAG_TI_assign_register, DW_AT_name("OVM")
    7952                      .dwattr $C$DW$158, DW_AT_location[DW_OP_regx 0x20]
    7953              $C$DW$159       .dwtag  DW_TAG_TI_assign_register, DW_AT_name("PAGE0")
    7954                      .dwattr $C$DW$159, DW_AT_location[DW_OP_regx 0x21]
    7955              $C$DW$160       .dwtag  DW_TAG_TI_assign_register, DW_AT_name("AMODE")
    7956                      .dwattr $C$DW$160, DW_AT_location[DW_OP_regx 0x22]
    7957              $C$DW$161       .dwtag  DW_TAG_TI_assign_register, DW_AT_name("INTM")
    7958                      .dwattr $C$DW$161, DW_AT_location[DW_OP_regx 0x23]
    7959              $C$DW$162       .dwtag  DW_TAG_TI_assign_register, DW_AT_name("IFR")
    7960                      .dwattr $C$DW$162, DW_AT_location[DW_OP_regx 0x24]
    7961              $C$DW$163       .dwtag  DW_TAG_TI_assign_register, DW_AT_name("IER")
    7962                      .dwattr $C$DW$163, DW_AT_location[DW_OP_regx 0x25]
    7963              $C$DW$164       .dwtag  DW_TAG_TI_assign_register, DW_AT_name("V")
    7964                      .dwattr $C$DW$164, DW_AT_location[DW_OP_regx 0x26]
    7965              $C$DW$165       .dwtag  DW_TAG_TI_assign_register, DW_AT_name("PSEUDOH")
    7966                      .dwattr $C$DW$165, DW_AT_location[DW_OP_regx 0x4c]
    7967              $C$DW$166       .dwtag  DW_TAG_TI_assign_register, DW_AT_name("VOL")
TMS320C2000 Assembler PC v6.4.2 Thu Dec 14 15:26:09 2017

Tools Copyright (c) 1996-2015 Texas Instruments Incorporated
F2837xS_DefaultISR.asm                                               PAGE  151

    7968                      .dwattr $C$DW$166, DW_AT_location[DW_OP_regx 0x4d]
    7969              $C$DW$167       .dwtag  DW_TAG_TI_assign_register, DW_AT_name("AR0")
    7970                      .dwattr $C$DW$167, DW_AT_location[DW_OP_reg4]
    7971              $C$DW$168       .dwtag  DW_TAG_TI_assign_register, DW_AT_name("XAR0")
    7972                      .dwattr $C$DW$168, DW_AT_location[DW_OP_reg5]
    7973              $C$DW$169       .dwtag  DW_TAG_TI_assign_register, DW_AT_name("AR1")
    7974                      .dwattr $C$DW$169, DW_AT_location[DW_OP_reg6]
    7975              $C$DW$170       .dwtag  DW_TAG_TI_assign_register, DW_AT_name("XAR1")
    7976                      .dwattr $C$DW$170, DW_AT_location[DW_OP_reg7]
    7977              $C$DW$171       .dwtag  DW_TAG_TI_assign_register, DW_AT_name("AR2")
    7978                      .dwattr $C$DW$171, DW_AT_location[DW_OP_reg8]
    7979              $C$DW$172       .dwtag  DW_TAG_TI_assign_register, DW_AT_name("XAR2")
    7980                      .dwattr $C$DW$172, DW_AT_location[DW_OP_reg9]
    7981              $C$DW$173       .dwtag  DW_TAG_TI_assign_register, DW_AT_name("AR3")
    7982                      .dwattr $C$DW$173, DW_AT_location[DW_OP_reg10]
    7983              $C$DW$174       .dwtag  DW_TAG_TI_assign_register, DW_AT_name("XAR3")
    7984                      .dwattr $C$DW$174, DW_AT_location[DW_OP_reg11]
    7985              $C$DW$175       .dwtag  DW_TAG_TI_assign_register, DW_AT_name("AR4")
    7986                      .dwattr $C$DW$175, DW_AT_location[DW_OP_reg12]
    7987              $C$DW$176       .dwtag  DW_TAG_TI_assign_register, DW_AT_name("XAR4")
    7988                      .dwattr $C$DW$176, DW_AT_location[DW_OP_reg13]
    7989              $C$DW$177       .dwtag  DW_TAG_TI_assign_register, DW_AT_name("AR5")
    7990                      .dwattr $C$DW$177, DW_AT_location[DW_OP_reg14]
    7991              $C$DW$178       .dwtag  DW_TAG_TI_assign_register, DW_AT_name("XAR5")
    7992                      .dwattr $C$DW$178, DW_AT_location[DW_OP_reg15]
    7993              $C$DW$179       .dwtag  DW_TAG_TI_assign_register, DW_AT_name("AR6")
    7994                      .dwattr $C$DW$179, DW_AT_location[DW_OP_reg16]
    7995              $C$DW$180       .dwtag  DW_TAG_TI_assign_register, DW_AT_name("XAR6")
    7996                      .dwattr $C$DW$180, DW_AT_location[DW_OP_reg17]
    7997              $C$DW$181       .dwtag  DW_TAG_TI_assign_register, DW_AT_name("AR7")
    7998                      .dwattr $C$DW$181, DW_AT_location[DW_OP_reg18]
    7999              $C$DW$182       .dwtag  DW_TAG_TI_assign_register, DW_AT_name("XAR7")
    8000                      .dwattr $C$DW$182, DW_AT_location[DW_OP_reg19]
    8001              $C$DW$183       .dwtag  DW_TAG_TI_assign_register, DW_AT_name("R0HL")
    8002                      .dwattr $C$DW$183, DW_AT_location[DW_OP_regx 0x2b]
    8003              $C$DW$184       .dwtag  DW_TAG_TI_assign_register, DW_AT_name("R0H")
    8004                      .dwattr $C$DW$184, DW_AT_location[DW_OP_regx 0x2c]
    8005              $C$DW$185       .dwtag  DW_TAG_TI_assign_register, DW_AT_name("R1HL")
    8006                      .dwattr $C$DW$185, DW_AT_location[DW_OP_regx 0x2f]
    8007              $C$DW$186       .dwtag  DW_TAG_TI_assign_register, DW_AT_name("R1H")
    8008                      .dwattr $C$DW$186, DW_AT_location[DW_OP_regx 0x30]
    8009              $C$DW$187       .dwtag  DW_TAG_TI_assign_register, DW_AT_name("R2HL")
    8010                      .dwattr $C$DW$187, DW_AT_location[DW_OP_regx 0x33]
    8011              $C$DW$188       .dwtag  DW_TAG_TI_assign_register, DW_AT_name("R2H")
    8012                      .dwattr $C$DW$188, DW_AT_location[DW_OP_regx 0x34]
    8013              $C$DW$189       .dwtag  DW_TAG_TI_assign_register, DW_AT_name("R3HL")
    8014                      .dwattr $C$DW$189, DW_AT_location[DW_OP_regx 0x37]
    8015              $C$DW$190       .dwtag  DW_TAG_TI_assign_register, DW_AT_name("R3H")
    8016                      .dwattr $C$DW$190, DW_AT_location[DW_OP_regx 0x38]
    8017              $C$DW$191       .dwtag  DW_TAG_TI_assign_register, DW_AT_name("R4HL")
    8018                      .dwattr $C$DW$191, DW_AT_location[DW_OP_regx 0x3b]
    8019              $C$DW$192       .dwtag  DW_TAG_TI_assign_register, DW_AT_name("R4H")
    8020                      .dwattr $C$DW$192, DW_AT_location[DW_OP_regx 0x3c]
    8021              $C$DW$193       .dwtag  DW_TAG_TI_assign_register, DW_AT_name("R5HL")
    8022                      .dwattr $C$DW$193, DW_AT_location[DW_OP_regx 0x3f]
TMS320C2000 Assembler PC v6.4.2 Thu Dec 14 15:26:09 2017

Tools Copyright (c) 1996-2015 Texas Instruments Incorporated
F2837xS_DefaultISR.asm                                               PAGE  152

    8023              $C$DW$194       .dwtag  DW_TAG_TI_assign_register, DW_AT_name("R5H")
    8024                      .dwattr $C$DW$194, DW_AT_location[DW_OP_regx 0x40]
    8025              $C$DW$195       .dwtag  DW_TAG_TI_assign_register, DW_AT_name("R6HL")
    8026                      .dwattr $C$DW$195, DW_AT_location[DW_OP_regx 0x43]
    8027              $C$DW$196       .dwtag  DW_TAG_TI_assign_register, DW_AT_name("R6H")
    8028                      .dwattr $C$DW$196, DW_AT_location[DW_OP_regx 0x44]
    8029              $C$DW$197       .dwtag  DW_TAG_TI_assign_register, DW_AT_name("R7HL")
    8030                      .dwattr $C$DW$197, DW_AT_location[DW_OP_regx 0x47]
    8031              $C$DW$198       .dwtag  DW_TAG_TI_assign_register, DW_AT_name("R7H")
    8032                      .dwattr $C$DW$198, DW_AT_location[DW_OP_regx 0x48]
    8033              $C$DW$199       .dwtag  DW_TAG_TI_assign_register, DW_AT_name("RBL")
    8034                      .dwattr $C$DW$199, DW_AT_location[DW_OP_regx 0x49]
    8035              $C$DW$200       .dwtag  DW_TAG_TI_assign_register, DW_AT_name("RB")
    8036                      .dwattr $C$DW$200, DW_AT_location[DW_OP_regx 0x4a]
    8037              $C$DW$201       .dwtag  DW_TAG_TI_assign_register, DW_AT_name("STFL")
    8038                      .dwattr $C$DW$201, DW_AT_location[DW_OP_regx 0x27]
    8039              $C$DW$202       .dwtag  DW_TAG_TI_assign_register, DW_AT_name("STF")
    8040                      .dwattr $C$DW$202, DW_AT_location[DW_OP_regx 0x28]
    8041              $C$DW$203       .dwtag  DW_TAG_TI_assign_register, DW_AT_name("FPUHAZ")
    8042                      .dwattr $C$DW$203, DW_AT_location[DW_OP_reg27]
    8043                      .dwendtag $C$DW$CU
    8044              

No Assembly Errors, No Assembly Warnings
