TMS320C2000 Assembler PC v6.4.2 Thu Dec 14 15:26:09 2017

Tools Copyright (c) 1996-2015 Texas Instruments Incorporated
F2837xS_DefaultISR.asm                                               PAGE    1

       1              ;***************************************************************
       2              ;* TMS320C2000 C/C++ Codegen                         PC v6.4.2 *
       3              ;* Date/Time created: Thu Dec 14 15:26:08 2017                 *
       4              ;***************************************************************
       5                      .compiler_opts --cla_support=cla0 --float_support=fpu32 --hll_source=on --mem_model:code=flat --mem_m
       6        0002  FP      .set    XAR2
       7              
       8              $C$DW$CU        .dwtag  DW_TAG_compile_unit
       9                      .dwattr $C$DW$CU, DW_AT_name("C:/ti/controlSUITE/device_support/F2837xS/v170/F2837xS_common/source/F2
      10                      .dwattr $C$DW$CU, DW_AT_producer("TI TMS320C2000 C/C++ Codegen PC v6.4.2 Copyright (c) 1996-2015 Texa
      11                      .dwattr $C$DW$CU, DW_AT_TI_version(0x01)
      12                      .dwattr $C$DW$CU, DW_AT_comp_dir("U:\02_MSE\MT\07_Software\CCS_workspace\DiffDrive_v0.93\F2837x_FLASH
      13              ;       C:\ti\ccsv6\tools\compiler\ti-cgt-c2000_6.4.2\bin\ac2000.exe -@C:\\Users\\ficm\\AppData\\Local\\Temp\
      14 00000000               .sect   ".text:retain"
      15                      .retain
      16                      .retainrefs
      17                      .global _TIMER1_ISR
      18              
      19              $C$DW$1 .dwtag  DW_TAG_subprogram, DW_AT_name("TIMER1_ISR")
      20                      .dwattr $C$DW$1, DW_AT_low_pc(_TIMER1_ISR)
      21                      .dwattr $C$DW$1, DW_AT_high_pc(0x00)
      22                      .dwattr $C$DW$1, DW_AT_TI_symbol_name("_TIMER1_ISR")
      23                      .dwattr $C$DW$1, DW_AT_external
      24                      .dwattr $C$DW$1, DW_AT_TI_begin_file("C:/ti/controlSUITE/device_support/F2837xS/v170/F2837xS_common/s
      25                      .dwattr $C$DW$1, DW_AT_TI_begin_line(0x13)
      26                      .dwattr $C$DW$1, DW_AT_TI_begin_column(0x10)
      27                      .dwattr $C$DW$1, DW_AT_TI_interrupt
      28                      .dwattr $C$DW$1, DW_AT_TI_max_frame_size(-6)
      29                      .dwpsn  file "C:/ti/controlSUITE/device_support/F2837xS/v170/F2837xS_common/source/F2837xS_DefaultISR
      30              
      31                      .dwfde $C$DW$CIE, _TIMER1_ISR
      32              
      33              ;***************************************************************
      34              ;* FNAME: _TIMER1_ISR                   FR SIZE:   4           *
      35              ;*                                                             *
      36              ;* FUNCTION ENVIRONMENT                                        *
      37              ;*                                                             *
      38              ;* FUNCTION PROPERTIES                                         *
      39              ;*                            0 Parameter,  0 Auto,  4 SOE     *
      40              ;***************************************************************
      41              
      42 00000000       _TIMER1_ISR:
      43                      .dwcfi  cfa_offset, -2
      44                      .dwcfi  save_reg_to_mem, 26, 0
      45 00000000 761B          ASP       ; [CPU_] 
      46 00000001 FFF0          PUSH      RB                    ; [CPU_] 
      47                      .dwcfi  save_reg_to_mem, 73, 2
      48                      .dwcfi  save_reg_to_mem, 74, 3
      49                      .dwcfi  cfa_offset, -4
      50 00000002 E200          MOV32     *SP++,STF             ; [CPU_] 
         00000003 00BD 
      51                      .dwcfi  save_reg_to_mem, 39, 4
      52                      .dwcfi  save_reg_to_mem, 40, 5
      53                      .dwcfi  cfa_offset, -6
      54 00000004 E630          SETFLG    RNDF32=1, RNDF64=1    ; [CPU_] 
TMS320C2000 Assembler PC v6.4.2 Thu Dec 14 15:26:09 2017

Tools Copyright (c) 1996-2015 Texas Instruments Incorporated
F2837xS_DefaultISR.asm                                               PAGE    2

         00000005 0600 
      55 00000006 2942          CLRC      PAGE0,OVM             ; [CPU_] 
      56 00000007 5616          CLRC      AMODE                 ; [CPU_] 
      57                      .dwpsn  file "C:/ti/controlSUITE/device_support/F2837xS/v170/F2837xS_common/source/F2837xS_DefaultISR
      58 00000008 7625        ESTOP0
      59 00000009       $C$L1:    
      60                      .dwpsn  file "C:/ti/controlSUITE/device_support/F2837xS/v170/F2837xS_common/source/F2837xS_DefaultISR
      61 00000009 6F00          B         $C$L1,UNC             ; [CPU_] |26| 
      62                      ; branch occurs ; [] |26| 
      63                      .dwattr $C$DW$1, DW_AT_TI_end_file("C:/ti/controlSUITE/device_support/F2837xS/v170/F2837xS_common/sou
      64                      .dwattr $C$DW$1, DW_AT_TI_end_line(0x1b)
      65                      .dwattr $C$DW$1, DW_AT_TI_end_column(0x01)
      66                      .dwendentry
      67                      .dwendtag $C$DW$1
      68              
      69 0000000a               .sect   ".text:retain"
      70                      .retain
      71                      .retainrefs
      72                      .global _TIMER2_ISR
      73              
      74              $C$DW$2 .dwtag  DW_TAG_subprogram, DW_AT_name("TIMER2_ISR")
      75                      .dwattr $C$DW$2, DW_AT_low_pc(_TIMER2_ISR)
      76                      .dwattr $C$DW$2, DW_AT_high_pc(0x00)
      77                      .dwattr $C$DW$2, DW_AT_TI_symbol_name("_TIMER2_ISR")
      78                      .dwattr $C$DW$2, DW_AT_external
      79                      .dwattr $C$DW$2, DW_AT_TI_begin_file("C:/ti/controlSUITE/device_support/F2837xS/v170/F2837xS_common/s
      80                      .dwattr $C$DW$2, DW_AT_TI_begin_line(0x1e)
      81                      .dwattr $C$DW$2, DW_AT_TI_begin_column(0x10)
      82                      .dwattr $C$DW$2, DW_AT_TI_interrupt
      83                      .dwattr $C$DW$2, DW_AT_TI_max_frame_size(-6)
      84                      .dwpsn  file "C:/ti/controlSUITE/device_support/F2837xS/v170/F2837xS_common/source/F2837xS_DefaultISR
      85              
      86                      .dwfde $C$DW$CIE, _TIMER2_ISR
      87              
      88              ;***************************************************************
      89              ;* FNAME: _TIMER2_ISR                   FR SIZE:   4           *
      90              ;*                                                             *
      91              ;* FUNCTION ENVIRONMENT                                        *
      92              ;*                                                             *
      93              ;* FUNCTION PROPERTIES                                         *
      94              ;*                            0 Parameter,  0 Auto,  4 SOE     *
      95              ;***************************************************************
      96              
      97 0000000a       _TIMER2_ISR:
      98                      .dwcfi  cfa_offset, -2
      99                      .dwcfi  save_reg_to_mem, 26, 0
     100 0000000a 761B          ASP       ; [CPU_] 
     101 0000000b FFF0          PUSH      RB                    ; [CPU_] 
     102                      .dwcfi  save_reg_to_mem, 73, 2
     103                      .dwcfi  save_reg_to_mem, 74, 3
     104                      .dwcfi  cfa_offset, -4
     105 0000000c E200          MOV32     *SP++,STF             ; [CPU_] 
         0000000d 00BD 
     106                      .dwcfi  save_reg_to_mem, 39, 4
     107                      .dwcfi  save_reg_to_mem, 40, 5
TMS320C2000 Assembler PC v6.4.2 Thu Dec 14 15:26:09 2017

Tools Copyright (c) 1996-2015 Texas Instruments Incorporated
F2837xS_DefaultISR.asm                                               PAGE    3

     108                      .dwcfi  cfa_offset, -6
     109 0000000e E630          SETFLG    RNDF32=1, RNDF64=1    ; [CPU_] 
         0000000f 0600 
     110 00000010 2942          CLRC      PAGE0,OVM             ; [CPU_] 
     111 00000011 5616          CLRC      AMODE                 ; [CPU_] 
     112                      .dwpsn  file "C:/ti/controlSUITE/device_support/F2837xS/v170/F2837xS_common/source/F2837xS_DefaultISR
     113 00000012 7625        ESTOP0
     114 00000013       $C$L2:    
     115                      .dwpsn  file "C:/ti/controlSUITE/device_support/F2837xS/v170/F2837xS_common/source/F2837xS_DefaultISR
     116 00000013 6F00          B         $C$L2,UNC             ; [CPU_] |37| 
     117                      ; branch occurs ; [] |37| 
     118                      .dwattr $C$DW$2, DW_AT_TI_end_file("C:/ti/controlSUITE/device_support/F2837xS/v170/F2837xS_common/sou
     119                      .dwattr $C$DW$2, DW_AT_TI_end_line(0x26)
     120                      .dwattr $C$DW$2, DW_AT_TI_end_column(0x01)
     121                      .dwendentry
     122                      .dwendtag $C$DW$2
     123              
     124 00000014               .sect   ".text:retain"
     125                      .retain
     126                      .retainrefs
     127                      .global _DATALOG_ISR
     128              
     129              $C$DW$3 .dwtag  DW_TAG_subprogram, DW_AT_name("DATALOG_ISR")
     130                      .dwattr $C$DW$3, DW_AT_low_pc(_DATALOG_ISR)
     131                      .dwattr $C$DW$3, DW_AT_high_pc(0x00)
     132                      .dwattr $C$DW$3, DW_AT_TI_symbol_name("_DATALOG_ISR")
     133                      .dwattr $C$DW$3, DW_AT_external
     134                      .dwattr $C$DW$3, DW_AT_TI_begin_file("C:/ti/controlSUITE/device_support/F2837xS/v170/F2837xS_common/s
     135                      .dwattr $C$DW$3, DW_AT_TI_begin_line(0x29)
     136                      .dwattr $C$DW$3, DW_AT_TI_begin_column(0x10)
     137                      .dwattr $C$DW$3, DW_AT_TI_interrupt
     138                      .dwattr $C$DW$3, DW_AT_TI_max_frame_size(-6)
     139                      .dwpsn  file "C:/ti/controlSUITE/device_support/F2837xS/v170/F2837xS_common/source/F2837xS_DefaultISR
     140              
     141                      .dwfde $C$DW$CIE, _DATALOG_ISR
     142              
     143              ;***************************************************************
     144              ;* FNAME: _DATALOG_ISR                  FR SIZE:   4           *
     145              ;*                                                             *
     146              ;* FUNCTION ENVIRONMENT                                        *
     147              ;*                                                             *
     148              ;* FUNCTION PROPERTIES                                         *
     149              ;*                            0 Parameter,  0 Auto,  4 SOE     *
     150              ;***************************************************************
     151              
     152 00000014       _DATALOG_ISR:
     153                      .dwcfi  cfa_offset, -2
     154                      .dwcfi  save_reg_to_mem, 26, 0
     155 00000014 761B          ASP       ; [CPU_] 
     156 00000015 FFF0          PUSH      RB                    ; [CPU_] 
     157                      .dwcfi  save_reg_to_mem, 73, 2
     158                      .dwcfi  save_reg_to_mem, 74, 3
     159                      .dwcfi  cfa_offset, -4
     160 00000016 E200          MOV32     *SP++,STF             ; [CPU_] 
         00000017 00BD 
TMS320C2000 Assembler PC v6.4.2 Thu Dec 14 15:26:09 2017

Tools Copyright (c) 1996-2015 Texas Instruments Incorporated
F2837xS_DefaultISR.asm                                               PAGE    4

     161                      .dwcfi  save_reg_to_mem, 39, 4
     162                      .dwcfi  save_reg_to_mem, 40, 5
     163                      .dwcfi  cfa_offset, -6
     164 00000018 E630          SETFLG    RNDF32=1, RNDF64=1    ; [CPU_] 
         00000019 0600 
     165 0000001a 2942          CLRC      PAGE0,OVM             ; [CPU_] 
     166 0000001b 5616          CLRC      AMODE                 ; [CPU_] 
     167                      .dwpsn  file "C:/ti/controlSUITE/device_support/F2837xS/v170/F2837xS_common/source/F2837xS_DefaultISR
     168 0000001c 7625        ESTOP0
     169 0000001d       $C$L3:    
     170                      .dwpsn  file "C:/ti/controlSUITE/device_support/F2837xS/v170/F2837xS_common/source/F2837xS_DefaultISR
     171 0000001d 6F00          B         $C$L3,UNC             ; [CPU_] |48| 
     172                      ; branch occurs ; [] |48| 
     173                      .dwattr $C$DW$3, DW_AT_TI_end_file("C:/ti/controlSUITE/device_support/F2837xS/v170/F2837xS_common/sou
     174                      .dwattr $C$DW$3, DW_AT_TI_end_line(0x31)
     175                      .dwattr $C$DW$3, DW_AT_TI_end_column(0x01)
     176                      .dwendentry
     177                      .dwendtag $C$DW$3
     178              
     179 0000001e               .sect   ".text:retain"
     180                      .retain
     181                      .retainrefs
     182                      .global _RTOS_ISR
     183              
     184              $C$DW$4 .dwtag  DW_TAG_subprogram, DW_AT_name("RTOS_ISR")
     185                      .dwattr $C$DW$4, DW_AT_low_pc(_RTOS_ISR)
     186                      .dwattr $C$DW$4, DW_AT_high_pc(0x00)
     187                      .dwattr $C$DW$4, DW_AT_TI_symbol_name("_RTOS_ISR")
     188                      .dwattr $C$DW$4, DW_AT_external
     189                      .dwattr $C$DW$4, DW_AT_TI_begin_file("C:/ti/controlSUITE/device_support/F2837xS/v170/F2837xS_common/s
     190                      .dwattr $C$DW$4, DW_AT_TI_begin_line(0x34)
     191                      .dwattr $C$DW$4, DW_AT_TI_begin_column(0x10)
     192                      .dwattr $C$DW$4, DW_AT_TI_interrupt
     193                      .dwattr $C$DW$4, DW_AT_TI_max_frame_size(-6)
     194                      .dwpsn  file "C:/ti/controlSUITE/device_support/F2837xS/v170/F2837xS_common/source/F2837xS_DefaultISR
     195              
     196                      .dwfde $C$DW$CIE, _RTOS_ISR
     197              
     198              ;***************************************************************
     199              ;* FNAME: _RTOS_ISR                     FR SIZE:   4           *
     200              ;*                                                             *
     201              ;* FUNCTION ENVIRONMENT                                        *
     202              ;*                                                             *
     203              ;* FUNCTION PROPERTIES                                         *
     204              ;*                            0 Parameter,  0 Auto,  4 SOE     *
     205              ;***************************************************************
     206              
     207 0000001e       _RTOS_ISR:
     208                      .dwcfi  cfa_offset, -2
     209                      .dwcfi  save_reg_to_mem, 26, 0
     210 0000001e 761B          ASP       ; [CPU_] 
     211 0000001f FFF0          PUSH      RB                    ; [CPU_] 
     212                      .dwcfi  save_reg_to_mem, 73, 2
     213                      .dwcfi  save_reg_to_mem, 74, 3
     214                      .dwcfi  cfa_offset, -4
TMS320C2000 Assembler PC v6.4.2 Thu Dec 14 15:26:09 2017

Tools Copyright (c) 1996-2015 Texas Instruments Incorporated
F2837xS_DefaultISR.asm                                               PAGE    5

     215 00000020 E200          MOV32     *SP++,STF             ; [CPU_] 
         00000021 00BD 
     216                      .dwcfi  save_reg_to_mem, 39, 4
     217                      .dwcfi  save_reg_to_mem, 40, 5
     218                      .dwcfi  cfa_offset, -6
     219 00000022 E630          SETFLG    RNDF32=1, RNDF64=1    ; [CPU_] 
         00000023 0600 
     220 00000024 2942          CLRC      PAGE0,OVM             ; [CPU_] 
     221 00000025 5616          CLRC      AMODE                 ; [CPU_] 
     222                      .dwpsn  file "C:/ti/controlSUITE/device_support/F2837xS/v170/F2837xS_common/source/F2837xS_DefaultISR
     223 00000026 7625        ESTOP0
     224 00000027       $C$L4:    
     225                      .dwpsn  file "C:/ti/controlSUITE/device_support/F2837xS/v170/F2837xS_common/source/F2837xS_DefaultISR
     226 00000027 6F00          B         $C$L4,UNC             ; [CPU_] |59| 
     227                      ; branch occurs ; [] |59| 
     228                      .dwattr $C$DW$4, DW_AT_TI_end_file("C:/ti/controlSUITE/device_support/F2837xS/v170/F2837xS_common/sou
     229                      .dwattr $C$DW$4, DW_AT_TI_end_line(0x3c)
     230                      .dwattr $C$DW$4, DW_AT_TI_end_column(0x01)
     231                      .dwendentry
     232                      .dwendtag $C$DW$4
     233              
     234 00000028               .sect   ".text:retain"
     235                      .retain
     236                      .retainrefs
     237                      .global _EMU_ISR
     238              
     239              $C$DW$5 .dwtag  DW_TAG_subprogram, DW_AT_name("EMU_ISR")
     240                      .dwattr $C$DW$5, DW_AT_low_pc(_EMU_ISR)
     241                      .dwattr $C$DW$5, DW_AT_high_pc(0x00)
     242                      .dwattr $C$DW$5, DW_AT_TI_symbol_name("_EMU_ISR")
     243                      .dwattr $C$DW$5, DW_AT_external
     244                      .dwattr $C$DW$5, DW_AT_TI_begin_file("C:/ti/controlSUITE/device_support/F2837xS/v170/F2837xS_common/s
     245                      .dwattr $C$DW$5, DW_AT_TI_begin_line(0x3f)
     246                      .dwattr $C$DW$5, DW_AT_TI_begin_column(0x10)
     247                      .dwattr $C$DW$5, DW_AT_TI_interrupt
     248                      .dwattr $C$DW$5, DW_AT_TI_max_frame_size(-6)
     249                      .dwpsn  file "C:/ti/controlSUITE/device_support/F2837xS/v170/F2837xS_common/source/F2837xS_DefaultISR
     250              
     251                      .dwfde $C$DW$CIE, _EMU_ISR
     252              
     253              ;***************************************************************
     254              ;* FNAME: _EMU_ISR                      FR SIZE:   4           *
     255              ;*                                                             *
     256              ;* FUNCTION ENVIRONMENT                                        *
     257              ;*                                                             *
     258              ;* FUNCTION PROPERTIES                                         *
     259              ;*                            0 Parameter,  0 Auto,  4 SOE     *
     260              ;***************************************************************
     261              
     262 00000028       _EMU_ISR:
     263                      .dwcfi  cfa_offset, -2
     264                      .dwcfi  save_reg_to_mem, 26, 0
     265 00000028 761B          ASP       ; [CPU_] 
     266 00000029 FFF0          PUSH      RB                    ; [CPU_] 
     267                      .dwcfi  save_reg_to_mem, 73, 2
TMS320C2000 Assembler PC v6.4.2 Thu Dec 14 15:26:09 2017

Tools Copyright (c) 1996-2015 Texas Instruments Incorporated
F2837xS_DefaultISR.asm                                               PAGE    6

     268                      .dwcfi  save_reg_to_mem, 74, 3
     269                      .dwcfi  cfa_offset, -4
     270 0000002a E200          MOV32     *SP++,STF             ; [CPU_] 
         0000002b 00BD 
     271                      .dwcfi  save_reg_to_mem, 39, 4
     272                      .dwcfi  save_reg_to_mem, 40, 5
     273                      .dwcfi  cfa_offset, -6
     274 0000002c E630          SETFLG    RNDF32=1, RNDF64=1    ; [CPU_] 
         0000002d 0600 
     275 0000002e 2942          CLRC      PAGE0,OVM             ; [CPU_] 
     276 0000002f 5616          CLRC      AMODE                 ; [CPU_] 
     277                      .dwpsn  file "C:/ti/controlSUITE/device_support/F2837xS/v170/F2837xS_common/source/F2837xS_DefaultISR
     278 00000030 7625        ESTOP0
     279 00000031       $C$L5:    
     280                      .dwpsn  file "C:/ti/controlSUITE/device_support/F2837xS/v170/F2837xS_common/source/F2837xS_DefaultISR
     281 00000031 6F00          B         $C$L5,UNC             ; [CPU_] |70| 
     282                      ; branch occurs ; [] |70| 
     283                      .dwattr $C$DW$5, DW_AT_TI_end_file("C:/ti/controlSUITE/device_support/F2837xS/v170/F2837xS_common/sou
     284                      .dwattr $C$DW$5, DW_AT_TI_end_line(0x47)
     285                      .dwattr $C$DW$5, DW_AT_TI_end_column(0x01)
     286                      .dwendentry
     287                      .dwendtag $C$DW$5
     288              
     289 00000032               .sect   ".text:retain"
     290                      .retain
     291                      .retainrefs
     292                      .global _NMI_ISR
     293              
     294              $C$DW$6 .dwtag  DW_TAG_subprogram, DW_AT_name("NMI_ISR")
     295                      .dwattr $C$DW$6, DW_AT_low_pc(_NMI_ISR)
     296                      .dwattr $C$DW$6, DW_AT_high_pc(0x00)
     297                      .dwattr $C$DW$6, DW_AT_TI_symbol_name("_NMI_ISR")
     298                      .dwattr $C$DW$6, DW_AT_external
     299                      .dwattr $C$DW$6, DW_AT_TI_begin_file("C:/ti/controlSUITE/device_support/F2837xS/v170/F2837xS_common/s
     300                      .dwattr $C$DW$6, DW_AT_TI_begin_line(0x4a)
     301                      .dwattr $C$DW$6, DW_AT_TI_begin_column(0x10)
     302                      .dwattr $C$DW$6, DW_AT_TI_interrupt
     303                      .dwattr $C$DW$6, DW_AT_TI_max_frame_size(-6)
     304                      .dwpsn  file "C:/ti/controlSUITE/device_support/F2837xS/v170/F2837xS_common/source/F2837xS_DefaultISR
     305              
     306                      .dwfde $C$DW$CIE, _NMI_ISR
     307              
     308              ;***************************************************************
     309              ;* FNAME: _NMI_ISR                      FR SIZE:   4           *
     310              ;*                                                             *
     311              ;* FUNCTION ENVIRONMENT                                        *
     312              ;*                                                             *
     313              ;* FUNCTION PROPERTIES                                         *
     314              ;*                            0 Parameter,  0 Auto,  4 SOE     *
     315              ;***************************************************************
     316              
     317 00000032       _NMI_ISR:
     318                      .dwcfi  cfa_offset, -2
     319                      .dwcfi  save_reg_to_mem, 26, 0
     320 00000032 761B          ASP       ; [CPU_] 
TMS320C2000 Assembler PC v6.4.2 Thu Dec 14 15:26:09 2017

Tools Copyright (c) 1996-2015 Texas Instruments Incorporated
F2837xS_DefaultISR.asm                                               PAGE    7

     321 00000033 FFF0          PUSH      RB                    ; [CPU_] 
     322                      .dwcfi  save_reg_to_mem, 73, 2
     323                      .dwcfi  save_reg_to_mem, 74, 3
     324                      .dwcfi  cfa_offset, -4
     325 00000034 E200          MOV32     *SP++,STF             ; [CPU_] 
         00000035 00BD 
     326                      .dwcfi  save_reg_to_mem, 39, 4
     327                      .dwcfi  save_reg_to_mem, 40, 5
     328                      .dwcfi  cfa_offset, -6
     329 00000036 E630          SETFLG    RNDF32=1, RNDF64=1    ; [CPU_] 
         00000037 0600 
     330 00000038 2942          CLRC      PAGE0,OVM             ; [CPU_] 
     331 00000039 5616          CLRC      AMODE                 ; [CPU_] 
     332                      .dwpsn  file "C:/ti/controlSUITE/device_support/F2837xS/v170/F2837xS_common/source/F2837xS_DefaultISR
     333 0000003a 7625        ESTOP0
     334 0000003b       $C$L6:    
     335                      .dwpsn  file "C:/ti/controlSUITE/device_support/F2837xS/v170/F2837xS_common/source/F2837xS_DefaultISR
     336 0000003b 6F00          B         $C$L6,UNC             ; [CPU_] |81| 
     337                      ; branch occurs ; [] |81| 
     338                      .dwattr $C$DW$6, DW_AT_TI_end_file("C:/ti/controlSUITE/device_support/F2837xS/v170/F2837xS_common/sou
     339                      .dwattr $C$DW$6, DW_AT_TI_end_line(0x52)
     340                      .dwattr $C$DW$6, DW_AT_TI_end_column(0x01)
     341                      .dwendentry
     342                      .dwendtag $C$DW$6
     343              
     344 0000003c               .sect   ".text:retain"
     345                      .retain
     346                      .retainrefs
     347                      .global _ILLEGAL_ISR
     348              
     349              $C$DW$7 .dwtag  DW_TAG_subprogram, DW_AT_name("ILLEGAL_ISR")
     350                      .dwattr $C$DW$7, DW_AT_low_pc(_ILLEGAL_ISR)
     351                      .dwattr $C$DW$7, DW_AT_high_pc(0x00)
     352                      .dwattr $C$DW$7, DW_AT_TI_symbol_name("_ILLEGAL_ISR")
     353                      .dwattr $C$DW$7, DW_AT_external
     354                      .dwattr $C$DW$7, DW_AT_TI_begin_file("C:/ti/controlSUITE/device_support/F2837xS/v170/F2837xS_common/s
     355                      .dwattr $C$DW$7, DW_AT_TI_begin_line(0x55)
     356                      .dwattr $C$DW$7, DW_AT_TI_begin_column(0x10)
     357                      .dwattr $C$DW$7, DW_AT_TI_interrupt
     358                      .dwattr $C$DW$7, DW_AT_TI_max_frame_size(-6)
     359                      .dwpsn  file "C:/ti/controlSUITE/device_support/F2837xS/v170/F2837xS_common/source/F2837xS_DefaultISR
     360              
     361                      .dwfde $C$DW$CIE, _ILLEGAL_ISR
     362              
     363              ;***************************************************************
     364              ;* FNAME: _ILLEGAL_ISR                  FR SIZE:   4           *
     365              ;*                                                             *
     366              ;* FUNCTION ENVIRONMENT                                        *
     367              ;*                                                             *
     368              ;* FUNCTION PROPERTIES                                         *
     369              ;*                            0 Parameter,  0 Auto,  4 SOE     *
     370              ;***************************************************************
     371              
     372 0000003c       _ILLEGAL_ISR:
     373                      .dwcfi  cfa_offset, -2
TMS320C2000 Assembler PC v6.4.2 Thu Dec 14 15:26:09 2017

Tools Copyright (c) 1996-2015 Texas Instruments Incorporated
F2837xS_DefaultISR.asm                                               PAGE    8

     374                      .dwcfi  save_reg_to_mem, 26, 0
     375 0000003c 761B          ASP       ; [CPU_] 
     376 0000003d FFF0          PUSH      RB                    ; [CPU_] 
     377                      .dwcfi  save_reg_to_mem, 73, 2
     378                      .dwcfi  save_reg_to_mem, 74, 3
     379                      .dwcfi  cfa_offset, -4
     380 0000003e E200          MOV32     *SP++,STF             ; [CPU_] 
         0000003f 00BD 
     381                      .dwcfi  save_reg_to_mem, 39, 4
     382                      .dwcfi  save_reg_to_mem, 40, 5
     383                      .dwcfi  cfa_offset, -6
     384 00000040 E630          SETFLG    RNDF32=1, RNDF64=1    ; [CPU_] 
         00000041 0600 
     385 00000042 2942          CLRC      PAGE0,OVM             ; [CPU_] 
     386 00000043 5616          CLRC      AMODE                 ; [CPU_] 
     387                      .dwpsn  file "C:/ti/controlSUITE/device_support/F2837xS/v170/F2837xS_common/source/F2837xS_DefaultISR
     388 00000044 7625        ESTOP0
     389 00000045       $C$L7:    
     390                      .dwpsn  file "C:/ti/controlSUITE/device_support/F2837xS/v170/F2837xS_common/source/F2837xS_DefaultISR
     391 00000045 6F00          B         $C$L7,UNC             ; [CPU_] |92| 
     392                      ; branch occurs ; [] |92| 
     393                      .dwattr $C$DW$7, DW_AT_TI_end_file("C:/ti/controlSUITE/device_support/F2837xS/v170/F2837xS_common/sou
     394                      .dwattr $C$DW$7, DW_AT_TI_end_line(0x5d)
     395                      .dwattr $C$DW$7, DW_AT_TI_end_column(0x01)
     396                      .dwendentry
     397                      .dwendtag $C$DW$7
     398              
     399 00000046               .sect   ".text:retain"
     400                      .retain
     401                      .retainrefs
     402                      .global _USER1_ISR
     403              
     404              $C$DW$8 .dwtag  DW_TAG_subprogram, DW_AT_name("USER1_ISR")
     405                      .dwattr $C$DW$8, DW_AT_low_pc(_USER1_ISR)
     406                      .dwattr $C$DW$8, DW_AT_high_pc(0x00)
     407                      .dwattr $C$DW$8, DW_AT_TI_symbol_name("_USER1_ISR")
     408                      .dwattr $C$DW$8, DW_AT_external
     409                      .dwattr $C$DW$8, DW_AT_TI_begin_file("C:/ti/controlSUITE/device_support/F2837xS/v170/F2837xS_common/s
     410                      .dwattr $C$DW$8, DW_AT_TI_begin_line(0x60)
     411                      .dwattr $C$DW$8, DW_AT_TI_begin_column(0x10)
     412                      .dwattr $C$DW$8, DW_AT_TI_interrupt
     413                      .dwattr $C$DW$8, DW_AT_TI_max_frame_size(-6)
     414                      .dwpsn  file "C:/ti/controlSUITE/device_support/F2837xS/v170/F2837xS_common/source/F2837xS_DefaultISR
     415              
     416                      .dwfde $C$DW$CIE, _USER1_ISR
     417              
     418              ;***************************************************************
     419              ;* FNAME: _USER1_ISR                    FR SIZE:   4           *
     420              ;*                                                             *
     421              ;* FUNCTION ENVIRONMENT                                        *
     422              ;*                                                             *
     423              ;* FUNCTION PROPERTIES                                         *
     424              ;*                            0 Parameter,  0 Auto,  4 SOE     *
     425              ;***************************************************************
     426              
TMS320C2000 Assembler PC v6.4.2 Thu Dec 14 15:26:09 2017

Tools Copyright (c) 1996-2015 Texas Instruments Incorporated
F2837xS_DefaultISR.asm                                               PAGE    9

     427 00000046       _USER1_ISR:
     428                      .dwcfi  cfa_offset, -2
     429                      .dwcfi  save_reg_to_mem, 26, 0
     430 00000046 761B          ASP       ; [CPU_] 
     431 00000047 FFF0          PUSH      RB                    ; [CPU_] 
     432                      .dwcfi  save_reg_to_mem, 73, 2
     433                      .dwcfi  save_reg_to_mem, 74, 3
     434                      .dwcfi  cfa_offset, -4
     435 00000048 E200          MOV32     *SP++,STF             ; [CPU_] 
         00000049 00BD 
     436                      .dwcfi  save_reg_to_mem, 39, 4
     437                      .dwcfi  save_reg_to_mem, 40, 5
     438                      .dwcfi  cfa_offset, -6
     439 0000004a E630          SETFLG    RNDF32=1, RNDF64=1    ; [CPU_] 
         0000004b 0600 
     440 0000004c 2942          CLRC      PAGE0,OVM             ; [CPU_] 
     441 0000004d 5616          CLRC      AMODE                 ; [CPU_] 
     442                      .dwpsn  file "C:/ti/controlSUITE/device_support/F2837xS/v170/F2837xS_common/source/F2837xS_DefaultISR
     443 0000004e 7625        ESTOP0
     444 0000004f       $C$L8:    
     445                      .dwpsn  file "C:/ti/controlSUITE/device_support/F2837xS/v170/F2837xS_common/source/F2837xS_DefaultISR
     446 0000004f 6F00          B         $C$L8,UNC             ; [CPU_] |103| 
     447                      ; branch occurs ; [] |103| 
     448                      .dwattr $C$DW$8, DW_AT_TI_end_file("C:/ti/controlSUITE/device_support/F2837xS/v170/F2837xS_common/sou
     449                      .dwattr $C$DW$8, DW_AT_TI_end_line(0x68)
     450                      .dwattr $C$DW$8, DW_AT_TI_end_column(0x01)
     451                      .dwendentry
     452                      .dwendtag $C$DW$8
     453              
     454 00000050               .sect   ".text:retain"
     455                      .retain
     456                      .retainrefs
     457                      .global _USER2_ISR
     458              
     459              $C$DW$9 .dwtag  DW_TAG_subprogram, DW_AT_name("USER2_ISR")
     460                      .dwattr $C$DW$9, DW_AT_low_pc(_USER2_ISR)
     461                      .dwattr $C$DW$9, DW_AT_high_pc(0x00)
     462                      .dwattr $C$DW$9, DW_AT_TI_symbol_name("_USER2_ISR")
     463                      .dwattr $C$DW$9, DW_AT_external
     464                      .dwattr $C$DW$9, DW_AT_TI_begin_file("C:/ti/controlSUITE/device_support/F2837xS/v170/F2837xS_common/s
     465                      .dwattr $C$DW$9, DW_AT_TI_begin_line(0x6b)
     466                      .dwattr $C$DW$9, DW_AT_TI_begin_column(0x10)
     467                      .dwattr $C$DW$9, DW_AT_TI_interrupt
     468                      .dwattr $C$DW$9, DW_AT_TI_max_frame_size(-6)
     469                      .dwpsn  file "C:/ti/controlSUITE/device_support/F2837xS/v170/F2837xS_common/source/F2837xS_DefaultISR
     470              
     471                      .dwfde $C$DW$CIE, _USER2_ISR
     472              
     473              ;***************************************************************
     474              ;* FNAME: _USER2_ISR                    FR SIZE:   4           *
     475              ;*                                                             *
     476              ;* FUNCTION ENVIRONMENT                                        *
     477              ;*                                                             *
     478              ;* FUNCTION PROPERTIES                                         *
     479              ;*                            0 Parameter,  0 Auto,  4 SOE     *
TMS320C2000 Assembler PC v6.4.2 Thu Dec 14 15:26:09 2017

Tools Copyright (c) 1996-2015 Texas Instruments Incorporated
F2837xS_DefaultISR.asm                                               PAGE   10

     480              ;***************************************************************
     481              
     482 00000050       _USER2_ISR:
     483                      .dwcfi  cfa_offset, -2
     484                      .dwcfi  save_reg_to_mem, 26, 0
     485 00000050 761B          ASP       ; [CPU_] 
     486 00000051 FFF0          PUSH      RB                    ; [CPU_] 
     487                      .dwcfi  save_reg_to_mem, 73, 2
     488                      .dwcfi  save_reg_to_mem, 74, 3
     489                      .dwcfi  cfa_offset, -4
     490 00000052 E200          MOV32     *SP++,STF             ; [CPU_] 
         00000053 00BD 
     491                      .dwcfi  save_reg_to_mem, 39, 4
     492                      .dwcfi  save_reg_to_mem, 40, 5
     493                      .dwcfi  cfa_offset, -6
     494 00000054 E630          SETFLG    RNDF32=1, RNDF64=1    ; [CPU_] 
         00000055 0600 
     495 00000056 2942          CLRC      PAGE0,OVM             ; [CPU_] 
     496 00000057 5616          CLRC      AMODE                 ; [CPU_] 
     497                      .dwpsn  file "C:/ti/controlSUITE/device_support/F2837xS/v170/F2837xS_common/source/F2837xS_DefaultISR
     498 00000058 7625        ESTOP0
     499 00000059       $C$L9:    
     500                      .dwpsn  file "C:/ti/controlSUITE/device_support/F2837xS/v170/F2837xS_common/source/F2837xS_DefaultISR
     501 00000059 6F00          B         $C$L9,UNC             ; [CPU_] |114| 
     502                      ; branch occurs ; [] |114| 
     503                      .dwattr $C$DW$9, DW_AT_TI_end_file("C:/ti/controlSUITE/device_support/F2837xS/v170/F2837xS_common/sou
     504                      .dwattr $C$DW$9, DW_AT_TI_end_line(0x73)
     505                      .dwattr $C$DW$9, DW_AT_TI_end_column(0x01)
     506                      .dwendentry
     507                      .dwendtag $C$DW$9
     508              
     509 0000005a               .sect   ".text:retain"
     510                      .retain
     511                      .retainrefs
     512                      .global _USER3_ISR
     513              
     514              $C$DW$10        .dwtag  DW_TAG_subprogram, DW_AT_name("USER3_ISR")
     515                      .dwattr $C$DW$10, DW_AT_low_pc(_USER3_ISR)
     516                      .dwattr $C$DW$10, DW_AT_high_pc(0x00)
     517                      .dwattr $C$DW$10, DW_AT_TI_symbol_name("_USER3_ISR")
     518                      .dwattr $C$DW$10, DW_AT_external
     519                      .dwattr $C$DW$10, DW_AT_TI_begin_file("C:/ti/controlSUITE/device_support/F2837xS/v170/F2837xS_common/
     520                      .dwattr $C$DW$10, DW_AT_TI_begin_line(0x76)
     521                      .dwattr $C$DW$10, DW_AT_TI_begin_column(0x10)
     522                      .dwattr $C$DW$10, DW_AT_TI_interrupt
     523                      .dwattr $C$DW$10, DW_AT_TI_max_frame_size(-6)
     524                      .dwpsn  file "C:/ti/controlSUITE/device_support/F2837xS/v170/F2837xS_common/source/F2837xS_DefaultISR
     525              
     526                      .dwfde $C$DW$CIE, _USER3_ISR
     527              
     528              ;***************************************************************
     529              ;* FNAME: _USER3_ISR                    FR SIZE:   4           *
     530              ;*                                                             *
     531              ;* FUNCTION ENVIRONMENT                                        *
     532              ;*                                                             *
TMS320C2000 Assembler PC v6.4.2 Thu Dec 14 15:26:09 2017

Tools Copyright (c) 1996-2015 Texas Instruments Incorporated
F2837xS_DefaultISR.asm                                               PAGE   11

     533              ;* FUNCTION PROPERTIES                                         *
     534              ;*                            0 Parameter,  0 Auto,  4 SOE     *
     535              ;***************************************************************
     536              
     537 0000005a       _USER3_ISR:
     538                      .dwcfi  cfa_offset, -2
     539                      .dwcfi  save_reg_to_mem, 26, 0
     540 0000005a 761B          ASP       ; [CPU_] 
     541 0000005b FFF0          PUSH      RB                    ; [CPU_] 
     542                      .dwcfi  save_reg_to_mem, 73, 2
     543                      .dwcfi  save_reg_to_mem, 74, 3
     544                      .dwcfi  cfa_offset, -4
     545 0000005c E200          MOV32     *SP++,STF             ; [CPU_] 
         0000005d 00BD 
     546                      .dwcfi  save_reg_to_mem, 39, 4
     547                      .dwcfi  save_reg_to_mem, 40, 5
     548                      .dwcfi  cfa_offset, -6
     549 0000005e E630          SETFLG    RNDF32=1, RNDF64=1    ; [CPU_] 
         0000005f 0600 
     550 00000060 2942          CLRC      PAGE0,OVM             ; [CPU_] 
     551 00000061 5616          CLRC      AMODE                 ; [CPU_] 
     552                      .dwpsn  file "C:/ti/controlSUITE/device_support/F2837xS/v170/F2837xS_common/source/F2837xS_DefaultISR
     553 00000062 7625        ESTOP0
     554 00000063       $C$L10:    
     555                      .dwpsn  file "C:/ti/controlSUITE/device_support/F2837xS/v170/F2837xS_common/source/F2837xS_DefaultISR
     556 00000063 6F00          B         $C$L10,UNC            ; [CPU_] |125| 
     557                      ; branch occurs ; [] |125| 
     558                      .dwattr $C$DW$10, DW_AT_TI_end_file("C:/ti/controlSUITE/device_support/F2837xS/v170/F2837xS_common/so
     559                      .dwattr $C$DW$10, DW_AT_TI_end_line(0x7e)
     560                      .dwattr $C$DW$10, DW_AT_TI_end_column(0x01)
     561                      .dwendentry
     562                      .dwendtag $C$DW$10
     563              
     564 00000064               .sect   ".text:retain"
     565                      .retain
     566                      .retainrefs
     567                      .global _USER4_ISR
     568              
     569              $C$DW$11        .dwtag  DW_TAG_subprogram, DW_AT_name("USER4_ISR")
     570                      .dwattr $C$DW$11, DW_AT_low_pc(_USER4_ISR)
     571                      .dwattr $C$DW$11, DW_AT_high_pc(0x00)
     572                      .dwattr $C$DW$11, DW_AT_TI_symbol_name("_USER4_ISR")
     573                      .dwattr $C$DW$11, DW_AT_external
     574                      .dwattr $C$DW$11, DW_AT_TI_begin_file("C:/ti/controlSUITE/device_support/F2837xS/v170/F2837xS_common/
     575                      .dwattr $C$DW$11, DW_AT_TI_begin_line(0x81)
     576                      .dwattr $C$DW$11, DW_AT_TI_begin_column(0x10)
     577                      .dwattr $C$DW$11, DW_AT_TI_interrupt
     578                      .dwattr $C$DW$11, DW_AT_TI_max_frame_size(-6)
     579                      .dwpsn  file "C:/ti/controlSUITE/device_support/F2837xS/v170/F2837xS_common/source/F2837xS_DefaultISR
     580              
     581                      .dwfde $C$DW$CIE, _USER4_ISR
     582              
     583              ;***************************************************************
     584              ;* FNAME: _USER4_ISR                    FR SIZE:   4           *
     585              ;*                                                             *
TMS320C2000 Assembler PC v6.4.2 Thu Dec 14 15:26:09 2017

Tools Copyright (c) 1996-2015 Texas Instruments Incorporated
F2837xS_DefaultISR.asm                                               PAGE   12

     586              ;* FUNCTION ENVIRONMENT                                        *
     587              ;*                                                             *
     588              ;* FUNCTION PROPERTIES                                         *
     589              ;*                            0 Parameter,  0 Auto,  4 SOE     *
     590              ;***************************************************************
     591              
     592 00000064       _USER4_ISR:
     593                      .dwcfi  cfa_offset, -2
     594                      .dwcfi  save_reg_to_mem, 26, 0
     595 00000064 761B          ASP       ; [CPU_] 
     596 00000065 FFF0          PUSH      RB                    ; [CPU_] 
     597                      .dwcfi  save_reg_to_mem, 73, 2
     598                      .dwcfi  save_reg_to_mem, 74, 3
     599                      .dwcfi  cfa_offset, -4
     600 00000066 E200          MOV32     *SP++,STF             ; [CPU_] 
         00000067 00BD 
     601                      .dwcfi  save_reg_to_mem, 39, 4
     602                      .dwcfi  save_reg_to_mem, 40, 5
     603                      .dwcfi  cfa_offset, -6
     604 00000068 E630          SETFLG    RNDF32=1, RNDF64=1    ; [CPU_] 
         00000069 0600 
     605 0000006a 2942          CLRC      PAGE0,OVM             ; [CPU_] 
     606 0000006b 5616          CLRC      AMODE                 ; [CPU_] 
     607                      .dwpsn  file "C:/ti/controlSUITE/device_support/F2837xS/v170/F2837xS_common/source/F2837xS_DefaultISR
     608 0000006c 7625        ESTOP0
     609 0000006d       $C$L11:    
     610                      .dwpsn  file "C:/ti/controlSUITE/device_support/F2837xS/v170/F2837xS_common/source/F2837xS_DefaultISR
     611 0000006d 6F00          B         $C$L11,UNC            ; [CPU_] |136| 
     612                      ; branch occurs ; [] |136| 
     613                      .dwattr $C$DW$11, DW_AT_TI_end_file("C:/ti/controlSUITE/device_support/F2837xS/v170/F2837xS_common/so
     614                      .dwattr $C$DW$11, DW_AT_TI_end_line(0x89)
     615                      .dwattr $C$DW$11, DW_AT_TI_end_column(0x01)
     616                      .dwendentry
     617                      .dwendtag $C$DW$11
     618              
     619 0000006e               .sect   ".text:retain"
     620                      .retain
     621                      .retainrefs
     622                      .global _USER5_ISR
     623              
     624              $C$DW$12        .dwtag  DW_TAG_subprogram, DW_AT_name("USER5_ISR")
     625                      .dwattr $C$DW$12, DW_AT_low_pc(_USER5_ISR)
     626                      .dwattr $C$DW$12, DW_AT_high_pc(0x00)
     627                      .dwattr $C$DW$12, DW_AT_TI_symbol_name("_USER5_ISR")
     628                      .dwattr $C$DW$12, DW_AT_external
     629                      .dwattr $C$DW$12, DW_AT_TI_begin_file("C:/ti/controlSUITE/device_support/F2837xS/v170/F2837xS_common/
     630                      .dwattr $C$DW$12, DW_AT_TI_begin_line(0x8c)
     631                      .dwattr $C$DW$12, DW_AT_TI_begin_column(0x10)
     632                      .dwattr $C$DW$12, DW_AT_TI_interrupt
     633                      .dwattr $C$DW$12, DW_AT_TI_max_frame_size(-6)
     634                      .dwpsn  file "C:/ti/controlSUITE/device_support/F2837xS/v170/F2837xS_common/source/F2837xS_DefaultISR
     635              
     636                      .dwfde $C$DW$CIE, _USER5_ISR
     637              
     638              ;***************************************************************
TMS320C2000 Assembler PC v6.4.2 Thu Dec 14 15:26:09 2017

Tools Copyright (c) 1996-2015 Texas Instruments Incorporated
F2837xS_DefaultISR.asm                                               PAGE   13

     639              ;* FNAME: _USER5_ISR                    FR SIZE:   4           *
     640              ;*                                                             *
     641              ;* FUNCTION ENVIRONMENT                                        *
     642              ;*                                                             *
     643              ;* FUNCTION PROPERTIES                                         *
     644              ;*                            0 Parameter,  0 Auto,  4 SOE     *
     645              ;***************************************************************
     646              
     647 0000006e       _USER5_ISR:
     648                      .dwcfi  cfa_offset, -2
     649                      .dwcfi  save_reg_to_mem, 26, 0
     650 0000006e 761B          ASP       ; [CPU_] 
     651 0000006f FFF0          PUSH      RB                    ; [CPU_] 
     652                      .dwcfi  save_reg_to_mem, 73, 2
     653                      .dwcfi  save_reg_to_mem, 74, 3
     654                      .dwcfi  cfa_offset, -4
     655 00000070 E200          MOV32     *SP++,STF             ; [CPU_] 
         00000071 00BD 
     656                      .dwcfi  save_reg_to_mem, 39, 4
     657                      .dwcfi  save_reg_to_mem, 40, 5
     658                      .dwcfi  cfa_offset, -6
     659 00000072 E630          SETFLG    RNDF32=1, RNDF64=1    ; [CPU_] 
         00000073 0600 
     660 00000074 2942          CLRC      PAGE0,OVM             ; [CPU_] 
     661 00000075 5616          CLRC      AMODE                 ; [CPU_] 
     662                      .dwpsn  file "C:/ti/controlSUITE/device_support/F2837xS/v170/F2837xS_common/source/F2837xS_DefaultISR
     663 00000076 7625        ESTOP0
     664 00000077       $C$L12:    
     665                      .dwpsn  file "C:/ti/controlSUITE/device_support/F2837xS/v170/F2837xS_common/source/F2837xS_DefaultISR
     666 00000077 6F00          B         $C$L12,UNC            ; [CPU_] |147| 
     667                      ; branch occurs ; [] |147| 
     668                      .dwattr $C$DW$12, DW_AT_TI_end_file("C:/ti/controlSUITE/device_support/F2837xS/v170/F2837xS_common/so
     669                      .dwattr $C$DW$12, DW_AT_TI_end_line(0x94)
     670                      .dwattr $C$DW$12, DW_AT_TI_end_column(0x01)
     671                      .dwendentry
     672                      .dwendtag $C$DW$12
     673              
     674 00000078               .sect   ".text:retain"
     675                      .retain
     676                      .retainrefs
     677                      .global _USER6_ISR
     678              
     679              $C$DW$13        .dwtag  DW_TAG_subprogram, DW_AT_name("USER6_ISR")
     680                      .dwattr $C$DW$13, DW_AT_low_pc(_USER6_ISR)
     681                      .dwattr $C$DW$13, DW_AT_high_pc(0x00)
     682                      .dwattr $C$DW$13, DW_AT_TI_symbol_name("_USER6_ISR")
     683                      .dwattr $C$DW$13, DW_AT_external
     684                      .dwattr $C$DW$13, DW_AT_TI_begin_file("C:/ti/controlSUITE/device_support/F2837xS/v170/F2837xS_common/
     685                      .dwattr $C$DW$13, DW_AT_TI_begin_line(0x97)
     686                      .dwattr $C$DW$13, DW_AT_TI_begin_column(0x10)
     687                      .dwattr $C$DW$13, DW_AT_TI_interrupt
     688                      .dwattr $C$DW$13, DW_AT_TI_max_frame_size(-6)
     689                      .dwpsn  file "C:/ti/controlSUITE/device_support/F2837xS/v170/F2837xS_common/source/F2837xS_DefaultISR
     690              
     691                      .dwfde $C$DW$CIE, _USER6_ISR
TMS320C2000 Assembler PC v6.4.2 Thu Dec 14 15:26:09 2017

Tools Copyright (c) 1996-2015 Texas Instruments Incorporated
F2837xS_DefaultISR.asm                                               PAGE   14

     692              
     693              ;***************************************************************
     694              ;* FNAME: _USER6_ISR                    FR SIZE:   4           *
     695              ;*                                                             *
     696              ;* FUNCTION ENVIRONMENT                                        *
     697              ;*                                                             *
     698              ;* FUNCTION PROPERTIES                                         *
     699              ;*                            0 Parameter,  0 Auto,  4 SOE     *
     700              ;***************************************************************
     701              
     702 00000078       _USER6_ISR:
     703                      .dwcfi  cfa_offset, -2
     704                      .dwcfi  save_reg_to_mem, 26, 0
     705 00000078 761B          ASP       ; [CPU_] 
     706 00000079 FFF0          PUSH      RB                    ; [CPU_] 
     707                      .dwcfi  save_reg_to_mem, 73, 2
     708                      .dwcfi  save_reg_to_mem, 74, 3
     709                      .dwcfi  cfa_offset, -4
     710 0000007a E200          MOV32     *SP++,STF             ; [CPU_] 
         0000007b 00BD 
     711                      .dwcfi  save_reg_to_mem, 39, 4
     712                      .dwcfi  save_reg_to_mem, 40, 5
     713                      .dwcfi  cfa_offset, -6
     714 0000007c E630          SETFLG    RNDF32=1, RNDF64=1    ; [CPU_] 
         0000007d 0600 
     715 0000007e 2942          CLRC      PAGE0,OVM             ; [CPU_] 
     716 0000007f 5616          CLRC      AMODE                 ; [CPU_] 
     717                      .dwpsn  file "C:/ti/controlSUITE/device_support/F2837xS/v170/F2837xS_common/source/F2837xS_DefaultISR
     718 00000080 7625        ESTOP0
     719 00000081       $C$L13:    
     720                      .dwpsn  file "C:/ti/controlSUITE/device_support/F2837xS/v170/F2837xS_common/source/F2837xS_DefaultISR
     721 00000081 6F00          B         $C$L13,UNC            ; [CPU_] |158| 
     722                      ; branch occurs ; [] |158| 
     723                      .dwattr $C$DW$13, DW_AT_TI_end_file("C:/ti/controlSUITE/device_support/F2837xS/v170/F2837xS_common/so
     724                      .dwattr $C$DW$13, DW_AT_TI_end_line(0x9f)
     725                      .dwattr $C$DW$13, DW_AT_TI_end_column(0x01)
     726                      .dwendentry
     727                      .dwendtag $C$DW$13
     728              
     729 00000082               .sect   ".text:retain"
     730                      .retain
     731                      .retainrefs
     732                      .global _USER7_ISR
     733              
     734              $C$DW$14        .dwtag  DW_TAG_subprogram, DW_AT_name("USER7_ISR")
     735                      .dwattr $C$DW$14, DW_AT_low_pc(_USER7_ISR)
     736                      .dwattr $C$DW$14, DW_AT_high_pc(0x00)
     737                      .dwattr $C$DW$14, DW_AT_TI_symbol_name("_USER7_ISR")
     738                      .dwattr $C$DW$14, DW_AT_external
     739                      .dwattr $C$DW$14, DW_AT_TI_begin_file("C:/ti/controlSUITE/device_support/F2837xS/v170/F2837xS_common/
     740                      .dwattr $C$DW$14, DW_AT_TI_begin_line(0xa2)
     741                      .dwattr $C$DW$14, DW_AT_TI_begin_column(0x10)
     742                      .dwattr $C$DW$14, DW_AT_TI_interrupt
     743                      .dwattr $C$DW$14, DW_AT_TI_max_frame_size(-6)
     744                      .dwpsn  file "C:/ti/controlSUITE/device_support/F2837xS/v170/F2837xS_common/source/F2837xS_DefaultISR
TMS320C2000 Assembler PC v6.4.2 Thu Dec 14 15:26:09 2017

Tools Copyright (c) 1996-2015 Texas Instruments Incorporated
F2837xS_DefaultISR.asm                                               PAGE   15

     745              
     746                      .dwfde $C$DW$CIE, _USER7_ISR
     747              
     748              ;***************************************************************
     749              ;* FNAME: _USER7_ISR                    FR SIZE:   4           *
     750              ;*                                                             *
     751              ;* FUNCTION ENVIRONMENT                                        *
     752              ;*                                                             *
     753              ;* FUNCTION PROPERTIES                                         *
     754              ;*                            0 Parameter,  0 Auto,  4 SOE     *
     755              ;***************************************************************
     756              
     757 00000082       _USER7_ISR:
     758                      .dwcfi  cfa_offset, -2
     759                      .dwcfi  save_reg_to_mem, 26, 0
     760 00000082 761B          ASP       ; [CPU_] 
     761 00000083 FFF0          PUSH      RB                    ; [CPU_] 
     762                      .dwcfi  save_reg_to_mem, 73, 2
     763                      .dwcfi  save_reg_to_mem, 74, 3
     764                      .dwcfi  cfa_offset, -4
     765 00000084 E200          MOV32     *SP++,STF             ; [CPU_] 
         00000085 00BD 
     766                      .dwcfi  save_reg_to_mem, 39, 4
     767                      .dwcfi  save_reg_to_mem, 40, 5
     768                      .dwcfi  cfa_offset, -6
     769 00000086 E630          SETFLG    RNDF32=1, RNDF64=1    ; [CPU_] 
         00000087 0600 
     770 00000088 2942          CLRC      PAGE0,OVM             ; [CPU_] 
     771 00000089 5616          CLRC      AMODE                 ; [CPU_] 
     772                      .dwpsn  file "C:/ti/controlSUITE/device_support/F2837xS/v170/F2837xS_common/source/F2837xS_DefaultISR
     773 0000008a 7625        ESTOP0
     774 0000008b       $C$L14:    
     775                      .dwpsn  file "C:/ti/controlSUITE/device_support/F2837xS/v170/F2837xS_common/source/F2837xS_DefaultISR
     776 0000008b 6F00          B         $C$L14,UNC            ; [CPU_] |169| 
     777                      ; branch occurs ; [] |169| 
     778                      .dwattr $C$DW$14, DW_AT_TI_end_file("C:/ti/controlSUITE/device_support/F2837xS/v170/F2837xS_common/so
     779                      .dwattr $C$DW$14, DW_AT_TI_end_line(0xaa)
     780                      .dwattr $C$DW$14, DW_AT_TI_end_column(0x01)
     781                      .dwendentry
     782                      .dwendtag $C$DW$14
     783              
     784 0000008c               .sect   ".text:retain"
     785                      .retain
     786                      .retainrefs
     787                      .global _USER8_ISR
     788              
     789              $C$DW$15        .dwtag  DW_TAG_subprogram, DW_AT_name("USER8_ISR")
     790                      .dwattr $C$DW$15, DW_AT_low_pc(_USER8_ISR)
     791                      .dwattr $C$DW$15, DW_AT_high_pc(0x00)
     792                      .dwattr $C$DW$15, DW_AT_TI_symbol_name("_USER8_ISR")
     793                      .dwattr $C$DW$15, DW_AT_external
     794                      .dwattr $C$DW$15, DW_AT_TI_begin_file("C:/ti/controlSUITE/device_support/F2837xS/v170/F2837xS_common/
     795                      .dwattr $C$DW$15, DW_AT_TI_begin_line(0xad)
     796                      .dwattr $C$DW$15, DW_AT_TI_begin_column(0x10)
     797                      .dwattr $C$DW$15, DW_AT_TI_interrupt
TMS320C2000 Assembler PC v6.4.2 Thu Dec 14 15:26:09 2017

Tools Copyright (c) 1996-2015 Texas Instruments Incorporated
F2837xS_DefaultISR.asm                                               PAGE   16

     798                      .dwattr $C$DW$15, DW_AT_TI_max_frame_size(-6)
     799                      .dwpsn  file "C:/ti/controlSUITE/device_support/F2837xS/v170/F2837xS_common/source/F2837xS_DefaultISR
     800              
     801                      .dwfde $C$DW$CIE, _USER8_ISR
     802              
     803              ;***************************************************************
     804              ;* FNAME: _USER8_ISR                    FR SIZE:   4           *
     805              ;*                                                             *
     806              ;* FUNCTION ENVIRONMENT                                        *
     807              ;*                                                             *
     808              ;* FUNCTION PROPERTIES                                         *
     809              ;*                            0 Parameter,  0 Auto,  4 SOE     *
     810              ;***************************************************************
     811              
     812 0000008c       _USER8_ISR:
     813                      .dwcfi  cfa_offset, -2
     814                      .dwcfi  save_reg_to_mem, 26, 0
     815 0000008c 761B          ASP       ; [CPU_] 
     816 0000008d FFF0          PUSH      RB                    ; [CPU_] 
     817                      .dwcfi  save_reg_to_mem, 73, 2
     818                      .dwcfi  save_reg_to_mem, 74, 3
     819                      .dwcfi  cfa_offset, -4
     820 0000008e E200          MOV32     *SP++,STF             ; [CPU_] 
         0000008f 00BD 
     821                      .dwcfi  save_reg_to_mem, 39, 4
     822                      .dwcfi  save_reg_to_mem, 40, 5
     823                      .dwcfi  cfa_offset, -6
     824 00000090 E630          SETFLG    RNDF32=1, RNDF64=1    ; [CPU_] 
         00000091 0600 
     825 00000092 2942          CLRC      PAGE0,OVM             ; [CPU_] 
     826 00000093 5616          CLRC      AMODE                 ; [CPU_] 
     827                      .dwpsn  file "C:/ti/controlSUITE/device_support/F2837xS/v170/F2837xS_common/source/F2837xS_DefaultISR
     828 00000094 7625        ESTOP0
     829 00000095       $C$L15:    
     830                      .dwpsn  file "C:/ti/controlSUITE/device_support/F2837xS/v170/F2837xS_common/source/F2837xS_DefaultISR
     831 00000095 6F00          B         $C$L15,UNC            ; [CPU_] |180| 
     832                      ; branch occurs ; [] |180| 
     833                      .dwattr $C$DW$15, DW_AT_TI_end_file("C:/ti/controlSUITE/device_support/F2837xS/v170/F2837xS_common/so
     834                      .dwattr $C$DW$15, DW_AT_TI_end_line(0xb5)
     835                      .dwattr $C$DW$15, DW_AT_TI_end_column(0x01)
     836                      .dwendentry
     837                      .dwendtag $C$DW$15
     838              
     839 00000096               .sect   ".text:retain"
     840                      .retain
     841                      .retainrefs
     842                      .global _USER9_ISR
     843              
     844              $C$DW$16        .dwtag  DW_TAG_subprogram, DW_AT_name("USER9_ISR")
     845                      .dwattr $C$DW$16, DW_AT_low_pc(_USER9_ISR)
     846                      .dwattr $C$DW$16, DW_AT_high_pc(0x00)
     847                      .dwattr $C$DW$16, DW_AT_TI_symbol_name("_USER9_ISR")
     848                      .dwattr $C$DW$16, DW_AT_external
     849                      .dwattr $C$DW$16, DW_AT_TI_begin_file("C:/ti/controlSUITE/device_support/F2837xS/v170/F2837xS_common/
     850                      .dwattr $C$DW$16, DW_AT_TI_begin_line(0xb8)
TMS320C2000 Assembler PC v6.4.2 Thu Dec 14 15:26:09 2017

Tools Copyright (c) 1996-2015 Texas Instruments Incorporated
F2837xS_DefaultISR.asm                                               PAGE   17

     851                      .dwattr $C$DW$16, DW_AT_TI_begin_column(0x10)
     852                      .dwattr $C$DW$16, DW_AT_TI_interrupt
     853                      .dwattr $C$DW$16, DW_AT_TI_max_frame_size(-6)
     854                      .dwpsn  file "C:/ti/controlSUITE/device_support/F2837xS/v170/F2837xS_common/source/F2837xS_DefaultISR
     855              
     856                      .dwfde $C$DW$CIE, _USER9_ISR
     857              
     858              ;***************************************************************
     859              ;* FNAME: _USER9_ISR                    FR SIZE:   4           *
     860              ;*                                                             *
     861              ;* FUNCTION ENVIRONMENT                                        *
     862              ;*                                                             *
     863              ;* FUNCTION PROPERTIES                                         *
     864              ;*                            0 Parameter,  0 Auto,  4 SOE     *
     865              ;***************************************************************
     866              
     867 00000096       _USER9_ISR:
     868                      .dwcfi  cfa_offset, -2
     869                      .dwcfi  save_reg_to_mem, 26, 0
     870 00000096 761B          ASP       ; [CPU_] 
     871 00000097 FFF0          PUSH      RB                    ; [CPU_] 
     872                      .dwcfi  save_reg_to_mem, 73, 2
     873                      .dwcfi  save_reg_to_mem, 74, 3
     874                      .dwcfi  cfa_offset, -4
     875 00000098 E200          MOV32     *SP++,STF             ; [CPU_] 
         00000099 00BD 
     876                      .dwcfi  save_reg_to_mem, 39, 4
     877                      .dwcfi  save_reg_to_mem, 40, 5
     878                      .dwcfi  cfa_offset, -6
     879 0000009a E630          SETFLG    RNDF32=1, RNDF64=1    ; [CPU_] 
         0000009b 0600 
     880 0000009c 2942          CLRC      PAGE0,OVM             ; [CPU_] 
     881 0000009d 5616          CLRC      AMODE                 ; [CPU_] 
     882                      .dwpsn  file "C:/ti/controlSUITE/device_support/F2837xS/v170/F2837xS_common/source/F2837xS_DefaultISR
     883 0000009e 7625        ESTOP0
     884 0000009f       $C$L16:    
     885                      .dwpsn  file "C:/ti/controlSUITE/device_support/F2837xS/v170/F2837xS_common/source/F2837xS_DefaultISR
     886 0000009f 6F00          B         $C$L16,UNC            ; [CPU_] |191| 
     887                      ; branch occurs ; [] |191| 
     888                      .dwattr $C$DW$16, DW_AT_TI_end_file("C:/ti/controlSUITE/device_support/F2837xS/v170/F2837xS_common/so
     889                      .dwattr $C$DW$16, DW_AT_TI_end_line(0xc0)
     890                      .dwattr $C$DW$16, DW_AT_TI_end_column(0x01)
     891                      .dwendentry
     892                      .dwendtag $C$DW$16
     893              
     894 000000a0               .sect   ".text:retain"
     895                      .retain
     896                      .retainrefs
     897                      .global _USER10_ISR
     898              
     899              $C$DW$17        .dwtag  DW_TAG_subprogram, DW_AT_name("USER10_ISR")
     900                      .dwattr $C$DW$17, DW_AT_low_pc(_USER10_ISR)
     901                      .dwattr $C$DW$17, DW_AT_high_pc(0x00)
     902                      .dwattr $C$DW$17, DW_AT_TI_symbol_name("_USER10_ISR")
     903                      .dwattr $C$DW$17, DW_AT_external
TMS320C2000 Assembler PC v6.4.2 Thu Dec 14 15:26:09 2017

Tools Copyright (c) 1996-2015 Texas Instruments Incorporated
F2837xS_DefaultISR.asm                                               PAGE   18

     904                      .dwattr $C$DW$17, DW_AT_TI_begin_file("C:/ti/controlSUITE/device_support/F2837xS/v170/F2837xS_common/
     905                      .dwattr $C$DW$17, DW_AT_TI_begin_line(0xc3)
     906                      .dwattr $C$DW$17, DW_AT_TI_begin_column(0x10)
     907                      .dwattr $C$DW$17, DW_AT_TI_interrupt
     908                      .dwattr $C$DW$17, DW_AT_TI_max_frame_size(-6)
     909                      .dwpsn  file "C:/ti/controlSUITE/device_support/F2837xS/v170/F2837xS_common/source/F2837xS_DefaultISR
     910              
     911                      .dwfde $C$DW$CIE, _USER10_ISR
     912              
     913              ;***************************************************************
     914              ;* FNAME: _USER10_ISR                   FR SIZE:   4           *
     915              ;*                                                             *
     916              ;* FUNCTION ENVIRONMENT                                        *
     917              ;*                                                             *
     918              ;* FUNCTION PROPERTIES                                         *
     919              ;*                            0 Parameter,  0 Auto,  4 SOE     *
     920              ;***************************************************************
     921              
     922 000000a0       _USER10_ISR:
     923                      .dwcfi  cfa_offset, -2
     924                      .dwcfi  save_reg_to_mem, 26, 0
     925 000000a0 761B          ASP       ; [CPU_] 
     926 000000a1 FFF0          PUSH      RB                    ; [CPU_] 
     927                      .dwcfi  save_reg_to_mem, 73, 2
     928                      .dwcfi  save_reg_to_mem, 74, 3
     929                      .dwcfi  cfa_offset, -4
     930 000000a2 E200          MOV32     *SP++,STF             ; [CPU_] 
         000000a3 00BD 
     931                      .dwcfi  save_reg_to_mem, 39, 4
     932                      .dwcfi  save_reg_to_mem, 40, 5
     933                      .dwcfi  cfa_offset, -6
     934 000000a4 E630          SETFLG    RNDF32=1, RNDF64=1    ; [CPU_] 
         000000a5 0600 
     935 000000a6 2942          CLRC      PAGE0,OVM             ; [CPU_] 
     936 000000a7 5616          CLRC      AMODE                 ; [CPU_] 
     937                      .dwpsn  file "C:/ti/controlSUITE/device_support/F2837xS/v170/F2837xS_common/source/F2837xS_DefaultISR
     938 000000a8 7625        ESTOP0
     939 000000a9       $C$L17:    
     940                      .dwpsn  file "C:/ti/controlSUITE/device_support/F2837xS/v170/F2837xS_common/source/F2837xS_DefaultISR
     941 000000a9 6F00          B         $C$L17,UNC            ; [CPU_] |202| 
     942                      ; branch occurs ; [] |202| 
     943                      .dwattr $C$DW$17, DW_AT_TI_end_file("C:/ti/controlSUITE/device_support/F2837xS/v170/F2837xS_common/so
     944                      .dwattr $C$DW$17, DW_AT_TI_end_line(0xcb)
     945                      .dwattr $C$DW$17, DW_AT_TI_end_column(0x01)
     946                      .dwendentry
     947                      .dwendtag $C$DW$17
     948              
     949 000000aa               .sect   ".text:retain"
     950                      .retain
     951                      .retainrefs
     952                      .global _USER11_ISR
     953              
     954              $C$DW$18        .dwtag  DW_TAG_subprogram, DW_AT_name("USER11_ISR")
     955                      .dwattr $C$DW$18, DW_AT_low_pc(_USER11_ISR)
     956                      .dwattr $C$DW$18, DW_AT_high_pc(0x00)
TMS320C2000 Assembler PC v6.4.2 Thu Dec 14 15:26:09 2017

Tools Copyright (c) 1996-2015 Texas Instruments Incorporated
F2837xS_DefaultISR.asm                                               PAGE   19

     957                      .dwattr $C$DW$18, DW_AT_TI_symbol_name("_USER11_ISR")
     958                      .dwattr $C$DW$18, DW_AT_external
     959                      .dwattr $C$DW$18, DW_AT_TI_begin_file("C:/ti/controlSUITE/device_support/F2837xS/v170/F2837xS_common/
     960                      .dwattr $C$DW$18, DW_AT_TI_begin_line(0xce)
     961                      .dwattr $C$DW$18, DW_AT_TI_begin_column(0x10)
     962                      .dwattr $C$DW$18, DW_AT_TI_interrupt
     963                      .dwattr $C$DW$18, DW_AT_TI_max_frame_size(-6)
     964                      .dwpsn  file "C:/ti/controlSUITE/device_support/F2837xS/v170/F2837xS_common/source/F2837xS_DefaultISR
     965              
     966                      .dwfde $C$DW$CIE, _USER11_ISR
     967              
     968              ;***************************************************************
     969              ;* FNAME: _USER11_ISR                   FR SIZE:   4           *
     970              ;*                                                             *
     971              ;* FUNCTION ENVIRONMENT                                        *
     972              ;*                                                             *
     973              ;* FUNCTION PROPERTIES                                         *
     974              ;*                            0 Parameter,  0 Auto,  4 SOE     *
     975              ;***************************************************************
     976              
     977 000000aa       _USER11_ISR:
     978                      .dwcfi  cfa_offset, -2
     979                      .dwcfi  save_reg_to_mem, 26, 0
     980 000000aa 761B          ASP       ; [CPU_] 
     981 000000ab FFF0          PUSH      RB                    ; [CPU_] 
     982                      .dwcfi  save_reg_to_mem, 73, 2
     983                      .dwcfi  save_reg_to_mem, 74, 3
     984                      .dwcfi  cfa_offset, -4
     985 000000ac E200          MOV32     *SP++,STF             ; [CPU_] 
         000000ad 00BD 
     986                      .dwcfi  save_reg_to_mem, 39, 4
     987                      .dwcfi  save_reg_to_mem, 40, 5
     988                      .dwcfi  cfa_offset, -6
     989 000000ae E630          SETFLG    RNDF32=1, RNDF64=1    ; [CPU_] 
         000000af 0600 
     990 000000b0 2942          CLRC      PAGE0,OVM             ; [CPU_] 
     991 000000b1 5616          CLRC      AMODE                 ; [CPU_] 
     992                      .dwpsn  file "C:/ti/controlSUITE/device_support/F2837xS/v170/F2837xS_common/source/F2837xS_DefaultISR
     993 000000b2 7625        ESTOP0
     994 000000b3       $C$L18:    
     995                      .dwpsn  file "C:/ti/controlSUITE/device_support/F2837xS/v170/F2837xS_common/source/F2837xS_DefaultISR
     996 000000b3 6F00          B         $C$L18,UNC            ; [CPU_] |213| 
     997                      ; branch occurs ; [] |213| 
     998                      .dwattr $C$DW$18, DW_AT_TI_end_file("C:/ti/controlSUITE/device_support/F2837xS/v170/F2837xS_common/so
     999                      .dwattr $C$DW$18, DW_AT_TI_end_line(0xd6)
    1000                      .dwattr $C$DW$18, DW_AT_TI_end_column(0x01)
    1001                      .dwendentry
    1002                      .dwendtag $C$DW$18
    1003              
    1004 000000b4               .sect   ".text:retain"
    1005                      .retain
    1006                      .retainrefs
    1007                      .global _USER12_ISR
    1008              
    1009              $C$DW$19        .dwtag  DW_TAG_subprogram, DW_AT_name("USER12_ISR")
TMS320C2000 Assembler PC v6.4.2 Thu Dec 14 15:26:09 2017

Tools Copyright (c) 1996-2015 Texas Instruments Incorporated
F2837xS_DefaultISR.asm                                               PAGE   20

    1010                      .dwattr $C$DW$19, DW_AT_low_pc(_USER12_ISR)
    1011                      .dwattr $C$DW$19, DW_AT_high_pc(0x00)
    1012                      .dwattr $C$DW$19, DW_AT_TI_symbol_name("_USER12_ISR")
    1013                      .dwattr $C$DW$19, DW_AT_external
    1014                      .dwattr $C$DW$19, DW_AT_TI_begin_file("C:/ti/controlSUITE/device_support/F2837xS/v170/F2837xS_common/
    1015                      .dwattr $C$DW$19, DW_AT_TI_begin_line(0xd9)
    1016                      .dwattr $C$DW$19, DW_AT_TI_begin_column(0x10)
    1017                      .dwattr $C$DW$19, DW_AT_TI_interrupt
    1018                      .dwattr $C$DW$19, DW_AT_TI_max_frame_size(-6)
    1019                      .dwpsn  file "C:/ti/controlSUITE/device_support/F2837xS/v170/F2837xS_common/source/F2837xS_DefaultISR
    1020              
    1021                      .dwfde $C$DW$CIE, _USER12_ISR
    1022              
    1023              ;***************************************************************
    1024              ;* FNAME: _USER12_ISR                   FR SIZE:   4           *
    1025              ;*                                                             *
    1026              ;* FUNCTION ENVIRONMENT                                        *
    1027              ;*                                                             *
    1028              ;* FUNCTION PROPERTIES                                         *
    1029              ;*                            0 Parameter,  0 Auto,  4 SOE     *
    1030              ;***************************************************************
    1031              
    1032 000000b4       _USER12_ISR:
    1033                      .dwcfi  cfa_offset, -2
    1034                      .dwcfi  save_reg_to_mem, 26, 0
    1035 000000b4 761B          ASP       ; [CPU_] 
    1036 000000b5 FFF0          PUSH      RB                    ; [CPU_] 
    1037                      .dwcfi  save_reg_to_mem, 73, 2
    1038                      .dwcfi  save_reg_to_mem, 74, 3
    1039                      .dwcfi  cfa_offset, -4
    1040 000000b6 E200          MOV32     *SP++,STF             ; [CPU_] 
         000000b7 00BD 
    1041                      .dwcfi  save_reg_to_mem, 39, 4
    1042                      .dwcfi  save_reg_to_mem, 40, 5
    1043                      .dwcfi  cfa_offset, -6
    1044 000000b8 E630          SETFLG    RNDF32=1, RNDF64=1    ; [CPU_] 
         000000b9 0600 
    1045 000000ba 2942          CLRC      PAGE0,OVM             ; [CPU_] 
    1046 000000bb 5616          CLRC      AMODE                 ; [CPU_] 
    1047                      .dwpsn  file "C:/ti/controlSUITE/device_support/F2837xS/v170/F2837xS_common/source/F2837xS_DefaultISR
    1048 000000bc 7625        ESTOP0
    1049 000000bd       $C$L19:    
    1050                      .dwpsn  file "C:/ti/controlSUITE/device_support/F2837xS/v170/F2837xS_common/source/F2837xS_DefaultISR
    1051 000000bd 6F00          B         $C$L19,UNC            ; [CPU_] |224| 
    1052                      ; branch occurs ; [] |224| 
    1053                      .dwattr $C$DW$19, DW_AT_TI_end_file("C:/ti/controlSUITE/device_support/F2837xS/v170/F2837xS_common/so
    1054                      .dwattr $C$DW$19, DW_AT_TI_end_line(0xe1)
    1055                      .dwattr $C$DW$19, DW_AT_TI_end_column(0x01)
    1056                      .dwendentry
    1057                      .dwendtag $C$DW$19
    1058              
    1059 000000be               .sect   ".text:retain"
    1060                      .retain
    1061                      .retainrefs
    1062                      .global _ADCA1_ISR
TMS320C2000 Assembler PC v6.4.2 Thu Dec 14 15:26:09 2017

Tools Copyright (c) 1996-2015 Texas Instruments Incorporated
F2837xS_DefaultISR.asm                                               PAGE   21

    1063              
    1064              $C$DW$20        .dwtag  DW_TAG_subprogram, DW_AT_name("ADCA1_ISR")
    1065                      .dwattr $C$DW$20, DW_AT_low_pc(_ADCA1_ISR)
    1066                      .dwattr $C$DW$20, DW_AT_high_pc(0x00)
    1067                      .dwattr $C$DW$20, DW_AT_TI_symbol_name("_ADCA1_ISR")
    1068                      .dwattr $C$DW$20, DW_AT_external
    1069                      .dwattr $C$DW$20, DW_AT_TI_begin_file("C:/ti/controlSUITE/device_support/F2837xS/v170/F2837xS_common/
    1070                      .dwattr $C$DW$20, DW_AT_TI_begin_line(0xe4)
    1071                      .dwattr $C$DW$20, DW_AT_TI_begin_column(0x10)
    1072                      .dwattr $C$DW$20, DW_AT_TI_interrupt
    1073                      .dwattr $C$DW$20, DW_AT_TI_max_frame_size(-6)
    1074                      .dwpsn  file "C:/ti/controlSUITE/device_support/F2837xS/v170/F2837xS_common/source/F2837xS_DefaultISR
    1075              
    1076                      .dwfde $C$DW$CIE, _ADCA1_ISR
    1077              
    1078              ;***************************************************************
    1079              ;* FNAME: _ADCA1_ISR                    FR SIZE:   4           *
    1080              ;*                                                             *
    1081              ;* FUNCTION ENVIRONMENT                                        *
    1082              ;*                                                             *
    1083              ;* FUNCTION PROPERTIES                                         *
    1084              ;*                            0 Parameter,  0 Auto,  4 SOE     *
    1085              ;***************************************************************
    1086              
    1087 000000be       _ADCA1_ISR:
    1088                      .dwcfi  cfa_offset, -2
    1089                      .dwcfi  save_reg_to_mem, 26, 0
    1090 000000be 761B          ASP       ; [CPU_] 
    1091 000000bf FFF0          PUSH      RB                    ; [CPU_] 
    1092                      .dwcfi  save_reg_to_mem, 73, 2
    1093                      .dwcfi  save_reg_to_mem, 74, 3
    1094                      .dwcfi  cfa_offset, -4
    1095 000000c0 E200          MOV32     *SP++,STF             ; [CPU_] 
         000000c1 00BD 
    1096                      .dwcfi  save_reg_to_mem, 39, 4
    1097                      .dwcfi  save_reg_to_mem, 40, 5
    1098                      .dwcfi  cfa_offset, -6
    1099 000000c2 E630          SETFLG    RNDF32=1, RNDF64=1    ; [CPU_] 
         000000c3 0600 
    1100 000000c4 2942          CLRC      PAGE0,OVM             ; [CPU_] 
    1101 000000c5 5616          CLRC      AMODE                 ; [CPU_] 
    1102                      .dwpsn  file "C:/ti/controlSUITE/device_support/F2837xS/v170/F2837xS_common/source/F2837xS_DefaultISR
    1103 000000c6 7625        ESTOP0
    1104 000000c7       $C$L20:    
    1105                      .dwpsn  file "C:/ti/controlSUITE/device_support/F2837xS/v170/F2837xS_common/source/F2837xS_DefaultISR
    1106 000000c7 6F00          B         $C$L20,UNC            ; [CPU_] |239| 
    1107                      ; branch occurs ; [] |239| 
    1108                      .dwattr $C$DW$20, DW_AT_TI_end_file("C:/ti/controlSUITE/device_support/F2837xS/v170/F2837xS_common/so
    1109                      .dwattr $C$DW$20, DW_AT_TI_end_line(0xf0)
    1110                      .dwattr $C$DW$20, DW_AT_TI_end_column(0x01)
    1111                      .dwendentry
    1112                      .dwendtag $C$DW$20
    1113              
    1114 000000c8               .sect   ".text:retain"
    1115                      .retain
TMS320C2000 Assembler PC v6.4.2 Thu Dec 14 15:26:09 2017

Tools Copyright (c) 1996-2015 Texas Instruments Incorporated
F2837xS_DefaultISR.asm                                               PAGE   22

    1116                      .retainrefs
    1117                      .global _ADCB1_ISR
    1118              
    1119              $C$DW$21        .dwtag  DW_TAG_subprogram, DW_AT_name("ADCB1_ISR")
    1120                      .dwattr $C$DW$21, DW_AT_low_pc(_ADCB1_ISR)
    1121                      .dwattr $C$DW$21, DW_AT_high_pc(0x00)
    1122                      .dwattr $C$DW$21, DW_AT_TI_symbol_name("_ADCB1_ISR")
    1123                      .dwattr $C$DW$21, DW_AT_external
    1124                      .dwattr $C$DW$21, DW_AT_TI_begin_file("C:/ti/controlSUITE/device_support/F2837xS/v170/F2837xS_common/
    1125                      .dwattr $C$DW$21, DW_AT_TI_begin_line(0xf3)
    1126                      .dwattr $C$DW$21, DW_AT_TI_begin_column(0x10)
    1127                      .dwattr $C$DW$21, DW_AT_TI_interrupt
    1128                      .dwattr $C$DW$21, DW_AT_TI_max_frame_size(-6)
    1129                      .dwpsn  file "C:/ti/controlSUITE/device_support/F2837xS/v170/F2837xS_common/source/F2837xS_DefaultISR
    1130              
    1131                      .dwfde $C$DW$CIE, _ADCB1_ISR
    1132              
    1133              ;***************************************************************
    1134              ;* FNAME: _ADCB1_ISR                    FR SIZE:   4           *
    1135              ;*                                                             *
    1136              ;* FUNCTION ENVIRONMENT                                        *
    1137              ;*                                                             *
    1138              ;* FUNCTION PROPERTIES                                         *
    1139              ;*                            0 Parameter,  0 Auto,  4 SOE     *
    1140              ;***************************************************************
    1141              
    1142 000000c8       _ADCB1_ISR:
    1143                      .dwcfi  cfa_offset, -2
    1144                      .dwcfi  save_reg_to_mem, 26, 0
    1145 000000c8 761B          ASP       ; [CPU_] 
    1146 000000c9 FFF0          PUSH      RB                    ; [CPU_] 
    1147                      .dwcfi  save_reg_to_mem, 73, 2
    1148                      .dwcfi  save_reg_to_mem, 74, 3
    1149                      .dwcfi  cfa_offset, -4
    1150 000000ca E200          MOV32     *SP++,STF             ; [CPU_] 
         000000cb 00BD 
    1151                      .dwcfi  save_reg_to_mem, 39, 4
    1152                      .dwcfi  save_reg_to_mem, 40, 5
    1153                      .dwcfi  cfa_offset, -6
    1154 000000cc E630          SETFLG    RNDF32=1, RNDF64=1    ; [CPU_] 
         000000cd 0600 
    1155 000000ce 2942          CLRC      PAGE0,OVM             ; [CPU_] 
    1156 000000cf 5616          CLRC      AMODE                 ; [CPU_] 
    1157                      .dwpsn  file "C:/ti/controlSUITE/device_support/F2837xS/v170/F2837xS_common/source/F2837xS_DefaultISR
    1158 000000d0 7625        ESTOP0
    1159 000000d1       $C$L21:    
    1160                      .dwpsn  file "C:/ti/controlSUITE/device_support/F2837xS/v170/F2837xS_common/source/F2837xS_DefaultISR
    1161 000000d1 6F00          B         $C$L21,UNC            ; [CPU_] |254| 
    1162                      ; branch occurs ; [] |254| 
    1163                      .dwattr $C$DW$21, DW_AT_TI_end_file("C:/ti/controlSUITE/device_support/F2837xS/v170/F2837xS_common/so
    1164                      .dwattr $C$DW$21, DW_AT_TI_end_line(0xff)
    1165                      .dwattr $C$DW$21, DW_AT_TI_end_column(0x01)
    1166                      .dwendentry
    1167                      .dwendtag $C$DW$21
    1168              
TMS320C2000 Assembler PC v6.4.2 Thu Dec 14 15:26:09 2017

Tools Copyright (c) 1996-2015 Texas Instruments Incorporated
F2837xS_DefaultISR.asm                                               PAGE   23

    1169 000000d2               .sect   ".text:retain"
    1170                      .retain
    1171                      .retainrefs
    1172                      .global _ADCC1_ISR
    1173              
    1174              $C$DW$22        .dwtag  DW_TAG_subprogram, DW_AT_name("ADCC1_ISR")
    1175                      .dwattr $C$DW$22, DW_AT_low_pc(_ADCC1_ISR)
    1176                      .dwattr $C$DW$22, DW_AT_high_pc(0x00)
    1177                      .dwattr $C$DW$22, DW_AT_TI_symbol_name("_ADCC1_ISR")
    1178                      .dwattr $C$DW$22, DW_AT_external
    1179                      .dwattr $C$DW$22, DW_AT_TI_begin_file("C:/ti/controlSUITE/device_support/F2837xS/v170/F2837xS_common/
    1180                      .dwattr $C$DW$22, DW_AT_TI_begin_line(0x102)
    1181                      .dwattr $C$DW$22, DW_AT_TI_begin_column(0x10)
    1182                      .dwattr $C$DW$22, DW_AT_TI_interrupt
    1183                      .dwattr $C$DW$22, DW_AT_TI_max_frame_size(-6)
    1184                      .dwpsn  file "C:/ti/controlSUITE/device_support/F2837xS/v170/F2837xS_common/source/F2837xS_DefaultISR
    1185              
    1186                      .dwfde $C$DW$CIE, _ADCC1_ISR
    1187              
    1188              ;***************************************************************
    1189              ;* FNAME: _ADCC1_ISR                    FR SIZE:   4           *
    1190              ;*                                                             *
    1191              ;* FUNCTION ENVIRONMENT                                        *
    1192              ;*                                                             *
    1193              ;* FUNCTION PROPERTIES                                         *
    1194              ;*                            0 Parameter,  0 Auto,  4 SOE     *
    1195              ;***************************************************************
    1196              
    1197 000000d2       _ADCC1_ISR:
    1198                      .dwcfi  cfa_offset, -2
    1199                      .dwcfi  save_reg_to_mem, 26, 0
    1200 000000d2 761B          ASP       ; [CPU_] 
    1201 000000d3 FFF0          PUSH      RB                    ; [CPU_] 
    1202                      .dwcfi  save_reg_to_mem, 73, 2
    1203                      .dwcfi  save_reg_to_mem, 74, 3
    1204                      .dwcfi  cfa_offset, -4
    1205 000000d4 E200          MOV32     *SP++,STF             ; [CPU_] 
         000000d5 00BD 
    1206                      .dwcfi  save_reg_to_mem, 39, 4
    1207                      .dwcfi  save_reg_to_mem, 40, 5
    1208                      .dwcfi  cfa_offset, -6
    1209 000000d6 E630          SETFLG    RNDF32=1, RNDF64=1    ; [CPU_] 
         000000d7 0600 
    1210 000000d8 2942          CLRC      PAGE0,OVM             ; [CPU_] 
    1211 000000d9 5616          CLRC      AMODE                 ; [CPU_] 
    1212                      .dwpsn  file "C:/ti/controlSUITE/device_support/F2837xS/v170/F2837xS_common/source/F2837xS_DefaultISR
    1213 000000da 7625        ESTOP0
    1214 000000db       $C$L22:    
    1215                      .dwpsn  file "C:/ti/controlSUITE/device_support/F2837xS/v170/F2837xS_common/source/F2837xS_DefaultISR
    1216 000000db 6F00          B         $C$L22,UNC            ; [CPU_] |269| 
    1217                      ; branch occurs ; [] |269| 
    1218                      .dwattr $C$DW$22, DW_AT_TI_end_file("C:/ti/controlSUITE/device_support/F2837xS/v170/F2837xS_common/so
    1219                      .dwattr $C$DW$22, DW_AT_TI_end_line(0x10e)
    1220                      .dwattr $C$DW$22, DW_AT_TI_end_column(0x01)
    1221                      .dwendentry
TMS320C2000 Assembler PC v6.4.2 Thu Dec 14 15:26:09 2017

Tools Copyright (c) 1996-2015 Texas Instruments Incorporated
F2837xS_DefaultISR.asm                                               PAGE   24

    1222                      .dwendtag $C$DW$22
    1223              
    1224 000000dc               .sect   ".text:retain"
    1225                      .retain
    1226                      .retainrefs
    1227                      .global _XINT1_ISR
    1228              
    1229              $C$DW$23        .dwtag  DW_TAG_subprogram, DW_AT_name("XINT1_ISR")
    1230                      .dwattr $C$DW$23, DW_AT_low_pc(_XINT1_ISR)
    1231                      .dwattr $C$DW$23, DW_AT_high_pc(0x00)
    1232                      .dwattr $C$DW$23, DW_AT_TI_symbol_name("_XINT1_ISR")
    1233                      .dwattr $C$DW$23, DW_AT_external
    1234                      .dwattr $C$DW$23, DW_AT_TI_begin_file("C:/ti/controlSUITE/device_support/F2837xS/v170/F2837xS_common/
    1235                      .dwattr $C$DW$23, DW_AT_TI_begin_line(0x111)
    1236                      .dwattr $C$DW$23, DW_AT_TI_begin_column(0x10)
    1237                      .dwattr $C$DW$23, DW_AT_TI_interrupt
    1238                      .dwattr $C$DW$23, DW_AT_TI_max_frame_size(-6)
    1239                      .dwpsn  file "C:/ti/controlSUITE/device_support/F2837xS/v170/F2837xS_common/source/F2837xS_DefaultISR
    1240              
    1241                      .dwfde $C$DW$CIE, _XINT1_ISR
    1242              
    1243              ;***************************************************************
    1244              ;* FNAME: _XINT1_ISR                    FR SIZE:   4           *
    1245              ;*                                                             *
    1246              ;* FUNCTION ENVIRONMENT                                        *
    1247              ;*                                                             *
    1248              ;* FUNCTION PROPERTIES                                         *
    1249              ;*                            0 Parameter,  0 Auto,  4 SOE     *
    1250              ;***************************************************************
    1251              
    1252 000000dc       _XINT1_ISR:
    1253                      .dwcfi  cfa_offset, -2
    1254                      .dwcfi  save_reg_to_mem, 26, 0
    1255 000000dc 761B          ASP       ; [CPU_] 
    1256 000000dd FFF0          PUSH      RB                    ; [CPU_] 
    1257                      .dwcfi  save_reg_to_mem, 73, 2
    1258                      .dwcfi  save_reg_to_mem, 74, 3
    1259                      .dwcfi  cfa_offset, -4
    1260 000000de E200          MOV32     *SP++,STF             ; [CPU_] 
         000000df 00BD 
    1261                      .dwcfi  save_reg_to_mem, 39, 4
    1262                      .dwcfi  save_reg_to_mem, 40, 5
    1263                      .dwcfi  cfa_offset, -6
    1264 000000e0 E630          SETFLG    RNDF32=1, RNDF64=1    ; [CPU_] 
         000000e1 0600 
    1265 000000e2 2942          CLRC      PAGE0,OVM             ; [CPU_] 
    1266 000000e3 5616          CLRC      AMODE                 ; [CPU_] 
    1267                      .dwpsn  file "C:/ti/controlSUITE/device_support/F2837xS/v170/F2837xS_common/source/F2837xS_DefaultISR
    1268 000000e4 7625        ESTOP0
    1269 000000e5       $C$L23:    
    1270                      .dwpsn  file "C:/ti/controlSUITE/device_support/F2837xS/v170/F2837xS_common/source/F2837xS_DefaultISR
    1271 000000e5 6F00          B         $C$L23,UNC            ; [CPU_] |284| 
    1272                      ; branch occurs ; [] |284| 
    1273                      .dwattr $C$DW$23, DW_AT_TI_end_file("C:/ti/controlSUITE/device_support/F2837xS/v170/F2837xS_common/so
    1274                      .dwattr $C$DW$23, DW_AT_TI_end_line(0x11d)
TMS320C2000 Assembler PC v6.4.2 Thu Dec 14 15:26:09 2017

Tools Copyright (c) 1996-2015 Texas Instruments Incorporated
F2837xS_DefaultISR.asm                                               PAGE   25

    1275                      .dwattr $C$DW$23, DW_AT_TI_end_column(0x01)
    1276                      .dwendentry
    1277                      .dwendtag $C$DW$23
    1278              
    1279 000000e6               .sect   ".text:retain"
    1280                      .retain
    1281                      .retainrefs
    1282                      .global _XINT2_ISR
    1283              
    1284              $C$DW$24        .dwtag  DW_TAG_subprogram, DW_AT_name("XINT2_ISR")
    1285                      .dwattr $C$DW$24, DW_AT_low_pc(_XINT2_ISR)
    1286                      .dwattr $C$DW$24, DW_AT_high_pc(0x00)
    1287                      .dwattr $C$DW$24, DW_AT_TI_symbol_name("_XINT2_ISR")
    1288                      .dwattr $C$DW$24, DW_AT_external
    1289                      .dwattr $C$DW$24, DW_AT_TI_begin_file("C:/ti/controlSUITE/device_support/F2837xS/v170/F2837xS_common/
    1290                      .dwattr $C$DW$24, DW_AT_TI_begin_line(0x120)
    1291                      .dwattr $C$DW$24, DW_AT_TI_begin_column(0x10)
    1292                      .dwattr $C$DW$24, DW_AT_TI_interrupt
    1293                      .dwattr $C$DW$24, DW_AT_TI_max_frame_size(-6)
    1294                      .dwpsn  file "C:/ti/controlSUITE/device_support/F2837xS/v170/F2837xS_common/source/F2837xS_DefaultISR
    1295              
    1296                      .dwfde $C$DW$CIE, _XINT2_ISR
    1297              
    1298              ;***************************************************************
    1299              ;* FNAME: _XINT2_ISR                    FR SIZE:   4           *
    1300              ;*                                                             *
    1301              ;* FUNCTION ENVIRONMENT                                        *
    1302              ;*                                                             *
    1303              ;* FUNCTION PROPERTIES                                         *
    1304              ;*                            0 Parameter,  0 Auto,  4 SOE     *
    1305              ;***************************************************************
    1306              
    1307 000000e6       _XINT2_ISR:
    1308                      .dwcfi  cfa_offset, -2
    1309                      .dwcfi  save_reg_to_mem, 26, 0
    1310 000000e6 761B          ASP       ; [CPU_] 
    1311 000000e7 FFF0          PUSH      RB                    ; [CPU_] 
    1312                      .dwcfi  save_reg_to_mem, 73, 2
    1313                      .dwcfi  save_reg_to_mem, 74, 3
    1314                      .dwcfi  cfa_offset, -4
    1315 000000e8 E200          MOV32     *SP++,STF             ; [CPU_] 
         000000e9 00BD 
    1316                      .dwcfi  save_reg_to_mem, 39, 4
    1317                      .dwcfi  save_reg_to_mem, 40, 5
    1318                      .dwcfi  cfa_offset, -6
    1319 000000ea E630          SETFLG    RNDF32=1, RNDF64=1    ; [CPU_] 
         000000eb 0600 
    1320 000000ec 2942          CLRC      PAGE0,OVM             ; [CPU_] 
    1321 000000ed 5616          CLRC      AMODE                 ; [CPU_] 
    1322                      .dwpsn  file "C:/ti/controlSUITE/device_support/F2837xS/v170/F2837xS_common/source/F2837xS_DefaultISR
    1323 000000ee 7625        ESTOP0
    1324 000000ef       $C$L24:    
    1325                      .dwpsn  file "C:/ti/controlSUITE/device_support/F2837xS/v170/F2837xS_common/source/F2837xS_DefaultISR
    1326 000000ef 6F00          B         $C$L24,UNC            ; [CPU_] |299| 
    1327                      ; branch occurs ; [] |299| 
TMS320C2000 Assembler PC v6.4.2 Thu Dec 14 15:26:09 2017

Tools Copyright (c) 1996-2015 Texas Instruments Incorporated
F2837xS_DefaultISR.asm                                               PAGE   26

    1328                      .dwattr $C$DW$24, DW_AT_TI_end_file("C:/ti/controlSUITE/device_support/F2837xS/v170/F2837xS_common/so
    1329                      .dwattr $C$DW$24, DW_AT_TI_end_line(0x12c)
    1330                      .dwattr $C$DW$24, DW_AT_TI_end_column(0x01)
    1331                      .dwendentry
    1332                      .dwendtag $C$DW$24
    1333              
    1334 000000f0               .sect   ".text:retain"
    1335                      .retain
    1336                      .retainrefs
    1337                      .global _ADCD1_ISR
    1338              
    1339              $C$DW$25        .dwtag  DW_TAG_subprogram, DW_AT_name("ADCD1_ISR")
    1340                      .dwattr $C$DW$25, DW_AT_low_pc(_ADCD1_ISR)
    1341                      .dwattr $C$DW$25, DW_AT_high_pc(0x00)
    1342                      .dwattr $C$DW$25, DW_AT_TI_symbol_name("_ADCD1_ISR")
    1343                      .dwattr $C$DW$25, DW_AT_external
    1344                      .dwattr $C$DW$25, DW_AT_TI_begin_file("C:/ti/controlSUITE/device_support/F2837xS/v170/F2837xS_common/
    1345                      .dwattr $C$DW$25, DW_AT_TI_begin_line(0x12f)
    1346                      .dwattr $C$DW$25, DW_AT_TI_begin_column(0x10)
    1347                      .dwattr $C$DW$25, DW_AT_TI_interrupt
    1348                      .dwattr $C$DW$25, DW_AT_TI_max_frame_size(-6)
    1349                      .dwpsn  file "C:/ti/controlSUITE/device_support/F2837xS/v170/F2837xS_common/source/F2837xS_DefaultISR
    1350              
    1351                      .dwfde $C$DW$CIE, _ADCD1_ISR
    1352              
    1353              ;***************************************************************
    1354              ;* FNAME: _ADCD1_ISR                    FR SIZE:   4           *
    1355              ;*                                                             *
    1356              ;* FUNCTION ENVIRONMENT                                        *
    1357              ;*                                                             *
    1358              ;* FUNCTION PROPERTIES                                         *
    1359              ;*                            0 Parameter,  0 Auto,  4 SOE     *
    1360              ;***************************************************************
    1361              
    1362 000000f0       _ADCD1_ISR:
    1363                      .dwcfi  cfa_offset, -2
    1364                      .dwcfi  save_reg_to_mem, 26, 0
    1365 000000f0 761B          ASP       ; [CPU_] 
    1366 000000f1 FFF0          PUSH      RB                    ; [CPU_] 
    1367                      .dwcfi  save_reg_to_mem, 73, 2
    1368                      .dwcfi  save_reg_to_mem, 74, 3
    1369                      .dwcfi  cfa_offset, -4
    1370 000000f2 E200          MOV32     *SP++,STF             ; [CPU_] 
         000000f3 00BD 
    1371                      .dwcfi  save_reg_to_mem, 39, 4
    1372                      .dwcfi  save_reg_to_mem, 40, 5
    1373                      .dwcfi  cfa_offset, -6
    1374 000000f4 E630          SETFLG    RNDF32=1, RNDF64=1    ; [CPU_] 
         000000f5 0600 
    1375 000000f6 2942          CLRC      PAGE0,OVM             ; [CPU_] 
    1376 000000f7 5616          CLRC      AMODE                 ; [CPU_] 
    1377                      .dwpsn  file "C:/ti/controlSUITE/device_support/F2837xS/v170/F2837xS_common/source/F2837xS_DefaultISR
    1378 000000f8 7625        ESTOP0
    1379 000000f9       $C$L25:    
    1380                      .dwpsn  file "C:/ti/controlSUITE/device_support/F2837xS/v170/F2837xS_common/source/F2837xS_DefaultISR
TMS320C2000 Assembler PC v6.4.2 Thu Dec 14 15:26:09 2017

Tools Copyright (c) 1996-2015 Texas Instruments Incorporated
F2837xS_DefaultISR.asm                                               PAGE   27

    1381 000000f9 6F00          B         $C$L25,UNC            ; [CPU_] |314| 
    1382                      ; branch occurs ; [] |314| 
    1383                      .dwattr $C$DW$25, DW_AT_TI_end_file("C:/ti/controlSUITE/device_support/F2837xS/v170/F2837xS_common/so
    1384                      .dwattr $C$DW$25, DW_AT_TI_end_line(0x13b)
    1385                      .dwattr $C$DW$25, DW_AT_TI_end_column(0x01)
    1386                      .dwendentry
    1387                      .dwendtag $C$DW$25
    1388              
    1389 000000fa               .sect   ".text:retain"
    1390                      .retain
    1391                      .retainrefs
    1392                      .global _TIMER0_ISR
    1393              
    1394              $C$DW$26        .dwtag  DW_TAG_subprogram, DW_AT_name("TIMER0_ISR")
    1395                      .dwattr $C$DW$26, DW_AT_low_pc(_TIMER0_ISR)
    1396                      .dwattr $C$DW$26, DW_AT_high_pc(0x00)
    1397                      .dwattr $C$DW$26, DW_AT_TI_symbol_name("_TIMER0_ISR")
    1398                      .dwattr $C$DW$26, DW_AT_external
    1399                      .dwattr $C$DW$26, DW_AT_TI_begin_file("C:/ti/controlSUITE/device_support/F2837xS/v170/F2837xS_common/
    1400                      .dwattr $C$DW$26, DW_AT_TI_begin_line(0x13e)
    1401                      .dwattr $C$DW$26, DW_AT_TI_begin_column(0x10)
    1402                      .dwattr $C$DW$26, DW_AT_TI_interrupt
    1403                      .dwattr $C$DW$26, DW_AT_TI_max_frame_size(-6)
    1404                      .dwpsn  file "C:/ti/controlSUITE/device_support/F2837xS/v170/F2837xS_common/source/F2837xS_DefaultISR
    1405              
    1406                      .dwfde $C$DW$CIE, _TIMER0_ISR
    1407              
    1408              ;***************************************************************
    1409              ;* FNAME: _TIMER0_ISR                   FR SIZE:   4           *
    1410              ;*                                                             *
    1411              ;* FUNCTION ENVIRONMENT                                        *
    1412              ;*                                                             *
    1413              ;* FUNCTION PROPERTIES                                         *
    1414              ;*                            0 Parameter,  0 Auto,  4 SOE     *
    1415              ;***************************************************************
    1416              
    1417 000000fa       _TIMER0_ISR:
    1418                      .dwcfi  cfa_offset, -2
    1419                      .dwcfi  save_reg_to_mem, 26, 0
    1420 000000fa 761B          ASP       ; [CPU_] 
    1421 000000fb FFF0          PUSH      RB                    ; [CPU_] 
    1422                      .dwcfi  save_reg_to_mem, 73, 2
    1423                      .dwcfi  save_reg_to_mem, 74, 3
    1424                      .dwcfi  cfa_offset, -4
    1425 000000fc E200          MOV32     *SP++,STF             ; [CPU_] 
         000000fd 00BD 
    1426                      .dwcfi  save_reg_to_mem, 39, 4
    1427                      .dwcfi  save_reg_to_mem, 40, 5
    1428                      .dwcfi  cfa_offset, -6
    1429 000000fe E630          SETFLG    RNDF32=1, RNDF64=1    ; [CPU_] 
         000000ff 0600 
    1430 00000100 2942          CLRC      PAGE0,OVM             ; [CPU_] 
    1431 00000101 5616          CLRC      AMODE                 ; [CPU_] 
    1432                      .dwpsn  file "C:/ti/controlSUITE/device_support/F2837xS/v170/F2837xS_common/source/F2837xS_DefaultISR
    1433 00000102 7625        ESTOP0
TMS320C2000 Assembler PC v6.4.2 Thu Dec 14 15:26:09 2017

Tools Copyright (c) 1996-2015 Texas Instruments Incorporated
F2837xS_DefaultISR.asm                                               PAGE   28

    1434 00000103       $C$L26:    
    1435                      .dwpsn  file "C:/ti/controlSUITE/device_support/F2837xS/v170/F2837xS_common/source/F2837xS_DefaultISR
    1436 00000103 6F00          B         $C$L26,UNC            ; [CPU_] |329| 
    1437                      ; branch occurs ; [] |329| 
    1438                      .dwattr $C$DW$26, DW_AT_TI_end_file("C:/ti/controlSUITE/device_support/F2837xS/v170/F2837xS_common/so
    1439                      .dwattr $C$DW$26, DW_AT_TI_end_line(0x14a)
    1440                      .dwattr $C$DW$26, DW_AT_TI_end_column(0x01)
    1441                      .dwendentry
    1442                      .dwendtag $C$DW$26
    1443              
    1444 00000104               .sect   ".text:retain"
    1445                      .retain
    1446                      .retainrefs
    1447                      .global _WAKE_ISR
    1448              
    1449              $C$DW$27        .dwtag  DW_TAG_subprogram, DW_AT_name("WAKE_ISR")
    1450                      .dwattr $C$DW$27, DW_AT_low_pc(_WAKE_ISR)
    1451                      .dwattr $C$DW$27, DW_AT_high_pc(0x00)
    1452                      .dwattr $C$DW$27, DW_AT_TI_symbol_name("_WAKE_ISR")
    1453                      .dwattr $C$DW$27, DW_AT_external
    1454                      .dwattr $C$DW$27, DW_AT_TI_begin_file("C:/ti/controlSUITE/device_support/F2837xS/v170/F2837xS_common/
    1455                      .dwattr $C$DW$27, DW_AT_TI_begin_line(0x14d)
    1456                      .dwattr $C$DW$27, DW_AT_TI_begin_column(0x10)
    1457                      .dwattr $C$DW$27, DW_AT_TI_interrupt
    1458                      .dwattr $C$DW$27, DW_AT_TI_max_frame_size(-6)
    1459                      .dwpsn  file "C:/ti/controlSUITE/device_support/F2837xS/v170/F2837xS_common/source/F2837xS_DefaultISR
    1460              
    1461                      .dwfde $C$DW$CIE, _WAKE_ISR
    1462              
    1463              ;***************************************************************
    1464              ;* FNAME: _WAKE_ISR                     FR SIZE:   4           *
    1465              ;*                                                             *
    1466              ;* FUNCTION ENVIRONMENT                                        *
    1467              ;*                                                             *
    1468              ;* FUNCTION PROPERTIES                                         *
    1469              ;*                            0 Parameter,  0 Auto,  4 SOE     *
    1470              ;***************************************************************
    1471              
    1472 00000104       _WAKE_ISR:
    1473                      .dwcfi  cfa_offset, -2
    1474                      .dwcfi  save_reg_to_mem, 26, 0
    1475 00000104 761B          ASP       ; [CPU_] 
    1476 00000105 FFF0          PUSH      RB                    ; [CPU_] 
    1477                      .dwcfi  save_reg_to_mem, 73, 2
    1478                      .dwcfi  save_reg_to_mem, 74, 3
    1479                      .dwcfi  cfa_offset, -4
    1480 00000106 E200          MOV32     *SP++,STF             ; [CPU_] 
         00000107 00BD 
    1481                      .dwcfi  save_reg_to_mem, 39, 4
    1482                      .dwcfi  save_reg_to_mem, 40, 5
    1483                      .dwcfi  cfa_offset, -6
    1484 00000108 E630          SETFLG    RNDF32=1, RNDF64=1    ; [CPU_] 
         00000109 0600 
    1485 0000010a 2942          CLRC      PAGE0,OVM             ; [CPU_] 
    1486 0000010b 5616          CLRC      AMODE                 ; [CPU_] 
TMS320C2000 Assembler PC v6.4.2 Thu Dec 14 15:26:09 2017

Tools Copyright (c) 1996-2015 Texas Instruments Incorporated
F2837xS_DefaultISR.asm                                               PAGE   29

    1487                      .dwpsn  file "C:/ti/controlSUITE/device_support/F2837xS/v170/F2837xS_common/source/F2837xS_DefaultISR
    1488 0000010c 7625        ESTOP0
    1489 0000010d       $C$L27:    
    1490                      .dwpsn  file "C:/ti/controlSUITE/device_support/F2837xS/v170/F2837xS_common/source/F2837xS_DefaultISR
    1491 0000010d 6F00          B         $C$L27,UNC            ; [CPU_] |344| 
    1492                      ; branch occurs ; [] |344| 
    1493                      .dwattr $C$DW$27, DW_AT_TI_end_file("C:/ti/controlSUITE/device_support/F2837xS/v170/F2837xS_common/so
    1494                      .dwattr $C$DW$27, DW_AT_TI_end_line(0x159)
    1495                      .dwattr $C$DW$27, DW_AT_TI_end_column(0x01)
    1496                      .dwendentry
    1497                      .dwendtag $C$DW$27
    1498              
    1499 0000010e               .sect   ".text:retain"
    1500                      .retain
    1501                      .retainrefs
    1502                      .global _EPWM1_TZ_ISR
    1503              
    1504              $C$DW$28        .dwtag  DW_TAG_subprogram, DW_AT_name("EPWM1_TZ_ISR")
    1505                      .dwattr $C$DW$28, DW_AT_low_pc(_EPWM1_TZ_ISR)
    1506                      .dwattr $C$DW$28, DW_AT_high_pc(0x00)
    1507                      .dwattr $C$DW$28, DW_AT_TI_symbol_name("_EPWM1_TZ_ISR")
    1508                      .dwattr $C$DW$28, DW_AT_external
    1509                      .dwattr $C$DW$28, DW_AT_TI_begin_file("C:/ti/controlSUITE/device_support/F2837xS/v170/F2837xS_common/
    1510                      .dwattr $C$DW$28, DW_AT_TI_begin_line(0x15c)
    1511                      .dwattr $C$DW$28, DW_AT_TI_begin_column(0x10)
    1512                      .dwattr $C$DW$28, DW_AT_TI_interrupt
    1513                      .dwattr $C$DW$28, DW_AT_TI_max_frame_size(-6)
    1514                      .dwpsn  file "C:/ti/controlSUITE/device_support/F2837xS/v170/F2837xS_common/source/F2837xS_DefaultISR
    1515              
    1516                      .dwfde $C$DW$CIE, _EPWM1_TZ_ISR
    1517              
    1518              ;***************************************************************
    1519              ;* FNAME: _EPWM1_TZ_ISR                 FR SIZE:   4           *
    1520              ;*                                                             *
    1521              ;* FUNCTION ENVIRONMENT                                        *
    1522              ;*                                                             *
    1523              ;* FUNCTION PROPERTIES                                         *
    1524              ;*                            0 Parameter,  0 Auto,  4 SOE     *
    1525              ;***************************************************************
    1526              
    1527 0000010e       _EPWM1_TZ_ISR:
    1528                      .dwcfi  cfa_offset, -2
    1529                      .dwcfi  save_reg_to_mem, 26, 0
    1530 0000010e 761B          ASP       ; [CPU_] 
    1531 0000010f FFF0          PUSH      RB                    ; [CPU_] 
    1532                      .dwcfi  save_reg_to_mem, 73, 2
    1533                      .dwcfi  save_reg_to_mem, 74, 3
    1534                      .dwcfi  cfa_offset, -4
    1535 00000110 E200          MOV32     *SP++,STF             ; [CPU_] 
         00000111 00BD 
    1536                      .dwcfi  save_reg_to_mem, 39, 4
    1537                      .dwcfi  save_reg_to_mem, 40, 5
    1538                      .dwcfi  cfa_offset, -6
    1539 00000112 E630          SETFLG    RNDF32=1, RNDF64=1    ; [CPU_] 
         00000113 0600 
TMS320C2000 Assembler PC v6.4.2 Thu Dec 14 15:26:09 2017

Tools Copyright (c) 1996-2015 Texas Instruments Incorporated
F2837xS_DefaultISR.asm                                               PAGE   30

    1540 00000114 2942          CLRC      PAGE0,OVM             ; [CPU_] 
    1541 00000115 5616          CLRC      AMODE                 ; [CPU_] 
    1542                      .dwpsn  file "C:/ti/controlSUITE/device_support/F2837xS/v170/F2837xS_common/source/F2837xS_DefaultISR
    1543 00000116 7625        ESTOP0
    1544 00000117       $C$L28:    
    1545                      .dwpsn  file "C:/ti/controlSUITE/device_support/F2837xS/v170/F2837xS_common/source/F2837xS_DefaultISR
    1546 00000117 6F00          B         $C$L28,UNC            ; [CPU_] |359| 
    1547                      ; branch occurs ; [] |359| 
    1548                      .dwattr $C$DW$28, DW_AT_TI_end_file("C:/ti/controlSUITE/device_support/F2837xS/v170/F2837xS_common/so
    1549                      .dwattr $C$DW$28, DW_AT_TI_end_line(0x168)
    1550                      .dwattr $C$DW$28, DW_AT_TI_end_column(0x01)
    1551                      .dwendentry
    1552                      .dwendtag $C$DW$28
    1553              
    1554 00000118               .sect   ".text:retain"
    1555                      .retain
    1556                      .retainrefs
    1557                      .global _EPWM2_TZ_ISR
    1558              
    1559              $C$DW$29        .dwtag  DW_TAG_subprogram, DW_AT_name("EPWM2_TZ_ISR")
    1560                      .dwattr $C$DW$29, DW_AT_low_pc(_EPWM2_TZ_ISR)
    1561                      .dwattr $C$DW$29, DW_AT_high_pc(0x00)
    1562                      .dwattr $C$DW$29, DW_AT_TI_symbol_name("_EPWM2_TZ_ISR")
    1563                      .dwattr $C$DW$29, DW_AT_external
    1564                      .dwattr $C$DW$29, DW_AT_TI_begin_file("C:/ti/controlSUITE/device_support/F2837xS/v170/F2837xS_common/
    1565                      .dwattr $C$DW$29, DW_AT_TI_begin_line(0x16b)
    1566                      .dwattr $C$DW$29, DW_AT_TI_begin_column(0x10)
    1567                      .dwattr $C$DW$29, DW_AT_TI_interrupt
    1568                      .dwattr $C$DW$29, DW_AT_TI_max_frame_size(-6)
    1569                      .dwpsn  file "C:/ti/controlSUITE/device_support/F2837xS/v170/F2837xS_common/source/F2837xS_DefaultISR
    1570              
    1571                      .dwfde $C$DW$CIE, _EPWM2_TZ_ISR
    1572              
    1573              ;***************************************************************
    1574              ;* FNAME: _EPWM2_TZ_ISR                 FR SIZE:   4           *
    1575              ;*                                                             *
    1576              ;* FUNCTION ENVIRONMENT                                        *
    1577              ;*                                                             *
    1578              ;* FUNCTION PROPERTIES                                         *
    1579              ;*                            0 Parameter,  0 Auto,  4 SOE     *
    1580              ;***************************************************************
    1581              
    1582 00000118       _EPWM2_TZ_ISR:
    1583                      .dwcfi  cfa_offset, -2
    1584                      .dwcfi  save_reg_to_mem, 26, 0
    1585 00000118 761B          ASP       ; [CPU_] 
    1586 00000119 FFF0          PUSH      RB                    ; [CPU_] 
    1587                      .dwcfi  save_reg_to_mem, 73, 2
    1588                      .dwcfi  save_reg_to_mem, 74, 3
    1589                      .dwcfi  cfa_offset, -4
    1590 0000011a E200          MOV32     *SP++,STF             ; [CPU_] 
         0000011b 00BD 
    1591                      .dwcfi  save_reg_to_mem, 39, 4
    1592                      .dwcfi  save_reg_to_mem, 40, 5
    1593                      .dwcfi  cfa_offset, -6
TMS320C2000 Assembler PC v6.4.2 Thu Dec 14 15:26:09 2017

Tools Copyright (c) 1996-2015 Texas Instruments Incorporated
F2837xS_DefaultISR.asm                                               PAGE   31

    1594 0000011c E630          SETFLG    RNDF32=1, RNDF64=1    ; [CPU_] 
         0000011d 0600 
    1595 0000011e 2942          CLRC      PAGE0,OVM             ; [CPU_] 
    1596 0000011f 5616          CLRC      AMODE                 ; [CPU_] 
    1597                      .dwpsn  file "C:/ti/controlSUITE/device_support/F2837xS/v170/F2837xS_common/source/F2837xS_DefaultISR
    1598 00000120 7625        ESTOP0
    1599 00000121       $C$L29:    
    1600                      .dwpsn  file "C:/ti/controlSUITE/device_support/F2837xS/v170/F2837xS_common/source/F2837xS_DefaultISR
    1601 00000121 6F00          B         $C$L29,UNC            ; [CPU_] |374| 
    1602                      ; branch occurs ; [] |374| 
    1603                      .dwattr $C$DW$29, DW_AT_TI_end_file("C:/ti/controlSUITE/device_support/F2837xS/v170/F2837xS_common/so
    1604                      .dwattr $C$DW$29, DW_AT_TI_end_line(0x177)
    1605                      .dwattr $C$DW$29, DW_AT_TI_end_column(0x01)
    1606                      .dwendentry
    1607                      .dwendtag $C$DW$29
    1608              
    1609 00000122               .sect   ".text:retain"
    1610                      .retain
    1611                      .retainrefs
    1612                      .global _EPWM3_TZ_ISR
    1613              
    1614              $C$DW$30        .dwtag  DW_TAG_subprogram, DW_AT_name("EPWM3_TZ_ISR")
    1615                      .dwattr $C$DW$30, DW_AT_low_pc(_EPWM3_TZ_ISR)
    1616                      .dwattr $C$DW$30, DW_AT_high_pc(0x00)
    1617                      .dwattr $C$DW$30, DW_AT_TI_symbol_name("_EPWM3_TZ_ISR")
    1618                      .dwattr $C$DW$30, DW_AT_external
    1619                      .dwattr $C$DW$30, DW_AT_TI_begin_file("C:/ti/controlSUITE/device_support/F2837xS/v170/F2837xS_common/
    1620                      .dwattr $C$DW$30, DW_AT_TI_begin_line(0x17a)
    1621                      .dwattr $C$DW$30, DW_AT_TI_begin_column(0x10)
    1622                      .dwattr $C$DW$30, DW_AT_TI_interrupt
    1623                      .dwattr $C$DW$30, DW_AT_TI_max_frame_size(-6)
    1624                      .dwpsn  file "C:/ti/controlSUITE/device_support/F2837xS/v170/F2837xS_common/source/F2837xS_DefaultISR
    1625              
    1626                      .dwfde $C$DW$CIE, _EPWM3_TZ_ISR
    1627              
    1628              ;***************************************************************
    1629              ;* FNAME: _EPWM3_TZ_ISR                 FR SIZE:   4           *
    1630              ;*                                                             *
    1631              ;* FUNCTION ENVIRONMENT                                        *
    1632              ;*                                                             *
    1633              ;* FUNCTION PROPERTIES                                         *
    1634              ;*                            0 Parameter,  0 Auto,  4 SOE     *
    1635              ;***************************************************************
    1636              
    1637 00000122       _EPWM3_TZ_ISR:
    1638                      .dwcfi  cfa_offset, -2
    1639                      .dwcfi  save_reg_to_mem, 26, 0
    1640 00000122 761B          ASP       ; [CPU_] 
    1641 00000123 FFF0          PUSH      RB                    ; [CPU_] 
    1642                      .dwcfi  save_reg_to_mem, 73, 2
    1643                      .dwcfi  save_reg_to_mem, 74, 3
    1644                      .dwcfi  cfa_offset, -4
    1645 00000124 E200          MOV32     *SP++,STF             ; [CPU_] 
         00000125 00BD 
    1646                      .dwcfi  save_reg_to_mem, 39, 4
TMS320C2000 Assembler PC v6.4.2 Thu Dec 14 15:26:09 2017

Tools Copyright (c) 1996-2015 Texas Instruments Incorporated
F2837xS_DefaultISR.asm                                               PAGE   32

    1647                      .dwcfi  save_reg_to_mem, 40, 5
    1648                      .dwcfi  cfa_offset, -6
    1649 00000126 E630          SETFLG    RNDF32=1, RNDF64=1    ; [CPU_] 
         00000127 0600 
    1650 00000128 2942          CLRC      PAGE0,OVM             ; [CPU_] 
    1651 00000129 5616          CLRC      AMODE                 ; [CPU_] 
    1652                      .dwpsn  file "C:/ti/controlSUITE/device_support/F2837xS/v170/F2837xS_common/source/F2837xS_DefaultISR
    1653 0000012a 7625        ESTOP0
    1654 0000012b       $C$L30:    
    1655                      .dwpsn  file "C:/ti/controlSUITE/device_support/F2837xS/v170/F2837xS_common/source/F2837xS_DefaultISR
    1656 0000012b 6F00          B         $C$L30,UNC            ; [CPU_] |389| 
    1657                      ; branch occurs ; [] |389| 
    1658                      .dwattr $C$DW$30, DW_AT_TI_end_file("C:/ti/controlSUITE/device_support/F2837xS/v170/F2837xS_common/so
    1659                      .dwattr $C$DW$30, DW_AT_TI_end_line(0x186)
    1660                      .dwattr $C$DW$30, DW_AT_TI_end_column(0x01)
    1661                      .dwendentry
    1662                      .dwendtag $C$DW$30
    1663              
    1664 0000012c               .sect   ".text:retain"
    1665                      .retain
    1666                      .retainrefs
    1667                      .global _EPWM4_TZ_ISR
    1668              
    1669              $C$DW$31        .dwtag  DW_TAG_subprogram, DW_AT_name("EPWM4_TZ_ISR")
    1670                      .dwattr $C$DW$31, DW_AT_low_pc(_EPWM4_TZ_ISR)
    1671                      .dwattr $C$DW$31, DW_AT_high_pc(0x00)
    1672                      .dwattr $C$DW$31, DW_AT_TI_symbol_name("_EPWM4_TZ_ISR")
    1673                      .dwattr $C$DW$31, DW_AT_external
    1674                      .dwattr $C$DW$31, DW_AT_TI_begin_file("C:/ti/controlSUITE/device_support/F2837xS/v170/F2837xS_common/
    1675                      .dwattr $C$DW$31, DW_AT_TI_begin_line(0x189)
    1676                      .dwattr $C$DW$31, DW_AT_TI_begin_column(0x10)
    1677                      .dwattr $C$DW$31, DW_AT_TI_interrupt
    1678                      .dwattr $C$DW$31, DW_AT_TI_max_frame_size(-6)
    1679                      .dwpsn  file "C:/ti/controlSUITE/device_support/F2837xS/v170/F2837xS_common/source/F2837xS_DefaultISR
    1680              
    1681                      .dwfde $C$DW$CIE, _EPWM4_TZ_ISR
    1682              
    1683              ;***************************************************************
    1684              ;* FNAME: _EPWM4_TZ_ISR                 FR SIZE:   4           *
    1685              ;*                                                             *
    1686              ;* FUNCTION ENVIRONMENT                                        *
    1687              ;*                                                             *
    1688              ;* FUNCTION PROPERTIES                                         *
    1689              ;*                            0 Parameter,  0 Auto,  4 SOE     *
    1690              ;***************************************************************
    1691              
    1692 0000012c       _EPWM4_TZ_ISR:
    1693                      .dwcfi  cfa_offset, -2
    1694                      .dwcfi  save_reg_to_mem, 26, 0
    1695 0000012c 761B          ASP       ; [CPU_] 
    1696 0000012d FFF0          PUSH      RB                    ; [CPU_] 
    1697                      .dwcfi  save_reg_to_mem, 73, 2
    1698                      .dwcfi  save_reg_to_mem, 74, 3
    1699                      .dwcfi  cfa_offset, -4
    1700 0000012e E200          MOV32     *SP++,STF             ; [CPU_] 
TMS320C2000 Assembler PC v6.4.2 Thu Dec 14 15:26:09 2017

Tools Copyright (c) 1996-2015 Texas Instruments Incorporated
F2837xS_DefaultISR.asm                                               PAGE   33

         0000012f 00BD 
    1701                      .dwcfi  save_reg_to_mem, 39, 4
    1702                      .dwcfi  save_reg_to_mem, 40, 5
    1703                      .dwcfi  cfa_offset, -6
    1704 00000130 E630          SETFLG    RNDF32=1, RNDF64=1    ; [CPU_] 
         00000131 0600 
    1705 00000132 2942          CLRC      PAGE0,OVM             ; [CPU_] 
    1706 00000133 5616          CLRC      AMODE                 ; [CPU_] 
    1707                      .dwpsn  file "C:/ti/controlSUITE/device_support/F2837xS/v170/F2837xS_common/source/F2837xS_DefaultISR
    1708 00000134 7625        ESTOP0
    1709 00000135       $C$L31:    
    1710                      .dwpsn  file "C:/ti/controlSUITE/device_support/F2837xS/v170/F2837xS_common/source/F2837xS_DefaultISR
    1711 00000135 6F00          B         $C$L31,UNC            ; [CPU_] |404| 
    1712                      ; branch occurs ; [] |404| 
    1713                      .dwattr $C$DW$31, DW_AT_TI_end_file("C:/ti/controlSUITE/device_support/F2837xS/v170/F2837xS_common/so
    1714                      .dwattr $C$DW$31, DW_AT_TI_end_line(0x195)
    1715                      .dwattr $C$DW$31, DW_AT_TI_end_column(0x01)
    1716                      .dwendentry
    1717                      .dwendtag $C$DW$31
    1718              
    1719 00000136               .sect   ".text:retain"
    1720                      .retain
    1721                      .retainrefs
    1722                      .global _EPWM5_TZ_ISR
    1723              
    1724              $C$DW$32        .dwtag  DW_TAG_subprogram, DW_AT_name("EPWM5_TZ_ISR")
    1725                      .dwattr $C$DW$32, DW_AT_low_pc(_EPWM5_TZ_ISR)
    1726                      .dwattr $C$DW$32, DW_AT_high_pc(0x00)
    1727                      .dwattr $C$DW$32, DW_AT_TI_symbol_name("_EPWM5_TZ_ISR")
    1728                      .dwattr $C$DW$32, DW_AT_external
    1729                      .dwattr $C$DW$32, DW_AT_TI_begin_file("C:/ti/controlSUITE/device_support/F2837xS/v170/F2837xS_common/
    1730                      .dwattr $C$DW$32, DW_AT_TI_begin_line(0x198)
    1731                      .dwattr $C$DW$32, DW_AT_TI_begin_column(0x10)
    1732                      .dwattr $C$DW$32, DW_AT_TI_interrupt
    1733                      .dwattr $C$DW$32, DW_AT_TI_max_frame_size(-6)
    1734                      .dwpsn  file "C:/ti/controlSUITE/device_support/F2837xS/v170/F2837xS_common/source/F2837xS_DefaultISR
    1735              
    1736                      .dwfde $C$DW$CIE, _EPWM5_TZ_ISR
    1737              
    1738              ;***************************************************************
    1739              ;* FNAME: _EPWM5_TZ_ISR                 FR SIZE:   4           *
    1740              ;*                                                             *
    1741              ;* FUNCTION ENVIRONMENT                                        *
    1742              ;*                                                             *
    1743              ;* FUNCTION PROPERTIES                                         *
    1744              ;*                            0 Parameter,  0 Auto,  4 SOE     *
    1745              ;***************************************************************
    1746              
    1747 00000136       _EPWM5_TZ_ISR:
    1748                      .dwcfi  cfa_offset, -2
    1749                      .dwcfi  save_reg_to_mem, 26, 0
    1750 00000136 761B          ASP       ; [CPU_] 
    1751 00000137 FFF0          PUSH      RB                    ; [CPU_] 
    1752                      .dwcfi  save_reg_to_mem, 73, 2
    1753                      .dwcfi  save_reg_to_mem, 74, 3
TMS320C2000 Assembler PC v6.4.2 Thu Dec 14 15:26:09 2017

Tools Copyright (c) 1996-2015 Texas Instruments Incorporated
F2837xS_DefaultISR.asm                                               PAGE   34

    1754                      .dwcfi  cfa_offset, -4
    1755 00000138 E200          MOV32     *SP++,STF             ; [CPU_] 
         00000139 00BD 
    1756                      .dwcfi  save_reg_to_mem, 39, 4
    1757                      .dwcfi  save_reg_to_mem, 40, 5
    1758                      .dwcfi  cfa_offset, -6
    1759 0000013a E630          SETFLG    RNDF32=1, RNDF64=1    ; [CPU_] 
         0000013b 0600 
    1760 0000013c 2942          CLRC      PAGE0,OVM             ; [CPU_] 
    1761 0000013d 5616          CLRC      AMODE                 ; [CPU_] 
    1762                      .dwpsn  file "C:/ti/controlSUITE/device_support/F2837xS/v170/F2837xS_common/source/F2837xS_DefaultISR
    1763 0000013e 7625        ESTOP0
    1764 0000013f       $C$L32:    
    1765                      .dwpsn  file "C:/ti/controlSUITE/device_support/F2837xS/v170/F2837xS_common/source/F2837xS_DefaultISR
    1766 0000013f 6F00          B         $C$L32,UNC            ; [CPU_] |419| 
    1767                      ; branch occurs ; [] |419| 
    1768                      .dwattr $C$DW$32, DW_AT_TI_end_file("C:/ti/controlSUITE/device_support/F2837xS/v170/F2837xS_common/so
    1769                      .dwattr $C$DW$32, DW_AT_TI_end_line(0x1a4)
    1770                      .dwattr $C$DW$32, DW_AT_TI_end_column(0x01)
    1771                      .dwendentry
    1772                      .dwendtag $C$DW$32
    1773              
    1774 00000140               .sect   ".text:retain"
    1775                      .retain
    1776                      .retainrefs
    1777                      .global _EPWM6_TZ_ISR
    1778              
    1779              $C$DW$33        .dwtag  DW_TAG_subprogram, DW_AT_name("EPWM6_TZ_ISR")
    1780                      .dwattr $C$DW$33, DW_AT_low_pc(_EPWM6_TZ_ISR)
    1781                      .dwattr $C$DW$33, DW_AT_high_pc(0x00)
    1782                      .dwattr $C$DW$33, DW_AT_TI_symbol_name("_EPWM6_TZ_ISR")
    1783                      .dwattr $C$DW$33, DW_AT_external
    1784                      .dwattr $C$DW$33, DW_AT_TI_begin_file("C:/ti/controlSUITE/device_support/F2837xS/v170/F2837xS_common/
    1785                      .dwattr $C$DW$33, DW_AT_TI_begin_line(0x1a7)
    1786                      .dwattr $C$DW$33, DW_AT_TI_begin_column(0x10)
    1787                      .dwattr $C$DW$33, DW_AT_TI_interrupt
    1788                      .dwattr $C$DW$33, DW_AT_TI_max_frame_size(-6)
    1789                      .dwpsn  file "C:/ti/controlSUITE/device_support/F2837xS/v170/F2837xS_common/source/F2837xS_DefaultISR
    1790              
    1791                      .dwfde $C$DW$CIE, _EPWM6_TZ_ISR
    1792              
    1793              ;***************************************************************
    1794              ;* FNAME: _EPWM6_TZ_ISR                 FR SIZE:   4           *
    1795              ;*                                                             *
    1796              ;* FUNCTION ENVIRONMENT                                        *
    1797              ;*                                                             *
    1798              ;* FUNCTION PROPERTIES                                         *
    1799              ;*                            0 Parameter,  0 Auto,  4 SOE     *
    1800              ;***************************************************************
    1801              
    1802 00000140       _EPWM6_TZ_ISR:
    1803                      .dwcfi  cfa_offset, -2
    1804                      .dwcfi  save_reg_to_mem, 26, 0
    1805 00000140 761B          ASP       ; [CPU_] 
    1806 00000141 FFF0          PUSH      RB                    ; [CPU_] 
TMS320C2000 Assembler PC v6.4.2 Thu Dec 14 15:26:09 2017

Tools Copyright (c) 1996-2015 Texas Instruments Incorporated
F2837xS_DefaultISR.asm                                               PAGE   35

    1807                      .dwcfi  save_reg_to_mem, 73, 2
    1808                      .dwcfi  save_reg_to_mem, 74, 3
    1809                      .dwcfi  cfa_offset, -4
    1810 00000142 E200          MOV32     *SP++,STF             ; [CPU_] 
         00000143 00BD 
    1811                      .dwcfi  save_reg_to_mem, 39, 4
    1812                      .dwcfi  save_reg_to_mem, 40, 5
    1813                      .dwcfi  cfa_offset, -6
    1814 00000144 E630          SETFLG    RNDF32=1, RNDF64=1    ; [CPU_] 
         00000145 0600 
    1815 00000146 2942          CLRC      PAGE0,OVM             ; [CPU_] 
    1816 00000147 5616          CLRC      AMODE                 ; [CPU_] 
    1817                      .dwpsn  file "C:/ti/controlSUITE/device_support/F2837xS/v170/F2837xS_common/source/F2837xS_DefaultISR
    1818 00000148 7625        ESTOP0
    1819 00000149       $C$L33:    
    1820                      .dwpsn  file "C:/ti/controlSUITE/device_support/F2837xS/v170/F2837xS_common/source/F2837xS_DefaultISR
    1821 00000149 6F00          B         $C$L33,UNC            ; [CPU_] |434| 
    1822                      ; branch occurs ; [] |434| 
    1823                      .dwattr $C$DW$33, DW_AT_TI_end_file("C:/ti/controlSUITE/device_support/F2837xS/v170/F2837xS_common/so
    1824                      .dwattr $C$DW$33, DW_AT_TI_end_line(0x1b3)
    1825                      .dwattr $C$DW$33, DW_AT_TI_end_column(0x01)
    1826                      .dwendentry
    1827                      .dwendtag $C$DW$33
    1828              
    1829 0000014a               .sect   ".text:retain"
    1830                      .retain
    1831                      .retainrefs
    1832                      .global _EPWM7_TZ_ISR
    1833              
    1834              $C$DW$34        .dwtag  DW_TAG_subprogram, DW_AT_name("EPWM7_TZ_ISR")
    1835                      .dwattr $C$DW$34, DW_AT_low_pc(_EPWM7_TZ_ISR)
    1836                      .dwattr $C$DW$34, DW_AT_high_pc(0x00)
    1837                      .dwattr $C$DW$34, DW_AT_TI_symbol_name("_EPWM7_TZ_ISR")
    1838                      .dwattr $C$DW$34, DW_AT_external
    1839                      .dwattr $C$DW$34, DW_AT_TI_begin_file("C:/ti/controlSUITE/device_support/F2837xS/v170/F2837xS_common/
    1840                      .dwattr $C$DW$34, DW_AT_TI_begin_line(0x1b6)
    1841                      .dwattr $C$DW$34, DW_AT_TI_begin_column(0x10)
    1842                      .dwattr $C$DW$34, DW_AT_TI_interrupt
    1843                      .dwattr $C$DW$34, DW_AT_TI_max_frame_size(-6)
    1844                      .dwpsn  file "C:/ti/controlSUITE/device_support/F2837xS/v170/F2837xS_common/source/F2837xS_DefaultISR
    1845              
    1846                      .dwfde $C$DW$CIE, _EPWM7_TZ_ISR
    1847              
    1848              ;***************************************************************
    1849              ;* FNAME: _EPWM7_TZ_ISR                 FR SIZE:   4           *
    1850              ;*                                                             *
    1851              ;* FUNCTION ENVIRONMENT                                        *
    1852              ;*                                                             *
    1853              ;* FUNCTION PROPERTIES                                         *
    1854              ;*                            0 Parameter,  0 Auto,  4 SOE     *
    1855              ;***************************************************************
    1856              
    1857 0000014a       _EPWM7_TZ_ISR:
    1858                      .dwcfi  cfa_offset, -2
    1859                      .dwcfi  save_reg_to_mem, 26, 0
TMS320C2000 Assembler PC v6.4.2 Thu Dec 14 15:26:09 2017

Tools Copyright (c) 1996-2015 Texas Instruments Incorporated
F2837xS_DefaultISR.asm                                               PAGE   36

    1860 0000014a 761B          ASP       ; [CPU_] 
    1861 0000014b FFF0          PUSH      RB                    ; [CPU_] 
    1862                      .dwcfi  save_reg_to_mem, 73, 2
    1863                      .dwcfi  save_reg_to_mem, 74, 3
    1864                      .dwcfi  cfa_offset, -4
    1865 0000014c E200          MOV32     *SP++,STF             ; [CPU_] 
         0000014d 00BD 
    1866                      .dwcfi  save_reg_to_mem, 39, 4
    1867                      .dwcfi  save_reg_to_mem, 40, 5
    1868                      .dwcfi  cfa_offset, -6
    1869 0000014e E630          SETFLG    RNDF32=1, RNDF64=1    ; [CPU_] 
         0000014f 0600 
    1870 00000150 2942          CLRC      PAGE0,OVM             ; [CPU_] 
    1871 00000151 5616          CLRC      AMODE                 ; [CPU_] 
    1872                      .dwpsn  file "C:/ti/controlSUITE/device_support/F2837xS/v170/F2837xS_common/source/F2837xS_DefaultISR
    1873 00000152 7625        ESTOP0
    1874 00000153       $C$L34:    
    1875                      .dwpsn  file "C:/ti/controlSUITE/device_support/F2837xS/v170/F2837xS_common/source/F2837xS_DefaultISR
    1876 00000153 6F00          B         $C$L34,UNC            ; [CPU_] |449| 
    1877                      ; branch occurs ; [] |449| 
    1878                      .dwattr $C$DW$34, DW_AT_TI_end_file("C:/ti/controlSUITE/device_support/F2837xS/v170/F2837xS_common/so
    1879                      .dwattr $C$DW$34, DW_AT_TI_end_line(0x1c2)
    1880                      .dwattr $C$DW$34, DW_AT_TI_end_column(0x01)
    1881                      .dwendentry
    1882                      .dwendtag $C$DW$34
    1883              
    1884 00000154               .sect   ".text:retain"
    1885                      .retain
    1886                      .retainrefs
    1887                      .global _EPWM8_TZ_ISR
    1888              
    1889              $C$DW$35        .dwtag  DW_TAG_subprogram, DW_AT_name("EPWM8_TZ_ISR")
    1890                      .dwattr $C$DW$35, DW_AT_low_pc(_EPWM8_TZ_ISR)
    1891                      .dwattr $C$DW$35, DW_AT_high_pc(0x00)
    1892                      .dwattr $C$DW$35, DW_AT_TI_symbol_name("_EPWM8_TZ_ISR")
    1893                      .dwattr $C$DW$35, DW_AT_external
    1894                      .dwattr $C$DW$35, DW_AT_TI_begin_file("C:/ti/controlSUITE/device_support/F2837xS/v170/F2837xS_common/
    1895                      .dwattr $C$DW$35, DW_AT_TI_begin_line(0x1c5)
    1896                      .dwattr $C$DW$35, DW_AT_TI_begin_column(0x10)
    1897                      .dwattr $C$DW$35, DW_AT_TI_interrupt
    1898                      .dwattr $C$DW$35, DW_AT_TI_max_frame_size(-6)
    1899                      .dwpsn  file "C:/ti/controlSUITE/device_support/F2837xS/v170/F2837xS_common/source/F2837xS_DefaultISR
    1900              
    1901                      .dwfde $C$DW$CIE, _EPWM8_TZ_ISR
    1902              
    1903              ;***************************************************************
    1904              ;* FNAME: _EPWM8_TZ_ISR                 FR SIZE:   4           *
    1905              ;*                                                             *
    1906              ;* FUNCTION ENVIRONMENT                                        *
    1907              ;*                                                             *
    1908              ;* FUNCTION PROPERTIES                                         *
    1909              ;*                            0 Parameter,  0 Auto,  4 SOE     *
    1910              ;***************************************************************
    1911              
    1912 00000154       _EPWM8_TZ_ISR:
TMS320C2000 Assembler PC v6.4.2 Thu Dec 14 15:26:09 2017

Tools Copyright (c) 1996-2015 Texas Instruments Incorporated
F2837xS_DefaultISR.asm                                               PAGE   37

    1913                      .dwcfi  cfa_offset, -2
    1914                      .dwcfi  save_reg_to_mem, 26, 0
    1915 00000154 761B          ASP       ; [CPU_] 
    1916 00000155 FFF0          PUSH      RB                    ; [CPU_] 
    1917                      .dwcfi  save_reg_to_mem, 73, 2
    1918                      .dwcfi  save_reg_to_mem, 74, 3
    1919                      .dwcfi  cfa_offset, -4
    1920 00000156 E200          MOV32     *SP++,STF             ; [CPU_] 
         00000157 00BD 
    1921                      .dwcfi  save_reg_to_mem, 39, 4
    1922                      .dwcfi  save_reg_to_mem, 40, 5
    1923                      .dwcfi  cfa_offset, -6
    1924 00000158 E630          SETFLG    RNDF32=1, RNDF64=1    ; [CPU_] 
         00000159 0600 
    1925 0000015a 2942          CLRC      PAGE0,OVM             ; [CPU_] 
    1926 0000015b 5616          CLRC      AMODE                 ; [CPU_] 
    1927                      .dwpsn  file "C:/ti/controlSUITE/device_support/F2837xS/v170/F2837xS_common/source/F2837xS_DefaultISR
    1928 0000015c 7625        ESTOP0
    1929 0000015d       $C$L35:    
    1930                      .dwpsn  file "C:/ti/controlSUITE/device_support/F2837xS/v170/F2837xS_common/source/F2837xS_DefaultISR
    1931 0000015d 6F00          B         $C$L35,UNC            ; [CPU_] |464| 
    1932                      ; branch occurs ; [] |464| 
    1933                      .dwattr $C$DW$35, DW_AT_TI_end_file("C:/ti/controlSUITE/device_support/F2837xS/v170/F2837xS_common/so
    1934                      .dwattr $C$DW$35, DW_AT_TI_end_line(0x1d1)
    1935                      .dwattr $C$DW$35, DW_AT_TI_end_column(0x01)
    1936                      .dwendentry
    1937                      .dwendtag $C$DW$35
    1938              
    1939 0000015e               .sect   ".text:retain"
    1940                      .retain
    1941                      .retainrefs
    1942                      .global _EPWM1_ISR
    1943              
    1944              $C$DW$36        .dwtag  DW_TAG_subprogram, DW_AT_name("EPWM1_ISR")
    1945                      .dwattr $C$DW$36, DW_AT_low_pc(_EPWM1_ISR)
    1946                      .dwattr $C$DW$36, DW_AT_high_pc(0x00)
    1947                      .dwattr $C$DW$36, DW_AT_TI_symbol_name("_EPWM1_ISR")
    1948                      .dwattr $C$DW$36, DW_AT_external
    1949                      .dwattr $C$DW$36, DW_AT_TI_begin_file("C:/ti/controlSUITE/device_support/F2837xS/v170/F2837xS_common/
    1950                      .dwattr $C$DW$36, DW_AT_TI_begin_line(0x1d4)
    1951                      .dwattr $C$DW$36, DW_AT_TI_begin_column(0x10)
    1952                      .dwattr $C$DW$36, DW_AT_TI_interrupt
    1953                      .dwattr $C$DW$36, DW_AT_TI_max_frame_size(-6)
    1954                      .dwpsn  file "C:/ti/controlSUITE/device_support/F2837xS/v170/F2837xS_common/source/F2837xS_DefaultISR
    1955              
    1956                      .dwfde $C$DW$CIE, _EPWM1_ISR
    1957              
    1958              ;***************************************************************
    1959              ;* FNAME: _EPWM1_ISR                    FR SIZE:   4           *
    1960              ;*                                                             *
    1961              ;* FUNCTION ENVIRONMENT                                        *
    1962              ;*                                                             *
    1963              ;* FUNCTION PROPERTIES                                         *
    1964              ;*                            0 Parameter,  0 Auto,  4 SOE     *
    1965              ;***************************************************************
TMS320C2000 Assembler PC v6.4.2 Thu Dec 14 15:26:09 2017

Tools Copyright (c) 1996-2015 Texas Instruments Incorporated
F2837xS_DefaultISR.asm                                               PAGE   38

    1966              
    1967 0000015e       _EPWM1_ISR:
    1968                      .dwcfi  cfa_offset, -2
    1969                      .dwcfi  save_reg_to_mem, 26, 0
    1970 0000015e 761B          ASP       ; [CPU_] 
    1971 0000015f FFF0          PUSH      RB                    ; [CPU_] 
    1972                      .dwcfi  save_reg_to_mem, 73, 2
    1973                      .dwcfi  save_reg_to_mem, 74, 3
    1974                      .dwcfi  cfa_offset, -4
    1975 00000160 E200          MOV32     *SP++,STF             ; [CPU_] 
         00000161 00BD 
    1976                      .dwcfi  save_reg_to_mem, 39, 4
    1977                      .dwcfi  save_reg_to_mem, 40, 5
    1978                      .dwcfi  cfa_offset, -6
    1979 00000162 E630          SETFLG    RNDF32=1, RNDF64=1    ; [CPU_] 
         00000163 0600 
    1980 00000164 2942          CLRC      PAGE0,OVM             ; [CPU_] 
    1981 00000165 5616          CLRC      AMODE                 ; [CPU_] 
    1982                      .dwpsn  file "C:/ti/controlSUITE/device_support/F2837xS/v170/F2837xS_common/source/F2837xS_DefaultISR
    1983 00000166 7625        ESTOP0
    1984 00000167       $C$L36:    
    1985                      .dwpsn  file "C:/ti/controlSUITE/device_support/F2837xS/v170/F2837xS_common/source/F2837xS_DefaultISR
    1986 00000167 6F00          B         $C$L36,UNC            ; [CPU_] |479| 
    1987                      ; branch occurs ; [] |479| 
    1988                      .dwattr $C$DW$36, DW_AT_TI_end_file("C:/ti/controlSUITE/device_support/F2837xS/v170/F2837xS_common/so
    1989                      .dwattr $C$DW$36, DW_AT_TI_end_line(0x1e0)
    1990                      .dwattr $C$DW$36, DW_AT_TI_end_column(0x01)
    1991                      .dwendentry
    1992                      .dwendtag $C$DW$36
    1993              
    1994 00000168               .sect   ".text:retain"
    1995                      .retain
    1996                      .retainrefs
    1997                      .global _EPWM2_ISR
    1998              
    1999              $C$DW$37        .dwtag  DW_TAG_subprogram, DW_AT_name("EPWM2_ISR")
    2000                      .dwattr $C$DW$37, DW_AT_low_pc(_EPWM2_ISR)
    2001                      .dwattr $C$DW$37, DW_AT_high_pc(0x00)
    2002                      .dwattr $C$DW$37, DW_AT_TI_symbol_name("_EPWM2_ISR")
    2003                      .dwattr $C$DW$37, DW_AT_external
    2004                      .dwattr $C$DW$37, DW_AT_TI_begin_file("C:/ti/controlSUITE/device_support/F2837xS/v170/F2837xS_common/
    2005                      .dwattr $C$DW$37, DW_AT_TI_begin_line(0x1e3)
    2006                      .dwattr $C$DW$37, DW_AT_TI_begin_column(0x10)
    2007                      .dwattr $C$DW$37, DW_AT_TI_interrupt
    2008                      .dwattr $C$DW$37, DW_AT_TI_max_frame_size(-6)
    2009                      .dwpsn  file "C:/ti/controlSUITE/device_support/F2837xS/v170/F2837xS_common/source/F2837xS_DefaultISR
    2010              
    2011                      .dwfde $C$DW$CIE, _EPWM2_ISR
    2012              
    2013              ;***************************************************************
    2014              ;* FNAME: _EPWM2_ISR                    FR SIZE:   4           *
    2015              ;*                                                             *
    2016              ;* FUNCTION ENVIRONMENT                                        *
    2017              ;*                                                             *
    2018              ;* FUNCTION PROPERTIES                                         *
TMS320C2000 Assembler PC v6.4.2 Thu Dec 14 15:26:09 2017

Tools Copyright (c) 1996-2015 Texas Instruments Incorporated
F2837xS_DefaultISR.asm                                               PAGE   39

    2019              ;*                            0 Parameter,  0 Auto,  4 SOE     *
    2020              ;***************************************************************
    2021              
    2022 00000168       _EPWM2_ISR:
    2023                      .dwcfi  cfa_offset, -2
    2024                      .dwcfi  save_reg_to_mem, 26, 0
    2025 00000168 761B          ASP       ; [CPU_] 
    2026 00000169 FFF0          PUSH      RB                    ; [CPU_] 
    2027                      .dwcfi  save_reg_to_mem, 73, 2
    2028                      .dwcfi  save_reg_to_mem, 74, 3
    2029                      .dwcfi  cfa_offset, -4
    2030 0000016a E200          MOV32     *SP++,STF             ; [CPU_] 
         0000016b 00BD 
    2031                      .dwcfi  save_reg_to_mem, 39, 4
    2032                      .dwcfi  save_reg_to_mem, 40, 5
    2033                      .dwcfi  cfa_offset, -6
    2034 0000016c E630          SETFLG    RNDF32=1, RNDF64=1    ; [CPU_] 
         0000016d 0600 
    2035 0000016e 2942          CLRC      PAGE0,OVM             ; [CPU_] 
    2036 0000016f 5616          CLRC      AMODE                 ; [CPU_] 
    2037                      .dwpsn  file "C:/ti/controlSUITE/device_support/F2837xS/v170/F2837xS_common/source/F2837xS_DefaultISR
    2038 00000170 7625        ESTOP0
    2039 00000171       $C$L37:    
    2040                      .dwpsn  file "C:/ti/controlSUITE/device_support/F2837xS/v170/F2837xS_common/source/F2837xS_DefaultISR
    2041 00000171 6F00          B         $C$L37,UNC            ; [CPU_] |494| 
    2042                      ; branch occurs ; [] |494| 
    2043                      .dwattr $C$DW$37, DW_AT_TI_end_file("C:/ti/controlSUITE/device_support/F2837xS/v170/F2837xS_common/so
    2044                      .dwattr $C$DW$37, DW_AT_TI_end_line(0x1ef)
    2045                      .dwattr $C$DW$37, DW_AT_TI_end_column(0x01)
    2046                      .dwendentry
    2047                      .dwendtag $C$DW$37
    2048              
    2049 00000172               .sect   ".text:retain"
    2050                      .retain
    2051                      .retainrefs
    2052                      .global _EPWM3_ISR
    2053              
    2054              $C$DW$38        .dwtag  DW_TAG_subprogram, DW_AT_name("EPWM3_ISR")
    2055                      .dwattr $C$DW$38, DW_AT_low_pc(_EPWM3_ISR)
    2056                      .dwattr $C$DW$38, DW_AT_high_pc(0x00)
    2057                      .dwattr $C$DW$38, DW_AT_TI_symbol_name("_EPWM3_ISR")
    2058                      .dwattr $C$DW$38, DW_AT_external
    2059                      .dwattr $C$DW$38, DW_AT_TI_begin_file("C:/ti/controlSUITE/device_support/F2837xS/v170/F2837xS_common/
    2060                      .dwattr $C$DW$38, DW_AT_TI_begin_line(0x1f2)
    2061                      .dwattr $C$DW$38, DW_AT_TI_begin_column(0x10)
    2062                      .dwattr $C$DW$38, DW_AT_TI_interrupt
    2063                      .dwattr $C$DW$38, DW_AT_TI_max_frame_size(-6)
    2064                      .dwpsn  file "C:/ti/controlSUITE/device_support/F2837xS/v170/F2837xS_common/source/F2837xS_DefaultISR
    2065              
    2066                      .dwfde $C$DW$CIE, _EPWM3_ISR
    2067              
    2068              ;***************************************************************
    2069              ;* FNAME: _EPWM3_ISR                    FR SIZE:   4           *
    2070              ;*                                                             *
    2071              ;* FUNCTION ENVIRONMENT                                        *
TMS320C2000 Assembler PC v6.4.2 Thu Dec 14 15:26:09 2017

Tools Copyright (c) 1996-2015 Texas Instruments Incorporated
F2837xS_DefaultISR.asm                                               PAGE   40

    2072              ;*                                                             *
    2073              ;* FUNCTION PROPERTIES                                         *
    2074              ;*                            0 Parameter,  0 Auto,  4 SOE     *
    2075              ;***************************************************************
    2076              
    2077 00000172       _EPWM3_ISR:
    2078                      .dwcfi  cfa_offset, -2
    2079                      .dwcfi  save_reg_to_mem, 26, 0
    2080 00000172 761B          ASP       ; [CPU_] 
    2081 00000173 FFF0          PUSH      RB                    ; [CPU_] 
    2082                      .dwcfi  save_reg_to_mem, 73, 2
    2083                      .dwcfi  save_reg_to_mem, 74, 3
    2084                      .dwcfi  cfa_offset, -4
    2085 00000174 E200          MOV32     *SP++,STF             ; [CPU_] 
         00000175 00BD 
    2086                      .dwcfi  save_reg_to_mem, 39, 4
    2087                      .dwcfi  save_reg_to_mem, 40, 5
    2088                      .dwcfi  cfa_offset, -6
    2089 00000176 E630          SETFLG    RNDF32=1, RNDF64=1    ; [CPU_] 
         00000177 0600 
    2090 00000178 2942          CLRC      PAGE0,OVM             ; [CPU_] 
    2091 00000179 5616          CLRC      AMODE                 ; [CPU_] 
    2092                      .dwpsn  file "C:/ti/controlSUITE/device_support/F2837xS/v170/F2837xS_common/source/F2837xS_DefaultISR
    2093 0000017a 7625        ESTOP0
    2094 0000017b       $C$L38:    
    2095                      .dwpsn  file "C:/ti/controlSUITE/device_support/F2837xS/v170/F2837xS_common/source/F2837xS_DefaultISR
    2096 0000017b 6F00          B         $C$L38,UNC            ; [CPU_] |509| 
    2097                      ; branch occurs ; [] |509| 
    2098                      .dwattr $C$DW$38, DW_AT_TI_end_file("C:/ti/controlSUITE/device_support/F2837xS/v170/F2837xS_common/so
    2099                      .dwattr $C$DW$38, DW_AT_TI_end_line(0x1fe)
    2100                      .dwattr $C$DW$38, DW_AT_TI_end_column(0x01)
    2101                      .dwendentry
    2102                      .dwendtag $C$DW$38
    2103              
    2104 0000017c               .sect   ".text:retain"
    2105                      .retain
    2106                      .retainrefs
    2107                      .global _EPWM4_ISR
    2108              
    2109              $C$DW$39        .dwtag  DW_TAG_subprogram, DW_AT_name("EPWM4_ISR")
    2110                      .dwattr $C$DW$39, DW_AT_low_pc(_EPWM4_ISR)
    2111                      .dwattr $C$DW$39, DW_AT_high_pc(0x00)
    2112                      .dwattr $C$DW$39, DW_AT_TI_symbol_name("_EPWM4_ISR")
    2113                      .dwattr $C$DW$39, DW_AT_external
    2114                      .dwattr $C$DW$39, DW_AT_TI_begin_file("C:/ti/controlSUITE/device_support/F2837xS/v170/F2837xS_common/
    2115                      .dwattr $C$DW$39, DW_AT_TI_begin_line(0x201)
    2116                      .dwattr $C$DW$39, DW_AT_TI_begin_column(0x10)
    2117                      .dwattr $C$DW$39, DW_AT_TI_interrupt
    2118                      .dwattr $C$DW$39, DW_AT_TI_max_frame_size(-6)
    2119                      .dwpsn  file "C:/ti/controlSUITE/device_support/F2837xS/v170/F2837xS_common/source/F2837xS_DefaultISR
    2120              
    2121                      .dwfde $C$DW$CIE, _EPWM4_ISR
    2122              
    2123              ;***************************************************************
    2124              ;* FNAME: _EPWM4_ISR                    FR SIZE:   4           *
TMS320C2000 Assembler PC v6.4.2 Thu Dec 14 15:26:09 2017

Tools Copyright (c) 1996-2015 Texas Instruments Incorporated
F2837xS_DefaultISR.asm                                               PAGE   41

    2125              ;*                                                             *
    2126              ;* FUNCTION ENVIRONMENT                                        *
    2127              ;*                                                             *
    2128              ;* FUNCTION PROPERTIES                                         *
    2129              ;*                            0 Parameter,  0 Auto,  4 SOE     *
    2130              ;***************************************************************
    2131              
    2132 0000017c       _EPWM4_ISR:
    2133                      .dwcfi  cfa_offset, -2
    2134                      .dwcfi  save_reg_to_mem, 26, 0
    2135 0000017c 761B          ASP       ; [CPU_] 
    2136 0000017d FFF0          PUSH      RB                    ; [CPU_] 
    2137                      .dwcfi  save_reg_to_mem, 73, 2
    2138                      .dwcfi  save_reg_to_mem, 74, 3
    2139                      .dwcfi  cfa_offset, -4
    2140 0000017e E200          MOV32     *SP++,STF             ; [CPU_] 
         0000017f 00BD 
    2141                      .dwcfi  save_reg_to_mem, 39, 4
    2142                      .dwcfi  save_reg_to_mem, 40, 5
    2143                      .dwcfi  cfa_offset, -6
    2144 00000180 E630          SETFLG    RNDF32=1, RNDF64=1    ; [CPU_] 
         00000181 0600 
    2145 00000182 2942          CLRC      PAGE0,OVM             ; [CPU_] 
    2146 00000183 5616          CLRC      AMODE                 ; [CPU_] 
    2147                      .dwpsn  file "C:/ti/controlSUITE/device_support/F2837xS/v170/F2837xS_common/source/F2837xS_DefaultISR
    2148 00000184 7625        ESTOP0
    2149 00000185       $C$L39:    
    2150                      .dwpsn  file "C:/ti/controlSUITE/device_support/F2837xS/v170/F2837xS_common/source/F2837xS_DefaultISR
    2151 00000185 6F00          B         $C$L39,UNC            ; [CPU_] |524| 
    2152                      ; branch occurs ; [] |524| 
    2153                      .dwattr $C$DW$39, DW_AT_TI_end_file("C:/ti/controlSUITE/device_support/F2837xS/v170/F2837xS_common/so
    2154                      .dwattr $C$DW$39, DW_AT_TI_end_line(0x20d)
    2155                      .dwattr $C$DW$39, DW_AT_TI_end_column(0x01)
    2156                      .dwendentry
    2157                      .dwendtag $C$DW$39
    2158              
    2159 00000186               .sect   ".text:retain"
    2160                      .retain
    2161                      .retainrefs
    2162                      .global _EPWM5_ISR
    2163              
    2164              $C$DW$40        .dwtag  DW_TAG_subprogram, DW_AT_name("EPWM5_ISR")
    2165                      .dwattr $C$DW$40, DW_AT_low_pc(_EPWM5_ISR)
    2166                      .dwattr $C$DW$40, DW_AT_high_pc(0x00)
    2167                      .dwattr $C$DW$40, DW_AT_TI_symbol_name("_EPWM5_ISR")
    2168                      .dwattr $C$DW$40, DW_AT_external
    2169                      .dwattr $C$DW$40, DW_AT_TI_begin_file("C:/ti/controlSUITE/device_support/F2837xS/v170/F2837xS_common/
    2170                      .dwattr $C$DW$40, DW_AT_TI_begin_line(0x210)
    2171                      .dwattr $C$DW$40, DW_AT_TI_begin_column(0x10)
    2172                      .dwattr $C$DW$40, DW_AT_TI_interrupt
    2173                      .dwattr $C$DW$40, DW_AT_TI_max_frame_size(-6)
    2174                      .dwpsn  file "C:/ti/controlSUITE/device_support/F2837xS/v170/F2837xS_common/source/F2837xS_DefaultISR
    2175              
    2176                      .dwfde $C$DW$CIE, _EPWM5_ISR
    2177              
TMS320C2000 Assembler PC v6.4.2 Thu Dec 14 15:26:09 2017

Tools Copyright (c) 1996-2015 Texas Instruments Incorporated
F2837xS_DefaultISR.asm                                               PAGE   42

    2178              ;***************************************************************
    2179              ;* FNAME: _EPWM5_ISR                    FR SIZE:   4           *
    2180              ;*                                                             *
    2181              ;* FUNCTION ENVIRONMENT                                        *
    2182              ;*                                                             *
    2183              ;* FUNCTION PROPERTIES                                         *
    2184              ;*                            0 Parameter,  0 Auto,  4 SOE     *
    2185              ;***************************************************************
    2186              
    2187 00000186       _EPWM5_ISR:
    2188                      .dwcfi  cfa_offset, -2
    2189                      .dwcfi  save_reg_to_mem, 26, 0
    2190 00000186 761B          ASP       ; [CPU_] 
    2191 00000187 FFF0          PUSH      RB                    ; [CPU_] 
    2192                      .dwcfi  save_reg_to_mem, 73, 2
    2193                      .dwcfi  save_reg_to_mem, 74, 3
    2194                      .dwcfi  cfa_offset, -4
    2195 00000188 E200          MOV32     *SP++,STF             ; [CPU_] 
         00000189 00BD 
    2196                      .dwcfi  save_reg_to_mem, 39, 4
    2197                      .dwcfi  save_reg_to_mem, 40, 5
    2198                      .dwcfi  cfa_offset, -6
    2199 0000018a E630          SETFLG    RNDF32=1, RNDF64=1    ; [CPU_] 
         0000018b 0600 
    2200 0000018c 2942          CLRC      PAGE0,OVM             ; [CPU_] 
    2201 0000018d 5616          CLRC      AMODE                 ; [CPU_] 
    2202                      .dwpsn  file "C:/ti/controlSUITE/device_support/F2837xS/v170/F2837xS_common/source/F2837xS_DefaultISR
    2203 0000018e 7625        ESTOP0
    2204 0000018f       $C$L40:    
    2205                      .dwpsn  file "C:/ti/controlSUITE/device_support/F2837xS/v170/F2837xS_common/source/F2837xS_DefaultISR
    2206 0000018f 6F00          B         $C$L40,UNC            ; [CPU_] |539| 
    2207                      ; branch occurs ; [] |539| 
    2208                      .dwattr $C$DW$40, DW_AT_TI_end_file("C:/ti/controlSUITE/device_support/F2837xS/v170/F2837xS_common/so
    2209                      .dwattr $C$DW$40, DW_AT_TI_end_line(0x21c)
    2210                      .dwattr $C$DW$40, DW_AT_TI_end_column(0x01)
    2211                      .dwendentry
    2212                      .dwendtag $C$DW$40
    2213              
    2214 00000190               .sect   ".text:retain"
    2215                      .retain
    2216                      .retainrefs
    2217                      .global _EPWM6_ISR
    2218              
    2219              $C$DW$41        .dwtag  DW_TAG_subprogram, DW_AT_name("EPWM6_ISR")
    2220                      .dwattr $C$DW$41, DW_AT_low_pc(_EPWM6_ISR)
    2221                      .dwattr $C$DW$41, DW_AT_high_pc(0x00)
    2222                      .dwattr $C$DW$41, DW_AT_TI_symbol_name("_EPWM6_ISR")
    2223                      .dwattr $C$DW$41, DW_AT_external
    2224                      .dwattr $C$DW$41, DW_AT_TI_begin_file("C:/ti/controlSUITE/device_support/F2837xS/v170/F2837xS_common/
    2225                      .dwattr $C$DW$41, DW_AT_TI_begin_line(0x21f)
    2226                      .dwattr $C$DW$41, DW_AT_TI_begin_column(0x10)
    2227                      .dwattr $C$DW$41, DW_AT_TI_interrupt
    2228                      .dwattr $C$DW$41, DW_AT_TI_max_frame_size(-6)
    2229                      .dwpsn  file "C:/ti/controlSUITE/device_support/F2837xS/v170/F2837xS_common/source/F2837xS_DefaultISR
    2230              
TMS320C2000 Assembler PC v6.4.2 Thu Dec 14 15:26:09 2017

Tools Copyright (c) 1996-2015 Texas Instruments Incorporated
F2837xS_DefaultISR.asm                                               PAGE   43

    2231                      .dwfde $C$DW$CIE, _EPWM6_ISR
    2232              
    2233              ;***************************************************************
    2234              ;* FNAME: _EPWM6_ISR                    FR SIZE:   4           *
    2235              ;*                                                             *
    2236              ;* FUNCTION ENVIRONMENT                                        *
    2237              ;*                                                             *
    2238              ;* FUNCTION PROPERTIES                                         *
    2239              ;*                            0 Parameter,  0 Auto,  4 SOE     *
    2240              ;***************************************************************
    2241              
    2242 00000190       _EPWM6_ISR:
    2243                      .dwcfi  cfa_offset, -2
    2244                      .dwcfi  save_reg_to_mem, 26, 0
    2245 00000190 761B          ASP       ; [CPU_] 
    2246 00000191 FFF0          PUSH      RB                    ; [CPU_] 
    2247                      .dwcfi  save_reg_to_mem, 73, 2
    2248                      .dwcfi  save_reg_to_mem, 74, 3
    2249                      .dwcfi  cfa_offset, -4
    2250 00000192 E200          MOV32     *SP++,STF             ; [CPU_] 
         00000193 00BD 
    2251                      .dwcfi  save_reg_to_mem, 39, 4
    2252                      .dwcfi  save_reg_to_mem, 40, 5
    2253                      .dwcfi  cfa_offset, -6
    2254 00000194 E630          SETFLG    RNDF32=1, RNDF64=1    ; [CPU_] 
         00000195 0600 
    2255 00000196 2942          CLRC      PAGE0,OVM             ; [CPU_] 
    2256 00000197 5616          CLRC      AMODE                 ; [CPU_] 
    2257                      .dwpsn  file "C:/ti/controlSUITE/device_support/F2837xS/v170/F2837xS_common/source/F2837xS_DefaultISR
    2258 00000198 7625        ESTOP0
    2259 00000199       $C$L41:    
    2260                      .dwpsn  file "C:/ti/controlSUITE/device_support/F2837xS/v170/F2837xS_common/source/F2837xS_DefaultISR
    2261 00000199 6F00          B         $C$L41,UNC            ; [CPU_] |554| 
    2262                      ; branch occurs ; [] |554| 
    2263                      .dwattr $C$DW$41, DW_AT_TI_end_file("C:/ti/controlSUITE/device_support/F2837xS/v170/F2837xS_common/so
    2264                      .dwattr $C$DW$41, DW_AT_TI_end_line(0x22b)
    2265                      .dwattr $C$DW$41, DW_AT_TI_end_column(0x01)
    2266                      .dwendentry
    2267                      .dwendtag $C$DW$41
    2268              
    2269 0000019a               .sect   ".text:retain"
    2270                      .retain
    2271                      .retainrefs
    2272                      .global _EPWM7_ISR
    2273              
    2274              $C$DW$42        .dwtag  DW_TAG_subprogram, DW_AT_name("EPWM7_ISR")
    2275                      .dwattr $C$DW$42, DW_AT_low_pc(_EPWM7_ISR)
    2276                      .dwattr $C$DW$42, DW_AT_high_pc(0x00)
    2277                      .dwattr $C$DW$42, DW_AT_TI_symbol_name("_EPWM7_ISR")
    2278                      .dwattr $C$DW$42, DW_AT_external
    2279                      .dwattr $C$DW$42, DW_AT_TI_begin_file("C:/ti/controlSUITE/device_support/F2837xS/v170/F2837xS_common/
    2280                      .dwattr $C$DW$42, DW_AT_TI_begin_line(0x22e)
    2281                      .dwattr $C$DW$42, DW_AT_TI_begin_column(0x10)
    2282                      .dwattr $C$DW$42, DW_AT_TI_interrupt
    2283                      .dwattr $C$DW$42, DW_AT_TI_max_frame_size(-6)
TMS320C2000 Assembler PC v6.4.2 Thu Dec 14 15:26:09 2017

Tools Copyright (c) 1996-2015 Texas Instruments Incorporated
F2837xS_DefaultISR.asm                                               PAGE   44

    2284                      .dwpsn  file "C:/ti/controlSUITE/device_support/F2837xS/v170/F2837xS_common/source/F2837xS_DefaultISR
    2285              
    2286                      .dwfde $C$DW$CIE, _EPWM7_ISR
    2287              
    2288              ;***************************************************************
    2289              ;* FNAME: _EPWM7_ISR                    FR SIZE:   4           *
    2290              ;*                                                             *
    2291              ;* FUNCTION ENVIRONMENT                                        *
    2292              ;*                                                             *
    2293              ;* FUNCTION PROPERTIES                                         *
    2294              ;*                            0 Parameter,  0 Auto,  4 SOE     *
    2295              ;***************************************************************
    2296              
    2297 0000019a       _EPWM7_ISR:
    2298                      .dwcfi  cfa_offset, -2
    2299                      .dwcfi  save_reg_to_mem, 26, 0
    2300 0000019a 761B          ASP       ; [CPU_] 
    2301 0000019b FFF0          PUSH      RB                    ; [CPU_] 
    2302                      .dwcfi  save_reg_to_mem, 73, 2
    2303                      .dwcfi  save_reg_to_mem, 74, 3
    2304                      .dwcfi  cfa_offset, -4
    2305 0000019c E200          MOV32     *SP++,STF             ; [CPU_] 
         0000019d 00BD 
    2306                      .dwcfi  save_reg_to_mem, 39, 4
    2307                      .dwcfi  save_reg_to_mem, 40, 5
    2308                      .dwcfi  cfa_offset, -6
    2309 0000019e E630          SETFLG    RNDF32=1, RNDF64=1    ; [CPU_] 
         0000019f 0600 
    2310 000001a0 2942          CLRC      PAGE0,OVM             ; [CPU_] 
    2311 000001a1 5616          CLRC      AMODE                 ; [CPU_] 
    2312                      .dwpsn  file "C:/ti/controlSUITE/device_support/F2837xS/v170/F2837xS_common/source/F2837xS_DefaultISR
    2313 000001a2 7625        ESTOP0
    2314 000001a3       $C$L42:    
    2315                      .dwpsn  file "C:/ti/controlSUITE/device_support/F2837xS/v170/F2837xS_common/source/F2837xS_DefaultISR
    2316 000001a3 6F00          B         $C$L42,UNC            ; [CPU_] |569| 
    2317                      ; branch occurs ; [] |569| 
    2318                      .dwattr $C$DW$42, DW_AT_TI_end_file("C:/ti/controlSUITE/device_support/F2837xS/v170/F2837xS_common/so
    2319                      .dwattr $C$DW$42, DW_AT_TI_end_line(0x23a)
    2320                      .dwattr $C$DW$42, DW_AT_TI_end_column(0x01)
    2321                      .dwendentry
    2322                      .dwendtag $C$DW$42
    2323              
    2324 000001a4               .sect   ".text:retain"
    2325                      .retain
    2326                      .retainrefs
    2327                      .global _EPWM8_ISR
    2328              
    2329              $C$DW$43        .dwtag  DW_TAG_subprogram, DW_AT_name("EPWM8_ISR")
    2330                      .dwattr $C$DW$43, DW_AT_low_pc(_EPWM8_ISR)
    2331                      .dwattr $C$DW$43, DW_AT_high_pc(0x00)
    2332                      .dwattr $C$DW$43, DW_AT_TI_symbol_name("_EPWM8_ISR")
    2333                      .dwattr $C$DW$43, DW_AT_external
    2334                      .dwattr $C$DW$43, DW_AT_TI_begin_file("C:/ti/controlSUITE/device_support/F2837xS/v170/F2837xS_common/
    2335                      .dwattr $C$DW$43, DW_AT_TI_begin_line(0x23d)
    2336                      .dwattr $C$DW$43, DW_AT_TI_begin_column(0x10)
TMS320C2000 Assembler PC v6.4.2 Thu Dec 14 15:26:09 2017

Tools Copyright (c) 1996-2015 Texas Instruments Incorporated
F2837xS_DefaultISR.asm                                               PAGE   45

    2337                      .dwattr $C$DW$43, DW_AT_TI_interrupt
    2338                      .dwattr $C$DW$43, DW_AT_TI_max_frame_size(-6)
    2339                      .dwpsn  file "C:/ti/controlSUITE/device_support/F2837xS/v170/F2837xS_common/source/F2837xS_DefaultISR
    2340              
    2341                      .dwfde $C$DW$CIE, _EPWM8_ISR
    2342              
    2343              ;***************************************************************
    2344              ;* FNAME: _EPWM8_ISR                    FR SIZE:   4           *
    2345              ;*                                                             *
    2346              ;* FUNCTION ENVIRONMENT                                        *
    2347              ;*                                                             *
    2348              ;* FUNCTION PROPERTIES                                         *
    2349              ;*                            0 Parameter,  0 Auto,  4 SOE     *
    2350              ;***************************************************************
    2351              
    2352 000001a4       _EPWM8_ISR:
    2353                      .dwcfi  cfa_offset, -2
    2354                      .dwcfi  save_reg_to_mem, 26, 0
    2355 000001a4 761B          ASP       ; [CPU_] 
    2356 000001a5 FFF0          PUSH      RB                    ; [CPU_] 
    2357                      .dwcfi  save_reg_to_mem, 73, 2
    2358                      .dwcfi  save_reg_to_mem, 74, 3
    2359                      .dwcfi  cfa_offset, -4
    2360 000001a6 E200          MOV32     *SP++,STF             ; [CPU_] 
         000001a7 00BD 
    2361                      .dwcfi  save_reg_to_mem, 39, 4
    2362                      .dwcfi  save_reg_to_mem, 40, 5
    2363                      .dwcfi  cfa_offset, -6
    2364 000001a8 E630          SETFLG    RNDF32=1, RNDF64=1    ; [CPU_] 
         000001a9 0600 
    2365 000001aa 2942          CLRC      PAGE0,OVM             ; [CPU_] 
    2366 000001ab 5616          CLRC      AMODE                 ; [CPU_] 
    2367                      .dwpsn  file "C:/ti/controlSUITE/device_support/F2837xS/v170/F2837xS_common/source/F2837xS_DefaultISR
    2368 000001ac 7625        ESTOP0
    2369 000001ad       $C$L43:    
    2370                      .dwpsn  file "C:/ti/controlSUITE/device_support/F2837xS/v170/F2837xS_common/source/F2837xS_DefaultISR
    2371 000001ad 6F00          B         $C$L43,UNC            ; [CPU_] |584| 
    2372                      ; branch occurs ; [] |584| 
    2373                      .dwattr $C$DW$43, DW_AT_TI_end_file("C:/ti/controlSUITE/device_support/F2837xS/v170/F2837xS_common/so
    2374                      .dwattr $C$DW$43, DW_AT_TI_end_line(0x249)
    2375                      .dwattr $C$DW$43, DW_AT_TI_end_column(0x01)
    2376                      .dwendentry
    2377                      .dwendtag $C$DW$43
    2378              
    2379 000001ae               .sect   ".text:retain"
    2380                      .retain
    2381                      .retainrefs
    2382                      .global _ECAP1_ISR
    2383              
    2384              $C$DW$44        .dwtag  DW_TAG_subprogram, DW_AT_name("ECAP1_ISR")
    2385                      .dwattr $C$DW$44, DW_AT_low_pc(_ECAP1_ISR)
    2386                      .dwattr $C$DW$44, DW_AT_high_pc(0x00)
    2387                      .dwattr $C$DW$44, DW_AT_TI_symbol_name("_ECAP1_ISR")
    2388                      .dwattr $C$DW$44, DW_AT_external
    2389                      .dwattr $C$DW$44, DW_AT_TI_begin_file("C:/ti/controlSUITE/device_support/F2837xS/v170/F2837xS_common/
TMS320C2000 Assembler PC v6.4.2 Thu Dec 14 15:26:09 2017

Tools Copyright (c) 1996-2015 Texas Instruments Incorporated
F2837xS_DefaultISR.asm                                               PAGE   46

    2390                      .dwattr $C$DW$44, DW_AT_TI_begin_line(0x24c)
    2391                      .dwattr $C$DW$44, DW_AT_TI_begin_column(0x10)
    2392                      .dwattr $C$DW$44, DW_AT_TI_interrupt
    2393                      .dwattr $C$DW$44, DW_AT_TI_max_frame_size(-6)
    2394                      .dwpsn  file "C:/ti/controlSUITE/device_support/F2837xS/v170/F2837xS_common/source/F2837xS_DefaultISR
    2395              
    2396                      .dwfde $C$DW$CIE, _ECAP1_ISR
    2397              
    2398              ;***************************************************************
    2399              ;* FNAME: _ECAP1_ISR                    FR SIZE:   4           *
    2400              ;*                                                             *
    2401              ;* FUNCTION ENVIRONMENT                                        *
    2402              ;*                                                             *
    2403              ;* FUNCTION PROPERTIES                                         *
    2404              ;*                            0 Parameter,  0 Auto,  4 SOE     *
    2405              ;***************************************************************
    2406              
    2407 000001ae       _ECAP1_ISR:
    2408                      .dwcfi  cfa_offset, -2
    2409                      .dwcfi  save_reg_to_mem, 26, 0
    2410 000001ae 761B          ASP       ; [CPU_] 
    2411 000001af FFF0          PUSH      RB                    ; [CPU_] 
    2412                      .dwcfi  save_reg_to_mem, 73, 2
    2413                      .dwcfi  save_reg_to_mem, 74, 3
    2414                      .dwcfi  cfa_offset, -4
    2415 000001b0 E200          MOV32     *SP++,STF             ; [CPU_] 
         000001b1 00BD 
    2416                      .dwcfi  save_reg_to_mem, 39, 4
    2417                      .dwcfi  save_reg_to_mem, 40, 5
    2418                      .dwcfi  cfa_offset, -6
    2419 000001b2 E630          SETFLG    RNDF32=1, RNDF64=1    ; [CPU_] 
         000001b3 0600 
    2420 000001b4 2942          CLRC      PAGE0,OVM             ; [CPU_] 
    2421 000001b5 5616          CLRC      AMODE                 ; [CPU_] 
    2422                      .dwpsn  file "C:/ti/controlSUITE/device_support/F2837xS/v170/F2837xS_common/source/F2837xS_DefaultISR
    2423 000001b6 7625        ESTOP0
    2424 000001b7       $C$L44:    
    2425                      .dwpsn  file "C:/ti/controlSUITE/device_support/F2837xS/v170/F2837xS_common/source/F2837xS_DefaultISR
    2426 000001b7 6F00          B         $C$L44,UNC            ; [CPU_] |599| 
    2427                      ; branch occurs ; [] |599| 
    2428                      .dwattr $C$DW$44, DW_AT_TI_end_file("C:/ti/controlSUITE/device_support/F2837xS/v170/F2837xS_common/so
    2429                      .dwattr $C$DW$44, DW_AT_TI_end_line(0x258)
    2430                      .dwattr $C$DW$44, DW_AT_TI_end_column(0x01)
    2431                      .dwendentry
    2432                      .dwendtag $C$DW$44
    2433              
    2434 000001b8               .sect   ".text:retain"
    2435                      .retain
    2436                      .retainrefs
    2437                      .global _ECAP2_ISR
    2438              
    2439              $C$DW$45        .dwtag  DW_TAG_subprogram, DW_AT_name("ECAP2_ISR")
    2440                      .dwattr $C$DW$45, DW_AT_low_pc(_ECAP2_ISR)
    2441                      .dwattr $C$DW$45, DW_AT_high_pc(0x00)
    2442                      .dwattr $C$DW$45, DW_AT_TI_symbol_name("_ECAP2_ISR")
TMS320C2000 Assembler PC v6.4.2 Thu Dec 14 15:26:09 2017

Tools Copyright (c) 1996-2015 Texas Instruments Incorporated
F2837xS_DefaultISR.asm                                               PAGE   47

    2443                      .dwattr $C$DW$45, DW_AT_external
    2444                      .dwattr $C$DW$45, DW_AT_TI_begin_file("C:/ti/controlSUITE/device_support/F2837xS/v170/F2837xS_common/
    2445                      .dwattr $C$DW$45, DW_AT_TI_begin_line(0x25b)
    2446                      .dwattr $C$DW$45, DW_AT_TI_begin_column(0x10)
    2447                      .dwattr $C$DW$45, DW_AT_TI_interrupt
    2448                      .dwattr $C$DW$45, DW_AT_TI_max_frame_size(-6)
    2449                      .dwpsn  file "C:/ti/controlSUITE/device_support/F2837xS/v170/F2837xS_common/source/F2837xS_DefaultISR
    2450              
    2451                      .dwfde $C$DW$CIE, _ECAP2_ISR
    2452              
    2453              ;***************************************************************
    2454              ;* FNAME: _ECAP2_ISR                    FR SIZE:   4           *
    2455              ;*                                                             *
    2456              ;* FUNCTION ENVIRONMENT                                        *
    2457              ;*                                                             *
    2458              ;* FUNCTION PROPERTIES                                         *
    2459              ;*                            0 Parameter,  0 Auto,  4 SOE     *
    2460              ;***************************************************************
    2461              
    2462 000001b8       _ECAP2_ISR:
    2463                      .dwcfi  cfa_offset, -2
    2464                      .dwcfi  save_reg_to_mem, 26, 0
    2465 000001b8 761B          ASP       ; [CPU_] 
    2466 000001b9 FFF0          PUSH      RB                    ; [CPU_] 
    2467                      .dwcfi  save_reg_to_mem, 73, 2
    2468                      .dwcfi  save_reg_to_mem, 74, 3
    2469                      .dwcfi  cfa_offset, -4
    2470 000001ba E200          MOV32     *SP++,STF             ; [CPU_] 
         000001bb 00BD 
    2471                      .dwcfi  save_reg_to_mem, 39, 4
    2472                      .dwcfi  save_reg_to_mem, 40, 5
    2473                      .dwcfi  cfa_offset, -6
    2474 000001bc E630          SETFLG    RNDF32=1, RNDF64=1    ; [CPU_] 
         000001bd 0600 
    2475 000001be 2942          CLRC      PAGE0,OVM             ; [CPU_] 
    2476 000001bf 5616          CLRC      AMODE                 ; [CPU_] 
    2477                      .dwpsn  file "C:/ti/controlSUITE/device_support/F2837xS/v170/F2837xS_common/source/F2837xS_DefaultISR
    2478 000001c0 7625        ESTOP0
    2479 000001c1       $C$L45:    
    2480                      .dwpsn  file "C:/ti/controlSUITE/device_support/F2837xS/v170/F2837xS_common/source/F2837xS_DefaultISR
    2481 000001c1 6F00          B         $C$L45,UNC            ; [CPU_] |614| 
    2482                      ; branch occurs ; [] |614| 
    2483                      .dwattr $C$DW$45, DW_AT_TI_end_file("C:/ti/controlSUITE/device_support/F2837xS/v170/F2837xS_common/so
    2484                      .dwattr $C$DW$45, DW_AT_TI_end_line(0x267)
    2485                      .dwattr $C$DW$45, DW_AT_TI_end_column(0x01)
    2486                      .dwendentry
    2487                      .dwendtag $C$DW$45
    2488              
    2489 000001c2               .sect   ".text:retain"
    2490                      .retain
    2491                      .retainrefs
    2492                      .global _ECAP3_ISR
    2493              
    2494              $C$DW$46        .dwtag  DW_TAG_subprogram, DW_AT_name("ECAP3_ISR")
    2495                      .dwattr $C$DW$46, DW_AT_low_pc(_ECAP3_ISR)
TMS320C2000 Assembler PC v6.4.2 Thu Dec 14 15:26:09 2017

Tools Copyright (c) 1996-2015 Texas Instruments Incorporated
F2837xS_DefaultISR.asm                                               PAGE   48

    2496                      .dwattr $C$DW$46, DW_AT_high_pc(0x00)
    2497                      .dwattr $C$DW$46, DW_AT_TI_symbol_name("_ECAP3_ISR")
    2498                      .dwattr $C$DW$46, DW_AT_external
    2499                      .dwattr $C$DW$46, DW_AT_TI_begin_file("C:/ti/controlSUITE/device_support/F2837xS/v170/F2837xS_common/
    2500                      .dwattr $C$DW$46, DW_AT_TI_begin_line(0x26a)
    2501                      .dwattr $C$DW$46, DW_AT_TI_begin_column(0x10)
    2502                      .dwattr $C$DW$46, DW_AT_TI_interrupt
    2503                      .dwattr $C$DW$46, DW_AT_TI_max_frame_size(-6)
    2504                      .dwpsn  file "C:/ti/controlSUITE/device_support/F2837xS/v170/F2837xS_common/source/F2837xS_DefaultISR
    2505              
    2506                      .dwfde $C$DW$CIE, _ECAP3_ISR
    2507              
    2508              ;***************************************************************
    2509              ;* FNAME: _ECAP3_ISR                    FR SIZE:   4           *
    2510              ;*                                                             *
    2511              ;* FUNCTION ENVIRONMENT                                        *
    2512              ;*                                                             *
    2513              ;* FUNCTION PROPERTIES                                         *
    2514              ;*                            0 Parameter,  0 Auto,  4 SOE     *
    2515              ;***************************************************************
    2516              
    2517 000001c2       _ECAP3_ISR:
    2518                      .dwcfi  cfa_offset, -2
    2519                      .dwcfi  save_reg_to_mem, 26, 0
    2520 000001c2 761B          ASP       ; [CPU_] 
    2521 000001c3 FFF0          PUSH      RB                    ; [CPU_] 
    2522                      .dwcfi  save_reg_to_mem, 73, 2
    2523                      .dwcfi  save_reg_to_mem, 74, 3
    2524                      .dwcfi  cfa_offset, -4
    2525 000001c4 E200          MOV32     *SP++,STF             ; [CPU_] 
         000001c5 00BD 
    2526                      .dwcfi  save_reg_to_mem, 39, 4
    2527                      .dwcfi  save_reg_to_mem, 40, 5
    2528                      .dwcfi  cfa_offset, -6
    2529 000001c6 E630          SETFLG    RNDF32=1, RNDF64=1    ; [CPU_] 
         000001c7 0600 
    2530 000001c8 2942          CLRC      PAGE0,OVM             ; [CPU_] 
    2531 000001c9 5616          CLRC      AMODE                 ; [CPU_] 
    2532                      .dwpsn  file "C:/ti/controlSUITE/device_support/F2837xS/v170/F2837xS_common/source/F2837xS_DefaultISR
    2533 000001ca 7625        ESTOP0
    2534 000001cb       $C$L46:    
    2535                      .dwpsn  file "C:/ti/controlSUITE/device_support/F2837xS/v170/F2837xS_common/source/F2837xS_DefaultISR
    2536 000001cb 6F00          B         $C$L46,UNC            ; [CPU_] |629| 
    2537                      ; branch occurs ; [] |629| 
    2538                      .dwattr $C$DW$46, DW_AT_TI_end_file("C:/ti/controlSUITE/device_support/F2837xS/v170/F2837xS_common/so
    2539                      .dwattr $C$DW$46, DW_AT_TI_end_line(0x276)
    2540                      .dwattr $C$DW$46, DW_AT_TI_end_column(0x01)
    2541                      .dwendentry
    2542                      .dwendtag $C$DW$46
    2543              
    2544 000001cc               .sect   ".text:retain"
    2545                      .retain
    2546                      .retainrefs
    2547                      .global _ECAP4_ISR
    2548              
TMS320C2000 Assembler PC v6.4.2 Thu Dec 14 15:26:09 2017

Tools Copyright (c) 1996-2015 Texas Instruments Incorporated
F2837xS_DefaultISR.asm                                               PAGE   49

    2549              $C$DW$47        .dwtag  DW_TAG_subprogram, DW_AT_name("ECAP4_ISR")
    2550                      .dwattr $C$DW$47, DW_AT_low_pc(_ECAP4_ISR)
    2551                      .dwattr $C$DW$47, DW_AT_high_pc(0x00)
    2552                      .dwattr $C$DW$47, DW_AT_TI_symbol_name("_ECAP4_ISR")
    2553                      .dwattr $C$DW$47, DW_AT_external
    2554                      .dwattr $C$DW$47, DW_AT_TI_begin_file("C:/ti/controlSUITE/device_support/F2837xS/v170/F2837xS_common/
    2555                      .dwattr $C$DW$47, DW_AT_TI_begin_line(0x279)
    2556                      .dwattr $C$DW$47, DW_AT_TI_begin_column(0x10)
    2557                      .dwattr $C$DW$47, DW_AT_TI_interrupt
    2558                      .dwattr $C$DW$47, DW_AT_TI_max_frame_size(-6)
    2559                      .dwpsn  file "C:/ti/controlSUITE/device_support/F2837xS/v170/F2837xS_common/source/F2837xS_DefaultISR
    2560              
    2561                      .dwfde $C$DW$CIE, _ECAP4_ISR
    2562              
    2563              ;***************************************************************
    2564              ;* FNAME: _ECAP4_ISR                    FR SIZE:   4           *
    2565              ;*                                                             *
    2566              ;* FUNCTION ENVIRONMENT                                        *
    2567              ;*                                                             *
    2568              ;* FUNCTION PROPERTIES                                         *
    2569              ;*                            0 Parameter,  0 Auto,  4 SOE     *
    2570              ;***************************************************************
    2571              
    2572 000001cc       _ECAP4_ISR:
    2573                      .dwcfi  cfa_offset, -2
    2574                      .dwcfi  save_reg_to_mem, 26, 0
    2575 000001cc 761B          ASP       ; [CPU_] 
    2576 000001cd FFF0          PUSH      RB                    ; [CPU_] 
    2577                      .dwcfi  save_reg_to_mem, 73, 2
    2578                      .dwcfi  save_reg_to_mem, 74, 3
    2579                      .dwcfi  cfa_offset, -4
    2580 000001ce E200          MOV32     *SP++,STF             ; [CPU_] 
         000001cf 00BD 
    2581                      .dwcfi  save_reg_to_mem, 39, 4
    2582                      .dwcfi  save_reg_to_mem, 40, 5
    2583                      .dwcfi  cfa_offset, -6
    2584 000001d0 E630          SETFLG    RNDF32=1, RNDF64=1    ; [CPU_] 
         000001d1 0600 
    2585 000001d2 2942          CLRC      PAGE0,OVM             ; [CPU_] 
    2586 000001d3 5616          CLRC      AMODE                 ; [CPU_] 
    2587                      .dwpsn  file "C:/ti/controlSUITE/device_support/F2837xS/v170/F2837xS_common/source/F2837xS_DefaultISR
    2588 000001d4 7625        ESTOP0
    2589 000001d5       $C$L47:    
    2590                      .dwpsn  file "C:/ti/controlSUITE/device_support/F2837xS/v170/F2837xS_common/source/F2837xS_DefaultISR
    2591 000001d5 6F00          B         $C$L47,UNC            ; [CPU_] |644| 
    2592                      ; branch occurs ; [] |644| 
    2593                      .dwattr $C$DW$47, DW_AT_TI_end_file("C:/ti/controlSUITE/device_support/F2837xS/v170/F2837xS_common/so
    2594                      .dwattr $C$DW$47, DW_AT_TI_end_line(0x285)
    2595                      .dwattr $C$DW$47, DW_AT_TI_end_column(0x01)
    2596                      .dwendentry
    2597                      .dwendtag $C$DW$47
    2598              
    2599 000001d6               .sect   ".text:retain"
    2600                      .retain
    2601                      .retainrefs
TMS320C2000 Assembler PC v6.4.2 Thu Dec 14 15:26:09 2017

Tools Copyright (c) 1996-2015 Texas Instruments Incorporated
F2837xS_DefaultISR.asm                                               PAGE   50

    2602                      .global _ECAP5_ISR
    2603              
    2604              $C$DW$48        .dwtag  DW_TAG_subprogram, DW_AT_name("ECAP5_ISR")
    2605                      .dwattr $C$DW$48, DW_AT_low_pc(_ECAP5_ISR)
    2606                      .dwattr $C$DW$48, DW_AT_high_pc(0x00)
    2607                      .dwattr $C$DW$48, DW_AT_TI_symbol_name("_ECAP5_ISR")
    2608                      .dwattr $C$DW$48, DW_AT_external
    2609                      .dwattr $C$DW$48, DW_AT_TI_begin_file("C:/ti/controlSUITE/device_support/F2837xS/v170/F2837xS_common/
    2610                      .dwattr $C$DW$48, DW_AT_TI_begin_line(0x288)
    2611                      .dwattr $C$DW$48, DW_AT_TI_begin_column(0x10)
    2612                      .dwattr $C$DW$48, DW_AT_TI_interrupt
    2613                      .dwattr $C$DW$48, DW_AT_TI_max_frame_size(-6)
    2614                      .dwpsn  file "C:/ti/controlSUITE/device_support/F2837xS/v170/F2837xS_common/source/F2837xS_DefaultISR
    2615              
    2616                      .dwfde $C$DW$CIE, _ECAP5_ISR
    2617              
    2618              ;***************************************************************
    2619              ;* FNAME: _ECAP5_ISR                    FR SIZE:   4           *
    2620              ;*                                                             *
    2621              ;* FUNCTION ENVIRONMENT                                        *
    2622              ;*                                                             *
    2623              ;* FUNCTION PROPERTIES                                         *
    2624              ;*                            0 Parameter,  0 Auto,  4 SOE     *
    2625              ;***************************************************************
    2626              
    2627 000001d6       _ECAP5_ISR:
    2628                      .dwcfi  cfa_offset, -2
    2629                      .dwcfi  save_reg_to_mem, 26, 0
    2630 000001d6 761B          ASP       ; [CPU_] 
    2631 000001d7 FFF0          PUSH      RB                    ; [CPU_] 
    2632                      .dwcfi  save_reg_to_mem, 73, 2
    2633                      .dwcfi  save_reg_to_mem, 74, 3
    2634                      .dwcfi  cfa_offset, -4
    2635 000001d8 E200          MOV32     *SP++,STF             ; [CPU_] 
         000001d9 00BD 
    2636                      .dwcfi  save_reg_to_mem, 39, 4
    2637                      .dwcfi  save_reg_to_mem, 40, 5
    2638                      .dwcfi  cfa_offset, -6
    2639 000001da E630          SETFLG    RNDF32=1, RNDF64=1    ; [CPU_] 
         000001db 0600 
    2640 000001dc 2942          CLRC      PAGE0,OVM             ; [CPU_] 
    2641 000001dd 5616          CLRC      AMODE                 ; [CPU_] 
    2642                      .dwpsn  file "C:/ti/controlSUITE/device_support/F2837xS/v170/F2837xS_common/source/F2837xS_DefaultISR
    2643 000001de 7625        ESTOP0
    2644 000001df       $C$L48:    
    2645                      .dwpsn  file "C:/ti/controlSUITE/device_support/F2837xS/v170/F2837xS_common/source/F2837xS_DefaultISR
    2646 000001df 6F00          B         $C$L48,UNC            ; [CPU_] |659| 
    2647                      ; branch occurs ; [] |659| 
    2648                      .dwattr $C$DW$48, DW_AT_TI_end_file("C:/ti/controlSUITE/device_support/F2837xS/v170/F2837xS_common/so
    2649                      .dwattr $C$DW$48, DW_AT_TI_end_line(0x294)
    2650                      .dwattr $C$DW$48, DW_AT_TI_end_column(0x01)
    2651                      .dwendentry
    2652                      .dwendtag $C$DW$48
    2653              
    2654 000001e0               .sect   ".text:retain"
TMS320C2000 Assembler PC v6.4.2 Thu Dec 14 15:26:09 2017

Tools Copyright (c) 1996-2015 Texas Instruments Incorporated
F2837xS_DefaultISR.asm                                               PAGE   51

    2655                      .retain
    2656                      .retainrefs
    2657                      .global _ECAP6_ISR
    2658              
    2659              $C$DW$49        .dwtag  DW_TAG_subprogram, DW_AT_name("ECAP6_ISR")
    2660                      .dwattr $C$DW$49, DW_AT_low_pc(_ECAP6_ISR)
    2661                      .dwattr $C$DW$49, DW_AT_high_pc(0x00)
    2662                      .dwattr $C$DW$49, DW_AT_TI_symbol_name("_ECAP6_ISR")
    2663                      .dwattr $C$DW$49, DW_AT_external
    2664                      .dwattr $C$DW$49, DW_AT_TI_begin_file("C:/ti/controlSUITE/device_support/F2837xS/v170/F2837xS_common/
    2665                      .dwattr $C$DW$49, DW_AT_TI_begin_line(0x297)
    2666                      .dwattr $C$DW$49, DW_AT_TI_begin_column(0x10)
    2667                      .dwattr $C$DW$49, DW_AT_TI_interrupt
    2668                      .dwattr $C$DW$49, DW_AT_TI_max_frame_size(-6)
    2669                      .dwpsn  file "C:/ti/controlSUITE/device_support/F2837xS/v170/F2837xS_common/source/F2837xS_DefaultISR
    2670              
    2671                      .dwfde $C$DW$CIE, _ECAP6_ISR
    2672              
    2673              ;***************************************************************
    2674              ;* FNAME: _ECAP6_ISR                    FR SIZE:   4           *
    2675              ;*                                                             *
    2676              ;* FUNCTION ENVIRONMENT                                        *
    2677              ;*                                                             *
    2678              ;* FUNCTION PROPERTIES                                         *
    2679              ;*                            0 Parameter,  0 Auto,  4 SOE     *
    2680              ;***************************************************************
    2681              
    2682 000001e0       _ECAP6_ISR:
    2683                      .dwcfi  cfa_offset, -2
    2684                      .dwcfi  save_reg_to_mem, 26, 0
    2685 000001e0 761B          ASP       ; [CPU_] 
    2686 000001e1 FFF0          PUSH      RB                    ; [CPU_] 
    2687                      .dwcfi  save_reg_to_mem, 73, 2
    2688                      .dwcfi  save_reg_to_mem, 74, 3
    2689                      .dwcfi  cfa_offset, -4
    2690 000001e2 E200          MOV32     *SP++,STF             ; [CPU_] 
         000001e3 00BD 
    2691                      .dwcfi  save_reg_to_mem, 39, 4
    2692                      .dwcfi  save_reg_to_mem, 40, 5
    2693                      .dwcfi  cfa_offset, -6
    2694 000001e4 E630          SETFLG    RNDF32=1, RNDF64=1    ; [CPU_] 
         000001e5 0600 
    2695 000001e6 2942          CLRC      PAGE0,OVM             ; [CPU_] 
    2696 000001e7 5616          CLRC      AMODE                 ; [CPU_] 
    2697                      .dwpsn  file "C:/ti/controlSUITE/device_support/F2837xS/v170/F2837xS_common/source/F2837xS_DefaultISR
    2698 000001e8 7625        ESTOP0
    2699 000001e9       $C$L49:    
    2700                      .dwpsn  file "C:/ti/controlSUITE/device_support/F2837xS/v170/F2837xS_common/source/F2837xS_DefaultISR
    2701 000001e9 6F00          B         $C$L49,UNC            ; [CPU_] |674| 
    2702                      ; branch occurs ; [] |674| 
    2703                      .dwattr $C$DW$49, DW_AT_TI_end_file("C:/ti/controlSUITE/device_support/F2837xS/v170/F2837xS_common/so
    2704                      .dwattr $C$DW$49, DW_AT_TI_end_line(0x2a3)
    2705                      .dwattr $C$DW$49, DW_AT_TI_end_column(0x01)
    2706                      .dwendentry
    2707                      .dwendtag $C$DW$49
TMS320C2000 Assembler PC v6.4.2 Thu Dec 14 15:26:09 2017

Tools Copyright (c) 1996-2015 Texas Instruments Incorporated
F2837xS_DefaultISR.asm                                               PAGE   52

    2708              
    2709 000001ea               .sect   ".text:retain"
    2710                      .retain
    2711                      .retainrefs
    2712                      .global _EQEP1_ISR
    2713              
    2714              $C$DW$50        .dwtag  DW_TAG_subprogram, DW_AT_name("EQEP1_ISR")
    2715                      .dwattr $C$DW$50, DW_AT_low_pc(_EQEP1_ISR)
    2716                      .dwattr $C$DW$50, DW_AT_high_pc(0x00)
    2717                      .dwattr $C$DW$50, DW_AT_TI_symbol_name("_EQEP1_ISR")
    2718                      .dwattr $C$DW$50, DW_AT_external
    2719                      .dwattr $C$DW$50, DW_AT_TI_begin_file("C:/ti/controlSUITE/device_support/F2837xS/v170/F2837xS_common/
    2720                      .dwattr $C$DW$50, DW_AT_TI_begin_line(0x2a6)
    2721                      .dwattr $C$DW$50, DW_AT_TI_begin_column(0x10)
    2722                      .dwattr $C$DW$50, DW_AT_TI_interrupt
    2723                      .dwattr $C$DW$50, DW_AT_TI_max_frame_size(-6)
    2724                      .dwpsn  file "C:/ti/controlSUITE/device_support/F2837xS/v170/F2837xS_common/source/F2837xS_DefaultISR
    2725              
    2726                      .dwfde $C$DW$CIE, _EQEP1_ISR
    2727              
    2728              ;***************************************************************
    2729              ;* FNAME: _EQEP1_ISR                    FR SIZE:   4           *
    2730              ;*                                                             *
    2731              ;* FUNCTION ENVIRONMENT                                        *
    2732              ;*                                                             *
    2733              ;* FUNCTION PROPERTIES                                         *
    2734              ;*                            0 Parameter,  0 Auto,  4 SOE     *
    2735              ;***************************************************************
    2736              
    2737 000001ea       _EQEP1_ISR:
    2738                      .dwcfi  cfa_offset, -2
    2739                      .dwcfi  save_reg_to_mem, 26, 0
    2740 000001ea 761B          ASP       ; [CPU_] 
    2741 000001eb FFF0          PUSH      RB                    ; [CPU_] 
    2742                      .dwcfi  save_reg_to_mem, 73, 2
    2743                      .dwcfi  save_reg_to_mem, 74, 3
    2744                      .dwcfi  cfa_offset, -4
    2745 000001ec E200          MOV32     *SP++,STF             ; [CPU_] 
         000001ed 00BD 
    2746                      .dwcfi  save_reg_to_mem, 39, 4
    2747                      .dwcfi  save_reg_to_mem, 40, 5
    2748                      .dwcfi  cfa_offset, -6
    2749 000001ee E630          SETFLG    RNDF32=1, RNDF64=1    ; [CPU_] 
         000001ef 0600 
    2750 000001f0 2942          CLRC      PAGE0,OVM             ; [CPU_] 
    2751 000001f1 5616          CLRC      AMODE                 ; [CPU_] 
    2752                      .dwpsn  file "C:/ti/controlSUITE/device_support/F2837xS/v170/F2837xS_common/source/F2837xS_DefaultISR
    2753 000001f2 7625        ESTOP0
    2754 000001f3       $C$L50:    
    2755                      .dwpsn  file "C:/ti/controlSUITE/device_support/F2837xS/v170/F2837xS_common/source/F2837xS_DefaultISR
    2756 000001f3 6F00          B         $C$L50,UNC            ; [CPU_] |689| 
    2757                      ; branch occurs ; [] |689| 
    2758                      .dwattr $C$DW$50, DW_AT_TI_end_file("C:/ti/controlSUITE/device_support/F2837xS/v170/F2837xS_common/so
    2759                      .dwattr $C$DW$50, DW_AT_TI_end_line(0x2b2)
    2760                      .dwattr $C$DW$50, DW_AT_TI_end_column(0x01)
TMS320C2000 Assembler PC v6.4.2 Thu Dec 14 15:26:09 2017

Tools Copyright (c) 1996-2015 Texas Instruments Incorporated
F2837xS_DefaultISR.asm                                               PAGE   53

    2761                      .dwendentry
    2762                      .dwendtag $C$DW$50
    2763              
    2764 000001f4               .sect   ".text:retain"
    2765                      .retain
    2766                      .retainrefs
    2767                      .global _EQEP2_ISR
    2768              
    2769              $C$DW$51        .dwtag  DW_TAG_subprogram, DW_AT_name("EQEP2_ISR")
    2770                      .dwattr $C$DW$51, DW_AT_low_pc(_EQEP2_ISR)
    2771                      .dwattr $C$DW$51, DW_AT_high_pc(0x00)
    2772                      .dwattr $C$DW$51, DW_AT_TI_symbol_name("_EQEP2_ISR")
    2773                      .dwattr $C$DW$51, DW_AT_external
    2774                      .dwattr $C$DW$51, DW_AT_TI_begin_file("C:/ti/controlSUITE/device_support/F2837xS/v170/F2837xS_common/
    2775                      .dwattr $C$DW$51, DW_AT_TI_begin_line(0x2b5)
    2776                      .dwattr $C$DW$51, DW_AT_TI_begin_column(0x10)
    2777                      .dwattr $C$DW$51, DW_AT_TI_interrupt
    2778                      .dwattr $C$DW$51, DW_AT_TI_max_frame_size(-6)
    2779                      .dwpsn  file "C:/ti/controlSUITE/device_support/F2837xS/v170/F2837xS_common/source/F2837xS_DefaultISR
    2780              
    2781                      .dwfde $C$DW$CIE, _EQEP2_ISR
    2782              
    2783              ;***************************************************************
    2784              ;* FNAME: _EQEP2_ISR                    FR SIZE:   4           *
    2785              ;*                                                             *
    2786              ;* FUNCTION ENVIRONMENT                                        *
    2787              ;*                                                             *
    2788              ;* FUNCTION PROPERTIES                                         *
    2789              ;*                            0 Parameter,  0 Auto,  4 SOE     *
    2790              ;***************************************************************
    2791              
    2792 000001f4       _EQEP2_ISR:
    2793                      .dwcfi  cfa_offset, -2
    2794                      .dwcfi  save_reg_to_mem, 26, 0
    2795 000001f4 761B          ASP       ; [CPU_] 
    2796 000001f5 FFF0          PUSH      RB                    ; [CPU_] 
    2797                      .dwcfi  save_reg_to_mem, 73, 2
    2798                      .dwcfi  save_reg_to_mem, 74, 3
    2799                      .dwcfi  cfa_offset, -4
    2800 000001f6 E200          MOV32     *SP++,STF             ; [CPU_] 
         000001f7 00BD 
    2801                      .dwcfi  save_reg_to_mem, 39, 4
    2802                      .dwcfi  save_reg_to_mem, 40, 5
    2803                      .dwcfi  cfa_offset, -6
    2804 000001f8 E630          SETFLG    RNDF32=1, RNDF64=1    ; [CPU_] 
         000001f9 0600 
    2805 000001fa 2942          CLRC      PAGE0,OVM             ; [CPU_] 
    2806 000001fb 5616          CLRC      AMODE                 ; [CPU_] 
    2807                      .dwpsn  file "C:/ti/controlSUITE/device_support/F2837xS/v170/F2837xS_common/source/F2837xS_DefaultISR
    2808 000001fc 7625        ESTOP0
    2809 000001fd       $C$L51:    
    2810                      .dwpsn  file "C:/ti/controlSUITE/device_support/F2837xS/v170/F2837xS_common/source/F2837xS_DefaultISR
    2811 000001fd 6F00          B         $C$L51,UNC            ; [CPU_] |704| 
    2812                      ; branch occurs ; [] |704| 
    2813                      .dwattr $C$DW$51, DW_AT_TI_end_file("C:/ti/controlSUITE/device_support/F2837xS/v170/F2837xS_common/so
TMS320C2000 Assembler PC v6.4.2 Thu Dec 14 15:26:09 2017

Tools Copyright (c) 1996-2015 Texas Instruments Incorporated
F2837xS_DefaultISR.asm                                               PAGE   54

    2814                      .dwattr $C$DW$51, DW_AT_TI_end_line(0x2c1)
    2815                      .dwattr $C$DW$51, DW_AT_TI_end_column(0x01)
    2816                      .dwendentry
    2817                      .dwendtag $C$DW$51
    2818              
    2819 000001fe               .sect   ".text:retain"
    2820                      .retain
    2821                      .retainrefs
    2822                      .global _EQEP3_ISR
    2823              
    2824              $C$DW$52        .dwtag  DW_TAG_subprogram, DW_AT_name("EQEP3_ISR")
    2825                      .dwattr $C$DW$52, DW_AT_low_pc(_EQEP3_ISR)
    2826                      .dwattr $C$DW$52, DW_AT_high_pc(0x00)
    2827                      .dwattr $C$DW$52, DW_AT_TI_symbol_name("_EQEP3_ISR")
    2828                      .dwattr $C$DW$52, DW_AT_external
    2829                      .dwattr $C$DW$52, DW_AT_TI_begin_file("C:/ti/controlSUITE/device_support/F2837xS/v170/F2837xS_common/
    2830                      .dwattr $C$DW$52, DW_AT_TI_begin_line(0x2c4)
    2831                      .dwattr $C$DW$52, DW_AT_TI_begin_column(0x10)
    2832                      .dwattr $C$DW$52, DW_AT_TI_interrupt
    2833                      .dwattr $C$DW$52, DW_AT_TI_max_frame_size(-6)
    2834                      .dwpsn  file "C:/ti/controlSUITE/device_support/F2837xS/v170/F2837xS_common/source/F2837xS_DefaultISR
    2835              
    2836                      .dwfde $C$DW$CIE, _EQEP3_ISR
    2837              
    2838              ;***************************************************************
    2839              ;* FNAME: _EQEP3_ISR                    FR SIZE:   4           *
    2840              ;*                                                             *
    2841              ;* FUNCTION ENVIRONMENT                                        *
    2842              ;*                                                             *
    2843              ;* FUNCTION PROPERTIES                                         *
    2844              ;*                            0 Parameter,  0 Auto,  4 SOE     *
    2845              ;***************************************************************
    2846              
    2847 000001fe       _EQEP3_ISR:
    2848                      .dwcfi  cfa_offset, -2
    2849                      .dwcfi  save_reg_to_mem, 26, 0
    2850 000001fe 761B          ASP       ; [CPU_] 
    2851 000001ff FFF0          PUSH      RB                    ; [CPU_] 
    2852                      .dwcfi  save_reg_to_mem, 73, 2
    2853                      .dwcfi  save_reg_to_mem, 74, 3
    2854                      .dwcfi  cfa_offset, -4
    2855 00000200 E200          MOV32     *SP++,STF             ; [CPU_] 
         00000201 00BD 
    2856                      .dwcfi  save_reg_to_mem, 39, 4
    2857                      .dwcfi  save_reg_to_mem, 40, 5
    2858                      .dwcfi  cfa_offset, -6
    2859 00000202 E630          SETFLG    RNDF32=1, RNDF64=1    ; [CPU_] 
         00000203 0600 
    2860 00000204 2942          CLRC      PAGE0,OVM             ; [CPU_] 
    2861 00000205 5616          CLRC      AMODE                 ; [CPU_] 
    2862                      .dwpsn  file "C:/ti/controlSUITE/device_support/F2837xS/v170/F2837xS_common/source/F2837xS_DefaultISR
    2863 00000206 7625        ESTOP0
    2864 00000207       $C$L52:    
    2865                      .dwpsn  file "C:/ti/controlSUITE/device_support/F2837xS/v170/F2837xS_common/source/F2837xS_DefaultISR
    2866 00000207 6F00          B         $C$L52,UNC            ; [CPU_] |719| 
TMS320C2000 Assembler PC v6.4.2 Thu Dec 14 15:26:09 2017

Tools Copyright (c) 1996-2015 Texas Instruments Incorporated
F2837xS_DefaultISR.asm                                               PAGE   55

    2867                      ; branch occurs ; [] |719| 
    2868                      .dwattr $C$DW$52, DW_AT_TI_end_file("C:/ti/controlSUITE/device_support/F2837xS/v170/F2837xS_common/so
    2869                      .dwattr $C$DW$52, DW_AT_TI_end_line(0x2d0)
    2870                      .dwattr $C$DW$52, DW_AT_TI_end_column(0x01)
    2871                      .dwendentry
    2872                      .dwendtag $C$DW$52
    2873              
    2874 00000208               .sect   ".text:retain"
    2875                      .retain
    2876                      .retainrefs
    2877                      .global _SPIA_RX_ISR
    2878              
    2879              $C$DW$53        .dwtag  DW_TAG_subprogram, DW_AT_name("SPIA_RX_ISR")
    2880                      .dwattr $C$DW$53, DW_AT_low_pc(_SPIA_RX_ISR)
    2881                      .dwattr $C$DW$53, DW_AT_high_pc(0x00)
    2882                      .dwattr $C$DW$53, DW_AT_TI_symbol_name("_SPIA_RX_ISR")
    2883                      .dwattr $C$DW$53, DW_AT_external
    2884                      .dwattr $C$DW$53, DW_AT_TI_begin_file("C:/ti/controlSUITE/device_support/F2837xS/v170/F2837xS_common/
    2885                      .dwattr $C$DW$53, DW_AT_TI_begin_line(0x2d3)
    2886                      .dwattr $C$DW$53, DW_AT_TI_begin_column(0x10)
    2887                      .dwattr $C$DW$53, DW_AT_TI_interrupt
    2888                      .dwattr $C$DW$53, DW_AT_TI_max_frame_size(-6)
    2889                      .dwpsn  file "C:/ti/controlSUITE/device_support/F2837xS/v170/F2837xS_common/source/F2837xS_DefaultISR
    2890              
    2891                      .dwfde $C$DW$CIE, _SPIA_RX_ISR
    2892              
    2893              ;***************************************************************
    2894              ;* FNAME: _SPIA_RX_ISR                  FR SIZE:   4           *
    2895              ;*                                                             *
    2896              ;* FUNCTION ENVIRONMENT                                        *
    2897              ;*                                                             *
    2898              ;* FUNCTION PROPERTIES                                         *
    2899              ;*                            0 Parameter,  0 Auto,  4 SOE     *
    2900              ;***************************************************************
    2901              
    2902 00000208       _SPIA_RX_ISR:
    2903                      .dwcfi  cfa_offset, -2
    2904                      .dwcfi  save_reg_to_mem, 26, 0
    2905 00000208 761B          ASP       ; [CPU_] 
    2906 00000209 FFF0          PUSH      RB                    ; [CPU_] 
    2907                      .dwcfi  save_reg_to_mem, 73, 2
    2908                      .dwcfi  save_reg_to_mem, 74, 3
    2909                      .dwcfi  cfa_offset, -4
    2910 0000020a E200          MOV32     *SP++,STF             ; [CPU_] 
         0000020b 00BD 
    2911                      .dwcfi  save_reg_to_mem, 39, 4
    2912                      .dwcfi  save_reg_to_mem, 40, 5
    2913                      .dwcfi  cfa_offset, -6
    2914 0000020c E630          SETFLG    RNDF32=1, RNDF64=1    ; [CPU_] 
         0000020d 0600 
    2915 0000020e 2942          CLRC      PAGE0,OVM             ; [CPU_] 
    2916 0000020f 5616          CLRC      AMODE                 ; [CPU_] 
    2917                      .dwpsn  file "C:/ti/controlSUITE/device_support/F2837xS/v170/F2837xS_common/source/F2837xS_DefaultISR
    2918 00000210 7625        ESTOP0
    2919 00000211       $C$L53:    
TMS320C2000 Assembler PC v6.4.2 Thu Dec 14 15:26:09 2017

Tools Copyright (c) 1996-2015 Texas Instruments Incorporated
F2837xS_DefaultISR.asm                                               PAGE   56

    2920                      .dwpsn  file "C:/ti/controlSUITE/device_support/F2837xS/v170/F2837xS_common/source/F2837xS_DefaultISR
    2921 00000211 6F00          B         $C$L53,UNC            ; [CPU_] |734| 
    2922                      ; branch occurs ; [] |734| 
    2923                      .dwattr $C$DW$53, DW_AT_TI_end_file("C:/ti/controlSUITE/device_support/F2837xS/v170/F2837xS_common/so
    2924                      .dwattr $C$DW$53, DW_AT_TI_end_line(0x2df)
    2925                      .dwattr $C$DW$53, DW_AT_TI_end_column(0x01)
    2926                      .dwendentry
    2927                      .dwendtag $C$DW$53
    2928              
    2929 00000212               .sect   ".text:retain"
    2930                      .retain
    2931                      .retainrefs
    2932                      .global _SPIA_TX_ISR
    2933              
    2934              $C$DW$54        .dwtag  DW_TAG_subprogram, DW_AT_name("SPIA_TX_ISR")
    2935                      .dwattr $C$DW$54, DW_AT_low_pc(_SPIA_TX_ISR)
    2936                      .dwattr $C$DW$54, DW_AT_high_pc(0x00)
    2937                      .dwattr $C$DW$54, DW_AT_TI_symbol_name("_SPIA_TX_ISR")
    2938                      .dwattr $C$DW$54, DW_AT_external
    2939                      .dwattr $C$DW$54, DW_AT_TI_begin_file("C:/ti/controlSUITE/device_support/F2837xS/v170/F2837xS_common/
    2940                      .dwattr $C$DW$54, DW_AT_TI_begin_line(0x2e2)
    2941                      .dwattr $C$DW$54, DW_AT_TI_begin_column(0x10)
    2942                      .dwattr $C$DW$54, DW_AT_TI_interrupt
    2943                      .dwattr $C$DW$54, DW_AT_TI_max_frame_size(-6)
    2944                      .dwpsn  file "C:/ti/controlSUITE/device_support/F2837xS/v170/F2837xS_common/source/F2837xS_DefaultISR
    2945              
    2946                      .dwfde $C$DW$CIE, _SPIA_TX_ISR
    2947              
    2948              ;***************************************************************
    2949              ;* FNAME: _SPIA_TX_ISR                  FR SIZE:   4           *
    2950              ;*                                                             *
    2951              ;* FUNCTION ENVIRONMENT                                        *
    2952              ;*                                                             *
    2953              ;* FUNCTION PROPERTIES                                         *
    2954              ;*                            0 Parameter,  0 Auto,  4 SOE     *
    2955              ;***************************************************************
    2956              
    2957 00000212       _SPIA_TX_ISR:
    2958                      .dwcfi  cfa_offset, -2
    2959                      .dwcfi  save_reg_to_mem, 26, 0
    2960 00000212 761B          ASP       ; [CPU_] 
    2961 00000213 FFF0          PUSH      RB                    ; [CPU_] 
    2962                      .dwcfi  save_reg_to_mem, 73, 2
    2963                      .dwcfi  save_reg_to_mem, 74, 3
    2964                      .dwcfi  cfa_offset, -4
    2965 00000214 E200          MOV32     *SP++,STF             ; [CPU_] 
         00000215 00BD 
    2966                      .dwcfi  save_reg_to_mem, 39, 4
    2967                      .dwcfi  save_reg_to_mem, 40, 5
    2968                      .dwcfi  cfa_offset, -6
    2969 00000216 E630          SETFLG    RNDF32=1, RNDF64=1    ; [CPU_] 
         00000217 0600 
    2970 00000218 2942          CLRC      PAGE0,OVM             ; [CPU_] 
    2971 00000219 5616          CLRC      AMODE                 ; [CPU_] 
    2972                      .dwpsn  file "C:/ti/controlSUITE/device_support/F2837xS/v170/F2837xS_common/source/F2837xS_DefaultISR
TMS320C2000 Assembler PC v6.4.2 Thu Dec 14 15:26:09 2017

Tools Copyright (c) 1996-2015 Texas Instruments Incorporated
F2837xS_DefaultISR.asm                                               PAGE   57

    2973 0000021a 7625        ESTOP0
    2974 0000021b       $C$L54:    
    2975                      .dwpsn  file "C:/ti/controlSUITE/device_support/F2837xS/v170/F2837xS_common/source/F2837xS_DefaultISR
    2976 0000021b 6F00          B         $C$L54,UNC            ; [CPU_] |749| 
    2977                      ; branch occurs ; [] |749| 
    2978                      .dwattr $C$DW$54, DW_AT_TI_end_file("C:/ti/controlSUITE/device_support/F2837xS/v170/F2837xS_common/so
    2979                      .dwattr $C$DW$54, DW_AT_TI_end_line(0x2ee)
    2980                      .dwattr $C$DW$54, DW_AT_TI_end_column(0x01)
    2981                      .dwendentry
    2982                      .dwendtag $C$DW$54
    2983              
    2984 0000021c               .sect   ".text:retain"
    2985                      .retain
    2986                      .retainrefs
    2987                      .global _SPIB_RX_ISR
    2988              
    2989              $C$DW$55        .dwtag  DW_TAG_subprogram, DW_AT_name("SPIB_RX_ISR")
    2990                      .dwattr $C$DW$55, DW_AT_low_pc(_SPIB_RX_ISR)
    2991                      .dwattr $C$DW$55, DW_AT_high_pc(0x00)
    2992                      .dwattr $C$DW$55, DW_AT_TI_symbol_name("_SPIB_RX_ISR")
    2993                      .dwattr $C$DW$55, DW_AT_external
    2994                      .dwattr $C$DW$55, DW_AT_TI_begin_file("C:/ti/controlSUITE/device_support/F2837xS/v170/F2837xS_common/
    2995                      .dwattr $C$DW$55, DW_AT_TI_begin_line(0x2f1)
    2996                      .dwattr $C$DW$55, DW_AT_TI_begin_column(0x10)
    2997                      .dwattr $C$DW$55, DW_AT_TI_interrupt
    2998                      .dwattr $C$DW$55, DW_AT_TI_max_frame_size(-6)
    2999                      .dwpsn  file "C:/ti/controlSUITE/device_support/F2837xS/v170/F2837xS_common/source/F2837xS_DefaultISR
    3000              
    3001                      .dwfde $C$DW$CIE, _SPIB_RX_ISR
    3002              
    3003              ;***************************************************************
    3004              ;* FNAME: _SPIB_RX_ISR                  FR SIZE:   4           *
    3005              ;*                                                             *
    3006              ;* FUNCTION ENVIRONMENT                                        *
    3007              ;*                                                             *
    3008              ;* FUNCTION PROPERTIES                                         *
    3009              ;*                            0 Parameter,  0 Auto,  4 SOE     *
    3010              ;***************************************************************
    3011              
    3012 0000021c       _SPIB_RX_ISR:
    3013                      .dwcfi  cfa_offset, -2
    3014                      .dwcfi  save_reg_to_mem, 26, 0
    3015 0000021c 761B          ASP       ; [CPU_] 
    3016 0000021d FFF0          PUSH      RB                    ; [CPU_] 
    3017                      .dwcfi  save_reg_to_mem, 73, 2
    3018                      .dwcfi  save_reg_to_mem, 74, 3
    3019                      .dwcfi  cfa_offset, -4
    3020 0000021e E200          MOV32     *SP++,STF             ; [CPU_] 
         0000021f 00BD 
    3021                      .dwcfi  save_reg_to_mem, 39, 4
    3022                      .dwcfi  save_reg_to_mem, 40, 5
    3023                      .dwcfi  cfa_offset, -6
    3024 00000220 E630          SETFLG    RNDF32=1, RNDF64=1    ; [CPU_] 
         00000221 0600 
    3025 00000222 2942          CLRC      PAGE0,OVM             ; [CPU_] 
TMS320C2000 Assembler PC v6.4.2 Thu Dec 14 15:26:09 2017

Tools Copyright (c) 1996-2015 Texas Instruments Incorporated
F2837xS_DefaultISR.asm                                               PAGE   58

    3026 00000223 5616          CLRC      AMODE                 ; [CPU_] 
    3027                      .dwpsn  file "C:/ti/controlSUITE/device_support/F2837xS/v170/F2837xS_common/source/F2837xS_DefaultISR
    3028 00000224 7625        ESTOP0
    3029 00000225       $C$L55:    
    3030                      .dwpsn  file "C:/ti/controlSUITE/device_support/F2837xS/v170/F2837xS_common/source/F2837xS_DefaultISR
    3031 00000225 6F00          B         $C$L55,UNC            ; [CPU_] |764| 
    3032                      ; branch occurs ; [] |764| 
    3033                      .dwattr $C$DW$55, DW_AT_TI_end_file("C:/ti/controlSUITE/device_support/F2837xS/v170/F2837xS_common/so
    3034                      .dwattr $C$DW$55, DW_AT_TI_end_line(0x2fd)
    3035                      .dwattr $C$DW$55, DW_AT_TI_end_column(0x01)
    3036                      .dwendentry
    3037                      .dwendtag $C$DW$55
    3038              
    3039 00000226               .sect   ".text:retain"
    3040                      .retain
    3041                      .retainrefs
    3042                      .global _SPIB_TX_ISR
    3043              
    3044              $C$DW$56        .dwtag  DW_TAG_subprogram, DW_AT_name("SPIB_TX_ISR")
    3045                      .dwattr $C$DW$56, DW_AT_low_pc(_SPIB_TX_ISR)
    3046                      .dwattr $C$DW$56, DW_AT_high_pc(0x00)
    3047                      .dwattr $C$DW$56, DW_AT_TI_symbol_name("_SPIB_TX_ISR")
    3048                      .dwattr $C$DW$56, DW_AT_external
    3049                      .dwattr $C$DW$56, DW_AT_TI_begin_file("C:/ti/controlSUITE/device_support/F2837xS/v170/F2837xS_common/
    3050                      .dwattr $C$DW$56, DW_AT_TI_begin_line(0x300)
    3051                      .dwattr $C$DW$56, DW_AT_TI_begin_column(0x10)
    3052                      .dwattr $C$DW$56, DW_AT_TI_interrupt
    3053                      .dwattr $C$DW$56, DW_AT_TI_max_frame_size(-6)
    3054                      .dwpsn  file "C:/ti/controlSUITE/device_support/F2837xS/v170/F2837xS_common/source/F2837xS_DefaultISR
    3055              
    3056                      .dwfde $C$DW$CIE, _SPIB_TX_ISR
    3057              
    3058              ;***************************************************************
    3059              ;* FNAME: _SPIB_TX_ISR                  FR SIZE:   4           *
    3060              ;*                                                             *
    3061              ;* FUNCTION ENVIRONMENT                                        *
    3062              ;*                                                             *
    3063              ;* FUNCTION PROPERTIES                                         *
    3064              ;*                            0 Parameter,  0 Auto,  4 SOE     *
    3065              ;***************************************************************
    3066              
    3067 00000226       _SPIB_TX_ISR:
    3068                      .dwcfi  cfa_offset, -2
    3069                      .dwcfi  save_reg_to_mem, 26, 0
    3070 00000226 761B          ASP       ; [CPU_] 
    3071 00000227 FFF0          PUSH      RB                    ; [CPU_] 
    3072                      .dwcfi  save_reg_to_mem, 73, 2
    3073                      .dwcfi  save_reg_to_mem, 74, 3
    3074                      .dwcfi  cfa_offset, -4
    3075 00000228 E200          MOV32     *SP++,STF             ; [CPU_] 
         00000229 00BD 
    3076                      .dwcfi  save_reg_to_mem, 39, 4
    3077                      .dwcfi  save_reg_to_mem, 40, 5
    3078                      .dwcfi  cfa_offset, -6
    3079 0000022a E630          SETFLG    RNDF32=1, RNDF64=1    ; [CPU_] 
TMS320C2000 Assembler PC v6.4.2 Thu Dec 14 15:26:09 2017

Tools Copyright (c) 1996-2015 Texas Instruments Incorporated
F2837xS_DefaultISR.asm                                               PAGE   59

         0000022b 0600 
    3080 0000022c 2942          CLRC      PAGE0,OVM             ; [CPU_] 
    3081 0000022d 5616          CLRC      AMODE                 ; [CPU_] 
    3082                      .dwpsn  file "C:/ti/controlSUITE/device_support/F2837xS/v170/F2837xS_common/source/F2837xS_DefaultISR
    3083 0000022e 7625        ESTOP0
    3084 0000022f       $C$L56:    
    3085                      .dwpsn  file "C:/ti/controlSUITE/device_support/F2837xS/v170/F2837xS_common/source/F2837xS_DefaultISR
    3086 0000022f 6F00          B         $C$L56,UNC            ; [CPU_] |779| 
    3087                      ; branch occurs ; [] |779| 
    3088                      .dwattr $C$DW$56, DW_AT_TI_end_file("C:/ti/controlSUITE/device_support/F2837xS/v170/F2837xS_common/so
    3089                      .dwattr $C$DW$56, DW_AT_TI_end_line(0x30c)
    3090                      .dwattr $C$DW$56, DW_AT_TI_end_column(0x01)
    3091                      .dwendentry
    3092                      .dwendtag $C$DW$56
    3093              
    3094 00000230               .sect   ".text:retain"
    3095                      .retain
    3096                      .retainrefs
    3097                      .global _MCBSPA_RX_ISR
    3098              
    3099              $C$DW$57        .dwtag  DW_TAG_subprogram, DW_AT_name("MCBSPA_RX_ISR")
    3100                      .dwattr $C$DW$57, DW_AT_low_pc(_MCBSPA_RX_ISR)
    3101                      .dwattr $C$DW$57, DW_AT_high_pc(0x00)
    3102                      .dwattr $C$DW$57, DW_AT_TI_symbol_name("_MCBSPA_RX_ISR")
    3103                      .dwattr $C$DW$57, DW_AT_external
    3104                      .dwattr $C$DW$57, DW_AT_TI_begin_file("C:/ti/controlSUITE/device_support/F2837xS/v170/F2837xS_common/
    3105                      .dwattr $C$DW$57, DW_AT_TI_begin_line(0x30f)
    3106                      .dwattr $C$DW$57, DW_AT_TI_begin_column(0x10)
    3107                      .dwattr $C$DW$57, DW_AT_TI_interrupt
    3108                      .dwattr $C$DW$57, DW_AT_TI_max_frame_size(-6)
    3109                      .dwpsn  file "C:/ti/controlSUITE/device_support/F2837xS/v170/F2837xS_common/source/F2837xS_DefaultISR
    3110              
    3111                      .dwfde $C$DW$CIE, _MCBSPA_RX_ISR
    3112              
    3113              ;***************************************************************
    3114              ;* FNAME: _MCBSPA_RX_ISR                FR SIZE:   4           *
    3115              ;*                                                             *
    3116              ;* FUNCTION ENVIRONMENT                                        *
    3117              ;*                                                             *
    3118              ;* FUNCTION PROPERTIES                                         *
    3119              ;*                            0 Parameter,  0 Auto,  4 SOE     *
    3120              ;***************************************************************
    3121              
    3122 00000230       _MCBSPA_RX_ISR:
    3123                      .dwcfi  cfa_offset, -2
    3124                      .dwcfi  save_reg_to_mem, 26, 0
    3125 00000230 761B          ASP       ; [CPU_] 
    3126 00000231 FFF0          PUSH      RB                    ; [CPU_] 
    3127                      .dwcfi  save_reg_to_mem, 73, 2
    3128                      .dwcfi  save_reg_to_mem, 74, 3
    3129                      .dwcfi  cfa_offset, -4
    3130 00000232 E200          MOV32     *SP++,STF             ; [CPU_] 
         00000233 00BD 
    3131                      .dwcfi  save_reg_to_mem, 39, 4
    3132                      .dwcfi  save_reg_to_mem, 40, 5
TMS320C2000 Assembler PC v6.4.2 Thu Dec 14 15:26:09 2017

Tools Copyright (c) 1996-2015 Texas Instruments Incorporated
F2837xS_DefaultISR.asm                                               PAGE   60

    3133                      .dwcfi  cfa_offset, -6
    3134 00000234 E630          SETFLG    RNDF32=1, RNDF64=1    ; [CPU_] 
         00000235 0600 
    3135 00000236 2942          CLRC      PAGE0,OVM             ; [CPU_] 
    3136 00000237 5616          CLRC      AMODE                 ; [CPU_] 
    3137                      .dwpsn  file "C:/ti/controlSUITE/device_support/F2837xS/v170/F2837xS_common/source/F2837xS_DefaultISR
    3138 00000238 7625        ESTOP0
    3139 00000239       $C$L57:    
    3140                      .dwpsn  file "C:/ti/controlSUITE/device_support/F2837xS/v170/F2837xS_common/source/F2837xS_DefaultISR
    3141 00000239 6F00          B         $C$L57,UNC            ; [CPU_] |794| 
    3142                      ; branch occurs ; [] |794| 
    3143                      .dwattr $C$DW$57, DW_AT_TI_end_file("C:/ti/controlSUITE/device_support/F2837xS/v170/F2837xS_common/so
    3144                      .dwattr $C$DW$57, DW_AT_TI_end_line(0x31b)
    3145                      .dwattr $C$DW$57, DW_AT_TI_end_column(0x01)
    3146                      .dwendentry
    3147                      .dwendtag $C$DW$57
    3148              
    3149 0000023a               .sect   ".text:retain"
    3150                      .retain
    3151                      .retainrefs
    3152                      .global _MCBSPA_TX_ISR
    3153              
    3154              $C$DW$58        .dwtag  DW_TAG_subprogram, DW_AT_name("MCBSPA_TX_ISR")
    3155                      .dwattr $C$DW$58, DW_AT_low_pc(_MCBSPA_TX_ISR)
    3156                      .dwattr $C$DW$58, DW_AT_high_pc(0x00)
    3157                      .dwattr $C$DW$58, DW_AT_TI_symbol_name("_MCBSPA_TX_ISR")
    3158                      .dwattr $C$DW$58, DW_AT_external
    3159                      .dwattr $C$DW$58, DW_AT_TI_begin_file("C:/ti/controlSUITE/device_support/F2837xS/v170/F2837xS_common/
    3160                      .dwattr $C$DW$58, DW_AT_TI_begin_line(0x31e)
    3161                      .dwattr $C$DW$58, DW_AT_TI_begin_column(0x10)
    3162                      .dwattr $C$DW$58, DW_AT_TI_interrupt
    3163                      .dwattr $C$DW$58, DW_AT_TI_max_frame_size(-6)
    3164                      .dwpsn  file "C:/ti/controlSUITE/device_support/F2837xS/v170/F2837xS_common/source/F2837xS_DefaultISR
    3165              
    3166                      .dwfde $C$DW$CIE, _MCBSPA_TX_ISR
    3167              
    3168              ;***************************************************************
    3169              ;* FNAME: _MCBSPA_TX_ISR                FR SIZE:   4           *
    3170              ;*                                                             *
    3171              ;* FUNCTION ENVIRONMENT                                        *
    3172              ;*                                                             *
    3173              ;* FUNCTION PROPERTIES                                         *
    3174              ;*                            0 Parameter,  0 Auto,  4 SOE     *
    3175              ;***************************************************************
    3176              
    3177 0000023a       _MCBSPA_TX_ISR:
    3178                      .dwcfi  cfa_offset, -2
    3179                      .dwcfi  save_reg_to_mem, 26, 0
    3180 0000023a 761B          ASP       ; [CPU_] 
    3181 0000023b FFF0          PUSH      RB                    ; [CPU_] 
    3182                      .dwcfi  save_reg_to_mem, 73, 2
    3183                      .dwcfi  save_reg_to_mem, 74, 3
    3184                      .dwcfi  cfa_offset, -4
    3185 0000023c E200          MOV32     *SP++,STF             ; [CPU_] 
         0000023d 00BD 
TMS320C2000 Assembler PC v6.4.2 Thu Dec 14 15:26:09 2017

Tools Copyright (c) 1996-2015 Texas Instruments Incorporated
F2837xS_DefaultISR.asm                                               PAGE   61

    3186                      .dwcfi  save_reg_to_mem, 39, 4
    3187                      .dwcfi  save_reg_to_mem, 40, 5
    3188                      .dwcfi  cfa_offset, -6
    3189 0000023e E630          SETFLG    RNDF32=1, RNDF64=1    ; [CPU_] 
         0000023f 0600 
    3190 00000240 2942          CLRC      PAGE0,OVM             ; [CPU_] 
    3191 00000241 5616          CLRC      AMODE                 ; [CPU_] 
    3192                      .dwpsn  file "C:/ti/controlSUITE/device_support/F2837xS/v170/F2837xS_common/source/F2837xS_DefaultISR
    3193 00000242 7625        ESTOP0
    3194 00000243       $C$L58:    
    3195                      .dwpsn  file "C:/ti/controlSUITE/device_support/F2837xS/v170/F2837xS_common/source/F2837xS_DefaultISR
    3196 00000243 6F00          B         $C$L58,UNC            ; [CPU_] |809| 
    3197                      ; branch occurs ; [] |809| 
    3198                      .dwattr $C$DW$58, DW_AT_TI_end_file("C:/ti/controlSUITE/device_support/F2837xS/v170/F2837xS_common/so
    3199                      .dwattr $C$DW$58, DW_AT_TI_end_line(0x32a)
    3200                      .dwattr $C$DW$58, DW_AT_TI_end_column(0x01)
    3201                      .dwendentry
    3202                      .dwendtag $C$DW$58
    3203              
    3204 00000244               .sect   ".text:retain"
    3205                      .retain
    3206                      .retainrefs
    3207                      .global _MCBSPB_RX_ISR
    3208              
    3209              $C$DW$59        .dwtag  DW_TAG_subprogram, DW_AT_name("MCBSPB_RX_ISR")
    3210                      .dwattr $C$DW$59, DW_AT_low_pc(_MCBSPB_RX_ISR)
    3211                      .dwattr $C$DW$59, DW_AT_high_pc(0x00)
    3212                      .dwattr $C$DW$59, DW_AT_TI_symbol_name("_MCBSPB_RX_ISR")
    3213                      .dwattr $C$DW$59, DW_AT_external
    3214                      .dwattr $C$DW$59, DW_AT_TI_begin_file("C:/ti/controlSUITE/device_support/F2837xS/v170/F2837xS_common/
    3215                      .dwattr $C$DW$59, DW_AT_TI_begin_line(0x32d)
    3216                      .dwattr $C$DW$59, DW_AT_TI_begin_column(0x10)
    3217                      .dwattr $C$DW$59, DW_AT_TI_interrupt
    3218                      .dwattr $C$DW$59, DW_AT_TI_max_frame_size(-6)
    3219                      .dwpsn  file "C:/ti/controlSUITE/device_support/F2837xS/v170/F2837xS_common/source/F2837xS_DefaultISR
    3220              
    3221                      .dwfde $C$DW$CIE, _MCBSPB_RX_ISR
    3222              
    3223              ;***************************************************************
    3224              ;* FNAME: _MCBSPB_RX_ISR                FR SIZE:   4           *
    3225              ;*                                                             *
    3226              ;* FUNCTION ENVIRONMENT                                        *
    3227              ;*                                                             *
    3228              ;* FUNCTION PROPERTIES                                         *
    3229              ;*                            0 Parameter,  0 Auto,  4 SOE     *
    3230              ;***************************************************************
    3231              
    3232 00000244       _MCBSPB_RX_ISR:
    3233                      .dwcfi  cfa_offset, -2
    3234                      .dwcfi  save_reg_to_mem, 26, 0
    3235 00000244 761B          ASP       ; [CPU_] 
    3236 00000245 FFF0          PUSH      RB                    ; [CPU_] 
    3237                      .dwcfi  save_reg_to_mem, 73, 2
    3238                      .dwcfi  save_reg_to_mem, 74, 3
    3239                      .dwcfi  cfa_offset, -4
TMS320C2000 Assembler PC v6.4.2 Thu Dec 14 15:26:09 2017

Tools Copyright (c) 1996-2015 Texas Instruments Incorporated
F2837xS_DefaultISR.asm                                               PAGE   62

    3240 00000246 E200          MOV32     *SP++,STF             ; [CPU_] 
         00000247 00BD 
    3241                      .dwcfi  save_reg_to_mem, 39, 4
    3242                      .dwcfi  save_reg_to_mem, 40, 5
    3243                      .dwcfi  cfa_offset, -6
    3244 00000248 E630          SETFLG    RNDF32=1, RNDF64=1    ; [CPU_] 
         00000249 0600 
    3245 0000024a 2942          CLRC      PAGE0,OVM             ; [CPU_] 
    3246 0000024b 5616          CLRC      AMODE                 ; [CPU_] 
    3247                      .dwpsn  file "C:/ti/controlSUITE/device_support/F2837xS/v170/F2837xS_common/source/F2837xS_DefaultISR
    3248 0000024c 7625        ESTOP0
    3249 0000024d       $C$L59:    
    3250                      .dwpsn  file "C:/ti/controlSUITE/device_support/F2837xS/v170/F2837xS_common/source/F2837xS_DefaultISR
    3251 0000024d 6F00          B         $C$L59,UNC            ; [CPU_] |824| 
    3252                      ; branch occurs ; [] |824| 
    3253                      .dwattr $C$DW$59, DW_AT_TI_end_file("C:/ti/controlSUITE/device_support/F2837xS/v170/F2837xS_common/so
    3254                      .dwattr $C$DW$59, DW_AT_TI_end_line(0x339)
    3255                      .dwattr $C$DW$59, DW_AT_TI_end_column(0x01)
    3256                      .dwendentry
    3257                      .dwendtag $C$DW$59
    3258              
    3259 0000024e               .sect   ".text:retain"
    3260                      .retain
    3261                      .retainrefs
    3262                      .global _MCBSPB_TX_ISR
    3263              
    3264              $C$DW$60        .dwtag  DW_TAG_subprogram, DW_AT_name("MCBSPB_TX_ISR")
    3265                      .dwattr $C$DW$60, DW_AT_low_pc(_MCBSPB_TX_ISR)
    3266                      .dwattr $C$DW$60, DW_AT_high_pc(0x00)
    3267                      .dwattr $C$DW$60, DW_AT_TI_symbol_name("_MCBSPB_TX_ISR")
    3268                      .dwattr $C$DW$60, DW_AT_external
    3269                      .dwattr $C$DW$60, DW_AT_TI_begin_file("C:/ti/controlSUITE/device_support/F2837xS/v170/F2837xS_common/
    3270                      .dwattr $C$DW$60, DW_AT_TI_begin_line(0x33c)
    3271                      .dwattr $C$DW$60, DW_AT_TI_begin_column(0x10)
    3272                      .dwattr $C$DW$60, DW_AT_TI_interrupt
    3273                      .dwattr $C$DW$60, DW_AT_TI_max_frame_size(-6)
    3274                      .dwpsn  file "C:/ti/controlSUITE/device_support/F2837xS/v170/F2837xS_common/source/F2837xS_DefaultISR
    3275              
    3276                      .dwfde $C$DW$CIE, _MCBSPB_TX_ISR
    3277              
    3278              ;***************************************************************
    3279              ;* FNAME: _MCBSPB_TX_ISR                FR SIZE:   4           *
    3280              ;*                                                             *
    3281              ;* FUNCTION ENVIRONMENT                                        *
    3282              ;*                                                             *
    3283              ;* FUNCTION PROPERTIES                                         *
    3284              ;*                            0 Parameter,  0 Auto,  4 SOE     *
    3285              ;***************************************************************
    3286              
    3287 0000024e       _MCBSPB_TX_ISR:
    3288                      .dwcfi  cfa_offset, -2
    3289                      .dwcfi  save_reg_to_mem, 26, 0
    3290 0000024e 761B          ASP       ; [CPU_] 
    3291 0000024f FFF0          PUSH      RB                    ; [CPU_] 
    3292                      .dwcfi  save_reg_to_mem, 73, 2
TMS320C2000 Assembler PC v6.4.2 Thu Dec 14 15:26:09 2017

Tools Copyright (c) 1996-2015 Texas Instruments Incorporated
F2837xS_DefaultISR.asm                                               PAGE   63

    3293                      .dwcfi  save_reg_to_mem, 74, 3
    3294                      .dwcfi  cfa_offset, -4
    3295 00000250 E200          MOV32     *SP++,STF             ; [CPU_] 
         00000251 00BD 
    3296                      .dwcfi  save_reg_to_mem, 39, 4
    3297                      .dwcfi  save_reg_to_mem, 40, 5
    3298                      .dwcfi  cfa_offset, -6
    3299 00000252 E630          SETFLG    RNDF32=1, RNDF64=1    ; [CPU_] 
         00000253 0600 
    3300 00000254 2942          CLRC      PAGE0,OVM             ; [CPU_] 
    3301 00000255 5616          CLRC      AMODE                 ; [CPU_] 
    3302                      .dwpsn  file "C:/ti/controlSUITE/device_support/F2837xS/v170/F2837xS_common/source/F2837xS_DefaultISR
    3303 00000256 7625        ESTOP0
    3304 00000257       $C$L60:    
    3305                      .dwpsn  file "C:/ti/controlSUITE/device_support/F2837xS/v170/F2837xS_common/source/F2837xS_DefaultISR
    3306 00000257 6F00          B         $C$L60,UNC            ; [CPU_] |839| 
    3307                      ; branch occurs ; [] |839| 
    3308                      .dwattr $C$DW$60, DW_AT_TI_end_file("C:/ti/controlSUITE/device_support/F2837xS/v170/F2837xS_common/so
    3309                      .dwattr $C$DW$60, DW_AT_TI_end_line(0x348)
    3310                      .dwattr $C$DW$60, DW_AT_TI_end_column(0x01)
    3311                      .dwendentry
    3312                      .dwendtag $C$DW$60
    3313              
    3314 00000258               .sect   ".text:retain"
    3315                      .retain
    3316                      .retainrefs
    3317                      .global _DMA_CH1_ISR
    3318              
    3319              $C$DW$61        .dwtag  DW_TAG_subprogram, DW_AT_name("DMA_CH1_ISR")
    3320                      .dwattr $C$DW$61, DW_AT_low_pc(_DMA_CH1_ISR)
    3321                      .dwattr $C$DW$61, DW_AT_high_pc(0x00)
    3322                      .dwattr $C$DW$61, DW_AT_TI_symbol_name("_DMA_CH1_ISR")
    3323                      .dwattr $C$DW$61, DW_AT_external
    3324                      .dwattr $C$DW$61, DW_AT_TI_begin_file("C:/ti/controlSUITE/device_support/F2837xS/v170/F2837xS_common/
    3325                      .dwattr $C$DW$61, DW_AT_TI_begin_line(0x34b)
    3326                      .dwattr $C$DW$61, DW_AT_TI_begin_column(0x10)
    3327                      .dwattr $C$DW$61, DW_AT_TI_interrupt
    3328                      .dwattr $C$DW$61, DW_AT_TI_max_frame_size(-6)
    3329                      .dwpsn  file "C:/ti/controlSUITE/device_support/F2837xS/v170/F2837xS_common/source/F2837xS_DefaultISR
    3330              
    3331                      .dwfde $C$DW$CIE, _DMA_CH1_ISR
    3332              
    3333              ;***************************************************************
    3334              ;* FNAME: _DMA_CH1_ISR                  FR SIZE:   4           *
    3335              ;*                                                             *
    3336              ;* FUNCTION ENVIRONMENT                                        *
    3337              ;*                                                             *
    3338              ;* FUNCTION PROPERTIES                                         *
    3339              ;*                            0 Parameter,  0 Auto,  4 SOE     *
    3340              ;***************************************************************
    3341              
    3342 00000258       _DMA_CH1_ISR:
    3343                      .dwcfi  cfa_offset, -2
    3344                      .dwcfi  save_reg_to_mem, 26, 0
    3345 00000258 761B          ASP       ; [CPU_] 
TMS320C2000 Assembler PC v6.4.2 Thu Dec 14 15:26:09 2017

Tools Copyright (c) 1996-2015 Texas Instruments Incorporated
F2837xS_DefaultISR.asm                                               PAGE   64

    3346 00000259 FFF0          PUSH      RB                    ; [CPU_] 
    3347                      .dwcfi  save_reg_to_mem, 73, 2
    3348                      .dwcfi  save_reg_to_mem, 74, 3
    3349                      .dwcfi  cfa_offset, -4
    3350 0000025a E200          MOV32     *SP++,STF             ; [CPU_] 
         0000025b 00BD 
    3351                      .dwcfi  save_reg_to_mem, 39, 4
    3352                      .dwcfi  save_reg_to_mem, 40, 5
    3353                      .dwcfi  cfa_offset, -6
    3354 0000025c E630          SETFLG    RNDF32=1, RNDF64=1    ; [CPU_] 
         0000025d 0600 
    3355 0000025e 2942          CLRC      PAGE0,OVM             ; [CPU_] 
    3356 0000025f 5616          CLRC      AMODE                 ; [CPU_] 
    3357                      .dwpsn  file "C:/ti/controlSUITE/device_support/F2837xS/v170/F2837xS_common/source/F2837xS_DefaultISR
    3358 00000260 7625        ESTOP0
    3359 00000261       $C$L61:    
    3360                      .dwpsn  file "C:/ti/controlSUITE/device_support/F2837xS/v170/F2837xS_common/source/F2837xS_DefaultISR
    3361 00000261 6F00          B         $C$L61,UNC            ; [CPU_] |854| 
    3362                      ; branch occurs ; [] |854| 
    3363                      .dwattr $C$DW$61, DW_AT_TI_end_file("C:/ti/controlSUITE/device_support/F2837xS/v170/F2837xS_common/so
    3364                      .dwattr $C$DW$61, DW_AT_TI_end_line(0x357)
    3365                      .dwattr $C$DW$61, DW_AT_TI_end_column(0x01)
    3366                      .dwendentry
    3367                      .dwendtag $C$DW$61
    3368              
    3369 00000262               .sect   ".text:retain"
    3370                      .retain
    3371                      .retainrefs
    3372                      .global _DMA_CH2_ISR
    3373              
    3374              $C$DW$62        .dwtag  DW_TAG_subprogram, DW_AT_name("DMA_CH2_ISR")
    3375                      .dwattr $C$DW$62, DW_AT_low_pc(_DMA_CH2_ISR)
    3376                      .dwattr $C$DW$62, DW_AT_high_pc(0x00)
    3377                      .dwattr $C$DW$62, DW_AT_TI_symbol_name("_DMA_CH2_ISR")
    3378                      .dwattr $C$DW$62, DW_AT_external
    3379                      .dwattr $C$DW$62, DW_AT_TI_begin_file("C:/ti/controlSUITE/device_support/F2837xS/v170/F2837xS_common/
    3380                      .dwattr $C$DW$62, DW_AT_TI_begin_line(0x35a)
    3381                      .dwattr $C$DW$62, DW_AT_TI_begin_column(0x10)
    3382                      .dwattr $C$DW$62, DW_AT_TI_interrupt
    3383                      .dwattr $C$DW$62, DW_AT_TI_max_frame_size(-6)
    3384                      .dwpsn  file "C:/ti/controlSUITE/device_support/F2837xS/v170/F2837xS_common/source/F2837xS_DefaultISR
    3385              
    3386                      .dwfde $C$DW$CIE, _DMA_CH2_ISR
    3387              
    3388              ;***************************************************************
    3389              ;* FNAME: _DMA_CH2_ISR                  FR SIZE:   4           *
    3390              ;*                                                             *
    3391              ;* FUNCTION ENVIRONMENT                                        *
    3392              ;*                                                             *
    3393              ;* FUNCTION PROPERTIES                                         *
    3394              ;*                            0 Parameter,  0 Auto,  4 SOE     *
    3395              ;***************************************************************
    3396              
    3397 00000262       _DMA_CH2_ISR:
    3398                      .dwcfi  cfa_offset, -2
TMS320C2000 Assembler PC v6.4.2 Thu Dec 14 15:26:09 2017

Tools Copyright (c) 1996-2015 Texas Instruments Incorporated
F2837xS_DefaultISR.asm                                               PAGE   65

    3399                      .dwcfi  save_reg_to_mem, 26, 0
    3400 00000262 761B          ASP       ; [CPU_] 
    3401 00000263 FFF0          PUSH      RB                    ; [CPU_] 
    3402                      .dwcfi  save_reg_to_mem, 73, 2
    3403                      .dwcfi  save_reg_to_mem, 74, 3
    3404                      .dwcfi  cfa_offset, -4
    3405 00000264 E200          MOV32     *SP++,STF             ; [CPU_] 
         00000265 00BD 
    3406                      .dwcfi  save_reg_to_mem, 39, 4
    3407                      .dwcfi  save_reg_to_mem, 40, 5
    3408                      .dwcfi  cfa_offset, -6
    3409 00000266 E630          SETFLG    RNDF32=1, RNDF64=1    ; [CPU_] 
         00000267 0600 
    3410 00000268 2942          CLRC      PAGE0,OVM             ; [CPU_] 
    3411 00000269 5616          CLRC      AMODE                 ; [CPU_] 
    3412                      .dwpsn  file "C:/ti/controlSUITE/device_support/F2837xS/v170/F2837xS_common/source/F2837xS_DefaultISR
    3413 0000026a 7625        ESTOP0
    3414 0000026b       $C$L62:    
    3415                      .dwpsn  file "C:/ti/controlSUITE/device_support/F2837xS/v170/F2837xS_common/source/F2837xS_DefaultISR
    3416 0000026b 6F00          B         $C$L62,UNC            ; [CPU_] |869| 
    3417                      ; branch occurs ; [] |869| 
    3418                      .dwattr $C$DW$62, DW_AT_TI_end_file("C:/ti/controlSUITE/device_support/F2837xS/v170/F2837xS_common/so
    3419                      .dwattr $C$DW$62, DW_AT_TI_end_line(0x366)
    3420                      .dwattr $C$DW$62, DW_AT_TI_end_column(0x01)
