TMS320C2000 Assembler PC v6.4.2 Thu Dec 14 15:26:44 2017

Tools Copyright (c) 1996-2015 Texas Instruments Incorporated
F2837xS_SysCtrl.asm                                                  PAGE    1

       1              ;***************************************************************
       2              ;* TMS320C2000 C/C++ Codegen                         PC v6.4.2 *
       3              ;* Date/Time created: Thu Dec 14 15:26:43 2017                 *
       4              ;***************************************************************
       5                      .compiler_opts --cla_support=cla0 --float_support=fpu32 --hll_source=on --mem_model:code=flat --mem_m
       6        0002  FP      .set    XAR2
       7              
       8              $C$DW$CU        .dwtag  DW_TAG_compile_unit
       9                      .dwattr $C$DW$CU, DW_AT_name("C:/ti/controlSUITE/device_support/F2837xS/v170/F2837xS_common/source/F2
      10                      .dwattr $C$DW$CU, DW_AT_producer("TI TMS320C2000 C/C++ Codegen PC v6.4.2 Copyright (c) 1996-2015 Texa
      11                      .dwattr $C$DW$CU, DW_AT_TI_version(0x01)
      12                      .dwattr $C$DW$CU, DW_AT_comp_dir("U:\02_MSE\MT\07_Software\CCS_workspace\DiffDrive_v0.93\F2837x_FLASH
      13              
      14              $C$DW$1 .dwtag  DW_TAG_subprogram, DW_AT_name("F28x_usDelay")
      15                      .dwattr $C$DW$1, DW_AT_TI_symbol_name("_F28x_usDelay")
      16                      .dwattr $C$DW$1, DW_AT_declaration
      17                      .dwattr $C$DW$1, DW_AT_external
      18              $C$DW$2 .dwtag  DW_TAG_formal_parameter
      19                      .dwattr $C$DW$2, DW_AT_type(*$C$DW$T$12)
      20                      .dwendtag $C$DW$1
      21              
      22              
      23              $C$DW$3 .dwtag  DW_TAG_subprogram, DW_AT_name("GPIO_EnableUnbondedIOPullups")
      24                      .dwattr $C$DW$3, DW_AT_TI_symbol_name("_GPIO_EnableUnbondedIOPullups")
      25                      .dwattr $C$DW$3, DW_AT_declaration
      26                      .dwattr $C$DW$3, DW_AT_external
      27              $C$DW$4 .dwtag  DW_TAG_variable, DW_AT_name("RamfuncsRunStart")
      28                      .dwattr $C$DW$4, DW_AT_TI_symbol_name("_RamfuncsRunStart")
      29                      .dwattr $C$DW$4, DW_AT_type(*$C$DW$T$19)
      30                      .dwattr $C$DW$4, DW_AT_declaration
      31                      .dwattr $C$DW$4, DW_AT_external
      32              $C$DW$5 .dwtag  DW_TAG_variable, DW_AT_name("RamfuncsLoadStart")
      33                      .dwattr $C$DW$5, DW_AT_TI_symbol_name("_RamfuncsLoadStart")
      34                      .dwattr $C$DW$5, DW_AT_type(*$C$DW$T$19)
      35                      .dwattr $C$DW$5, DW_AT_declaration
      36                      .dwattr $C$DW$5, DW_AT_external
      37              $C$DW$6 .dwtag  DW_TAG_variable, DW_AT_name("RamfuncsLoadSize")
      38                      .dwattr $C$DW$6, DW_AT_TI_symbol_name("_RamfuncsLoadSize")
      39                      .dwattr $C$DW$6, DW_AT_type(*$C$DW$T$19)
      40                      .dwattr $C$DW$6, DW_AT_declaration
      41                      .dwattr $C$DW$6, DW_AT_external
      42              
      43              $C$DW$7 .dwtag  DW_TAG_subprogram, DW_AT_name("memcpy")
      44                      .dwattr $C$DW$7, DW_AT_TI_symbol_name("_memcpy")
      45                      .dwattr $C$DW$7, DW_AT_type(*$C$DW$T$3)
      46                      .dwattr $C$DW$7, DW_AT_declaration
      47                      .dwattr $C$DW$7, DW_AT_external
      48              $C$DW$8 .dwtag  DW_TAG_formal_parameter
      49                      .dwattr $C$DW$8, DW_AT_type(*$C$DW$T$3)
      50              $C$DW$9 .dwtag  DW_TAG_formal_parameter
      51                      .dwattr $C$DW$9, DW_AT_type(*$C$DW$T$302)
      52              $C$DW$10        .dwtag  DW_TAG_formal_parameter
      53                      .dwattr $C$DW$10, DW_AT_type(*$C$DW$T$13)
      54                      .dwendtag $C$DW$7
      55              
TMS320C2000 Assembler PC v6.4.2 Thu Dec 14 15:26:44 2017

Tools Copyright (c) 1996-2015 Texas Instruments Incorporated
F2837xS_SysCtrl.asm                                                  PAGE    2

      56              $C$DW$11        .dwtag  DW_TAG_variable, DW_AT_name("DcsmZ1Regs")
      57                      .dwattr $C$DW$11, DW_AT_TI_symbol_name("_DcsmZ1Regs")
      58                      .dwattr $C$DW$11, DW_AT_type(*$C$DW$T$243)
      59                      .dwattr $C$DW$11, DW_AT_declaration
      60                      .dwattr $C$DW$11, DW_AT_external
      61              $C$DW$12        .dwtag  DW_TAG_variable, DW_AT_name("DcsmZ2Regs")
      62                      .dwattr $C$DW$12, DW_AT_TI_symbol_name("_DcsmZ2Regs")
      63                      .dwattr $C$DW$12, DW_AT_type(*$C$DW$T$244)
      64                      .dwattr $C$DW$12, DW_AT_declaration
      65                      .dwattr $C$DW$12, DW_AT_external
      66              $C$DW$13        .dwtag  DW_TAG_variable, DW_AT_name("Flash0EccRegs")
      67                      .dwattr $C$DW$13, DW_AT_TI_symbol_name("_Flash0EccRegs")
      68                      .dwattr $C$DW$13, DW_AT_type(*$C$DW$T$250)
      69                      .dwattr $C$DW$13, DW_AT_declaration
      70                      .dwattr $C$DW$13, DW_AT_external
      71              $C$DW$14        .dwtag  DW_TAG_variable, DW_AT_name("Flash1EccRegs")
      72                      .dwattr $C$DW$14, DW_AT_TI_symbol_name("_Flash1EccRegs")
      73                      .dwattr $C$DW$14, DW_AT_type(*$C$DW$T$250)
      74                      .dwattr $C$DW$14, DW_AT_declaration
      75                      .dwattr $C$DW$14, DW_AT_external
      76              $C$DW$15        .dwtag  DW_TAG_variable, DW_AT_name("WdRegs")
      77                      .dwattr $C$DW$15, DW_AT_TI_symbol_name("_WdRegs")
      78                      .dwattr $C$DW$15, DW_AT_type(*$C$DW$T$300)
      79                      .dwattr $C$DW$15, DW_AT_declaration
      80                      .dwattr $C$DW$15, DW_AT_external
      81              $C$DW$16        .dwtag  DW_TAG_variable, DW_AT_name("ClkCfgRegs")
      82                      .dwattr $C$DW$16, DW_AT_TI_symbol_name("_ClkCfgRegs")
      83                      .dwattr $C$DW$16, DW_AT_type(*$C$DW$T$241)
      84                      .dwattr $C$DW$16, DW_AT_declaration
      85                      .dwattr $C$DW$16, DW_AT_external
      86              $C$DW$17        .dwtag  DW_TAG_variable, DW_AT_name("AnalogSubsysRegs")
      87                      .dwattr $C$DW$17, DW_AT_TI_symbol_name("_AnalogSubsysRegs")
      88                      .dwattr $C$DW$17, DW_AT_type(*$C$DW$T$224)
      89                      .dwattr $C$DW$17, DW_AT_declaration
      90                      .dwattr $C$DW$17, DW_AT_external
      91              $C$DW$18        .dwtag  DW_TAG_variable, DW_AT_name("CpuSysRegs")
      92                      .dwattr $C$DW$18, DW_AT_TI_symbol_name("_CpuSysRegs")
      93                      .dwattr $C$DW$18, DW_AT_type(*$C$DW$T$242)
      94                      .dwattr $C$DW$18, DW_AT_declaration
      95                      .dwattr $C$DW$18, DW_AT_external
      96              $C$DW$19        .dwtag  DW_TAG_variable, DW_AT_name("Flash1CtrlRegs")
      97                      .dwattr $C$DW$19, DW_AT_TI_symbol_name("_Flash1CtrlRegs")
      98                      .dwattr $C$DW$19, DW_AT_type(*$C$DW$T$249)
      99                      .dwattr $C$DW$19, DW_AT_declaration
     100                      .dwattr $C$DW$19, DW_AT_external
     101              $C$DW$20        .dwtag  DW_TAG_variable, DW_AT_name("Flash0CtrlRegs")
     102                      .dwattr $C$DW$20, DW_AT_TI_symbol_name("_Flash0CtrlRegs")
     103                      .dwattr $C$DW$20, DW_AT_type(*$C$DW$T$249)
     104                      .dwattr $C$DW$20, DW_AT_declaration
     105                      .dwattr $C$DW$20, DW_AT_external
     106              ;       C:\ti\ccsv6\tools\compiler\ti-cgt-c2000_6.4.2\bin\ac2000.exe -@C:\\Users\\ficm\\AppData\\Local\\Temp\
     107 00000000               .sect   ".text"
     108                      .clink
     109                      .global _InitSysCtrl
     110              
TMS320C2000 Assembler PC v6.4.2 Thu Dec 14 15:26:44 2017

Tools Copyright (c) 1996-2015 Texas Instruments Incorporated
F2837xS_SysCtrl.asm                                                  PAGE    3

     111              $C$DW$21        .dwtag  DW_TAG_subprogram, DW_AT_name("InitSysCtrl")
     112                      .dwattr $C$DW$21, DW_AT_low_pc(_InitSysCtrl)
     113                      .dwattr $C$DW$21, DW_AT_high_pc(0x00)
     114                      .dwattr $C$DW$21, DW_AT_TI_symbol_name("_InitSysCtrl")
     115                      .dwattr $C$DW$21, DW_AT_external
     116                      .dwattr $C$DW$21, DW_AT_TI_begin_file("C:/ti/controlSUITE/device_support/F2837xS/v170/F2837xS_common/
     117                      .dwattr $C$DW$21, DW_AT_TI_begin_line(0x21)
     118                      .dwattr $C$DW$21, DW_AT_TI_begin_column(0x06)
     119                      .dwattr $C$DW$21, DW_AT_TI_max_frame_size(-2)
     120                      .dwpsn  file "C:/ti/controlSUITE/device_support/F2837xS/v170/F2837xS_common/source/F2837xS_SysCtrl.c"
     121              
     122                      .dwfde $C$DW$CIE, _InitSysCtrl
     123              
     124              ;***************************************************************
     125              ;* FNAME: _InitSysCtrl                  FR SIZE:   0           *
     126              ;*                                                             *
     127              ;* FUNCTION ENVIRONMENT                                        *
     128              ;*                                                             *
     129              ;* FUNCTION PROPERTIES                                         *
     130              ;*                            0 Parameter,  0 Auto,  0 SOE     *
     131              ;***************************************************************
     132              
     133 00000000       _InitSysCtrl:
     134                      .dwcfi  cfa_offset, -2
     135                      .dwcfi  save_reg_to_mem, 26, 0
     136                      .dwpsn  file "C:/ti/controlSUITE/device_support/F2837xS/v170/F2837xS_common/source/F2837xS_SysCtrl.c"
     137              $C$DW$22        .dwtag  DW_TAG_TI_branch
     138                      .dwattr $C$DW$22, DW_AT_low_pc(0x00)
     139                      .dwattr $C$DW$22, DW_AT_name("_DisableDog")
     140                      .dwattr $C$DW$22, DW_AT_TI_call
     141 00000000 7640'         LCR       #_DisableDog          ; [CPU_] |36| 
         00000001 00E7 
     142                      ; call occurs [#_DisableDog] ; [] |36| 
     143                      .dwpsn  file "C:/ti/controlSUITE/device_support/F2837xS/v170/F2837xS_common/source/F2837xS_SysCtrl.c"
     144 00000002 8F00!         MOVL      XAR4,#_RamfuncsRunStart ; [CPU_U] |43| 
         00000003 0000 
     145 00000004 8F40!         MOVL      XAR5,#_RamfuncsLoadStart ; [CPU_U] |43| 
         00000005 0000 
     146 00000006 28A9!         MOV       AL,#_RamfuncsLoadSize+0 ; [CPU_] |43| 
         00000007 0000 
     147 00000008 28A8%         MOV       AH,#_RamfuncsLoadSize+0 >> 16 ; [CPU_] |43| 
         00000009 0000 
     148              $C$DW$23        .dwtag  DW_TAG_TI_branch
     149                      .dwattr $C$DW$23, DW_AT_low_pc(0x00)
     150                      .dwattr $C$DW$23, DW_AT_name("_memcpy")
     151                      .dwattr $C$DW$23, DW_AT_TI_call
     152 0000000a 7640!         LCR       #_memcpy              ; [CPU_] |43| 
         0000000b 0000 
     153                      ; call occurs [#_memcpy] ; [] |43| 
     154                      .dwpsn  file "C:/ti/controlSUITE/device_support/F2837xS/v170/F2837xS_common/source/F2837xS_SysCtrl.c"
     155              $C$DW$24        .dwtag  DW_TAG_TI_branch
     156                      .dwattr $C$DW$24, DW_AT_low_pc(0x00)
     157                      .dwattr $C$DW$24, DW_AT_name("_InitFlash_Bank0")
     158                      .dwattr $C$DW$24, DW_AT_TI_call
     159 0000000c 7640+         LCR       #_InitFlash_Bank0     ; [CPU_] |47| 
TMS320C2000 Assembler PC v6.4.2 Thu Dec 14 15:26:44 2017

Tools Copyright (c) 1996-2015 Texas Instruments Incorporated
F2837xS_SysCtrl.asm                                                  PAGE    4

         0000000d 0000 
     160                      ; call occurs [#_InitFlash_Bank0] ; [] |47| 
     161                      .dwpsn  file "C:/ti/controlSUITE/device_support/F2837xS/v170/F2837xS_common/source/F2837xS_SysCtrl.c"
     162 0000000e 7622   EALLOW
     163                      .dwpsn  file "C:/ti/controlSUITE/device_support/F2837xS/v170/F2837xS_common/source/F2837xS_SysCtrl.c"
     164 0000000f FF69          SPM       #0                    ; [CPU_] 
     165              $C$DW$25        .dwtag  DW_TAG_TI_branch
     166                      .dwattr $C$DW$25, DW_AT_low_pc(0x00)
     167                      .dwattr $C$DW$25, DW_AT_name("_GPIO_EnableUnbondedIOPullups")
     168                      .dwattr $C$DW$25, DW_AT_TI_call
     169 00000010 7640!         LCR       #_GPIO_EnableUnbondedIOPullups ; [CPU_] |63| 
         00000011 0000 
     170                      ; call occurs [#_GPIO_EnableUnbondedIOPullups] ; [] |63| 
     171                      .dwpsn  file "C:/ti/controlSUITE/device_support/F2837xS/v170/F2837xS_common/source/F2837xS_SysCtrl.c"
     172 00000012 761F!         MOVW      DP,#_CpuSysRegs+60    ; [CPU_U] 
         00000013 0000 
     173 00000014 1A3C!         OR        @_CpuSysRegs+60,#0x0001 ; [CPU_] |65| 
         00000015 0001 
     174                      .dwpsn  file "C:/ti/controlSUITE/device_support/F2837xS/v170/F2837xS_common/source/F2837xS_SysCtrl.c"
     175 00000016 1A3C!         OR        @_CpuSysRegs+60,#0x0002 ; [CPU_] |66| 
         00000017 0002 
     176                      .dwpsn  file "C:/ti/controlSUITE/device_support/F2837xS/v170/F2837xS_common/source/F2837xS_SysCtrl.c"
     177 00000018 1A3C!         OR        @_CpuSysRegs+60,#0x0004 ; [CPU_] |67| 
         00000019 0004 
     178                      .dwpsn  file "C:/ti/controlSUITE/device_support/F2837xS/v170/F2837xS_common/source/F2837xS_SysCtrl.c"
     179 0000001a 1A3C!         OR        @_CpuSysRegs+60,#0x0008 ; [CPU_] |68| 
         0000001b 0008 
     180                      .dwpsn  file "C:/ti/controlSUITE/device_support/F2837xS/v170/F2837xS_common/source/F2837xS_SysCtrl.c"
     181 0000001c 8F05          MOVL      XAR4,#381366          ; [CPU_U] |71| 
         0000001d D1B6 
     182 0000001e 92C4          MOV       AL,*+XAR4[0]          ; [CPU_] |71| 
     183 0000001f ED09          BF        $C$L1,NEQ             ; [CPU_] |71| 
     184                      ; branchcc occurs ; [] |71| 
     185                      .dwpsn  file "C:/ti/controlSUITE/device_support/F2837xS/v170/F2837xS_common/source/F2837xS_SysCtrl.c"
     186 00000020 8F00          MOVL      XAR4,#31709           ; [CPU_U] |73| 
         00000021 7BDD 
     187 00000022 761F!         MOVW      DP,#_AnalogSubsysRegs+54 ; [CPU_U] 
         00000023 0000 
     188 00000024 A836!         MOVL      @_AnalogSubsysRegs+54,XAR4 ; [CPU_] |73| 
     189                      .dwpsn  file "C:/ti/controlSUITE/device_support/F2837xS/v170/F2837xS_common/source/F2837xS_SysCtrl.c"
     190 00000025 A838!         MOVL      @_AnalogSubsysRegs+56,XAR4 ; [CPU_] |74| 
     191                      .dwpsn  file "C:/ti/controlSUITE/device_support/F2837xS/v170/F2837xS_common/source/F2837xS_SysCtrl.c"
     192 00000026 A83A!         MOVL      @_AnalogSubsysRegs+58,XAR4 ; [CPU_] |75| 
     193                      .dwpsn  file "C:/ti/controlSUITE/device_support/F2837xS/v170/F2837xS_common/source/F2837xS_SysCtrl.c"
     194 00000027 A83C!         MOVL      @_AnalogSubsysRegs+60,XAR4 ; [CPU_] |76| 
     195 00000028       $C$L1:    
     196                      .dwpsn  file "C:/ti/controlSUITE/device_support/F2837xS/v170/F2837xS_common/source/F2837xS_SysCtrl.c"
     197 00000028 761F!         MOVW      DP,#_CpuSysRegs+60    ; [CPU_U] 
         00000029 0000 
     198 0000002a 183C!         AND       @_CpuSysRegs+60,#0xfffe ; [CPU_] |79| 
         0000002b FFFE 
     199                      .dwpsn  file "C:/ti/controlSUITE/device_support/F2837xS/v170/F2837xS_common/source/F2837xS_SysCtrl.c"
     200 0000002c 183C!         AND       @_CpuSysRegs+60,#0xfffd ; [CPU_] |80| 
         0000002d FFFD 
     201                      .dwpsn  file "C:/ti/controlSUITE/device_support/F2837xS/v170/F2837xS_common/source/F2837xS_SysCtrl.c"
TMS320C2000 Assembler PC v6.4.2 Thu Dec 14 15:26:44 2017

Tools Copyright (c) 1996-2015 Texas Instruments Incorporated
F2837xS_SysCtrl.asm                                                  PAGE    5

     202 0000002e 183C!         AND       @_CpuSysRegs+60,#0xfffb ; [CPU_] |81| 
         0000002f FFFB 
     203                      .dwpsn  file "C:/ti/controlSUITE/device_support/F2837xS/v170/F2837xS_common/source/F2837xS_SysCtrl.c"
     204 00000030 183C!         AND       @_CpuSysRegs+60,#0xfff7 ; [CPU_] |82| 
         00000031 FFF7 
     205                      .dwpsn  file "C:/ti/controlSUITE/device_support/F2837xS/v170/F2837xS_common/source/F2837xS_SysCtrl.c"
     206 00000032 761A   EDIS
     207                      .dwpsn  file "C:/ti/controlSUITE/device_support/F2837xS/v170/F2837xS_common/source/F2837xS_SysCtrl.c"
     208 00000033 9A01          MOVB      AL,#1                 ; [CPU_] |89| 
     209 00000034 D501          MOVB      XAR5,#1               ; [CPU_] |89| 
     210 00000035 9B14          MOVB      AH,#20                ; [CPU_] |89| 
     211 00000036 D400          MOVB      XAR4,#0               ; [CPU_] |89| 
     212 00000037 FF69          SPM       #0                    ; [CPU_] 
     213              $C$DW$26        .dwtag  DW_TAG_TI_branch
     214                      .dwattr $C$DW$26, DW_AT_low_pc(0x00)
     215                      .dwattr $C$DW$26, DW_AT_name("_InitSysPll")
     216                      .dwattr $C$DW$26, DW_AT_TI_call
     217 00000038 7640'         LCR       #_InitSysPll          ; [CPU_] |89| 
         00000039 00F5 
     218                      ; call occurs [#_InitSysPll] ; [] |89| 
     219                      .dwpsn  file "C:/ti/controlSUITE/device_support/F2837xS/v170/F2837xS_common/source/F2837xS_SysCtrl.c"
     220              $C$DW$27        .dwtag  DW_TAG_TI_branch
     221                      .dwattr $C$DW$27, DW_AT_low_pc(0x00)
     222                      .dwattr $C$DW$27, DW_AT_name("_InitPeripheralClocks")
     223                      .dwattr $C$DW$27, DW_AT_TI_call
     224 0000003a 7640'         LCR       #_InitPeripheralClocks ; [CPU_] |92| 
         0000003b 003D 
     225                      ; call occurs [#_InitPeripheralClocks] ; [] |92| 
     226                      .dwpsn  file "C:/ti/controlSUITE/device_support/F2837xS/v170/F2837xS_common/source/F2837xS_SysCtrl.c"
     227              $C$DW$28        .dwtag  DW_TAG_TI_branch
     228                      .dwattr $C$DW$28, DW_AT_low_pc(0x00)
     229                      .dwattr $C$DW$28, DW_AT_TI_return
     230 0000003c 0006          LRETR     ; [CPU_] 
     231                      ; return occurs ; [] 
     232                      .dwattr $C$DW$21, DW_AT_TI_end_file("C:/ti/controlSUITE/device_support/F2837xS/v170/F2837xS_common/so
     233                      .dwattr $C$DW$21, DW_AT_TI_end_line(0x5e)
     234                      .dwattr $C$DW$21, DW_AT_TI_end_column(0x01)
     235                      .dwendentry
     236                      .dwendtag $C$DW$21
     237              
     238 0000003d               .sect   ".text"
     239                      .clink
     240                      .global _InitPeripheralClocks
     241              
     242              $C$DW$29        .dwtag  DW_TAG_subprogram, DW_AT_name("InitPeripheralClocks")
     243                      .dwattr $C$DW$29, DW_AT_low_pc(_InitPeripheralClocks)
     244                      .dwattr $C$DW$29, DW_AT_high_pc(0x00)
     245                      .dwattr $C$DW$29, DW_AT_TI_symbol_name("_InitPeripheralClocks")
     246                      .dwattr $C$DW$29, DW_AT_external
     247                      .dwattr $C$DW$29, DW_AT_TI_begin_file("C:/ti/controlSUITE/device_support/F2837xS/v170/F2837xS_common/
     248                      .dwattr $C$DW$29, DW_AT_TI_begin_line(0x68)
     249                      .dwattr $C$DW$29, DW_AT_TI_begin_column(0x06)
     250                      .dwattr $C$DW$29, DW_AT_TI_max_frame_size(-2)
     251                      .dwpsn  file "C:/ti/controlSUITE/device_support/F2837xS/v170/F2837xS_common/source/F2837xS_SysCtrl.c"
     252              
TMS320C2000 Assembler PC v6.4.2 Thu Dec 14 15:26:44 2017

Tools Copyright (c) 1996-2015 Texas Instruments Incorporated
F2837xS_SysCtrl.asm                                                  PAGE    6

     253                      .dwfde $C$DW$CIE, _InitPeripheralClocks
     254              
     255              ;***************************************************************
     256              ;* FNAME: _InitPeripheralClocks         FR SIZE:   0           *
     257              ;*                                                             *
     258              ;* FUNCTION ENVIRONMENT                                        *
     259              ;*                                                             *
     260              ;* FUNCTION PROPERTIES                                         *
     261              ;*                            0 Parameter,  0 Auto,  0 SOE     *
     262              ;***************************************************************
     263              
     264 0000003d       _InitPeripheralClocks:
     265                      .dwcfi  cfa_offset, -2
     266                      .dwcfi  save_reg_to_mem, 26, 0
     267                      .dwpsn  file "C:/ti/controlSUITE/device_support/F2837xS/v170/F2837xS_common/source/F2837xS_SysCtrl.c"
     268 0000003d 7622   EALLOW
     269                      .dwpsn  file "C:/ti/controlSUITE/device_support/F2837xS/v170/F2837xS_common/source/F2837xS_SysCtrl.c"
     270 0000003e 761F!         MOVW      DP,#_CpuSysRegs+34    ; [CPU_U] 
         0000003f 0000 
     271 00000040 1A22!         OR        @_CpuSysRegs+34,#0x0001 ; [CPU_] |108| 
         00000041 0001 
     272                      .dwpsn  file "C:/ti/controlSUITE/device_support/F2837xS/v170/F2837xS_common/source/F2837xS_SysCtrl.c"
     273 00000042 1A22!         OR        @_CpuSysRegs+34,#0x0004 ; [CPU_] |109| 
         00000043 0004 
     274                      .dwpsn  file "C:/ti/controlSUITE/device_support/F2837xS/v170/F2837xS_common/source/F2837xS_SysCtrl.c"
     275 00000044 1A22!         OR        @_CpuSysRegs+34,#0x0008 ; [CPU_] |110| 
         00000045 0008 
     276                      .dwpsn  file "C:/ti/controlSUITE/device_support/F2837xS/v170/F2837xS_common/source/F2837xS_SysCtrl.c"
     277 00000046 1A22!         OR        @_CpuSysRegs+34,#0x0010 ; [CPU_] |111| 
         00000047 0010 
     278                      .dwpsn  file "C:/ti/controlSUITE/device_support/F2837xS/v170/F2837xS_common/source/F2837xS_SysCtrl.c"
     279 00000048 1A22!         OR        @_CpuSysRegs+34,#0x0020 ; [CPU_] |112| 
         00000049 0020 
     280                      .dwpsn  file "C:/ti/controlSUITE/device_support/F2837xS/v170/F2837xS_common/source/F2837xS_SysCtrl.c"
     281 0000004a 1A23!         OR        @_CpuSysRegs+35,#0x0001 ; [CPU_] |113| 
         0000004b 0001 
     282                      .dwpsn  file "C:/ti/controlSUITE/device_support/F2837xS/v170/F2837xS_common/source/F2837xS_SysCtrl.c"
     283 0000004c 1A23!         OR        @_CpuSysRegs+35,#0x0004 ; [CPU_] |114| 
         0000004d 0004 
     284                      .dwpsn  file "C:/ti/controlSUITE/device_support/F2837xS/v170/F2837xS_common/source/F2837xS_SysCtrl.c"
     285 0000004e 1A24!         OR        @_CpuSysRegs+36,#0x0001 ; [CPU_] |116| 
         0000004f 0001 
     286                      .dwpsn  file "C:/ti/controlSUITE/device_support/F2837xS/v170/F2837xS_common/source/F2837xS_SysCtrl.c"
     287 00000050 1A24!         OR        @_CpuSysRegs+36,#0x0002 ; [CPU_] |117| 
         00000051 0002 
     288                      .dwpsn  file "C:/ti/controlSUITE/device_support/F2837xS/v170/F2837xS_common/source/F2837xS_SysCtrl.c"
     289 00000052 1A26!         OR        @_CpuSysRegs+38,#0x0001 ; [CPU_] |119| 
         00000053 0001 
     290                      .dwpsn  file "C:/ti/controlSUITE/device_support/F2837xS/v170/F2837xS_common/source/F2837xS_SysCtrl.c"
     291 00000054 1A26!         OR        @_CpuSysRegs+38,#0x0002 ; [CPU_] |120| 
         00000055 0002 
     292                      .dwpsn  file "C:/ti/controlSUITE/device_support/F2837xS/v170/F2837xS_common/source/F2837xS_SysCtrl.c"
     293 00000056 1A26!         OR        @_CpuSysRegs+38,#0x0004 ; [CPU_] |121| 
         00000057 0004 
     294                      .dwpsn  file "C:/ti/controlSUITE/device_support/F2837xS/v170/F2837xS_common/source/F2837xS_SysCtrl.c"
TMS320C2000 Assembler PC v6.4.2 Thu Dec 14 15:26:44 2017

Tools Copyright (c) 1996-2015 Texas Instruments Incorporated
F2837xS_SysCtrl.asm                                                  PAGE    7

     295 00000058 1A26!         OR        @_CpuSysRegs+38,#0x0008 ; [CPU_] |122| 
         00000059 0008 
     296                      .dwpsn  file "C:/ti/controlSUITE/device_support/F2837xS/v170/F2837xS_common/source/F2837xS_SysCtrl.c"
     297 0000005a 1A26!         OR        @_CpuSysRegs+38,#0x0010 ; [CPU_] |123| 
         0000005b 0010 
     298                      .dwpsn  file "C:/ti/controlSUITE/device_support/F2837xS/v170/F2837xS_common/source/F2837xS_SysCtrl.c"
     299 0000005c 1A26!         OR        @_CpuSysRegs+38,#0x0020 ; [CPU_] |124| 
         0000005d 0020 
     300                      .dwpsn  file "C:/ti/controlSUITE/device_support/F2837xS/v170/F2837xS_common/source/F2837xS_SysCtrl.c"
     301 0000005e 1A26!         OR        @_CpuSysRegs+38,#0x0040 ; [CPU_] |125| 
         0000005f 0040 
     302                      .dwpsn  file "C:/ti/controlSUITE/device_support/F2837xS/v170/F2837xS_common/source/F2837xS_SysCtrl.c"
     303 00000060 1A26!         OR        @_CpuSysRegs+38,#0x0080 ; [CPU_] |126| 
         00000061 0080 
     304                      .dwpsn  file "C:/ti/controlSUITE/device_support/F2837xS/v170/F2837xS_common/source/F2837xS_SysCtrl.c"
     305 00000062 1A26!         OR        @_CpuSysRegs+38,#0x0100 ; [CPU_] |127| 
         00000063 0100 
     306                      .dwpsn  file "C:/ti/controlSUITE/device_support/F2837xS/v170/F2837xS_common/source/F2837xS_SysCtrl.c"
     307 00000064 1A26!         OR        @_CpuSysRegs+38,#0x0200 ; [CPU_] |128| 
         00000065 0200 
     308                      .dwpsn  file "C:/ti/controlSUITE/device_support/F2837xS/v170/F2837xS_common/source/F2837xS_SysCtrl.c"
     309 00000066 1A26!         OR        @_CpuSysRegs+38,#0x0400 ; [CPU_] |129| 
         00000067 0400 
     310                      .dwpsn  file "C:/ti/controlSUITE/device_support/F2837xS/v170/F2837xS_common/source/F2837xS_SysCtrl.c"
     311 00000068 1A26!         OR        @_CpuSysRegs+38,#0x0800 ; [CPU_] |130| 
         00000069 0800 
     312                      .dwpsn  file "C:/ti/controlSUITE/device_support/F2837xS/v170/F2837xS_common/source/F2837xS_SysCtrl.c"
     313 0000006a 1A28!         OR        @_CpuSysRegs+40,#0x0001 ; [CPU_] |132| 
         0000006b 0001 
     314                      .dwpsn  file "C:/ti/controlSUITE/device_support/F2837xS/v170/F2837xS_common/source/F2837xS_SysCtrl.c"
     315 0000006c 1A28!         OR        @_CpuSysRegs+40,#0x0002 ; [CPU_] |133| 
         0000006d 0002 
     316                      .dwpsn  file "C:/ti/controlSUITE/device_support/F2837xS/v170/F2837xS_common/source/F2837xS_SysCtrl.c"
     317 0000006e 1A28!         OR        @_CpuSysRegs+40,#0x0004 ; [CPU_] |134| 
         0000006f 0004 
     318                      .dwpsn  file "C:/ti/controlSUITE/device_support/F2837xS/v170/F2837xS_common/source/F2837xS_SysCtrl.c"
     319 00000070 1A28!         OR        @_CpuSysRegs+40,#0x0008 ; [CPU_] |135| 
         00000071 0008 
     320                      .dwpsn  file "C:/ti/controlSUITE/device_support/F2837xS/v170/F2837xS_common/source/F2837xS_SysCtrl.c"
     321 00000072 1A28!         OR        @_CpuSysRegs+40,#0x0010 ; [CPU_] |136| 
         00000073 0010 
     322                      .dwpsn  file "C:/ti/controlSUITE/device_support/F2837xS/v170/F2837xS_common/source/F2837xS_SysCtrl.c"
     323 00000074 1A28!         OR        @_CpuSysRegs+40,#0x0020 ; [CPU_] |137| 
         00000075 0020 
     324                      .dwpsn  file "C:/ti/controlSUITE/device_support/F2837xS/v170/F2837xS_common/source/F2837xS_SysCtrl.c"
     325 00000076 1A2A!         OR        @_CpuSysRegs+42,#0x0001 ; [CPU_] |139| 
         00000077 0001 
     326                      .dwpsn  file "C:/ti/controlSUITE/device_support/F2837xS/v170/F2837xS_common/source/F2837xS_SysCtrl.c"
     327 00000078 1A2A!         OR        @_CpuSysRegs+42,#0x0002 ; [CPU_] |140| 
         00000079 0002 
     328                      .dwpsn  file "C:/ti/controlSUITE/device_support/F2837xS/v170/F2837xS_common/source/F2837xS_SysCtrl.c"
     329 0000007a 1A2A!         OR        @_CpuSysRegs+42,#0x0004 ; [CPU_] |141| 
         0000007b 0004 
     330                      .dwpsn  file "C:/ti/controlSUITE/device_support/F2837xS/v170/F2837xS_common/source/F2837xS_SysCtrl.c"
     331 0000007c 1A2E!         OR        @_CpuSysRegs+46,#0x0001 ; [CPU_] |143| 
TMS320C2000 Assembler PC v6.4.2 Thu Dec 14 15:26:44 2017

Tools Copyright (c) 1996-2015 Texas Instruments Incorporated
F2837xS_SysCtrl.asm                                                  PAGE    8

         0000007d 0001 
     332                      .dwpsn  file "C:/ti/controlSUITE/device_support/F2837xS/v170/F2837xS_common/source/F2837xS_SysCtrl.c"
     333 0000007e 1A2E!         OR        @_CpuSysRegs+46,#0x0002 ; [CPU_] |144| 
         0000007f 0002 
     334                      .dwpsn  file "C:/ti/controlSUITE/device_support/F2837xS/v170/F2837xS_common/source/F2837xS_SysCtrl.c"
     335 00000080 1A30!         OR        @_CpuSysRegs+48,#0x0001 ; [CPU_] |146| 
         00000081 0001 
     336                      .dwpsn  file "C:/ti/controlSUITE/device_support/F2837xS/v170/F2837xS_common/source/F2837xS_SysCtrl.c"
     337 00000082 1A30!         OR        @_CpuSysRegs+48,#0x0002 ; [CPU_] |147| 
         00000083 0002 
     338                      .dwpsn  file "C:/ti/controlSUITE/device_support/F2837xS/v170/F2837xS_common/source/F2837xS_SysCtrl.c"
     339 00000084 1A30!         OR        @_CpuSysRegs+48,#0x0004 ; [CPU_] |148| 
         00000085 0004 
     340                      .dwpsn  file "C:/ti/controlSUITE/device_support/F2837xS/v170/F2837xS_common/source/F2837xS_SysCtrl.c"
     341 00000086 1A30!         OR        @_CpuSysRegs+48,#0x0008 ; [CPU_] |149| 
         00000087 0008 
     342                      .dwpsn  file "C:/ti/controlSUITE/device_support/F2837xS/v170/F2837xS_common/source/F2837xS_SysCtrl.c"
     343 00000088 1A32!         OR        @_CpuSysRegs+50,#0x0001 ; [CPU_] |151| 
         00000089 0001 
     344                      .dwpsn  file "C:/ti/controlSUITE/device_support/F2837xS/v170/F2837xS_common/source/F2837xS_SysCtrl.c"
     345 0000008a 1A32!         OR        @_CpuSysRegs+50,#0x0002 ; [CPU_] |152| 
         0000008b 0002 
     346                      .dwpsn  file "C:/ti/controlSUITE/device_support/F2837xS/v170/F2837xS_common/source/F2837xS_SysCtrl.c"
     347 0000008c 1A32!         OR        @_CpuSysRegs+50,#0x0004 ; [CPU_] |153| 
         0000008d 0004 
     348                      .dwpsn  file "C:/ti/controlSUITE/device_support/F2837xS/v170/F2837xS_common/source/F2837xS_SysCtrl.c"
     349 0000008e 1A34!         OR        @_CpuSysRegs+52,#0x0001 ; [CPU_] |155| 
         0000008f 0001 
     350                      .dwpsn  file "C:/ti/controlSUITE/device_support/F2837xS/v170/F2837xS_common/source/F2837xS_SysCtrl.c"
     351 00000090 1A34!         OR        @_CpuSysRegs+52,#0x0002 ; [CPU_] |156| 
         00000091 0002 
     352                      .dwpsn  file "C:/ti/controlSUITE/device_support/F2837xS/v170/F2837xS_common/source/F2837xS_SysCtrl.c"
     353 00000092 1A36!         OR        @_CpuSysRegs+54,#0x0001 ; [CPU_] |158| 
         00000093 0001 
     354                      .dwpsn  file "C:/ti/controlSUITE/device_support/F2837xS/v170/F2837xS_common/source/F2837xS_SysCtrl.c"
     355 00000094 1A36!         OR        @_CpuSysRegs+54,#0x0002 ; [CPU_] |159| 
         00000095 0002 
     356                      .dwpsn  file "C:/ti/controlSUITE/device_support/F2837xS/v170/F2837xS_common/source/F2837xS_SysCtrl.c"
     357 00000096 1A38!         OR        @_CpuSysRegs+56,#0x0001 ; [CPU_] |161| 
         00000097 0001 
     358                      .dwpsn  file "C:/ti/controlSUITE/device_support/F2837xS/v170/F2837xS_common/source/F2837xS_SysCtrl.c"
     359 00000098 1A38!         OR        @_CpuSysRegs+56,#0x0002 ; [CPU_] |162| 
         00000099 0002 
     360                      .dwpsn  file "C:/ti/controlSUITE/device_support/F2837xS/v170/F2837xS_common/source/F2837xS_SysCtrl.c"
     361 0000009a 1A39!         OR        @_CpuSysRegs+57,#0x0001 ; [CPU_] |163| 
         0000009b 0001 
     362                      .dwpsn  file "C:/ti/controlSUITE/device_support/F2837xS/v170/F2837xS_common/source/F2837xS_SysCtrl.c"
     363 0000009c 1A3A!         OR        @_CpuSysRegs+58,#0x0001 ; [CPU_] |165| 
         0000009d 0001 
     364                      .dwpsn  file "C:/ti/controlSUITE/device_support/F2837xS/v170/F2837xS_common/source/F2837xS_SysCtrl.c"
     365 0000009e 1A3C!         OR        @_CpuSysRegs+60,#0x0001 ; [CPU_] |167| 
         0000009f 0001 
     366                      .dwpsn  file "C:/ti/controlSUITE/device_support/F2837xS/v170/F2837xS_common/source/F2837xS_SysCtrl.c"
     367 000000a0 1A3C!         OR        @_CpuSysRegs+60,#0x0002 ; [CPU_] |168| 
         000000a1 0002 
TMS320C2000 Assembler PC v6.4.2 Thu Dec 14 15:26:44 2017

Tools Copyright (c) 1996-2015 Texas Instruments Incorporated
F2837xS_SysCtrl.asm                                                  PAGE    9

     368                      .dwpsn  file "C:/ti/controlSUITE/device_support/F2837xS/v170/F2837xS_common/source/F2837xS_SysCtrl.c"
     369 000000a2 1A3C!         OR        @_CpuSysRegs+60,#0x0004 ; [CPU_] |169| 
         000000a3 0004 
     370                      .dwpsn  file "C:/ti/controlSUITE/device_support/F2837xS/v170/F2837xS_common/source/F2837xS_SysCtrl.c"
     371 000000a4 1A3C!         OR        @_CpuSysRegs+60,#0x0008 ; [CPU_] |170| 
         000000a5 0008 
     372                      .dwpsn  file "C:/ti/controlSUITE/device_support/F2837xS/v170/F2837xS_common/source/F2837xS_SysCtrl.c"
     373 000000a6 1A3E!         OR        @_CpuSysRegs+62,#0x0001 ; [CPU_] |172| 
         000000a7 0001 
     374                      .dwpsn  file "C:/ti/controlSUITE/device_support/F2837xS/v170/F2837xS_common/source/F2837xS_SysCtrl.c"
     375 000000a8 1A3E!         OR        @_CpuSysRegs+62,#0x0002 ; [CPU_] |173| 
         000000a9 0002 
     376                      .dwpsn  file "C:/ti/controlSUITE/device_support/F2837xS/v170/F2837xS_common/source/F2837xS_SysCtrl.c"
     377 000000aa 1A3E!         OR        @_CpuSysRegs+62,#0x0004 ; [CPU_] |174| 
         000000ab 0004 
     378                      .dwpsn  file "C:/ti/controlSUITE/device_support/F2837xS/v170/F2837xS_common/source/F2837xS_SysCtrl.c"
     379 000000ac 1A3E!         OR        @_CpuSysRegs+62,#0x0008 ; [CPU_] |175| 
         000000ad 0008 
     380                      .dwpsn  file "C:/ti/controlSUITE/device_support/F2837xS/v170/F2837xS_common/source/F2837xS_SysCtrl.c"
     381 000000ae 1A3E!         OR        @_CpuSysRegs+62,#0x0010 ; [CPU_] |176| 
         000000af 0010 
     382                      .dwpsn  file "C:/ti/controlSUITE/device_support/F2837xS/v170/F2837xS_common/source/F2837xS_SysCtrl.c"
     383 000000b0 1A3E!         OR        @_CpuSysRegs+62,#0x0020 ; [CPU_] |177| 
         000000b1 0020 
     384                      .dwpsn  file "C:/ti/controlSUITE/device_support/F2837xS/v170/F2837xS_common/source/F2837xS_SysCtrl.c"
     385 000000b2 1A3E!         OR        @_CpuSysRegs+62,#0x0040 ; [CPU_] |178| 
         000000b3 0040 
     386                      .dwpsn  file "C:/ti/controlSUITE/device_support/F2837xS/v170/F2837xS_common/source/F2837xS_SysCtrl.c"
     387 000000b4 1A3E!         OR        @_CpuSysRegs+62,#0x0080 ; [CPU_] |179| 
         000000b5 0080 
     388                      .dwpsn  file "C:/ti/controlSUITE/device_support/F2837xS/v170/F2837xS_common/source/F2837xS_SysCtrl.c"
     389 000000b6 761F!         MOVW      DP,#_CpuSysRegs+67    ; [CPU_U] 
         000000b7 0001 
     390 000000b8 1A03!         OR        @_CpuSysRegs+67,#0x0001 ; [CPU_] |181| 
         000000b9 0001 
     391                      .dwpsn  file "C:/ti/controlSUITE/device_support/F2837xS/v170/F2837xS_common/source/F2837xS_SysCtrl.c"
     392 000000ba 1A03!         OR        @_CpuSysRegs+67,#0x0002 ; [CPU_] |182| 
         000000bb 0002 
     393                      .dwpsn  file "C:/ti/controlSUITE/device_support/F2837xS/v170/F2837xS_common/source/F2837xS_SysCtrl.c"
     394 000000bc 1A03!         OR        @_CpuSysRegs+67,#0x0004 ; [CPU_] |183| 
         000000bd 0004 
     395                      .dwpsn  file "C:/ti/controlSUITE/device_support/F2837xS/v170/F2837xS_common/source/F2837xS_SysCtrl.c"
     396 000000be 761A   EDIS
     397                      .dwpsn  file "C:/ti/controlSUITE/device_support/F2837xS/v170/F2837xS_common/source/F2837xS_SysCtrl.c"
     398 000000bf FF69          SPM       #0                    ; [CPU_] 
     399              $C$DW$30        .dwtag  DW_TAG_TI_branch
     400                      .dwattr $C$DW$30, DW_AT_low_pc(0x00)
     401                      .dwattr $C$DW$30, DW_AT_TI_return
     402 000000c0 0006          LRETR     ; [CPU_] 
     403                      ; return occurs ; [] 
     404                      .dwattr $C$DW$29, DW_AT_TI_end_file("C:/ti/controlSUITE/device_support/F2837xS/v170/F2837xS_common/so
     405                      .dwattr $C$DW$29, DW_AT_TI_end_line(0xba)
     406                      .dwattr $C$DW$29, DW_AT_TI_end_column(0x01)
     407                      .dwendentry
     408                      .dwendtag $C$DW$29
TMS320C2000 Assembler PC v6.4.2 Thu Dec 14 15:26:44 2017

Tools Copyright (c) 1996-2015 Texas Instruments Incorporated
F2837xS_SysCtrl.asm                                                  PAGE   10

     409              
     410 000000c1               .sect   ".text"
     411                      .clink
     412                      .global _DisablePeripheralClocks
     413              
     414              $C$DW$31        .dwtag  DW_TAG_subprogram, DW_AT_name("DisablePeripheralClocks")
     415                      .dwattr $C$DW$31, DW_AT_low_pc(_DisablePeripheralClocks)
     416                      .dwattr $C$DW$31, DW_AT_high_pc(0x00)
     417                      .dwattr $C$DW$31, DW_AT_TI_symbol_name("_DisablePeripheralClocks")
     418                      .dwattr $C$DW$31, DW_AT_external
     419                      .dwattr $C$DW$31, DW_AT_TI_begin_file("C:/ti/controlSUITE/device_support/F2837xS/v170/F2837xS_common/
     420                      .dwattr $C$DW$31, DW_AT_TI_begin_line(0xbc)
     421                      .dwattr $C$DW$31, DW_AT_TI_begin_column(0x06)
     422                      .dwattr $C$DW$31, DW_AT_TI_max_frame_size(-2)
     423                      .dwpsn  file "C:/ti/controlSUITE/device_support/F2837xS/v170/F2837xS_common/source/F2837xS_SysCtrl.c"
     424              
     425                      .dwfde $C$DW$CIE, _DisablePeripheralClocks
     426              
     427              ;***************************************************************
     428              ;* FNAME: _DisablePeripheralClocks      FR SIZE:   0           *
     429              ;*                                                             *
     430              ;* FUNCTION ENVIRONMENT                                        *
     431              ;*                                                             *
     432              ;* FUNCTION PROPERTIES                                         *
     433              ;*                            0 Parameter,  0 Auto,  0 SOE     *
     434              ;***************************************************************
     435              
     436 000000c1       _DisablePeripheralClocks:
     437                      .dwcfi  cfa_offset, -2
     438                      .dwcfi  save_reg_to_mem, 26, 0
     439                      .dwpsn  file "C:/ti/controlSUITE/device_support/F2837xS/v170/F2837xS_common/source/F2837xS_SysCtrl.c"
     440 000000c1 7622   EALLOW
     441                      .dwpsn  file "C:/ti/controlSUITE/device_support/F2837xS/v170/F2837xS_common/source/F2837xS_SysCtrl.c"
     442 000000c2 0200          MOVB      ACC,#0                ; [CPU_] |192| 
     443 000000c3 761F!         MOVW      DP,#_CpuSysRegs+34    ; [CPU_U] 
         000000c4 0000 
     444 000000c5 1E22!         MOVL      @_CpuSysRegs+34,ACC   ; [CPU_] |192| 
     445                      .dwpsn  file "C:/ti/controlSUITE/device_support/F2837xS/v170/F2837xS_common/source/F2837xS_SysCtrl.c"
     446 000000c6 1E24!         MOVL      @_CpuSysRegs+36,ACC   ; [CPU_] |193| 
     447                      .dwpsn  file "C:/ti/controlSUITE/device_support/F2837xS/v170/F2837xS_common/source/F2837xS_SysCtrl.c"
     448 000000c7 1E26!         MOVL      @_CpuSysRegs+38,ACC   ; [CPU_] |194| 
     449                      .dwpsn  file "C:/ti/controlSUITE/device_support/F2837xS/v170/F2837xS_common/source/F2837xS_SysCtrl.c"
     450 000000c8 1E28!         MOVL      @_CpuSysRegs+40,ACC   ; [CPU_] |195| 
     451                      .dwpsn  file "C:/ti/controlSUITE/device_support/F2837xS/v170/F2837xS_common/source/F2837xS_SysCtrl.c"
     452 000000c9 1E2A!         MOVL      @_CpuSysRegs+42,ACC   ; [CPU_] |196| 
     453                      .dwpsn  file "C:/ti/controlSUITE/device_support/F2837xS/v170/F2837xS_common/source/F2837xS_SysCtrl.c"
     454 000000ca 1E2E!         MOVL      @_CpuSysRegs+46,ACC   ; [CPU_] |197| 
     455                      .dwpsn  file "C:/ti/controlSUITE/device_support/F2837xS/v170/F2837xS_common/source/F2837xS_SysCtrl.c"
     456 000000cb 1E30!         MOVL      @_CpuSysRegs+48,ACC   ; [CPU_] |198| 
     457                      .dwpsn  file "C:/ti/controlSUITE/device_support/F2837xS/v170/F2837xS_common/source/F2837xS_SysCtrl.c"
     458 000000cc 1E32!         MOVL      @_CpuSysRegs+50,ACC   ; [CPU_] |199| 
     459                      .dwpsn  file "C:/ti/controlSUITE/device_support/F2837xS/v170/F2837xS_common/source/F2837xS_SysCtrl.c"
     460 000000cd 1E34!         MOVL      @_CpuSysRegs+52,ACC   ; [CPU_] |200| 
     461                      .dwpsn  file "C:/ti/controlSUITE/device_support/F2837xS/v170/F2837xS_common/source/F2837xS_SysCtrl.c"
     462 000000ce 1E36!         MOVL      @_CpuSysRegs+54,ACC   ; [CPU_] |201| 
TMS320C2000 Assembler PC v6.4.2 Thu Dec 14 15:26:44 2017

Tools Copyright (c) 1996-2015 Texas Instruments Incorporated
F2837xS_SysCtrl.asm                                                  PAGE   11

     463                      .dwpsn  file "C:/ti/controlSUITE/device_support/F2837xS/v170/F2837xS_common/source/F2837xS_SysCtrl.c"
     464 000000cf 1E38!         MOVL      @_CpuSysRegs+56,ACC   ; [CPU_] |202| 
     465                      .dwpsn  file "C:/ti/controlSUITE/device_support/F2837xS/v170/F2837xS_common/source/F2837xS_SysCtrl.c"
     466 000000d0 1E3A!         MOVL      @_CpuSysRegs+58,ACC   ; [CPU_] |203| 
     467                      .dwpsn  file "C:/ti/controlSUITE/device_support/F2837xS/v170/F2837xS_common/source/F2837xS_SysCtrl.c"
     468 000000d1 1E3C!         MOVL      @_CpuSysRegs+60,ACC   ; [CPU_] |204| 
     469                      .dwpsn  file "C:/ti/controlSUITE/device_support/F2837xS/v170/F2837xS_common/source/F2837xS_SysCtrl.c"
     470 000000d2 1E3E!         MOVL      @_CpuSysRegs+62,ACC   ; [CPU_] |205| 
     471                      .dwpsn  file "C:/ti/controlSUITE/device_support/F2837xS/v170/F2837xS_common/source/F2837xS_SysCtrl.c"
     472 000000d3 761F!         MOVW      DP,#_CpuSysRegs+66    ; [CPU_U] 
         000000d4 0001 
     473 000000d5 1E02!         MOVL      @_CpuSysRegs+66,ACC   ; [CPU_] |206| 
     474                      .dwpsn  file "C:/ti/controlSUITE/device_support/F2837xS/v170/F2837xS_common/source/F2837xS_SysCtrl.c"
     475 000000d6 761A   EDIS
     476                      .dwpsn  file "C:/ti/controlSUITE/device_support/F2837xS/v170/F2837xS_common/source/F2837xS_SysCtrl.c"
     477 000000d7 FF69          SPM       #0                    ; [CPU_] 
     478              $C$DW$32        .dwtag  DW_TAG_TI_branch
     479                      .dwattr $C$DW$32, DW_AT_low_pc(0x00)
     480                      .dwattr $C$DW$32, DW_AT_TI_return
     481 000000d8 0006          LRETR     ; [CPU_] 
     482                      ; return occurs ; [] 
     483                      .dwattr $C$DW$31, DW_AT_TI_end_file("C:/ti/controlSUITE/device_support/F2837xS/v170/F2837xS_common/so
     484                      .dwattr $C$DW$31, DW_AT_TI_end_line(0xd1)
     485                      .dwattr $C$DW$31, DW_AT_TI_end_column(0x01)
     486                      .dwendentry
     487                      .dwendtag $C$DW$31
     488              
     489 00000000               .sect   "ramfuncs"
     490                      .clink
     491                      .global _InitFlash_Bank0
     492              
     493              $C$DW$33        .dwtag  DW_TAG_subprogram, DW_AT_name("InitFlash_Bank0")
     494                      .dwattr $C$DW$33, DW_AT_low_pc(_InitFlash_Bank0)
     495                      .dwattr $C$DW$33, DW_AT_high_pc(0x00)
     496                      .dwattr $C$DW$33, DW_AT_TI_symbol_name("_InitFlash_Bank0")
     497                      .dwattr $C$DW$33, DW_AT_external
     498                      .dwattr $C$DW$33, DW_AT_TI_begin_file("C:/ti/controlSUITE/device_support/F2837xS/v170/F2837xS_common/
     499                      .dwattr $C$DW$33, DW_AT_TI_begin_line(0xd8)
     500                      .dwattr $C$DW$33, DW_AT_TI_begin_column(0x06)
     501                      .dwattr $C$DW$33, DW_AT_TI_max_frame_size(-2)
     502                      .dwpsn  file "C:/ti/controlSUITE/device_support/F2837xS/v170/F2837xS_common/source/F2837xS_SysCtrl.c"
     503              
     504                      .dwfde $C$DW$CIE, _InitFlash_Bank0
     505              
     506              ;***************************************************************
     507              ;* FNAME: _InitFlash_Bank0              FR SIZE:   0           *
     508              ;*                                                             *
     509              ;* FUNCTION ENVIRONMENT                                        *
     510              ;*                                                             *
     511              ;* FUNCTION PROPERTIES                                         *
     512              ;*                            0 Parameter,  0 Auto,  0 SOE     *
     513              ;***************************************************************
     514              
     515 00000000       _InitFlash_Bank0:
     516                      .dwcfi  cfa_offset, -2
TMS320C2000 Assembler PC v6.4.2 Thu Dec 14 15:26:44 2017

Tools Copyright (c) 1996-2015 Texas Instruments Incorporated
F2837xS_SysCtrl.asm                                                  PAGE   12

     517                      .dwcfi  save_reg_to_mem, 26, 0
     518                      .dwpsn  file "C:/ti/controlSUITE/device_support/F2837xS/v170/F2837xS_common/source/F2837xS_SysCtrl.c"
     519 00000000 7622   EALLOW
     520                      .dwpsn  file "C:/ti/controlSUITE/device_support/F2837xS/v170/F2837xS_common/source/F2837xS_SysCtrl.c"
     521 00000001 761F!         MOVW      DP,#_Flash0CtrlRegs+36 ; [CPU_U] 
         00000002 0000 
     522 00000003 1A24!         OR        @_Flash0CtrlRegs+36,#0x0001 ; [CPU_] |225| 
         00000004 0001 
     523                      .dwpsn  file "C:/ti/controlSUITE/device_support/F2837xS/v170/F2837xS_common/source/F2837xS_SysCtrl.c"
     524 00000005 1A20!         OR        @_Flash0CtrlRegs+32,#0x0003 ; [CPU_] |226| 
         00000006 0003 
     525                      .dwpsn  file "C:/ti/controlSUITE/device_support/F2837xS/v170/F2837xS_common/source/F2837xS_SysCtrl.c"
     526 00000007 761F!         MOVW      DP,#_Flash0CtrlRegs+384 ; [CPU_U] 
         00000008 0006 
     527 00000009 1800!         AND       @_Flash0CtrlRegs+384,#0xfffd ; [CPU_] |229| 
         0000000a FFFD 
     528                      .dwpsn  file "C:/ti/controlSUITE/device_support/F2837xS/v170/F2837xS_common/source/F2837xS_SysCtrl.c"
     529 0000000b 1800!         AND       @_Flash0CtrlRegs+384,#0xfffe ; [CPU_] |230| 
         0000000c FFFE 
     530                      .dwpsn  file "C:/ti/controlSUITE/device_support/F2837xS/v170/F2837xS_common/source/F2837xS_SysCtrl.c"
     531 0000000d 761F!         MOVW      DP,#_Flash0CtrlRegs   ; [CPU_U] 
         0000000e 0000 
     532 0000000f CC00!         AND       AL,@_Flash0CtrlRegs,#0xf0ff ; [CPU_] |238| 
         00000010 F0FF 
     533 00000011 1AA9          OR        AL,#0x0300            ; [CPU_] |238| 
         00000012 0300 
     534 00000013 9600!         MOV       @_Flash0CtrlRegs,AL   ; [CPU_] |238| 
     535                      .dwpsn  file "C:/ti/controlSUITE/device_support/F2837xS/v170/F2837xS_common/source/F2837xS_SysCtrl.c"
     536 00000014 761F!         MOVW      DP,#_Flash0CtrlRegs+384 ; [CPU_U] 
         00000015 0006 
     537 00000016 1A00!         OR        @_Flash0CtrlRegs+384,#0x0002 ; [CPU_] |251| 
         00000017 0002 
     538                      .dwpsn  file "C:/ti/controlSUITE/device_support/F2837xS/v170/F2837xS_common/source/F2837xS_SysCtrl.c"
     539 00000018 1A00!         OR        @_Flash0CtrlRegs+384,#0x0001 ; [CPU_] |252| 
         00000019 0001 
     540                      .dwpsn  file "C:/ti/controlSUITE/device_support/F2837xS/v170/F2837xS_common/source/F2837xS_SysCtrl.c"
     541 0000001a 761F!         MOVW      DP,#_Flash0EccRegs    ; [CPU_U] 
         0000001b 0000 
     542 0000001c CC00!         AND       AL,@_Flash0EccRegs,#0xfff0 ; [CPU_] |256| 
         0000001d FFF0 
     543 0000001e 500A          ORB       AL,#0x0a              ; [CPU_] |256| 
     544 0000001f 9600!         MOV       @_Flash0EccRegs,AL    ; [CPU_] |256| 
     545                      .dwpsn  file "C:/ti/controlSUITE/device_support/F2837xS/v170/F2837xS_common/source/F2837xS_SysCtrl.c"
     546 00000020 761A   EDIS
     547                      .dwpsn  file "C:/ti/controlSUITE/device_support/F2837xS/v170/F2837xS_common/source/F2837xS_SysCtrl.c"
     548 00000021 F607   RPT #7 || NOP
         00000022 7700 
     549                      .dwpsn  file "C:/ti/controlSUITE/device_support/F2837xS/v170/F2837xS_common/source/F2837xS_SysCtrl.c"
     550 00000023 FF69          SPM       #0                    ; [CPU_] 
     551              $C$DW$34        .dwtag  DW_TAG_TI_branch
     552                      .dwattr $C$DW$34, DW_AT_low_pc(0x00)
     553                      .dwattr $C$DW$34, DW_AT_TI_return
     554 00000024 0006          LRETR     ; [CPU_] 
     555                      ; return occurs ; [] 
     556                      .dwattr $C$DW$33, DW_AT_TI_end_file("C:/ti/controlSUITE/device_support/F2837xS/v170/F2837xS_common/so
TMS320C2000 Assembler PC v6.4.2 Thu Dec 14 15:26:44 2017

Tools Copyright (c) 1996-2015 Texas Instruments Incorporated
F2837xS_SysCtrl.asm                                                  PAGE   13

     557                      .dwattr $C$DW$33, DW_AT_TI_end_line(0x109)
     558                      .dwattr $C$DW$33, DW_AT_TI_end_column(0x01)
     559                      .dwendentry
     560                      .dwendtag $C$DW$33
     561              
     562 00000025               .sect   "ramfuncs"
     563                      .clink
     564                      .global _InitFlash_Bank1
     565              
     566              $C$DW$35        .dwtag  DW_TAG_subprogram, DW_AT_name("InitFlash_Bank1")
     567                      .dwattr $C$DW$35, DW_AT_low_pc(_InitFlash_Bank1)
     568                      .dwattr $C$DW$35, DW_AT_high_pc(0x00)
     569                      .dwattr $C$DW$35, DW_AT_TI_symbol_name("_InitFlash_Bank1")
     570                      .dwattr $C$DW$35, DW_AT_external
     571                      .dwattr $C$DW$35, DW_AT_TI_begin_file("C:/ti/controlSUITE/device_support/F2837xS/v170/F2837xS_common/
     572                      .dwattr $C$DW$35, DW_AT_TI_begin_line(0x110)
     573                      .dwattr $C$DW$35, DW_AT_TI_begin_column(0x06)
     574                      .dwattr $C$DW$35, DW_AT_TI_max_frame_size(-2)
     575                      .dwpsn  file "C:/ti/controlSUITE/device_support/F2837xS/v170/F2837xS_common/source/F2837xS_SysCtrl.c"
     576              
     577                      .dwfde $C$DW$CIE, _InitFlash_Bank1
     578              
     579              ;***************************************************************
     580              ;* FNAME: _InitFlash_Bank1              FR SIZE:   0           *
     581              ;*                                                             *
     582              ;* FUNCTION ENVIRONMENT                                        *
     583              ;*                                                             *
     584              ;* FUNCTION PROPERTIES                                         *
     585              ;*                            0 Parameter,  0 Auto,  0 SOE     *
     586              ;***************************************************************
     587              
     588 00000025       _InitFlash_Bank1:
     589                      .dwcfi  cfa_offset, -2
     590                      .dwcfi  save_reg_to_mem, 26, 0
     591                      .dwpsn  file "C:/ti/controlSUITE/device_support/F2837xS/v170/F2837xS_common/source/F2837xS_SysCtrl.c"
     592 00000025 7622   EALLOW
     593                      .dwpsn  file "C:/ti/controlSUITE/device_support/F2837xS/v170/F2837xS_common/source/F2837xS_SysCtrl.c"
     594 00000026 761F!         MOVW      DP,#_Flash1CtrlRegs+36 ; [CPU_U] 
         00000027 0000 
     595 00000028 1A24!         OR        @_Flash1CtrlRegs+36,#0x0001 ; [CPU_] |281| 
         00000029 0001 
     596                      .dwpsn  file "C:/ti/controlSUITE/device_support/F2837xS/v170/F2837xS_common/source/F2837xS_SysCtrl.c"
     597 0000002a 1A20!         OR        @_Flash1CtrlRegs+32,#0x0003 ; [CPU_] |282| 
         0000002b 0003 
     598                      .dwpsn  file "C:/ti/controlSUITE/device_support/F2837xS/v170/F2837xS_common/source/F2837xS_SysCtrl.c"
     599 0000002c 761F!         MOVW      DP,#_Flash1CtrlRegs+384 ; [CPU_U] 
         0000002d 0006 
     600 0000002e 1800!         AND       @_Flash1CtrlRegs+384,#0xfffd ; [CPU_] |285| 
         0000002f FFFD 
     601                      .dwpsn  file "C:/ti/controlSUITE/device_support/F2837xS/v170/F2837xS_common/source/F2837xS_SysCtrl.c"
     602 00000030 1800!         AND       @_Flash1CtrlRegs+384,#0xfffe ; [CPU_] |286| 
         00000031 FFFE 
     603                      .dwpsn  file "C:/ti/controlSUITE/device_support/F2837xS/v170/F2837xS_common/source/F2837xS_SysCtrl.c"
     604 00000032 761F!         MOVW      DP,#_Flash1CtrlRegs   ; [CPU_U] 
         00000033 0000 
TMS320C2000 Assembler PC v6.4.2 Thu Dec 14 15:26:44 2017

Tools Copyright (c) 1996-2015 Texas Instruments Incorporated
F2837xS_SysCtrl.asm                                                  PAGE   14

     605 00000034 CC00!         AND       AL,@_Flash1CtrlRegs,#0xf0ff ; [CPU_] |294| 
         00000035 F0FF 
     606 00000036 1AA9          OR        AL,#0x0300            ; [CPU_] |294| 
         00000037 0300 
     607 00000038 9600!         MOV       @_Flash1CtrlRegs,AL   ; [CPU_] |294| 
     608                      .dwpsn  file "C:/ti/controlSUITE/device_support/F2837xS/v170/F2837xS_common/source/F2837xS_SysCtrl.c"
     609 00000039 761F!         MOVW      DP,#_Flash1CtrlRegs+384 ; [CPU_U] 
         0000003a 0006 
     610 0000003b 1A00!         OR        @_Flash1CtrlRegs+384,#0x0002 ; [CPU_] |307| 
         0000003c 0002 
     611                      .dwpsn  file "C:/ti/controlSUITE/device_support/F2837xS/v170/F2837xS_common/source/F2837xS_SysCtrl.c"
     612 0000003d 1A00!         OR        @_Flash1CtrlRegs+384,#0x0001 ; [CPU_] |308| 
         0000003e 0001 
     613                      .dwpsn  file "C:/ti/controlSUITE/device_support/F2837xS/v170/F2837xS_common/source/F2837xS_SysCtrl.c"
     614 0000003f 761F!         MOVW      DP,#_Flash1EccRegs    ; [CPU_U] 
         00000040 0000 
     615 00000041 CC00!         AND       AL,@_Flash1EccRegs,#0xfff0 ; [CPU_] |312| 
         00000042 FFF0 
     616 00000043 500A          ORB       AL,#0x0a              ; [CPU_] |312| 
     617 00000044 9600!         MOV       @_Flash1EccRegs,AL    ; [CPU_] |312| 
     618                      .dwpsn  file "C:/ti/controlSUITE/device_support/F2837xS/v170/F2837xS_common/source/F2837xS_SysCtrl.c"
     619 00000045 761A   EDIS
     620                      .dwpsn  file "C:/ti/controlSUITE/device_support/F2837xS/v170/F2837xS_common/source/F2837xS_SysCtrl.c"
     621 00000046 F607   RPT #7 || NOP
         00000047 7700 
     622                      .dwpsn  file "C:/ti/controlSUITE/device_support/F2837xS/v170/F2837xS_common/source/F2837xS_SysCtrl.c"
     623 00000048 FF69          SPM       #0                    ; [CPU_] 
     624              $C$DW$36        .dwtag  DW_TAG_TI_branch
     625                      .dwattr $C$DW$36, DW_AT_low_pc(0x00)
     626                      .dwattr $C$DW$36, DW_AT_TI_return
     627 00000049 0006          LRETR     ; [CPU_] 
     628                      ; return occurs ; [] 
     629                      .dwattr $C$DW$35, DW_AT_TI_end_file("C:/ti/controlSUITE/device_support/F2837xS/v170/F2837xS_common/so
     630                      .dwattr $C$DW$35, DW_AT_TI_end_line(0x141)
     631                      .dwattr $C$DW$35, DW_AT_TI_end_column(0x01)
     632                      .dwendentry
     633                      .dwendtag $C$DW$35
     634              
     635 000000d9               .sect   ".text"
     636                      .clink
     637                      .global _ServiceDog
     638              
     639              $C$DW$37        .dwtag  DW_TAG_subprogram, DW_AT_name("ServiceDog")
     640                      .dwattr $C$DW$37, DW_AT_low_pc(_ServiceDog)
     641                      .dwattr $C$DW$37, DW_AT_high_pc(0x00)
     642                      .dwattr $C$DW$37, DW_AT_TI_symbol_name("_ServiceDog")
     643                      .dwattr $C$DW$37, DW_AT_external
     644                      .dwattr $C$DW$37, DW_AT_TI_begin_file("C:/ti/controlSUITE/device_support/F2837xS/v170/F2837xS_common/
     645                      .dwattr $C$DW$37, DW_AT_TI_begin_line(0x149)
     646                      .dwattr $C$DW$37, DW_AT_TI_begin_column(0x06)
     647                      .dwattr $C$DW$37, DW_AT_TI_max_frame_size(-2)
     648                      .dwpsn  file "C:/ti/controlSUITE/device_support/F2837xS/v170/F2837xS_common/source/F2837xS_SysCtrl.c"
     649              
     650                      .dwfde $C$DW$CIE, _ServiceDog
     651              
TMS320C2000 Assembler PC v6.4.2 Thu Dec 14 15:26:44 2017

Tools Copyright (c) 1996-2015 Texas Instruments Incorporated
F2837xS_SysCtrl.asm                                                  PAGE   15

     652              ;***************************************************************
     653              ;* FNAME: _ServiceDog                   FR SIZE:   0           *
     654              ;*                                                             *
     655              ;* FUNCTION ENVIRONMENT                                        *
     656              ;*                                                             *
     657              ;* FUNCTION PROPERTIES                                         *
     658              ;*                            0 Parameter,  0 Auto,  0 SOE     *
     659              ;***************************************************************
     660              
     661 000000d9       _ServiceDog:
     662                      .dwcfi  cfa_offset, -2
     663                      .dwcfi  save_reg_to_mem, 26, 0
     664                      .dwpsn  file "C:/ti/controlSUITE/device_support/F2837xS/v170/F2837xS_common/source/F2837xS_SysCtrl.c"
     665 000000d9 7622   EALLOW
     666                      .dwpsn  file "C:/ti/controlSUITE/device_support/F2837xS/v170/F2837xS_common/source/F2837xS_SysCtrl.c"
     667 000000da 761F!         MOVW      DP,#_WdRegs+37        ; [CPU_U] 
         000000db 0000 
     668 000000dc CC25!         AND       AL,@_WdRegs+37,#0xff00 ; [CPU_] |332| 
         000000dd FF00 
     669 000000de 5055          ORB       AL,#0x55              ; [CPU_] |332| 
     670 000000df 9625!         MOV       @_WdRegs+37,AL        ; [CPU_] |332| 
     671                      .dwpsn  file "C:/ti/controlSUITE/device_support/F2837xS/v170/F2837xS_common/source/F2837xS_SysCtrl.c"
     672 000000e0 CC25!         AND       AL,@_WdRegs+37,#0xff00 ; [CPU_] |333| 
         000000e1 FF00 
     673 000000e2 50AA          ORB       AL,#0xaa              ; [CPU_] |333| 
     674 000000e3 9625!         MOV       @_WdRegs+37,AL        ; [CPU_] |333| 
     675                      .dwpsn  file "C:/ti/controlSUITE/device_support/F2837xS/v170/F2837xS_common/source/F2837xS_SysCtrl.c"
     676 000000e4 761A   EDIS
     677                      .dwpsn  file "C:/ti/controlSUITE/device_support/F2837xS/v170/F2837xS_common/source/F2837xS_SysCtrl.c"
     678 000000e5 FF69          SPM       #0                    ; [CPU_] 
     679              $C$DW$38        .dwtag  DW_TAG_TI_branch
     680                      .dwattr $C$DW$38, DW_AT_low_pc(0x00)
     681                      .dwattr $C$DW$38, DW_AT_TI_return
     682 000000e6 0006          LRETR     ; [CPU_] 
     683                      ; return occurs ; [] 
     684                      .dwattr $C$DW$37, DW_AT_TI_end_file("C:/ti/controlSUITE/device_support/F2837xS/v170/F2837xS_common/so
     685                      .dwattr $C$DW$37, DW_AT_TI_end_line(0x14f)
     686                      .dwattr $C$DW$37, DW_AT_TI_end_column(0x01)
     687                      .dwendentry
     688                      .dwendtag $C$DW$37
     689              
     690 000000e7               .sect   ".text"
     691                      .clink
     692                      .global _DisableDog
     693              
     694              $C$DW$39        .dwtag  DW_TAG_subprogram, DW_AT_name("DisableDog")
     695                      .dwattr $C$DW$39, DW_AT_low_pc(_DisableDog)
     696                      .dwattr $C$DW$39, DW_AT_high_pc(0x00)
     697                      .dwattr $C$DW$39, DW_AT_TI_symbol_name("_DisableDog")
     698                      .dwattr $C$DW$39, DW_AT_external
     699                      .dwattr $C$DW$39, DW_AT_TI_begin_file("C:/ti/controlSUITE/device_support/F2837xS/v170/F2837xS_common/
     700                      .dwattr $C$DW$39, DW_AT_TI_begin_line(0x156)
     701                      .dwattr $C$DW$39, DW_AT_TI_begin_column(0x06)
     702                      .dwattr $C$DW$39, DW_AT_TI_max_frame_size(-4)
     703                      .dwpsn  file "C:/ti/controlSUITE/device_support/F2837xS/v170/F2837xS_common/source/F2837xS_SysCtrl.c"
TMS320C2000 Assembler PC v6.4.2 Thu Dec 14 15:26:44 2017

Tools Copyright (c) 1996-2015 Texas Instruments Incorporated
F2837xS_SysCtrl.asm                                                  PAGE   16

     704              
     705                      .dwfde $C$DW$CIE, _DisableDog
     706              
     707              ;***************************************************************
     708              ;* FNAME: _DisableDog                   FR SIZE:   2           *
     709              ;*                                                             *
     710              ;* FUNCTION ENVIRONMENT                                        *
     711              ;*                                                             *
     712              ;* FUNCTION PROPERTIES                                         *
     713              ;*                            0 Parameter,  1 Auto,  0 SOE     *
     714              ;***************************************************************
     715              
     716 000000e7       _DisableDog:
     717                      .dwcfi  cfa_offset, -2
     718                      .dwcfi  save_reg_to_mem, 26, 0
     719 000000e7 FE02          ADDB      SP,#2                 ; [CPU_U] 
     720                      .dwcfi  cfa_offset, -4
     721              $C$DW$40        .dwtag  DW_TAG_variable, DW_AT_name("temp")
     722                      .dwattr $C$DW$40, DW_AT_TI_symbol_name("_temp")
     723                      .dwattr $C$DW$40, DW_AT_type(*$C$DW$T$311)
     724                      .dwattr $C$DW$40, DW_AT_location[DW_OP_breg20 -1]
     725                      .dwpsn  file "C:/ti/controlSUITE/device_support/F2837xS/v170/F2837xS_common/source/F2837xS_SysCtrl.c"
     726 000000e8 7622   EALLOW
     727                      .dwpsn  file "C:/ti/controlSUITE/device_support/F2837xS/v170/F2837xS_common/source/F2837xS_SysCtrl.c"
     728 000000e9 761F!         MOVW      DP,#_WdRegs+41        ; [CPU_U] 
         000000ea 0000 
     729 000000eb 9229!         MOV       AL,@_WdRegs+41        ; [CPU_] |347| 
     730 000000ec 9007          ANDB      AL,#0x07              ; [CPU_] |347| 
     731 000000ed 9641          MOV       *-SP[1],AL            ; [CPU_] |347| 
     732                      .dwpsn  file "C:/ti/controlSUITE/device_support/F2837xS/v170/F2837xS_common/source/F2837xS_SysCtrl.c"
     733 000000ee 9241          MOV       AL,*-SP[1]            ; [CPU_] |348| 
     734 000000ef 5068          ORB       AL,#0x68              ; [CPU_] |348| 
     735 000000f0 9629!         MOV       @_WdRegs+41,AL        ; [CPU_] |348| 
     736                      .dwpsn  file "C:/ti/controlSUITE/device_support/F2837xS/v170/F2837xS_common/source/F2837xS_SysCtrl.c"
     737 000000f1 761A   EDIS
     738                      .dwpsn  file "C:/ti/controlSUITE/device_support/F2837xS/v170/F2837xS_common/source/F2837xS_SysCtrl.c"
     739 000000f2 FF69          SPM       #0                    ; [CPU_] 
     740 000000f3 FE82          SUBB      SP,#2                 ; [CPU_U] 
     741                      .dwcfi  cfa_offset, -2
     742              $C$DW$41        .dwtag  DW_TAG_TI_branch
     743                      .dwattr $C$DW$41, DW_AT_low_pc(0x00)
     744                      .dwattr $C$DW$41, DW_AT_TI_return
     745 000000f4 0006          LRETR     ; [CPU_] 
     746                      ; return occurs ; [] 
     747                      .dwattr $C$DW$39, DW_AT_TI_end_file("C:/ti/controlSUITE/device_support/F2837xS/v170/F2837xS_common/so
     748                      .dwattr $C$DW$39, DW_AT_TI_end_line(0x15e)
     749                      .dwattr $C$DW$39, DW_AT_TI_end_column(0x01)
     750                      .dwendentry
     751                      .dwendtag $C$DW$39
     752              
     753 000000f5               .sect   ".text"
     754                      .clink
     755                      .global _InitSysPll
     756              
     757              $C$DW$42        .dwtag  DW_TAG_subprogram, DW_AT_name("InitSysPll")
TMS320C2000 Assembler PC v6.4.2 Thu Dec 14 15:26:44 2017

Tools Copyright (c) 1996-2015 Texas Instruments Incorporated
F2837xS_SysCtrl.asm                                                  PAGE   17

     758                      .dwattr $C$DW$42, DW_AT_low_pc(_InitSysPll)
     759                      .dwattr $C$DW$42, DW_AT_high_pc(0x00)
     760                      .dwattr $C$DW$42, DW_AT_TI_symbol_name("_InitSysPll")
     761                      .dwattr $C$DW$42, DW_AT_external
     762                      .dwattr $C$DW$42, DW_AT_TI_begin_file("C:/ti/controlSUITE/device_support/F2837xS/v170/F2837xS_common/
     763                      .dwattr $C$DW$42, DW_AT_TI_begin_line(0x168)
     764                      .dwattr $C$DW$42, DW_AT_TI_begin_column(0x06)
     765                      .dwattr $C$DW$42, DW_AT_TI_max_frame_size(-8)
     766                      .dwpsn  file "C:/ti/controlSUITE/device_support/F2837xS/v170/F2837xS_common/source/F2837xS_SysCtrl.c"
     767              
     768                      .dwfde $C$DW$CIE, _InitSysPll
     769              $C$DW$43        .dwtag  DW_TAG_formal_parameter, DW_AT_name("clock_source")
     770                      .dwattr $C$DW$43, DW_AT_TI_symbol_name("_clock_source")
     771                      .dwattr $C$DW$43, DW_AT_type(*$C$DW$T$19)
     772                      .dwattr $C$DW$43, DW_AT_location[DW_OP_reg0]
     773              $C$DW$44        .dwtag  DW_TAG_formal_parameter, DW_AT_name("imult")
     774                      .dwattr $C$DW$44, DW_AT_TI_symbol_name("_imult")
     775                      .dwattr $C$DW$44, DW_AT_type(*$C$DW$T$19)
     776                      .dwattr $C$DW$44, DW_AT_location[DW_OP_reg1]
     777              $C$DW$45        .dwtag  DW_TAG_formal_parameter, DW_AT_name("fmult")
     778                      .dwattr $C$DW$45, DW_AT_TI_symbol_name("_fmult")
     779                      .dwattr $C$DW$45, DW_AT_type(*$C$DW$T$19)
     780                      .dwattr $C$DW$45, DW_AT_location[DW_OP_reg12]
     781              $C$DW$46        .dwtag  DW_TAG_formal_parameter, DW_AT_name("divsel")
     782                      .dwattr $C$DW$46, DW_AT_TI_symbol_name("_divsel")
     783                      .dwattr $C$DW$46, DW_AT_type(*$C$DW$T$19)
     784                      .dwattr $C$DW$46, DW_AT_location[DW_OP_reg14]
     785              
     786              ;***************************************************************
     787              ;* FNAME: _InitSysPll                   FR SIZE:   6           *
     788              ;*                                                             *
     789              ;* FUNCTION ENVIRONMENT                                        *
     790              ;*                                                             *
     791              ;* FUNCTION PROPERTIES                                         *
     792              ;*                            0 Parameter,  6 Auto,  0 SOE     *
     793              ;***************************************************************
     794              
     795 000000f5       _InitSysPll:
     796                      .dwcfi  cfa_offset, -2
     797                      .dwcfi  save_reg_to_mem, 26, 0
     798 000000f5 FE06          ADDB      SP,#6                 ; [CPU_U] 
     799                      .dwcfi  cfa_offset, -8
     800              $C$DW$47        .dwtag  DW_TAG_variable, DW_AT_name("clock_source")
     801                      .dwattr $C$DW$47, DW_AT_TI_symbol_name("_clock_source")
     802                      .dwattr $C$DW$47, DW_AT_type(*$C$DW$T$19)
     803                      .dwattr $C$DW$47, DW_AT_location[DW_OP_breg20 -1]
     804              $C$DW$48        .dwtag  DW_TAG_variable, DW_AT_name("imult")
     805                      .dwattr $C$DW$48, DW_AT_TI_symbol_name("_imult")
     806                      .dwattr $C$DW$48, DW_AT_type(*$C$DW$T$19)
     807                      .dwattr $C$DW$48, DW_AT_location[DW_OP_breg20 -2]
     808              $C$DW$49        .dwtag  DW_TAG_variable, DW_AT_name("fmult")
     809                      .dwattr $C$DW$49, DW_AT_TI_symbol_name("_fmult")
     810                      .dwattr $C$DW$49, DW_AT_type(*$C$DW$T$19)
     811                      .dwattr $C$DW$49, DW_AT_location[DW_OP_breg20 -3]
     812              $C$DW$50        .dwtag  DW_TAG_variable, DW_AT_name("divsel")
TMS320C2000 Assembler PC v6.4.2 Thu Dec 14 15:26:44 2017

Tools Copyright (c) 1996-2015 Texas Instruments Incorporated
F2837xS_SysCtrl.asm                                                  PAGE   18

     813                      .dwattr $C$DW$50, DW_AT_TI_symbol_name("_divsel")
     814                      .dwattr $C$DW$50, DW_AT_type(*$C$DW$T$19)
     815                      .dwattr $C$DW$50, DW_AT_location[DW_OP_breg20 -4]
     816 000000f6 7D44          MOV       *-SP[4],AR5           ; [CPU_] |361| 
     817 000000f7 7C43          MOV       *-SP[3],AR4           ; [CPU_] |361| 
     818 000000f8 9742          MOV       *-SP[2],AH            ; [CPU_] |361| 
     819 000000f9 9641          MOV       *-SP[1],AL            ; [CPU_] |361| 
     820                      .dwpsn  file "C:/ti/controlSUITE/device_support/F2837xS/v170/F2837xS_common/source/F2837xS_SysCtrl.c"
     821 000000fa 761F!         MOVW      DP,#_ClkCfgRegs+8     ; [CPU_U] 
         000000fb 0000 
     822 000000fc 8841          MOVZ      AR6,*-SP[1]           ; [CPU_] |362| 
     823 000000fd 9208!         MOV       AL,@_ClkCfgRegs+8     ; [CPU_] |362| 
     824 000000fe 9003          ANDB      AL,#0x03              ; [CPU_] |362| 
     825 000000ff 0EA9          MOVU      ACC,AL                ; [CPU_] |362| 
     826 00000100 0FA6          CMPL      ACC,XAR6              ; [CPU_] |362| 
     827 00000101 ED14          BF        $C$L2,NEQ             ; [CPU_] |362| 
     828                      ; branchcc occurs ; [] |362| 
     829 00000102 8842          MOVZ      AR6,*-SP[2]           ; [CPU_] |362| 
     830 00000103 9214!         MOV       AL,@_ClkCfgRegs+20    ; [CPU_] |362| 
     831 00000104 907F          ANDB      AL,#0x7f              ; [CPU_] |362| 
     832 00000105 0EA9          MOVU      ACC,AL                ; [CPU_] |362| 
     833 00000106 0FA6          CMPL      ACC,XAR6              ; [CPU_] |362| 
     834 00000107 ED0E          BF        $C$L2,NEQ             ; [CPU_] |362| 
     835                      ; branchcc occurs ; [] |362| 
     836 00000108 8843          MOVZ      AR6,*-SP[3]           ; [CPU_] |362| 
     837 00000109 CC14!         AND       AL,@_ClkCfgRegs+20,#0x0300 ; [CPU_] |362| 
         0000010a 0300 
     838 0000010b FFC7          LSR       AL,8                  ; [CPU_] |362| 
     839 0000010c 0EA9          MOVU      ACC,AL                ; [CPU_] |362| 
     840 0000010d 0FA6          CMPL      ACC,XAR6              ; [CPU_] |362| 
     841 0000010e ED07          BF        $C$L2,NEQ             ; [CPU_] |362| 
     842                      ; branchcc occurs ; [] |362| 
     843 0000010f 8844          MOVZ      AR6,*-SP[4]           ; [CPU_] |362| 
     844 00000110 9222!         MOV       AL,@_ClkCfgRegs+34    ; [CPU_] |362| 
     845 00000111 903F          ANDB      AL,#0x3f              ; [CPU_] |362| 
     846 00000112 0EA9          MOVU      ACC,AL                ; [CPU_] |362| 
     847 00000113 0FA6          CMPL      ACC,XAR6              ; [CPU_] |362| 
     848 00000114 EC67          BF        $C$L14,EQ             ; [CPU_] |362| 
     849                      ; branchcc occurs ; [] |362| 
     850                      .dwpsn  file "C:/ti/controlSUITE/device_support/F2837xS/v170/F2837xS_common/source/F2837xS_SysCtrl.c"
     851 00000115       $C$L2:    
     852                      .dwpsn  file "C:/ti/controlSUITE/device_support/F2837xS/v170/F2837xS_common/source/F2837xS_SysCtrl.c"
     853 00000115 8841          MOVZ      AR6,*-SP[1]           ; [CPU_] |371| 
     854 00000116 9208!         MOV       AL,@_ClkCfgRegs+8     ; [CPU_] |371| 
     855 00000117 9003          ANDB      AL,#0x03              ; [CPU_] |371| 
     856 00000118 0EA9          MOVU      ACC,AL                ; [CPU_] |371| 
     857 00000119 0FA6          CMPL      ACC,XAR6              ; [CPU_] |371| 
     858 0000011a EC11          BF        $C$L7,EQ              ; [CPU_] |371| 
     859                      ; branchcc occurs ; [] |371| 
     860                      .dwpsn  file "C:/ti/controlSUITE/device_support/F2837xS/v170/F2837xS_common/source/F2837xS_SysCtrl.c"
     861 0000011b 6F0A          B         $C$L6,UNC             ; [CPU_] |373| 
     862                      ; branch occurs ; [] |373| 
     863 0000011c       $C$L3:    
     864                      .dwpsn  file "C:/ti/controlSUITE/device_support/F2837xS/v170/F2837xS_common/source/F2837xS_SysCtrl.c"
     865              $C$DW$51        .dwtag  DW_TAG_TI_branch
TMS320C2000 Assembler PC v6.4.2 Thu Dec 14 15:26:44 2017

Tools Copyright (c) 1996-2015 Texas Instruments Incorporated
F2837xS_SysCtrl.asm                                                  PAGE   19

     866                      .dwattr $C$DW$51, DW_AT_low_pc(0x00)
     867                      .dwattr $C$DW$51, DW_AT_name("_SysIntOsc1Sel")
     868                      .dwattr $C$DW$51, DW_AT_TI_call
     869 0000011c 7640'         LCR       #_SysIntOsc1Sel       ; [CPU_] |376| 
         0000011d 0236 
     870                      ; call occurs [#_SysIntOsc1Sel] ; [] |376| 
     871                      .dwpsn  file "C:/ti/controlSUITE/device_support/F2837xS/v170/F2837xS_common/source/F2837xS_SysCtrl.c"
     872 0000011e 6F0D          B         $C$L7,UNC             ; [CPU_] |377| 
     873                      ; branch occurs ; [] |377| 
     874 0000011f       $C$L4:    
     875                      .dwpsn  file "C:/ti/controlSUITE/device_support/F2837xS/v170/F2837xS_common/source/F2837xS_SysCtrl.c"
     876              $C$DW$52        .dwtag  DW_TAG_TI_branch
     877                      .dwattr $C$DW$52, DW_AT_low_pc(0x00)
     878                      .dwattr $C$DW$52, DW_AT_name("_SysIntOsc2Sel")
     879                      .dwattr $C$DW$52, DW_AT_TI_call
     880 0000011f 7640'         LCR       #_SysIntOsc2Sel       ; [CPU_] |380| 
         00000120 0240 
     881                      ; call occurs [#_SysIntOsc2Sel] ; [] |380| 
     882                      .dwpsn  file "C:/ti/controlSUITE/device_support/F2837xS/v170/F2837xS_common/source/F2837xS_SysCtrl.c"
     883 00000121 6F0A          B         $C$L7,UNC             ; [CPU_] |381| 
     884                      ; branch occurs ; [] |381| 
     885 00000122       $C$L5:    
     886                      .dwpsn  file "C:/ti/controlSUITE/device_support/F2837xS/v170/F2837xS_common/source/F2837xS_SysCtrl.c"
     887              $C$DW$53        .dwtag  DW_TAG_TI_branch
     888                      .dwattr $C$DW$53, DW_AT_low_pc(0x00)
     889                      .dwattr $C$DW$53, DW_AT_name("_SysXtalOscSel")
     890                      .dwattr $C$DW$53, DW_AT_TI_call
     891 00000122 7640'         LCR       #_SysXtalOscSel       ; [CPU_] |384| 
         00000123 024A 
     892                      ; call occurs [#_SysXtalOscSel] ; [] |384| 
     893                      .dwpsn  file "C:/ti/controlSUITE/device_support/F2837xS/v170/F2837xS_common/source/F2837xS_SysCtrl.c"
     894 00000124 6F07          B         $C$L7,UNC             ; [CPU_] |385| 
     895                      ; branch occurs ; [] |385| 
     896 00000125       $C$L6:    
     897                      .dwpsn  file "C:/ti/controlSUITE/device_support/F2837xS/v170/F2837xS_common/source/F2837xS_SysCtrl.c"
     898 00000125 9241          MOV       AL,*-SP[1]            ; [CPU_] |373| 
     899 00000126 ECF9          BF        $C$L4,EQ              ; [CPU_] |373| 
     900                      ; branchcc occurs ; [] |373| 
     901 00000127 5201          CMPB      AL,#1                 ; [CPU_] |373| 
     902 00000128 ECFA          BF        $C$L5,EQ              ; [CPU_] |373| 
     903                      ; branchcc occurs ; [] |373| 
     904 00000129 5202          CMPB      AL,#2                 ; [CPU_] |373| 
     905 0000012a ECF2          BF        $C$L3,EQ              ; [CPU_] |373| 
     906                      ; branchcc occurs ; [] |373| 
     907 0000012b       $C$L7:    
     908                      .dwpsn  file "C:/ti/controlSUITE/device_support/F2837xS/v170/F2837xS_common/source/F2837xS_SysCtrl.c"
     909 0000012b 7622   EALLOW
     910                      .dwpsn  file "C:/ti/controlSUITE/device_support/F2837xS/v170/F2837xS_common/source/F2837xS_SysCtrl.c"
     911 0000012c 761F!         MOVW      DP,#_ClkCfgRegs+20    ; [CPU_U] 
         0000012d 0000 
     912 0000012e 8842          MOVZ      AR6,*-SP[2]           ; [CPU_] |391| 
     913 0000012f 9214!         MOV       AL,@_ClkCfgRegs+20    ; [CPU_] |391| 
     914 00000130 907F          ANDB      AL,#0x7f              ; [CPU_] |391| 
     915 00000131 0EA9          MOVU      ACC,AL                ; [CPU_] |391| 
     916 00000132 0FA6          CMPL      ACC,XAR6              ; [CPU_] |391| 
TMS320C2000 Assembler PC v6.4.2 Thu Dec 14 15:26:44 2017

Tools Copyright (c) 1996-2015 Texas Instruments Incorporated
F2837xS_SysCtrl.asm                                                  PAGE   20

     917 00000133 ED08          BF        $C$L8,NEQ             ; [CPU_] |391| 
     918                      ; branchcc occurs ; [] |391| 
     919 00000134 8843          MOVZ      AR6,*-SP[3]           ; [CPU_] |391| 
     920 00000135 CC14!         AND       AL,@_ClkCfgRegs+20,#0x0300 ; [CPU_] |391| 
         00000136 0300 
     921 00000137 FFC7          LSR       AL,8                  ; [CPU_] |391| 
     922 00000138 0EA9          MOVU      ACC,AL                ; [CPU_] |391| 
     923 00000139 0FA6          CMPL      ACC,XAR6              ; [CPU_] |391| 
     924 0000013a EC27          BF        $C$L11,EQ             ; [CPU_] |391| 
     925                      ; branchcc occurs ; [] |391| 
     926 0000013b       $C$L8:    
     927              
     928              $C$DW$54        .dwtag  DW_TAG_lexical_block, DW_AT_low_pc(0x00), DW_AT_high_pc(0x00)
     929              $C$DW$55        .dwtag  DW_TAG_variable, DW_AT_name("temp_syspllmult")
     930                      .dwattr $C$DW$55, DW_AT_TI_symbol_name("_temp_syspllmult")
     931                      .dwattr $C$DW$55, DW_AT_type(*$C$DW$T$27)
     932                      .dwattr $C$DW$55, DW_AT_location[DW_OP_breg20 -6]
     933                      .dwpsn  file "C:/ti/controlSUITE/device_support/F2837xS/v170/F2837xS_common/source/F2837xS_SysCtrl.c"
     934 0000013b 180E!         AND       @_ClkCfgRegs+14,#0xfffd ; [CPU_] |394| 
         0000013c FFFD 
     935                      .dwpsn  file "C:/ti/controlSUITE/device_support/F2837xS/v170/F2837xS_common/source/F2837xS_SysCtrl.c"
     936 0000013d 1822!         AND       @_ClkCfgRegs+34,#0xffc0 ; [CPU_] |395| 
         0000013e FFC0 
     937                      .dwpsn  file "C:/ti/controlSUITE/device_support/F2837xS/v170/F2837xS_common/source/F2837xS_SysCtrl.c"
     938 0000013f 0614!         MOVL      ACC,@_ClkCfgRegs+20   ; [CPU_] |398| 
     939 00000140 1E46          MOVL      *-SP[6],ACC           ; [CPU_] |398| 
     940                      .dwpsn  file "C:/ti/controlSUITE/device_support/F2837xS/v170/F2837xS_common/source/F2837xS_SysCtrl.c"
     941 00000141 8F00          MOVL      XAR4,#64640           ; [CPU_U] |399| 
         00000142 FC80 
     942 00000143 A8AB          MOVL      P,XAR4                ; [CPU_] |399| 
     943 00000144 93AB          MOV       AH,PL                 ; [CPU_] |399| 
     944 00000145 92AA          MOV       AL,PH                 ; [CPU_] |399| 
     945 00000146 CF46          AND       AH,*-SP[6]            ; [CPU_] |399| 
     946 00000147 CE45          AND       AL,*-SP[5]            ; [CPU_] |399| 
     947 00000148 27A8          MOV       PL,AH                 ; [CPU_] |399| 
     948 00000149 2FA9          MOV       PH,AL                 ; [CPU_] |399| 
     949 0000014a 5603          MOV       ACC,*-SP[3] << #8     ; [CPU_] |399| 
         0000014b 0843 
     950 0000014c CA42          OR        AL,*-SP[2]            ; [CPU_] |399| 
     951 0000014d 88A9          MOVZ      AR6,AL                ; [CPU_] |399| 
     952 0000014e A9A9          MOVL      ACC,P                 ; [CPU_] |399| 
     953 0000014f AFA6          OR        ACC,AR6               ; [CPU_] |399| 
     954 00000150 1E14!         MOVL      @_ClkCfgRegs+20,ACC   ; [CPU_] |399| 
     955                      .dwpsn  file "C:/ti/controlSUITE/device_support/F2837xS/v170/F2837xS_common/source/F2837xS_SysCtrl.c"
     956 00000151 1A0E!         OR        @_ClkCfgRegs+14,#0x0001 ; [CPU_] |402| 
         00000152 0001 
     957                      .dwpsn  file "C:/ti/controlSUITE/device_support/F2837xS/v170/F2837xS_common/source/F2837xS_SysCtrl.c"
     958 00000153       $C$L9:    
     959                      .dwpsn  file "C:/ti/controlSUITE/device_support/F2837xS/v170/F2837xS_common/source/F2837xS_SysCtrl.c"
     960 00000153 9216!         MOV       AL,@_ClkCfgRegs+22    ; [CPU_] |405| 
     961 00000154 9001          ANDB      AL,#0x01              ; [CPU_] |405| 
     962 00000155 5201          CMPB      AL,#1                 ; [CPU_] |405| 
     963 00000156 EDFD          BF        $C$L9,NEQ             ; [CPU_] |405| 
     964                      ; branchcc occurs ; [] |405| 
     965                      .dwpsn  file "C:/ti/controlSUITE/device_support/F2837xS/v170/F2837xS_common/source/F2837xS_SysCtrl.c"
TMS320C2000 Assembler PC v6.4.2 Thu Dec 14 15:26:44 2017

Tools Copyright (c) 1996-2015 Texas Instruments Incorporated
F2837xS_SysCtrl.asm                                                  PAGE   21

     966 00000157 9242          MOV       AL,*-SP[2]            ; [CPU_] |413| 
     967 00000158 CD14!         AND       AH,@_ClkCfgRegs+20,#0xff80 ; [CPU_] |413| 
         00000159 FF80 
     968 0000015a 907F          ANDB      AL,#0x7f              ; [CPU_] |413| 
     969 0000015b CAA8          OR        AL,AH                 ; [CPU_] |413| 
     970 0000015c 9614!         MOV       @_ClkCfgRegs+20,AL    ; [CPU_] |413| 
     971                      .dwpsn  file "C:/ti/controlSUITE/device_support/F2837xS/v170/F2837xS_common/source/F2837xS_SysCtrl.c"
     972 0000015d       $C$L10:    
     973                      .dwpsn  file "C:/ti/controlSUITE/device_support/F2837xS/v170/F2837xS_common/source/F2837xS_SysCtrl.c"
     974 0000015d 9216!         MOV       AL,@_ClkCfgRegs+22    ; [CPU_] |416| 
     975 0000015e 9001          ANDB      AL,#0x01              ; [CPU_] |416| 
     976 0000015f 5201          CMPB      AL,#1                 ; [CPU_] |416| 
     977 00000160 EDFD          BF        $C$L10,NEQ            ; [CPU_] |416| 
     978                      ; branchcc occurs ; [] |416| 
     979                      .dwendtag $C$DW$54
     980              
     981 00000161       $C$L11:    
     982                      .dwpsn  file "C:/ti/controlSUITE/device_support/F2837xS/v170/F2837xS_common/source/F2837xS_SysCtrl.c"
     983 00000161 9244          MOV       AL,*-SP[4]            ; [CPU_] |424| 
     984 00000162 523F          CMPB      AL,#63                ; [CPU_] |424| 
     985 00000163 EC08          BF        $C$L12,EQ             ; [CPU_] |424| 
     986                      ; branchcc occurs ; [] |424| 
     987                      .dwpsn  file "C:/ti/controlSUITE/device_support/F2837xS/v170/F2837xS_common/source/F2837xS_SysCtrl.c"
     988 00000164 9C01          ADDB      AL,#1                 ; [CPU_] |426| 
     989 00000165 CD22!         AND       AH,@_ClkCfgRegs+34,#0xffc0 ; [CPU_] |426| 
         00000166 FFC0 
     990 00000167 903F          ANDB      AL,#0x3f              ; [CPU_] |426| 
     991 00000168 CAA8          OR        AL,AH                 ; [CPU_] |426| 
     992 00000169 9622!         MOV       @_ClkCfgRegs+34,AL    ; [CPU_] |426| 
     993                      .dwpsn  file "C:/ti/controlSUITE/device_support/F2837xS/v170/F2837xS_common/source/F2837xS_SysCtrl.c"
     994 0000016a 6F06          B         $C$L13,UNC            ; [CPU_] |427| 
     995                      ; branch occurs ; [] |427| 
     996 0000016b       $C$L12:    
     997                      .dwpsn  file "C:/ti/controlSUITE/device_support/F2837xS/v170/F2837xS_common/source/F2837xS_SysCtrl.c"
     998 0000016b CD22!         AND       AH,@_ClkCfgRegs+34,#0xffc0 ; [CPU_] |429| 
         0000016c FFC0 
     999 0000016d 903F          ANDB      AL,#0x3f              ; [CPU_] |429| 
    1000 0000016e CAA8          OR        AL,AH                 ; [CPU_] |429| 
    1001 0000016f 9622!         MOV       @_ClkCfgRegs+34,AL    ; [CPU_] |429| 
    1002 00000170       $C$L13:    
    1003                      .dwpsn  file "C:/ti/controlSUITE/device_support/F2837xS/v170/F2837xS_common/source/F2837xS_SysCtrl.c"
    1004 00000170 1A0E!         OR        @_ClkCfgRegs+14,#0x0002 ; [CPU_] |433| 
         00000171 0002 
    1005                      .dwpsn  file "C:/ti/controlSUITE/device_support/F2837xS/v170/F2837xS_common/source/F2837xS_SysCtrl.c"
    1006 00000172 F664   RPT #100 || NOP
         00000173 7700 
    1007                      .dwpsn  file "C:/ti/controlSUITE/device_support/F2837xS/v170/F2837xS_common/source/F2837xS_SysCtrl.c"
    1008 00000174 9244          MOV       AL,*-SP[4]            ; [CPU_] |439| 
    1009 00000175 CD22!         AND       AH,@_ClkCfgRegs+34,#0xffc0 ; [CPU_] |439| 
         00000176 FFC0 
    1010 00000177 903F          ANDB      AL,#0x3f              ; [CPU_] |439| 
    1011 00000178 CAA8          OR        AL,AH                 ; [CPU_] |439| 
    1012 00000179 9622!         MOV       @_ClkCfgRegs+34,AL    ; [CPU_] |439| 
    1013                      .dwpsn  file "C:/ti/controlSUITE/device_support/F2837xS/v170/F2837xS_common/source/F2837xS_SysCtrl.c"
    1014 0000017a 761A   EDIS
TMS320C2000 Assembler PC v6.4.2 Thu Dec 14 15:26:44 2017

Tools Copyright (c) 1996-2015 Texas Instruments Incorporated
F2837xS_SysCtrl.asm                                                  PAGE   22

    1015                      .dwpsn  file "C:/ti/controlSUITE/device_support/F2837xS/v170/F2837xS_common/source/F2837xS_SysCtrl.c"
    1016 0000017b       $C$L14:    
    1017 0000017b FE86          SUBB      SP,#6                 ; [CPU_U] 
    1018                      .dwcfi  cfa_offset, -2
    1019 0000017c FF69          SPM       #0                    ; [CPU_] 
    1020              $C$DW$56        .dwtag  DW_TAG_TI_branch
    1021                      .dwattr $C$DW$56, DW_AT_low_pc(0x00)
    1022                      .dwattr $C$DW$56, DW_AT_TI_return
    1023 0000017d 0006          LRETR     ; [CPU_] 
    1024                      ; return occurs ; [] 
    1025                      .dwattr $C$DW$42, DW_AT_TI_end_file("C:/ti/controlSUITE/device_support/F2837xS/v170/F2837xS_common/so
    1026                      .dwattr $C$DW$42, DW_AT_TI_end_line(0x1b9)
    1027                      .dwattr $C$DW$42, DW_AT_TI_end_column(0x01)
    1028                      .dwendentry
    1029                      .dwendtag $C$DW$42
    1030              
    1031 0000017e               .sect   ".text"
    1032                      .clink
    1033                      .global _InitAuxPll
    1034              
    1035              $C$DW$57        .dwtag  DW_TAG_subprogram, DW_AT_name("InitAuxPll")
    1036                      .dwattr $C$DW$57, DW_AT_low_pc(_InitAuxPll)
    1037                      .dwattr $C$DW$57, DW_AT_high_pc(0x00)
    1038                      .dwattr $C$DW$57, DW_AT_TI_symbol_name("_InitAuxPll")
    1039                      .dwattr $C$DW$57, DW_AT_external
    1040                      .dwattr $C$DW$57, DW_AT_TI_begin_file("C:/ti/controlSUITE/device_support/F2837xS/v170/F2837xS_common/
    1041                      .dwattr $C$DW$57, DW_AT_TI_begin_line(0x1c4)
    1042                      .dwattr $C$DW$57, DW_AT_TI_begin_column(0x06)
    1043                      .dwattr $C$DW$57, DW_AT_TI_max_frame_size(-10)
    1044                      .dwpsn  file "C:/ti/controlSUITE/device_support/F2837xS/v170/F2837xS_common/source/F2837xS_SysCtrl.c"
    1045              
    1046                      .dwfde $C$DW$CIE, _InitAuxPll
    1047              $C$DW$58        .dwtag  DW_TAG_formal_parameter, DW_AT_name("clock_source")
    1048                      .dwattr $C$DW$58, DW_AT_TI_symbol_name("_clock_source")
    1049                      .dwattr $C$DW$58, DW_AT_type(*$C$DW$T$19)
    1050                      .dwattr $C$DW$58, DW_AT_location[DW_OP_reg0]
    1051              $C$DW$59        .dwtag  DW_TAG_formal_parameter, DW_AT_name("imult")
    1052                      .dwattr $C$DW$59, DW_AT_TI_symbol_name("_imult")
    1053                      .dwattr $C$DW$59, DW_AT_type(*$C$DW$T$19)
    1054                      .dwattr $C$DW$59, DW_AT_location[DW_OP_reg1]
    1055              $C$DW$60        .dwtag  DW_TAG_formal_parameter, DW_AT_name("fmult")
    1056                      .dwattr $C$DW$60, DW_AT_TI_symbol_name("_fmult")
    1057                      .dwattr $C$DW$60, DW_AT_type(*$C$DW$T$19)
    1058                      .dwattr $C$DW$60, DW_AT_location[DW_OP_reg12]
    1059              $C$DW$61        .dwtag  DW_TAG_formal_parameter, DW_AT_name("divsel")
    1060                      .dwattr $C$DW$61, DW_AT_TI_symbol_name("_divsel")
    1061                      .dwattr $C$DW$61, DW_AT_type(*$C$DW$T$19)
    1062                      .dwattr $C$DW$61, DW_AT_location[DW_OP_reg14]
    1063              
    1064              ;***************************************************************
    1065              ;* FNAME: _InitAuxPll                   FR SIZE:   8           *
    1066              ;*                                                             *
    1067              ;* FUNCTION ENVIRONMENT                                        *
    1068              ;*                                                             *
    1069              ;* FUNCTION PROPERTIES                                         *
TMS320C2000 Assembler PC v6.4.2 Thu Dec 14 15:26:44 2017

Tools Copyright (c) 1996-2015 Texas Instruments Incorporated
F2837xS_SysCtrl.asm                                                  PAGE   23

    1070              ;*                            0 Parameter,  8 Auto,  0 SOE     *
    1071              ;***************************************************************
    1072              
    1073 0000017e       _InitAuxPll:
    1074                      .dwcfi  cfa_offset, -2
    1075                      .dwcfi  save_reg_to_mem, 26, 0
    1076 0000017e FE08          ADDB      SP,#8                 ; [CPU_U] 
    1077                      .dwcfi  cfa_offset, -10
    1078              $C$DW$62        .dwtag  DW_TAG_variable, DW_AT_name("clock_source")
    1079                      .dwattr $C$DW$62, DW_AT_TI_symbol_name("_clock_source")
    1080                      .dwattr $C$DW$62, DW_AT_type(*$C$DW$T$19)
    1081                      .dwattr $C$DW$62, DW_AT_location[DW_OP_breg20 -1]
    1082              $C$DW$63        .dwtag  DW_TAG_variable, DW_AT_name("imult")
    1083                      .dwattr $C$DW$63, DW_AT_TI_symbol_name("_imult")
    1084                      .dwattr $C$DW$63, DW_AT_type(*$C$DW$T$19)
    1085                      .dwattr $C$DW$63, DW_AT_location[DW_OP_breg20 -2]
    1086              $C$DW$64        .dwtag  DW_TAG_variable, DW_AT_name("fmult")
    1087                      .dwattr $C$DW$64, DW_AT_TI_symbol_name("_fmult")
    1088                      .dwattr $C$DW$64, DW_AT_type(*$C$DW$T$19)
    1089                      .dwattr $C$DW$64, DW_AT_location[DW_OP_breg20 -3]
    1090              $C$DW$65        .dwtag  DW_TAG_variable, DW_AT_name("divsel")
    1091                      .dwattr $C$DW$65, DW_AT_TI_symbol_name("_divsel")
    1092                      .dwattr $C$DW$65, DW_AT_type(*$C$DW$T$19)
    1093                      .dwattr $C$DW$65, DW_AT_location[DW_OP_breg20 -4]
    1094              $C$DW$66        .dwtag  DW_TAG_variable, DW_AT_name("temp_divsel")
    1095                      .dwattr $C$DW$66, DW_AT_TI_symbol_name("_temp_divsel")
    1096                      .dwattr $C$DW$66, DW_AT_type(*$C$DW$T$19)
    1097                      .dwattr $C$DW$66, DW_AT_location[DW_OP_breg20 -5]
    1098 0000017f 7D44          MOV       *-SP[4],AR5           ; [CPU_] |453| 
    1099 00000180 7C43          MOV       *-SP[3],AR4           ; [CPU_] |453| 
    1100 00000181 9742          MOV       *-SP[2],AH            ; [CPU_] |453| 
    1101 00000182 9641          MOV       *-SP[1],AL            ; [CPU_] |453| 
    1102                      .dwpsn  file "C:/ti/controlSUITE/device_support/F2837xS/v170/F2837xS_common/source/F2837xS_SysCtrl.c"
    1103 00000183 761F!         MOVW      DP,#_ClkCfgRegs+10    ; [CPU_U] 
         00000184 0000 
    1104 00000185 8841          MOVZ      AR6,*-SP[1]           ; [CPU_] |456| 
    1105 00000186 920A!         MOV       AL,@_ClkCfgRegs+10    ; [CPU_] |456| 
    1106 00000187 9003          ANDB      AL,#0x03              ; [CPU_] |456| 
    1107 00000188 0EA9          MOVU      ACC,AL                ; [CPU_] |456| 
    1108 00000189 0FA6          CMPL      ACC,XAR6              ; [CPU_] |456| 
    1109 0000018a ED1E          BF        $C$L18,NEQ            ; [CPU_] |456| 
    1110                      ; branchcc occurs ; [] |456| 
    1111 0000018b 8842          MOVZ      AR6,*-SP[2]           ; [CPU_] |456| 
    1112 0000018c 921E!         MOV       AL,@_ClkCfgRegs+30    ; [CPU_] |456| 
    1113 0000018d 907F          ANDB      AL,#0x7f              ; [CPU_] |456| 
    1114 0000018e 0EA9          MOVU      ACC,AL                ; [CPU_] |456| 
    1115 0000018f 0FA6          CMPL      ACC,XAR6              ; [CPU_] |456| 
    1116 00000190 ED18          BF        $C$L18,NEQ            ; [CPU_] |456| 
    1117                      ; branchcc occurs ; [] |456| 
    1118 00000191 8843          MOVZ      AR6,*-SP[3]           ; [CPU_] |456| 
    1119 00000192 CC1E!         AND       AL,@_ClkCfgRegs+30,#0x0300 ; [CPU_] |456| 
         00000193 0300 
    1120 00000194 FFC7          LSR       AL,8                  ; [CPU_] |456| 
    1121 00000195 0EA9          MOVU      ACC,AL                ; [CPU_] |456| 
    1122 00000196 0FA6          CMPL      ACC,XAR6              ; [CPU_] |456| 
TMS320C2000 Assembler PC v6.4.2 Thu Dec 14 15:26:44 2017

Tools Copyright (c) 1996-2015 Texas Instruments Incorporated
F2837xS_SysCtrl.asm                                                  PAGE   24

    1123 00000197 ED11          BF        $C$L18,NEQ            ; [CPU_] |456| 
    1124                      ; branchcc occurs ; [] |456| 
    1125 00000198 8844          MOVZ      AR6,*-SP[4]           ; [CPU_] |456| 
    1126 00000199 9224!         MOV       AL,@_ClkCfgRegs+36    ; [CPU_] |456| 
    1127 0000019a 9003          ANDB      AL,#0x03              ; [CPU_] |456| 
    1128 0000019b 0EA9          MOVU      ACC,AL                ; [CPU_] |456| 
    1129 0000019c 0FA6          CMPL      ACC,XAR6              ; [CPU_] |456| 
    1130 0000019d EC75          BF        $C$L26,EQ             ; [CPU_] |456| 
    1131                      ; branchcc occurs ; [] |456| 
    1132                      .dwpsn  file "C:/ti/controlSUITE/device_support/F2837xS/v170/F2837xS_common/source/F2837xS_SysCtrl.c"
    1133                      .dwpsn  file "C:/ti/controlSUITE/device_support/F2837xS/v170/F2837xS_common/source/F2837xS_SysCtrl.c"
    1134 0000019e 6F0A          B         $C$L18,UNC            ; [CPU_] |465| 
    1135                      ; branch occurs ; [] |465| 
    1136 0000019f       $C$L15:    
    1137                      .dwpsn  file "C:/ti/controlSUITE/device_support/F2837xS/v170/F2837xS_common/source/F2837xS_SysCtrl.c"
    1138              $C$DW$67        .dwtag  DW_TAG_TI_branch
    1139                      .dwattr $C$DW$67, DW_AT_low_pc(0x00)
    1140                      .dwattr $C$DW$67, DW_AT_name("_AuxIntOsc2Sel")
    1141                      .dwattr $C$DW$67, DW_AT_TI_call
    1142 0000019f 7640'         LCR       #_AuxIntOsc2Sel       ; [CPU_] |469| 
         000001a0 0256 
    1143                      ; call occurs [#_AuxIntOsc2Sel] ; [] |469| 
    1144                      .dwpsn  file "C:/ti/controlSUITE/device_support/F2837xS/v170/F2837xS_common/source/F2837xS_SysCtrl.c"
    1145 000001a1 6F0D          B         $C$L19,UNC            ; [CPU_] |470| 
    1146                      ; branch occurs ; [] |470| 
    1147 000001a2       $C$L16:    
    1148                      .dwpsn  file "C:/ti/controlSUITE/device_support/F2837xS/v170/F2837xS_common/source/F2837xS_SysCtrl.c"
    1149              $C$DW$68        .dwtag  DW_TAG_TI_branch
    1150                      .dwattr $C$DW$68, DW_AT_low_pc(0x00)
    1151                      .dwattr $C$DW$68, DW_AT_name("_AuxXtalOscSel")
    1152                      .dwattr $C$DW$68, DW_AT_TI_call
    1153 000001a2 7640'         LCR       #_AuxXtalOscSel       ; [CPU_] |473| 
         000001a3 0260 
    1154                      ; call occurs [#_AuxXtalOscSel] ; [] |473| 
    1155                      .dwpsn  file "C:/ti/controlSUITE/device_support/F2837xS/v170/F2837xS_common/source/F2837xS_SysCtrl.c"
    1156 000001a4 6F0A          B         $C$L19,UNC            ; [CPU_] |474| 
    1157                      ; branch occurs ; [] |474| 
    1158 000001a5       $C$L17:    
    1159                      .dwpsn  file "C:/ti/controlSUITE/device_support/F2837xS/v170/F2837xS_common/source/F2837xS_SysCtrl.c"
    1160              $C$DW$69        .dwtag  DW_TAG_TI_branch
    1161                      .dwattr $C$DW$69, DW_AT_low_pc(0x00)
    1162                      .dwattr $C$DW$69, DW_AT_name("_AuxAuxClkSel")
    1163                      .dwattr $C$DW$69, DW_AT_TI_call
    1164 000001a5 7640'         LCR       #_AuxAuxClkSel        ; [CPU_] |477| 
         000001a6 026C 
    1165                      ; call occurs [#_AuxAuxClkSel] ; [] |477| 
    1166                      .dwpsn  file "C:/ti/controlSUITE/device_support/F2837xS/v170/F2837xS_common/source/F2837xS_SysCtrl.c"
    1167 000001a7 6F07          B         $C$L19,UNC            ; [CPU_] |478| 
    1168                      ; branch occurs ; [] |478| 
    1169 000001a8       $C$L18:    
    1170                      .dwpsn  file "C:/ti/controlSUITE/device_support/F2837xS/v170/F2837xS_common/source/F2837xS_SysCtrl.c"
    1171 000001a8 9241          MOV       AL,*-SP[1]            ; [CPU_] |465| 
    1172 000001a9 ECF6          BF        $C$L15,EQ             ; [CPU_] |465| 
    1173                      ; branchcc occurs ; [] |465| 
    1174 000001aa 5201          CMPB      AL,#1                 ; [CPU_] |465| 
TMS320C2000 Assembler PC v6.4.2 Thu Dec 14 15:26:44 2017

Tools Copyright (c) 1996-2015 Texas Instruments Incorporated
F2837xS_SysCtrl.asm                                                  PAGE   25

    1175 000001ab ECF7          BF        $C$L16,EQ             ; [CPU_] |465| 
    1176                      ; branchcc occurs ; [] |465| 
    1177 000001ac 5204          CMPB      AL,#4                 ; [CPU_] |465| 
    1178 000001ad ECF8          BF        $C$L17,EQ             ; [CPU_] |465| 
    1179                      ; branchcc occurs ; [] |465| 
    1180 000001ae       $C$L19:    
    1181                      .dwpsn  file "C:/ti/controlSUITE/device_support/F2837xS/v170/F2837xS_common/source/F2837xS_SysCtrl.c"
    1182 000001ae 0E42          MOVU      ACC,*-SP[2]           ; [CPU_] |483| 
    1183 000001af 761F!         MOVW      DP,#_ClkCfgRegs+30    ; [CPU_U] 
         000001b0 0000 
    1184 000001b1 1EA6          MOVL      XAR6,ACC              ; [CPU_] |483| 
    1185 000001b2 921E!         MOV       AL,@_ClkCfgRegs+30    ; [CPU_] |483| 
    1186 000001b3 907F          ANDB      AL,#0x7f              ; [CPU_] |483| 
    1187 000001b4 80A9          MOVZ      AR7,AL                ; [CPU_] |483| 
    1188 000001b5 06A6          MOVL      ACC,XAR6              ; [CPU_] |483| 
    1189 000001b6 0FA7          CMPL      ACC,XAR7              ; [CPU_] |483| 
    1190 000001b7 ED0A          BF        $C$L20,NEQ            ; [CPU_] |483| 
    1191                      ; branchcc occurs ; [] |483| 
    1192 000001b8 0E43          MOVU      ACC,*-SP[3]           ; [CPU_] |483| 
    1193 000001b9 1EA6          MOVL      XAR6,ACC              ; [CPU_] |483| 
    1194 000001ba CC1E!         AND       AL,@_ClkCfgRegs+30,#0x0300 ; [CPU_] |483| 
         000001bb 0300 
    1195 000001bc FFC7          LSR       AL,8                  ; [CPU_] |483| 
    1196 000001bd 80A9          MOVZ      AR7,AL                ; [CPU_] |483| 
    1197 000001be 06A6          MOVL      ACC,XAR6              ; [CPU_] |483| 
    1198 000001bf 0FA7          CMPL      ACC,XAR7              ; [CPU_] |483| 
    1199 000001c0 EC29          BF        $C$L23,EQ             ; [CPU_] |483| 
    1200                      ; branchcc occurs ; [] |483| 
    1201 000001c1       $C$L20:    
    1202              
    1203              $C$DW$70        .dwtag  DW_TAG_lexical_block, DW_AT_low_pc(0x00), DW_AT_high_pc(0x00)
    1204              $C$DW$71        .dwtag  DW_TAG_variable, DW_AT_name("temp_auxpllmult")
    1205                      .dwattr $C$DW$71, DW_AT_TI_symbol_name("_temp_auxpllmult")
    1206                      .dwattr $C$DW$71, DW_AT_type(*$C$DW$T$27)
    1207                      .dwattr $C$DW$71, DW_AT_location[DW_OP_breg20 -8]
    1208                      .dwpsn  file "C:/ti/controlSUITE/device_support/F2837xS/v170/F2837xS_common/source/F2837xS_SysCtrl.c"
    1209 000001c1 7622   EALLOW
    1210                      .dwpsn  file "C:/ti/controlSUITE/device_support/F2837xS/v170/F2837xS_common/source/F2837xS_SysCtrl.c"
    1211 000001c2 1A24!         OR        @_ClkCfgRegs+36,#0x0003 ; [CPU_] |486| 
         000001c3 0003 
    1212                      .dwpsn  file "C:/ti/controlSUITE/device_support/F2837xS/v170/F2837xS_common/source/F2837xS_SysCtrl.c"
    1213 000001c4 061E!         MOVL      ACC,@_ClkCfgRegs+30   ; [CPU_] |489| 
    1214 000001c5 1E48          MOVL      *-SP[8],ACC           ; [CPU_] |489| 
    1215                      .dwpsn  file "C:/ti/controlSUITE/device_support/F2837xS/v170/F2837xS_common/source/F2837xS_SysCtrl.c"
    1216 000001c6 8F00          MOVL      XAR4,#64640           ; [CPU_U] |490| 
         000001c7 FC80 
    1217 000001c8 A8AB          MOVL      P,XAR4                ; [CPU_] |490| 
    1218 000001c9 93AB          MOV       AH,PL                 ; [CPU_] |490| 
    1219 000001ca 92AA          MOV       AL,PH                 ; [CPU_] |490| 
    1220 000001cb CF48          AND       AH,*-SP[8]            ; [CPU_] |490| 
    1221 000001cc CE47          AND       AL,*-SP[7]            ; [CPU_] |490| 
    1222 000001cd 27A8          MOV       PL,AH                 ; [CPU_] |490| 
    1223 000001ce 2FA9          MOV       PH,AL                 ; [CPU_] |490| 
    1224 000001cf 5603          MOV       ACC,*-SP[3] << #8     ; [CPU_] |490| 
         000001d0 0843 
TMS320C2000 Assembler PC v6.4.2 Thu Dec 14 15:26:44 2017

Tools Copyright (c) 1996-2015 Texas Instruments Incorporated
F2837xS_SysCtrl.asm                                                  PAGE   26

    1225 000001d1 CA42          OR        AL,*-SP[2]            ; [CPU_] |490| 
    1226 000001d2 88A9          MOVZ      AR6,AL                ; [CPU_] |490| 
    1227 000001d3 A9A9          MOVL      ACC,P                 ; [CPU_] |490| 
    1228 000001d4 AFA6          OR        ACC,AR6               ; [CPU_] |490| 
    1229 000001d5 1E1E!         MOVL      @_ClkCfgRegs+30,ACC   ; [CPU_] |490| 
    1230                      .dwpsn  file "C:/ti/controlSUITE/device_support/F2837xS/v170/F2837xS_common/source/F2837xS_SysCtrl.c"
    1231 000001d6 1A18!         OR        @_ClkCfgRegs+24,#0x0001 ; [CPU_] |493| 
         000001d7 0001 
    1232                      .dwpsn  file "C:/ti/controlSUITE/device_support/F2837xS/v170/F2837xS_common/source/F2837xS_SysCtrl.c"
    1233 000001d8 761A   EDIS
    1234                      .dwpsn  file "C:/ti/controlSUITE/device_support/F2837xS/v170/F2837xS_common/source/F2837xS_SysCtrl.c"
    1235 000001d9       $C$L21:    
    1236                      .dwpsn  file "C:/ti/controlSUITE/device_support/F2837xS/v170/F2837xS_common/source/F2837xS_SysCtrl.c"
    1237 000001d9 9220!         MOV       AL,@_ClkCfgRegs+32    ; [CPU_] |497| 
    1238 000001da 9001          ANDB      AL,#0x01              ; [CPU_] |497| 
    1239 000001db 5201          CMPB      AL,#1                 ; [CPU_] |497| 
    1240 000001dc EDFD          BF        $C$L21,NEQ            ; [CPU_] |497| 
    1241                      ; branchcc occurs ; [] |497| 
    1242                      .dwpsn  file "C:/ti/controlSUITE/device_support/F2837xS/v170/F2837xS_common/source/F2837xS_SysCtrl.c"
    1243 000001dd 7622   EALLOW
    1244                      .dwpsn  file "C:/ti/controlSUITE/device_support/F2837xS/v170/F2837xS_common/source/F2837xS_SysCtrl.c"
    1245 000001de 9242          MOV       AL,*-SP[2]            ; [CPU_] |506| 
    1246 000001df CD1E!         AND       AH,@_ClkCfgRegs+30,#0xff80 ; [CPU_] |506| 
         000001e0 FF80 
    1247 000001e1 907F          ANDB      AL,#0x7f              ; [CPU_] |506| 
    1248 000001e2 CAA8          OR        AL,AH                 ; [CPU_] |506| 
    1249 000001e3 961E!         MOV       @_ClkCfgRegs+30,AL    ; [CPU_] |506| 
    1250                      .dwpsn  file "C:/ti/controlSUITE/device_support/F2837xS/v170/F2837xS_common/source/F2837xS_SysCtrl.c"
    1251 000001e4 761A   EDIS
    1252                      .dwpsn  file "C:/ti/controlSUITE/device_support/F2837xS/v170/F2837xS_common/source/F2837xS_SysCtrl.c"
    1253 000001e5       $C$L22:    
    1254                      .dwpsn  file "C:/ti/controlSUITE/device_support/F2837xS/v170/F2837xS_common/source/F2837xS_SysCtrl.c"
    1255 000001e5 9220!         MOV       AL,@_ClkCfgRegs+32    ; [CPU_] |510| 
    1256 000001e6 9001          ANDB      AL,#0x01              ; [CPU_] |510| 
    1257 000001e7 5201          CMPB      AL,#1                 ; [CPU_] |510| 
    1258 000001e8 EDFD          BF        $C$L22,NEQ            ; [CPU_] |510| 
    1259                      ; branchcc occurs ; [] |510| 
    1260                      .dwendtag $C$DW$70
    1261              
    1262 000001e9       $C$L23:    
    1263                      .dwpsn  file "C:/ti/controlSUITE/device_support/F2837xS/v170/F2837xS_common/source/F2837xS_SysCtrl.c"
    1264 000001e9 56BF          MOVB      *-SP[5],#3,UNC        ; [CPU_] |518| 
         000001ea 0345 
    1265                      .dwpsn  file "C:/ti/controlSUITE/device_support/F2837xS/v170/F2837xS_common/source/F2837xS_SysCtrl.c"
    1266 000001eb 6F19          B         $C$L25,UNC            ; [CPU_] |519| 
    1267                      ; branch occurs ; [] |519| 
    1268 000001ec       $C$L24:    
    1269                      .dwpsn  file "C:/ti/controlSUITE/device_support/F2837xS/v170/F2837xS_common/source/F2837xS_SysCtrl.c"
    1270 000001ec 7622   EALLOW
    1271                      .dwpsn  file "C:/ti/controlSUITE/device_support/F2837xS/v170/F2837xS_common/source/F2837xS_SysCtrl.c"
    1272 000001ed 9245          MOV       AL,*-SP[5]            ; [CPU_] |522| 
    1273 000001ee CD24!         AND       AH,@_ClkCfgRegs+36,#0xfffc ; [CPU_] |522| 
         000001ef FFFC 
    1274 000001f0 9CFF          ADDB      AL,#-1                ; [CPU_] |522| 
    1275 000001f1 9003          ANDB      AL,#0x03              ; [CPU_] |522| 
TMS320C2000 Assembler PC v6.4.2 Thu Dec 14 15:26:44 2017

Tools Copyright (c) 1996-2015 Texas Instruments Incorporated
F2837xS_SysCtrl.asm                                                  PAGE   27

    1276 000001f2 CAA8          OR        AL,AH                 ; [CPU_] |522| 
    1277 000001f3 9624!         MOV       @_ClkCfgRegs+36,AL    ; [CPU_] |522| 
    1278                      .dwpsn  file "C:/ti/controlSUITE/device_support/F2837xS/v170/F2837xS_common/source/F2837xS_SysCtrl.c"
    1279 000001f4 761A   EDIS
    1280                      .dwpsn  file "C:/ti/controlSUITE/device_support/F2837xS/v170/F2837xS_common/source/F2837xS_SysCtrl.c"
    1281 000001f5 0B45          DEC       *-SP[5]               ; [CPU_] |525| 
    1282                      .dwpsn  file "C:/ti/controlSUITE/device_support/F2837xS/v170/F2837xS_common/source/F2837xS_SysCtrl.c"
    1283 000001f6 0E44          MOVU      ACC,*-SP[4]           ; [CPU_] |526| 
    1284 000001f7 1EA6          MOVL      XAR6,ACC              ; [CPU_] |526| 
    1285 000001f8 9224!         MOV       AL,@_ClkCfgRegs+36    ; [CPU_] |526| 
    1286 000001f9 9003          ANDB      AL,#0x03              ; [CPU_] |526| 
    1287 000001fa 80A9          MOVZ      AR7,AL                ; [CPU_] |526| 
    1288 000001fb 06A6          MOVL      ACC,XAR6              ; [CPU_] |526| 
    1289 000001fc 0FA7          CMPL      ACC,XAR7              ; [CPU_] |526| 
    1290 000001fd EC07          BF        $C$L25,EQ             ; [CPU_] |526| 
    1291                      ; branchcc occurs ; [] |526| 
    1292                      .dwpsn  file "C:/ti/controlSUITE/device_support/F2837xS/v170/F2837xS_common/source/F2837xS_SysCtrl.c"
    1293 000001fe 8F00          MOVL      XAR4,#598             ; [CPU_U] |528| 
         000001ff 0256 
    1294 00000200 FF69          SPM       #0                    ; [CPU_] 
    1295 00000201 A8A9          MOVL      ACC,XAR4              ; [CPU_] |528| 
    1296              $C$DW$72        .dwtag  DW_TAG_TI_branch
    1297                      .dwattr $C$DW$72, DW_AT_low_pc(0x00)
    1298                      .dwattr $C$DW$72, DW_AT_name("_F28x_usDelay")
    1299                      .dwattr $C$DW$72, DW_AT_TI_call
    1300 00000202 7640!         LCR       #_F28x_usDelay        ; [CPU_] |528| 
         00000203 0000 
    1301                      ; call occurs [#_F28x_usDelay] ; [] |528| 
    1302 00000204       $C$L25:    
    1303                      .dwpsn  file "C:/ti/controlSUITE/device_support/F2837xS/v170/F2837xS_common/source/F2837xS_SysCtrl.c"
    1304 00000204 0E44          MOVU      ACC,*-SP[4]           ; [CPU_] |519| 
    1305 00000205 761F!         MOVW      DP,#_ClkCfgRegs+36    ; [CPU_U] 
         00000206 0000 
    1306 00000207 1EA6          MOVL      XAR6,ACC              ; [CPU_] |519| 
    1307 00000208 9224!         MOV       AL,@_ClkCfgRegs+36    ; [CPU_] |519| 
    1308 00000209 9003          ANDB      AL,#0x03              ; [CPU_] |519| 
    1309 0000020a 80A9          MOVZ      AR7,AL                ; [CPU_] |519| 
    1310 0000020b 06A6          MOVL      ACC,XAR6              ; [CPU_] |519| 
    1311 0000020c 0FA7          CMPL      ACC,XAR7              ; [CPU_] |519| 
    1312 0000020d EDDF          BF        $C$L24,NEQ            ; [CPU_] |519| 
    1313                      ; branchcc occurs ; [] |519| 
    1314                      .dwpsn  file "C:/ti/controlSUITE/device_support/F2837xS/v170/F2837xS_common/source/F2837xS_SysCtrl.c"
    1315 0000020e 7622   EALLOW
    1316                      .dwpsn  file "C:/ti/controlSUITE/device_support/F2837xS/v170/F2837xS_common/source/F2837xS_SysCtrl.c"
    1317 0000020f 1A18!         OR        @_ClkCfgRegs+24,#0x0002 ; [CPU_] |533| 
         00000210 0002 
    1318                      .dwpsn  file "C:/ti/controlSUITE/device_support/F2837xS/v170/F2837xS_common/source/F2837xS_SysCtrl.c"
    1319 00000211 761A   EDIS
    1320                      .dwpsn  file "C:/ti/controlSUITE/device_support/F2837xS/v170/F2837xS_common/source/F2837xS_SysCtrl.c"
    1321 00000212       $C$L26:    
    1322 00000212 FE88          SUBB      SP,#8                 ; [CPU_U] 
    1323                      .dwcfi  cfa_offset, -2
    1324 00000213 FF69          SPM       #0                    ; [CPU_] 
    1325              $C$DW$73        .dwtag  DW_TAG_TI_branch
    1326                      .dwattr $C$DW$73, DW_AT_low_pc(0x00)
TMS320C2000 Assembler PC v6.4.2 Thu Dec 14 15:26:44 2017

Tools Copyright (c) 1996-2015 Texas Instruments Incorporated
F2837xS_SysCtrl.asm                                                  PAGE   28

    1327                      .dwattr $C$DW$73, DW_AT_TI_return
    1328 00000214 0006          LRETR     ; [CPU_] 
    1329                      ; return occurs ; [] 
    1330                      .dwattr $C$DW$57, DW_AT_TI_end_file("C:/ti/controlSUITE/device_support/F2837xS/v170/F2837xS_common/so
    1331                      .dwattr $C$DW$57, DW_AT_TI_end_line(0x217)
    1332                      .dwattr $C$DW$57, DW_AT_TI_end_column(0x01)
    1333                      .dwendentry
    1334                      .dwendtag $C$DW$57
    1335              
    1336 00000215               .sect   ".text"
    1337                      .clink
    1338                      .global _CsmUnlock
    1339              
    1340              $C$DW$74        .dwtag  DW_TAG_subprogram, DW_AT_name("CsmUnlock")
    1341                      .dwattr $C$DW$74, DW_AT_low_pc(_CsmUnlock)
    1342                      .dwattr $C$DW$74, DW_AT_high_pc(0x00)
    1343                      .dwattr $C$DW$74, DW_AT_TI_symbol_name("_CsmUnlock")
    1344                      .dwattr $C$DW$74, DW_AT_external
    1345                      .dwattr $C$DW$74, DW_AT_type(*$C$DW$T$19)
    1346                      .dwattr $C$DW$74, DW_AT_TI_begin_file("C:/ti/controlSUITE/device_support/F2837xS/v170/F2837xS_common/
    1347                      .dwattr $C$DW$74, DW_AT_TI_begin_line(0x222)
    1348                      .dwattr $C$DW$74, DW_AT_TI_begin_column(0x08)
    1349                      .dwattr $C$DW$74, DW_AT_TI_max_frame_size(-2)
    1350                      .dwpsn  file "C:/ti/controlSUITE/device_support/F2837xS/v170/F2837xS_common/source/F2837xS_SysCtrl.c"
    1351              
    1352                      .dwfde $C$DW$CIE, _CsmUnlock
    1353              
    1354              ;***************************************************************
    1355              ;* FNAME: _CsmUnlock                    FR SIZE:   0           *
    1356              ;*                                                             *
    1357              ;* FUNCTION ENVIRONMENT                                        *
    1358              ;*                                                             *
    1359              ;* FUNCTION PROPERTIES                                         *
    1360              ;*                            0 Parameter,  0 Auto,  0 SOE     *
    1361              ;***************************************************************
    1362              
    1363 00000215       _CsmUnlock:
    1364                      .dwcfi  cfa_offset, -2
    1365                      .dwcfi  save_reg_to_mem, 26, 0
    1366                      .dwpsn  file "C:/ti/controlSUITE/device_support/F2837xS/v170/F2837xS_common/source/F2837xS_SysCtrl.c"
    1367 00000215 7622   EALLOW
    1368                      .dwpsn  file "C:/ti/controlSUITE/device_support/F2837xS/v170/F2837xS_common/source/F2837xS_SysCtrl.c"
    1369 00000216 0200          MOVB      ACC,#0                ; [CPU_] |563| 
    1370 00000217 761F!         MOVW      DP,#_DcsmZ1Regs+16    ; [CPU_U] 
         00000218 0000 
    1371 00000219 1901          SUBB      ACC,#1                ; [CPU_] |563| 
    1372 0000021a 1E10!         MOVL      @_DcsmZ1Regs+16,ACC   ; [CPU_] |563| 
    1373                      .dwpsn  file "C:/ti/controlSUITE/device_support/F2837xS/v170/F2837xS_common/source/F2837xS_SysCtrl.c"
    1374 0000021b 0200          MOVB      ACC,#0                ; [CPU_] |564| 
    1375 0000021c 1901          SUBB      ACC,#1                ; [CPU_] |564| 
    1376 0000021d 1E12!         MOVL      @_DcsmZ1Regs+18,ACC   ; [CPU_] |564| 
    1377                      .dwpsn  file "C:/ti/controlSUITE/device_support/F2837xS/v170/F2837xS_common/source/F2837xS_SysCtrl.c"
    1378 0000021e 0200          MOVB      ACC,#0                ; [CPU_] |565| 
    1379 0000021f 1901          SUBB      ACC,#1                ; [CPU_] |565| 
    1380 00000220 1E14!         MOVL      @_DcsmZ1Regs+20,ACC   ; [CPU_] |565| 
TMS320C2000 Assembler PC v6.4.2 Thu Dec 14 15:26:44 2017

Tools Copyright (c) 1996-2015 Texas Instruments Incorporated
F2837xS_SysCtrl.asm                                                  PAGE   29

    1381                      .dwpsn  file "C:/ti/controlSUITE/device_support/F2837xS/v170/F2837xS_common/source/F2837xS_SysCtrl.c"
    1382 00000221 0200          MOVB      ACC,#0                ; [CPU_] |566| 
    1383 00000222 1901          SUBB      ACC,#1                ; [CPU_] |566| 
    1384 00000223 1E16!         MOVL      @_DcsmZ1Regs+22,ACC   ; [CPU_] |566| 
    1385                      .dwpsn  file "C:/ti/controlSUITE/device_support/F2837xS/v170/F2837xS_common/source/F2837xS_SysCtrl.c"
    1386 00000224 0200          MOVB      ACC,#0                ; [CPU_] |568| 
    1387 00000225 761F!         MOVW      DP,#_DcsmZ2Regs+16    ; [CPU_U] 
         00000226 0000 
    1388 00000227 1901          SUBB      ACC,#1                ; [CPU_] |568| 
    1389 00000228 1E10!         MOVL      @_DcsmZ2Regs+16,ACC   ; [CPU_] |568| 
    1390                      .dwpsn  file "C:/ti/controlSUITE/device_support/F2837xS/v170/F2837xS_common/source/F2837xS_SysCtrl.c"
    1391 00000229 0200          MOVB      ACC,#0                ; [CPU_] |569| 
    1392 0000022a 1901          SUBB      ACC,#1                ; [CPU_] |569| 
    1393 0000022b 1E12!         MOVL      @_DcsmZ2Regs+18,ACC   ; [CPU_] |569| 
    1394                      .dwpsn  file "C:/ti/controlSUITE/device_support/F2837xS/v170/F2837xS_common/source/F2837xS_SysCtrl.c"
    1395 0000022c 0200          MOVB      ACC,#0                ; [CPU_] |570| 
    1396 0000022d 1901          SUBB      ACC,#1                ; [CPU_] |570| 
    1397 0000022e 1E14!         MOVL      @_DcsmZ2Regs+20,ACC   ; [CPU_] |570| 
    1398                      .dwpsn  file "C:/ti/controlSUITE/device_support/F2837xS/v170/F2837xS_common/source/F2837xS_SysCtrl.c"
    1399 0000022f 0200          MOVB      ACC,#0                ; [CPU_] |571| 
    1400 00000230 1901          SUBB      ACC,#1                ; [CPU_] |571| 
    1401 00000231 1E16!         MOVL      @_DcsmZ2Regs+22,ACC   ; [CPU_] |571| 
    1402                      .dwpsn  file "C:/ti/controlSUITE/device_support/F2837xS/v170/F2837xS_common/source/F2837xS_SysCtrl.c"
    1403 00000232 761A   EDIS
    1404                      .dwpsn  file "C:/ti/controlSUITE/device_support/F2837xS/v170/F2837xS_common/source/F2837xS_SysCtrl.c"
    1405 00000233 9A00          MOVB      AL,#0                 ; [CPU_] |591| 
    1406                      .dwpsn  file "C:/ti/controlSUITE/device_support/F2837xS/v170/F2837xS_common/source/F2837xS_SysCtrl.c"
    1407 00000234 FF69          SPM       #0                    ; [CPU_] 
    1408              $C$DW$75        .dwtag  DW_TAG_TI_branch
    1409                      .dwattr $C$DW$75, DW_AT_low_pc(0x00)
    1410                      .dwattr $C$DW$75, DW_AT_TI_return
    1411 00000235 0006          LRETR     ; [CPU_] 
    1412                      ; return occurs ; [] 
    1413                      .dwattr $C$DW$74, DW_AT_TI_end_file("C:/ti/controlSUITE/device_support/F2837xS/v170/F2837xS_common/so
    1414                      .dwattr $C$DW$74, DW_AT_TI_end_line(0x251)
    1415                      .dwattr $C$DW$74, DW_AT_TI_end_column(0x01)
    1416                      .dwendentry
    1417                      .dwendtag $C$DW$74
    1418              
    1419 00000236               .sect   ".text"
    1420                      .clink
    1421                      .global _SysIntOsc1Sel
    1422              
    1423              $C$DW$76        .dwtag  DW_TAG_subprogram, DW_AT_name("SysIntOsc1Sel")
    1424                      .dwattr $C$DW$76, DW_AT_low_pc(_SysIntOsc1Sel)
    1425                      .dwattr $C$DW$76, DW_AT_high_pc(0x00)
    1426                      .dwattr $C$DW$76, DW_AT_TI_symbol_name("_SysIntOsc1Sel")
    1427                      .dwattr $C$DW$76, DW_AT_external
    1428                      .dwattr $C$DW$76, DW_AT_TI_begin_file("C:/ti/controlSUITE/device_support/F2837xS/v170/F2837xS_common/
    1429                      .dwattr $C$DW$76, DW_AT_TI_begin_line(0x259)
    1430                      .dwattr $C$DW$76, DW_AT_TI_begin_column(0x06)
    1431                      .dwattr $C$DW$76, DW_AT_TI_max_frame_size(-2)
    1432                      .dwpsn  file "C:/ti/controlSUITE/device_support/F2837xS/v170/F2837xS_common/source/F2837xS_SysCtrl.c"
    1433              
    1434                      .dwfde $C$DW$CIE, _SysIntOsc1Sel
TMS320C2000 Assembler PC v6.4.2 Thu Dec 14 15:26:44 2017

Tools Copyright (c) 1996-2015 Texas Instruments Incorporated
F2837xS_SysCtrl.asm                                                  PAGE   30

    1435              
    1436              ;***************************************************************
    1437              ;* FNAME: _SysIntOsc1Sel                FR SIZE:   0           *
    1438              ;*                                                             *
    1439              ;* FUNCTION ENVIRONMENT                                        *
    1440              ;*                                                             *
    1441              ;* FUNCTION PROPERTIES                                         *
    1442              ;*                            0 Parameter,  0 Auto,  0 SOE     *
    1443              ;***************************************************************
    1444              
    1445 00000236       _SysIntOsc1Sel:
    1446                      .dwcfi  cfa_offset, -2
    1447                      .dwcfi  save_reg_to_mem, 26, 0
    1448                      .dwpsn  file "C:/ti/controlSUITE/device_support/F2837xS/v170/F2837xS_common/source/F2837xS_SysCtrl.c"
    1449 00000236 7622   EALLOW
    1450                      .dwpsn  file "C:/ti/controlSUITE/device_support/F2837xS/v170/F2837xS_common/source/F2837xS_SysCtrl.c"
    1451 00000237 761F!         MOVW      DP,#_ClkCfgRegs+8     ; [CPU_U] 
         00000238 0000 
    1452 00000239 CC08!         AND       AL,@_ClkCfgRegs+8,#0xfffc ; [CPU_] |603| 
         0000023a FFFC 
    1453 0000023b 5002          ORB       AL,#0x02              ; [CPU_] |603| 
    1454 0000023c 9608!         MOV       @_ClkCfgRegs+8,AL     ; [CPU_] |603| 
    1455                      .dwpsn  file "C:/ti/controlSUITE/device_support/F2837xS/v170/F2837xS_common/source/F2837xS_SysCtrl.c"
    1456 0000023d 761A   EDIS
    1457                      .dwpsn  file "C:/ti/controlSUITE/device_support/F2837xS/v170/F2837xS_common/source/F2837xS_SysCtrl.c"
    1458 0000023e FF69          SPM       #0                    ; [CPU_] 
    1459              $C$DW$77        .dwtag  DW_TAG_TI_branch
    1460                      .dwattr $C$DW$77, DW_AT_low_pc(0x00)
    1461                      .dwattr $C$DW$77, DW_AT_TI_return
    1462 0000023f 0006          LRETR     ; [CPU_] 
    1463                      ; return occurs ; [] 
    1464                      .dwattr $C$DW$76, DW_AT_TI_end_file("C:/ti/controlSUITE/device_support/F2837xS/v170/F2837xS_common/so
    1465                      .dwattr $C$DW$76, DW_AT_TI_end_line(0x25d)
    1466                      .dwattr $C$DW$76, DW_AT_TI_end_column(0x01)
    1467                      .dwendentry
    1468                      .dwendtag $C$DW$76
    1469              
    1470 00000240               .sect   ".text"
    1471                      .clink
    1472                      .global _SysIntOsc2Sel
    1473              
    1474              $C$DW$78        .dwtag  DW_TAG_subprogram, DW_AT_name("SysIntOsc2Sel")
    1475                      .dwattr $C$DW$78, DW_AT_low_pc(_SysIntOsc2Sel)
    1476                      .dwattr $C$DW$78, DW_AT_high_pc(0x00)
    1477                      .dwattr $C$DW$78, DW_AT_TI_symbol_name("_SysIntOsc2Sel")
    1478                      .dwattr $C$DW$78, DW_AT_external
    1479                      .dwattr $C$DW$78, DW_AT_TI_begin_file("C:/ti/controlSUITE/device_support/F2837xS/v170/F2837xS_common/
    1480                      .dwattr $C$DW$78, DW_AT_TI_begin_line(0x268)
    1481                      .dwattr $C$DW$78, DW_AT_TI_begin_column(0x06)
    1482                      .dwattr $C$DW$78, DW_AT_TI_max_frame_size(-2)
    1483                      .dwpsn  file "C:/ti/controlSUITE/device_support/F2837xS/v170/F2837xS_common/source/F2837xS_SysCtrl.c"
    1484              
    1485                      .dwfde $C$DW$CIE, _SysIntOsc2Sel
    1486              
    1487              ;***************************************************************
TMS320C2000 Assembler PC v6.4.2 Thu Dec 14 15:26:44 2017

Tools Copyright (c) 1996-2015 Texas Instruments Incorporated
F2837xS_SysCtrl.asm                                                  PAGE   31

    1488              ;* FNAME: _SysIntOsc2Sel                FR SIZE:   0           *
    1489              ;*                                                             *
    1490              ;* FUNCTION ENVIRONMENT                                        *
    1491              ;*                                                             *
    1492              ;* FUNCTION PROPERTIES                                         *
    1493              ;*                            0 Parameter,  0 Auto,  0 SOE     *
    1494              ;***************************************************************
    1495              
    1496 00000240       _SysIntOsc2Sel:
    1497                      .dwcfi  cfa_offset, -2
    1498                      .dwcfi  save_reg_to_mem, 26, 0
    1499                      .dwpsn  file "C:/ti/controlSUITE/device_support/F2837xS/v170/F2837xS_common/source/F2837xS_SysCtrl.c"
    1500 00000240 7622   EALLOW
    1501                      .dwpsn  file "C:/ti/controlSUITE/device_support/F2837xS/v170/F2837xS_common/source/F2837xS_SysCtrl.c"
    1502 00000241 761F!         MOVW      DP,#_ClkCfgRegs+8     ; [CPU_U] 
         00000242 0000 
    1503 00000243 1808!         AND       @_ClkCfgRegs+8,#0xfff7 ; [CPU_] |619| 
         00000244 FFF7 
    1504                      .dwpsn  file "C:/ti/controlSUITE/device_support/F2837xS/v170/F2837xS_common/source/F2837xS_SysCtrl.c"
    1505 00000245 1808!         AND       @_ClkCfgRegs+8,#0xfffc ; [CPU_] |620| 
         00000246 FFFC 
    1506                      .dwpsn  file "C:/ti/controlSUITE/device_support/F2837xS/v170/F2837xS_common/source/F2837xS_SysCtrl.c"
    1507 00000247 761A   EDIS
    1508                      .dwpsn  file "C:/ti/controlSUITE/device_support/F2837xS/v170/F2837xS_common/source/F2837xS_SysCtrl.c"
    1509 00000248 FF69          SPM       #0                    ; [CPU_] 
    1510              $C$DW$79        .dwtag  DW_TAG_TI_branch
    1511                      .dwattr $C$DW$79, DW_AT_low_pc(0x00)
    1512                      .dwattr $C$DW$79, DW_AT_TI_return
    1513 00000249 0006          LRETR     ; [CPU_] 
    1514                      ; return occurs ; [] 
    1515                      .dwattr $C$DW$78, DW_AT_TI_end_file("C:/ti/controlSUITE/device_support/F2837xS/v170/F2837xS_common/so
    1516                      .dwattr $C$DW$78, DW_AT_TI_end_line(0x26f)
    1517                      .dwattr $C$DW$78, DW_AT_TI_end_column(0x01)
    1518                      .dwendentry
    1519                      .dwendtag $C$DW$78
    1520              
    1521 0000024a               .sect   ".text"
    1522                      .clink
    1523                      .global _SysXtalOscSel
    1524              
    1525              $C$DW$80        .dwtag  DW_TAG_subprogram, DW_AT_name("SysXtalOscSel")
    1526                      .dwattr $C$DW$80, DW_AT_low_pc(_SysXtalOscSel)
    1527                      .dwattr $C$DW$80, DW_AT_high_pc(0x00)
    1528                      .dwattr $C$DW$80, DW_AT_TI_symbol_name("_SysXtalOscSel")
    1529                      .dwattr $C$DW$80, DW_AT_external
    1530                      .dwattr $C$DW$80, DW_AT_TI_begin_file("C:/ti/controlSUITE/device_support/F2837xS/v170/F2837xS_common/
    1531                      .dwattr $C$DW$80, DW_AT_TI_begin_line(0x278)
    1532                      .dwattr $C$DW$80, DW_AT_TI_begin_column(0x06)
    1533                      .dwattr $C$DW$80, DW_AT_TI_max_frame_size(-2)
    1534                      .dwpsn  file "C:/ti/controlSUITE/device_support/F2837xS/v170/F2837xS_common/source/F2837xS_SysCtrl.c"
    1535              
    1536                      .dwfde $C$DW$CIE, _SysXtalOscSel
    1537              
    1538              ;***************************************************************
    1539              ;* FNAME: _SysXtalOscSel                FR SIZE:   0           *
TMS320C2000 Assembler PC v6.4.2 Thu Dec 14 15:26:44 2017

Tools Copyright (c) 1996-2015 Texas Instruments Incorporated
F2837xS_SysCtrl.asm                                                  PAGE   32

    1540              ;*                                                             *
    1541              ;* FUNCTION ENVIRONMENT                                        *
    1542              ;*                                                             *
    1543              ;* FUNCTION PROPERTIES                                         *
    1544              ;*                            0 Parameter,  0 Auto,  0 SOE     *
    1545              ;***************************************************************
    1546              
    1547 0000024a       _SysXtalOscSel:
    1548                      .dwcfi  cfa_offset, -2
    1549                      .dwcfi  save_reg_to_mem, 26, 0
    1550                      .dwpsn  file "C:/ti/controlSUITE/device_support/F2837xS/v170/F2837xS_common/source/F2837xS_SysCtrl.c"
    1551 0000024a 7622   EALLOW
    1552                      .dwpsn  file "C:/ti/controlSUITE/device_support/F2837xS/v170/F2837xS_common/source/F2837xS_SysCtrl.c"
    1553 0000024b 761F!         MOVW      DP,#_ClkCfgRegs+8     ; [CPU_U] 
         0000024c 0000 
    1554 0000024d 1808!         AND       @_ClkCfgRegs+8,#0xffef ; [CPU_] |635| 
         0000024e FFEF 
    1555                      .dwpsn  file "C:/ti/controlSUITE/device_support/F2837xS/v170/F2837xS_common/source/F2837xS_SysCtrl.c"
    1556 0000024f CC08!         AND       AL,@_ClkCfgRegs+8,#0xfffc ; [CPU_] |636| 
         00000250 FFFC 
    1557 00000251 5001          ORB       AL,#0x01              ; [CPU_] |636| 
    1558 00000252 9608!         MOV       @_ClkCfgRegs+8,AL     ; [CPU_] |636| 
    1559                      .dwpsn  file "C:/ti/controlSUITE/device_support/F2837xS/v170/F2837xS_common/source/F2837xS_SysCtrl.c"
    1560 00000253 761A   EDIS
    1561                      .dwpsn  file "C:/ti/controlSUITE/device_support/F2837xS/v170/F2837xS_common/source/F2837xS_SysCtrl.c"
    1562 00000254 FF69          SPM       #0                    ; [CPU_] 
    1563              $C$DW$81        .dwtag  DW_TAG_TI_branch
    1564                      .dwattr $C$DW$81, DW_AT_low_pc(0x00)
    1565                      .dwattr $C$DW$81, DW_AT_TI_return
    1566 00000255 0006          LRETR     ; [CPU_] 
    1567                      ; return occurs ; [] 
    1568                      .dwattr $C$DW$80, DW_AT_TI_end_file("C:/ti/controlSUITE/device_support/F2837xS/v170/F2837xS_common/so
    1569                      .dwattr $C$DW$80, DW_AT_TI_end_line(0x27f)
    1570                      .dwattr $C$DW$80, DW_AT_TI_end_column(0x01)
    1571                      .dwendentry
    1572                      .dwendtag $C$DW$80
    1573              
    1574 00000256               .sect   ".text"
    1575                      .clink
    1576                      .global _AuxIntOsc2Sel
    1577              
    1578              $C$DW$82        .dwtag  DW_TAG_subprogram, DW_AT_name("AuxIntOsc2Sel")
    1579                      .dwattr $C$DW$82, DW_AT_low_pc(_AuxIntOsc2Sel)
    1580                      .dwattr $C$DW$82, DW_AT_high_pc(0x00)
    1581                      .dwattr $C$DW$82, DW_AT_TI_symbol_name("_AuxIntOsc2Sel")
    1582                      .dwattr $C$DW$82, DW_AT_external
    1583                      .dwattr $C$DW$82, DW_AT_TI_begin_file("C:/ti/controlSUITE/device_support/F2837xS/v170/F2837xS_common/
    1584                      .dwattr $C$DW$82, DW_AT_TI_begin_line(0x28a)
    1585                      .dwattr $C$DW$82, DW_AT_TI_begin_column(0x06)
    1586                      .dwattr $C$DW$82, DW_AT_TI_max_frame_size(-2)
    1587                      .dwpsn  file "C:/ti/controlSUITE/device_support/F2837xS/v170/F2837xS_common/source/F2837xS_SysCtrl.c"
    1588              
    1589                      .dwfde $C$DW$CIE, _AuxIntOsc2Sel
    1590              
    1591              ;***************************************************************
TMS320C2000 Assembler PC v6.4.2 Thu Dec 14 15:26:44 2017

Tools Copyright (c) 1996-2015 Texas Instruments Incorporated
F2837xS_SysCtrl.asm                                                  PAGE   33

    1592              ;* FNAME: _AuxIntOsc2Sel                FR SIZE:   0           *
    1593              ;*                                                             *
    1594              ;* FUNCTION ENVIRONMENT                                        *
    1595              ;*                                                             *
    1596              ;* FUNCTION PROPERTIES                                         *
    1597              ;*                            0 Parameter,  0 Auto,  0 SOE     *
    1598              ;***************************************************************
    1599              
    1600 00000256       _AuxIntOsc2Sel:
    1601                      .dwcfi  cfa_offset, -2
    1602                      .dwcfi  save_reg_to_mem, 26, 0
    1603                      .dwpsn  file "C:/ti/controlSUITE/device_support/F2837xS/v170/F2837xS_common/source/F2837xS_SysCtrl.c"
    1604 00000256 7622   EALLOW
    1605                      .dwpsn  file "C:/ti/controlSUITE/device_support/F2837xS/v170/F2837xS_common/source/F2837xS_SysCtrl.c"
    1606 00000257 761F!         MOVW      DP,#_ClkCfgRegs+8     ; [CPU_U] 
         00000258 0000 
    1607 00000259 1808!         AND       @_ClkCfgRegs+8,#0xfff7 ; [CPU_] |653| 
         0000025a FFF7 
    1608                      .dwpsn  file "C:/ti/controlSUITE/device_support/F2837xS/v170/F2837xS_common/source/F2837xS_SysCtrl.c"
    1609 0000025b 180A!         AND       @_ClkCfgRegs+10,#0xfffc ; [CPU_] |654| 
         0000025c FFFC 
    1610                      .dwpsn  file "C:/ti/controlSUITE/device_support/F2837xS/v170/F2837xS_common/source/F2837xS_SysCtrl.c"
    1611 0000025d 761A   EDIS
    1612                      .dwpsn  file "C:/ti/controlSUITE/device_support/F2837xS/v170/F2837xS_common/source/F2837xS_SysCtrl.c"
    1613 0000025e FF69          SPM       #0                    ; [CPU_] 
    1614              $C$DW$83        .dwtag  DW_TAG_TI_branch
    1615                      .dwattr $C$DW$83, DW_AT_low_pc(0x00)
    1616                      .dwattr $C$DW$83, DW_AT_TI_return
    1617 0000025f 0006          LRETR     ; [CPU_] 
    1618                      ; return occurs ; [] 
    1619                      .dwattr $C$DW$82, DW_AT_TI_end_file("C:/ti/controlSUITE/device_support/F2837xS/v170/F2837xS_common/so
    1620                      .dwattr $C$DW$82, DW_AT_TI_end_line(0x291)
    1621                      .dwattr $C$DW$82, DW_AT_TI_end_column(0x01)
    1622                      .dwendentry
    1623                      .dwendtag $C$DW$82
    1624              
    1625 00000260               .sect   ".text"
    1626                      .clink
    1627                      .global _AuxXtalOscSel
    1628              
    1629              $C$DW$84        .dwtag  DW_TAG_subprogram, DW_AT_name("AuxXtalOscSel")
    1630                      .dwattr $C$DW$84, DW_AT_low_pc(_AuxXtalOscSel)
    1631                      .dwattr $C$DW$84, DW_AT_high_pc(0x00)
    1632                      .dwattr $C$DW$84, DW_AT_TI_symbol_name("_AuxXtalOscSel")
    1633                      .dwattr $C$DW$84, DW_AT_external
    1634                      .dwattr $C$DW$84, DW_AT_TI_begin_file("C:/ti/controlSUITE/device_support/F2837xS/v170/F2837xS_common/
    1635                      .dwattr $C$DW$84, DW_AT_TI_begin_line(0x29a)
    1636                      .dwattr $C$DW$84, DW_AT_TI_begin_column(0x06)
    1637                      .dwattr $C$DW$84, DW_AT_TI_max_frame_size(-2)
    1638                      .dwpsn  file "C:/ti/controlSUITE/device_support/F2837xS/v170/F2837xS_common/source/F2837xS_SysCtrl.c"
    1639              
    1640                      .dwfde $C$DW$CIE, _AuxXtalOscSel
    1641              
    1642              ;***************************************************************
    1643              ;* FNAME: _AuxXtalOscSel                FR SIZE:   0           *
TMS320C2000 Assembler PC v6.4.2 Thu Dec 14 15:26:44 2017

Tools Copyright (c) 1996-2015 Texas Instruments Incorporated
F2837xS_SysCtrl.asm                                                  PAGE   34

    1644              ;*                                                             *
    1645              ;* FUNCTION ENVIRONMENT                                        *
    1646              ;*                                                             *
    1647              ;* FUNCTION PROPERTIES                                         *
    1648              ;*                            0 Parameter,  0 Auto,  0 SOE     *
    1649              ;***************************************************************
    1650              
    1651 00000260       _AuxXtalOscSel:
    1652                      .dwcfi  cfa_offset, -2
    1653                      .dwcfi  save_reg_to_mem, 26, 0
    1654                      .dwpsn  file "C:/ti/controlSUITE/device_support/F2837xS/v170/F2837xS_common/source/F2837xS_SysCtrl.c"
    1655 00000260 7622   EALLOW
    1656                      .dwpsn  file "C:/ti/controlSUITE/device_support/F2837xS/v170/F2837xS_common/source/F2837xS_SysCtrl.c"
    1657 00000261 761F!         MOVW      DP,#_ClkCfgRegs+8     ; [CPU_U] 
         00000262 0000 
    1658 00000263 1808!         AND       @_ClkCfgRegs+8,#0xffef ; [CPU_] |669| 
         00000264 FFEF 
    1659                      .dwpsn  file "C:/ti/controlSUITE/device_support/F2837xS/v170/F2837xS_common/source/F2837xS_SysCtrl.c"
    1660 00000265 CC0A!         AND       AL,@_ClkCfgRegs+10,#0xfffc ; [CPU_] |670| 
         00000266 FFFC 
    1661 00000267 5001          ORB       AL,#0x01              ; [CPU_] |670| 
    1662 00000268 960A!         MOV       @_ClkCfgRegs+10,AL    ; [CPU_] |670| 
    1663                      .dwpsn  file "C:/ti/controlSUITE/device_support/F2837xS/v170/F2837xS_common/source/F2837xS_SysCtrl.c"
    1664 00000269 761A   EDIS
    1665                      .dwpsn  file "C:/ti/controlSUITE/device_support/F2837xS/v170/F2837xS_common/source/F2837xS_SysCtrl.c"
    1666 0000026a FF69          SPM       #0                    ; [CPU_] 
    1667              $C$DW$85        .dwtag  DW_TAG_TI_branch
    1668                      .dwattr $C$DW$85, DW_AT_low_pc(0x00)
    1669                      .dwattr $C$DW$85, DW_AT_TI_return
    1670 0000026b 0006          LRETR     ; [CPU_] 
    1671                      ; return occurs ; [] 
    1672                      .dwattr $C$DW$84, DW_AT_TI_end_file("C:/ti/controlSUITE/device_support/F2837xS/v170/F2837xS_common/so
    1673                      .dwattr $C$DW$84, DW_AT_TI_end_line(0x2a1)
    1674                      .dwattr $C$DW$84, DW_AT_TI_end_column(0x01)
    1675                      .dwendentry
    1676                      .dwendtag $C$DW$84
    1677              
    1678 0000026c               .sect   ".text"
    1679                      .clink
    1680                      .global _AuxAuxClkSel
    1681              
    1682              $C$DW$86        .dwtag  DW_TAG_subprogram, DW_AT_name("AuxAuxClkSel")
    1683                      .dwattr $C$DW$86, DW_AT_low_pc(_AuxAuxClkSel)
    1684                      .dwattr $C$DW$86, DW_AT_high_pc(0x00)
    1685                      .dwattr $C$DW$86, DW_AT_TI_symbol_name("_AuxAuxClkSel")
    1686                      .dwattr $C$DW$86, DW_AT_external
    1687                      .dwattr $C$DW$86, DW_AT_TI_begin_file("C:/ti/controlSUITE/device_support/F2837xS/v170/F2837xS_common/
    1688                      .dwattr $C$DW$86, DW_AT_TI_begin_line(0x2aa)
    1689                      .dwattr $C$DW$86, DW_AT_TI_begin_column(0x06)
    1690                      .dwattr $C$DW$86, DW_AT_TI_max_frame_size(-2)
    1691                      .dwpsn  file "C:/ti/controlSUITE/device_support/F2837xS/v170/F2837xS_common/source/F2837xS_SysCtrl.c"
    1692              
    1693                      .dwfde $C$DW$CIE, _AuxAuxClkSel
    1694              
    1695              ;***************************************************************
TMS320C2000 Assembler PC v6.4.2 Thu Dec 14 15:26:44 2017

Tools Copyright (c) 1996-2015 Texas Instruments Incorporated
F2837xS_SysCtrl.asm                                                  PAGE   35

    1696              ;* FNAME: _AuxAuxClkSel                 FR SIZE:   0           *
    1697              ;*                                                             *
    1698              ;* FUNCTION ENVIRONMENT                                        *
    1699              ;*                                                             *
    1700              ;* FUNCTION PROPERTIES                                         *
    1701              ;*                            0 Parameter,  0 Auto,  0 SOE     *
    1702              ;***************************************************************
    1703              
    1704 0000026c       _AuxAuxClkSel:
    1705                      .dwcfi  cfa_offset, -2
    1706                      .dwcfi  save_reg_to_mem, 26, 0
    1707                      .dwpsn  file "C:/ti/controlSUITE/device_support/F2837xS/v170/F2837xS_common/source/F2837xS_SysCtrl.c"
    1708 0000026c 7622   EALLOW
    1709                      .dwpsn  file "C:/ti/controlSUITE/device_support/F2837xS/v170/F2837xS_common/source/F2837xS_SysCtrl.c"
    1710 0000026d 761F!         MOVW      DP,#_ClkCfgRegs+10    ; [CPU_U] 
         0000026e 0000 
    1711 0000026f CC0A!         AND       AL,@_ClkCfgRegs+10,#0xfffc ; [CPU_] |685| 
         00000270 FFFC 
    1712 00000271 5002          ORB       AL,#0x02              ; [CPU_] |685| 
    1713 00000272 960A!         MOV       @_ClkCfgRegs+10,AL    ; [CPU_] |685| 
    1714                      .dwpsn  file "C:/ti/controlSUITE/device_support/F2837xS/v170/F2837xS_common/source/F2837xS_SysCtrl.c"
    1715 00000273 761A   EDIS
    1716                      .dwpsn  file "C:/ti/controlSUITE/device_support/F2837xS/v170/F2837xS_common/source/F2837xS_SysCtrl.c"
    1717 00000274 FF69          SPM       #0                    ; [CPU_] 
    1718              $C$DW$87        .dwtag  DW_TAG_TI_branch
    1719                      .dwattr $C$DW$87, DW_AT_low_pc(0x00)
    1720                      .dwattr $C$DW$87, DW_AT_TI_return
    1721 00000275 0006          LRETR     ; [CPU_] 
    1722                      ; return occurs ; [] 
    1723                      .dwattr $C$DW$86, DW_AT_TI_end_file("C:/ti/controlSUITE/device_support/F2837xS/v170/F2837xS_common/so
    1724                      .dwattr $C$DW$86, DW_AT_TI_end_line(0x2b0)
    1725                      .dwattr $C$DW$86, DW_AT_TI_end_column(0x01)
    1726                      .dwendentry
    1727                      .dwendtag $C$DW$86
    1728              
    1729 00000276               .sect   ".text"
    1730                      .clink
    1731                      .global _IDLE
    1732              
    1733              $C$DW$88        .dwtag  DW_TAG_subprogram, DW_AT_name("IDLE")
    1734                      .dwattr $C$DW$88, DW_AT_low_pc(_IDLE)
    1735                      .dwattr $C$DW$88, DW_AT_high_pc(0x00)
    1736                      .dwattr $C$DW$88, DW_AT_TI_symbol_name("_IDLE")
    1737                      .dwattr $C$DW$88, DW_AT_external
    1738                      .dwattr $C$DW$88, DW_AT_TI_begin_file("C:/ti/controlSUITE/device_support/F2837xS/v170/F2837xS_common/
    1739                      .dwattr $C$DW$88, DW_AT_TI_begin_line(0x2b4)
    1740                      .dwattr $C$DW$88, DW_AT_TI_begin_column(0x06)
    1741                      .dwattr $C$DW$88, DW_AT_TI_max_frame_size(-2)
    1742                      .dwpsn  file "C:/ti/controlSUITE/device_support/F2837xS/v170/F2837xS_common/source/F2837xS_SysCtrl.c"
    1743              
    1744                      .dwfde $C$DW$CIE, _IDLE
    1745              
    1746              ;***************************************************************
    1747              ;* FNAME: _IDLE                         FR SIZE:   0           *
    1748              ;*                                                             *
TMS320C2000 Assembler PC v6.4.2 Thu Dec 14 15:26:44 2017

Tools Copyright (c) 1996-2015 Texas Instruments Incorporated
F2837xS_SysCtrl.asm                                                  PAGE   36

    1749              ;* FUNCTION ENVIRONMENT                                        *
    1750              ;*                                                             *
    1751              ;* FUNCTION PROPERTIES                                         *
    1752              ;*                            0 Parameter,  0 Auto,  0 SOE     *
    1753              ;***************************************************************
    1754              
    1755 00000276       _IDLE:
    1756                      .dwcfi  cfa_offset, -2
    1757                      .dwcfi  save_reg_to_mem, 26, 0
    1758                      .dwpsn  file "C:/ti/controlSUITE/device_support/F2837xS/v170/F2837xS_common/source/F2837xS_SysCtrl.c"
    1759 00000276 7622   EALLOW
    1760                      .dwpsn  file "C:/ti/controlSUITE/device_support/F2837xS/v170/F2837xS_common/source/F2837xS_SysCtrl.c"
    1761 00000277 761F!         MOVW      DP,#_CpuSysRegs+118   ; [CPU_U] 
         00000278 0001 
    1762 00000279 1836!         AND       @_CpuSysRegs+118,#0xfffc ; [CPU_] |695| 
         0000027a FFFC 
    1763                      .dwpsn  file "C:/ti/controlSUITE/device_support/F2837xS/v170/F2837xS_common/source/F2837xS_SysCtrl.c"
    1764 0000027b 761A   EDIS
    1765                      .dwpsn  file "C:/ti/controlSUITE/device_support/F2837xS/v170/F2837xS_common/source/F2837xS_SysCtrl.c"
    1766 0000027c 7621   IDLE
    1767                      .dwpsn  file "C:/ti/controlSUITE/device_support/F2837xS/v170/F2837xS_common/source/F2837xS_SysCtrl.c"
    1768 0000027d FF69          SPM       #0                    ; [CPU_] 
    1769              $C$DW$89        .dwtag  DW_TAG_TI_branch
    1770                      .dwattr $C$DW$89, DW_AT_low_pc(0x00)
    1771                      .dwattr $C$DW$89, DW_AT_TI_return
    1772 0000027e 0006          LRETR     ; [CPU_] 
    1773                      ; return occurs ; [] 
    1774                      .dwattr $C$DW$88, DW_AT_TI_end_file("C:/ti/controlSUITE/device_support/F2837xS/v170/F2837xS_common/so
    1775                      .dwattr $C$DW$88, DW_AT_TI_end_line(0x2ba)
    1776                      .dwattr $C$DW$88, DW_AT_TI_end_column(0x01)
    1777                      .dwendentry
    1778                      .dwendtag $C$DW$88
    1779              
    1780 0000027f               .sect   ".text"
    1781                      .clink
    1782                      .global _STANDBY
    1783              
    1784              $C$DW$90        .dwtag  DW_TAG_subprogram, DW_AT_name("STANDBY")
    1785                      .dwattr $C$DW$90, DW_AT_low_pc(_STANDBY)
    1786                      .dwattr $C$DW$90, DW_AT_high_pc(0x00)
    1787                      .dwattr $C$DW$90, DW_AT_TI_symbol_name("_STANDBY")
    1788                      .dwattr $C$DW$90, DW_AT_external
    1789                      .dwattr $C$DW$90, DW_AT_TI_begin_file("C:/ti/controlSUITE/device_support/F2837xS/v170/F2837xS_common/
    1790                      .dwattr $C$DW$90, DW_AT_TI_begin_line(0x2bd)
    1791                      .dwattr $C$DW$90, DW_AT_TI_begin_column(0x06)
    1792                      .dwattr $C$DW$90, DW_AT_TI_max_frame_size(-2)
    1793                      .dwpsn  file "C:/ti/controlSUITE/device_support/F2837xS/v170/F2837xS_common/source/F2837xS_SysCtrl.c"
    1794              
    1795                      .dwfde $C$DW$CIE, _STANDBY
    1796              
    1797              ;***************************************************************
    1798              ;* FNAME: _STANDBY                      FR SIZE:   0           *
    1799              ;*                                                             *
    1800              ;* FUNCTION ENVIRONMENT                                        *
    1801              ;*                                                             *
TMS320C2000 Assembler PC v6.4.2 Thu Dec 14 15:26:44 2017

Tools Copyright (c) 1996-2015 Texas Instruments Incorporated
F2837xS_SysCtrl.asm                                                  PAGE   37

    1802              ;* FUNCTION PROPERTIES                                         *
    1803              ;*                            0 Parameter,  0 Auto,  0 SOE     *
    1804              ;***************************************************************
    1805              
    1806 0000027f       _STANDBY:
    1807                      .dwcfi  cfa_offset, -2
    1808                      .dwcfi  save_reg_to_mem, 26, 0
    1809                      .dwpsn  file "C:/ti/controlSUITE/device_support/F2837xS/v170/F2837xS_common/source/F2837xS_SysCtrl.c"
    1810 0000027f 7622   EALLOW
    1811                      .dwpsn  file "C:/ti/controlSUITE/device_support/F2837xS/v170/F2837xS_common/source/F2837xS_SysCtrl.c"
    1812 00000280 761F!         MOVW      DP,#_CpuSysRegs+118   ; [CPU_U] 
         00000281 0001 
    1813 00000282 CC36!         AND       AL,@_CpuSysRegs+118,#0xfffc ; [CPU_] |704| 
         00000283 FFFC 
    1814 00000284 5001          ORB       AL,#0x01              ; [CPU_] |704| 
    1815 00000285 9636!         MOV       @_CpuSysRegs+118,AL   ; [CPU_] |704| 
    1816                      .dwpsn  file "C:/ti/controlSUITE/device_support/F2837xS/v170/F2837xS_common/source/F2837xS_SysCtrl.c"
    1817 00000286 761A   EDIS
    1818                      .dwpsn  file "C:/ti/controlSUITE/device_support/F2837xS/v170/F2837xS_common/source/F2837xS_SysCtrl.c"
    1819 00000287 7621   IDLE
    1820                      .dwpsn  file "C:/ti/controlSUITE/device_support/F2837xS/v170/F2837xS_common/source/F2837xS_SysCtrl.c"
    1821 00000288 FF69          SPM       #0                    ; [CPU_] 
    1822              $C$DW$91        .dwtag  DW_TAG_TI_branch
    1823                      .dwattr $C$DW$91, DW_AT_low_pc(0x00)
    1824                      .dwattr $C$DW$91, DW_AT_TI_return
    1825 00000289 0006          LRETR     ; [CPU_] 
    1826                      ; return occurs ; [] 
    1827                      .dwattr $C$DW$90, DW_AT_TI_end_file("C:/ti/controlSUITE/device_support/F2837xS/v170/F2837xS_common/so
    1828                      .dwattr $C$DW$90, DW_AT_TI_end_line(0x2c3)
    1829                      .dwattr $C$DW$90, DW_AT_TI_end_column(0x01)
    1830                      .dwendentry
    1831                      .dwendtag $C$DW$90
    1832              
    1833 0000028a               .sect   ".text"
    1834                      .clink
    1835                      .global _HALT
    1836              
    1837              $C$DW$92        .dwtag  DW_TAG_subprogram, DW_AT_name("HALT")
    1838                      .dwattr $C$DW$92, DW_AT_low_pc(_HALT)
    1839                      .dwattr $C$DW$92, DW_AT_high_pc(0x00)
    1840                      .dwattr $C$DW$92, DW_AT_TI_symbol_name("_HALT")
    1841                      .dwattr $C$DW$92, DW_AT_external
    1842                      .dwattr $C$DW$92, DW_AT_TI_begin_file("C:/ti/controlSUITE/device_support/F2837xS/v170/F2837xS_common/
    1843                      .dwattr $C$DW$92, DW_AT_TI_begin_line(0x2c6)
    1844                      .dwattr $C$DW$92, DW_AT_TI_begin_column(0x06)
    1845                      .dwattr $C$DW$92, DW_AT_TI_max_frame_size(-2)
    1846                      .dwpsn  file "C:/ti/controlSUITE/device_support/F2837xS/v170/F2837xS_common/source/F2837xS_SysCtrl.c"
    1847              
    1848                      .dwfde $C$DW$CIE, _HALT
    1849              
    1850              ;***************************************************************
    1851              ;* FNAME: _HALT                         FR SIZE:   0           *
    1852              ;*                                                             *
    1853              ;* FUNCTION ENVIRONMENT                                        *
    1854              ;*                                                             *
TMS320C2000 Assembler PC v6.4.2 Thu Dec 14 15:26:44 2017

Tools Copyright (c) 1996-2015 Texas Instruments Incorporated
F2837xS_SysCtrl.asm                                                  PAGE   38

    1855              ;* FUNCTION PROPERTIES                                         *
    1856              ;*                            0 Parameter,  0 Auto,  0 SOE     *
    1857              ;***************************************************************
    1858              
    1859 0000028a       _HALT:
    1860                      .dwcfi  cfa_offset, -2
    1861                      .dwcfi  save_reg_to_mem, 26, 0
    1862                      .dwpsn  file "C:/ti/controlSUITE/device_support/F2837xS/v170/F2837xS_common/source/F2837xS_SysCtrl.c"
    1863 0000028a 7622   EALLOW
    1864                      .dwpsn  file "C:/ti/controlSUITE/device_support/F2837xS/v170/F2837xS_common/source/F2837xS_SysCtrl.c"
    1865 0000028b 761F!         MOVW      DP,#_CpuSysRegs+118   ; [CPU_U] 
         0000028c 0001 
    1866 0000028d CC36!         AND       AL,@_CpuSysRegs+118,#0xfffc ; [CPU_] |713| 
         0000028e FFFC 
    1867 0000028f 5002          ORB       AL,#0x02              ; [CPU_] |713| 
    1868 00000290 9636!         MOV       @_CpuSysRegs+118,AL   ; [CPU_] |713| 
    1869                      .dwpsn  file "C:/ti/controlSUITE/device_support/F2837xS/v170/F2837xS_common/source/F2837xS_SysCtrl.c"
    1870 00000291 761F!         MOVW      DP,#_ClkCfgRegs+14    ; [CPU_U] 
         00000292 0000 
    1871 00000293 180E!         AND       @_ClkCfgRegs+14,#0xfffd ; [CPU_] |714| 
         00000294 FFFD 
    1872                      .dwpsn  file "C:/ti/controlSUITE/device_support/F2837xS/v170/F2837xS_common/source/F2837xS_SysCtrl.c"
    1873 00000295 180E!         AND       @_ClkCfgRegs+14,#0xfffe ; [CPU_] |715| 
         00000296 FFFE 
    1874                      .dwpsn  file "C:/ti/controlSUITE/device_support/F2837xS/v170/F2837xS_common/source/F2837xS_SysCtrl.c"
    1875 00000297 761A   EDIS
    1876                      .dwpsn  file "C:/ti/controlSUITE/device_support/F2837xS/v170/F2837xS_common/source/F2837xS_SysCtrl.c"
    1877 00000298 7621   IDLE
    1878                      .dwpsn  file "C:/ti/controlSUITE/device_support/F2837xS/v170/F2837xS_common/source/F2837xS_SysCtrl.c"
    1879 00000299 FF69          SPM       #0                    ; [CPU_] 
    1880              $C$DW$93        .dwtag  DW_TAG_TI_branch
    1881                      .dwattr $C$DW$93, DW_AT_low_pc(0x00)
    1882                      .dwattr $C$DW$93, DW_AT_TI_return
    1883 0000029a 0006          LRETR     ; [CPU_] 
    1884                      ; return occurs ; [] 
    1885                      .dwattr $C$DW$92, DW_AT_TI_end_file("C:/ti/controlSUITE/device_support/F2837xS/v170/F2837xS_common/so
    1886                      .dwattr $C$DW$92, DW_AT_TI_end_line(0x2ce)
    1887                      .dwattr $C$DW$92, DW_AT_TI_end_column(0x01)
    1888                      .dwendentry
    1889                      .dwendtag $C$DW$92
    1890              
    1891 0000029b               .sect   ".text"
    1892                      .clink
    1893                      .global _HIB
    1894              
    1895              $C$DW$94        .dwtag  DW_TAG_subprogram, DW_AT_name("HIB")
    1896                      .dwattr $C$DW$94, DW_AT_low_pc(_HIB)
    1897                      .dwattr $C$DW$94, DW_AT_high_pc(0x00)
    1898                      .dwattr $C$DW$94, DW_AT_TI_symbol_name("_HIB")
    1899                      .dwattr $C$DW$94, DW_AT_external
    1900                      .dwattr $C$DW$94, DW_AT_TI_begin_file("C:/ti/controlSUITE/device_support/F2837xS/v170/F2837xS_common/
    1901                      .dwattr $C$DW$94, DW_AT_TI_begin_line(0x2d1)
    1902                      .dwattr $C$DW$94, DW_AT_TI_begin_column(0x06)
    1903                      .dwattr $C$DW$94, DW_AT_TI_max_frame_size(-2)
    1904                      .dwpsn  file "C:/ti/controlSUITE/device_support/F2837xS/v170/F2837xS_common/source/F2837xS_SysCtrl.c"
TMS320C2000 Assembler PC v6.4.2 Thu Dec 14 15:26:44 2017

Tools Copyright (c) 1996-2015 Texas Instruments Incorporated
F2837xS_SysCtrl.asm                                                  PAGE   39

    1905              
    1906                      .dwfde $C$DW$CIE, _HIB
    1907              
    1908              ;***************************************************************
    1909              ;* FNAME: _HIB                          FR SIZE:   0           *
    1910              ;*                                                             *
    1911              ;* FUNCTION ENVIRONMENT                                        *
    1912              ;*                                                             *
    1913              ;* FUNCTION PROPERTIES                                         *
    1914              ;*                            0 Parameter,  0 Auto,  0 SOE     *
    1915              ;***************************************************************
    1916              
    1917 0000029b       _HIB:
    1918                      .dwcfi  cfa_offset, -2
    1919                      .dwcfi  save_reg_to_mem, 26, 0
    1920                      .dwpsn  file "C:/ti/controlSUITE/device_support/F2837xS/v170/F2837xS_common/source/F2837xS_SysCtrl.c"
    1921 0000029b 7622   EALLOW
    1922                      .dwpsn  file "C:/ti/controlSUITE/device_support/F2837xS/v170/F2837xS_common/source/F2837xS_SysCtrl.c"
    1923 0000029c 761F!         MOVW      DP,#_CpuSysRegs+118   ; [CPU_U] 
         0000029d 0001 
    1924 0000029e 1A36!         OR        @_CpuSysRegs+118,#0x0003 ; [CPU_] |724| 
         0000029f 0003 
    1925                      .dwpsn  file "C:/ti/controlSUITE/device_support/F2837xS/v170/F2837xS_common/source/F2837xS_SysCtrl.c"
    1926 000002a0 761A   EDIS
    1927                      .dwpsn  file "C:/ti/controlSUITE/device_support/F2837xS/v170/F2837xS_common/source/F2837xS_SysCtrl.c"
    1928 000002a1 FF69          SPM       #0                    ; [CPU_] 
    1929              $C$DW$95        .dwtag  DW_TAG_TI_branch
    1930                      .dwattr $C$DW$95, DW_AT_low_pc(0x00)
    1931                      .dwattr $C$DW$95, DW_AT_name("_DisablePeripheralClocks")
    1932                      .dwattr $C$DW$95, DW_AT_TI_call
    1933 000002a2 7640'         LCR       #_DisablePeripheralClocks ; [CPU_] |726| 
         000002a3 00C1 
    1934                      ; call occurs [#_DisablePeripheralClocks] ; [] |726| 
    1935                      .dwpsn  file "C:/ti/controlSUITE/device_support/F2837xS/v170/F2837xS_common/source/F2837xS_SysCtrl.c"
    1936 000002a4 7622   EALLOW
    1937                      .dwpsn  file "C:/ti/controlSUITE/device_support/F2837xS/v170/F2837xS_common/source/F2837xS_SysCtrl.c"
    1938 000002a5 761F!         MOVW      DP,#_ClkCfgRegs+14    ; [CPU_U] 
         000002a6 0000 
    1939 000002a7 180E!         AND       @_ClkCfgRegs+14,#0xfffd ; [CPU_] |728| 
         000002a8 FFFD 
    1940                      .dwpsn  file "C:/ti/controlSUITE/device_support/F2837xS/v170/F2837xS_common/source/F2837xS_SysCtrl.c"
    1941 000002a9 180E!         AND       @_ClkCfgRegs+14,#0xfffe ; [CPU_] |729| 
         000002aa FFFE 
    1942                      .dwpsn  file "C:/ti/controlSUITE/device_support/F2837xS/v170/F2837xS_common/source/F2837xS_SysCtrl.c"
    1943 000002ab 761A   EDIS
    1944                      .dwpsn  file "C:/ti/controlSUITE/device_support/F2837xS/v170/F2837xS_common/source/F2837xS_SysCtrl.c"
    1945 000002ac 7621   IDLE
    1946                      .dwpsn  file "C:/ti/controlSUITE/device_support/F2837xS/v170/F2837xS_common/source/F2837xS_SysCtrl.c"
    1947 000002ad FF69          SPM       #0                    ; [CPU_] 
    1948              $C$DW$96        .dwtag  DW_TAG_TI_branch
    1949                      .dwattr $C$DW$96, DW_AT_low_pc(0x00)
    1950                      .dwattr $C$DW$96, DW_AT_TI_return
    1951 000002ae 0006          LRETR     ; [CPU_] 
    1952                      ; return occurs ; [] 
    1953                      .dwattr $C$DW$94, DW_AT_TI_end_file("C:/ti/controlSUITE/device_support/F2837xS/v170/F2837xS_common/so
TMS320C2000 Assembler PC v6.4.2 Thu Dec 14 15:26:44 2017

Tools Copyright (c) 1996-2015 Texas Instruments Incorporated
F2837xS_SysCtrl.asm                                                  PAGE   40

    1954                      .dwattr $C$DW$94, DW_AT_TI_end_line(0x2dc)
    1955                      .dwattr $C$DW$94, DW_AT_TI_end_column(0x01)
    1956                      .dwendentry
    1957                      .dwendtag $C$DW$94
    1958              
    1959              ;**************************************************************
    1960              ;* UNDEFINED EXTERNAL REFERENCES                              *
    1961              ;**************************************************************
    1962                      .global _F28x_usDelay
    1963                      .global _GPIO_EnableUnbondedIOPullups
    1964                      .global _RamfuncsRunStart
    1965                      .global _RamfuncsLoadStart
    1966                      .global _RamfuncsLoadSize
    1967                      .global _DcsmZ1Regs
    1968                      .global _DcsmZ2Regs
    1969                      .global _Flash0EccRegs
    1970                      .global _Flash1EccRegs
    1971                      .global _WdRegs
    1972                      .global _ClkCfgRegs
    1973                      .global _AnalogSubsysRegs
    1974                      .global _CpuSysRegs
    1975                      .global _Flash1CtrlRegs
    1976                      .global _Flash0CtrlRegs
    1977                      .global _memcpy
    1978              
    1979              ;***************************************************************
    1980              ;* TYPE INFORMATION                                            *
    1981              ;***************************************************************
    1982              
    1983              $C$DW$T$25      .dwtag  DW_TAG_structure_type
    1984                      .dwattr $C$DW$T$25, DW_AT_name("ANALOG_SUBSYS_REGS")
    1985                      .dwattr $C$DW$T$25, DW_AT_byte_size(0x48)
    1986              $C$DW$97        .dwtag  DW_TAG_member
    1987                      .dwattr $C$DW$97, DW_AT_type(*$C$DW$T$20)
    1988                      .dwattr $C$DW$97, DW_AT_name("rsvd1")
    1989                      .dwattr $C$DW$97, DW_AT_TI_symbol_name("_rsvd1")
    1990                      .dwattr $C$DW$97, DW_AT_data_member_location[DW_OP_plus_uconst 0x0]
    1991                      .dwattr $C$DW$97, DW_AT_accessibility(DW_ACCESS_public)
    1992              $C$DW$98        .dwtag  DW_TAG_member
    1993                      .dwattr $C$DW$98, DW_AT_type(*$C$DW$T$112)
    1994                      .dwattr $C$DW$98, DW_AT_name("INTOSC1TRIM")
    1995                      .dwattr $C$DW$98, DW_AT_TI_symbol_name("_INTOSC1TRIM")
    1996                      .dwattr $C$DW$98, DW_AT_data_member_location[DW_OP_plus_uconst 0x20]
    1997                      .dwattr $C$DW$98, DW_AT_accessibility(DW_ACCESS_public)
    1998              $C$DW$99        .dwtag  DW_TAG_member
    1999                      .dwattr $C$DW$99, DW_AT_type(*$C$DW$T$114)
    2000                      .dwattr $C$DW$99, DW_AT_name("INTOSC2TRIM")
    2001                      .dwattr $C$DW$99, DW_AT_TI_symbol_name("_INTOSC2TRIM")
    2002                      .dwattr $C$DW$99, DW_AT_data_member_location[DW_OP_plus_uconst 0x22]
    2003                      .dwattr $C$DW$99, DW_AT_accessibility(DW_ACCESS_public)
    2004              $C$DW$100       .dwtag  DW_TAG_member
    2005                      .dwattr $C$DW$100, DW_AT_type(*$C$DW$T$21)
    2006                      .dwattr $C$DW$100, DW_AT_name("rsvd2")
    2007                      .dwattr $C$DW$100, DW_AT_TI_symbol_name("_rsvd2")
    2008                      .dwattr $C$DW$100, DW_AT_data_member_location[DW_OP_plus_uconst 0x24]
TMS320C2000 Assembler PC v6.4.2 Thu Dec 14 15:26:44 2017

Tools Copyright (c) 1996-2015 Texas Instruments Incorporated
F2837xS_SysCtrl.asm                                                  PAGE   41

    2009                      .dwattr $C$DW$100, DW_AT_accessibility(DW_ACCESS_public)
    2010              $C$DW$101       .dwtag  DW_TAG_member
    2011                      .dwattr $C$DW$101, DW_AT_type(*$C$DW$T$176)
    2012                      .dwattr $C$DW$101, DW_AT_name("TSNSCTL")
    2013                      .dwattr $C$DW$101, DW_AT_TI_symbol_name("_TSNSCTL")
    2014                      .dwattr $C$DW$101, DW_AT_data_member_location[DW_OP_plus_uconst 0x26]
    2015                      .dwattr $C$DW$101, DW_AT_accessibility(DW_ACCESS_public)
    2016              $C$DW$102       .dwtag  DW_TAG_member
    2017                      .dwattr $C$DW$102, DW_AT_type(*$C$DW$T$22)
    2018                      .dwattr $C$DW$102, DW_AT_name("rsvd3")
    2019                      .dwattr $C$DW$102, DW_AT_TI_symbol_name("_rsvd3")
    2020                      .dwattr $C$DW$102, DW_AT_data_member_location[DW_OP_plus_uconst 0x27]
    2021                      .dwattr $C$DW$102, DW_AT_accessibility(DW_ACCESS_public)
    2022              $C$DW$103       .dwtag  DW_TAG_member
    2023                      .dwattr $C$DW$103, DW_AT_type(*$C$DW$T$118)
    2024                      .dwattr $C$DW$103, DW_AT_name("LOCK")
    2025                      .dwattr $C$DW$103, DW_AT_TI_symbol_name("_LOCK")
    2026                      .dwattr $C$DW$103, DW_AT_data_member_location[DW_OP_plus_uconst 0x2e]
    2027                      .dwattr $C$DW$103, DW_AT_accessibility(DW_ACCESS_public)
    2028              $C$DW$104       .dwtag  DW_TAG_member
    2029                      .dwattr $C$DW$104, DW_AT_type(*$C$DW$T$23)
    2030                      .dwattr $C$DW$104, DW_AT_name("rsvd4")
    2031                      .dwattr $C$DW$104, DW_AT_TI_symbol_name("_rsvd4")
    2032                      .dwattr $C$DW$104, DW_AT_data_member_location[DW_OP_plus_uconst 0x30]
    2033                      .dwattr $C$DW$104, DW_AT_accessibility(DW_ACCESS_public)
    2034              $C$DW$105       .dwtag  DW_TAG_member
    2035                      .dwattr $C$DW$105, DW_AT_type(*$C$DW$T$28)
    2036                      .dwattr $C$DW$105, DW_AT_name("ANAREFTRIMA")
    2037                      .dwattr $C$DW$105, DW_AT_TI_symbol_name("_ANAREFTRIMA")
    2038                      .dwattr $C$DW$105, DW_AT_data_member_location[DW_OP_plus_uconst 0x36]
    2039                      .dwattr $C$DW$105, DW_AT_accessibility(DW_ACCESS_public)
    2040              $C$DW$106       .dwtag  DW_TAG_member
    2041                      .dwattr $C$DW$106, DW_AT_type(*$C$DW$T$30)
    2042                      .dwattr $C$DW$106, DW_AT_name("ANAREFTRIMB")
    2043                      .dwattr $C$DW$106, DW_AT_TI_symbol_name("_ANAREFTRIMB")
    2044                      .dwattr $C$DW$106, DW_AT_data_member_location[DW_OP_plus_uconst 0x38]
    2045                      .dwattr $C$DW$106, DW_AT_accessibility(DW_ACCESS_public)
    2046              $C$DW$107       .dwtag  DW_TAG_member
    2047                      .dwattr $C$DW$107, DW_AT_type(*$C$DW$T$32)
    2048                      .dwattr $C$DW$107, DW_AT_name("ANAREFTRIMC")
    2049                      .dwattr $C$DW$107, DW_AT_TI_symbol_name("_ANAREFTRIMC")
    2050                      .dwattr $C$DW$107, DW_AT_data_member_location[DW_OP_plus_uconst 0x3a]
    2051                      .dwattr $C$DW$107, DW_AT_accessibility(DW_ACCESS_public)
    2052              $C$DW$108       .dwtag  DW_TAG_member
    2053                      .dwattr $C$DW$108, DW_AT_type(*$C$DW$T$34)
    2054                      .dwattr $C$DW$108, DW_AT_name("ANAREFTRIMD")
    2055                      .dwattr $C$DW$108, DW_AT_TI_symbol_name("_ANAREFTRIMD")
    2056                      .dwattr $C$DW$108, DW_AT_data_member_location[DW_OP_plus_uconst 0x3c]
    2057                      .dwattr $C$DW$108, DW_AT_accessibility(DW_ACCESS_public)
    2058              $C$DW$109       .dwtag  DW_TAG_member
    2059                      .dwattr $C$DW$109, DW_AT_type(*$C$DW$T$24)
    2060                      .dwattr $C$DW$109, DW_AT_name("rsvd5")
    2061                      .dwattr $C$DW$109, DW_AT_TI_symbol_name("_rsvd5")
    2062                      .dwattr $C$DW$109, DW_AT_data_member_location[DW_OP_plus_uconst 0x3e]
    2063                      .dwattr $C$DW$109, DW_AT_accessibility(DW_ACCESS_public)
TMS320C2000 Assembler PC v6.4.2 Thu Dec 14 15:26:44 2017

Tools Copyright (c) 1996-2015 Texas Instruments Incorporated
F2837xS_SysCtrl.asm                                                  PAGE   42

    2064                      .dwendtag $C$DW$T$25
    2065              
    2066              $C$DW$110       .dwtag  DW_TAG_TI_far_type
    2067                      .dwattr $C$DW$110, DW_AT_type(*$C$DW$T$25)
    2068              $C$DW$T$224     .dwtag  DW_TAG_volatile_type
    2069                      .dwattr $C$DW$T$224, DW_AT_type(*$C$DW$110)
    2070              
    2071              $C$DW$T$26      .dwtag  DW_TAG_structure_type
    2072                      .dwattr $C$DW$T$26, DW_AT_name("ANAREFTRIMA_BITS")
    2073                      .dwattr $C$DW$T$26, DW_AT_byte_size(0x02)
    2074              $C$DW$111       .dwtag  DW_TAG_member
    2075                      .dwattr $C$DW$111, DW_AT_type(*$C$DW$T$19)
    2076                      .dwattr $C$DW$111, DW_AT_name("BGVALTRIM")
    2077                      .dwattr $C$DW$111, DW_AT_TI_symbol_name("_BGVALTRIM")
    2078                      .dwattr $C$DW$111, DW_AT_bit_offset(0x0a), DW_AT_bit_size(0x06)
    2079                      .dwattr $C$DW$111, DW_AT_data_member_location[DW_OP_plus_uconst 0x0]
    2080                      .dwattr $C$DW$111, DW_AT_accessibility(DW_ACCESS_public)
    2081              $C$DW$112       .dwtag  DW_TAG_member
    2082                      .dwattr $C$DW$112, DW_AT_type(*$C$DW$T$19)
    2083                      .dwattr $C$DW$112, DW_AT_name("BGSLOPETRIM")
    2084                      .dwattr $C$DW$112, DW_AT_TI_symbol_name("_BGSLOPETRIM")
    2085                      .dwattr $C$DW$112, DW_AT_bit_offset(0x05), DW_AT_bit_size(0x05)
    2086                      .dwattr $C$DW$112, DW_AT_data_member_location[DW_OP_plus_uconst 0x0]
    2087                      .dwattr $C$DW$112, DW_AT_accessibility(DW_ACCESS_public)
    2088              $C$DW$113       .dwtag  DW_TAG_member
    2089                      .dwattr $C$DW$113, DW_AT_type(*$C$DW$T$19)
    2090                      .dwattr $C$DW$113, DW_AT_name("IREFTRIM")
    2091                      .dwattr $C$DW$113, DW_AT_TI_symbol_name("_IREFTRIM")
    2092                      .dwattr $C$DW$113, DW_AT_bit_offset(0x00), DW_AT_bit_size(0x05)
    2093                      .dwattr $C$DW$113, DW_AT_data_member_location[DW_OP_plus_uconst 0x0]
    2094                      .dwattr $C$DW$113, DW_AT_accessibility(DW_ACCESS_public)
    2095              $C$DW$114       .dwtag  DW_TAG_member
    2096                      .dwattr $C$DW$114, DW_AT_type(*$C$DW$T$19)
    2097                      .dwattr $C$DW$114, DW_AT_name("rsvd1")
    2098                      .dwattr $C$DW$114, DW_AT_TI_symbol_name("_rsvd1")
    2099                      .dwattr $C$DW$114, DW_AT_bit_offset(0x08), DW_AT_bit_size(0x08)
    2100                      .dwattr $C$DW$114, DW_AT_data_member_location[DW_OP_plus_uconst 0x1]
    2101                      .dwattr $C$DW$114, DW_AT_accessibility(DW_ACCESS_public)
    2102              $C$DW$115       .dwtag  DW_TAG_member
    2103                      .dwattr $C$DW$115, DW_AT_type(*$C$DW$T$19)
    2104                      .dwattr $C$DW$115, DW_AT_name("rsvd2")
    2105                      .dwattr $C$DW$115, DW_AT_TI_symbol_name("_rsvd2")
    2106                      .dwattr $C$DW$115, DW_AT_bit_offset(0x00), DW_AT_bit_size(0x08)
    2107                      .dwattr $C$DW$115, DW_AT_data_member_location[DW_OP_plus_uconst 0x1]
    2108                      .dwattr $C$DW$115, DW_AT_accessibility(DW_ACCESS_public)
    2109                      .dwendtag $C$DW$T$26
    2110              
    2111              
    2112              $C$DW$T$28      .dwtag  DW_TAG_union_type
    2113                      .dwattr $C$DW$T$28, DW_AT_name("ANAREFTRIMA_REG")
    2114                      .dwattr $C$DW$T$28, DW_AT_byte_size(0x02)
    2115              $C$DW$116       .dwtag  DW_TAG_member
    2116                      .dwattr $C$DW$116, DW_AT_type(*$C$DW$T$27)
    2117                      .dwattr $C$DW$116, DW_AT_name("all")
    2118                      .dwattr $C$DW$116, DW_AT_TI_symbol_name("_all")
TMS320C2000 Assembler PC v6.4.2 Thu Dec 14 15:26:44 2017

Tools Copyright (c) 1996-2015 Texas Instruments Incorporated
F2837xS_SysCtrl.asm                                                  PAGE   43

    2119                      .dwattr $C$DW$116, DW_AT_data_member_location[DW_OP_plus_uconst 0x0]
    2120                      .dwattr $C$DW$116, DW_AT_accessibility(DW_ACCESS_public)
    2121              $C$DW$117       .dwtag  DW_TAG_member
    2122                      .dwattr $C$DW$117, DW_AT_type(*$C$DW$T$26)
    2123                      .dwattr $C$DW$117, DW_AT_name("bit")
    2124                      .dwattr $C$DW$117, DW_AT_TI_symbol_name("_bit")
    2125                      .dwattr $C$DW$117, DW_AT_data_member_location[DW_OP_plus_uconst 0x0]
    2126                      .dwattr $C$DW$117, DW_AT_accessibility(DW_ACCESS_public)
    2127                      .dwendtag $C$DW$T$28
    2128              
    2129              
    2130              $C$DW$T$29      .dwtag  DW_TAG_structure_type
    2131                      .dwattr $C$DW$T$29, DW_AT_name("ANAREFTRIMB_BITS")
    2132                      .dwattr $C$DW$T$29, DW_AT_byte_size(0x02)
    2133              $C$DW$118       .dwtag  DW_TAG_member
    2134                      .dwattr $C$DW$118, DW_AT_type(*$C$DW$T$19)
    2135                      .dwattr $C$DW$118, DW_AT_name("BGVALTRIM")
    2136                      .dwattr $C$DW$118, DW_AT_TI_symbol_name("_BGVALTRIM")
    2137                      .dwattr $C$DW$118, DW_AT_bit_offset(0x0a), DW_AT_bit_size(0x06)
    2138                      .dwattr $C$DW$118, DW_AT_data_member_location[DW_OP_plus_uconst 0x0]
    2139                      .dwattr $C$DW$118, DW_AT_accessibility(DW_ACCESS_public)
    2140              $C$DW$119       .dwtag  DW_TAG_member
    2141                      .dwattr $C$DW$119, DW_AT_type(*$C$DW$T$19)
    2142                      .dwattr $C$DW$119, DW_AT_name("BGSLOPETRIM")
    2143                      .dwattr $C$DW$119, DW_AT_TI_symbol_name("_BGSLOPETRIM")
    2144                      .dwattr $C$DW$119, DW_AT_bit_offset(0x05), DW_AT_bit_size(0x05)
    2145                      .dwattr $C$DW$119, DW_AT_data_member_location[DW_OP_plus_uconst 0x0]
    2146                      .dwattr $C$DW$119, DW_AT_accessibility(DW_ACCESS_public)
    2147              $C$DW$120       .dwtag  DW_TAG_member
    2148                      .dwattr $C$DW$120, DW_AT_type(*$C$DW$T$19)
    2149                      .dwattr $C$DW$120, DW_AT_name("IREFTRIM")
    2150                      .dwattr $C$DW$120, DW_AT_TI_symbol_name("_IREFTRIM")
    2151                      .dwattr $C$DW$120, DW_AT_bit_offset(0x00), DW_AT_bit_size(0x05)
    2152                      .dwattr $C$DW$120, DW_AT_data_member_location[DW_OP_plus_uconst 0x0]
    2153                      .dwattr $C$DW$120, DW_AT_accessibility(DW_ACCESS_public)
    2154              $C$DW$121       .dwtag  DW_TAG_member
    2155                      .dwattr $C$DW$121, DW_AT_type(*$C$DW$T$19)
    2156                      .dwattr $C$DW$121, DW_AT_name("rsvd1")
    2157                      .dwattr $C$DW$121, DW_AT_TI_symbol_name("_rsvd1")
    2158                      .dwattr $C$DW$121, DW_AT_bit_offset(0x08), DW_AT_bit_size(0x08)
    2159                      .dwattr $C$DW$121, DW_AT_data_member_location[DW_OP_plus_uconst 0x1]
    2160                      .dwattr $C$DW$121, DW_AT_accessibility(DW_ACCESS_public)
    2161              $C$DW$122       .dwtag  DW_TAG_member
    2162                      .dwattr $C$DW$122, DW_AT_type(*$C$DW$T$19)
    2163                      .dwattr $C$DW$122, DW_AT_name("rsvd2")
    2164                      .dwattr $C$DW$122, DW_AT_TI_symbol_name("_rsvd2")
    2165                      .dwattr $C$DW$122, DW_AT_bit_offset(0x00), DW_AT_bit_size(0x08)
    2166                      .dwattr $C$DW$122, DW_AT_data_member_location[DW_OP_plus_uconst 0x1]
    2167                      .dwattr $C$DW$122, DW_AT_accessibility(DW_ACCESS_public)
    2168                      .dwendtag $C$DW$T$29
    2169              
    2170              
    2171              $C$DW$T$30      .dwtag  DW_TAG_union_type
    2172                      .dwattr $C$DW$T$30, DW_AT_name("ANAREFTRIMB_REG")
    2173                      .dwattr $C$DW$T$30, DW_AT_byte_size(0x02)
TMS320C2000 Assembler PC v6.4.2 Thu Dec 14 15:26:44 2017

Tools Copyright (c) 1996-2015 Texas Instruments Incorporated
F2837xS_SysCtrl.asm                                                  PAGE   44

    2174              $C$DW$123       .dwtag  DW_TAG_member
    2175                      .dwattr $C$DW$123, DW_AT_type(*$C$DW$T$27)
    2176                      .dwattr $C$DW$123, DW_AT_name("all")
    2177                      .dwattr $C$DW$123, DW_AT_TI_symbol_name("_all")
    2178                      .dwattr $C$DW$123, DW_AT_data_member_location[DW_OP_plus_uconst 0x0]
    2179                      .dwattr $C$DW$123, DW_AT_accessibility(DW_ACCESS_public)
    2180              $C$DW$124       .dwtag  DW_TAG_member
    2181                      .dwattr $C$DW$124, DW_AT_type(*$C$DW$T$29)
    2182                      .dwattr $C$DW$124, DW_AT_name("bit")
    2183                      .dwattr $C$DW$124, DW_AT_TI_symbol_name("_bit")
    2184                      .dwattr $C$DW$124, DW_AT_data_member_location[DW_OP_plus_uconst 0x0]
    2185                      .dwattr $C$DW$124, DW_AT_accessibility(DW_ACCESS_public)
    2186                      .dwendtag $C$DW$T$30
    2187              
    2188              
    2189              $C$DW$T$31      .dwtag  DW_TAG_structure_type
    2190                      .dwattr $C$DW$T$31, DW_AT_name("ANAREFTRIMC_BITS")
    2191                      .dwattr $C$DW$T$31, DW_AT_byte_size(0x02)
    2192              $C$DW$125       .dwtag  DW_TAG_member
    2193                      .dwattr $C$DW$125, DW_AT_type(*$C$DW$T$19)
    2194                      .dwattr $C$DW$125, DW_AT_name("BGVALTRIM")
    2195                      .dwattr $C$DW$125, DW_AT_TI_symbol_name("_BGVALTRIM")
    2196                      .dwattr $C$DW$125, DW_AT_bit_offset(0x0a), DW_AT_bit_size(0x06)
    2197                      .dwattr $C$DW$125, DW_AT_data_member_location[DW_OP_plus_uconst 0x0]
    2198                      .dwattr $C$DW$125, DW_AT_accessibility(DW_ACCESS_public)
    2199              $C$DW$126       .dwtag  DW_TAG_member
    2200                      .dwattr $C$DW$126, DW_AT_type(*$C$DW$T$19)
    2201                      .dwattr $C$DW$126, DW_AT_name("BGSLOPETRIM")
    2202                      .dwattr $C$DW$126, DW_AT_TI_symbol_name("_BGSLOPETRIM")
    2203                      .dwattr $C$DW$126, DW_AT_bit_offset(0x05), DW_AT_bit_size(0x05)
    2204                      .dwattr $C$DW$126, DW_AT_data_member_location[DW_OP_plus_uconst 0x0]
    2205                      .dwattr $C$DW$126, DW_AT_accessibility(DW_ACCESS_public)
    2206              $C$DW$127       .dwtag  DW_TAG_member
    2207                      .dwattr $C$DW$127, DW_AT_type(*$C$DW$T$19)
    2208                      .dwattr $C$DW$127, DW_AT_name("IREFTRIM")
    2209                      .dwattr $C$DW$127, DW_AT_TI_symbol_name("_IREFTRIM")
    2210                      .dwattr $C$DW$127, DW_AT_bit_offset(0x00), DW_AT_bit_size(0x05)
    2211                      .dwattr $C$DW$127, DW_AT_data_member_location[DW_OP_plus_uconst 0x0]
    2212                      .dwattr $C$DW$127, DW_AT_accessibility(DW_ACCESS_public)
    2213              $C$DW$128       .dwtag  DW_TAG_member
    2214                      .dwattr $C$DW$128, DW_AT_type(*$C$DW$T$19)
    2215                      .dwattr $C$DW$128, DW_AT_name("rsvd1")
    2216                      .dwattr $C$DW$128, DW_AT_TI_symbol_name("_rsvd1")
    2217                      .dwattr $C$DW$128, DW_AT_bit_offset(0x08), DW_AT_bit_size(0x08)
    2218                      .dwattr $C$DW$128, DW_AT_data_member_location[DW_OP_plus_uconst 0x1]
    2219                      .dwattr $C$DW$128, DW_AT_accessibility(DW_ACCESS_public)
    2220              $C$DW$129       .dwtag  DW_TAG_member
    2221                      .dwattr $C$DW$129, DW_AT_type(*$C$DW$T$19)
    2222                      .dwattr $C$DW$129, DW_AT_name("rsvd2")
    2223                      .dwattr $C$DW$129, DW_AT_TI_symbol_name("_rsvd2")
    2224                      .dwattr $C$DW$129, DW_AT_bit_offset(0x00), DW_AT_bit_size(0x08)
    2225                      .dwattr $C$DW$129, DW_AT_data_member_location[DW_OP_plus_uconst 0x1]
    2226                      .dwattr $C$DW$129, DW_AT_accessibility(DW_ACCESS_public)
    2227                      .dwendtag $C$DW$T$31
    2228              
TMS320C2000 Assembler PC v6.4.2 Thu Dec 14 15:26:44 2017

Tools Copyright (c) 1996-2015 Texas Instruments Incorporated
F2837xS_SysCtrl.asm                                                  PAGE   45

    2229              
    2230              $C$DW$T$32      .dwtag  DW_TAG_union_type
    2231                      .dwattr $C$DW$T$32, DW_AT_name("ANAREFTRIMC_REG")
    2232                      .dwattr $C$DW$T$32, DW_AT_byte_size(0x02)
    2233              $C$DW$130       .dwtag  DW_TAG_member
    2234                      .dwattr $C$DW$130, DW_AT_type(*$C$DW$T$27)
    2235                      .dwattr $C$DW$130, DW_AT_name("all")
    2236                      .dwattr $C$DW$130, DW_AT_TI_symbol_name("_all")
    2237                      .dwattr $C$DW$130, DW_AT_data_member_location[DW_OP_plus_uconst 0x0]
    2238                      .dwattr $C$DW$130, DW_AT_accessibility(DW_ACCESS_public)
    2239              $C$DW$131       .dwtag  DW_TAG_member
    2240                      .dwattr $C$DW$131, DW_AT_type(*$C$DW$T$31)
    2241                      .dwattr $C$DW$131, DW_AT_name("bit")
    2242                      .dwattr $C$DW$131, DW_AT_TI_symbol_name("_bit")
    2243                      .dwattr $C$DW$131, DW_AT_data_member_location[DW_OP_plus_uconst 0x0]
    2244                      .dwattr $C$DW$131, DW_AT_accessibility(DW_ACCESS_public)
    2245                      .dwendtag $C$DW$T$32
    2246              
    2247              
    2248              $C$DW$T$33      .dwtag  DW_TAG_structure_type
    2249                      .dwattr $C$DW$T$33, DW_AT_name("ANAREFTRIMD_BITS")
    2250                      .dwattr $C$DW$T$33, DW_AT_byte_size(0x02)
    2251              $C$DW$132       .dwtag  DW_TAG_member
    2252                      .dwattr $C$DW$132, DW_AT_type(*$C$DW$T$19)
    2253                      .dwattr $C$DW$132, DW_AT_name("BGVALTRIM")
    2254                      .dwattr $C$DW$132, DW_AT_TI_symbol_name("_BGVALTRIM")
    2255                      .dwattr $C$DW$132, DW_AT_bit_offset(0x0a), DW_AT_bit_size(0x06)
    2256                      .dwattr $C$DW$132, DW_AT_data_member_location[DW_OP_plus_uconst 0x0]
    2257                      .dwattr $C$DW$132, DW_AT_accessibility(DW_ACCESS_public)
    2258              $C$DW$133       .dwtag  DW_TAG_member
    2259                      .dwattr $C$DW$133, DW_AT_type(*$C$DW$T$19)
    2260                      .dwattr $C$DW$133, DW_AT_name("BGSLOPETRIM")
    2261                      .dwattr $C$DW$133, DW_AT_TI_symbol_name("_BGSLOPETRIM")
    2262                      .dwattr $C$DW$133, DW_AT_bit_offset(0x05), DW_AT_bit_size(0x05)
    2263                      .dwattr $C$DW$133, DW_AT_data_member_location[DW_OP_plus_uconst 0x0]
    2264                      .dwattr $C$DW$133, DW_AT_accessibility(DW_ACCESS_public)
    2265              $C$DW$134       .dwtag  DW_TAG_member
    2266                      .dwattr $C$DW$134, DW_AT_type(*$C$DW$T$19)
    2267                      .dwattr $C$DW$134, DW_AT_name("IREFTRIM")
    2268                      .dwattr $C$DW$134, DW_AT_TI_symbol_name("_IREFTRIM")
    2269                      .dwattr $C$DW$134, DW_AT_bit_offset(0x00), DW_AT_bit_size(0x05)
    2270                      .dwattr $C$DW$134, DW_AT_data_member_location[DW_OP_plus_uconst 0x0]
    2271                      .dwattr $C$DW$134, DW_AT_accessibility(DW_ACCESS_public)
    2272              $C$DW$135       .dwtag  DW_TAG_member
    2273                      .dwattr $C$DW$135, DW_AT_type(*$C$DW$T$19)
    2274                      .dwattr $C$DW$135, DW_AT_name("rsvd1")
    2275                      .dwattr $C$DW$135, DW_AT_TI_symbol_name("_rsvd1")
    2276                      .dwattr $C$DW$135, DW_AT_bit_offset(0x08), DW_AT_bit_size(0x08)
    2277                      .dwattr $C$DW$135, DW_AT_data_member_location[DW_OP_plus_uconst 0x1]
    2278                      .dwattr $C$DW$135, DW_AT_accessibility(DW_ACCESS_public)
    2279              $C$DW$136       .dwtag  DW_TAG_member
    2280                      .dwattr $C$DW$136, DW_AT_type(*$C$DW$T$19)
    2281                      .dwattr $C$DW$136, DW_AT_name("rsvd2")
    2282                      .dwattr $C$DW$136, DW_AT_TI_symbol_name("_rsvd2")
    2283                      .dwattr $C$DW$136, DW_AT_bit_offset(0x00), DW_AT_bit_size(0x08)
TMS320C2000 Assembler PC v6.4.2 Thu Dec 14 15:26:44 2017

Tools Copyright (c) 1996-2015 Texas Instruments Incorporated
F2837xS_SysCtrl.asm                                                  PAGE   46

    2284                      .dwattr $C$DW$136, DW_AT_data_member_location[DW_OP_plus_uconst 0x1]
    2285                      .dwattr $C$DW$136, DW_AT_accessibility(DW_ACCESS_public)
    2286                      .dwendtag $C$DW$T$33
    2287              
    2288              
    2289              $C$DW$T$34      .dwtag  DW_TAG_union_type
    2290                      .dwattr $C$DW$T$34, DW_AT_name("ANAREFTRIMD_REG")
    2291                      .dwattr $C$DW$T$34, DW_AT_byte_size(0x02)
    2292              $C$DW$137       .dwtag  DW_TAG_member
    2293                      .dwattr $C$DW$137, DW_AT_type(*$C$DW$T$27)
    2294                      .dwattr $C$DW$137, DW_AT_name("all")
    2295                      .dwattr $C$DW$137, DW_AT_TI_symbol_name("_all")
    2296                      .dwattr $C$DW$137, DW_AT_data_member_location[DW_OP_plus_uconst 0x0]
    2297                      .dwattr $C$DW$137, DW_AT_accessibility(DW_ACCESS_public)
    2298              $C$DW$138       .dwtag  DW_TAG_member
    2299                      .dwattr $C$DW$138, DW_AT_type(*$C$DW$T$33)
    2300                      .dwattr $C$DW$138, DW_AT_name("bit")
    2301                      .dwattr $C$DW$138, DW_AT_TI_symbol_name("_bit")
    2302                      .dwattr $C$DW$138, DW_AT_data_member_location[DW_OP_plus_uconst 0x0]
    2303                      .dwattr $C$DW$138, DW_AT_accessibility(DW_ACCESS_public)
    2304                      .dwendtag $C$DW$T$34
    2305              
    2306              
    2307              $C$DW$T$35      .dwtag  DW_TAG_structure_type
    2308                      .dwattr $C$DW$T$35, DW_AT_name("AUXCLKDIVSEL_BITS")
    2309                      .dwattr $C$DW$T$35, DW_AT_byte_size(0x02)
    2310              $C$DW$139       .dwtag  DW_TAG_member
    2311                      .dwattr $C$DW$139, DW_AT_type(*$C$DW$T$19)
    2312                      .dwattr $C$DW$139, DW_AT_name("AUXPLLDIV")
    2313                      .dwattr $C$DW$139, DW_AT_TI_symbol_name("_AUXPLLDIV")
    2314                      .dwattr $C$DW$139, DW_AT_bit_offset(0x0e), DW_AT_bit_size(0x02)
    2315                      .dwattr $C$DW$139, DW_AT_data_member_location[DW_OP_plus_uconst 0x0]
    2316                      .dwattr $C$DW$139, DW_AT_accessibility(DW_ACCESS_public)
    2317              $C$DW$140       .dwtag  DW_TAG_member
    2318                      .dwattr $C$DW$140, DW_AT_type(*$C$DW$T$19)
    2319                      .dwattr $C$DW$140, DW_AT_name("rsvd1")
    2320                      .dwattr $C$DW$140, DW_AT_TI_symbol_name("_rsvd1")
    2321                      .dwattr $C$DW$140, DW_AT_bit_offset(0x00), DW_AT_bit_size(0x0e)
    2322                      .dwattr $C$DW$140, DW_AT_data_member_location[DW_OP_plus_uconst 0x0]
    2323                      .dwattr $C$DW$140, DW_AT_accessibility(DW_ACCESS_public)
    2324              $C$DW$141       .dwtag  DW_TAG_member
    2325                      .dwattr $C$DW$141, DW_AT_type(*$C$DW$T$19)
    2326                      .dwattr $C$DW$141, DW_AT_name("rsvd2")
    2327                      .dwattr $C$DW$141, DW_AT_TI_symbol_name("_rsvd2")
    2328                      .dwattr $C$DW$141, DW_AT_bit_offset(0x00), DW_AT_bit_size(0x10)
    2329                      .dwattr $C$DW$141, DW_AT_data_member_location[DW_OP_plus_uconst 0x1]
    2330                      .dwattr $C$DW$141, DW_AT_accessibility(DW_ACCESS_public)
    2331                      .dwendtag $C$DW$T$35
    2332              
    2333              
    2334              $C$DW$T$36      .dwtag  DW_TAG_union_type
    2335                      .dwattr $C$DW$T$36, DW_AT_name("AUXCLKDIVSEL_REG")
    2336                      .dwattr $C$DW$T$36, DW_AT_byte_size(0x02)
    2337              $C$DW$142       .dwtag  DW_TAG_member
    2338                      .dwattr $C$DW$142, DW_AT_type(*$C$DW$T$27)
TMS320C2000 Assembler PC v6.4.2 Thu Dec 14 15:26:44 2017

Tools Copyright (c) 1996-2015 Texas Instruments Incorporated
F2837xS_SysCtrl.asm                                                  PAGE   47

    2339                      .dwattr $C$DW$142, DW_AT_name("all")
    2340                      .dwattr $C$DW$142, DW_AT_TI_symbol_name("_all")
    2341                      .dwattr $C$DW$142, DW_AT_data_member_location[DW_OP_plus_uconst 0x0]
    2342                      .dwattr $C$DW$142, DW_AT_accessibility(DW_ACCESS_public)
    2343              $C$DW$143       .dwtag  DW_TAG_member
    2344                      .dwattr $C$DW$143, DW_AT_type(*$C$DW$T$35)
    2345                      .dwattr $C$DW$143, DW_AT_name("bit")
    2346                      .dwattr $C$DW$143, DW_AT_TI_symbol_name("_bit")
    2347                      .dwattr $C$DW$143, DW_AT_data_member_location[DW_OP_plus_uconst 0x0]
    2348                      .dwattr $C$DW$143, DW_AT_accessibility(DW_ACCESS_public)
    2349                      .dwendtag $C$DW$T$36
    2350              
    2351              
    2352              $C$DW$T$37      .dwtag  DW_TAG_structure_type
    2353                      .dwattr $C$DW$T$37, DW_AT_name("AUXPLLCTL1_BITS")
    2354                      .dwattr $C$DW$T$37, DW_AT_byte_size(0x02)
    2355              $C$DW$144       .dwtag  DW_TAG_member
    2356                      .dwattr $C$DW$144, DW_AT_type(*$C$DW$T$19)
    2357                      .dwattr $C$DW$144, DW_AT_name("PLLEN")
    2358                      .dwattr $C$DW$144, DW_AT_TI_symbol_name("_PLLEN")
    2359                      .dwattr $C$DW$144, DW_AT_bit_offset(0x0f), DW_AT_bit_size(0x01)
    2360                      .dwattr $C$DW$144, DW_AT_data_member_location[DW_OP_plus_uconst 0x0]
    2361                      .dwattr $C$DW$144, DW_AT_accessibility(DW_ACCESS_public)
    2362              $C$DW$145       .dwtag  DW_TAG_member
    2363                      .dwattr $C$DW$145, DW_AT_type(*$C$DW$T$19)
    2364                      .dwattr $C$DW$145, DW_AT_name("PLLCLKEN")
    2365                      .dwattr $C$DW$145, DW_AT_TI_symbol_name("_PLLCLKEN")
    2366                      .dwattr $C$DW$145, DW_AT_bit_offset(0x0e), DW_AT_bit_size(0x01)
    2367                      .dwattr $C$DW$145, DW_AT_data_member_location[DW_OP_plus_uconst 0x0]
    2368                      .dwattr $C$DW$145, DW_AT_accessibility(DW_ACCESS_public)
    2369              $C$DW$146       .dwtag  DW_TAG_member
    2370                      .dwattr $C$DW$146, DW_AT_type(*$C$DW$T$19)
    2371                      .dwattr $C$DW$146, DW_AT_name("rsvd1")
    2372                      .dwattr $C$DW$146, DW_AT_TI_symbol_name("_rsvd1")
    2373                      .dwattr $C$DW$146, DW_AT_bit_offset(0x00), DW_AT_bit_size(0x0e)
    2374                      .dwattr $C$DW$146, DW_AT_data_member_location[DW_OP_plus_uconst 0x0]
    2375                      .dwattr $C$DW$146, DW_AT_accessibility(DW_ACCESS_public)
    2376              $C$DW$147       .dwtag  DW_TAG_member
    2377                      .dwattr $C$DW$147, DW_AT_type(*$C$DW$T$19)
    2378                      .dwattr $C$DW$147, DW_AT_name("rsvd2")
    2379                      .dwattr $C$DW$147, DW_AT_TI_symbol_name("_rsvd2")
    2380                      .dwattr $C$DW$147, DW_AT_bit_offset(0x00), DW_AT_bit_size(0x10)
    2381                      .dwattr $C$DW$147, DW_AT_data_member_location[DW_OP_plus_uconst 0x1]
    2382                      .dwattr $C$DW$147, DW_AT_accessibility(DW_ACCESS_public)
    2383                      .dwendtag $C$DW$T$37
    2384              
    2385              
    2386              $C$DW$T$38      .dwtag  DW_TAG_union_type
    2387                      .dwattr $C$DW$T$38, DW_AT_name("AUXPLLCTL1_REG")
    2388                      .dwattr $C$DW$T$38, DW_AT_byte_size(0x02)
    2389              $C$DW$148       .dwtag  DW_TAG_member
    2390                      .dwattr $C$DW$148, DW_AT_type(*$C$DW$T$27)
    2391                      .dwattr $C$DW$148, DW_AT_name("all")
    2392                      .dwattr $C$DW$148, DW_AT_TI_symbol_name("_all")
    2393                      .dwattr $C$DW$148, DW_AT_data_member_location[DW_OP_plus_uconst 0x0]
TMS320C2000 Assembler PC v6.4.2 Thu Dec 14 15:26:44 2017

Tools Copyright (c) 1996-2015 Texas Instruments Incorporated
F2837xS_SysCtrl.asm                                                  PAGE   48

    2394                      .dwattr $C$DW$148, DW_AT_accessibility(DW_ACCESS_public)
    2395              $C$DW$149       .dwtag  DW_TAG_member
    2396                      .dwattr $C$DW$149, DW_AT_type(*$C$DW$T$37)
    2397                      .dwattr $C$DW$149, DW_AT_name("bit")
    2398                      .dwattr $C$DW$149, DW_AT_TI_symbol_name("_bit")
    2399                      .dwattr $C$DW$149, DW_AT_data_member_location[DW_OP_plus_uconst 0x0]
    2400                      .dwattr $C$DW$149, DW_AT_accessibility(DW_ACCESS_public)
    2401                      .dwendtag $C$DW$T$38
    2402              
    2403              
    2404              $C$DW$T$39      .dwtag  DW_TAG_structure_type
    2405                      .dwattr $C$DW$T$39, DW_AT_name("AUXPLLMULT_BITS")
    2406                      .dwattr $C$DW$T$39, DW_AT_byte_size(0x02)
    2407              $C$DW$150       .dwtag  DW_TAG_member
    2408                      .dwattr $C$DW$150, DW_AT_type(*$C$DW$T$19)
    2409                      .dwattr $C$DW$150, DW_AT_name("IMULT")
    2410                      .dwattr $C$DW$150, DW_AT_TI_symbol_name("_IMULT")
    2411                      .dwattr $C$DW$150, DW_AT_bit_offset(0x09), DW_AT_bit_size(0x07)
    2412                      .dwattr $C$DW$150, DW_AT_data_member_location[DW_OP_plus_uconst 0x0]
    2413                      .dwattr $C$DW$150, DW_AT_accessibility(DW_ACCESS_public)
    2414              $C$DW$151       .dwtag  DW_TAG_member
    2415                      .dwattr $C$DW$151, DW_AT_type(*$C$DW$T$19)
    2416                      .dwattr $C$DW$151, DW_AT_name("rsvd1")
    2417                      .dwattr $C$DW$151, DW_AT_TI_symbol_name("_rsvd1")
    2418                      .dwattr $C$DW$151, DW_AT_bit_offset(0x08), DW_AT_bit_size(0x01)
    2419                      .dwattr $C$DW$151, DW_AT_data_member_location[DW_OP_plus_uconst 0x0]
    2420                      .dwattr $C$DW$151, DW_AT_accessibility(DW_ACCESS_public)
    2421              $C$DW$152       .dwtag  DW_TAG_member
    2422                      .dwattr $C$DW$152, DW_AT_type(*$C$DW$T$19)
    2423                      .dwattr $C$DW$152, DW_AT_name("FMULT")
    2424                      .dwattr $C$DW$152, DW_AT_TI_symbol_name("_FMULT")
    2425                      .dwattr $C$DW$152, DW_AT_bit_offset(0x06), DW_AT_bit_size(0x02)
    2426                      .dwattr $C$DW$152, DW_AT_data_member_location[DW_OP_plus_uconst 0x0]
    2427                      .dwattr $C$DW$152, DW_AT_accessibility(DW_ACCESS_public)
    2428              $C$DW$153       .dwtag  DW_TAG_member
    2429                      .dwattr $C$DW$153, DW_AT_type(*$C$DW$T$19)
    2430                      .dwattr $C$DW$153, DW_AT_name("rsvd2")
    2431                      .dwattr $C$DW$153, DW_AT_TI_symbol_name("_rsvd2")
    2432                      .dwattr $C$DW$153, DW_AT_bit_offset(0x00), DW_AT_bit_size(0x06)
    2433                      .dwattr $C$DW$153, DW_AT_data_member_location[DW_OP_plus_uconst 0x0]
    2434                      .dwattr $C$DW$153, DW_AT_accessibility(DW_ACCESS_public)
    2435              $C$DW$154       .dwtag  DW_TAG_member
    2436                      .dwattr $C$DW$154, DW_AT_type(*$C$DW$T$19)
    2437                      .dwattr $C$DW$154, DW_AT_name("rsvd3")
    2438                      .dwattr $C$DW$154, DW_AT_TI_symbol_name("_rsvd3")
    2439                      .dwattr $C$DW$154, DW_AT_bit_offset(0x00), DW_AT_bit_size(0x10)
    2440                      .dwattr $C$DW$154, DW_AT_data_member_location[DW_OP_plus_uconst 0x1]
    2441                      .dwattr $C$DW$154, DW_AT_accessibility(DW_ACCESS_public)
    2442                      .dwendtag $C$DW$T$39
    2443              
    2444              
    2445              $C$DW$T$40      .dwtag  DW_TAG_union_type
    2446                      .dwattr $C$DW$T$40, DW_AT_name("AUXPLLMULT_REG")
    2447                      .dwattr $C$DW$T$40, DW_AT_byte_size(0x02)
    2448              $C$DW$155       .dwtag  DW_TAG_member
TMS320C2000 Assembler PC v6.4.2 Thu Dec 14 15:26:44 2017

Tools Copyright (c) 1996-2015 Texas Instruments Incorporated
F2837xS_SysCtrl.asm                                                  PAGE   49

    2449                      .dwattr $C$DW$155, DW_AT_type(*$C$DW$T$27)
    2450                      .dwattr $C$DW$155, DW_AT_name("all")
    2451                      .dwattr $C$DW$155, DW_AT_TI_symbol_name("_all")
    2452                      .dwattr $C$DW$155, DW_AT_data_member_location[DW_OP_plus_uconst 0x0]
    2453                      .dwattr $C$DW$155, DW_AT_accessibility(DW_ACCESS_public)
    2454              $C$DW$156       .dwtag  DW_TAG_member
    2455                      .dwattr $C$DW$156, DW_AT_type(*$C$DW$T$39)
    2456                      .dwattr $C$DW$156, DW_AT_name("bit")
    2457                      .dwattr $C$DW$156, DW_AT_TI_symbol_name("_bit")
    2458                      .dwattr $C$DW$156, DW_AT_data_member_location[DW_OP_plus_uconst 0x0]
    2459                      .dwattr $C$DW$156, DW_AT_accessibility(DW_ACCESS_public)
    2460                      .dwendtag $C$DW$T$40
    2461              
    2462              
    2463              $C$DW$T$41      .dwtag  DW_TAG_structure_type
    2464                      .dwattr $C$DW$T$41, DW_AT_name("AUXPLLSTS_BITS")
    2465                      .dwattr $C$DW$T$41, DW_AT_byte_size(0x02)
    2466              $C$DW$157       .dwtag  DW_TAG_member
    2467                      .dwattr $C$DW$157, DW_AT_type(*$C$DW$T$19)
    2468                      .dwattr $C$DW$157, DW_AT_name("LOCKS")
    2469                      .dwattr $C$DW$157, DW_AT_TI_symbol_name("_LOCKS")
    2470                      .dwattr $C$DW$157, DW_AT_bit_offset(0x0f), DW_AT_bit_size(0x01)
    2471                      .dwattr $C$DW$157, DW_AT_data_member_location[DW_OP_plus_uconst 0x0]
    2472                      .dwattr $C$DW$157, DW_AT_accessibility(DW_ACCESS_public)
    2473              $C$DW$158       .dwtag  DW_TAG_member
    2474                      .dwattr $C$DW$158, DW_AT_type(*$C$DW$T$19)
    2475                      .dwattr $C$DW$158, DW_AT_name("SLIPS")
    2476                      .dwattr $C$DW$158, DW_AT_TI_symbol_name("_SLIPS")
    2477                      .dwattr $C$DW$158, DW_AT_bit_offset(0x0e), DW_AT_bit_size(0x01)
    2478                      .dwattr $C$DW$158, DW_AT_data_member_location[DW_OP_plus_uconst 0x0]
    2479                      .dwattr $C$DW$158, DW_AT_accessibility(DW_ACCESS_public)
    2480              $C$DW$159       .dwtag  DW_TAG_member
    2481                      .dwattr $C$DW$159, DW_AT_type(*$C$DW$T$19)
    2482                      .dwattr $C$DW$159, DW_AT_name("rsvd1")
    2483                      .dwattr $C$DW$159, DW_AT_TI_symbol_name("_rsvd1")
    2484                      .dwattr $C$DW$159, DW_AT_bit_offset(0x00), DW_AT_bit_size(0x0e)
    2485                      .dwattr $C$DW$159, DW_AT_data_member_location[DW_OP_plus_uconst 0x0]
    2486                      .dwattr $C$DW$159, DW_AT_accessibility(DW_ACCESS_public)
    2487              $C$DW$160       .dwtag  DW_TAG_member
    2488                      .dwattr $C$DW$160, DW_AT_type(*$C$DW$T$19)
    2489                      .dwattr $C$DW$160, DW_AT_name("rsvd2")
    2490                      .dwattr $C$DW$160, DW_AT_TI_symbol_name("_rsvd2")
    2491                      .dwattr $C$DW$160, DW_AT_bit_offset(0x00), DW_AT_bit_size(0x10)
    2492                      .dwattr $C$DW$160, DW_AT_data_member_location[DW_OP_plus_uconst 0x1]
    2493                      .dwattr $C$DW$160, DW_AT_accessibility(DW_ACCESS_public)
    2494                      .dwendtag $C$DW$T$41
    2495              
    2496              
    2497              $C$DW$T$42      .dwtag  DW_TAG_union_type
    2498                      .dwattr $C$DW$T$42, DW_AT_name("AUXPLLSTS_REG")
    2499                      .dwattr $C$DW$T$42, DW_AT_byte_size(0x02)
    2500              $C$DW$161       .dwtag  DW_TAG_member
    2501                      .dwattr $C$DW$161, DW_AT_type(*$C$DW$T$27)
    2502                      .dwattr $C$DW$161, DW_AT_name("all")
    2503                      .dwattr $C$DW$161, DW_AT_TI_symbol_name("_all")
TMS320C2000 Assembler PC v6.4.2 Thu Dec 14 15:26:44 2017

Tools Copyright (c) 1996-2015 Texas Instruments Incorporated
F2837xS_SysCtrl.asm                                                  PAGE   50

    2504                      .dwattr $C$DW$161, DW_AT_data_member_location[DW_OP_plus_uconst 0x0]
    2505                      .dwattr $C$DW$161, DW_AT_accessibility(DW_ACCESS_public)
    2506              $C$DW$162       .dwtag  DW_TAG_member
    2507                      .dwattr $C$DW$162, DW_AT_type(*$C$DW$T$41)
    2508                      .dwattr $C$DW$162, DW_AT_name("bit")
    2509                      .dwattr $C$DW$162, DW_AT_TI_symbol_name("_bit")
    2510                      .dwattr $C$DW$162, DW_AT_data_member_location[DW_OP_plus_uconst 0x0]
    2511                      .dwattr $C$DW$162, DW_AT_accessibility(DW_ACCESS_public)
    2512                      .dwendtag $C$DW$T$42
    2513              
    2514              
    2515              $C$DW$T$43      .dwtag  DW_TAG_structure_type
    2516                      .dwattr $C$DW$T$43, DW_AT_name("CLKCFGLOCK1_BITS")
    2517                      .dwattr $C$DW$T$43, DW_AT_byte_size(0x02)
    2518              $C$DW$163       .dwtag  DW_TAG_member
    2519                      .dwattr $C$DW$163, DW_AT_type(*$C$DW$T$19)
    2520                      .dwattr $C$DW$163, DW_AT_name("CLKSRCCTL1")
    2521                      .dwattr $C$DW$163, DW_AT_TI_symbol_name("_CLKSRCCTL1")
    2522                      .dwattr $C$DW$163, DW_AT_bit_offset(0x0f), DW_AT_bit_size(0x01)
    2523                      .dwattr $C$DW$163, DW_AT_data_member_location[DW_OP_plus_uconst 0x0]
    2524                      .dwattr $C$DW$163, DW_AT_accessibility(DW_ACCESS_public)
    2525              $C$DW$164       .dwtag  DW_TAG_member
    2526                      .dwattr $C$DW$164, DW_AT_type(*$C$DW$T$19)
    2527                      .dwattr $C$DW$164, DW_AT_name("CLKSRCCTL2")
    2528                      .dwattr $C$DW$164, DW_AT_TI_symbol_name("_CLKSRCCTL2")
    2529                      .dwattr $C$DW$164, DW_AT_bit_offset(0x0e), DW_AT_bit_size(0x01)
    2530                      .dwattr $C$DW$164, DW_AT_data_member_location[DW_OP_plus_uconst 0x0]
    2531                      .dwattr $C$DW$164, DW_AT_accessibility(DW_ACCESS_public)
    2532              $C$DW$165       .dwtag  DW_TAG_member
    2533                      .dwattr $C$DW$165, DW_AT_type(*$C$DW$T$19)
    2534                      .dwattr $C$DW$165, DW_AT_name("CLKSRCCTL3")
    2535                      .dwattr $C$DW$165, DW_AT_TI_symbol_name("_CLKSRCCTL3")
    2536                      .dwattr $C$DW$165, DW_AT_bit_offset(0x0d), DW_AT_bit_size(0x01)
    2537                      .dwattr $C$DW$165, DW_AT_data_member_location[DW_OP_plus_uconst 0x0]
    2538                      .dwattr $C$DW$165, DW_AT_accessibility(DW_ACCESS_public)
    2539              $C$DW$166       .dwtag  DW_TAG_member
    2540                      .dwattr $C$DW$166, DW_AT_type(*$C$DW$T$19)
    2541                      .dwattr $C$DW$166, DW_AT_name("SYSPLLCTL1")
    2542                      .dwattr $C$DW$166, DW_AT_TI_symbol_name("_SYSPLLCTL1")
    2543                      .dwattr $C$DW$166, DW_AT_bit_offset(0x0c), DW_AT_bit_size(0x01)
    2544                      .dwattr $C$DW$166, DW_AT_data_member_location[DW_OP_plus_uconst 0x0]
    2545                      .dwattr $C$DW$166, DW_AT_accessibility(DW_ACCESS_public)
    2546              $C$DW$167       .dwtag  DW_TAG_member
    2547                      .dwattr $C$DW$167, DW_AT_type(*$C$DW$T$19)
    2548                      .dwattr $C$DW$167, DW_AT_name("SYSPLLCTL2")
    2549                      .dwattr $C$DW$167, DW_AT_TI_symbol_name("_SYSPLLCTL2")
    2550                      .dwattr $C$DW$167, DW_AT_bit_offset(0x0b), DW_AT_bit_size(0x01)
    2551                      .dwattr $C$DW$167, DW_AT_data_member_location[DW_OP_plus_uconst 0x0]
    2552                      .dwattr $C$DW$167, DW_AT_accessibility(DW_ACCESS_public)
    2553              $C$DW$168       .dwtag  DW_TAG_member
    2554                      .dwattr $C$DW$168, DW_AT_type(*$C$DW$T$19)
    2555                      .dwattr $C$DW$168, DW_AT_name("SYSPLLCTL3")
    2556                      .dwattr $C$DW$168, DW_AT_TI_symbol_name("_SYSPLLCTL3")
    2557                      .dwattr $C$DW$168, DW_AT_bit_offset(0x0a), DW_AT_bit_size(0x01)
    2558                      .dwattr $C$DW$168, DW_AT_data_member_location[DW_OP_plus_uconst 0x0]
TMS320C2000 Assembler PC v6.4.2 Thu Dec 14 15:26:44 2017

Tools Copyright (c) 1996-2015 Texas Instruments Incorporated
F2837xS_SysCtrl.asm                                                  PAGE   51

    2559                      .dwattr $C$DW$168, DW_AT_accessibility(DW_ACCESS_public)
    2560              $C$DW$169       .dwtag  DW_TAG_member
    2561                      .dwattr $C$DW$169, DW_AT_type(*$C$DW$T$19)
    2562                      .dwattr $C$DW$169, DW_AT_name("SYSPLLMULT")
    2563                      .dwattr $C$DW$169, DW_AT_TI_symbol_name("_SYSPLLMULT")
    2564                      .dwattr $C$DW$169, DW_AT_bit_offset(0x09), DW_AT_bit_size(0x01)
    2565                      .dwattr $C$DW$169, DW_AT_data_member_location[DW_OP_plus_uconst 0x0]
    2566                      .dwattr $C$DW$169, DW_AT_accessibility(DW_ACCESS_public)
    2567              $C$DW$170       .dwtag  DW_TAG_member
    2568                      .dwattr $C$DW$170, DW_AT_type(*$C$DW$T$19)
    2569                      .dwattr $C$DW$170, DW_AT_name("AUXPLLCTL1")
    2570                      .dwattr $C$DW$170, DW_AT_TI_symbol_name("_AUXPLLCTL1")
    2571                      .dwattr $C$DW$170, DW_AT_bit_offset(0x08), DW_AT_bit_size(0x01)
    2572                      .dwattr $C$DW$170, DW_AT_data_member_location[DW_OP_plus_uconst 0x0]
    2573                      .dwattr $C$DW$170, DW_AT_accessibility(DW_ACCESS_public)
    2574              $C$DW$171       .dwtag  DW_TAG_member
    2575                      .dwattr $C$DW$171, DW_AT_type(*$C$DW$T$19)
    2576                      .dwattr $C$DW$171, DW_AT_name("rsvd1")
    2577                      .dwattr $C$DW$171, DW_AT_TI_symbol_name("_rsvd1")
    2578                      .dwattr $C$DW$171, DW_AT_bit_offset(0x07), DW_AT_bit_size(0x01)
    2579                      .dwattr $C$DW$171, DW_AT_data_member_location[DW_OP_plus_uconst 0x0]
    2580                      .dwattr $C$DW$171, DW_AT_accessibility(DW_ACCESS_public)
    2581              $C$DW$172       .dwtag  DW_TAG_member
    2582                      .dwattr $C$DW$172, DW_AT_type(*$C$DW$T$19)
    2583                      .dwattr $C$DW$172, DW_AT_name("rsvd2")
    2584                      .dwattr $C$DW$172, DW_AT_TI_symbol_name("_rsvd2")
    2585                      .dwattr $C$DW$172, DW_AT_bit_offset(0x06), DW_AT_bit_size(0x01)
    2586                      .dwattr $C$DW$172, DW_AT_data_member_location[DW_OP_plus_uconst 0x0]
    2587                      .dwattr $C$DW$172, DW_AT_accessibility(DW_ACCESS_public)
    2588              $C$DW$173       .dwtag  DW_TAG_member
    2589                      .dwattr $C$DW$173, DW_AT_type(*$C$DW$T$19)
    2590                      .dwattr $C$DW$173, DW_AT_name("AUXPLLMULT")
    2591                      .dwattr $C$DW$173, DW_AT_TI_symbol_name("_AUXPLLMULT")
    2592                      .dwattr $C$DW$173, DW_AT_bit_offset(0x05), DW_AT_bit_size(0x01)
    2593                      .dwattr $C$DW$173, DW_AT_data_member_location[DW_OP_plus_uconst 0x0]
    2594                      .dwattr $C$DW$173, DW_AT_accessibility(DW_ACCESS_public)
    2595              $C$DW$174       .dwtag  DW_TAG_member
    2596                      .dwattr $C$DW$174, DW_AT_type(*$C$DW$T$19)
    2597                      .dwattr $C$DW$174, DW_AT_name("SYSCLKDIVSEL")
    2598                      .dwattr $C$DW$174, DW_AT_TI_symbol_name("_SYSCLKDIVSEL")
    2599                      .dwattr $C$DW$174, DW_AT_bit_offset(0x04), DW_AT_bit_size(0x01)
    2600                      .dwattr $C$DW$174, DW_AT_data_member_location[DW_OP_plus_uconst 0x0]
    2601                      .dwattr $C$DW$174, DW_AT_accessibility(DW_ACCESS_public)
    2602              $C$DW$175       .dwtag  DW_TAG_member
    2603                      .dwattr $C$DW$175, DW_AT_type(*$C$DW$T$19)
    2604                      .dwattr $C$DW$175, DW_AT_name("AUXCLKDIVSEL")
    2605                      .dwattr $C$DW$175, DW_AT_TI_symbol_name("_AUXCLKDIVSEL")
    2606                      .dwattr $C$DW$175, DW_AT_bit_offset(0x03), DW_AT_bit_size(0x01)
    2607                      .dwattr $C$DW$175, DW_AT_data_member_location[DW_OP_plus_uconst 0x0]
    2608                      .dwattr $C$DW$175, DW_AT_accessibility(DW_ACCESS_public)
    2609              $C$DW$176       .dwtag  DW_TAG_member
    2610                      .dwattr $C$DW$176, DW_AT_type(*$C$DW$T$19)
    2611                      .dwattr $C$DW$176, DW_AT_name("PERCLKDIVSEL")
    2612                      .dwattr $C$DW$176, DW_AT_TI_symbol_name("_PERCLKDIVSEL")
    2613                      .dwattr $C$DW$176, DW_AT_bit_offset(0x02), DW_AT_bit_size(0x01)
TMS320C2000 Assembler PC v6.4.2 Thu Dec 14 15:26:44 2017

Tools Copyright (c) 1996-2015 Texas Instruments Incorporated
F2837xS_SysCtrl.asm                                                  PAGE   52

    2614                      .dwattr $C$DW$176, DW_AT_data_member_location[DW_OP_plus_uconst 0x0]
    2615                      .dwattr $C$DW$176, DW_AT_accessibility(DW_ACCESS_public)
    2616              $C$DW$177       .dwtag  DW_TAG_member
    2617                      .dwattr $C$DW$177, DW_AT_type(*$C$DW$T$19)
    2618                      .dwattr $C$DW$177, DW_AT_name("rsvd3")
    2619                      .dwattr $C$DW$177, DW_AT_TI_symbol_name("_rsvd3")
    2620                      .dwattr $C$DW$177, DW_AT_bit_offset(0x01), DW_AT_bit_size(0x01)
    2621                      .dwattr $C$DW$177, DW_AT_data_member_location[DW_OP_plus_uconst 0x0]
    2622                      .dwattr $C$DW$177, DW_AT_accessibility(DW_ACCESS_public)
    2623              $C$DW$178       .dwtag  DW_TAG_member
    2624                      .dwattr $C$DW$178, DW_AT_type(*$C$DW$T$19)
    2625                      .dwattr $C$DW$178, DW_AT_name("LOSPCP")
    2626                      .dwattr $C$DW$178, DW_AT_TI_symbol_name("_LOSPCP")
    2627                      .dwattr $C$DW$178, DW_AT_bit_offset(0x00), DW_AT_bit_size(0x01)
    2628                      .dwattr $C$DW$178, DW_AT_data_member_location[DW_OP_plus_uconst 0x0]
    2629                      .dwattr $C$DW$178, DW_AT_accessibility(DW_ACCESS_public)
    2630              $C$DW$179       .dwtag  DW_TAG_member
    2631                      .dwattr $C$DW$179, DW_AT_type(*$C$DW$T$19)
    2632                      .dwattr $C$DW$179, DW_AT_name("rsvd4")
    2633                      .dwattr $C$DW$179, DW_AT_TI_symbol_name("_rsvd4")
    2634                      .dwattr $C$DW$179, DW_AT_bit_offset(0x00), DW_AT_bit_size(0x10)
    2635                      .dwattr $C$DW$179, DW_AT_data_member_location[DW_OP_plus_uconst 0x1]
    2636                      .dwattr $C$DW$179, DW_AT_accessibility(DW_ACCESS_public)
    2637                      .dwendtag $C$DW$T$43
    2638              
    2639              
    2640              $C$DW$T$44      .dwtag  DW_TAG_union_type
    2641                      .dwattr $C$DW$T$44, DW_AT_name("CLKCFGLOCK1_REG")
    2642                      .dwattr $C$DW$T$44, DW_AT_byte_size(0x02)
    2643              $C$DW$180       .dwtag  DW_TAG_member
    2644                      .dwattr $C$DW$180, DW_AT_type(*$C$DW$T$27)
    2645                      .dwattr $C$DW$180, DW_AT_name("all")
    2646                      .dwattr $C$DW$180, DW_AT_TI_symbol_name("_all")
    2647                      .dwattr $C$DW$180, DW_AT_data_member_location[DW_OP_plus_uconst 0x0]
    2648                      .dwattr $C$DW$180, DW_AT_accessibility(DW_ACCESS_public)
    2649              $C$DW$181       .dwtag  DW_TAG_member
    2650                      .dwattr $C$DW$181, DW_AT_type(*$C$DW$T$43)
    2651                      .dwattr $C$DW$181, DW_AT_name("bit")
    2652                      .dwattr $C$DW$181, DW_AT_TI_symbol_name("_bit")
    2653                      .dwattr $C$DW$181, DW_AT_data_member_location[DW_OP_plus_uconst 0x0]
    2654                      .dwattr $C$DW$181, DW_AT_accessibility(DW_ACCESS_public)
    2655                      .dwendtag $C$DW$T$44
    2656              
    2657              
    2658              $C$DW$T$45      .dwtag  DW_TAG_structure_type
    2659                      .dwattr $C$DW$T$45, DW_AT_name("CLKSRCCTL1_BITS")
    2660                      .dwattr $C$DW$T$45, DW_AT_byte_size(0x02)
    2661              $C$DW$182       .dwtag  DW_TAG_member
    2662                      .dwattr $C$DW$182, DW_AT_type(*$C$DW$T$19)
    2663                      .dwattr $C$DW$182, DW_AT_name("OSCCLKSRCSEL")
    2664                      .dwattr $C$DW$182, DW_AT_TI_symbol_name("_OSCCLKSRCSEL")
    2665                      .dwattr $C$DW$182, DW_AT_bit_offset(0x0e), DW_AT_bit_size(0x02)
    2666                      .dwattr $C$DW$182, DW_AT_data_member_location[DW_OP_plus_uconst 0x0]
    2667                      .dwattr $C$DW$182, DW_AT_accessibility(DW_ACCESS_public)
    2668              $C$DW$183       .dwtag  DW_TAG_member
TMS320C2000 Assembler PC v6.4.2 Thu Dec 14 15:26:44 2017

Tools Copyright (c) 1996-2015 Texas Instruments Incorporated
F2837xS_SysCtrl.asm                                                  PAGE   53

    2669                      .dwattr $C$DW$183, DW_AT_type(*$C$DW$T$19)
    2670                      .dwattr $C$DW$183, DW_AT_name("rsvd1")
    2671                      .dwattr $C$DW$183, DW_AT_TI_symbol_name("_rsvd1")
    2672                      .dwattr $C$DW$183, DW_AT_bit_offset(0x0d), DW_AT_bit_size(0x01)
    2673                      .dwattr $C$DW$183, DW_AT_data_member_location[DW_OP_plus_uconst 0x0]
    2674                      .dwattr $C$DW$183, DW_AT_accessibility(DW_ACCESS_public)
    2675              $C$DW$184       .dwtag  DW_TAG_member
    2676                      .dwattr $C$DW$184, DW_AT_type(*$C$DW$T$19)
    2677                      .dwattr $C$DW$184, DW_AT_name("INTOSC2OFF")
    2678                      .dwattr $C$DW$184, DW_AT_TI_symbol_name("_INTOSC2OFF")
    2679                      .dwattr $C$DW$184, DW_AT_bit_offset(0x0c), DW_AT_bit_size(0x01)
    2680                      .dwattr $C$DW$184, DW_AT_data_member_location[DW_OP_plus_uconst 0x0]
    2681                      .dwattr $C$DW$184, DW_AT_accessibility(DW_ACCESS_public)
    2682              $C$DW$185       .dwtag  DW_TAG_member
    2683                      .dwattr $C$DW$185, DW_AT_type(*$C$DW$T$19)
    2684                      .dwattr $C$DW$185, DW_AT_name("XTALOFF")
    2685                      .dwattr $C$DW$185, DW_AT_TI_symbol_name("_XTALOFF")
    2686                      .dwattr $C$DW$185, DW_AT_bit_offset(0x0b), DW_AT_bit_size(0x01)
    2687                      .dwattr $C$DW$185, DW_AT_data_member_location[DW_OP_plus_uconst 0x0]
    2688                      .dwattr $C$DW$185, DW_AT_accessibility(DW_ACCESS_public)
    2689              $C$DW$186       .dwtag  DW_TAG_member
    2690                      .dwattr $C$DW$186, DW_AT_type(*$C$DW$T$19)
    2691                      .dwattr $C$DW$186, DW_AT_name("WDHALTI")
    2692                      .dwattr $C$DW$186, DW_AT_TI_symbol_name("_WDHALTI")
    2693                      .dwattr $C$DW$186, DW_AT_bit_offset(0x0a), DW_AT_bit_size(0x01)
    2694                      .dwattr $C$DW$186, DW_AT_data_member_location[DW_OP_plus_uconst 0x0]
    2695                      .dwattr $C$DW$186, DW_AT_accessibility(DW_ACCESS_public)
    2696              $C$DW$187       .dwtag  DW_TAG_member
    2697                      .dwattr $C$DW$187, DW_AT_type(*$C$DW$T$19)
    2698                      .dwattr $C$DW$187, DW_AT_name("rsvd2")
    2699                      .dwattr $C$DW$187, DW_AT_TI_symbol_name("_rsvd2")
    2700                      .dwattr $C$DW$187, DW_AT_bit_offset(0x00), DW_AT_bit_size(0x0a)
    2701                      .dwattr $C$DW$187, DW_AT_data_member_location[DW_OP_plus_uconst 0x0]
    2702                      .dwattr $C$DW$187, DW_AT_accessibility(DW_ACCESS_public)
    2703              $C$DW$188       .dwtag  DW_TAG_member
    2704                      .dwattr $C$DW$188, DW_AT_type(*$C$DW$T$19)
    2705                      .dwattr $C$DW$188, DW_AT_name("rsvd3")
    2706                      .dwattr $C$DW$188, DW_AT_TI_symbol_name("_rsvd3")
    2707                      .dwattr $C$DW$188, DW_AT_bit_offset(0x00), DW_AT_bit_size(0x10)
    2708                      .dwattr $C$DW$188, DW_AT_data_member_location[DW_OP_plus_uconst 0x1]
    2709                      .dwattr $C$DW$188, DW_AT_accessibility(DW_ACCESS_public)
    2710                      .dwendtag $C$DW$T$45
    2711              
    2712              
    2713              $C$DW$T$46      .dwtag  DW_TAG_union_type
    2714                      .dwattr $C$DW$T$46, DW_AT_name("CLKSRCCTL1_REG")
    2715                      .dwattr $C$DW$T$46, DW_AT_byte_size(0x02)
    2716              $C$DW$189       .dwtag  DW_TAG_member
    2717                      .dwattr $C$DW$189, DW_AT_type(*$C$DW$T$27)
    2718                      .dwattr $C$DW$189, DW_AT_name("all")
    2719                      .dwattr $C$DW$189, DW_AT_TI_symbol_name("_all")
    2720                      .dwattr $C$DW$189, DW_AT_data_member_location[DW_OP_plus_uconst 0x0]
    2721                      .dwattr $C$DW$189, DW_AT_accessibility(DW_ACCESS_public)
    2722              $C$DW$190       .dwtag  DW_TAG_member
    2723                      .dwattr $C$DW$190, DW_AT_type(*$C$DW$T$45)
TMS320C2000 Assembler PC v6.4.2 Thu Dec 14 15:26:44 2017

Tools Copyright (c) 1996-2015 Texas Instruments Incorporated
F2837xS_SysCtrl.asm                                                  PAGE   54

    2724                      .dwattr $C$DW$190, DW_AT_name("bit")
    2725                      .dwattr $C$DW$190, DW_AT_TI_symbol_name("_bit")
    2726                      .dwattr $C$DW$190, DW_AT_data_member_location[DW_OP_plus_uconst 0x0]
    2727                      .dwattr $C$DW$190, DW_AT_accessibility(DW_ACCESS_public)
    2728                      .dwendtag $C$DW$T$46
    2729              
    2730              
    2731              $C$DW$T$47      .dwtag  DW_TAG_structure_type
    2732                      .dwattr $C$DW$T$47, DW_AT_name("CLKSRCCTL2_BITS")
    2733                      .dwattr $C$DW$T$47, DW_AT_byte_size(0x02)
    2734              $C$DW$191       .dwtag  DW_TAG_member
    2735                      .dwattr $C$DW$191, DW_AT_type(*$C$DW$T$19)
    2736                      .dwattr $C$DW$191, DW_AT_name("AUXOSCCLKSRCSEL")
    2737                      .dwattr $C$DW$191, DW_AT_TI_symbol_name("_AUXOSCCLKSRCSEL")
    2738                      .dwattr $C$DW$191, DW_AT_bit_offset(0x0e), DW_AT_bit_size(0x02)
    2739                      .dwattr $C$DW$191, DW_AT_data_member_location[DW_OP_plus_uconst 0x0]
    2740                      .dwattr $C$DW$191, DW_AT_accessibility(DW_ACCESS_public)
    2741              $C$DW$192       .dwtag  DW_TAG_member
    2742                      .dwattr $C$DW$192, DW_AT_type(*$C$DW$T$19)
    2743                      .dwattr $C$DW$192, DW_AT_name("CANABCLKSEL")
    2744                      .dwattr $C$DW$192, DW_AT_TI_symbol_name("_CANABCLKSEL")
    2745                      .dwattr $C$DW$192, DW_AT_bit_offset(0x0c), DW_AT_bit_size(0x02)
    2746                      .dwattr $C$DW$192, DW_AT_data_member_location[DW_OP_plus_uconst 0x0]
    2747                      .dwattr $C$DW$192, DW_AT_accessibility(DW_ACCESS_public)
    2748              $C$DW$193       .dwtag  DW_TAG_member
    2749                      .dwattr $C$DW$193, DW_AT_type(*$C$DW$T$19)
    2750                      .dwattr $C$DW$193, DW_AT_name("CANBBCLKSEL")
    2751                      .dwattr $C$DW$193, DW_AT_TI_symbol_name("_CANBBCLKSEL")
    2752                      .dwattr $C$DW$193, DW_AT_bit_offset(0x0a), DW_AT_bit_size(0x02)
    2753                      .dwattr $C$DW$193, DW_AT_data_member_location[DW_OP_plus_uconst 0x0]
    2754                      .dwattr $C$DW$193, DW_AT_accessibility(DW_ACCESS_public)
    2755              $C$DW$194       .dwtag  DW_TAG_member
    2756                      .dwattr $C$DW$194, DW_AT_type(*$C$DW$T$19)
    2757                      .dwattr $C$DW$194, DW_AT_name("rsvd1")
    2758                      .dwattr $C$DW$194, DW_AT_TI_symbol_name("_rsvd1")
    2759                      .dwattr $C$DW$194, DW_AT_bit_offset(0x08), DW_AT_bit_size(0x02)
    2760                      .dwattr $C$DW$194, DW_AT_data_member_location[DW_OP_plus_uconst 0x0]
    2761                      .dwattr $C$DW$194, DW_AT_accessibility(DW_ACCESS_public)
    2762              $C$DW$195       .dwtag  DW_TAG_member
    2763                      .dwattr $C$DW$195, DW_AT_type(*$C$DW$T$19)
    2764                      .dwattr $C$DW$195, DW_AT_name("rsvd2")
    2765                      .dwattr $C$DW$195, DW_AT_TI_symbol_name("_rsvd2")
    2766                      .dwattr $C$DW$195, DW_AT_bit_offset(0x06), DW_AT_bit_size(0x02)
    2767                      .dwattr $C$DW$195, DW_AT_data_member_location[DW_OP_plus_uconst 0x0]
    2768                      .dwattr $C$DW$195, DW_AT_accessibility(DW_ACCESS_public)
    2769              $C$DW$196       .dwtag  DW_TAG_member
    2770                      .dwattr $C$DW$196, DW_AT_type(*$C$DW$T$19)
    2771                      .dwattr $C$DW$196, DW_AT_name("rsvd3")
    2772                      .dwattr $C$DW$196, DW_AT_TI_symbol_name("_rsvd3")
    2773                      .dwattr $C$DW$196, DW_AT_bit_offset(0x00), DW_AT_bit_size(0x06)
    2774                      .dwattr $C$DW$196, DW_AT_data_member_location[DW_OP_plus_uconst 0x0]
    2775                      .dwattr $C$DW$196, DW_AT_accessibility(DW_ACCESS_public)
    2776              $C$DW$197       .dwtag  DW_TAG_member
    2777                      .dwattr $C$DW$197, DW_AT_type(*$C$DW$T$19)
    2778                      .dwattr $C$DW$197, DW_AT_name("rsvd4")
TMS320C2000 Assembler PC v6.4.2 Thu Dec 14 15:26:44 2017

Tools Copyright (c) 1996-2015 Texas Instruments Incorporated
F2837xS_SysCtrl.asm                                                  PAGE   55

    2779                      .dwattr $C$DW$197, DW_AT_TI_symbol_name("_rsvd4")
    2780                      .dwattr $C$DW$197, DW_AT_bit_offset(0x00), DW_AT_bit_size(0x10)
    2781                      .dwattr $C$DW$197, DW_AT_data_member_location[DW_OP_plus_uconst 0x1]
    2782                      .dwattr $C$DW$197, DW_AT_accessibility(DW_ACCESS_public)
    2783                      .dwendtag $C$DW$T$47
    2784              
    2785              
    2786              $C$DW$T$48      .dwtag  DW_TAG_union_type
    2787                      .dwattr $C$DW$T$48, DW_AT_name("CLKSRCCTL2_REG")
    2788                      .dwattr $C$DW$T$48, DW_AT_byte_size(0x02)
    2789              $C$DW$198       .dwtag  DW_TAG_member
    2790                      .dwattr $C$DW$198, DW_AT_type(*$C$DW$T$27)
    2791                      .dwattr $C$DW$198, DW_AT_name("all")
    2792                      .dwattr $C$DW$198, DW_AT_TI_symbol_name("_all")
    2793                      .dwattr $C$DW$198, DW_AT_data_member_location[DW_OP_plus_uconst 0x0]
    2794                      .dwattr $C$DW$198, DW_AT_accessibility(DW_ACCESS_public)
    2795              $C$DW$199       .dwtag  DW_TAG_member
    2796                      .dwattr $C$DW$199, DW_AT_type(*$C$DW$T$47)
    2797                      .dwattr $C$DW$199, DW_AT_name("bit")
    2798                      .dwattr $C$DW$199, DW_AT_TI_symbol_name("_bit")
    2799                      .dwattr $C$DW$199, DW_AT_data_member_location[DW_OP_plus_uconst 0x0]
    2800                      .dwattr $C$DW$199, DW_AT_accessibility(DW_ACCESS_public)
    2801                      .dwendtag $C$DW$T$48
    2802              
    2803              
    2804              $C$DW$T$49      .dwtag  DW_TAG_structure_type
    2805                      .dwattr $C$DW$T$49, DW_AT_name("CLKSRCCTL3_BITS")
    2806                      .dwattr $C$DW$T$49, DW_AT_byte_size(0x02)
    2807              $C$DW$200       .dwtag  DW_TAG_member
    2808                      .dwattr $C$DW$200, DW_AT_type(*$C$DW$T$19)
    2809                      .dwattr $C$DW$200, DW_AT_name("XCLKOUTSEL")
    2810                      .dwattr $C$DW$200, DW_AT_TI_symbol_name("_XCLKOUTSEL")
    2811                      .dwattr $C$DW$200, DW_AT_bit_offset(0x0d), DW_AT_bit_size(0x03)
    2812                      .dwattr $C$DW$200, DW_AT_data_member_location[DW_OP_plus_uconst 0x0]
    2813                      .dwattr $C$DW$200, DW_AT_accessibility(DW_ACCESS_public)
    2814              $C$DW$201       .dwtag  DW_TAG_member
    2815                      .dwattr $C$DW$201, DW_AT_type(*$C$DW$T$19)
    2816                      .dwattr $C$DW$201, DW_AT_name("rsvd1")
    2817                      .dwattr $C$DW$201, DW_AT_TI_symbol_name("_rsvd1")
    2818                      .dwattr $C$DW$201, DW_AT_bit_offset(0x00), DW_AT_bit_size(0x0d)
    2819                      .dwattr $C$DW$201, DW_AT_data_member_location[DW_OP_plus_uconst 0x0]
    2820                      .dwattr $C$DW$201, DW_AT_accessibility(DW_ACCESS_public)
    2821              $C$DW$202       .dwtag  DW_TAG_member
    2822                      .dwattr $C$DW$202, DW_AT_type(*$C$DW$T$19)
    2823                      .dwattr $C$DW$202, DW_AT_name("rsvd2")
    2824                      .dwattr $C$DW$202, DW_AT_TI_symbol_name("_rsvd2")
    2825                      .dwattr $C$DW$202, DW_AT_bit_offset(0x00), DW_AT_bit_size(0x10)
    2826                      .dwattr $C$DW$202, DW_AT_data_member_location[DW_OP_plus_uconst 0x1]
    2827                      .dwattr $C$DW$202, DW_AT_accessibility(DW_ACCESS_public)
    2828                      .dwendtag $C$DW$T$49
    2829              
    2830              
    2831              $C$DW$T$50      .dwtag  DW_TAG_union_type
    2832                      .dwattr $C$DW$T$50, DW_AT_name("CLKSRCCTL3_REG")
    2833                      .dwattr $C$DW$T$50, DW_AT_byte_size(0x02)
TMS320C2000 Assembler PC v6.4.2 Thu Dec 14 15:26:44 2017

Tools Copyright (c) 1996-2015 Texas Instruments Incorporated
F2837xS_SysCtrl.asm                                                  PAGE   56

    2834              $C$DW$203       .dwtag  DW_TAG_member
    2835                      .dwattr $C$DW$203, DW_AT_type(*$C$DW$T$27)
    2836                      .dwattr $C$DW$203, DW_AT_name("all")
    2837                      .dwattr $C$DW$203, DW_AT_TI_symbol_name("_all")
    2838                      .dwattr $C$DW$203, DW_AT_data_member_location[DW_OP_plus_uconst 0x0]
    2839                      .dwattr $C$DW$203, DW_AT_accessibility(DW_ACCESS_public)
    2840              $C$DW$204       .dwtag  DW_TAG_member
    2841                      .dwattr $C$DW$204, DW_AT_type(*$C$DW$T$49)
    2842                      .dwattr $C$DW$204, DW_AT_name("bit")
    2843                      .dwattr $C$DW$204, DW_AT_TI_symbol_name("_bit")
    2844                      .dwattr $C$DW$204, DW_AT_data_member_location[DW_OP_plus_uconst 0x0]
    2845                      .dwattr $C$DW$204, DW_AT_accessibility(DW_ACCESS_public)
    2846                      .dwendtag $C$DW$T$50
    2847              
    2848              
    2849              $C$DW$T$52      .dwtag  DW_TAG_structure_type
    2850                      .dwattr $C$DW$T$52, DW_AT_name("CLK_CFG_REGS")
    2851                      .dwattr $C$DW$T$52, DW_AT_byte_size(0x32)
    2852              $C$DW$205       .dwtag  DW_TAG_member
    2853                      .dwattr $C$DW$205, DW_AT_type(*$C$DW$T$21)
    2854                      .dwattr $C$DW$205, DW_AT_name("rsvd1")
    2855                      .dwattr $C$DW$205, DW_AT_TI_symbol_name("_rsvd1")
    2856                      .dwattr $C$DW$205, DW_AT_data_member_location[DW_OP_plus_uconst 0x0]
    2857                      .dwattr $C$DW$205, DW_AT_accessibility(DW_ACCESS_public)
    2858              $C$DW$206       .dwtag  DW_TAG_member
    2859                      .dwattr $C$DW$206, DW_AT_type(*$C$DW$T$44)
    2860                      .dwattr $C$DW$206, DW_AT_name("CLKCFGLOCK1")
    2861                      .dwattr $C$DW$206, DW_AT_TI_symbol_name("_CLKCFGLOCK1")
    2862                      .dwattr $C$DW$206, DW_AT_data_member_location[DW_OP_plus_uconst 0x2]
    2863                      .dwattr $C$DW$206, DW_AT_accessibility(DW_ACCESS_public)
    2864              $C$DW$207       .dwtag  DW_TAG_member
    2865                      .dwattr $C$DW$207, DW_AT_type(*$C$DW$T$51)
    2866                      .dwattr $C$DW$207, DW_AT_name("rsvd2")
    2867                      .dwattr $C$DW$207, DW_AT_TI_symbol_name("_rsvd2")
    2868                      .dwattr $C$DW$207, DW_AT_data_member_location[DW_OP_plus_uconst 0x4]
    2869                      .dwattr $C$DW$207, DW_AT_accessibility(DW_ACCESS_public)
    2870              $C$DW$208       .dwtag  DW_TAG_member
    2871                      .dwattr $C$DW$208, DW_AT_type(*$C$DW$T$46)
    2872                      .dwattr $C$DW$208, DW_AT_name("CLKSRCCTL1")
    2873                      .dwattr $C$DW$208, DW_AT_TI_symbol_name("_CLKSRCCTL1")
    2874                      .dwattr $C$DW$208, DW_AT_data_member_location[DW_OP_plus_uconst 0x8]
    2875                      .dwattr $C$DW$208, DW_AT_accessibility(DW_ACCESS_public)
    2876              $C$DW$209       .dwtag  DW_TAG_member
    2877                      .dwattr $C$DW$209, DW_AT_type(*$C$DW$T$48)
    2878                      .dwattr $C$DW$209, DW_AT_name("CLKSRCCTL2")
    2879                      .dwattr $C$DW$209, DW_AT_TI_symbol_name("_CLKSRCCTL2")
    2880                      .dwattr $C$DW$209, DW_AT_data_member_location[DW_OP_plus_uconst 0xa]
    2881                      .dwattr $C$DW$209, DW_AT_accessibility(DW_ACCESS_public)
    2882              $C$DW$210       .dwtag  DW_TAG_member
    2883                      .dwattr $C$DW$210, DW_AT_type(*$C$DW$T$50)
    2884                      .dwattr $C$DW$210, DW_AT_name("CLKSRCCTL3")
    2885                      .dwattr $C$DW$210, DW_AT_TI_symbol_name("_CLKSRCCTL3")
    2886                      .dwattr $C$DW$210, DW_AT_data_member_location[DW_OP_plus_uconst 0xc]
    2887                      .dwattr $C$DW$210, DW_AT_accessibility(DW_ACCESS_public)
    2888              $C$DW$211       .dwtag  DW_TAG_member
TMS320C2000 Assembler PC v6.4.2 Thu Dec 14 15:26:44 2017

Tools Copyright (c) 1996-2015 Texas Instruments Incorporated
F2837xS_SysCtrl.asm                                                  PAGE   57

    2889                      .dwattr $C$DW$211, DW_AT_type(*$C$DW$T$168)
    2890                      .dwattr $C$DW$211, DW_AT_name("SYSPLLCTL1")
    2891                      .dwattr $C$DW$211, DW_AT_TI_symbol_name("_SYSPLLCTL1")
    2892                      .dwattr $C$DW$211, DW_AT_data_member_location[DW_OP_plus_uconst 0xe]
    2893                      .dwattr $C$DW$211, DW_AT_accessibility(DW_ACCESS_public)
    2894              $C$DW$212       .dwtag  DW_TAG_member
    2895                      .dwattr $C$DW$212, DW_AT_type(*$C$DW$T$51)
    2896                      .dwattr $C$DW$212, DW_AT_name("rsvd3")
    2897                      .dwattr $C$DW$212, DW_AT_TI_symbol_name("_rsvd3")
    2898                      .dwattr $C$DW$212, DW_AT_data_member_location[DW_OP_plus_uconst 0x10]
    2899                      .dwattr $C$DW$212, DW_AT_accessibility(DW_ACCESS_public)
    2900              $C$DW$213       .dwtag  DW_TAG_member
    2901                      .dwattr $C$DW$213, DW_AT_type(*$C$DW$T$170)
    2902                      .dwattr $C$DW$213, DW_AT_name("SYSPLLMULT")
    2903                      .dwattr $C$DW$213, DW_AT_TI_symbol_name("_SYSPLLMULT")
    2904                      .dwattr $C$DW$213, DW_AT_data_member_location[DW_OP_plus_uconst 0x14]
    2905                      .dwattr $C$DW$213, DW_AT_accessibility(DW_ACCESS_public)
    2906              $C$DW$214       .dwtag  DW_TAG_member
    2907                      .dwattr $C$DW$214, DW_AT_type(*$C$DW$T$172)
    2908                      .dwattr $C$DW$214, DW_AT_name("SYSPLLSTS")
    2909                      .dwattr $C$DW$214, DW_AT_TI_symbol_name("_SYSPLLSTS")
    2910                      .dwattr $C$DW$214, DW_AT_data_member_location[DW_OP_plus_uconst 0x16]
    2911                      .dwattr $C$DW$214, DW_AT_accessibility(DW_ACCESS_public)
    2912              $C$DW$215       .dwtag  DW_TAG_member
    2913                      .dwattr $C$DW$215, DW_AT_type(*$C$DW$T$38)
    2914                      .dwattr $C$DW$215, DW_AT_name("AUXPLLCTL1")
    2915                      .dwattr $C$DW$215, DW_AT_TI_symbol_name("_AUXPLLCTL1")
    2916                      .dwattr $C$DW$215, DW_AT_data_member_location[DW_OP_plus_uconst 0x18]
    2917                      .dwattr $C$DW$215, DW_AT_accessibility(DW_ACCESS_public)
    2918              $C$DW$216       .dwtag  DW_TAG_member
    2919                      .dwattr $C$DW$216, DW_AT_type(*$C$DW$T$51)
    2920                      .dwattr $C$DW$216, DW_AT_name("rsvd4")
    2921                      .dwattr $C$DW$216, DW_AT_TI_symbol_name("_rsvd4")
    2922                      .dwattr $C$DW$216, DW_AT_data_member_location[DW_OP_plus_uconst 0x1a]
    2923                      .dwattr $C$DW$216, DW_AT_accessibility(DW_ACCESS_public)
    2924              $C$DW$217       .dwtag  DW_TAG_member
    2925                      .dwattr $C$DW$217, DW_AT_type(*$C$DW$T$40)
    2926                      .dwattr $C$DW$217, DW_AT_name("AUXPLLMULT")
    2927                      .dwattr $C$DW$217, DW_AT_TI_symbol_name("_AUXPLLMULT")
    2928                      .dwattr $C$DW$217, DW_AT_data_member_location[DW_OP_plus_uconst 0x1e]
    2929                      .dwattr $C$DW$217, DW_AT_accessibility(DW_ACCESS_public)
    2930              $C$DW$218       .dwtag  DW_TAG_member
    2931                      .dwattr $C$DW$218, DW_AT_type(*$C$DW$T$42)
    2932                      .dwattr $C$DW$218, DW_AT_name("AUXPLLSTS")
    2933                      .dwattr $C$DW$218, DW_AT_TI_symbol_name("_AUXPLLSTS")
    2934                      .dwattr $C$DW$218, DW_AT_data_member_location[DW_OP_plus_uconst 0x20]
    2935                      .dwattr $C$DW$218, DW_AT_accessibility(DW_ACCESS_public)
    2936              $C$DW$219       .dwtag  DW_TAG_member
    2937                      .dwattr $C$DW$219, DW_AT_type(*$C$DW$T$166)
    2938                      .dwattr $C$DW$219, DW_AT_name("SYSCLKDIVSEL")
    2939                      .dwattr $C$DW$219, DW_AT_TI_symbol_name("_SYSCLKDIVSEL")
    2940                      .dwattr $C$DW$219, DW_AT_data_member_location[DW_OP_plus_uconst 0x22]
    2941                      .dwattr $C$DW$219, DW_AT_accessibility(DW_ACCESS_public)
    2942              $C$DW$220       .dwtag  DW_TAG_member
    2943                      .dwattr $C$DW$220, DW_AT_type(*$C$DW$T$36)
TMS320C2000 Assembler PC v6.4.2 Thu Dec 14 15:26:44 2017

Tools Copyright (c) 1996-2015 Texas Instruments Incorporated
F2837xS_SysCtrl.asm                                                  PAGE   58

    2944                      .dwattr $C$DW$220, DW_AT_name("AUXCLKDIVSEL")
    2945                      .dwattr $C$DW$220, DW_AT_TI_symbol_name("_AUXCLKDIVSEL")
    2946                      .dwattr $C$DW$220, DW_AT_data_member_location[DW_OP_plus_uconst 0x24]
    2947                      .dwattr $C$DW$220, DW_AT_accessibility(DW_ACCESS_public)
    2948              $C$DW$221       .dwtag  DW_TAG_member
    2949                      .dwattr $C$DW$221, DW_AT_type(*$C$DW$T$156)
    2950                      .dwattr $C$DW$221, DW_AT_name("PERCLKDIVSEL")
    2951                      .dwattr $C$DW$221, DW_AT_TI_symbol_name("_PERCLKDIVSEL")
    2952                      .dwattr $C$DW$221, DW_AT_data_member_location[DW_OP_plus_uconst 0x26]
    2953                      .dwattr $C$DW$221, DW_AT_accessibility(DW_ACCESS_public)
    2954              $C$DW$222       .dwtag  DW_TAG_member
    2955                      .dwattr $C$DW$222, DW_AT_type(*$C$DW$T$191)
    2956                      .dwattr $C$DW$222, DW_AT_name("XCLKOUTDIVSEL")
    2957                      .dwattr $C$DW$222, DW_AT_TI_symbol_name("_XCLKOUTDIVSEL")
    2958                      .dwattr $C$DW$222, DW_AT_data_member_location[DW_OP_plus_uconst 0x28]
    2959                      .dwattr $C$DW$222, DW_AT_accessibility(DW_ACCESS_public)
    2960              $C$DW$223       .dwtag  DW_TAG_member
    2961                      .dwattr $C$DW$223, DW_AT_type(*$C$DW$T$21)
    2962                      .dwattr $C$DW$223, DW_AT_name("rsvd5")
    2963                      .dwattr $C$DW$223, DW_AT_TI_symbol_name("_rsvd5")
    2964                      .dwattr $C$DW$223, DW_AT_data_member_location[DW_OP_plus_uconst 0x2a]
    2965                      .dwattr $C$DW$223, DW_AT_accessibility(DW_ACCESS_public)
    2966              $C$DW$224       .dwtag  DW_TAG_member
    2967                      .dwattr $C$DW$224, DW_AT_type(*$C$DW$T$120)
    2968                      .dwattr $C$DW$224, DW_AT_name("LOSPCP")
    2969                      .dwattr $C$DW$224, DW_AT_TI_symbol_name("_LOSPCP")
    2970                      .dwattr $C$DW$224, DW_AT_data_member_location[DW_OP_plus_uconst 0x2c]
    2971                      .dwattr $C$DW$224, DW_AT_accessibility(DW_ACCESS_public)
    2972              $C$DW$225       .dwtag  DW_TAG_member
    2973                      .dwattr $C$DW$225, DW_AT_type(*$C$DW$T$124)
    2974                      .dwattr $C$DW$225, DW_AT_name("MCDCR")
    2975                      .dwattr $C$DW$225, DW_AT_TI_symbol_name("_MCDCR")
    2976                      .dwattr $C$DW$225, DW_AT_data_member_location[DW_OP_plus_uconst 0x2e]
    2977                      .dwattr $C$DW$225, DW_AT_accessibility(DW_ACCESS_public)
    2978              $C$DW$226       .dwtag  DW_TAG_member
    2979                      .dwattr $C$DW$226, DW_AT_type(*$C$DW$T$189)
    2980                      .dwattr $C$DW$226, DW_AT_name("X1CNT")
    2981                      .dwattr $C$DW$226, DW_AT_TI_symbol_name("_X1CNT")
    2982                      .dwattr $C$DW$226, DW_AT_data_member_location[DW_OP_plus_uconst 0x30]
    2983                      .dwattr $C$DW$226, DW_AT_accessibility(DW_ACCESS_public)
    2984                      .dwendtag $C$DW$T$52
    2985              
    2986              $C$DW$227       .dwtag  DW_TAG_TI_far_type
    2987                      .dwattr $C$DW$227, DW_AT_type(*$C$DW$T$52)
    2988              $C$DW$T$241     .dwtag  DW_TAG_volatile_type
    2989                      .dwattr $C$DW$T$241, DW_AT_type(*$C$DW$227)
    2990              
    2991              $C$DW$T$53      .dwtag  DW_TAG_structure_type
    2992                      .dwattr $C$DW$T$53, DW_AT_name("CPUSYSLOCK1_BITS")
    2993                      .dwattr $C$DW$T$53, DW_AT_byte_size(0x02)
    2994              $C$DW$228       .dwtag  DW_TAG_member
    2995                      .dwattr $C$DW$228, DW_AT_type(*$C$DW$T$19)
    2996                      .dwattr $C$DW$228, DW_AT_name("HIBBOOTMODE")
    2997                      .dwattr $C$DW$228, DW_AT_TI_symbol_name("_HIBBOOTMODE")
    2998                      .dwattr $C$DW$228, DW_AT_bit_offset(0x0f), DW_AT_bit_size(0x01)
TMS320C2000 Assembler PC v6.4.2 Thu Dec 14 15:26:44 2017

Tools Copyright (c) 1996-2015 Texas Instruments Incorporated
F2837xS_SysCtrl.asm                                                  PAGE   59

    2999                      .dwattr $C$DW$228, DW_AT_data_member_location[DW_OP_plus_uconst 0x0]
    3000                      .dwattr $C$DW$228, DW_AT_accessibility(DW_ACCESS_public)
    3001              $C$DW$229       .dwtag  DW_TAG_member
    3002                      .dwattr $C$DW$229, DW_AT_type(*$C$DW$T$19)
    3003                      .dwattr $C$DW$229, DW_AT_name("IORESTOREADDR")
    3004                      .dwattr $C$DW$229, DW_AT_TI_symbol_name("_IORESTOREADDR")
    3005                      .dwattr $C$DW$229, DW_AT_bit_offset(0x0e), DW_AT_bit_size(0x01)
    3006                      .dwattr $C$DW$229, DW_AT_data_member_location[DW_OP_plus_uconst 0x0]
