TMS320C2000 Assembler PC v6.4.2 Thu Dec 14 15:27:05 2017

Tools Copyright (c) 1996-2015 Texas Instruments Incorporated
fsm_main.asm                                                         PAGE    1

       1              ;***************************************************************
       2              ;* TMS320C2000 C/C++ Codegen                         PC v6.4.2 *
       3              ;* Date/Time created: Thu Dec 14 15:27:04 2017                 *
       4              ;***************************************************************
       5                      .compiler_opts --cla_support=cla0 --float_support=fpu32 --hll_source=on --mem_model:code=flat --mem_m
       6        0002  FP      .set    XAR2
       7              
       8              $C$DW$CU        .dwtag  DW_TAG_compile_unit
       9                      .dwattr $C$DW$CU, DW_AT_name("../Source/App/fsm_main.c")
      10                      .dwattr $C$DW$CU, DW_AT_producer("TI TMS320C2000 C/C++ Codegen PC v6.4.2 Copyright (c) 1996-2015 Texa
      11                      .dwattr $C$DW$CU, DW_AT_TI_version(0x01)
      12                      .dwattr $C$DW$CU, DW_AT_comp_dir("U:\02_MSE\MT\07_Software\CCS_workspace\DiffDrive_v0.93\F2837x_FLASH
      13              
      14              $C$DW$1 .dwtag  DW_TAG_subprogram, DW_AT_name("send_state_change_command")
      15                      .dwattr $C$DW$1, DW_AT_TI_symbol_name("_send_state_change_command")
      16                      .dwattr $C$DW$1, DW_AT_declaration
      17                      .dwattr $C$DW$1, DW_AT_external
      18              $C$DW$2 .dwtag  DW_TAG_formal_parameter
      19                      .dwattr $C$DW$2, DW_AT_type(*$C$DW$T$291)
      20                      .dwendtag $C$DW$1
      21              
      22              
      23              $C$DW$3 .dwtag  DW_TAG_subprogram, DW_AT_name("put_calibration_data_to_string")
      24                      .dwattr $C$DW$3, DW_AT_TI_symbol_name("_put_calibration_data_to_string")
      25                      .dwattr $C$DW$3, DW_AT_declaration
      26                      .dwattr $C$DW$3, DW_AT_external
      27              $C$DW$4 .dwtag  DW_TAG_formal_parameter
      28                      .dwattr $C$DW$4, DW_AT_type(*$C$DW$T$287)
      29              $C$DW$5 .dwtag  DW_TAG_formal_parameter
      30                      .dwattr $C$DW$5, DW_AT_type(*$C$DW$T$308)
      31                      .dwendtag $C$DW$3
      32              
      33              
      34              $C$DW$6 .dwtag  DW_TAG_subprogram, DW_AT_name("hal_led_on")
      35                      .dwattr $C$DW$6, DW_AT_TI_symbol_name("_hal_led_on")
      36                      .dwattr $C$DW$6, DW_AT_declaration
      37                      .dwattr $C$DW$6, DW_AT_external
      38              $C$DW$7 .dwtag  DW_TAG_formal_parameter
      39                      .dwattr $C$DW$7, DW_AT_type(*$C$DW$T$34)
      40                      .dwendtag $C$DW$6
      41              
      42              
      43              $C$DW$8 .dwtag  DW_TAG_subprogram, DW_AT_name("init_steering_control")
      44                      .dwattr $C$DW$8, DW_AT_TI_symbol_name("_init_steering_control")
      45                      .dwattr $C$DW$8, DW_AT_declaration
      46                      .dwattr $C$DW$8, DW_AT_external
      47              $C$DW$9 .dwtag  DW_TAG_formal_parameter
      48                      .dwattr $C$DW$9, DW_AT_type(*$C$DW$T$295)
      49              $C$DW$10        .dwtag  DW_TAG_formal_parameter
      50                      .dwattr $C$DW$10, DW_AT_type(*$C$DW$T$20)
      51                      .dwendtag $C$DW$8
      52              
      53              
      54              $C$DW$11        .dwtag  DW_TAG_subprogram, DW_AT_name("hal_led_off")
      55                      .dwattr $C$DW$11, DW_AT_TI_symbol_name("_hal_led_off")
TMS320C2000 Assembler PC v6.4.2 Thu Dec 14 15:27:05 2017

Tools Copyright (c) 1996-2015 Texas Instruments Incorporated
fsm_main.asm                                                         PAGE    2

      56                      .dwattr $C$DW$11, DW_AT_declaration
      57                      .dwattr $C$DW$11, DW_AT_external
      58              $C$DW$12        .dwtag  DW_TAG_formal_parameter
      59                      .dwattr $C$DW$12, DW_AT_type(*$C$DW$T$34)
      60                      .dwendtag $C$DW$11
      61              
      62              
      63              $C$DW$13        .dwtag  DW_TAG_subprogram, DW_AT_name("hal_led_on_all")
      64                      .dwattr $C$DW$13, DW_AT_TI_symbol_name("_hal_led_on_all")
      65                      .dwattr $C$DW$13, DW_AT_declaration
      66                      .dwattr $C$DW$13, DW_AT_external
      67              
      68              $C$DW$14        .dwtag  DW_TAG_subprogram, DW_AT_name("hal_led_off_all")
      69                      .dwattr $C$DW$14, DW_AT_TI_symbol_name("_hal_led_off_all")
      70                      .dwattr $C$DW$14, DW_AT_declaration
      71                      .dwattr $C$DW$14, DW_AT_external
      72              
      73              $C$DW$15        .dwtag  DW_TAG_subprogram, DW_AT_name("send_Command")
      74                      .dwattr $C$DW$15, DW_AT_TI_symbol_name("_send_Command")
      75                      .dwattr $C$DW$15, DW_AT_declaration
      76                      .dwattr $C$DW$15, DW_AT_external
      77              $C$DW$16        .dwtag  DW_TAG_formal_parameter
      78                      .dwattr $C$DW$16, DW_AT_type(*$C$DW$T$287)
      79              $C$DW$17        .dwtag  DW_TAG_formal_parameter
      80                      .dwattr $C$DW$17, DW_AT_type(*$C$DW$T$305)
      81                      .dwendtag $C$DW$15
      82              
      83 00000000       _state: .usect  ".ebss",1,1,0
      84              $C$DW$18        .dwtag  DW_TAG_variable, DW_AT_name("state")
      85                      .dwattr $C$DW$18, DW_AT_TI_symbol_name("_state")
      86                      .dwattr $C$DW$18, DW_AT_type(*$C$DW$T$291)
      87                      .dwattr $C$DW$18, DW_AT_location[DW_OP_addr _state]
      88              
      89              $C$DW$19        .dwtag  DW_TAG_subprogram, DW_AT_name("open_tcp_connection")
      90                      .dwattr $C$DW$19, DW_AT_TI_symbol_name("_open_tcp_connection")
      91                      .dwattr $C$DW$19, DW_AT_type(*$C$DW$T$305)
      92                      .dwattr $C$DW$19, DW_AT_declaration
      93                      .dwattr $C$DW$19, DW_AT_external
      94              
      95              $C$DW$20        .dwtag  DW_TAG_subprogram, DW_AT_name("exit_command_mode")
      96                      .dwattr $C$DW$20, DW_AT_TI_symbol_name("_exit_command_mode")
      97                      .dwattr $C$DW$20, DW_AT_type(*$C$DW$T$305)
      98                      .dwattr $C$DW$20, DW_AT_declaration
      99                      .dwattr $C$DW$20, DW_AT_external
     100              
     101              $C$DW$21        .dwtag  DW_TAG_subprogram, DW_AT_name("read_Command")
     102                      .dwattr $C$DW$21, DW_AT_TI_symbol_name("_read_Command")
     103                      .dwattr $C$DW$21, DW_AT_type(*$C$DW$T$285)
     104                      .dwattr $C$DW$21, DW_AT_declaration
     105                      .dwattr $C$DW$21, DW_AT_external
     106              $C$DW$22        .dwtag  DW_TAG_formal_parameter
     107                      .dwattr $C$DW$22, DW_AT_type(*$C$DW$T$287)
     108                      .dwendtag $C$DW$21
     109              
     110              
TMS320C2000 Assembler PC v6.4.2 Thu Dec 14 15:27:05 2017

Tools Copyright (c) 1996-2015 Texas Instruments Incorporated
fsm_main.asm                                                         PAGE    3

     111              $C$DW$23        .dwtag  DW_TAG_subprogram, DW_AT_name("close_tcp_connection")
     112                      .dwattr $C$DW$23, DW_AT_TI_symbol_name("_close_tcp_connection")
     113                      .dwattr $C$DW$23, DW_AT_type(*$C$DW$T$305)
     114                      .dwattr $C$DW$23, DW_AT_declaration
     115                      .dwattr $C$DW$23, DW_AT_external
     116              
     117              $C$DW$24        .dwtag  DW_TAG_subprogram, DW_AT_name("hal_button_read")
     118                      .dwattr $C$DW$24, DW_AT_TI_symbol_name("_hal_button_read")
     119                      .dwattr $C$DW$24, DW_AT_type(*$C$DW$T$34)
     120                      .dwattr $C$DW$24, DW_AT_declaration
     121                      .dwattr $C$DW$24, DW_AT_external
     122              $C$DW$25        .dwtag  DW_TAG_formal_parameter
     123                      .dwattr $C$DW$25, DW_AT_type(*$C$DW$T$34)
     124                      .dwendtag $C$DW$24
     125              
     126              
     127              $C$DW$26        .dwtag  DW_TAG_subprogram, DW_AT_name("GPIO_ReadPin")
     128                      .dwattr $C$DW$26, DW_AT_TI_symbol_name("_GPIO_ReadPin")
     129                      .dwattr $C$DW$26, DW_AT_type(*$C$DW$T$34)
     130                      .dwattr $C$DW$26, DW_AT_declaration
     131                      .dwattr $C$DW$26, DW_AT_external
     132              $C$DW$27        .dwtag  DW_TAG_formal_parameter
     133                      .dwattr $C$DW$27, DW_AT_type(*$C$DW$T$34)
     134                      .dwendtag $C$DW$26
     135              
     136              
     137              $C$DW$28        .dwtag  DW_TAG_subprogram, DW_AT_name("enter_command_mode")
     138                      .dwattr $C$DW$28, DW_AT_TI_symbol_name("_enter_command_mode")
     139                      .dwattr $C$DW$28, DW_AT_type(*$C$DW$T$305)
     140                      .dwattr $C$DW$28, DW_AT_declaration
     141                      .dwattr $C$DW$28, DW_AT_external
     142              
     143              $C$DW$29        .dwtag  DW_TAG_subprogram, DW_AT_name("execute_config_mode_cmd")
     144                      .dwattr $C$DW$29, DW_AT_TI_symbol_name("_execute_config_mode_cmd")
     145                      .dwattr $C$DW$29, DW_AT_type(*$C$DW$T$305)
     146                      .dwattr $C$DW$29, DW_AT_declaration
     147                      .dwattr $C$DW$29, DW_AT_external
     148              $C$DW$30        .dwtag  DW_TAG_formal_parameter
     149                      .dwattr $C$DW$30, DW_AT_type(*$C$DW$T$282)
     150                      .dwendtag $C$DW$29
     151              
     152              
     153              $C$DW$31        .dwtag  DW_TAG_subprogram, DW_AT_name("write_Flash")
     154                      .dwattr $C$DW$31, DW_AT_TI_symbol_name("_write_Flash")
     155                      .dwattr $C$DW$31, DW_AT_type(*$C$DW$T$305)
     156                      .dwattr $C$DW$31, DW_AT_declaration
     157                      .dwattr $C$DW$31, DW_AT_external
     158              $C$DW$32        .dwtag  DW_TAG_formal_parameter
     159                      .dwattr $C$DW$32, DW_AT_type(*$C$DW$T$287)
     160                      .dwendtag $C$DW$31
     161              
     162              
     163              $C$DW$33        .dwtag  DW_TAG_subprogram, DW_AT_name("erase_bank_0_sector_h")
     164                      .dwattr $C$DW$33, DW_AT_TI_symbol_name("_erase_bank_0_sector_h")
     165                      .dwattr $C$DW$33, DW_AT_type(*$C$DW$T$305)
TMS320C2000 Assembler PC v6.4.2 Thu Dec 14 15:27:05 2017

Tools Copyright (c) 1996-2015 Texas Instruments Incorporated
fsm_main.asm                                                         PAGE    4

     166                      .dwattr $C$DW$33, DW_AT_declaration
     167                      .dwattr $C$DW$33, DW_AT_external
     168 00000001       _connected:     .usect  ".ebss",1,1,0
     169              $C$DW$34        .dwtag  DW_TAG_variable, DW_AT_name("connected")
     170                      .dwattr $C$DW$34, DW_AT_TI_symbol_name("_connected")
     171                      .dwattr $C$DW$34, DW_AT_type(*$C$DW$T$305)
     172                      .dwattr $C$DW$34, DW_AT_location[DW_OP_addr _connected]
     173              
     174              $C$DW$35        .dwtag  DW_TAG_subprogram, DW_AT_name("extract_config_mode_command")
     175                      .dwattr $C$DW$35, DW_AT_TI_symbol_name("_extract_config_mode_command")
     176                      .dwattr $C$DW$35, DW_AT_type(*$C$DW$T$305)
     177                      .dwattr $C$DW$35, DW_AT_declaration
     178                      .dwattr $C$DW$35, DW_AT_external
     179              $C$DW$36        .dwtag  DW_TAG_formal_parameter
     180                      .dwattr $C$DW$36, DW_AT_type(*$C$DW$T$287)
     181              $C$DW$37        .dwtag  DW_TAG_formal_parameter
     182                      .dwattr $C$DW$37, DW_AT_type(*$C$DW$T$283)
     183                      .dwendtag $C$DW$35
     184              
     185              
     186              $C$DW$38        .dwtag  DW_TAG_subprogram, DW_AT_name("extract_state_change_command")
     187                      .dwattr $C$DW$38, DW_AT_TI_symbol_name("_extract_state_change_command")
     188                      .dwattr $C$DW$38, DW_AT_type(*$C$DW$T$305)
     189                      .dwattr $C$DW$38, DW_AT_declaration
     190                      .dwattr $C$DW$38, DW_AT_external
     191              $C$DW$39        .dwtag  DW_TAG_formal_parameter
     192                      .dwattr $C$DW$39, DW_AT_type(*$C$DW$T$287)
     193              $C$DW$40        .dwtag  DW_TAG_formal_parameter
     194                      .dwattr $C$DW$40, DW_AT_type(*$C$DW$T$292)
     195                      .dwendtag $C$DW$38
     196              
     197              
     198              $C$DW$41        .dwtag  DW_TAG_subprogram, DW_AT_name("extract_drive_command")
     199                      .dwattr $C$DW$41, DW_AT_TI_symbol_name("_extract_drive_command")
     200                      .dwattr $C$DW$41, DW_AT_type(*$C$DW$T$305)
     201                      .dwattr $C$DW$41, DW_AT_declaration
     202                      .dwattr $C$DW$41, DW_AT_external
     203              $C$DW$42        .dwtag  DW_TAG_formal_parameter
     204                      .dwattr $C$DW$42, DW_AT_type(*$C$DW$T$287)
     205              $C$DW$43        .dwtag  DW_TAG_formal_parameter
     206                      .dwattr $C$DW$43, DW_AT_type(*$C$DW$T$321)
     207              $C$DW$44        .dwtag  DW_TAG_formal_parameter
     208                      .dwattr $C$DW$44, DW_AT_type(*$C$DW$T$321)
     209                      .dwendtag $C$DW$41
     210              
     211              
     212              $C$DW$45        .dwtag  DW_TAG_subprogram, DW_AT_name("check_if_changed")
     213                      .dwattr $C$DW$45, DW_AT_TI_symbol_name("_check_if_changed")
     214                      .dwattr $C$DW$45, DW_AT_type(*$C$DW$T$305)
     215                      .dwattr $C$DW$45, DW_AT_declaration
     216                      .dwattr $C$DW$45, DW_AT_external
     217 00000000               .sect   ".econst"
     218                      .align  2
     219 00000000       _TIMEOVERFLOW:
     220 00000000 03E8          .bits   1000,32                 ; _TIMEOVERFLOW @ 0
TMS320C2000 Assembler PC v6.4.2 Thu Dec 14 15:27:05 2017

Tools Copyright (c) 1996-2015 Texas Instruments Incorporated
fsm_main.asm                                                         PAGE    5

         00000001 0000 
     221              
     222              $C$DW$46        .dwtag  DW_TAG_variable, DW_AT_name("TIMEOVERFLOW")
     223                      .dwattr $C$DW$46, DW_AT_TI_symbol_name("_TIMEOVERFLOW")
     224                      .dwattr $C$DW$46, DW_AT_type(*$C$DW$T$327)
     225                      .dwattr $C$DW$46, DW_AT_location[DW_OP_addr _TIMEOVERFLOW]
     226              $C$DW$47        .dwtag  DW_TAG_variable, DW_AT_name("steeringContr")
     227                      .dwattr $C$DW$47, DW_AT_TI_symbol_name("_steeringContr")
     228                      .dwattr $C$DW$47, DW_AT_type(*$C$DW$T$294)
     229                      .dwattr $C$DW$47, DW_AT_declaration
     230                      .dwattr $C$DW$47, DW_AT_external
     231              $C$DW$48        .dwtag  DW_TAG_variable, DW_AT_name("motor1")
     232                      .dwattr $C$DW$48, DW_AT_TI_symbol_name("_motor1")
     233                      .dwattr $C$DW$48, DW_AT_type(*$C$DW$T$296)
     234                      .dwattr $C$DW$48, DW_AT_declaration
     235                      .dwattr $C$DW$48, DW_AT_external
     236              $C$DW$49        .dwtag  DW_TAG_variable, DW_AT_name("motor2")
     237                      .dwattr $C$DW$49, DW_AT_TI_symbol_name("_motor2")
     238                      .dwattr $C$DW$49, DW_AT_type(*$C$DW$T$296)
     239                      .dwattr $C$DW$49, DW_AT_declaration
     240                      .dwattr $C$DW$49, DW_AT_external
     241              ;       C:\ti\ccsv6\tools\compiler\ti-cgt-c2000_6.4.2\bin\ac2000.exe -@C:\\Users\\ficm\\AppData\\Local\\Temp\
     242 00000000               .sect   ".text"
     243                      .clink
     244                      .global _fsm_main_init
     245              
     246              $C$DW$50        .dwtag  DW_TAG_subprogram, DW_AT_name("fsm_main_init")
     247                      .dwattr $C$DW$50, DW_AT_low_pc(_fsm_main_init)
     248                      .dwattr $C$DW$50, DW_AT_high_pc(0x00)
     249                      .dwattr $C$DW$50, DW_AT_TI_symbol_name("_fsm_main_init")
     250                      .dwattr $C$DW$50, DW_AT_external
     251                      .dwattr $C$DW$50, DW_AT_type(*$C$DW$T$291)
     252                      .dwattr $C$DW$50, DW_AT_TI_begin_file("../Source/App/fsm_main.c")
     253                      .dwattr $C$DW$50, DW_AT_TI_begin_line(0x3e)
     254                      .dwattr $C$DW$50, DW_AT_TI_begin_column(0x12)
     255                      .dwattr $C$DW$50, DW_AT_TI_max_frame_size(-2)
     256                      .dwpsn  file "../Source/App/fsm_main.c",line 63,column 1,is_stmt,address _fsm_main_init,isa 0
     257              
     258                      .dwfde $C$DW$CIE, _fsm_main_init
     259              
     260              ;***************************************************************
     261              ;* FNAME: _fsm_main_init                FR SIZE:   0           *
     262              ;*                                                             *
     263              ;* FUNCTION ENVIRONMENT                                        *
     264              ;*                                                             *
     265              ;* FUNCTION PROPERTIES                                         *
     266              ;*                            0 Parameter,  0 Auto,  0 SOE     *
     267              ;***************************************************************
     268              
     269 00000000       _fsm_main_init:
     270                      .dwcfi  cfa_offset, -2
     271                      .dwcfi  save_reg_to_mem, 26, 0
     272                      .dwpsn  file "../Source/App/fsm_main.c",line 64,column 2,is_stmt,isa 0
     273 00000000 761F-         MOVW      DP,#_connected        ; [CPU_U] 
         00000001 0000 
TMS320C2000 Assembler PC v6.4.2 Thu Dec 14 15:27:05 2017

Tools Copyright (c) 1996-2015 Texas Instruments Incorporated
fsm_main.asm                                                         PAGE    6

     274 00000002 2B01-         MOV       @_connected,#0        ; [CPU_] |64| 
     275                      .dwpsn  file "../Source/App/fsm_main.c",line 65,column 2,is_stmt,isa 0
     276              $C$DW$51        .dwtag  DW_TAG_TI_branch
     277                      .dwattr $C$DW$51, DW_AT_low_pc(0x00)
     278                      .dwattr $C$DW$51, DW_AT_name("_fsm_init_stop")
     279                      .dwattr $C$DW$51, DW_AT_TI_call
     280 00000003 7640'         LCR       #_fsm_init_stop       ; [CPU_] |65| 
         00000004 011D 
     281                      ; call occurs [#_fsm_init_stop] ; [] |65| 
     282                      .dwpsn  file "../Source/App/fsm_main.c",line 66,column 5,is_stmt,isa 0
     283 00000005 761F-         MOVW      DP,#_state            ; [CPU_U] 
         00000006 0000 
     284 00000007 9200-         MOV       AL,@_state            ; [CPU_] |66| 
     285                      .dwpsn  file "../Source/App/fsm_main.c",line 67,column 1,is_stmt,isa 0
     286              $C$DW$52        .dwtag  DW_TAG_TI_branch
     287                      .dwattr $C$DW$52, DW_AT_low_pc(0x00)
     288                      .dwattr $C$DW$52, DW_AT_TI_return
     289 00000008 0006          LRETR     ; [CPU_] 
     290                      ; return occurs ; [] 
     291                      .dwattr $C$DW$50, DW_AT_TI_end_file("../Source/App/fsm_main.c")
     292                      .dwattr $C$DW$50, DW_AT_TI_end_line(0x43)
     293                      .dwattr $C$DW$50, DW_AT_TI_end_column(0x01)
     294                      .dwendentry
     295                      .dwendtag $C$DW$50
     296              
     297 00000009               .sect   ".text"
     298                      .clink
     299                      .global _fsm_main_set_state
     300              
     301              $C$DW$53        .dwtag  DW_TAG_subprogram, DW_AT_name("fsm_main_set_state")
     302                      .dwattr $C$DW$53, DW_AT_low_pc(_fsm_main_set_state)
     303                      .dwattr $C$DW$53, DW_AT_high_pc(0x00)
     304                      .dwattr $C$DW$53, DW_AT_TI_symbol_name("_fsm_main_set_state")
     305                      .dwattr $C$DW$53, DW_AT_external
     306                      .dwattr $C$DW$53, DW_AT_TI_begin_file("../Source/App/fsm_main.c")
     307                      .dwattr $C$DW$53, DW_AT_TI_begin_line(0x46)
     308                      .dwattr $C$DW$53, DW_AT_TI_begin_column(0x06)
     309                      .dwattr $C$DW$53, DW_AT_TI_max_frame_size(-4)
     310                      .dwpsn  file "../Source/App/fsm_main.c",line 71,column 1,is_stmt,address _fsm_main_set_state,isa 0
     311              
     312                      .dwfde $C$DW$CIE, _fsm_main_set_state
     313              $C$DW$54        .dwtag  DW_TAG_formal_parameter, DW_AT_name("new_state")
     314                      .dwattr $C$DW$54, DW_AT_TI_symbol_name("_new_state")
     315                      .dwattr $C$DW$54, DW_AT_type(*$C$DW$T$291)
     316                      .dwattr $C$DW$54, DW_AT_location[DW_OP_reg0]
     317              
     318              ;***************************************************************
     319              ;* FNAME: _fsm_main_set_state           FR SIZE:   2           *
     320              ;*                                                             *
     321              ;* FUNCTION ENVIRONMENT                                        *
     322              ;*                                                             *
     323              ;* FUNCTION PROPERTIES                                         *
     324              ;*                            0 Parameter,  1 Auto,  0 SOE     *
     325              ;***************************************************************
     326              
TMS320C2000 Assembler PC v6.4.2 Thu Dec 14 15:27:05 2017

Tools Copyright (c) 1996-2015 Texas Instruments Incorporated
fsm_main.asm                                                         PAGE    7

     327 00000009       _fsm_main_set_state:
     328                      .dwcfi  cfa_offset, -2
     329                      .dwcfi  save_reg_to_mem, 26, 0
     330 00000009 FE02          ADDB      SP,#2                 ; [CPU_U] 
     331                      .dwcfi  cfa_offset, -4
     332              $C$DW$55        .dwtag  DW_TAG_variable, DW_AT_name("new_state")
     333                      .dwattr $C$DW$55, DW_AT_TI_symbol_name("_new_state")
     334                      .dwattr $C$DW$55, DW_AT_type(*$C$DW$T$291)
     335                      .dwattr $C$DW$55, DW_AT_location[DW_OP_breg20 -1]
     336 0000000a 9641          MOV       *-SP[1],AL            ; [CPU_] |71| 
     337                      .dwpsn  file "../Source/App/fsm_main.c",line 72,column 2,is_stmt,isa 0
     338 0000000b 761F-         MOVW      DP,#_state            ; [CPU_U] 
         0000000c 0000 
     339 0000000d 8800-         MOVZ      AR6,@_state           ; [CPU_] |72| 
     340 0000000e 0E41          MOVU      ACC,*-SP[1]           ; [CPU_] |72| 
     341 0000000f 0FA6          CMPL      ACC,XAR6              ; [CPU_] |72| 
     342 00000010 EC29          BF        $C$L10,EQ             ; [CPU_] |72| 
     343                      ; branchcc occurs ; [] |72| 
     344                      .dwpsn  file "../Source/App/fsm_main.c",line 74,column 3,is_stmt,isa 0
     345 00000011 6F0A          B         $C$L4,UNC             ; [CPU_] |74| 
     346                      ; branch occurs ; [] |74| 
     347 00000012       $C$L1:    
     348                      .dwpsn  file "../Source/App/fsm_main.c",line 76,column 5,is_stmt,isa 0
     349              $C$DW$56        .dwtag  DW_TAG_TI_branch
     350                      .dwattr $C$DW$56, DW_AT_low_pc(0x00)
     351                      .dwattr $C$DW$56, DW_AT_name("_fsm_exit_stop")
     352                      .dwattr $C$DW$56, DW_AT_TI_call
     353 00000012 7640'         LCR       #_fsm_exit_stop       ; [CPU_] |76| 
         00000013 01FA 
     354                      ; call occurs [#_fsm_exit_stop] ; [] |76| 
     355                      .dwpsn  file "../Source/App/fsm_main.c",line 77,column 5,is_stmt,isa 0
     356 00000014 6F1C          B         $C$L9,UNC             ; [CPU_] |77| 
     357                      ; branch occurs ; [] |77| 
     358 00000015       $C$L2:    
     359                      .dwpsn  file "../Source/App/fsm_main.c",line 79,column 5,is_stmt,isa 0
     360              $C$DW$57        .dwtag  DW_TAG_TI_branch
     361                      .dwattr $C$DW$57, DW_AT_low_pc(0x00)
     362                      .dwattr $C$DW$57, DW_AT_name("_fsm_exit_config")
     363                      .dwattr $C$DW$57, DW_AT_TI_call
     364 00000015 7640'         LCR       #_fsm_exit_config     ; [CPU_] |79| 
         00000016 022D 
     365                      ; call occurs [#_fsm_exit_config] ; [] |79| 
     366                      .dwpsn  file "../Source/App/fsm_main.c",line 80,column 5,is_stmt,isa 0
     367 00000017 6F19          B         $C$L9,UNC             ; [CPU_] |80| 
     368                      ; branch occurs ; [] |80| 
     369 00000018       $C$L3:    
     370                      .dwpsn  file "../Source/App/fsm_main.c",line 82,column 5,is_stmt,isa 0
     371              $C$DW$58        .dwtag  DW_TAG_TI_branch
     372                      .dwattr $C$DW$58, DW_AT_low_pc(0x00)
     373                      .dwattr $C$DW$58, DW_AT_name("_fsm_exit_run")
     374                      .dwattr $C$DW$58, DW_AT_TI_call
     375 00000018 7640'         LCR       #_fsm_exit_run        ; [CPU_] |82| 
         00000019 024D 
     376                      ; call occurs [#_fsm_exit_run] ; [] |82| 
     377                      .dwpsn  file "../Source/App/fsm_main.c",line 83,column 5,is_stmt,isa 0
TMS320C2000 Assembler PC v6.4.2 Thu Dec 14 15:27:05 2017

Tools Copyright (c) 1996-2015 Texas Instruments Incorporated
fsm_main.asm                                                         PAGE    8

     378 0000001a 6F16          B         $C$L9,UNC             ; [CPU_] |83| 
     379                      ; branch occurs ; [] |83| 
     380 0000001b       $C$L4:    
     381                      .dwpsn  file "../Source/App/fsm_main.c",line 74,column 3,is_stmt,isa 0
     382 0000001b 9200-         MOV       AL,@_state            ; [CPU_] |74| 
     383 0000001c ECF6          BF        $C$L1,EQ              ; [CPU_] |74| 
     384                      ; branchcc occurs ; [] |74| 
     385 0000001d 5201          CMPB      AL,#1                 ; [CPU_] |74| 
     386 0000001e ECF7          BF        $C$L2,EQ              ; [CPU_] |74| 
     387                      ; branchcc occurs ; [] |74| 
     388 0000001f 5202          CMPB      AL,#2                 ; [CPU_] |74| 
     389 00000020 ECF8          BF        $C$L3,EQ              ; [CPU_] |74| 
     390                      ; branchcc occurs ; [] |74| 
     391 00000021 5203          CMPB      AL,#3                 ; [CPU_] |74| 
     392 00000022 EC1B          BF        $C$L11,EQ             ; [CPU_] |74| 
     393                      ; branchcc occurs ; [] |74| 
     394 00000023 6F0D          B         $C$L9,UNC             ; [CPU_] |74| 
     395                      ; branch occurs ; [] |74| 
     396 00000024       $C$L5:    
     397                      .dwpsn  file "../Source/App/fsm_main.c",line 90,column 5,is_stmt,isa 0
     398              $C$DW$59        .dwtag  DW_TAG_TI_branch
     399                      .dwattr $C$DW$59, DW_AT_low_pc(0x00)
     400                      .dwattr $C$DW$59, DW_AT_name("_fsm_init_stop")
     401                      .dwattr $C$DW$59, DW_AT_TI_call
     402 00000024 7640'         LCR       #_fsm_init_stop       ; [CPU_] |90| 
         00000025 011D 
     403                      ; call occurs [#_fsm_init_stop] ; [] |90| 
     404                      .dwpsn  file "../Source/App/fsm_main.c",line 91,column 5,is_stmt,isa 0
     405 00000026 6F17          B         $C$L11,UNC            ; [CPU_] |91| 
     406                      ; branch occurs ; [] |91| 
     407 00000027       $C$L6:    
     408                      .dwpsn  file "../Source/App/fsm_main.c",line 93,column 5,is_stmt,isa 0
     409              $C$DW$60        .dwtag  DW_TAG_TI_branch
     410                      .dwattr $C$DW$60, DW_AT_low_pc(0x00)
     411                      .dwattr $C$DW$60, DW_AT_name("_fsm_init_config")
     412                      .dwattr $C$DW$60, DW_AT_TI_call
     413 00000027 7640'         LCR       #_fsm_init_config     ; [CPU_] |93| 
         00000028 0174 
     414                      ; call occurs [#_fsm_init_config] ; [] |93| 
     415                      .dwpsn  file "../Source/App/fsm_main.c",line 94,column 5,is_stmt,isa 0
     416 00000029 6F14          B         $C$L11,UNC            ; [CPU_] |94| 
     417                      ; branch occurs ; [] |94| 
     418 0000002a       $C$L7:    
     419                      .dwpsn  file "../Source/App/fsm_main.c",line 96,column 5,is_stmt,isa 0
     420              $C$DW$61        .dwtag  DW_TAG_TI_branch
     421                      .dwattr $C$DW$61, DW_AT_low_pc(0x00)
     422                      .dwattr $C$DW$61, DW_AT_name("_fsm_init_run")
     423                      .dwattr $C$DW$61, DW_AT_TI_call
     424 0000002a 7640'         LCR       #_fsm_init_run        ; [CPU_] |96| 
         0000002b 0184 
     425                      ; call occurs [#_fsm_init_run] ; [] |96| 
     426                      .dwpsn  file "../Source/App/fsm_main.c",line 97,column 5,is_stmt,isa 0
     427 0000002c 6F11          B         $C$L11,UNC            ; [CPU_] |97| 
     428                      ; branch occurs ; [] |97| 
     429 0000002d       $C$L8:    
TMS320C2000 Assembler PC v6.4.2 Thu Dec 14 15:27:05 2017

Tools Copyright (c) 1996-2015 Texas Instruments Incorporated
fsm_main.asm                                                         PAGE    9

     430                      .dwpsn  file "../Source/App/fsm_main.c",line 99,column 5,is_stmt,isa 0
     431              $C$DW$62        .dwtag  DW_TAG_TI_branch
     432                      .dwattr $C$DW$62, DW_AT_low_pc(0x00)
     433                      .dwattr $C$DW$62, DW_AT_name("_fsm_init_error")
     434                      .dwattr $C$DW$62, DW_AT_TI_call
     435 0000002d 7640'         LCR       #_fsm_init_error      ; [CPU_] |99| 
         0000002e 01A5 
     436                      ; call occurs [#_fsm_init_error] ; [] |99| 
     437                      .dwpsn  file "../Source/App/fsm_main.c",line 100,column 5,is_stmt,isa 0
     438 0000002f 6F0E          B         $C$L11,UNC            ; [CPU_] |100| 
     439                      ; branch occurs ; [] |100| 
     440 00000030       $C$L9:    
     441                      .dwpsn  file "../Source/App/fsm_main.c",line 88,column 3,is_stmt,isa 0
     442 00000030 9241          MOV       AL,*-SP[1]            ; [CPU_] |88| 
     443 00000031 ECF3          BF        $C$L5,EQ              ; [CPU_] |88| 
     444                      ; branchcc occurs ; [] |88| 
     445 00000032 5201          CMPB      AL,#1                 ; [CPU_] |88| 
     446 00000033 ECF4          BF        $C$L6,EQ              ; [CPU_] |88| 
     447                      ; branchcc occurs ; [] |88| 
     448 00000034 5202          CMPB      AL,#2                 ; [CPU_] |88| 
     449 00000035 ECF5          BF        $C$L7,EQ              ; [CPU_] |88| 
     450                      ; branchcc occurs ; [] |88| 
     451 00000036 5203          CMPB      AL,#3                 ; [CPU_] |88| 
     452 00000037 ECF6          BF        $C$L8,EQ              ; [CPU_] |88| 
     453                      ; branchcc occurs ; [] |88| 
     454 00000038 6F05          B         $C$L11,UNC            ; [CPU_] |88| 
     455                      ; branch occurs ; [] |88| 
     456 00000039       $C$L10:    
     457                      .dwpsn  file "../Source/App/fsm_main.c",line 102,column 9,is_stmt,isa 0
     458 00000039 9200-         MOV       AL,@_state            ; [CPU_] |102| 
     459 0000003a EC03          BF        $C$L11,EQ             ; [CPU_] |102| 
     460                      ; branchcc occurs ; [] |102| 
     461                      .dwpsn  file "../Source/App/fsm_main.c",line 103,column 3,is_stmt,isa 0
     462              $C$DW$63        .dwtag  DW_TAG_TI_branch
     463                      .dwattr $C$DW$63, DW_AT_low_pc(0x00)
     464                      .dwattr $C$DW$63, DW_AT_name("_send_state_change_command")
     465                      .dwattr $C$DW$63, DW_AT_TI_call
     466 0000003b 7640!         LCR       #_send_state_change_command ; [CPU_] |103| 
         0000003c 0000 
     467                      ; call occurs [#_send_state_change_command] ; [] |103| 
     468                      .dwpsn  file "../Source/App/fsm_main.c",line 105,column 1,is_stmt,isa 0
     469 0000003d       $C$L11:    
     470 0000003d FE82          SUBB      SP,#2                 ; [CPU_U] 
     471                      .dwcfi  cfa_offset, -2
     472              $C$DW$64        .dwtag  DW_TAG_TI_branch
     473                      .dwattr $C$DW$64, DW_AT_low_pc(0x00)
     474                      .dwattr $C$DW$64, DW_AT_TI_return
     475 0000003e 0006          LRETR     ; [CPU_] 
     476                      ; return occurs ; [] 
     477                      .dwattr $C$DW$53, DW_AT_TI_end_file("../Source/App/fsm_main.c")
     478                      .dwattr $C$DW$53, DW_AT_TI_end_line(0x69)
     479                      .dwattr $C$DW$53, DW_AT_TI_end_column(0x01)
     480                      .dwendentry
     481                      .dwendtag $C$DW$53
     482              
TMS320C2000 Assembler PC v6.4.2 Thu Dec 14 15:27:05 2017

Tools Copyright (c) 1996-2015 Texas Instruments Incorporated
fsm_main.asm                                                         PAGE   10

     483 0000003f               .sect   ".text"
     484                      .clink
     485                      .global _fsm_main_get_state
     486              
     487              $C$DW$65        .dwtag  DW_TAG_subprogram, DW_AT_name("fsm_main_get_state")
     488                      .dwattr $C$DW$65, DW_AT_low_pc(_fsm_main_get_state)
     489                      .dwattr $C$DW$65, DW_AT_high_pc(0x00)
     490                      .dwattr $C$DW$65, DW_AT_TI_symbol_name("_fsm_main_get_state")
     491                      .dwattr $C$DW$65, DW_AT_external
     492                      .dwattr $C$DW$65, DW_AT_type(*$C$DW$T$291)
     493                      .dwattr $C$DW$65, DW_AT_TI_begin_file("../Source/App/fsm_main.c")
     494                      .dwattr $C$DW$65, DW_AT_TI_begin_line(0x6c)
     495                      .dwattr $C$DW$65, DW_AT_TI_begin_column(0x12)
     496                      .dwattr $C$DW$65, DW_AT_TI_max_frame_size(-2)
     497                      .dwpsn  file "../Source/App/fsm_main.c",line 108,column 42,is_stmt,address _fsm_main_get_state,isa 0
     498              
     499                      .dwfde $C$DW$CIE, _fsm_main_get_state
     500              
     501              ;***************************************************************
     502              ;* FNAME: _fsm_main_get_state           FR SIZE:   0           *
     503              ;*                                                             *
     504              ;* FUNCTION ENVIRONMENT                                        *
     505              ;*                                                             *
     506              ;* FUNCTION PROPERTIES                                         *
     507              ;*                            0 Parameter,  0 Auto,  0 SOE     *
     508              ;***************************************************************
     509              
     510 0000003f       _fsm_main_get_state:
     511                      .dwcfi  cfa_offset, -2
     512                      .dwcfi  save_reg_to_mem, 26, 0
     513                      .dwpsn  file "../Source/App/fsm_main.c",line 109,column 2,is_stmt,isa 0
     514 0000003f 761F-         MOVW      DP,#_state            ; [CPU_U] 
         00000040 0000 
     515 00000041 9200-         MOV       AL,@_state            ; [CPU_] |109| 
     516                      .dwpsn  file "../Source/App/fsm_main.c",line 110,column 1,is_stmt,isa 0
     517              $C$DW$66        .dwtag  DW_TAG_TI_branch
     518                      .dwattr $C$DW$66, DW_AT_low_pc(0x00)
     519                      .dwattr $C$DW$66, DW_AT_TI_return
     520 00000042 0006          LRETR     ; [CPU_] 
     521                      ; return occurs ; [] 
     522                      .dwattr $C$DW$65, DW_AT_TI_end_file("../Source/App/fsm_main.c")
     523                      .dwattr $C$DW$65, DW_AT_TI_end_line(0x6e)
     524                      .dwattr $C$DW$65, DW_AT_TI_end_column(0x01)
     525                      .dwendentry
     526                      .dwendtag $C$DW$65
     527              
     528 00000043               .sect   ".text"
     529                      .clink
     530                      .global _fsm_main_run
     531              
     532              $C$DW$67        .dwtag  DW_TAG_subprogram, DW_AT_name("fsm_main_run")
     533                      .dwattr $C$DW$67, DW_AT_low_pc(_fsm_main_run)
     534                      .dwattr $C$DW$67, DW_AT_high_pc(0x00)
     535                      .dwattr $C$DW$67, DW_AT_TI_symbol_name("_fsm_main_run")
     536                      .dwattr $C$DW$67, DW_AT_external
TMS320C2000 Assembler PC v6.4.2 Thu Dec 14 15:27:05 2017

Tools Copyright (c) 1996-2015 Texas Instruments Incorporated
fsm_main.asm                                                         PAGE   11

     537                      .dwattr $C$DW$67, DW_AT_TI_begin_file("../Source/App/fsm_main.c")
     538                      .dwattr $C$DW$67, DW_AT_TI_begin_line(0x71)
     539                      .dwattr $C$DW$67, DW_AT_TI_begin_column(0x06)
     540                      .dwattr $C$DW$67, DW_AT_TI_max_frame_size(-2)
     541                      .dwpsn  file "../Source/App/fsm_main.c",line 114,column 1,is_stmt,address _fsm_main_run,isa 0
     542              
     543                      .dwfde $C$DW$CIE, _fsm_main_run
     544              
     545              ;***************************************************************
     546              ;* FNAME: _fsm_main_run                 FR SIZE:   0           *
     547              ;*                                                             *
     548              ;* FUNCTION ENVIRONMENT                                        *
     549              ;*                                                             *
     550              ;* FUNCTION PROPERTIES                                         *
     551              ;*                            0 Parameter,  0 Auto,  0 SOE     *
     552              ;***************************************************************
     553              
     554 00000043       _fsm_main_run:
     555                      .dwcfi  cfa_offset, -2
     556                      .dwcfi  save_reg_to_mem, 26, 0
     557                      .dwpsn  file "../Source/App/fsm_main.c",line 115,column 2,is_stmt,isa 0
     558 00000043 6F0D          B         $C$L16,UNC            ; [CPU_] |115| 
     559                      ; branch occurs ; [] |115| 
     560 00000044       $C$L12:    
     561                      .dwpsn  file "../Source/App/fsm_main.c",line 117,column 4,is_stmt,isa 0
     562              $C$DW$68        .dwtag  DW_TAG_TI_branch
     563                      .dwattr $C$DW$68, DW_AT_low_pc(0x00)
     564                      .dwattr $C$DW$68, DW_AT_name("_fsm_cyclic_stop")
     565                      .dwattr $C$DW$68, DW_AT_TI_call
     566 00000044 7640'         LCR       #_fsm_cyclic_stop     ; [CPU_] |117| 
         00000045 005C 
     567                      ; call occurs [#_fsm_cyclic_stop] ; [] |117| 
     568                      .dwpsn  file "../Source/App/fsm_main.c",line 118,column 4,is_stmt,isa 0
     569 00000046 6F15          B         $C$L17,UNC            ; [CPU_] |118| 
     570                      ; branch occurs ; [] |118| 
     571 00000047       $C$L13:    
     572                      .dwpsn  file "../Source/App/fsm_main.c",line 120,column 4,is_stmt,isa 0
     573              $C$DW$69        .dwtag  DW_TAG_TI_branch
     574                      .dwattr $C$DW$69, DW_AT_low_pc(0x00)
     575                      .dwattr $C$DW$69, DW_AT_name("_fsm_cyclic_config")
     576                      .dwattr $C$DW$69, DW_AT_TI_call
     577 00000047 7640'         LCR       #_fsm_cyclic_config   ; [CPU_] |120| 
         00000048 0065 
     578                      ; call occurs [#_fsm_cyclic_config] ; [] |120| 
     579                      .dwpsn  file "../Source/App/fsm_main.c",line 121,column 4,is_stmt,isa 0
     580 00000049 6F12          B         $C$L17,UNC            ; [CPU_] |121| 
     581                      ; branch occurs ; [] |121| 
     582 0000004a       $C$L14:    
     583                      .dwpsn  file "../Source/App/fsm_main.c",line 123,column 4,is_stmt,isa 0
     584              $C$DW$70        .dwtag  DW_TAG_TI_branch
     585                      .dwattr $C$DW$70, DW_AT_low_pc(0x00)
     586                      .dwattr $C$DW$70, DW_AT_name("_fsm_cyclic_run")
     587                      .dwattr $C$DW$70, DW_AT_TI_call
     588 0000004a 7640'         LCR       #_fsm_cyclic_run      ; [CPU_] |123| 
         0000004b 00A0 
TMS320C2000 Assembler PC v6.4.2 Thu Dec 14 15:27:05 2017

Tools Copyright (c) 1996-2015 Texas Instruments Incorporated
fsm_main.asm                                                         PAGE   12

     589                      ; call occurs [#_fsm_cyclic_run] ; [] |123| 
     590                      .dwpsn  file "../Source/App/fsm_main.c",line 124,column 4,is_stmt,isa 0
     591 0000004c 6F0F          B         $C$L17,UNC            ; [CPU_] |124| 
     592                      ; branch occurs ; [] |124| 
     593 0000004d       $C$L15:    
     594                      .dwpsn  file "../Source/App/fsm_main.c",line 126,column 4,is_stmt,isa 0
     595              $C$DW$71        .dwtag  DW_TAG_TI_branch
     596                      .dwattr $C$DW$71, DW_AT_low_pc(0x00)
     597                      .dwattr $C$DW$71, DW_AT_name("_fsm_cyclic_error")
     598                      .dwattr $C$DW$71, DW_AT_TI_call
     599 0000004d 7640'         LCR       #_fsm_cyclic_error    ; [CPU_] |126| 
         0000004e 00F3 
     600                      ; call occurs [#_fsm_cyclic_error] ; [] |126| 
     601                      .dwpsn  file "../Source/App/fsm_main.c",line 127,column 4,is_stmt,isa 0
     602 0000004f 6F0C          B         $C$L17,UNC            ; [CPU_] |127| 
     603                      ; branch occurs ; [] |127| 
     604 00000050       $C$L16:    
     605                      .dwpsn  file "../Source/App/fsm_main.c",line 115,column 2,is_stmt,isa 0
     606 00000050 761F-         MOVW      DP,#_state            ; [CPU_U] 
         00000051 0000 
     607 00000052 9200-         MOV       AL,@_state            ; [CPU_] |115| 
     608 00000053 ECF1          BF        $C$L12,EQ             ; [CPU_] |115| 
     609                      ; branchcc occurs ; [] |115| 
     610 00000054 5201          CMPB      AL,#1                 ; [CPU_] |115| 
     611 00000055 ECF2          BF        $C$L13,EQ             ; [CPU_] |115| 
     612                      ; branchcc occurs ; [] |115| 
     613 00000056 5202          CMPB      AL,#2                 ; [CPU_] |115| 
     614 00000057 ECF3          BF        $C$L14,EQ             ; [CPU_] |115| 
     615                      ; branchcc occurs ; [] |115| 
     616 00000058 5203          CMPB      AL,#3                 ; [CPU_] |115| 
     617 00000059 ECF4          BF        $C$L15,EQ             ; [CPU_] |115| 
     618                      ; branchcc occurs ; [] |115| 
     619 0000005a 6F01          B         $C$L17,UNC            ; [CPU_] |115| 
     620                      ; branch occurs ; [] |115| 
     621              $C$L17:    
     622              $C$DW$72        .dwtag  DW_TAG_TI_branch
     623                      .dwattr $C$DW$72, DW_AT_low_pc(0x00)
     624                      .dwattr $C$DW$72, DW_AT_TI_return
     625 0000005b 0006          LRETR     ; [CPU_] 
     626                      ; return occurs ; [] 
     627                      .dwattr $C$DW$67, DW_AT_TI_end_file("../Source/App/fsm_main.c")
     628                      .dwattr $C$DW$67, DW_AT_TI_end_line(0x83)
     629                      .dwattr $C$DW$67, DW_AT_TI_end_column(0x01)
     630                      .dwendentry
     631                      .dwendtag $C$DW$67
     632              
     633 0000005c               .sect   ".text"
     634                      .clink
     635                      .global _fsm_cyclic_stop
     636              
     637              $C$DW$73        .dwtag  DW_TAG_subprogram, DW_AT_name("fsm_cyclic_stop")
     638                      .dwattr $C$DW$73, DW_AT_low_pc(_fsm_cyclic_stop)
     639                      .dwattr $C$DW$73, DW_AT_high_pc(0x00)
     640                      .dwattr $C$DW$73, DW_AT_TI_symbol_name("_fsm_cyclic_stop")
     641                      .dwattr $C$DW$73, DW_AT_external
TMS320C2000 Assembler PC v6.4.2 Thu Dec 14 15:27:05 2017

Tools Copyright (c) 1996-2015 Texas Instruments Incorporated
fsm_main.asm                                                         PAGE   13

     642                      .dwattr $C$DW$73, DW_AT_TI_begin_file("../Source/App/fsm_main.c")
     643                      .dwattr $C$DW$73, DW_AT_TI_begin_line(0x87)
     644                      .dwattr $C$DW$73, DW_AT_TI_begin_column(0x06)
     645                      .dwattr $C$DW$73, DW_AT_TI_max_frame_size(-2)
     646                      .dwpsn  file "../Source/App/fsm_main.c",line 135,column 27,is_stmt,address _fsm_cyclic_stop,isa 0
     647              
     648                      .dwfde $C$DW$CIE, _fsm_cyclic_stop
     649              
     650              ;***************************************************************
     651              ;* FNAME: _fsm_cyclic_stop              FR SIZE:   0           *
     652              ;*                                                             *
     653              ;* FUNCTION ENVIRONMENT                                        *
     654              ;*                                                             *
     655              ;* FUNCTION PROPERTIES                                         *
     656              ;*                            0 Parameter,  0 Auto,  0 SOE     *
     657              ;***************************************************************
     658              
     659 0000005c       _fsm_cyclic_stop:
     660                      .dwcfi  cfa_offset, -2
     661                      .dwcfi  save_reg_to_mem, 26, 0
     662                      .dwpsn  file "../Source/App/fsm_main.c",line 136,column 2,is_stmt,isa 0
     663 0000005c 9A42          MOVB      AL,#66                ; [CPU_] |136| 
     664              $C$DW$74        .dwtag  DW_TAG_TI_branch
     665                      .dwattr $C$DW$74, DW_AT_low_pc(0x00)
     666                      .dwattr $C$DW$74, DW_AT_name("_hal_button_read")
     667                      .dwattr $C$DW$74, DW_AT_TI_call
     668 0000005d 7640!         LCR       #_hal_button_read     ; [CPU_] |136| 
         0000005e 0000 
     669                      ; call occurs [#_hal_button_read] ; [] |136| 
     670 0000005f 5200          CMPB      AL,#0                 ; [CPU_] |136| 
     671 00000060 EC04          BF        $C$L18,EQ             ; [CPU_] |136| 
     672                      ; branchcc occurs ; [] |136| 
     673                      .dwpsn  file "../Source/App/fsm_main.c",line 137,column 3,is_stmt,isa 0
     674 00000061 9A01          MOVB      AL,#1                 ; [CPU_] |137| 
     675              $C$DW$75        .dwtag  DW_TAG_TI_branch
     676                      .dwattr $C$DW$75, DW_AT_low_pc(0x00)
     677                      .dwattr $C$DW$75, DW_AT_name("_fsm_main_set_state")
     678                      .dwattr $C$DW$75, DW_AT_TI_call
     679 00000062 7640'         LCR       #_fsm_main_set_state  ; [CPU_] |137| 
         00000063 0009 
     680                      ; call occurs [#_fsm_main_set_state] ; [] |137| 
     681                      .dwpsn  file "../Source/App/fsm_main.c",line 139,column 1,is_stmt,isa 0
     682              $C$L18:    
     683              $C$DW$76        .dwtag  DW_TAG_TI_branch
     684                      .dwattr $C$DW$76, DW_AT_low_pc(0x00)
     685                      .dwattr $C$DW$76, DW_AT_TI_return
     686 00000064 0006          LRETR     ; [CPU_] 
     687                      ; return occurs ; [] 
     688                      .dwattr $C$DW$73, DW_AT_TI_end_file("../Source/App/fsm_main.c")
     689                      .dwattr $C$DW$73, DW_AT_TI_end_line(0x8b)
     690                      .dwattr $C$DW$73, DW_AT_TI_end_column(0x01)
     691                      .dwendentry
     692                      .dwendtag $C$DW$73
     693              
     694 00000065               .sect   ".text"
TMS320C2000 Assembler PC v6.4.2 Thu Dec 14 15:27:05 2017

Tools Copyright (c) 1996-2015 Texas Instruments Incorporated
fsm_main.asm                                                         PAGE   14

     695                      .clink
     696                      .global _fsm_cyclic_config
     697              
     698              $C$DW$77        .dwtag  DW_TAG_subprogram, DW_AT_name("fsm_cyclic_config")
     699                      .dwattr $C$DW$77, DW_AT_low_pc(_fsm_cyclic_config)
     700                      .dwattr $C$DW$77, DW_AT_high_pc(0x00)
     701                      .dwattr $C$DW$77, DW_AT_TI_symbol_name("_fsm_cyclic_config")
     702                      .dwattr $C$DW$77, DW_AT_external
     703                      .dwattr $C$DW$77, DW_AT_TI_begin_file("../Source/App/fsm_main.c")
     704                      .dwattr $C$DW$77, DW_AT_TI_begin_line(0x8e)
     705                      .dwattr $C$DW$77, DW_AT_TI_begin_column(0x06)
     706                      .dwattr $C$DW$77, DW_AT_TI_max_frame_size(-108)
     707                      .dwpsn  file "../Source/App/fsm_main.c",line 142,column 29,is_stmt,address _fsm_cyclic_config,isa 0
     708              
     709                      .dwfde $C$DW$CIE, _fsm_cyclic_config
     710              
     711              ;***************************************************************
     712              ;* FNAME: _fsm_cyclic_config            FR SIZE: 106           *
     713              ;*                                                             *
     714              ;* FUNCTION ENVIRONMENT                                        *
     715              ;*                                                             *
     716              ;* FUNCTION PROPERTIES                                         *
     717              ;*                            0 Parameter, 103 Auto,  2 SOE     *
     718              ;***************************************************************
     719              
     720 00000065       _fsm_cyclic_config:
     721                      .dwcfi  cfa_offset, -2
     722                      .dwcfi  save_reg_to_mem, 26, 0
     723 00000065 AABD          MOVL      *SP++,XAR2            ; [CPU_] 
     724                      .dwcfi  save_reg_to_mem, 9, 2
     725                      .dwcfi  cfa_offset, -4
     726 00000066 5AAD          MOVZ      AR2,SP                ; [CPU_] 
     727 00000067 DA84          SUBB      FP,#4                 ; [CPU_U] 
     728 00000068 FE68          ADDB      SP,#104               ; [CPU_U] 
     729                      .dwcfi  cfa_offset, -108
     730              $C$DW$78        .dwtag  DW_TAG_variable, DW_AT_name("commandbuffer")
     731                      .dwattr $C$DW$78, DW_AT_TI_symbol_name("_commandbuffer")
     732                      .dwattr $C$DW$78, DW_AT_type(*$C$DW$T$328)
     733                      .dwattr $C$DW$78, DW_AT_location[DW_OP_breg20 -100]
     734              $C$DW$79        .dwtag  DW_TAG_variable, DW_AT_name("commandType")
     735                      .dwattr $C$DW$79, DW_AT_TI_symbol_name("_commandType")
     736                      .dwattr $C$DW$79, DW_AT_type(*$C$DW$T$285)
     737                      .dwattr $C$DW$79, DW_AT_location[DW_OP_breg20 -101]
     738              $C$DW$80        .dwtag  DW_TAG_variable, DW_AT_name("received_state")
     739                      .dwattr $C$DW$80, DW_AT_TI_symbol_name("_received_state")
     740                      .dwattr $C$DW$80, DW_AT_type(*$C$DW$T$291)
     741                      .dwattr $C$DW$80, DW_AT_location[DW_OP_breg20 -102]
     742              $C$DW$81        .dwtag  DW_TAG_variable, DW_AT_name("received_config_mode_cmd")
     743                      .dwattr $C$DW$81, DW_AT_TI_symbol_name("_received_config_mode_cmd")
     744                      .dwattr $C$DW$81, DW_AT_type(*$C$DW$T$282)
     745                      .dwattr $C$DW$81, DW_AT_location[DW_OP_breg20 -103]
     746                      .dwpsn  file "../Source/App/fsm_main.c",line 148,column 2,is_stmt,isa 0
     747 00000069 9A3D          MOVB      AL,#61                ; [CPU_] |148| 
     748              $C$DW$82        .dwtag  DW_TAG_TI_branch
     749                      .dwattr $C$DW$82, DW_AT_low_pc(0x00)
TMS320C2000 Assembler PC v6.4.2 Thu Dec 14 15:27:05 2017

Tools Copyright (c) 1996-2015 Texas Instruments Incorporated
fsm_main.asm                                                         PAGE   15

     750                      .dwattr $C$DW$82, DW_AT_name("_GPIO_ReadPin")
     751                      .dwattr $C$DW$82, DW_AT_TI_call
     752 0000006a 7640!         LCR       #_GPIO_ReadPin        ; [CPU_] |148| 
         0000006b 0000 
     753                      ; call occurs [#_GPIO_ReadPin] ; [] |148| 
     754 0000006c 5200          CMPB      AL,#0                 ; [CPU_] |148| 
     755 0000006d ED07          BF        $C$L19,NEQ            ; [CPU_] |148| 
     756                      ; branchcc occurs ; [] |148| 
     757                      .dwpsn  file "../Source/App/fsm_main.c",line 149,column 3,is_stmt,isa 0
     758 0000006e 761F-         MOVW      DP,#_connected        ; [CPU_U] 
         0000006f 0000 
     759 00000070 2B01-         MOV       @_connected,#0        ; [CPU_] |149| 
     760                      .dwpsn  file "../Source/App/fsm_main.c",line 150,column 3,is_stmt,isa 0
     761 00000071 9A00          MOVB      AL,#0                 ; [CPU_] |150| 
     762              $C$DW$83        .dwtag  DW_TAG_TI_branch
     763                      .dwattr $C$DW$83, DW_AT_low_pc(0x00)
     764                      .dwattr $C$DW$83, DW_AT_name("_fsm_main_set_state")
     765                      .dwattr $C$DW$83, DW_AT_TI_call
     766 00000072 7640'         LCR       #_fsm_main_set_state  ; [CPU_] |150| 
         00000073 0009 
     767                      ; call occurs [#_fsm_main_set_state] ; [] |150| 
     768 00000074       $C$L19:    
     769                      .dwpsn  file "../Source/App/fsm_main.c",line 153,column 2,is_stmt,isa 0
     770 00000074 5CAD          MOVZ      AR4,SP                ; [CPU_] |153| 
     771 00000075 DCE4          SUBB      XAR4,#100             ; [CPU_U] |153| 
     772 00000076 5CA4          MOVZ      AR4,AR4               ; [CPU_] |153| 
     773              $C$DW$84        .dwtag  DW_TAG_TI_branch
     774                      .dwattr $C$DW$84, DW_AT_low_pc(0x00)
     775                      .dwattr $C$DW$84, DW_AT_name("_read_Command")
     776                      .dwattr $C$DW$84, DW_AT_TI_call
     777 00000077 7640!         LCR       #_read_Command        ; [CPU_] |153| 
         00000078 0000 
     778                      ; call occurs [#_read_Command] ; [] |153| 
     779 00000079 96FA          MOV       *+FP[7],AL            ; [CPU_] |153| 
     780                      .dwpsn  file "../Source/App/fsm_main.c",line 154,column 2,is_stmt,isa 0
     781 0000007a 6F1D          B         $C$L22,UNC            ; [CPU_] |154| 
     782                      ; branch occurs ; [] |154| 
     783 0000007b       $C$L20:    
     784                      .dwpsn  file "../Source/App/fsm_main.c",line 156,column 4,is_stmt,isa 0
     785 0000007b 5CAD          MOVZ      AR4,SP                ; [CPU_] |156| 
     786 0000007c 5DAD          MOVZ      AR5,SP                ; [CPU_] |156| 
     787 0000007d DCE4          SUBB      XAR4,#100             ; [CPU_U] |156| 
     788 0000007e DDE6          SUBB      XAR5,#102             ; [CPU_U] |156| 
     789 0000007f 5CA4          MOVZ      AR4,AR4               ; [CPU_] |156| 
     790 00000080 5DA5          MOVZ      AR5,AR5               ; [CPU_] |156| 
     791              $C$DW$85        .dwtag  DW_TAG_TI_branch
     792                      .dwattr $C$DW$85, DW_AT_low_pc(0x00)
     793                      .dwattr $C$DW$85, DW_AT_name("_extract_state_change_command")
     794                      .dwattr $C$DW$85, DW_AT_TI_call
     795 00000081 7640!         LCR       #_extract_state_change_command ; [CPU_] |156| 
         00000082 0000 
     796                      ; call occurs [#_extract_state_change_command] ; [] |156| 
     797 00000083 5200          CMPB      AL,#0                 ; [CPU_] |156| 
     798 00000084 ED19          BF        $C$L23,NEQ            ; [CPU_] |156| 
     799                      ; branchcc occurs ; [] |156| 
TMS320C2000 Assembler PC v6.4.2 Thu Dec 14 15:27:05 2017

Tools Copyright (c) 1996-2015 Texas Instruments Incorporated
fsm_main.asm                                                         PAGE   16

     800                      .dwpsn  file "../Source/App/fsm_main.c",line 157,column 5,is_stmt,isa 0
     801 00000085 92F2          MOV       AL,*+FP[6]            ; [CPU_] |157| 
     802              $C$DW$86        .dwtag  DW_TAG_TI_branch
     803                      .dwattr $C$DW$86, DW_AT_low_pc(0x00)
     804                      .dwattr $C$DW$86, DW_AT_name("_fsm_main_set_state")
     805                      .dwattr $C$DW$86, DW_AT_TI_call
     806 00000086 7640'         LCR       #_fsm_main_set_state  ; [CPU_] |157| 
         00000087 0009 
     807                      ; call occurs [#_fsm_main_set_state] ; [] |157| 
     808                      .dwpsn  file "../Source/App/fsm_main.c",line 159,column 4,is_stmt,isa 0
     809 00000088 6F15          B         $C$L23,UNC            ; [CPU_] |159| 
     810                      ; branch occurs ; [] |159| 
     811 00000089       $C$L21:    
     812                      .dwpsn  file "../Source/App/fsm_main.c",line 161,column 4,is_stmt,isa 0
     813 00000089 5CAD          MOVZ      AR4,SP                ; [CPU_] |161| 
     814 0000008a 5DAD          MOVZ      AR5,SP                ; [CPU_] |161| 
     815 0000008b DCE4          SUBB      XAR4,#100             ; [CPU_U] |161| 
     816 0000008c DDE7          SUBB      XAR5,#103             ; [CPU_U] |161| 
     817 0000008d 5CA4          MOVZ      AR4,AR4               ; [CPU_] |161| 
     818 0000008e 5DA5          MOVZ      AR5,AR5               ; [CPU_] |161| 
     819              $C$DW$87        .dwtag  DW_TAG_TI_branch
     820                      .dwattr $C$DW$87, DW_AT_low_pc(0x00)
     821                      .dwattr $C$DW$87, DW_AT_name("_extract_config_mode_command")
     822                      .dwattr $C$DW$87, DW_AT_TI_call
     823 0000008f 7640!         LCR       #_extract_config_mode_command ; [CPU_] |161| 
         00000090 0000 
     824                      ; call occurs [#_extract_config_mode_command] ; [] |161| 
     825 00000091 5200          CMPB      AL,#0                 ; [CPU_] |161| 
     826 00000092 ED0B          BF        $C$L23,NEQ            ; [CPU_] |161| 
     827                      ; branchcc occurs ; [] |161| 
     828                      .dwpsn  file "../Source/App/fsm_main.c",line 162,column 5,is_stmt,isa 0
     829 00000093 92EA          MOV       AL,*+FP[5]            ; [CPU_] |162| 
     830              $C$DW$88        .dwtag  DW_TAG_TI_branch
     831                      .dwattr $C$DW$88, DW_AT_low_pc(0x00)
     832                      .dwattr $C$DW$88, DW_AT_name("_execute_config_mode_cmd")
     833                      .dwattr $C$DW$88, DW_AT_TI_call
     834 00000094 7640!         LCR       #_execute_config_mode_cmd ; [CPU_] |162| 
         00000095 0000 
     835                      ; call occurs [#_execute_config_mode_cmd] ; [] |162| 
     836                      .dwpsn  file "../Source/App/fsm_main.c",line 164,column 4,is_stmt,isa 0
     837 00000096 6F07          B         $C$L23,UNC            ; [CPU_] |164| 
     838                      ; branch occurs ; [] |164| 
     839 00000097       $C$L22:    
     840                      .dwpsn  file "../Source/App/fsm_main.c",line 154,column 2,is_stmt,isa 0
     841 00000097 92FA          MOV       AL,*+FP[7]            ; [CPU_] |154| 
     842 00000098 5201          CMPB      AL,#1                 ; [CPU_] |154| 
     843 00000099 ECE2          BF        $C$L20,EQ             ; [CPU_] |154| 
     844                      ; branchcc occurs ; [] |154| 
     845 0000009a 5202          CMPB      AL,#2                 ; [CPU_] |154| 
     846 0000009b ECEE          BF        $C$L21,EQ             ; [CPU_] |154| 
     847                      ; branchcc occurs ; [] |154| 
     848 0000009c 6F01          B         $C$L23,UNC            ; [CPU_] |154| 
     849                      ; branch occurs ; [] |154| 
     850 0000009d       $C$L23:    
     851 0000009d FEE8          SUBB      SP,#104               ; [CPU_U] 
TMS320C2000 Assembler PC v6.4.2 Thu Dec 14 15:27:05 2017

Tools Copyright (c) 1996-2015 Texas Instruments Incorporated
fsm_main.asm                                                         PAGE   17

     852                      .dwcfi  cfa_offset, -4
     853 0000009e 86BE          MOVL      XAR2,*--SP            ; [CPU_] 
     854                      .dwcfi  cfa_offset, -2
     855                      .dwcfi  restore_reg, 9
     856              $C$DW$89        .dwtag  DW_TAG_TI_branch
     857                      .dwattr $C$DW$89, DW_AT_low_pc(0x00)
     858                      .dwattr $C$DW$89, DW_AT_TI_return
     859 0000009f 0006          LRETR     ; [CPU_] 
     860                      ; return occurs ; [] 
     861                      .dwattr $C$DW$77, DW_AT_TI_end_file("../Source/App/fsm_main.c")
     862                      .dwattr $C$DW$77, DW_AT_TI_end_line(0xa8)
     863                      .dwattr $C$DW$77, DW_AT_TI_end_column(0x01)
     864                      .dwendentry
     865                      .dwendtag $C$DW$77
     866              
     867 000000a0               .sect   ".text"
     868                      .clink
     869                      .global _fsm_cyclic_run
     870              
     871              $C$DW$90        .dwtag  DW_TAG_subprogram, DW_AT_name("fsm_cyclic_run")
     872                      .dwattr $C$DW$90, DW_AT_low_pc(_fsm_cyclic_run)
     873                      .dwattr $C$DW$90, DW_AT_high_pc(0x00)
     874                      .dwattr $C$DW$90, DW_AT_TI_symbol_name("_fsm_cyclic_run")
     875                      .dwattr $C$DW$90, DW_AT_external
     876                      .dwattr $C$DW$90, DW_AT_TI_begin_file("../Source/App/fsm_main.c")
     877                      .dwattr $C$DW$90, DW_AT_TI_begin_line(0xab)
     878                      .dwattr $C$DW$90, DW_AT_TI_begin_column(0x06)
     879                      .dwattr $C$DW$90, DW_AT_TI_max_frame_size(-112)
     880                      .dwpsn  file "../Source/App/fsm_main.c",line 171,column 26,is_stmt,address _fsm_cyclic_run,isa 0
     881              
     882                      .dwfde $C$DW$CIE, _fsm_cyclic_run
     883              
     884              ;***************************************************************
     885              ;* FNAME: _fsm_cyclic_run               FR SIZE: 110           *
     886              ;*                                                             *
     887              ;* FUNCTION ENVIRONMENT                                        *
     888              ;*                                                             *
     889              ;* FUNCTION PROPERTIES                                         *
     890              ;*                            2 Parameter, 106 Auto,  2 SOE     *
     891              ;***************************************************************
     892              
     893 000000a0       _fsm_cyclic_run:
     894                      .dwcfi  cfa_offset, -2
     895                      .dwcfi  save_reg_to_mem, 26, 0
     896 000000a0 AABD          MOVL      *SP++,XAR2            ; [CPU_] 
     897                      .dwcfi  save_reg_to_mem, 9, 2
     898                      .dwcfi  cfa_offset, -4
     899 000000a1 5AAD          MOVZ      AR2,SP                ; [CPU_] 
     900 000000a2 DA84          SUBB      FP,#4                 ; [CPU_U] 
     901 000000a3 FE6C          ADDB      SP,#108               ; [CPU_U] 
     902                      .dwcfi  cfa_offset, -112
     903              $C$DW$91        .dwtag  DW_TAG_variable, DW_AT_name("commandbuffer")
     904                      .dwattr $C$DW$91, DW_AT_TI_symbol_name("_commandbuffer")
     905                      .dwattr $C$DW$91, DW_AT_type(*$C$DW$T$328)
     906                      .dwattr $C$DW$91, DW_AT_location[DW_OP_breg20 -102]
TMS320C2000 Assembler PC v6.4.2 Thu Dec 14 15:27:05 2017

Tools Copyright (c) 1996-2015 Texas Instruments Incorporated
fsm_main.asm                                                         PAGE   18

     907              $C$DW$92        .dwtag  DW_TAG_variable, DW_AT_name("commandType")
     908                      .dwattr $C$DW$92, DW_AT_TI_symbol_name("_commandType")
     909                      .dwattr $C$DW$92, DW_AT_type(*$C$DW$T$285)
     910                      .dwattr $C$DW$92, DW_AT_location[DW_OP_breg20 -103]
     911              $C$DW$93        .dwtag  DW_TAG_variable, DW_AT_name("received_state")
     912                      .dwattr $C$DW$93, DW_AT_TI_symbol_name("_received_state")
     913                      .dwattr $C$DW$93, DW_AT_type(*$C$DW$T$291)
     914                      .dwattr $C$DW$93, DW_AT_location[DW_OP_breg20 -104]
     915              $C$DW$94        .dwtag  DW_TAG_variable, DW_AT_name("received_angle")
     916                      .dwattr $C$DW$94, DW_AT_TI_symbol_name("_received_angle")
     917                      .dwattr $C$DW$94, DW_AT_type(*$C$DW$T$16)
     918                      .dwattr $C$DW$94, DW_AT_location[DW_OP_breg20 -106]
     919              $C$DW$95        .dwtag  DW_TAG_variable, DW_AT_name("received_speed")
     920                      .dwattr $C$DW$95, DW_AT_TI_symbol_name("_received_speed")
     921                      .dwattr $C$DW$95, DW_AT_type(*$C$DW$T$16)
     922                      .dwattr $C$DW$95, DW_AT_location[DW_OP_breg20 -108]
     923                      .dwpsn  file "../Source/App/fsm_main.c",line 177,column 2,is_stmt,isa 0
     924 000000a4 9A3D          MOVB      AL,#61                ; [CPU_] |177| 
     925              $C$DW$96        .dwtag  DW_TAG_TI_branch
     926                      .dwattr $C$DW$96, DW_AT_low_pc(0x00)
     927                      .dwattr $C$DW$96, DW_AT_name("_GPIO_ReadPin")
     928                      .dwattr $C$DW$96, DW_AT_TI_call
     929 000000a5 7640!         LCR       #_GPIO_ReadPin        ; [CPU_] |177| 
         000000a6 0000 
     930                      ; call occurs [#_GPIO_ReadPin] ; [] |177| 
     931 000000a7 5200          CMPB      AL,#0                 ; [CPU_] |177| 
     932 000000a8 ED07          BF        $C$L24,NEQ            ; [CPU_] |177| 
     933                      ; branchcc occurs ; [] |177| 
     934                      .dwpsn  file "../Source/App/fsm_main.c",line 178,column 3,is_stmt,isa 0
     935 000000a9 761F-         MOVW      DP,#_connected        ; [CPU_U] 
         000000aa 0000 
     936 000000ab 2B01-         MOV       @_connected,#0        ; [CPU_] |178| 
     937                      .dwpsn  file "../Source/App/fsm_main.c",line 179,column 3,is_stmt,isa 0
     938 000000ac 9A00          MOVB      AL,#0                 ; [CPU_] |179| 
     939              $C$DW$97        .dwtag  DW_TAG_TI_branch
     940                      .dwattr $C$DW$97, DW_AT_low_pc(0x00)
     941                      .dwattr $C$DW$97, DW_AT_name("_fsm_main_set_state")
     942                      .dwattr $C$DW$97, DW_AT_TI_call
     943 000000ad 7640'         LCR       #_fsm_main_set_state  ; [CPU_] |179| 
         000000ae 0009 
     944                      ; call occurs [#_fsm_main_set_state] ; [] |179| 
     945 000000af       $C$L24:    
     946                      .dwpsn  file "../Source/App/fsm_main.c",line 182,column 2,is_stmt,isa 0
     947 000000af 761F!         MOVW      DP,#_motor1+43        ; [CPU_U] 
         000000b0 0000 
     948 000000b1 922B!         MOV       AL,@_motor1+43        ; [CPU_] |182| 
     949 000000b2 5201          CMPB      AL,#1                 ; [CPU_] |182| 
     950 000000b3 ED03          BF        $C$L25,NEQ            ; [CPU_] |182| 
     951                      ; branchcc occurs ; [] |182| 
     952                      .dwpsn  file "../Source/App/fsm_main.c",line 183,column 3,is_stmt,isa 0
     953 000000b4 56BF!         MOVB      @_motor1+44,#1,UNC    ; [CPU_] |183| 
         000000b5 012C 
     954 000000b6       $C$L25:    
     955                      .dwpsn  file "../Source/App/fsm_main.c",line 185,column 2,is_stmt,isa 0
     956 000000b6 761F!         MOVW      DP,#_motor2+43        ; [CPU_U] 
TMS320C2000 Assembler PC v6.4.2 Thu Dec 14 15:27:05 2017

Tools Copyright (c) 1996-2015 Texas Instruments Incorporated
fsm_main.asm                                                         PAGE   19

         000000b7 0000 
     957 000000b8 922B!         MOV       AL,@_motor2+43        ; [CPU_] |185| 
     958 000000b9 5201          CMPB      AL,#1                 ; [CPU_] |185| 
     959 000000ba ED03          BF        $C$L26,NEQ            ; [CPU_] |185| 
     960                      ; branchcc occurs ; [] |185| 
     961                      .dwpsn  file "../Source/App/fsm_main.c",line 186,column 3,is_stmt,isa 0
     962 000000bb 56BF!         MOVB      @_motor2+44,#1,UNC    ; [CPU_] |186| 
         000000bc 012C 
     963 000000bd       $C$L26:    
     964                      .dwpsn  file "../Source/App/fsm_main.c",line 189,column 2,is_stmt,isa 0
     965 000000bd 5CAD          MOVZ      AR4,SP                ; [CPU_] |189| 
     966 000000be DCE6          SUBB      XAR4,#102             ; [CPU_U] |189| 
     967 000000bf 5CA4          MOVZ      AR4,AR4               ; [CPU_] |189| 
     968              $C$DW$98        .dwtag  DW_TAG_TI_branch
     969                      .dwattr $C$DW$98, DW_AT_low_pc(0x00)
     970                      .dwattr $C$DW$98, DW_AT_name("_read_Command")
     971                      .dwattr $C$DW$98, DW_AT_TI_call
     972 000000c0 7640!         LCR       #_read_Command        ; [CPU_] |189| 
         000000c1 0000 
     973                      ; call occurs [#_read_Command] ; [] |189| 
     974 000000c2 D009          MOVL      XAR0,#9               ; [CPU_] |189| 
     975 000000c3 9692          MOV       *+FP[AR0],AL          ; [CPU_] |189| 
     976                      .dwpsn  file "../Source/App/fsm_main.c",line 190,column 2,is_stmt,isa 0
     977 000000c4 6F25          B         $C$L29,UNC            ; [CPU_] |190| 
     978                      ; branch occurs ; [] |190| 
     979 000000c5       $C$L27:    
     980                      .dwpsn  file "../Source/App/fsm_main.c",line 192,column 4,is_stmt,isa 0
     981 000000c5 5CAD          MOVZ      AR4,SP                ; [CPU_] |192| 
     982 000000c6 5DAD          MOVZ      AR5,SP                ; [CPU_] |192| 
     983 000000c7 DCE6          SUBB      XAR4,#102             ; [CPU_U] |192| 
     984 000000c8 DDE8          SUBB      XAR5,#104             ; [CPU_U] |192| 
     985 000000c9 5CA4          MOVZ      AR4,AR4               ; [CPU_] |192| 
     986 000000ca 5DA5          MOVZ      AR5,AR5               ; [CPU_] |192| 
     987              $C$DW$99        .dwtag  DW_TAG_TI_branch
     988                      .dwattr $C$DW$99, DW_AT_low_pc(0x00)
     989                      .dwattr $C$DW$99, DW_AT_name("_extract_state_change_command")
     990                      .dwattr $C$DW$99, DW_AT_TI_call
     991 000000cb 7640!         LCR       #_extract_state_change_command ; [CPU_] |192| 
         000000cc 0000 
     992                      ; call occurs [#_extract_state_change_command] ; [] |192| 
     993 000000cd 5200          CMPB      AL,#0                 ; [CPU_] |192| 
     994 000000ce ED22          BF        $C$L30,NEQ            ; [CPU_] |192| 
     995                      ; branchcc occurs ; [] |192| 
     996                      .dwpsn  file "../Source/App/fsm_main.c",line 193,column 5,is_stmt,isa 0
     997 000000cf D008          MOVL      XAR0,#8               ; [CPU_] |193| 
     998 000000d0 9292          MOV       AL,*+FP[AR0]          ; [CPU_] |193| 
     999              $C$DW$100       .dwtag  DW_TAG_TI_branch
    1000                      .dwattr $C$DW$100, DW_AT_low_pc(0x00)
    1001                      .dwattr $C$DW$100, DW_AT_name("_fsm_main_set_state")
    1002                      .dwattr $C$DW$100, DW_AT_TI_call
    1003 000000d1 7640'         LCR       #_fsm_main_set_state  ; [CPU_] |193| 
         000000d2 0009 
    1004                      ; call occurs [#_fsm_main_set_state] ; [] |193| 
    1005                      .dwpsn  file "../Source/App/fsm_main.c",line 195,column 4,is_stmt,isa 0
    1006 000000d3 6F1D          B         $C$L30,UNC            ; [CPU_] |195| 
TMS320C2000 Assembler PC v6.4.2 Thu Dec 14 15:27:05 2017

Tools Copyright (c) 1996-2015 Texas Instruments Incorporated
fsm_main.asm                                                         PAGE   20

    1007                      ; branch occurs ; [] |195| 
    1008 000000d4       $C$L28:    
    1009                      .dwpsn  file "../Source/App/fsm_main.c",line 197,column 4,is_stmt,isa 0
    1010 000000d4 5CAD          MOVZ      AR4,SP                ; [CPU_] |197| 
    1011 000000d5 5DAD          MOVZ      AR5,SP                ; [CPU_] |197| 
    1012 000000d6 DCEA          SUBB      XAR4,#106             ; [CPU_U] |197| 
    1013 000000d7 0EA4          MOVU      ACC,AR4               ; [CPU_] |197| 
    1014 000000d8 5CAD          MOVZ      AR4,SP                ; [CPU_] |197| 
    1015 000000d9 DDEC          SUBB      XAR5,#108             ; [CPU_U] |197| 
    1016 000000da 1E42          MOVL      *-SP[2],ACC           ; [CPU_] |197| 
    1017 000000db 5DA5          MOVZ      AR5,AR5               ; [CPU_] |197| 
    1018 000000dc DCE6          SUBB      XAR4,#102             ; [CPU_U] |197| 
    1019 000000dd 5CA4          MOVZ      AR4,AR4               ; [CPU_] |197| 
    1020              $C$DW$101       .dwtag  DW_TAG_TI_branch
    1021                      .dwattr $C$DW$101, DW_AT_low_pc(0x00)
    1022                      .dwattr $C$DW$101, DW_AT_name("_extract_drive_command")
    1023                      .dwattr $C$DW$101, DW_AT_TI_call
    1024 000000de 7640!         LCR       #_extract_drive_command ; [CPU_] |197| 
         000000df 0000 
    1025                      ; call occurs [#_extract_drive_command] ; [] |197| 
    1026 000000e0 5200          CMPB      AL,#0                 ; [CPU_] |197| 
    1027 000000e1 ED0F          BF        $C$L30,NEQ            ; [CPU_] |197| 
    1028                      ; branchcc occurs ; [] |197| 
    1029                      .dwpsn  file "../Source/App/fsm_main.c",line 198,column 5,is_stmt,isa 0
    1030 000000e2 06E2          MOVL      ACC,*+FP[4]           ; [CPU_] |198| 
    1031 000000e3 761F!         MOVW      DP,#_steeringContr    ; [CPU_U] 
         000000e4 0000 
    1032 000000e5 1E00!         MOVL      @_steeringContr,ACC   ; [CPU_] |198| 
    1033                      .dwpsn  file "../Source/App/fsm_main.c",line 199,column 5,is_stmt,isa 0
    1034 000000e6 06F2          MOVL      ACC,*+FP[6]           ; [CPU_] |199| 
    1035 000000e7 1E02!         MOVL      @_steeringContr+2,ACC ; [CPU_] |199| 
    1036                      .dwpsn  file "../Source/App/fsm_main.c",line 201,column 4,is_stmt,isa 0
    1037 000000e8 6F08          B         $C$L30,UNC            ; [CPU_] |201| 
    1038                      ; branch occurs ; [] |201| 
    1039 000000e9       $C$L29:    
    1040                      .dwpsn  file "../Source/App/fsm_main.c",line 190,column 2,is_stmt,isa 0
    1041 000000e9 D009          MOVL      XAR0,#9               ; [CPU_] |190| 
    1042 000000ea 9292          MOV       AL,*+FP[AR0]          ; [CPU_] |190| 
    1043 000000eb 5201          CMPB      AL,#1                 ; [CPU_] |190| 
    1044 000000ec ECD9          BF        $C$L27,EQ             ; [CPU_] |190| 
    1045                      ; branchcc occurs ; [] |190| 
    1046 000000ed 5203          CMPB      AL,#3                 ; [CPU_] |190| 
    1047 000000ee ECE6          BF        $C$L28,EQ             ; [CPU_] |190| 
    1048                      ; branchcc occurs ; [] |190| 
    1049 000000ef 6F01          B         $C$L30,UNC            ; [CPU_] |190| 
    1050                      ; branch occurs ; [] |190| 
    1051 000000f0       $C$L30:    
    1052 000000f0 FEEC          SUBB      SP,#108               ; [CPU_U] 
    1053                      .dwcfi  cfa_offset, -4
    1054 000000f1 86BE          MOVL      XAR2,*--SP            ; [CPU_] 
    1055                      .dwcfi  cfa_offset, -2
    1056                      .dwcfi  restore_reg, 9
    1057              $C$DW$102       .dwtag  DW_TAG_TI_branch
    1058                      .dwattr $C$DW$102, DW_AT_low_pc(0x00)
    1059                      .dwattr $C$DW$102, DW_AT_TI_return
TMS320C2000 Assembler PC v6.4.2 Thu Dec 14 15:27:05 2017

Tools Copyright (c) 1996-2015 Texas Instruments Incorporated
fsm_main.asm                                                         PAGE   21

    1060 000000f2 0006          LRETR     ; [CPU_] 
    1061                      ; return occurs ; [] 
    1062                      .dwattr $C$DW$90, DW_AT_TI_end_file("../Source/App/fsm_main.c")
    1063                      .dwattr $C$DW$90, DW_AT_TI_end_line(0xcd)
    1064                      .dwattr $C$DW$90, DW_AT_TI_end_column(0x01)
    1065                      .dwendentry
    1066                      .dwendtag $C$DW$90
    1067              
    1068 000000f3               .sect   ".text"
    1069                      .clink
    1070                      .global _fsm_cyclic_error
    1071              
    1072              $C$DW$103       .dwtag  DW_TAG_subprogram, DW_AT_name("fsm_cyclic_error")
    1073                      .dwattr $C$DW$103, DW_AT_low_pc(_fsm_cyclic_error)
    1074                      .dwattr $C$DW$103, DW_AT_high_pc(0x00)
    1075                      .dwattr $C$DW$103, DW_AT_TI_symbol_name("_fsm_cyclic_error")
    1076                      .dwattr $C$DW$103, DW_AT_external
    1077                      .dwattr $C$DW$103, DW_AT_TI_begin_file("../Source/App/fsm_main.c")
    1078                      .dwattr $C$DW$103, DW_AT_TI_begin_line(0xd0)
    1079                      .dwattr $C$DW$103, DW_AT_TI_begin_column(0x06)
    1080                      .dwattr $C$DW$103, DW_AT_TI_max_frame_size(-6)
    1081                      .dwpsn  file "../Source/App/fsm_main.c",line 208,column 29,is_stmt,address _fsm_cyclic_error,isa 0
    1082              
    1083                      .dwfde $C$DW$CIE, _fsm_cyclic_error
    1084              
    1085              ;***************************************************************
    1086              ;* FNAME: _fsm_cyclic_error             FR SIZE:   4           *
    1087              ;*                                                             *
    1088              ;* FUNCTION ENVIRONMENT                                        *
    1089              ;*                                                             *
    1090              ;* FUNCTION PROPERTIES                                         *
    1091              ;*                            0 Parameter,  4 Auto,  0 SOE     *
    1092              ;***************************************************************
    1093              
    1094 000000f3       _fsm_cyclic_error:
    1095                      .dwcfi  cfa_offset, -2
    1096                      .dwcfi  save_reg_to_mem, 26, 0
    1097 000000f3 FE04          ADDB      SP,#4                 ; [CPU_U] 
    1098                      .dwcfi  cfa_offset, -6
    1099              $C$DW$104       .dwtag  DW_TAG_variable, DW_AT_name("BLINK_COUNTER")
    1100                      .dwattr $C$DW$104, DW_AT_TI_symbol_name("_BLINK_COUNTER")
    1101                      .dwattr $C$DW$104, DW_AT_type(*$C$DW$T$327)
    1102                      .dwattr $C$DW$104, DW_AT_location[DW_OP_breg20 -2]
    1103              $C$DW$105       .dwtag  DW_TAG_variable, DW_AT_name("i")
    1104                      .dwattr $C$DW$105, DW_AT_TI_symbol_name("_i")
    1105                      .dwattr $C$DW$105, DW_AT_type(*$C$DW$T$326)
    1106                      .dwattr $C$DW$105, DW_AT_location[DW_OP_breg20 -4]
    1107                      .dwpsn  file "../Source/App/fsm_main.c",line 209,column 31,is_stmt,isa 0
    1108 000000f4 8F1E          MOVL      XAR4,#2000000         ; [CPU_U] |209| 
         000000f5 8480 
    1109 000000f6 A842          MOVL      *-SP[2],XAR4          ; [CPU_] |209| 
    1110                      .dwpsn  file "../Source/App/fsm_main.c",line 211,column 2,is_stmt,isa 0
    1111 000000f7 9A47          MOVB      AL,#71                ; [CPU_] |211| 
    1112              $C$DW$106       .dwtag  DW_TAG_TI_branch
    1113                      .dwattr $C$DW$106, DW_AT_low_pc(0x00)
TMS320C2000 Assembler PC v6.4.2 Thu Dec 14 15:27:05 2017

Tools Copyright (c) 1996-2015 Texas Instruments Incorporated
fsm_main.asm                                                         PAGE   22

    1114                      .dwattr $C$DW$106, DW_AT_name("_hal_led_on")
    1115                      .dwattr $C$DW$106, DW_AT_TI_call
    1116 000000f8 7640!         LCR       #_hal_led_on          ; [CPU_] |211| 
         000000f9 0000 
    1117                      ; call occurs [#_hal_led_on] ; [] |211| 
    1118                      .dwpsn  file "../Source/App/fsm_main.c",line 212,column 7,is_stmt,isa 0
    1119 000000fa 0200          MOVB      ACC,#0                ; [CPU_] |212| 
    1120 000000fb 1E44          MOVL      *-SP[4],ACC           ; [CPU_] |212| 
    1121                      .dwpsn  file "../Source/App/fsm_main.c",line 212,column 12,is_stmt,isa 0
    1122 000000fc 0642          MOVL      ACC,*-SP[2]           ; [CPU_] |212| 
    1123 000000fd 0F44          CMPL      ACC,*-SP[4]           ; [CPU_] |212| 
    1124 000000fe 56C9          BF        $C$L32,LOS            ; [CPU_] |212| 
         000000ff 000A 
    1125                      ; branchcc occurs ; [] |212| 
    1126 00000100       $C$L31:    
    1127                      .dwpsn  file "../Source/App/fsm_main.c",line 213,column 3,is_stmt,isa 0
    1128 00000100 7700   nop
    1129                      .dwpsn  file "../Source/App/fsm_main.c",line 212,column 29,is_stmt,isa 0
    1130 00000101 0201          MOVB      ACC,#1                ; [CPU_] |212| 
    1131 00000102 0744          ADDL      ACC,*-SP[4]           ; [CPU_] |212| 
    1132 00000103 1E44          MOVL      *-SP[4],ACC           ; [CPU_] |212| 
    1133                      .dwpsn  file "../Source/App/fsm_main.c",line 212,column 12,is_stmt,isa 0
    1134 00000104 0642          MOVL      ACC,*-SP[2]           ; [CPU_] |212| 
    1135 00000105 0F44          CMPL      ACC,*-SP[4]           ; [CPU_] |212| 
    1136 00000106 56C6          BF        $C$L31,HI             ; [CPU_] |212| 
         00000107 FFFA 
    1137                      ; branchcc occurs ; [] |212| 
    1138 00000108       $C$L32:    
    1139                      .dwpsn  file "../Source/App/fsm_main.c",line 215,column 2,is_stmt,isa 0
    1140 00000108 9A47          MOVB      AL,#71                ; [CPU_] |215| 
    1141 00000109 FF69          SPM       #0                    ; [CPU_] 
    1142              $C$DW$107       .dwtag  DW_TAG_TI_branch
    1143                      .dwattr $C$DW$107, DW_AT_low_pc(0x00)
    1144                      .dwattr $C$DW$107, DW_AT_name("_hal_led_off")
    1145                      .dwattr $C$DW$107, DW_AT_TI_call
    1146 0000010a 7640!         LCR       #_hal_led_off         ; [CPU_] |215| 
         0000010b 0000 
    1147                      ; call occurs [#_hal_led_off] ; [] |215| 
    1148                      .dwpsn  file "../Source/App/fsm_main.c",line 216,column 7,is_stmt,isa 0
    1149 0000010c 0200          MOVB      ACC,#0                ; [CPU_] |216| 
    1150 0000010d 1E44          MOVL      *-SP[4],ACC           ; [CPU_] |216| 
    1151                      .dwpsn  file "../Source/App/fsm_main.c",line 216,column 12,is_stmt,isa 0
    1152 0000010e 0642          MOVL      ACC,*-SP[2]           ; [CPU_] |216| 
    1153 0000010f 0F44          CMPL      ACC,*-SP[4]           ; [CPU_] |216| 
    1154 00000110 56C9          BF        $C$L34,LOS            ; [CPU_] |216| 
         00000111 000A 
    1155                      ; branchcc occurs ; [] |216| 
    1156 00000112       $C$L33:    
    1157                      .dwpsn  file "../Source/App/fsm_main.c",line 217,column 3,is_stmt,isa 0
    1158 00000112 7700   nop
    1159                      .dwpsn  file "../Source/App/fsm_main.c",line 216,column 29,is_stmt,isa 0
    1160 00000113 0201          MOVB      ACC,#1                ; [CPU_] |216| 
    1161 00000114 0744          ADDL      ACC,*-SP[4]           ; [CPU_] |216| 
    1162 00000115 1E44          MOVL      *-SP[4],ACC           ; [CPU_] |216| 
    1163                      .dwpsn  file "../Source/App/fsm_main.c",line 216,column 12,is_stmt,isa 0
TMS320C2000 Assembler PC v6.4.2 Thu Dec 14 15:27:05 2017

Tools Copyright (c) 1996-2015 Texas Instruments Incorporated
fsm_main.asm                                                         PAGE   23

    1164 00000116 0642          MOVL      ACC,*-SP[2]           ; [CPU_] |216| 
    1165 00000117 0F44          CMPL      ACC,*-SP[4]           ; [CPU_] |216| 
    1166 00000118 56C6          BF        $C$L33,HI             ; [CPU_] |216| 
         00000119 FFFA 
    1167                      ; branchcc occurs ; [] |216| 
    1168                      .dwpsn  file "../Source/App/fsm_main.c",line 219,column 1,is_stmt,isa 0
    1169 0000011a       $C$L34:    
    1170 0000011a FE84          SUBB      SP,#4                 ; [CPU_U] 
    1171                      .dwcfi  cfa_offset, -2
    1172 0000011b FF69          SPM       #0                    ; [CPU_] 
    1173              $C$DW$108       .dwtag  DW_TAG_TI_branch
    1174                      .dwattr $C$DW$108, DW_AT_low_pc(0x00)
    1175                      .dwattr $C$DW$108, DW_AT_TI_return
    1176 0000011c 0006          LRETR     ; [CPU_] 
    1177                      ; return occurs ; [] 
    1178                      .dwattr $C$DW$103, DW_AT_TI_end_file("../Source/App/fsm_main.c")
    1179                      .dwattr $C$DW$103, DW_AT_TI_end_line(0xdb)
    1180                      .dwattr $C$DW$103, DW_AT_TI_end_column(0x01)
    1181                      .dwendentry
    1182                      .dwendtag $C$DW$103
    1183              
    1184 0000011d               .sect   ".text"
    1185                      .clink
    1186                      .global _fsm_init_stop
    1187              
    1188              $C$DW$109       .dwtag  DW_TAG_subprogram, DW_AT_name("fsm_init_stop")
    1189                      .dwattr $C$DW$109, DW_AT_low_pc(_fsm_init_stop)
    1190                      .dwattr $C$DW$109, DW_AT_high_pc(0x00)
    1191                      .dwattr $C$DW$109, DW_AT_TI_symbol_name("_fsm_init_stop")
    1192                      .dwattr $C$DW$109, DW_AT_external
    1193                      .dwattr $C$DW$109, DW_AT_TI_begin_file("../Source/App/fsm_main.c")
    1194                      .dwattr $C$DW$109, DW_AT_TI_begin_line(0xde)
    1195                      .dwattr $C$DW$109, DW_AT_TI_begin_column(0x06)
    1196                      .dwattr $C$DW$109, DW_AT_TI_max_frame_size(-4)
    1197                      .dwpsn  file "../Source/App/fsm_main.c",line 222,column 25,is_stmt,address _fsm_init_stop,isa 0
    1198              
    1199                      .dwfde $C$DW$CIE, _fsm_init_stop
    1200              
    1201              ;***************************************************************
    1202              ;* FNAME: _fsm_init_stop                FR SIZE:   2           *
    1203              ;*                                                             *
    1204              ;* FUNCTION ENVIRONMENT                                        *
    1205              ;*                                                             *
    1206              ;* FUNCTION PROPERTIES                                         *
    1207              ;*                            0 Parameter,  2 Auto,  0 SOE     *
    1208              ;***************************************************************
    1209              
    1210 0000011d       _fsm_init_stop:
    1211                      .dwcfi  cfa_offset, -2
    1212                      .dwcfi  save_reg_to_mem, 26, 0
    1213 0000011d FE02          ADDB      SP,#2                 ; [CPU_U] 
    1214                      .dwcfi  cfa_offset, -4
    1215              $C$DW$110       .dwtag  DW_TAG_variable, DW_AT_name("i")
    1216                      .dwattr $C$DW$110, DW_AT_TI_symbol_name("_i")
    1217                      .dwattr $C$DW$110, DW_AT_type(*$C$DW$T$326)
TMS320C2000 Assembler PC v6.4.2 Thu Dec 14 15:27:05 2017

Tools Copyright (c) 1996-2015 Texas Instruments Incorporated
fsm_main.asm                                                         PAGE   24

    1218                      .dwattr $C$DW$110, DW_AT_location[DW_OP_breg20 -2]
    1219                      .dwpsn  file "../Source/App/fsm_main.c",line 224,column 2,is_stmt,isa 0
    1220 0000011e 761F!         MOVW      DP,#_motor1+45        ; [CPU_U] 
         0000011f 0000 
    1221 00000120 2B2D!         MOV       @_motor1+45,#0        ; [CPU_] |224| 
    1222                      .dwpsn  file "../Source/App/fsm_main.c",line 225,column 2,is_stmt,isa 0
    1223 00000121 761F!         MOVW      DP,#_motor2+45        ; [CPU_U] 
         00000122 0000 
    1224 00000123 2B2D!         MOV       @_motor2+45,#0        ; [CPU_] |225| 
    1225                      .dwpsn  file "../Source/App/fsm_main.c",line 227,column 2,is_stmt,isa 0
    1226 00000124 761F-         MOVW      DP,#_connected        ; [CPU_U] 
         00000125 0000 
    1227 00000126 9201-         MOV       AL,@_connected        ; [CPU_] |227| 
    1228 00000127 EC43          BF        $C$L41,EQ             ; [CPU_] |227| 
    1229                      ; branchcc occurs ; [] |227| 
    1230                      .dwpsn  file "../Source/App/fsm_main.c",line 228,column 3,is_stmt,isa 0
    1231 00000128 9A00          MOVB      AL,#0                 ; [CPU_] |228| 
    1232              $C$DW$111       .dwtag  DW_TAG_TI_branch
    1233                      .dwattr $C$DW$111, DW_AT_low_pc(0x00)
    1234                      .dwattr $C$DW$111, DW_AT_name("_send_state_change_command")
    1235                      .dwattr $C$DW$111, DW_AT_TI_call
    1236 00000129 7640!         LCR       #_send_state_change_command ; [CPU_] |228| 
         0000012a 0000 
    1237                      ; call occurs [#_send_state_change_command] ; [] |228| 
    1238                      .dwpsn  file "../Source/App/fsm_main.c",line 229,column 8,is_stmt,isa 0
    1239 0000012b 0200          MOVB      ACC,#0                ; [CPU_] |229| 
    1240 0000012c 1E42          MOVL      *-SP[2],ACC           ; [CPU_] |229| 
    1241                      .dwpsn  file "../Source/App/fsm_main.c",line 229,column 12,is_stmt,isa 0
    1242 0000012d 0204          MOVB      ACC,#4                ; [CPU_] |229| 
    1243 0000012e 0F42          CMPL      ACC,*-SP[2]           ; [CPU_] |229| 
    1244 0000012f 56C9          BF        $C$L36,LOS            ; [CPU_] |229| 
         00000130 000D 
    1245                      ; branchcc occurs ; [] |229| 
    1246 00000131       $C$L35:    
    1247                      .dwpsn  file "../Source/App/fsm_main.c",line 230,column 4,is_stmt,isa 0
    1248              $C$DW$112       .dwtag  DW_TAG_TI_branch
    1249                      .dwattr $C$DW$112, DW_AT_low_pc(0x00)
    1250                      .dwattr $C$DW$112, DW_AT_name("_enter_command_mode")
    1251                      .dwattr $C$DW$112, DW_AT_TI_call
    1252 00000131 7640!         LCR       #_enter_command_mode  ; [CPU_] |230| 
         00000132 0000 
    1253                      ; call occurs [#_enter_command_mode] ; [] |230| 
    1254 00000133 5200          CMPB      AL,#0                 ; [CPU_] |230| 
    1255 00000134 EC08          BF        $C$L36,EQ             ; [CPU_] |230| 
    1256                      ; branchcc occurs ; [] |230| 
    1257                      .dwpsn  file "../Source/App/fsm_main.c",line 231,column 5,is_stmt,isa 0
    1258                      .dwpsn  file "../Source/App/fsm_main.c",line 229,column 16,is_stmt,isa 0
    1259 00000135 0201          MOVB      ACC,#1                ; [CPU_] |229| 
    1260 00000136 0742          ADDL      ACC,*-SP[2]           ; [CPU_] |229| 
    1261 00000137 1E42          MOVL      *-SP[2],ACC           ; [CPU_] |229| 
    1262                      .dwpsn  file "../Source/App/fsm_main.c",line 229,column 12,is_stmt,isa 0
    1263 00000138 0204          MOVB      ACC,#4                ; [CPU_] |229| 
    1264 00000139 0F42          CMPL      ACC,*-SP[2]           ; [CPU_] |229| 
    1265 0000013a 56C6          BF        $C$L35,HI             ; [CPU_] |229| 
         0000013b FFF7 
TMS320C2000 Assembler PC v6.4.2 Thu Dec 14 15:27:05 2017

Tools Copyright (c) 1996-2015 Texas Instruments Incorporated
fsm_main.asm                                                         PAGE   25

    1266                      ; branchcc occurs ; [] |229| 
    1267 0000013c       $C$L36:    
    1268                      .dwpsn  file "../Source/App/fsm_main.c",line 235,column 8,is_stmt,isa 0
    1269 0000013c 0200          MOVB      ACC,#0                ; [CPU_] |235| 
    1270 0000013d 1E42          MOVL      *-SP[2],ACC           ; [CPU_] |235| 
    1271                      .dwpsn  file "../Source/App/fsm_main.c",line 235,column 12,is_stmt,isa 0
    1272 0000013e 761F+         MOVW      DP,#_TIMEOVERFLOW     ; [CPU_U] 
         0000013f 0000 
    1273 00000140 0600+         MOVL      ACC,@_TIMEOVERFLOW    ; [CPU_] |235| 
    1274 00000141 0F42          CMPL      ACC,*-SP[2]           ; [CPU_] |235| 
    1275 00000142 56C9          BF        $C$L39,LOS            ; [CPU_] |235| 
         00000143 0013 
    1276                      ; branchcc occurs ; [] |235| 
    1277 00000144       $C$L37:    
    1278                      .dwpsn  file "../Source/App/fsm_main.c",line 236,column 4,is_stmt,isa 0
    1279              $C$DW$113       .dwtag  DW_TAG_TI_branch
    1280                      .dwattr $C$DW$113, DW_AT_low_pc(0x00)
    1281                      .dwattr $C$DW$113, DW_AT_name("_close_tcp_connection")
    1282                      .dwattr $C$DW$113, DW_AT_TI_call
    1283 00000144 7640!         LCR       #_close_tcp_connection ; [CPU_] |236| 
         00000145 0000 
    1284                      ; call occurs [#_close_tcp_connection] ; [] |236| 
    1285 00000146 5200          CMPB      AL,#0                 ; [CPU_] |236| 
    1286 00000147 ED05          BF        $C$L38,NEQ            ; [CPU_] |236| 
    1287                      ; branchcc occurs ; [] |236| 
    1288                      .dwpsn  file "../Source/App/fsm_main.c",line 237,column 5,is_stmt,isa 0
    1289 00000148 761F-         MOVW      DP,#_connected        ; [CPU_U] 
         00000149 0000 
    1290 0000014a 2B01-         MOV       @_connected,#0        ; [CPU_] |237| 
    1291                      .dwpsn  file "../Source/App/fsm_main.c",line 238,column 5,is_stmt,isa 0
    1292 0000014b 6F0A          B         $C$L39,UNC            ; [CPU_] |238| 
    1293                      ; branch occurs ; [] |238| 
    1294 0000014c       $C$L38:    
    1295                      .dwpsn  file "../Source/App/fsm_main.c",line 235,column 27,is_stmt,isa 0
    1296 0000014c 0201          MOVB      ACC,#1                ; [CPU_] |235| 
    1297 0000014d 0742          ADDL      ACC,*-SP[2]           ; [CPU_] |235| 
    1298 0000014e 1E42          MOVL      *-SP[2],ACC           ; [CPU_] |235| 
    1299                      .dwpsn  file "../Source/App/fsm_main.c",line 235,column 12,is_stmt,isa 0
    1300 0000014f 761F+         MOVW      DP,#_TIMEOVERFLOW     ; [CPU_U] 
         00000150 0000 
    1301 00000151 0600+         MOVL      ACC,@_TIMEOVERFLOW    ; [CPU_] |235| 
    1302 00000152 0F42          CMPL      ACC,*-SP[2]           ; [CPU_] |235| 
    1303 00000153 56C6          BF        $C$L37,HI             ; [CPU_] |235| 
         00000154 FFF1 
    1304                      ; branchcc occurs ; [] |235| 
    1305 00000155       $C$L39:    
    1306                      .dwpsn  file "../Source/App/fsm_main.c",line 242,column 8,is_stmt,isa 0
    1307 00000155 0200          MOVB      ACC,#0                ; [CPU_] |242| 
    1308 00000156 1E42          MOVL      *-SP[2],ACC           ; [CPU_] |242| 
    1309                      .dwpsn  file "../Source/App/fsm_main.c",line 242,column 12,is_stmt,isa 0
    1310 00000157 761F+         MOVW      DP,#_TIMEOVERFLOW     ; [CPU_U] 
         00000158 0000 
    1311 00000159 0600+         MOVL      ACC,@_TIMEOVERFLOW    ; [CPU_] |242| 
    1312 0000015a 0F42          CMPL      ACC,*-SP[2]           ; [CPU_] |242| 
    1313 0000015b 56C9          BF        $C$L41,LOS            ; [CPU_] |242| 
TMS320C2000 Assembler PC v6.4.2 Thu Dec 14 15:27:05 2017

Tools Copyright (c) 1996-2015 Texas Instruments Incorporated
fsm_main.asm                                                         PAGE   26

         0000015c 000F 
    1314                      ; branchcc occurs ; [] |242| 
    1315 0000015d       $C$L40:    
    1316                      .dwpsn  file "../Source/App/fsm_main.c",line 243,column 4,is_stmt,isa 0
    1317              $C$DW$114       .dwtag  DW_TAG_TI_branch
    1318                      .dwattr $C$DW$114, DW_AT_low_pc(0x00)
    1319                      .dwattr $C$DW$114, DW_AT_name("_exit_command_mode")
    1320                      .dwattr $C$DW$114, DW_AT_TI_call
    1321 0000015d 7640!         LCR       #_exit_command_mode   ; [CPU_] |243| 
         0000015e 0000 
    1322                      ; call occurs [#_exit_command_mode] ; [] |243| 
    1323 0000015f 5200          CMPB      AL,#0                 ; [CPU_] |243| 
    1324 00000160 EC0A          BF        $C$L41,EQ             ; [CPU_] |243| 
    1325                      ; branchcc occurs ; [] |243| 
    1326                      .dwpsn  file "../Source/App/fsm_main.c",line 244,column 5,is_stmt,isa 0
    1327                      .dwpsn  file "../Source/App/fsm_main.c",line 242,column 27,is_stmt,isa 0
    1328 00000161 0201          MOVB      ACC,#1                ; [CPU_] |242| 
    1329 00000162 0742          ADDL      ACC,*-SP[2]           ; [CPU_] |242| 
    1330 00000163 1E42          MOVL      *-SP[2],ACC           ; [CPU_] |242| 
    1331                      .dwpsn  file "../Source/App/fsm_main.c",line 242,column 12,is_stmt,isa 0
    1332 00000164 761F+         MOVW      DP,#_TIMEOVERFLOW     ; [CPU_U] 
         00000165 0000 
    1333 00000166 0600+         MOVL      ACC,@_TIMEOVERFLOW    ; [CPU_] |242| 
    1334 00000167 0F42          CMPL      ACC,*-SP[2]           ; [CPU_] |242| 
    1335 00000168 56C6          BF        $C$L40,HI             ; [CPU_] |242| 
         00000169 FFF5 
    1336                      ; branchcc occurs ; [] |242| 
    1337 0000016a       $C$L41:    
    1338                      .dwpsn  file "../Source/App/fsm_main.c",line 249,column 2,is_stmt,isa 0
    1339              $C$DW$115       .dwtag  DW_TAG_TI_branch
    1340                      .dwattr $C$DW$115, DW_AT_low_pc(0x00)
    1341                      .dwattr $C$DW$115, DW_AT_name("_hal_led_off_all")
    1342                      .dwattr $C$DW$115, DW_AT_TI_call
    1343 0000016a 7640!         LCR       #_hal_led_off_all     ; [CPU_] |249| 
         0000016b 0000 
    1344                      ; call occurs [#_hal_led_off_all] ; [] |249| 
    1345                      .dwpsn  file "../Source/App/fsm_main.c",line 250,column 2,is_stmt,isa 0
    1346 0000016c 9A47          MOVB      AL,#71                ; [CPU_] |250| 
    1347              $C$DW$116       .dwtag  DW_TAG_TI_branch
    1348                      .dwattr $C$DW$116, DW_AT_low_pc(0x00)
    1349                      .dwattr $C$DW$116, DW_AT_name("_hal_led_on")
    1350                      .dwattr $C$DW$116, DW_AT_TI_call
    1351 0000016d 7640!         LCR       #_hal_led_on          ; [CPU_] |250| 
         0000016e 0000 
    1352                      ; call occurs [#_hal_led_on] ; [] |250| 
    1353                      .dwpsn  file "../Source/App/fsm_main.c",line 251,column 2,is_stmt,isa 0
    1354 0000016f 761F-         MOVW      DP,#_state            ; [CPU_U] 
         00000170 0000 
    1355 00000171 2B00-         MOV       @_state,#0            ; [CPU_] |251| 
    1356                      .dwpsn  file "../Source/App/fsm_main.c",line 252,column 1,is_stmt,isa 0
    1357 00000172 FE82          SUBB      SP,#2                 ; [CPU_U] 
    1358                      .dwcfi  cfa_offset, -2
    1359              $C$DW$117       .dwtag  DW_TAG_TI_branch
    1360                      .dwattr $C$DW$117, DW_AT_low_pc(0x00)
    1361                      .dwattr $C$DW$117, DW_AT_TI_return
TMS320C2000 Assembler PC v6.4.2 Thu Dec 14 15:27:05 2017

Tools Copyright (c) 1996-2015 Texas Instruments Incorporated
fsm_main.asm                                                         PAGE   27

    1362 00000173 0006          LRETR     ; [CPU_] 
    1363                      ; return occurs ; [] 
    1364                      .dwattr $C$DW$109, DW_AT_TI_end_file("../Source/App/fsm_main.c")
    1365                      .dwattr $C$DW$109, DW_AT_TI_end_line(0xfc)
    1366                      .dwattr $C$DW$109, DW_AT_TI_end_column(0x01)
    1367                      .dwendentry
    1368                      .dwendtag $C$DW$109
    1369              
    1370 00000174               .sect   ".text"
    1371                      .clink
    1372                      .global _fsm_init_config
    1373              
    1374              $C$DW$118       .dwtag  DW_TAG_subprogram, DW_AT_name("fsm_init_config")
    1375                      .dwattr $C$DW$118, DW_AT_low_pc(_fsm_init_config)
    1376                      .dwattr $C$DW$118, DW_AT_high_pc(0x00)
    1377                      .dwattr $C$DW$118, DW_AT_TI_symbol_name("_fsm_init_config")
    1378                      .dwattr $C$DW$118, DW_AT_external
    1379                      .dwattr $C$DW$118, DW_AT_TI_begin_file("../Source/App/fsm_main.c")
    1380                      .dwattr $C$DW$118, DW_AT_TI_begin_line(0xff)
    1381                      .dwattr $C$DW$118, DW_AT_TI_begin_column(0x06)
    1382                      .dwattr $C$DW$118, DW_AT_TI_max_frame_size(-2)
    1383                      .dwpsn  file "../Source/App/fsm_main.c",line 255,column 27,is_stmt,address _fsm_init_config,isa 0
    1384              
    1385                      .dwfde $C$DW$CIE, _fsm_init_config
    1386              
    1387              ;***************************************************************
    1388              ;* FNAME: _fsm_init_config              FR SIZE:   0           *
    1389              ;*                                                             *
    1390              ;* FUNCTION ENVIRONMENT                                        *
    1391              ;*                                                             *
    1392              ;* FUNCTION PROPERTIES                                         *
    1393              ;*                            0 Parameter,  0 Auto,  0 SOE     *
    1394              ;***************************************************************
    1395              
    1396 00000174       _fsm_init_config:
    1397                      .dwcfi  cfa_offset, -2
    1398                      .dwcfi  save_reg_to_mem, 26, 0
    1399                      .dwpsn  file "../Source/App/fsm_main.c",line 256,column 2,is_stmt,isa 0
    1400 00000174 761F!         MOVW      DP,#_motor1+45        ; [CPU_U] 
         00000175 0000 
    1401 00000176 2B2D!         MOV       @_motor1+45,#0        ; [CPU_] |256| 
    1402                      .dwpsn  file "../Source/App/fsm_main.c",line 257,column 2,is_stmt,isa 0
    1403 00000177 761F!         MOVW      DP,#_motor2+45        ; [CPU_U] 
         00000178 0000 
    1404 00000179 2B2D!         MOV       @_motor2+45,#0        ; [CPU_] |257| 
    1405                      .dwpsn  file "../Source/App/fsm_main.c",line 258,column 2,is_stmt,isa 0
    1406 0000017a 9A01          MOVB      AL,#1                 ; [CPU_] |258| 
    1407              $C$DW$119       .dwtag  DW_TAG_TI_branch
    1408                      .dwattr $C$DW$119, DW_AT_low_pc(0x00)
    1409                      .dwattr $C$DW$119, DW_AT_name("_send_state_change_command")
    1410                      .dwattr $C$DW$119, DW_AT_TI_call
    1411 0000017b 7640!         LCR       #_send_state_change_command ; [CPU_] |258| 
         0000017c 0000 
    1412                      ; call occurs [#_send_state_change_command] ; [] |258| 
    1413                      .dwpsn  file "../Source/App/fsm_main.c",line 259,column 2,is_stmt,isa 0
TMS320C2000 Assembler PC v6.4.2 Thu Dec 14 15:27:05 2017

Tools Copyright (c) 1996-2015 Texas Instruments Incorporated
fsm_main.asm                                                         PAGE   28

    1414              $C$DW$120       .dwtag  DW_TAG_TI_branch
    1415                      .dwattr $C$DW$120, DW_AT_low_pc(0x00)
    1416                      .dwattr $C$DW$120, DW_AT_name("_hal_led_on_all")
    1417                      .dwattr $C$DW$120, DW_AT_TI_call
    1418 0000017d 7640!         LCR       #_hal_led_on_all      ; [CPU_] |259| 
         0000017e 0000 
    1419                      ; call occurs [#_hal_led_on_all] ; [] |259| 
    1420                      .dwpsn  file "../Source/App/fsm_main.c",line 260,column 2,is_stmt,isa 0
    1421 0000017f 761F-         MOVW      DP,#_state            ; [CPU_U] 
         00000180 0000 
    1422 00000181 56BF-         MOVB      @_state,#1,UNC        ; [CPU_] |260| 
         00000182 0100 
    1423                      .dwpsn  file "../Source/App/fsm_main.c",line 261,column 1,is_stmt,isa 0
    1424              $C$DW$121       .dwtag  DW_TAG_TI_branch
    1425                      .dwattr $C$DW$121, DW_AT_low_pc(0x00)
    1426                      .dwattr $C$DW$121, DW_AT_TI_return
    1427 00000183 0006          LRETR     ; [CPU_] 
    1428                      ; return occurs ; [] 
    1429                      .dwattr $C$DW$118, DW_AT_TI_end_file("../Source/App/fsm_main.c")
    1430                      .dwattr $C$DW$118, DW_AT_TI_end_line(0x105)
    1431                      .dwattr $C$DW$118, DW_AT_TI_end_column(0x01)
    1432                      .dwendentry
    1433                      .dwendtag $C$DW$118
    1434              
    1435 00000184               .sect   ".text"
    1436                      .clink
    1437                      .global _fsm_init_run
    1438              
    1439              $C$DW$122       .dwtag  DW_TAG_subprogram, DW_AT_name("fsm_init_run")
    1440                      .dwattr $C$DW$122, DW_AT_low_pc(_fsm_init_run)
    1441                      .dwattr $C$DW$122, DW_AT_high_pc(0x00)
    1442                      .dwattr $C$DW$122, DW_AT_TI_symbol_name("_fsm_init_run")
    1443                      .dwattr $C$DW$122, DW_AT_external
    1444                      .dwattr $C$DW$122, DW_AT_TI_begin_file("../Source/App/fsm_main.c")
    1445                      .dwattr $C$DW$122, DW_AT_TI_begin_line(0x108)
    1446                      .dwattr $C$DW$122, DW_AT_TI_begin_column(0x06)
    1447                      .dwattr $C$DW$122, DW_AT_TI_max_frame_size(-2)
    1448                      .dwpsn  file "../Source/App/fsm_main.c",line 264,column 24,is_stmt,address _fsm_init_run,isa 0
    1449              
    1450                      .dwfde $C$DW$CIE, _fsm_init_run
    1451              
    1452              ;***************************************************************
    1453              ;* FNAME: _fsm_init_run                 FR SIZE:   0           *
    1454              ;*                                                             *
    1455              ;* FUNCTION ENVIRONMENT                                        *
    1456              ;*                                                             *
    1457              ;* FUNCTION PROPERTIES                                         *
    1458              ;*                            0 Parameter,  0 Auto,  0 SOE     *
    1459              ;***************************************************************
    1460              
    1461 00000184       _fsm_init_run:
    1462                      .dwcfi  cfa_offset, -2
    1463                      .dwcfi  save_reg_to_mem, 26, 0
    1464                      .dwpsn  file "../Source/App/fsm_main.c",line 265,column 2,is_stmt,isa 0
    1465 00000184 761F!         MOVW      DP,#_motor1+274       ; [CPU_U] 
TMS320C2000 Assembler PC v6.4.2 Thu Dec 14 15:27:05 2017

Tools Copyright (c) 1996-2015 Texas Instruments Incorporated
fsm_main.asm                                                         PAGE   29

         00000185 0004 
    1466 00000186 8F00!         MOVL      XAR4,#_steeringContr  ; [CPU_U] |265| 
         00000187 0000 
    1467 00000188 0612!         MOVL      ACC,@_motor1+274      ; [CPU_] |265| 
    1468              $C$DW$123       .dwtag  DW_TAG_TI_branch
    1469                      .dwattr $C$DW$123, DW_AT_low_pc(0x00)
    1470                      .dwattr $C$DW$123, DW_AT_name("_init_steering_control")
    1471                      .dwattr $C$DW$123, DW_AT_TI_call
    1472 00000189 7640!         LCR       #_init_steering_control ; [CPU_] |265| 
         0000018a 0000 
    1473                      ; call occurs [#_init_steering_control] ; [] |265| 
    1474                      .dwpsn  file "../Source/App/fsm_main.c",line 266,column 2,is_stmt,isa 0
    1475 0000018b 761F!         MOVW      DP,#_motor1+45        ; [CPU_U] 
         0000018c 0000 
    1476 0000018d 56BF!         MOVB      @_motor1+45,#1,UNC    ; [CPU_] |266| 
         0000018e 012D 
    1477                      .dwpsn  file "../Source/App/fsm_main.c",line 267,column 2,is_stmt,isa 0
    1478 0000018f 761F!         MOVW      DP,#_motor2+45        ; [CPU_U] 
         00000190 0000 
    1479 00000191 56BF!         MOVB      @_motor2+45,#1,UNC    ; [CPU_] |267| 
         00000192 012D 
    1480                      .dwpsn  file "../Source/App/fsm_main.c",line 268,column 2,is_stmt,isa 0
    1481 00000193 761F!         MOVW      DP,#_steeringContr    ; [CPU_U] 
         00000194 0000 
    1482 00000195 E590          ZERO      R0H                   ; [CPU_] |268| 
    1483 00000196 E203!         MOV32     @_steeringContr,R0H   ; [CPU_] |268| 
         00000197 0000 
    1484                      .dwpsn  file "../Source/App/fsm_main.c",line 269,column 2,is_stmt,isa 0
    1485 00000198 9A02          MOVB      AL,#2                 ; [CPU_] |269| 
    1486              $C$DW$124       .dwtag  DW_TAG_TI_branch
    1487                      .dwattr $C$DW$124, DW_AT_low_pc(0x00)
    1488                      .dwattr $C$DW$124, DW_AT_name("_send_state_change_command")
    1489                      .dwattr $C$DW$124, DW_AT_TI_call
    1490 00000199 7640!         LCR       #_send_state_change_command ; [CPU_] |269| 
         0000019a 0000 
    1491                      ; call occurs [#_send_state_change_command] ; [] |269| 
    1492                      .dwpsn  file "../Source/App/fsm_main.c",line 270,column 2,is_stmt,isa 0
    1493              $C$DW$125       .dwtag  DW_TAG_TI_branch
    1494                      .dwattr $C$DW$125, DW_AT_low_pc(0x00)
    1495                      .dwattr $C$DW$125, DW_AT_name("_hal_led_off_all")
    1496                      .dwattr $C$DW$125, DW_AT_TI_call
    1497 0000019b 7640!         LCR       #_hal_led_off_all     ; [CPU_] |270| 
         0000019c 0000 
    1498                      ; call occurs [#_hal_led_off_all] ; [] |270| 
    1499                      .dwpsn  file "../Source/App/fsm_main.c",line 271,column 2,is_stmt,isa 0
    1500 0000019d 9A40          MOVB      AL,#64                ; [CPU_] |271| 
    1501              $C$DW$126       .dwtag  DW_TAG_TI_branch
    1502                      .dwattr $C$DW$126, DW_AT_low_pc(0x00)
    1503                      .dwattr $C$DW$126, DW_AT_name("_hal_led_on")
    1504                      .dwattr $C$DW$126, DW_AT_TI_call
    1505 0000019e 7640!         LCR       #_hal_led_on          ; [CPU_] |271| 
         0000019f 0000 
    1506                      ; call occurs [#_hal_led_on] ; [] |271| 
    1507                      .dwpsn  file "../Source/App/fsm_main.c",line 272,column 2,is_stmt,isa 0
    1508 000001a0 761F-         MOVW      DP,#_state            ; [CPU_U] 
TMS320C2000 Assembler PC v6.4.2 Thu Dec 14 15:27:05 2017

Tools Copyright (c) 1996-2015 Texas Instruments Incorporated
fsm_main.asm                                                         PAGE   30

         000001a1 0000 
    1509 000001a2 56BF-         MOVB      @_state,#2,UNC        ; [CPU_] |272| 
         000001a3 0200 
    1510                      .dwpsn  file "../Source/App/fsm_main.c",line 273,column 1,is_stmt,isa 0
    1511              $C$DW$127       .dwtag  DW_TAG_TI_branch
    1512                      .dwattr $C$DW$127, DW_AT_low_pc(0x00)
    1513                      .dwattr $C$DW$127, DW_AT_TI_return
    1514 000001a4 0006          LRETR     ; [CPU_] 
    1515                      ; return occurs ; [] 
    1516                      .dwattr $C$DW$122, DW_AT_TI_end_file("../Source/App/fsm_main.c")
    1517                      .dwattr $C$DW$122, DW_AT_TI_end_line(0x111)
    1518                      .dwattr $C$DW$122, DW_AT_TI_end_column(0x01)
    1519                      .dwendentry
    1520                      .dwendtag $C$DW$122
    1521              
    1522 000001a5               .sect   ".text"
    1523                      .clink
    1524                      .global _fsm_init_error
    1525              
    1526              $C$DW$128       .dwtag  DW_TAG_subprogram, DW_AT_name("fsm_init_error")
    1527                      .dwattr $C$DW$128, DW_AT_low_pc(_fsm_init_error)
    1528                      .dwattr $C$DW$128, DW_AT_high_pc(0x00)
    1529                      .dwattr $C$DW$128, DW_AT_TI_symbol_name("_fsm_init_error")
    1530                      .dwattr $C$DW$128, DW_AT_external
    1531                      .dwattr $C$DW$128, DW_AT_TI_begin_file("../Source/App/fsm_main.c")
    1532                      .dwattr $C$DW$128, DW_AT_TI_begin_line(0x114)
    1533                      .dwattr $C$DW$128, DW_AT_TI_begin_column(0x06)
    1534                      .dwattr $C$DW$128, DW_AT_TI_max_frame_size(-4)
    1535                      .dwpsn  file "../Source/App/fsm_main.c",line 276,column 27,is_stmt,address _fsm_init_error,isa 0
    1536              
    1537                      .dwfde $C$DW$CIE, _fsm_init_error
    1538              
    1539              ;***************************************************************
    1540              ;* FNAME: _fsm_init_error               FR SIZE:   2           *
    1541              ;*                                                             *
    1542              ;* FUNCTION ENVIRONMENT                                        *
    1543              ;*                                                             *
    1544              ;* FUNCTION PROPERTIES                                         *
    1545              ;*                            0 Parameter,  2 Auto,  0 SOE     *
    1546              ;***************************************************************
    1547              
    1548 000001a5       _fsm_init_error:
    1549                      .dwcfi  cfa_offset, -2
    1550                      .dwcfi  save_reg_to_mem, 26, 0
    1551 000001a5 FE02          ADDB      SP,#2                 ; [CPU_U] 
    1552                      .dwcfi  cfa_offset, -4
    1553              $C$DW$129       .dwtag  DW_TAG_variable, DW_AT_name("i")
    1554                      .dwattr $C$DW$129, DW_AT_TI_symbol_name("_i")
    1555                      .dwattr $C$DW$129, DW_AT_type(*$C$DW$T$326)
    1556                      .dwattr $C$DW$129, DW_AT_location[DW_OP_breg20 -2]
    1557                      .dwpsn  file "../Source/App/fsm_main.c",line 278,column 2,is_stmt,isa 0
    1558 000001a6 761F!         MOVW      DP,#_motor1+45        ; [CPU_U] 
         000001a7 0000 
    1559 000001a8 2B2D!         MOV       @_motor1+45,#0        ; [CPU_] |278| 
    1560                      .dwpsn  file "../Source/App/fsm_main.c",line 279,column 2,is_stmt,isa 0
TMS320C2000 Assembler PC v6.4.2 Thu Dec 14 15:27:05 2017

Tools Copyright (c) 1996-2015 Texas Instruments Incorporated
fsm_main.asm                                                         PAGE   31

    1561 000001a9 761F!         MOVW      DP,#_motor2+45        ; [CPU_U] 
         000001aa 0000 
    1562 000001ab 2B2D!         MOV       @_motor2+45,#0        ; [CPU_] |279| 
    1563                      .dwpsn  file "../Source/App/fsm_main.c",line 281,column 2,is_stmt,isa 0
    1564 000001ac 761F-         MOVW      DP,#_connected        ; [CPU_U] 
         000001ad 0000 
    1565 000001ae 9201-         MOV       AL,@_connected        ; [CPU_] |281| 
    1566 000001af EC43          BF        $C$L48,EQ             ; [CPU_] |281| 
    1567                      ; branchcc occurs ; [] |281| 
    1568                      .dwpsn  file "../Source/App/fsm_main.c",line 282,column 3,is_stmt,isa 0
    1569 000001b0 9A00          MOVB      AL,#0                 ; [CPU_] |282| 
    1570              $C$DW$130       .dwtag  DW_TAG_TI_branch
    1571                      .dwattr $C$DW$130, DW_AT_low_pc(0x00)
    1572                      .dwattr $C$DW$130, DW_AT_name("_send_state_change_command")
    1573                      .dwattr $C$DW$130, DW_AT_TI_call
    1574 000001b1 7640!         LCR       #_send_state_change_command ; [CPU_] |282| 
         000001b2 0000 
    1575                      ; call occurs [#_send_state_change_command] ; [] |282| 
    1576                      .dwpsn  file "../Source/App/fsm_main.c",line 283,column 8,is_stmt,isa 0
    1577 000001b3 0200          MOVB      ACC,#0                ; [CPU_] |283| 
    1578 000001b4 1E42          MOVL      *-SP[2],ACC           ; [CPU_] |283| 
    1579                      .dwpsn  file "../Source/App/fsm_main.c",line 283,column 12,is_stmt,isa 0
    1580 000001b5 0204          MOVB      ACC,#4                ; [CPU_] |283| 
    1581 000001b6 0F42          CMPL      ACC,*-SP[2]           ; [CPU_] |283| 
    1582 000001b7 56C9          BF        $C$L43,LOS            ; [CPU_] |283| 
         000001b8 000D 
    1583                      ; branchcc occurs ; [] |283| 
    1584 000001b9       $C$L42:    
    1585                      .dwpsn  file "../Source/App/fsm_main.c",line 284,column 4,is_stmt,isa 0
    1586              $C$DW$131       .dwtag  DW_TAG_TI_branch
    1587                      .dwattr $C$DW$131, DW_AT_low_pc(0x00)
    1588                      .dwattr $C$DW$131, DW_AT_name("_enter_command_mode")
    1589                      .dwattr $C$DW$131, DW_AT_TI_call
    1590 000001b9 7640!         LCR       #_enter_command_mode  ; [CPU_] |284| 
         000001ba 0000 
    1591                      ; call occurs [#_enter_command_mode] ; [] |284| 
    1592 000001bb 5200          CMPB      AL,#0                 ; [CPU_] |284| 
    1593 000001bc EC08          BF        $C$L43,EQ             ; [CPU_] |284| 
    1594                      ; branchcc occurs ; [] |284| 
    1595                      .dwpsn  file "../Source/App/fsm_main.c",line 285,column 5,is_stmt,isa 0
    1596                      .dwpsn  file "../Source/App/fsm_main.c",line 283,column 16,is_stmt,isa 0
    1597 000001bd 0201          MOVB      ACC,#1                ; [CPU_] |283| 
    1598 000001be 0742          ADDL      ACC,*-SP[2]           ; [CPU_] |283| 
    1599 000001bf 1E42          MOVL      *-SP[2],ACC           ; [CPU_] |283| 
    1600                      .dwpsn  file "../Source/App/fsm_main.c",line 283,column 12,is_stmt,isa 0
    1601 000001c0 0204          MOVB      ACC,#4                ; [CPU_] |283| 
    1602 000001c1 0F42          CMPL      ACC,*-SP[2]           ; [CPU_] |283| 
    1603 000001c2 56C6          BF        $C$L42,HI             ; [CPU_] |283| 
         000001c3 FFF7 
    1604                      ; branchcc occurs ; [] |283| 
    1605 000001c4       $C$L43:    
    1606                      .dwpsn  file "../Source/App/fsm_main.c",line 289,column 8,is_stmt,isa 0
    1607 000001c4 0200          MOVB      ACC,#0                ; [CPU_] |289| 
    1608 000001c5 1E42          MOVL      *-SP[2],ACC           ; [CPU_] |289| 
    1609                      .dwpsn  file "../Source/App/fsm_main.c",line 289,column 12,is_stmt,isa 0
TMS320C2000 Assembler PC v6.4.2 Thu Dec 14 15:27:05 2017

Tools Copyright (c) 1996-2015 Texas Instruments Incorporated
fsm_main.asm                                                         PAGE   32

    1610 000001c6 761F+         MOVW      DP,#_TIMEOVERFLOW     ; [CPU_U] 
         000001c7 0000 
    1611 000001c8 0600+         MOVL      ACC,@_TIMEOVERFLOW    ; [CPU_] |289| 
    1612 000001c9 0F42          CMPL      ACC,*-SP[2]           ; [CPU_] |289| 
    1613 000001ca 56C9          BF        $C$L46,LOS            ; [CPU_] |289| 
         000001cb 0013 
    1614                      ; branchcc occurs ; [] |289| 
    1615 000001cc       $C$L44:    
    1616                      .dwpsn  file "../Source/App/fsm_main.c",line 290,column 4,is_stmt,isa 0
    1617              $C$DW$132       .dwtag  DW_TAG_TI_branch
    1618                      .dwattr $C$DW$132, DW_AT_low_pc(0x00)
    1619                      .dwattr $C$DW$132, DW_AT_name("_close_tcp_connection")
    1620                      .dwattr $C$DW$132, DW_AT_TI_call
    1621 000001cc 7640!         LCR       #_close_tcp_connection ; [CPU_] |290| 
         000001cd 0000 
    1622                      ; call occurs [#_close_tcp_connection] ; [] |290| 
    1623 000001ce 5200          CMPB      AL,#0                 ; [CPU_] |290| 
    1624 000001cf ED05          BF        $C$L45,NEQ            ; [CPU_] |290| 
    1625                      ; branchcc occurs ; [] |290| 
    1626                      .dwpsn  file "../Source/App/fsm_main.c",line 291,column 5,is_stmt,isa 0
    1627 000001d0 761F-         MOVW      DP,#_connected        ; [CPU_U] 
         000001d1 0000 
    1628 000001d2 2B01-         MOV       @_connected,#0        ; [CPU_] |291| 
    1629                      .dwpsn  file "../Source/App/fsm_main.c",line 292,column 5,is_stmt,isa 0
    1630 000001d3 6F0A          B         $C$L46,UNC            ; [CPU_] |292| 
    1631                      ; branch occurs ; [] |292| 
    1632 000001d4       $C$L45:    
    1633                      .dwpsn  file "../Source/App/fsm_main.c",line 289,column 27,is_stmt,isa 0
    1634 000001d4 0201          MOVB      ACC,#1                ; [CPU_] |289| 
    1635 000001d5 0742          ADDL      ACC,*-SP[2]           ; [CPU_] |289| 
    1636 000001d6 1E42          MOVL      *-SP[2],ACC           ; [CPU_] |289| 
    1637                      .dwpsn  file "../Source/App/fsm_main.c",line 289,column 12,is_stmt,isa 0
    1638 000001d7 761F+         MOVW      DP,#_TIMEOVERFLOW     ; [CPU_U] 
         000001d8 0000 
    1639 000001d9 0600+         MOVL      ACC,@_TIMEOVERFLOW    ; [CPU_] |289| 
    1640 000001da 0F42          CMPL      ACC,*-SP[2]           ; [CPU_] |289| 
    1641 000001db 56C6          BF        $C$L44,HI             ; [CPU_] |289| 
         000001dc FFF1 
    1642                      ; branchcc occurs ; [] |289| 
    1643 000001dd       $C$L46:    
    1644                      .dwpsn  file "../Source/App/fsm_main.c",line 296,column 8,is_stmt,isa 0
    1645 000001dd 0200          MOVB      ACC,#0                ; [CPU_] |296| 
    1646 000001de 1E42          MOVL      *-SP[2],ACC           ; [CPU_] |296| 
    1647                      .dwpsn  file "../Source/App/fsm_main.c",line 296,column 12,is_stmt,isa 0
    1648 000001df 761F+         MOVW      DP,#_TIMEOVERFLOW     ; [CPU_U] 
         000001e0 0000 
    1649 000001e1 0600+         MOVL      ACC,@_TIMEOVERFLOW    ; [CPU_] |296| 
    1650 000001e2 0F42          CMPL      ACC,*-SP[2]           ; [CPU_] |296| 
    1651 000001e3 56C9          BF        $C$L48,LOS            ; [CPU_] |296| 
         000001e4 000F 
    1652                      ; branchcc occurs ; [] |296| 
    1653 000001e5       $C$L47:    
    1654                      .dwpsn  file "../Source/App/fsm_main.c",line 297,column 4,is_stmt,isa 0
    1655              $C$DW$133       .dwtag  DW_TAG_TI_branch
    1656                      .dwattr $C$DW$133, DW_AT_low_pc(0x00)
TMS320C2000 Assembler PC v6.4.2 Thu Dec 14 15:27:05 2017

Tools Copyright (c) 1996-2015 Texas Instruments Incorporated
fsm_main.asm                                                         PAGE   33

    1657                      .dwattr $C$DW$133, DW_AT_name("_exit_command_mode")
    1658                      .dwattr $C$DW$133, DW_AT_TI_call
    1659 000001e5 7640!         LCR       #_exit_command_mode   ; [CPU_] |297| 
         000001e6 0000 
    1660                      ; call occurs [#_exit_command_mode] ; [] |297| 
    1661 000001e7 5200          CMPB      AL,#0                 ; [CPU_] |297| 
    1662 000001e8 EC0A          BF        $C$L48,EQ             ; [CPU_] |297| 
    1663                      ; branchcc occurs ; [] |297| 
    1664                      .dwpsn  file "../Source/App/fsm_main.c",line 298,column 5,is_stmt,isa 0
    1665                      .dwpsn  file "../Source/App/fsm_main.c",line 296,column 27,is_stmt,isa 0
    1666 000001e9 0201          MOVB      ACC,#1                ; [CPU_] |296| 
    1667 000001ea 0742          ADDL      ACC,*-SP[2]           ; [CPU_] |296| 
    1668 000001eb 1E42          MOVL      *-SP[2],ACC           ; [CPU_] |296| 
    1669                      .dwpsn  file "../Source/App/fsm_main.c",line 296,column 12,is_stmt,isa 0
    1670 000001ec 761F+         MOVW      DP,#_TIMEOVERFLOW     ; [CPU_U] 
         000001ed 0000 
    1671 000001ee 0600+         MOVL      ACC,@_TIMEOVERFLOW    ; [CPU_] |296| 
    1672 000001ef 0F42          CMPL      ACC,*-SP[2]           ; [CPU_] |296| 
    1673 000001f0 56C6          BF        $C$L47,HI             ; [CPU_] |296| 
         000001f1 FFF5 
    1674                      ; branchcc occurs ; [] |296| 
    1675 000001f2       $C$L48:    
    1676                      .dwpsn  file "../Source/App/fsm_main.c",line 303,column 2,is_stmt,isa 0
    1677              $C$DW$134       .dwtag  DW_TAG_TI_branch
    1678                      .dwattr $C$DW$134, DW_AT_low_pc(0x00)
    1679                      .dwattr $C$DW$134, DW_AT_name("_hal_led_off_all")
    1680                      .dwattr $C$DW$134, DW_AT_TI_call
    1681 000001f2 7640!         LCR       #_hal_led_off_all     ; [CPU_] |303| 
         000001f3 0000 
    1682                      ; call occurs [#_hal_led_off_all] ; [] |303| 
    1683                      .dwpsn  file "../Source/App/fsm_main.c",line 304,column 2,is_stmt,isa 0
    1684 000001f4 761F-         MOVW      DP,#_state            ; [CPU_U] 
         000001f5 0000 
    1685 000001f6 56BF-         MOVB      @_state,#3,UNC        ; [CPU_] |304| 
         000001f7 0300 
    1686                      .dwpsn  file "../Source/App/fsm_main.c",line 305,column 1,is_stmt,isa 0
    1687 000001f8 FE82          SUBB      SP,#2                 ; [CPU_U] 
    1688                      .dwcfi  cfa_offset, -2
    1689              $C$DW$135       .dwtag  DW_TAG_TI_branch
    1690                      .dwattr $C$DW$135, DW_AT_low_pc(0x00)
    1691                      .dwattr $C$DW$135, DW_AT_TI_return
    1692 000001f9 0006          LRETR     ; [CPU_] 
    1693                      ; return occurs ; [] 
    1694                      .dwattr $C$DW$128, DW_AT_TI_end_file("../Source/App/fsm_main.c")
    1695                      .dwattr $C$DW$128, DW_AT_TI_end_line(0x131)
    1696                      .dwattr $C$DW$128, DW_AT_TI_end_column(0x01)
    1697                      .dwendentry
    1698                      .dwendtag $C$DW$128
    1699              
    1700 000001fa               .sect   ".text"
    1701                      .clink
    1702                      .global _fsm_exit_stop
    1703              
    1704              $C$DW$136       .dwtag  DW_TAG_subprogram, DW_AT_name("fsm_exit_stop")
    1705                      .dwattr $C$DW$136, DW_AT_low_pc(_fsm_exit_stop)
TMS320C2000 Assembler PC v6.4.2 Thu Dec 14 15:27:05 2017

Tools Copyright (c) 1996-2015 Texas Instruments Incorporated
fsm_main.asm                                                         PAGE   34

    1706                      .dwattr $C$DW$136, DW_AT_high_pc(0x00)
    1707                      .dwattr $C$DW$136, DW_AT_TI_symbol_name("_fsm_exit_stop")
    1708                      .dwattr $C$DW$136, DW_AT_external
    1709                      .dwattr $C$DW$136, DW_AT_TI_begin_file("../Source/App/fsm_main.c")
    1710                      .dwattr $C$DW$136, DW_AT_TI_begin_line(0x134)
    1711                      .dwattr $C$DW$136, DW_AT_TI_begin_column(0x06)
    1712                      .dwattr $C$DW$136, DW_AT_TI_max_frame_size(-4)
    1713                      .dwpsn  file "../Source/App/fsm_main.c",line 308,column 25,is_stmt,address _fsm_exit_stop,isa 0
    1714              
    1715                      .dwfde $C$DW$CIE, _fsm_exit_stop
    1716              
    1717              ;***************************************************************
    1718              ;* FNAME: _fsm_exit_stop                FR SIZE:   2           *
    1719              ;*                                                             *
    1720              ;* FUNCTION ENVIRONMENT                                        *
    1721              ;*                                                             *
    1722              ;* FUNCTION PROPERTIES                                         *
    1723              ;*                            0 Parameter,  2 Auto,  0 SOE     *
    1724              ;***************************************************************
    1725              
    1726 000001fa       _fsm_exit_stop:
    1727                      .dwcfi  cfa_offset, -2
    1728                      .dwcfi  save_reg_to_mem, 26, 0
    1729 000001fa FE02          ADDB      SP,#2                 ; [CPU_U] 
    1730                      .dwcfi  cfa_offset, -4
    1731              $C$DW$137       .dwtag  DW_TAG_variable, DW_AT_name("i")
    1732                      .dwattr $C$DW$137, DW_AT_TI_symbol_name("_i")
    1733                      .dwattr $C$DW$137, DW_AT_type(*$C$DW$T$326)
    1734                      .dwattr $C$DW$137, DW_AT_location[DW_OP_breg20 -2]
    1735                      .dwpsn  file "../Source/App/fsm_main.c",line 310,column 7,is_stmt,isa 0
    1736 000001fb 0200          MOVB      ACC,#0                ; [CPU_] |310| 
    1737 000001fc 1E42          MOVL      *-SP[2],ACC           ; [CPU_] |310| 
    1738                      .dwpsn  file "../Source/App/fsm_main.c",line 310,column 11,is_stmt,isa 0
    1739 000001fd 0204          MOVB      ACC,#4                ; [CPU_] |310| 
    1740 000001fe 0F42          CMPL      ACC,*-SP[2]           ; [CPU_] |310| 
    1741 000001ff 56C9          BF        $C$L50,LOS            ; [CPU_] |310| 
         00000200 000D 
    1742                      ; branchcc occurs ; [] |310| 
    1743 00000201       $C$L49:    
    1744                      .dwpsn  file "../Source/App/fsm_main.c",line 311,column 3,is_stmt,isa 0
    1745              $C$DW$138       .dwtag  DW_TAG_TI_branch
    1746                      .dwattr $C$DW$138, DW_AT_low_pc(0x00)
    1747                      .dwattr $C$DW$138, DW_AT_name("_enter_command_mode")
    1748                      .dwattr $C$DW$138, DW_AT_TI_call
    1749 00000201 7640!         LCR       #_enter_command_mode  ; [CPU_] |311| 
         00000202 0000 
    1750                      ; call occurs [#_enter_command_mode] ; [] |311| 
    1751 00000203 5200          CMPB      AL,#0                 ; [CPU_] |311| 
    1752 00000204 EC08          BF        $C$L50,EQ             ; [CPU_] |311| 
    1753                      ; branchcc occurs ; [] |311| 
    1754                      .dwpsn  file "../Source/App/fsm_main.c",line 312,column 4,is_stmt,isa 0
    1755                      .dwpsn  file "../Source/App/fsm_main.c",line 310,column 15,is_stmt,isa 0
    1756 00000205 0201          MOVB      ACC,#1                ; [CPU_] |310| 
    1757 00000206 0742          ADDL      ACC,*-SP[2]           ; [CPU_] |310| 
    1758 00000207 1E42          MOVL      *-SP[2],ACC           ; [CPU_] |310| 
TMS320C2000 Assembler PC v6.4.2 Thu Dec 14 15:27:05 2017

Tools Copyright (c) 1996-2015 Texas Instruments Incorporated
fsm_main.asm                                                         PAGE   35

    1759                      .dwpsn  file "../Source/App/fsm_main.c",line 310,column 11,is_stmt,isa 0
    1760 00000208 0204          MOVB      ACC,#4                ; [CPU_] |310| 
    1761 00000209 0F42          CMPL      ACC,*-SP[2]           ; [CPU_] |310| 
    1762 0000020a 56C6          BF        $C$L49,HI             ; [CPU_] |310| 
         0000020b FFF7 
    1763                      ; branchcc occurs ; [] |310| 
    1764 0000020c       $C$L50:    
    1765                      .dwpsn  file "../Source/App/fsm_main.c",line 316,column 7,is_stmt,isa 0
    1766 0000020c 0200          MOVB      ACC,#0                ; [CPU_] |316| 
    1767 0000020d 1E42          MOVL      *-SP[2],ACC           ; [CPU_] |316| 
    1768                      .dwpsn  file "../Source/App/fsm_main.c",line 316,column 11,is_stmt,isa 0
    1769 0000020e 761F+         MOVW      DP,#_TIMEOVERFLOW     ; [CPU_U] 
         0000020f 0000 
    1770 00000210 0600+         MOVL      ACC,@_TIMEOVERFLOW    ; [CPU_] |316| 
    1771 00000211 0F42          CMPL      ACC,*-SP[2]           ; [CPU_] |316| 
    1772 00000212 56C9          BF        $C$L53,LOS            ; [CPU_] |316| 
         00000213 0014 
    1773                      ; branchcc occurs ; [] |316| 
    1774 00000214       $C$L51:    
    1775                      .dwpsn  file "../Source/App/fsm_main.c",line 317,column 3,is_stmt,isa 0
    1776              $C$DW$139       .dwtag  DW_TAG_TI_branch
    1777                      .dwattr $C$DW$139, DW_AT_low_pc(0x00)
    1778                      .dwattr $C$DW$139, DW_AT_name("_open_tcp_connection")
    1779                      .dwattr $C$DW$139, DW_AT_TI_call
    1780 00000214 7640!         LCR       #_open_tcp_connection ; [CPU_] |317| 
         00000215 0000 
    1781                      ; call occurs [#_open_tcp_connection] ; [] |317| 
    1782 00000216 5200          CMPB      AL,#0                 ; [CPU_] |317| 
    1783 00000217 ED06          BF        $C$L52,NEQ            ; [CPU_] |317| 
    1784                      ; branchcc occurs ; [] |317| 
    1785                      .dwpsn  file "../Source/App/fsm_main.c",line 318,column 4,is_stmt,isa 0
    1786 00000218 761F-         MOVW      DP,#_connected        ; [CPU_U] 
         00000219 0000 
    1787 0000021a 56BF-         MOVB      @_connected,#1,UNC    ; [CPU_] |318| 
         0000021b 0101 
    1788                      .dwpsn  file "../Source/App/fsm_main.c",line 319,column 4,is_stmt,isa 0
    1789 0000021c 6F0F          B         $C$L54,UNC            ; [CPU_] |319| 
    1790                      ; branch occurs ; [] |319| 
    1791 0000021d       $C$L52:    
    1792                      .dwpsn  file "../Source/App/fsm_main.c",line 316,column 26,is_stmt,isa 0
    1793 0000021d 0201          MOVB      ACC,#1                ; [CPU_] |316| 
    1794 0000021e 0742          ADDL      ACC,*-SP[2]           ; [CPU_] |316| 
    1795 0000021f 1E42          MOVL      *-SP[2],ACC           ; [CPU_] |316| 
    1796                      .dwpsn  file "../Source/App/fsm_main.c",line 316,column 11,is_stmt,isa 0
    1797 00000220 761F+         MOVW      DP,#_TIMEOVERFLOW     ; [CPU_U] 
         00000221 0000 
    1798 00000222 0600+         MOVL      ACC,@_TIMEOVERFLOW    ; [CPU_] |316| 
    1799 00000223 0F42          CMPL      ACC,*-SP[2]           ; [CPU_] |316| 
    1800 00000224 56C6          BF        $C$L51,HI             ; [CPU_] |316| 
         00000225 FFF0 
    1801                      ; branchcc occurs ; [] |316| 
    1802 00000226       $C$L53:    
    1803                      .dwpsn  file "../Source/App/fsm_main.c",line 322,column 2,is_stmt,isa 0
    1804              $C$DW$140       .dwtag  DW_TAG_TI_branch
    1805                      .dwattr $C$DW$140, DW_AT_low_pc(0x00)
TMS320C2000 Assembler PC v6.4.2 Thu Dec 14 15:27:05 2017

Tools Copyright (c) 1996-2015 Texas Instruments Incorporated
fsm_main.asm                                                         PAGE   36

    1806                      .dwattr $C$DW$140, DW_AT_name("_exit_command_mode")
    1807                      .dwattr $C$DW$140, DW_AT_TI_call
    1808 00000226 7640!         LCR       #_exit_command_mode   ; [CPU_] |322| 
         00000227 0000 
    1809                      ; call occurs [#_exit_command_mode] ; [] |322| 
    1810                      .dwpsn  file "../Source/App/fsm_main.c",line 323,column 2,is_stmt,isa 0
    1811 00000228 761F-         MOVW      DP,#_connected        ; [CPU_U] 
         00000229 0000 
    1812 0000022a 2B01-         MOV       @_connected,#0        ; [CPU_] |323| 
    1813                      .dwpsn  file "../Source/App/fsm_main.c",line 324,column 1,is_stmt,isa 0
    1814 0000022b       $C$L54:    
    1815 0000022b FE82          SUBB      SP,#2                 ; [CPU_U] 
    1816                      .dwcfi  cfa_offset, -2
    1817              $C$DW$141       .dwtag  DW_TAG_TI_branch
    1818                      .dwattr $C$DW$141, DW_AT_low_pc(0x00)
    1819                      .dwattr $C$DW$141, DW_AT_TI_return
    1820 0000022c 0006          LRETR     ; [CPU_] 
    1821                      ; return occurs ; [] 
    1822                      .dwattr $C$DW$136, DW_AT_TI_end_file("../Source/App/fsm_main.c")
    1823                      .dwattr $C$DW$136, DW_AT_TI_end_line(0x144)
    1824                      .dwattr $C$DW$136, DW_AT_TI_end_column(0x01)
    1825                      .dwendentry
    1826                      .dwendtag $C$DW$136
    1827              
    1828 0000022d               .sect   ".text"
    1829                      .clink
    1830                      .global _fsm_exit_config
    1831              
    1832              $C$DW$142       .dwtag  DW_TAG_subprogram, DW_AT_name("fsm_exit_config")
    1833                      .dwattr $C$DW$142, DW_AT_low_pc(_fsm_exit_config)
    1834                      .dwattr $C$DW$142, DW_AT_high_pc(0x00)
    1835                      .dwattr $C$DW$142, DW_AT_TI_symbol_name("_fsm_exit_config")
    1836                      .dwattr $C$DW$142, DW_AT_external
    1837                      .dwattr $C$DW$142, DW_AT_TI_begin_file("../Source/App/fsm_main.c")
    1838                      .dwattr $C$DW$142, DW_AT_TI_begin_line(0x147)
    1839                      .dwattr $C$DW$142, DW_AT_TI_begin_column(0x06)
    1840                      .dwattr $C$DW$142, DW_AT_TI_max_frame_size(-106)
    1841                      .dwpsn  file "../Source/App/fsm_main.c",line 327,column 27,is_stmt,address _fsm_exit_config,isa 0
    1842              
    1843                      .dwfde $C$DW$CIE, _fsm_exit_config
    1844              
    1845              ;***************************************************************
    1846              ;* FNAME: _fsm_exit_config              FR SIZE: 104           *
    1847              ;*                                                             *
    1848              ;* FUNCTION ENVIRONMENT                                        *
    1849              ;*                                                             *
    1850              ;* FUNCTION PROPERTIES                                         *
    1851              ;*                            0 Parameter, 101 Auto,  2 SOE     *
    1852              ;***************************************************************
    1853              
    1854 0000022d       _fsm_exit_config:
    1855                      .dwcfi  cfa_offset, -2
    1856                      .dwcfi  save_reg_to_mem, 26, 0
    1857 0000022d AABD          MOVL      *SP++,XAR2            ; [CPU_] 
    1858                      .dwcfi  save_reg_to_mem, 9, 2
TMS320C2000 Assembler PC v6.4.2 Thu Dec 14 15:27:05 2017

Tools Copyright (c) 1996-2015 Texas Instruments Incorporated
fsm_main.asm                                                         PAGE   37

    1859                      .dwcfi  cfa_offset, -4
    1860 0000022e 5AAD          MOVZ      AR2,SP                ; [CPU_] 
    1861 0000022f DA84          SUBB      FP,#4                 ; [CPU_U] 
    1862 00000230 FE66          ADDB      SP,#102               ; [CPU_U] 
    1863                      .dwcfi  cfa_offset, -106
    1864              $C$DW$143       .dwtag  DW_TAG_variable, DW_AT_name("buffer")
    1865                      .dwattr $C$DW$143, DW_AT_TI_symbol_name("_buffer")
    1866                      .dwattr $C$DW$143, DW_AT_type(*$C$DW$T$328)
    1867                      .dwattr $C$DW$143, DW_AT_location[DW_OP_breg20 -100]
    1868              $C$DW$144       .dwtag  DW_TAG_variable, DW_AT_name("length")
    1869                      .dwattr $C$DW$144, DW_AT_TI_symbol_name("_length")
    1870                      .dwattr $C$DW$144, DW_AT_type(*$C$DW$T$305)
    1871                      .dwattr $C$DW$144, DW_AT_location[DW_OP_breg20 -101]
    1872                      .dwpsn  file "../Source/App/fsm_main.c",line 332,column 2,is_stmt,isa 0
    1873 00000231 5CAD          MOVZ      AR4,SP                ; [CPU_] |332| 
    1874 00000232 5DAD          MOVZ      AR5,SP                ; [CPU_] |332| 
    1875 00000233 DCE4          SUBB      XAR4,#100             ; [CPU_U] |332| 
    1876 00000234 DDE5          SUBB      XAR5,#101             ; [CPU_U] |332| 
    1877 00000235 5CA4          MOVZ      AR4,AR4               ; [CPU_] |332| 
    1878 00000236 5DA5          MOVZ      AR5,AR5               ; [CPU_] |332| 
    1879              $C$DW$145       .dwtag  DW_TAG_TI_branch
    1880                      .dwattr $C$DW$145, DW_AT_low_pc(0x00)
    1881                      .dwattr $C$DW$145, DW_AT_name("_put_calibration_data_to_string")
    1882                      .dwattr $C$DW$145, DW_AT_TI_call
    1883 00000237 7640!         LCR       #_put_calibration_data_to_string ; [CPU_] |332| 
         00000238 0000 
    1884                      ; call occurs [#_put_calibration_data_to_string] ; [] |332| 
    1885                      .dwpsn  file "../Source/App/fsm_main.c",line 334,column 2,is_stmt,isa 0
    1886 00000239 5CAD          MOVZ      AR4,SP                ; [CPU_] |334| 
    1887 0000023a 92EA          MOV       AL,*+FP[5]            ; [CPU_] |334| 
    1888 0000023b DCE4          SUBB      XAR4,#100             ; [CPU_U] |334| 
    1889 0000023c 5CA4          MOVZ      AR4,AR4               ; [CPU_] |334| 
    1890              $C$DW$146       .dwtag  DW_TAG_TI_branch
    1891                      .dwattr $C$DW$146, DW_AT_low_pc(0x00)
    1892                      .dwattr $C$DW$146, DW_AT_name("_send_Command")
    1893                      .dwattr $C$DW$146, DW_AT_TI_call
    1894 0000023d 7640!         LCR       #_send_Command        ; [CPU_] |334| 
         0000023e 0000 
    1895                      ; call occurs [#_send_Command] ; [] |334| 
    1896                      .dwpsn  file "../Source/App/fsm_main.c",line 336,column 2,is_stmt,isa 0
    1897              $C$DW$147       .dwtag  DW_TAG_TI_branch
    1898                      .dwattr $C$DW$147, DW_AT_low_pc(0x00)
    1899                      .dwattr $C$DW$147, DW_AT_name("_check_if_changed")
    1900                      .dwattr $C$DW$147, DW_AT_TI_call
    1901 0000023f 7640!         LCR       #_check_if_changed    ; [CPU_] |336| 
         00000240 0000 
    1902                      ; call occurs [#_check_if_changed] ; [] |336| 
    1903 00000241 5200          CMPB      AL,#0                 ; [CPU_] |336| 
    1904 00000242 EC08          BF        $C$L55,EQ             ; [CPU_] |336| 
    1905                      ; branchcc occurs ; [] |336| 
    1906                      .dwpsn  file "../Source/App/fsm_main.c",line 339,column 3,is_stmt,isa 0
    1907              $C$DW$148       .dwtag  DW_TAG_TI_branch
    1908                      .dwattr $C$DW$148, DW_AT_low_pc(0x00)
    1909                      .dwattr $C$DW$148, DW_AT_name("_erase_bank_0_sector_h")
    1910                      .dwattr $C$DW$148, DW_AT_TI_call
TMS320C2000 Assembler PC v6.4.2 Thu Dec 14 15:27:05 2017

Tools Copyright (c) 1996-2015 Texas Instruments Incorporated
fsm_main.asm                                                         PAGE   38

    1911 00000243 7640!         LCR       #_erase_bank_0_sector_h ; [CPU_] |339| 
         00000244 0000 
    1912                      ; call occurs [#_erase_bank_0_sector_h] ; [] |339| 
    1913                      .dwpsn  file "../Source/App/fsm_main.c",line 340,column 3,is_stmt,isa 0
    1914 00000245 5CAD          MOVZ      AR4,SP                ; [CPU_] |340| 
    1915 00000246 DCE4          SUBB      XAR4,#100             ; [CPU_U] |340| 
    1916 00000247 5CA4          MOVZ      AR4,AR4               ; [CPU_] |340| 
    1917              $C$DW$149       .dwtag  DW_TAG_TI_branch
    1918                      .dwattr $C$DW$149, DW_AT_low_pc(0x00)
    1919                      .dwattr $C$DW$149, DW_AT_name("_write_Flash")
    1920                      .dwattr $C$DW$149, DW_AT_TI_call
    1921 00000248 7640!         LCR       #_write_Flash         ; [CPU_] |340| 
         00000249 0000 
    1922                      ; call occurs [#_write_Flash] ; [] |340| 
    1923                      .dwpsn  file "../Source/App/fsm_main.c",line 343,column 1,is_stmt,isa 0
    1924 0000024a       $C$L55:    
    1925 0000024a FEE6          SUBB      SP,#102               ; [CPU_U] 
    1926                      .dwcfi  cfa_offset, -4
    1927 0000024b 86BE          MOVL      XAR2,*--SP            ; [CPU_] 
    1928                      .dwcfi  cfa_offset, -2
    1929                      .dwcfi  restore_reg, 9
    1930              $C$DW$150       .dwtag  DW_TAG_TI_branch
    1931                      .dwattr $C$DW$150, DW_AT_low_pc(0x00)
    1932                      .dwattr $C$DW$150, DW_AT_TI_return
    1933 0000024c 0006          LRETR     ; [CPU_] 
    1934                      ; return occurs ; [] 
    1935                      .dwattr $C$DW$142, DW_AT_TI_end_file("../Source/App/fsm_main.c")
    1936                      .dwattr $C$DW$142, DW_AT_TI_end_line(0x157)
    1937                      .dwattr $C$DW$142, DW_AT_TI_end_column(0x01)
    1938                      .dwendentry
    1939                      .dwendtag $C$DW$142
    1940              
    1941 0000024d               .sect   ".text"
    1942                      .clink
    1943                      .global _fsm_exit_run
    1944              
    1945              $C$DW$151       .dwtag  DW_TAG_subprogram, DW_AT_name("fsm_exit_run")
    1946                      .dwattr $C$DW$151, DW_AT_low_pc(_fsm_exit_run)
    1947                      .dwattr $C$DW$151, DW_AT_high_pc(0x00)
    1948                      .dwattr $C$DW$151, DW_AT_TI_symbol_name("_fsm_exit_run")
    1949                      .dwattr $C$DW$151, DW_AT_external
    1950                      .dwattr $C$DW$151, DW_AT_TI_begin_file("../Source/App/fsm_main.c")
    1951                      .dwattr $C$DW$151, DW_AT_TI_begin_line(0x15a)
    1952                      .dwattr $C$DW$151, DW_AT_TI_begin_column(0x06)
    1953                      .dwattr $C$DW$151, DW_AT_TI_max_frame_size(-2)
    1954                      .dwpsn  file "../Source/App/fsm_main.c",line 346,column 24,is_stmt,address _fsm_exit_run,isa 0
    1955              
    1956                      .dwfde $C$DW$CIE, _fsm_exit_run
    1957              
    1958              ;***************************************************************
    1959              ;* FNAME: _fsm_exit_run                 FR SIZE:   0           *
    1960              ;*                                                             *
    1961              ;* FUNCTION ENVIRONMENT                                        *
    1962              ;*                                                             *
    1963              ;* FUNCTION PROPERTIES                                         *
TMS320C2000 Assembler PC v6.4.2 Thu Dec 14 15:27:05 2017

Tools Copyright (c) 1996-2015 Texas Instruments Incorporated
fsm_main.asm                                                         PAGE   39

    1964              ;*                            0 Parameter,  0 Auto,  0 SOE     *
    1965              ;***************************************************************
    1966              
    1967 0000024d       _fsm_exit_run:
    1968                      .dwcfi  cfa_offset, -2
    1969                      .dwcfi  save_reg_to_mem, 26, 0
    1970                      .dwpsn  file "../Source/App/fsm_main.c",line 347,column 2,is_stmt,isa 0
    1971 0000024d 761F!         MOVW      DP,#_motor1+45        ; [CPU_U] 
         0000024e 0000 
    1972 0000024f 2B2D!         MOV       @_motor1+45,#0        ; [CPU_] |347| 
    1973                      .dwpsn  file "../Source/App/fsm_main.c",line 348,column 2,is_stmt,isa 0
    1974 00000250 761F!         MOVW      DP,#_motor2+45        ; [CPU_U] 
         00000251 0000 
    1975 00000252 2B2D!         MOV       @_motor2+45,#0        ; [CPU_] |348| 
    1976                      .dwpsn  file "../Source/App/fsm_main.c",line 349,column 2,is_stmt,isa 0
    1977 00000253 E590          ZERO      R0H                   ; [CPU_] |349| 
    1978 00000254 761F!         MOVW      DP,#_steeringContr    ; [CPU_U] 
         00000255 0000 
    1979 00000256 E203!         MOV32     @_steeringContr,R0H   ; [CPU_] |349| 
         00000257 0000 
    1980                      .dwpsn  file "../Source/App/fsm_main.c",line 350,column 1,is_stmt,isa 0
    1981              $C$DW$152       .dwtag  DW_TAG_TI_branch
    1982                      .dwattr $C$DW$152, DW_AT_low_pc(0x00)
    1983                      .dwattr $C$DW$152, DW_AT_TI_return
    1984 00000258 0006          LRETR     ; [CPU_] 
    1985                      ; return occurs ; [] 
    1986                      .dwattr $C$DW$151, DW_AT_TI_end_file("../Source/App/fsm_main.c")
    1987                      .dwattr $C$DW$151, DW_AT_TI_end_line(0x15e)
    1988                      .dwattr $C$DW$151, DW_AT_TI_end_column(0x01)
    1989                      .dwendentry
    1990                      .dwendtag $C$DW$151
    1991              
    1992              ;**************************************************************
    1993              ;* UNDEFINED EXTERNAL REFERENCES                              *
    1994              ;**************************************************************
    1995                      .global _send_state_change_command
    1996                      .global _put_calibration_data_to_string
    1997                      .global _hal_led_on
    1998                      .global _init_steering_control
    1999                      .global _hal_led_off
    2000                      .global _hal_led_on_all
    2001                      .global _hal_led_off_all
    2002                      .global _send_Command
    2003                      .global _open_tcp_connection
    2004                      .global _exit_command_mode
    2005                      .global _read_Command
    2006                      .global _close_tcp_connection
    2007                      .global _hal_button_read
    2008                      .global _GPIO_ReadPin
    2009                      .global _enter_command_mode
    2010                      .global _execute_config_mode_cmd
    2011                      .global _write_Flash
    2012                      .global _erase_bank_0_sector_h
    2013                      .global _extract_config_mode_command
    2014                      .global _extract_state_change_command
TMS320C2000 Assembler PC v6.4.2 Thu Dec 14 15:27:05 2017

Tools Copyright (c) 1996-2015 Texas Instruments Incorporated
fsm_main.asm                                                         PAGE   40

    2015                      .global _extract_drive_command
    2016                      .global _check_if_changed
    2017                      .global _steeringContr
    2018                      .global _motor1
    2019                      .global _motor2
    2020              
    2021              ;***************************************************************
    2022              ;* TYPE INFORMATION                                            *
    2023              ;***************************************************************
    2024              
    2025              $C$DW$T$281     .dwtag  DW_TAG_enumeration_type
    2026                      .dwattr $C$DW$T$281, DW_AT_byte_size(0x01)
    2027              $C$DW$153       .dwtag  DW_TAG_enumerator, DW_AT_name("COMBINED"), DW_AT_const_value(0x00)
    2028              $C$DW$154       .dwtag  DW_TAG_enumerator, DW_AT_name("ARTICULATED_STEERING"), DW_AT_const_value(0x01)
    2029              $C$DW$155       .dwtag  DW_TAG_enumerator, DW_AT_name("TURNTABLE_STEERING"), DW_AT_const_value(0x02)
    2030              $C$DW$156       .dwtag  DW_TAG_enumerator, DW_AT_name("SET_POTENTIOMETER_LEFT"), DW_AT_const_value(0x03)
    2031              $C$DW$157       .dwtag  DW_TAG_enumerator, DW_AT_name("SET_POTENTIOMETER_RIGHT"), DW_AT_const_value(0x04)
    2032              $C$DW$158       .dwtag  DW_TAG_enumerator, DW_AT_name("SET_SERVO_LEFT"), DW_AT_const_value(0x05)
    2033              $C$DW$159       .dwtag  DW_TAG_enumerator, DW_AT_name("SET_SERVO_MIDDLE"), DW_AT_const_value(0x06)
    2034              $C$DW$160       .dwtag  DW_TAG_enumerator, DW_AT_name("INCREMENT_SERVO"), DW_AT_const_value(0x07)
    2035              $C$DW$161       .dwtag  DW_TAG_enumerator, DW_AT_name("DECREMENT_SERVO"), DW_AT_const_value(0x08)
    2036              $C$DW$162       .dwtag  DW_TAG_enumerator, DW_AT_name("SET_STEERING_POINT_0"), DW_AT_const_value(0x09)
    2037              $C$DW$163       .dwtag  DW_TAG_enumerator, DW_AT_name("SET_STEERING_POINT_1"), DW_AT_const_value(0x0a)
    2038              $C$DW$164       .dwtag  DW_TAG_enumerator, DW_AT_name("SET_STEERING_POINT_2"), DW_AT_const_value(0x0b)
    2039              $C$DW$165       .dwtag  DW_TAG_enumerator, DW_AT_name("SET_STEERING_POINT_3"), DW_AT_const_value(0x0c)
    2040              $C$DW$166       .dwtag  DW_TAG_enumerator, DW_AT_name("SET_STEERING_POINT_4"), DW_AT_const_value(0x0d)
    2041              $C$DW$167       .dwtag  DW_TAG_enumerator, DW_AT_name("SET_STEERING_POINT_5"), DW_AT_const_value(0x0e)
    2042              $C$DW$168       .dwtag  DW_TAG_enumerator, DW_AT_name("SET_STEERING_POINT_6"), DW_AT_const_value(0x0f)
    2043              $C$DW$169       .dwtag  DW_TAG_enumerator, DW_AT_name("SET_AXIS_POINT_0"), DW_AT_const_value(0x10)
    2044              $C$DW$170       .dwtag  DW_TAG_enumerator, DW_AT_name("SET_AXIS_POINT_1"), DW_AT_const_value(0x11)
    2045              $C$DW$171       .dwtag  DW_TAG_enumerator, DW_AT_name("SET_AXIS_POINT_2"), DW_AT_const_value(0x12)
    2046                      .dwendtag $C$DW$T$281
    2047              
    2048              $C$DW$T$282     .dwtag  DW_TAG_typedef, DW_AT_name("config_mode_cmd_t")
    2049                      .dwattr $C$DW$T$282, DW_AT_type(*$C$DW$T$281)
    2050                      .dwattr $C$DW$T$282, DW_AT_language(DW_LANG_C)
    2051              $C$DW$T$283     .dwtag  DW_TAG_pointer_type
    2052                      .dwattr $C$DW$T$283, DW_AT_type(*$C$DW$T$282)
    2053                      .dwattr $C$DW$T$283, DW_AT_address_class(0x20)
    2054              
    2055              $C$DW$T$284     .dwtag  DW_TAG_enumeration_type
    2056                      .dwattr $C$DW$T$284, DW_AT_byte_size(0x01)
    2057              $C$DW$172       .dwtag  DW_TAG_enumerator, DW_AT_name("NO_CMD"), DW_AT_const_value(0x00)
    2058              $C$DW$173       .dwtag  DW_TAG_enumerator, DW_AT_name("STATE_CHANGE_CMD"), DW_AT_const_value(0x01)
    2059              $C$DW$174       .dwtag  DW_TAG_enumerator, DW_AT_name("CONFIG_MODE_CMD"), DW_AT_const_value(0x02)
    2060              $C$DW$175       .dwtag  DW_TAG_enumerator, DW_AT_name("DRIVE_CMD"), DW_AT_const_value(0x03)
    2061                      .dwendtag $C$DW$T$284
    2062              
    2063              $C$DW$T$285     .dwtag  DW_TAG_typedef, DW_AT_name("wyflyCommands_t")
    2064                      .dwattr $C$DW$T$285, DW_AT_type(*$C$DW$T$284)
    2065                      .dwattr $C$DW$T$285, DW_AT_language(DW_LANG_C)
    2066              
    2067              $C$DW$T$290     .dwtag  DW_TAG_enumeration_type
    2068                      .dwattr $C$DW$T$290, DW_AT_byte_size(0x01)
    2069              $C$DW$176       .dwtag  DW_TAG_enumerator, DW_AT_name("FSM_STOP"), DW_AT_const_value(0x00)
TMS320C2000 Assembler PC v6.4.2 Thu Dec 14 15:27:05 2017

Tools Copyright (c) 1996-2015 Texas Instruments Incorporated
fsm_main.asm                                                         PAGE   41

    2070              $C$DW$177       .dwtag  DW_TAG_enumerator, DW_AT_name("FSM_CONFIG"), DW_AT_const_value(0x01)
    2071              $C$DW$178       .dwtag  DW_TAG_enumerator, DW_AT_name("FSM_RUN"), DW_AT_const_value(0x02)
    2072              $C$DW$179       .dwtag  DW_TAG_enumerator, DW_AT_name("FSM_ERROR"), DW_AT_const_value(0x03)
    2073                      .dwendtag $C$DW$T$290
    2074              
    2075              $C$DW$T$291     .dwtag  DW_TAG_typedef, DW_AT_name("fsm_main_state_t")
    2076                      .dwattr $C$DW$T$291, DW_AT_type(*$C$DW$T$290)
    2077                      .dwattr $C$DW$T$291, DW_AT_language(DW_LANG_C)
    2078              $C$DW$T$292     .dwtag  DW_TAG_pointer_type
    2079                      .dwattr $C$DW$T$292, DW_AT_type(*$C$DW$T$291)
    2080                      .dwattr $C$DW$T$292, DW_AT_address_class(0x20)
    2081              
    2082              $C$DW$T$21      .dwtag  DW_TAG_structure_type
    2083                      .dwattr $C$DW$T$21, DW_AT_byte_size(0x18)
    2084              $C$DW$180       .dwtag  DW_TAG_member
    2085                      .dwattr $C$DW$180, DW_AT_type(*$C$DW$T$19)
    2086                      .dwattr $C$DW$180, DW_AT_name("speed_ref")
    2087                      .dwattr $C$DW$180, DW_AT_TI_symbol_name("_speed_ref")
    2088                      .dwattr $C$DW$180, DW_AT_data_member_location[DW_OP_plus_uconst 0x0]
    2089                      .dwattr $C$DW$180, DW_AT_accessibility(DW_ACCESS_public)
    2090              $C$DW$181       .dwtag  DW_TAG_member
    2091                      .dwattr $C$DW$181, DW_AT_type(*$C$DW$T$19)
    2092                      .dwattr $C$DW$181, DW_AT_name("angle_ref")
    2093                      .dwattr $C$DW$181, DW_AT_TI_symbol_name("_angle_ref")
    2094                      .dwattr $C$DW$181, DW_AT_data_member_location[DW_OP_plus_uconst 0x2]
    2095                      .dwattr $C$DW$181, DW_AT_accessibility(DW_ACCESS_public)
    2096              $C$DW$182       .dwtag  DW_TAG_member
    2097                      .dwattr $C$DW$182, DW_AT_type(*$C$DW$T$20)
    2098                      .dwattr $C$DW$182, DW_AT_name("steering_feedback")
    2099                      .dwattr $C$DW$182, DW_AT_TI_symbol_name("_steering_feedback")
    2100                      .dwattr $C$DW$182, DW_AT_data_member_location[DW_OP_plus_uconst 0x4]
    2101                      .dwattr $C$DW$182, DW_AT_accessibility(DW_ACCESS_public)
    2102              $C$DW$183       .dwtag  DW_TAG_member
    2103                      .dwattr $C$DW$183, DW_AT_type(*$C$DW$T$19)
    2104                      .dwattr $C$DW$183, DW_AT_name("speed_scaling_ms_to_mot")
    2105                      .dwattr $C$DW$183, DW_AT_TI_symbol_name("_speed_scaling_ms_to_mot")
    2106                      .dwattr $C$DW$183, DW_AT_data_member_location[DW_OP_plus_uconst 0x6]
    2107                      .dwattr $C$DW$183, DW_AT_accessibility(DW_ACCESS_public)
    2108              $C$DW$184       .dwtag  DW_TAG_member
    2109                      .dwattr $C$DW$184, DW_AT_type(*$C$DW$T$19)
    2110                      .dwattr $C$DW$184, DW_AT_name("kp")
    2111                      .dwattr $C$DW$184, DW_AT_TI_symbol_name("_kp")
    2112                      .dwattr $C$DW$184, DW_AT_data_member_location[DW_OP_plus_uconst 0x8]
    2113                      .dwattr $C$DW$184, DW_AT_accessibility(DW_ACCESS_public)
    2114              $C$DW$185       .dwtag  DW_TAG_member
    2115                      .dwattr $C$DW$185, DW_AT_type(*$C$DW$T$19)
    2116                      .dwattr $C$DW$185, DW_AT_name("ki")
    2117                      .dwattr $C$DW$185, DW_AT_TI_symbol_name("_ki")
    2118                      .dwattr $C$DW$185, DW_AT_data_member_location[DW_OP_plus_uconst 0xa]
    2119                      .dwattr $C$DW$185, DW_AT_accessibility(DW_ACCESS_public)
    2120              $C$DW$186       .dwtag  DW_TAG_member
    2121                      .dwattr $C$DW$186, DW_AT_type(*$C$DW$T$19)
    2122                      .dwattr $C$DW$186, DW_AT_name("dt")
    2123                      .dwattr $C$DW$186, DW_AT_TI_symbol_name("_dt")
    2124                      .dwattr $C$DW$186, DW_AT_data_member_location[DW_OP_plus_uconst 0xc]
TMS320C2000 Assembler PC v6.4.2 Thu Dec 14 15:27:05 2017

Tools Copyright (c) 1996-2015 Texas Instruments Incorporated
fsm_main.asm                                                         PAGE   42

    2125                      .dwattr $C$DW$186, DW_AT_accessibility(DW_ACCESS_public)
    2126              $C$DW$187       .dwtag  DW_TAG_member
    2127                      .dwattr $C$DW$187, DW_AT_type(*$C$DW$T$20)
    2128                      .dwattr $C$DW$187, DW_AT_name("steering_loop_count")
    2129                      .dwattr $C$DW$187, DW_AT_TI_symbol_name("_steering_loop_count")
    2130                      .dwattr $C$DW$187, DW_AT_data_member_location[DW_OP_plus_uconst 0xe]
    2131                      .dwattr $C$DW$187, DW_AT_accessibility(DW_ACCESS_public)
    2132              $C$DW$188       .dwtag  DW_TAG_member
    2133                      .dwattr $C$DW$188, DW_AT_type(*$C$DW$T$19)
    2134                      .dwattr $C$DW$188, DW_AT_name("motor_speed_1")
    2135                      .dwattr $C$DW$188, DW_AT_TI_symbol_name("_motor_speed_1")
    2136                      .dwattr $C$DW$188, DW_AT_data_member_location[DW_OP_plus_uconst 0x10]
    2137                      .dwattr $C$DW$188, DW_AT_accessibility(DW_ACCESS_public)
    2138              $C$DW$189       .dwtag  DW_TAG_member
    2139                      .dwattr $C$DW$189, DW_AT_type(*$C$DW$T$19)
    2140                      .dwattr $C$DW$189, DW_AT_name("motor_speed_2")
    2141                      .dwattr $C$DW$189, DW_AT_TI_symbol_name("_motor_speed_2")
    2142                      .dwattr $C$DW$189, DW_AT_data_member_location[DW_OP_plus_uconst 0x12]
    2143                      .dwattr $C$DW$189, DW_AT_accessibility(DW_ACCESS_public)
    2144              $C$DW$190       .dwtag  DW_TAG_member
    2145                      .dwattr $C$DW$190, DW_AT_type(*$C$DW$T$19)
    2146                      .dwattr $C$DW$190, DW_AT_name("scale_1")
    2147                      .dwattr $C$DW$190, DW_AT_TI_symbol_name("_scale_1")
    2148                      .dwattr $C$DW$190, DW_AT_data_member_location[DW_OP_plus_uconst 0x14]
    2149                      .dwattr $C$DW$190, DW_AT_accessibility(DW_ACCESS_public)
    2150              $C$DW$191       .dwtag  DW_TAG_member
    2151                      .dwattr $C$DW$191, DW_AT_type(*$C$DW$T$19)
    2152                      .dwattr $C$DW$191, DW_AT_name("scale_2")
    2153                      .dwattr $C$DW$191, DW_AT_TI_symbol_name("_scale_2")
    2154                      .dwattr $C$DW$191, DW_AT_data_member_location[DW_OP_plus_uconst 0x16]
    2155                      .dwattr $C$DW$191, DW_AT_accessibility(DW_ACCESS_public)
    2156                      .dwendtag $C$DW$T$21
    2157              
    2158              $C$DW$T$294     .dwtag  DW_TAG_typedef, DW_AT_name("steering_control_t")
    2159                      .dwattr $C$DW$T$294, DW_AT_type(*$C$DW$T$21)
    2160                      .dwattr $C$DW$T$294, DW_AT_language(DW_LANG_C)
    2161              $C$DW$T$295     .dwtag  DW_TAG_pointer_type
    2162                      .dwattr $C$DW$T$295, DW_AT_type(*$C$DW$T$294)
    2163                      .dwattr $C$DW$T$295, DW_AT_address_class(0x20)
    2164              
    2165              $C$DW$T$23      .dwtag  DW_TAG_structure_type
    2166                      .dwattr $C$DW$T$23, DW_AT_byte_size(0x0a)
    2167              $C$DW$192       .dwtag  DW_TAG_member
    2168                      .dwattr $C$DW$192, DW_AT_type(*$C$DW$T$22)
    2169                      .dwattr $C$DW$192, DW_AT_name("As")
    2170                      .dwattr $C$DW$192, DW_AT_TI_symbol_name("_As")
    2171                      .dwattr $C$DW$192, DW_AT_data_member_location[DW_OP_plus_uconst 0x0]
    2172                      .dwattr $C$DW$192, DW_AT_accessibility(DW_ACCESS_public)
    2173              $C$DW$193       .dwtag  DW_TAG_member
    2174                      .dwattr $C$DW$193, DW_AT_type(*$C$DW$T$22)
    2175                      .dwattr $C$DW$193, DW_AT_name("Bs")
    2176                      .dwattr $C$DW$193, DW_AT_TI_symbol_name("_Bs")
    2177                      .dwattr $C$DW$193, DW_AT_data_member_location[DW_OP_plus_uconst 0x2]
    2178                      .dwattr $C$DW$193, DW_AT_accessibility(DW_ACCESS_public)
    2179              $C$DW$194       .dwtag  DW_TAG_member
TMS320C2000 Assembler PC v6.4.2 Thu Dec 14 15:27:05 2017

Tools Copyright (c) 1996-2015 Texas Instruments Incorporated
fsm_main.asm                                                         PAGE   43

    2180                      .dwattr $C$DW$194, DW_AT_type(*$C$DW$T$22)
    2181                      .dwattr $C$DW$194, DW_AT_name("Cs")
    2182                      .dwattr $C$DW$194, DW_AT_TI_symbol_name("_Cs")
    2183                      .dwattr $C$DW$194, DW_AT_data_member_location[DW_OP_plus_uconst 0x4]
    2184                      .dwattr $C$DW$194, DW_AT_accessibility(DW_ACCESS_public)
    2185              $C$DW$195       .dwtag  DW_TAG_member
    2186                      .dwattr $C$DW$195, DW_AT_type(*$C$DW$T$22)
    2187                      .dwattr $C$DW$195, DW_AT_name("Alpha")
    2188                      .dwattr $C$DW$195, DW_AT_TI_symbol_name("_Alpha")
    2189                      .dwattr $C$DW$195, DW_AT_data_member_location[DW_OP_plus_uconst 0x6]
    2190                      .dwattr $C$DW$195, DW_AT_accessibility(DW_ACCESS_public)
    2191              $C$DW$196       .dwtag  DW_TAG_member
    2192                      .dwattr $C$DW$196, DW_AT_type(*$C$DW$T$22)
    2193                      .dwattr $C$DW$196, DW_AT_name("Beta")
    2194                      .dwattr $C$DW$196, DW_AT_TI_symbol_name("_Beta")
    2195                      .dwattr $C$DW$196, DW_AT_data_member_location[DW_OP_plus_uconst 0x8]
    2196                      .dwattr $C$DW$196, DW_AT_accessibility(DW_ACCESS_public)
    2197                      .dwendtag $C$DW$T$23
    2198              
    2199              $C$DW$T$66      .dwtag  DW_TAG_typedef, DW_AT_name("CLARKE")
    2200                      .dwattr $C$DW$T$66, DW_AT_type(*$C$DW$T$23)
    2201                      .dwattr $C$DW$T$66, DW_AT_language(DW_LANG_C)
    2202              
    2203              $C$DW$T$24      .dwtag  DW_TAG_structure_type
    2204                      .dwattr $C$DW$T$24, DW_AT_byte_size(0x0e)
    2205              $C$DW$197       .dwtag  DW_TAG_member
    2206                      .dwattr $C$DW$197, DW_AT_type(*$C$DW$T$22)
    2207                      .dwattr $C$DW$197, DW_AT_name("Alpha")
    2208                      .dwattr $C$DW$197, DW_AT_TI_symbol_name("_Alpha")
    2209                      .dwattr $C$DW$197, DW_AT_data_member_location[DW_OP_plus_uconst 0x0]
    2210                      .dwattr $C$DW$197, DW_AT_accessibility(DW_ACCESS_public)
    2211              $C$DW$198       .dwtag  DW_TAG_member
    2212                      .dwattr $C$DW$198, DW_AT_type(*$C$DW$T$22)
    2213                      .dwattr $C$DW$198, DW_AT_name("Beta")
    2214                      .dwattr $C$DW$198, DW_AT_TI_symbol_name("_Beta")
    2215                      .dwattr $C$DW$198, DW_AT_data_member_location[DW_OP_plus_uconst 0x2]
    2216                      .dwattr $C$DW$198, DW_AT_accessibility(DW_ACCESS_public)
    2217              $C$DW$199       .dwtag  DW_TAG_member
    2218                      .dwattr $C$DW$199, DW_AT_type(*$C$DW$T$22)
    2219                      .dwattr $C$DW$199, DW_AT_name("Angle")
    2220                      .dwattr $C$DW$199, DW_AT_TI_symbol_name("_Angle")
    2221                      .dwattr $C$DW$199, DW_AT_data_member_location[DW_OP_plus_uconst 0x4]
    2222                      .dwattr $C$DW$199, DW_AT_accessibility(DW_ACCESS_public)
    2223              $C$DW$200       .dwtag  DW_TAG_member
    2224                      .dwattr $C$DW$200, DW_AT_type(*$C$DW$T$22)
    2225                      .dwattr $C$DW$200, DW_AT_name("Ds")
    2226                      .dwattr $C$DW$200, DW_AT_TI_symbol_name("_Ds")
    2227                      .dwattr $C$DW$200, DW_AT_data_member_location[DW_OP_plus_uconst 0x6]
    2228                      .dwattr $C$DW$200, DW_AT_accessibility(DW_ACCESS_public)
    2229              $C$DW$201       .dwtag  DW_TAG_member
    2230                      .dwattr $C$DW$201, DW_AT_type(*$C$DW$T$22)
    2231                      .dwattr $C$DW$201, DW_AT_name("Qs")
    2232                      .dwattr $C$DW$201, DW_AT_TI_symbol_name("_Qs")
    2233                      .dwattr $C$DW$201, DW_AT_data_member_location[DW_OP_plus_uconst 0x8]
    2234                      .dwattr $C$DW$201, DW_AT_accessibility(DW_ACCESS_public)
TMS320C2000 Assembler PC v6.4.2 Thu Dec 14 15:27:05 2017

Tools Copyright (c) 1996-2015 Texas Instruments Incorporated
fsm_main.asm                                                         PAGE   44

    2235              $C$DW$202       .dwtag  DW_TAG_member
    2236                      .dwattr $C$DW$202, DW_AT_type(*$C$DW$T$22)
    2237                      .dwattr $C$DW$202, DW_AT_name("Sine")
    2238                      .dwattr $C$DW$202, DW_AT_TI_symbol_name("_Sine")
    2239                      .dwattr $C$DW$202, DW_AT_data_member_location[DW_OP_plus_uconst 0xa]
    2240                      .dwattr $C$DW$202, DW_AT_accessibility(DW_ACCESS_public)
    2241              $C$DW$203       .dwtag  DW_TAG_member
    2242                      .dwattr $C$DW$203, DW_AT_type(*$C$DW$T$22)
    2243                      .dwattr $C$DW$203, DW_AT_name("Cosine")
    2244                      .dwattr $C$DW$203, DW_AT_TI_symbol_name("_Cosine")
    2245                      .dwattr $C$DW$203, DW_AT_data_member_location[DW_OP_plus_uconst 0xc]
    2246                      .dwattr $C$DW$203, DW_AT_accessibility(DW_ACCESS_public)
    2247                      .dwendtag $C$DW$T$24
    2248              
    2249              $C$DW$T$67      .dwtag  DW_TAG_typedef, DW_AT_name("PARK")
    2250                      .dwattr $C$DW$T$67, DW_AT_type(*$C$DW$T$24)
    2251                      .dwattr $C$DW$T$67, DW_AT_language(DW_LANG_C)
    2252              
    2253              $C$DW$T$25      .dwtag  DW_TAG_structure_type
    2254                      .dwattr $C$DW$T$25, DW_AT_byte_size(0x0e)
    2255              $C$DW$204       .dwtag  DW_TAG_member
    2256                      .dwattr $C$DW$204, DW_AT_type(*$C$DW$T$22)
    2257                      .dwattr $C$DW$204, DW_AT_name("Alpha")
    2258                      .dwattr $C$DW$204, DW_AT_TI_symbol_name("_Alpha")
    2259                      .dwattr $C$DW$204, DW_AT_data_member_location[DW_OP_plus_uconst 0x0]
    2260                      .dwattr $C$DW$204, DW_AT_accessibility(DW_ACCESS_public)
    2261              $C$DW$205       .dwtag  DW_TAG_member
    2262                      .dwattr $C$DW$205, DW_AT_type(*$C$DW$T$22)
    2263                      .dwattr $C$DW$205, DW_AT_name("Beta")
    2264                      .dwattr $C$DW$205, DW_AT_TI_symbol_name("_Beta")
    2265                      .dwattr $C$DW$205, DW_AT_data_member_location[DW_OP_plus_uconst 0x2]
    2266                      .dwattr $C$DW$205, DW_AT_accessibility(DW_ACCESS_public)
    2267              $C$DW$206       .dwtag  DW_TAG_member
    2268                      .dwattr $C$DW$206, DW_AT_type(*$C$DW$T$22)
    2269                      .dwattr $C$DW$206, DW_AT_name("Angle")
    2270                      .dwattr $C$DW$206, DW_AT_TI_symbol_name("_Angle")
    2271                      .dwattr $C$DW$206, DW_AT_data_member_location[DW_OP_plus_uconst 0x4]
    2272                      .dwattr $C$DW$206, DW_AT_accessibility(DW_ACCESS_public)
    2273              $C$DW$207       .dwtag  DW_TAG_member
    2274                      .dwattr $C$DW$207, DW_AT_type(*$C$DW$T$22)
    2275                      .dwattr $C$DW$207, DW_AT_name("Ds")
    2276                      .dwattr $C$DW$207, DW_AT_TI_symbol_name("_Ds")
    2277                      .dwattr $C$DW$207, DW_AT_data_member_location[DW_OP_plus_uconst 0x6]
    2278                      .dwattr $C$DW$207, DW_AT_accessibility(DW_ACCESS_public)
    2279              $C$DW$208       .dwtag  DW_TAG_member
    2280                      .dwattr $C$DW$208, DW_AT_type(*$C$DW$T$22)
    2281                      .dwattr $C$DW$208, DW_AT_name("Qs")
    2282                      .dwattr $C$DW$208, DW_AT_TI_symbol_name("_Qs")
    2283                      .dwattr $C$DW$208, DW_AT_data_member_location[DW_OP_plus_uconst 0x8]
    2284                      .dwattr $C$DW$208, DW_AT_accessibility(DW_ACCESS_public)
    2285              $C$DW$209       .dwtag  DW_TAG_member
    2286                      .dwattr $C$DW$209, DW_AT_type(*$C$DW$T$22)
    2287                      .dwattr $C$DW$209, DW_AT_name("Sine")
    2288                      .dwattr $C$DW$209, DW_AT_TI_symbol_name("_Sine")
    2289                      .dwattr $C$DW$209, DW_AT_data_member_location[DW_OP_plus_uconst 0xa]
TMS320C2000 Assembler PC v6.4.2 Thu Dec 14 15:27:05 2017

Tools Copyright (c) 1996-2015 Texas Instruments Incorporated
fsm_main.asm                                                         PAGE   45

    2290                      .dwattr $C$DW$209, DW_AT_accessibility(DW_ACCESS_public)
    2291              $C$DW$210       .dwtag  DW_TAG_member
    2292                      .dwattr $C$DW$210, DW_AT_type(*$C$DW$T$22)
    2293                      .dwattr $C$DW$210, DW_AT_name("Cosine")
    2294                      .dwattr $C$DW$210, DW_AT_TI_symbol_name("_Cosine")
    2295                      .dwattr $C$DW$210, DW_AT_data_member_location[DW_OP_plus_uconst 0xc]
    2296                      .dwattr $C$DW$210, DW_AT_accessibility(DW_ACCESS_public)
    2297                      .dwendtag $C$DW$T$25
    2298              
    2299              $C$DW$T$68      .dwtag  DW_TAG_typedef, DW_AT_name("IPARK")
    2300                      .dwattr $C$DW$T$68, DW_AT_type(*$C$DW$T$25)
    2301                      .dwattr $C$DW$T$68, DW_AT_language(DW_LANG_C)
    2302              
    2303              $C$DW$T$26      .dwtag  DW_TAG_structure_type
    2304                      .dwattr $C$DW$T$26, DW_AT_byte_size(0x18)
    2305              $C$DW$211       .dwtag  DW_TAG_member
    2306                      .dwattr $C$DW$211, DW_AT_type(*$C$DW$T$22)
    2307                      .dwattr $C$DW$211, DW_AT_name("Ref")
    2308                      .dwattr $C$DW$211, DW_AT_TI_symbol_name("_Ref")
    2309                      .dwattr $C$DW$211, DW_AT_data_member_location[DW_OP_plus_uconst 0x0]
    2310                      .dwattr $C$DW$211, DW_AT_accessibility(DW_ACCESS_public)
    2311              $C$DW$212       .dwtag  DW_TAG_member
    2312                      .dwattr $C$DW$212, DW_AT_type(*$C$DW$T$22)
    2313                      .dwattr $C$DW$212, DW_AT_name("Fbk")
    2314                      .dwattr $C$DW$212, DW_AT_TI_symbol_name("_Fbk")
    2315                      .dwattr $C$DW$212, DW_AT_data_member_location[DW_OP_plus_uconst 0x2]
    2316                      .dwattr $C$DW$212, DW_AT_accessibility(DW_ACCESS_public)
    2317              $C$DW$213       .dwtag  DW_TAG_member
    2318                      .dwattr $C$DW$213, DW_AT_type(*$C$DW$T$22)
    2319                      .dwattr $C$DW$213, DW_AT_name("Out")
    2320                      .dwattr $C$DW$213, DW_AT_TI_symbol_name("_Out")
    2321                      .dwattr $C$DW$213, DW_AT_data_member_location[DW_OP_plus_uconst 0x4]
    2322                      .dwattr $C$DW$213, DW_AT_accessibility(DW_ACCESS_public)
    2323              $C$DW$214       .dwtag  DW_TAG_member
    2324                      .dwattr $C$DW$214, DW_AT_type(*$C$DW$T$22)
    2325                      .dwattr $C$DW$214, DW_AT_name("Kp")
    2326                      .dwattr $C$DW$214, DW_AT_TI_symbol_name("_Kp")
    2327                      .dwattr $C$DW$214, DW_AT_data_member_location[DW_OP_plus_uconst 0x6]
    2328                      .dwattr $C$DW$214, DW_AT_accessibility(DW_ACCESS_public)
    2329              $C$DW$215       .dwtag  DW_TAG_member
    2330                      .dwattr $C$DW$215, DW_AT_type(*$C$DW$T$22)
    2331                      .dwattr $C$DW$215, DW_AT_name("Ki")
    2332                      .dwattr $C$DW$215, DW_AT_TI_symbol_name("_Ki")
    2333                      .dwattr $C$DW$215, DW_AT_data_member_location[DW_OP_plus_uconst 0x8]
    2334                      .dwattr $C$DW$215, DW_AT_accessibility(DW_ACCESS_public)
    2335              $C$DW$216       .dwtag  DW_TAG_member
    2336                      .dwattr $C$DW$216, DW_AT_type(*$C$DW$T$22)
    2337                      .dwattr $C$DW$216, DW_AT_name("Umax")
    2338                      .dwattr $C$DW$216, DW_AT_TI_symbol_name("_Umax")
    2339                      .dwattr $C$DW$216, DW_AT_data_member_location[DW_OP_plus_uconst 0xa]
    2340                      .dwattr $C$DW$216, DW_AT_accessibility(DW_ACCESS_public)
    2341              $C$DW$217       .dwtag  DW_TAG_member
    2342                      .dwattr $C$DW$217, DW_AT_type(*$C$DW$T$22)
    2343                      .dwattr $C$DW$217, DW_AT_name("Umin")
    2344                      .dwattr $C$DW$217, DW_AT_TI_symbol_name("_Umin")
TMS320C2000 Assembler PC v6.4.2 Thu Dec 14 15:27:05 2017

Tools Copyright (c) 1996-2015 Texas Instruments Incorporated
fsm_main.asm                                                         PAGE   46

    2345                      .dwattr $C$DW$217, DW_AT_data_member_location[DW_OP_plus_uconst 0xc]
    2346                      .dwattr $C$DW$217, DW_AT_accessibility(DW_ACCESS_public)
    2347              $C$DW$218       .dwtag  DW_TAG_member
    2348                      .dwattr $C$DW$218, DW_AT_type(*$C$DW$T$22)
    2349                      .dwattr $C$DW$218, DW_AT_name("up")
    2350                      .dwattr $C$DW$218, DW_AT_TI_symbol_name("_up")
    2351                      .dwattr $C$DW$218, DW_AT_data_member_location[DW_OP_plus_uconst 0xe]
    2352                      .dwattr $C$DW$218, DW_AT_accessibility(DW_ACCESS_public)
    2353              $C$DW$219       .dwtag  DW_TAG_member
    2354                      .dwattr $C$DW$219, DW_AT_type(*$C$DW$T$22)
    2355                      .dwattr $C$DW$219, DW_AT_name("ui")
    2356                      .dwattr $C$DW$219, DW_AT_TI_symbol_name("_ui")
    2357                      .dwattr $C$DW$219, DW_AT_data_member_location[DW_OP_plus_uconst 0x10]
    2358                      .dwattr $C$DW$219, DW_AT_accessibility(DW_ACCESS_public)
    2359              $C$DW$220       .dwtag  DW_TAG_member
    2360                      .dwattr $C$DW$220, DW_AT_type(*$C$DW$T$22)
    2361                      .dwattr $C$DW$220, DW_AT_name("v1")
    2362                      .dwattr $C$DW$220, DW_AT_TI_symbol_name("_v1")
    2363                      .dwattr $C$DW$220, DW_AT_data_member_location[DW_OP_plus_uconst 0x12]
    2364                      .dwattr $C$DW$220, DW_AT_accessibility(DW_ACCESS_public)
    2365              $C$DW$221       .dwtag  DW_TAG_member
    2366                      .dwattr $C$DW$221, DW_AT_type(*$C$DW$T$22)
    2367                      .dwattr $C$DW$221, DW_AT_name("i1")
    2368                      .dwattr $C$DW$221, DW_AT_TI_symbol_name("_i1")
    2369                      .dwattr $C$DW$221, DW_AT_data_member_location[DW_OP_plus_uconst 0x14]
    2370                      .dwattr $C$DW$221, DW_AT_accessibility(DW_ACCESS_public)
    2371              $C$DW$222       .dwtag  DW_TAG_member
    2372                      .dwattr $C$DW$222, DW_AT_type(*$C$DW$T$22)
    2373                      .dwattr $C$DW$222, DW_AT_name("w1")
    2374                      .dwattr $C$DW$222, DW_AT_TI_symbol_name("_w1")
    2375                      .dwattr $C$DW$222, DW_AT_data_member_location[DW_OP_plus_uconst 0x16]
    2376                      .dwattr $C$DW$222, DW_AT_accessibility(DW_ACCESS_public)
    2377                      .dwendtag $C$DW$T$26
    2378              
    2379              $C$DW$T$69      .dwtag  DW_TAG_typedef, DW_AT_name("PI_CONTROLLER")
    2380                      .dwattr $C$DW$T$69, DW_AT_type(*$C$DW$T$26)
    2381                      .dwattr $C$DW$T$69, DW_AT_language(DW_LANG_C)
    2382              
    2383              $C$DW$T$27      .dwtag  DW_TAG_structure_type
    2384                      .dwattr $C$DW$T$27, DW_AT_byte_size(0x0a)
    2385              $C$DW$223       .dwtag  DW_TAG_member
    2386                      .dwattr $C$DW$223, DW_AT_type(*$C$DW$T$22)
    2387                      .dwattr $C$DW$223, DW_AT_name("Ref")
    2388                      .dwattr $C$DW$223, DW_AT_TI_symbol_name("_Ref")
    2389                      .dwattr $C$DW$223, DW_AT_data_member_location[DW_OP_plus_uconst 0x0]
    2390                      .dwattr $C$DW$223, DW_AT_accessibility(DW_ACCESS_public)
    2391              $C$DW$224       .dwtag  DW_TAG_member
    2392                      .dwattr $C$DW$224, DW_AT_type(*$C$DW$T$22)
    2393                      .dwattr $C$DW$224, DW_AT_name("Fbk")
    2394                      .dwattr $C$DW$224, DW_AT_TI_symbol_name("_Fbk")
    2395                      .dwattr $C$DW$224, DW_AT_data_member_location[DW_OP_plus_uconst 0x2]
    2396                      .dwattr $C$DW$224, DW_AT_accessibility(DW_ACCESS_public)
    2397              $C$DW$225       .dwtag  DW_TAG_member
    2398                      .dwattr $C$DW$225, DW_AT_type(*$C$DW$T$22)
    2399                      .dwattr $C$DW$225, DW_AT_name("Out")
TMS320C2000 Assembler PC v6.4.2 Thu Dec 14 15:27:05 2017

Tools Copyright (c) 1996-2015 Texas Instruments Incorporated
fsm_main.asm                                                         PAGE   47

    2400                      .dwattr $C$DW$225, DW_AT_TI_symbol_name("_Out")
    2401                      .dwattr $C$DW$225, DW_AT_data_member_location[DW_OP_plus_uconst 0x4]
    2402                      .dwattr $C$DW$225, DW_AT_accessibility(DW_ACCESS_public)
    2403              $C$DW$226       .dwtag  DW_TAG_member
    2404                      .dwattr $C$DW$226, DW_AT_type(*$C$DW$T$22)
    2405                      .dwattr $C$DW$226, DW_AT_name("c1")
    2406                      .dwattr $C$DW$226, DW_AT_TI_symbol_name("_c1")
    2407                      .dwattr $C$DW$226, DW_AT_data_member_location[DW_OP_plus_uconst 0x6]
    2408                      .dwattr $C$DW$226, DW_AT_accessibility(DW_ACCESS_public)
    2409              $C$DW$227       .dwtag  DW_TAG_member
    2410                      .dwattr $C$DW$227, DW_AT_type(*$C$DW$T$22)
    2411                      .dwattr $C$DW$227, DW_AT_name("c2")
    2412                      .dwattr $C$DW$227, DW_AT_TI_symbol_name("_c2")
    2413                      .dwattr $C$DW$227, DW_AT_data_member_location[DW_OP_plus_uconst 0x8]
    2414                      .dwattr $C$DW$227, DW_AT_accessibility(DW_ACCESS_public)
    2415                      .dwendtag $C$DW$T$27
    2416              
    2417              $C$DW$T$30      .dwtag  DW_TAG_typedef, DW_AT_name("PID_TERMINALS")
    2418                      .dwattr $C$DW$T$30, DW_AT_type(*$C$DW$T$27)
    2419                      .dwattr $C$DW$T$30, DW_AT_language(DW_LANG_C)
    2420              
    2421              $C$DW$T$28      .dwtag  DW_TAG_structure_type
    2422                      .dwattr $C$DW$T$28, DW_AT_byte_size(0x0e)
    2423              $C$DW$228       .dwtag  DW_TAG_member
    2424                      .dwattr $C$DW$228, DW_AT_type(*$C$DW$T$22)
    2425                      .dwattr $C$DW$228, DW_AT_name("Kr")
    2426                      .dwattr $C$DW$228, DW_AT_TI_symbol_name("_Kr")
    2427                      .dwattr $C$DW$228, DW_AT_data_member_location[DW_OP_plus_uconst 0x0]
    2428                      .dwattr $C$DW$228, DW_AT_accessibility(DW_ACCESS_public)
    2429              $C$DW$229       .dwtag  DW_TAG_member
    2430                      .dwattr $C$DW$229, DW_AT_type(*$C$DW$T$22)
    2431                      .dwattr $C$DW$229, DW_AT_name("Kp")
    2432                      .dwattr $C$DW$229, DW_AT_TI_symbol_name("_Kp")
    2433                      .dwattr $C$DW$229, DW_AT_data_member_location[DW_OP_plus_uconst 0x2]
    2434                      .dwattr $C$DW$229, DW_AT_accessibility(DW_ACCESS_public)
    2435              $C$DW$230       .dwtag  DW_TAG_member
    2436                      .dwattr $C$DW$230, DW_AT_type(*$C$DW$T$22)
    2437                      .dwattr $C$DW$230, DW_AT_name("Ki")
    2438                      .dwattr $C$DW$230, DW_AT_TI_symbol_name("_Ki")
    2439                      .dwattr $C$DW$230, DW_AT_data_member_location[DW_OP_plus_uconst 0x4]
    2440                      .dwattr $C$DW$230, DW_AT_accessibility(DW_ACCESS_public)
    2441              $C$DW$231       .dwtag  DW_TAG_member
    2442                      .dwattr $C$DW$231, DW_AT_type(*$C$DW$T$22)
    2443                      .dwattr $C$DW$231, DW_AT_name("Kd")
    2444                      .dwattr $C$DW$231, DW_AT_TI_symbol_name("_Kd")
    2445                      .dwattr $C$DW$231, DW_AT_data_member_location[DW_OP_plus_uconst 0x6]
    2446                      .dwattr $C$DW$231, DW_AT_accessibility(DW_ACCESS_public)
    2447              $C$DW$232       .dwtag  DW_TAG_member
    2448                      .dwattr $C$DW$232, DW_AT_type(*$C$DW$T$22)
    2449                      .dwattr $C$DW$232, DW_AT_name("Km")
    2450                      .dwattr $C$DW$232, DW_AT_TI_symbol_name("_Km")
    2451                      .dwattr $C$DW$232, DW_AT_data_member_location[DW_OP_plus_uconst 0x8]
    2452                      .dwattr $C$DW$232, DW_AT_accessibility(DW_ACCESS_public)
    2453              $C$DW$233       .dwtag  DW_TAG_member
    2454                      .dwattr $C$DW$233, DW_AT_type(*$C$DW$T$22)
TMS320C2000 Assembler PC v6.4.2 Thu Dec 14 15:27:05 2017

Tools Copyright (c) 1996-2015 Texas Instruments Incorporated
fsm_main.asm                                                         PAGE   48

    2455                      .dwattr $C$DW$233, DW_AT_name("Umax")
    2456                      .dwattr $C$DW$233, DW_AT_TI_symbol_name("_Umax")
    2457                      .dwattr $C$DW$233, DW_AT_data_member_location[DW_OP_plus_uconst 0xa]
    2458                      .dwattr $C$DW$233, DW_AT_accessibility(DW_ACCESS_public)
    2459              $C$DW$234       .dwtag  DW_TAG_member
    2460                      .dwattr $C$DW$234, DW_AT_type(*$C$DW$T$22)
    2461                      .dwattr $C$DW$234, DW_AT_name("Umin")
    2462                      .dwattr $C$DW$234, DW_AT_TI_symbol_name("_Umin")
    2463                      .dwattr $C$DW$234, DW_AT_data_member_location[DW_OP_plus_uconst 0xc]
    2464                      .dwattr $C$DW$234, DW_AT_accessibility(DW_ACCESS_public)
    2465                      .dwendtag $C$DW$T$28
    2466              
    2467              $C$DW$T$31      .dwtag  DW_TAG_typedef, DW_AT_name("PID_PARAMETERS")
    2468                      .dwattr $C$DW$T$31, DW_AT_type(*$C$DW$T$28)
    2469                      .dwattr $C$DW$T$31, DW_AT_language(DW_LANG_C)
    2470              
    2471              $C$DW$T$29      .dwtag  DW_TAG_structure_type
    2472                      .dwattr $C$DW$T$29, DW_AT_byte_size(0x10)
    2473              $C$DW$235       .dwtag  DW_TAG_member
    2474                      .dwattr $C$DW$235, DW_AT_type(*$C$DW$T$22)
    2475                      .dwattr $C$DW$235, DW_AT_name("up")
    2476                      .dwattr $C$DW$235, DW_AT_TI_symbol_name("_up")
    2477                      .dwattr $C$DW$235, DW_AT_data_member_location[DW_OP_plus_uconst 0x0]
    2478                      .dwattr $C$DW$235, DW_AT_accessibility(DW_ACCESS_public)
    2479              $C$DW$236       .dwtag  DW_TAG_member
    2480                      .dwattr $C$DW$236, DW_AT_type(*$C$DW$T$22)
    2481                      .dwattr $C$DW$236, DW_AT_name("ui")
    2482                      .dwattr $C$DW$236, DW_AT_TI_symbol_name("_ui")
    2483                      .dwattr $C$DW$236, DW_AT_data_member_location[DW_OP_plus_uconst 0x2]
    2484                      .dwattr $C$DW$236, DW_AT_accessibility(DW_ACCESS_public)
    2485              $C$DW$237       .dwtag  DW_TAG_member
    2486                      .dwattr $C$DW$237, DW_AT_type(*$C$DW$T$22)
    2487                      .dwattr $C$DW$237, DW_AT_name("ud")
    2488                      .dwattr $C$DW$237, DW_AT_TI_symbol_name("_ud")
    2489                      .dwattr $C$DW$237, DW_AT_data_member_location[DW_OP_plus_uconst 0x4]
    2490                      .dwattr $C$DW$237, DW_AT_accessibility(DW_ACCESS_public)
    2491              $C$DW$238       .dwtag  DW_TAG_member
    2492                      .dwattr $C$DW$238, DW_AT_type(*$C$DW$T$22)
    2493                      .dwattr $C$DW$238, DW_AT_name("v1")
    2494                      .dwattr $C$DW$238, DW_AT_TI_symbol_name("_v1")
    2495                      .dwattr $C$DW$238, DW_AT_data_member_location[DW_OP_plus_uconst 0x6]
    2496                      .dwattr $C$DW$238, DW_AT_accessibility(DW_ACCESS_public)
    2497              $C$DW$239       .dwtag  DW_TAG_member
    2498                      .dwattr $C$DW$239, DW_AT_type(*$C$DW$T$22)
    2499                      .dwattr $C$DW$239, DW_AT_name("i1")
    2500                      .dwattr $C$DW$239, DW_AT_TI_symbol_name("_i1")
    2501                      .dwattr $C$DW$239, DW_AT_data_member_location[DW_OP_plus_uconst 0x8]
    2502                      .dwattr $C$DW$239, DW_AT_accessibility(DW_ACCESS_public)
    2503              $C$DW$240       .dwtag  DW_TAG_member
    2504                      .dwattr $C$DW$240, DW_AT_type(*$C$DW$T$22)
    2505                      .dwattr $C$DW$240, DW_AT_name("d1")
    2506                      .dwattr $C$DW$240, DW_AT_TI_symbol_name("_d1")
    2507                      .dwattr $C$DW$240, DW_AT_data_member_location[DW_OP_plus_uconst 0xa]
    2508                      .dwattr $C$DW$240, DW_AT_accessibility(DW_ACCESS_public)
    2509              $C$DW$241       .dwtag  DW_TAG_member
TMS320C2000 Assembler PC v6.4.2 Thu Dec 14 15:27:05 2017

Tools Copyright (c) 1996-2015 Texas Instruments Incorporated
fsm_main.asm                                                         PAGE   49

    2510                      .dwattr $C$DW$241, DW_AT_type(*$C$DW$T$22)
    2511                      .dwattr $C$DW$241, DW_AT_name("d2")
    2512                      .dwattr $C$DW$241, DW_AT_TI_symbol_name("_d2")
    2513                      .dwattr $C$DW$241, DW_AT_data_member_location[DW_OP_plus_uconst 0xc]
    2514                      .dwattr $C$DW$241, DW_AT_accessibility(DW_ACCESS_public)
    2515              $C$DW$242       .dwtag  DW_TAG_member
    2516                      .dwattr $C$DW$242, DW_AT_type(*$C$DW$T$22)
    2517                      .dwattr $C$DW$242, DW_AT_name("w1")
    2518                      .dwattr $C$DW$242, DW_AT_TI_symbol_name("_w1")
    2519                      .dwattr $C$DW$242, DW_AT_data_member_location[DW_OP_plus_uconst 0xe]
    2520                      .dwattr $C$DW$242, DW_AT_accessibility(DW_ACCESS_public)
    2521                      .dwendtag $C$DW$T$29
    2522              
    2523              $C$DW$T$32      .dwtag  DW_TAG_typedef, DW_AT_name("PID_DATA")
    2524                      .dwattr $C$DW$T$32, DW_AT_type(*$C$DW$T$29)
    2525                      .dwattr $C$DW$T$32, DW_AT_language(DW_LANG_C)
    2526              
    2527              $C$DW$T$33      .dwtag  DW_TAG_structure_type
    2528                      .dwattr $C$DW$T$33, DW_AT_byte_size(0x28)
    2529              $C$DW$243       .dwtag  DW_TAG_member
    2530                      .dwattr $C$DW$243, DW_AT_type(*$C$DW$T$30)
    2531                      .dwattr $C$DW$243, DW_AT_name("term")
    2532                      .dwattr $C$DW$243, DW_AT_TI_symbol_name("_term")
    2533                      .dwattr $C$DW$243, DW_AT_data_member_location[DW_OP_plus_uconst 0x0]
    2534                      .dwattr $C$DW$243, DW_AT_accessibility(DW_ACCESS_public)
    2535              $C$DW$244       .dwtag  DW_TAG_member
    2536                      .dwattr $C$DW$244, DW_AT_type(*$C$DW$T$31)
    2537                      .dwattr $C$DW$244, DW_AT_name("param")
    2538                      .dwattr $C$DW$244, DW_AT_TI_symbol_name("_param")
    2539                      .dwattr $C$DW$244, DW_AT_data_member_location[DW_OP_plus_uconst 0xa]
    2540                      .dwattr $C$DW$244, DW_AT_accessibility(DW_ACCESS_public)
    2541              $C$DW$245       .dwtag  DW_TAG_member
    2542                      .dwattr $C$DW$245, DW_AT_type(*$C$DW$T$32)
    2543                      .dwattr $C$DW$245, DW_AT_name("data")
    2544                      .dwattr $C$DW$245, DW_AT_TI_symbol_name("_data")
    2545                      .dwattr $C$DW$245, DW_AT_data_member_location[DW_OP_plus_uconst 0x18]
    2546                      .dwattr $C$DW$245, DW_AT_accessibility(DW_ACCESS_public)
    2547                      .dwendtag $C$DW$T$33
    2548              
    2549              $C$DW$T$70      .dwtag  DW_TAG_typedef, DW_AT_name("PID_CONTROLLER")
    2550                      .dwattr $C$DW$T$70, DW_AT_type(*$C$DW$T$33)
    2551                      .dwattr $C$DW$T$70, DW_AT_language(DW_LANG_C)
    2552              
    2553              $C$DW$T$35      .dwtag  DW_TAG_structure_type
    2554                      .dwattr $C$DW$T$35, DW_AT_byte_size(0x12)
    2555              $C$DW$246       .dwtag  DW_TAG_member
    2556                      .dwattr $C$DW$246, DW_AT_type(*$C$DW$T$22)
    2557                      .dwattr $C$DW$246, DW_AT_name("Ualpha")
    2558                      .dwattr $C$DW$246, DW_AT_TI_symbol_name("_Ualpha")
    2559                      .dwattr $C$DW$246, DW_AT_data_member_location[DW_OP_plus_uconst 0x0]
    2560                      .dwattr $C$DW$246, DW_AT_accessibility(DW_ACCESS_public)
    2561              $C$DW$247       .dwtag  DW_TAG_member
    2562                      .dwattr $C$DW$247, DW_AT_type(*$C$DW$T$22)
    2563                      .dwattr $C$DW$247, DW_AT_name("Ubeta")
    2564                      .dwattr $C$DW$247, DW_AT_TI_symbol_name("_Ubeta")
TMS320C2000 Assembler PC v6.4.2 Thu Dec 14 15:27:05 2017

Tools Copyright (c) 1996-2015 Texas Instruments Incorporated
fsm_main.asm                                                         PAGE   50

    2565                      .dwattr $C$DW$247, DW_AT_data_member_location[DW_OP_plus_uconst 0x2]
    2566                      .dwattr $C$DW$247, DW_AT_accessibility(DW_ACCESS_public)
    2567              $C$DW$248       .dwtag  DW_TAG_member
    2568                      .dwattr $C$DW$248, DW_AT_type(*$C$DW$T$22)
    2569                      .dwattr $C$DW$248, DW_AT_name("Ta")
    2570                      .dwattr $C$DW$248, DW_AT_TI_symbol_name("_Ta")
    2571                      .dwattr $C$DW$248, DW_AT_data_member_location[DW_OP_plus_uconst 0x4]
    2572                      .dwattr $C$DW$248, DW_AT_accessibility(DW_ACCESS_public)
    2573              $C$DW$249       .dwtag  DW_TAG_member
    2574                      .dwattr $C$DW$249, DW_AT_type(*$C$DW$T$22)
    2575                      .dwattr $C$DW$249, DW_AT_name("Tb")
    2576                      .dwattr $C$DW$249, DW_AT_TI_symbol_name("_Tb")
    2577                      .dwattr $C$DW$249, DW_AT_data_member_location[DW_OP_plus_uconst 0x6]
    2578                      .dwattr $C$DW$249, DW_AT_accessibility(DW_ACCESS_public)
    2579              $C$DW$250       .dwtag  DW_TAG_member
    2580                      .dwattr $C$DW$250, DW_AT_type(*$C$DW$T$22)
    2581                      .dwattr $C$DW$250, DW_AT_name("Tc")
    2582                      .dwattr $C$DW$250, DW_AT_TI_symbol_name("_Tc")
    2583                      .dwattr $C$DW$250, DW_AT_data_member_location[DW_OP_plus_uconst 0x8]
    2584                      .dwattr $C$DW$250, DW_AT_accessibility(DW_ACCESS_public)
    2585              $C$DW$251       .dwtag  DW_TAG_member
    2586                      .dwattr $C$DW$251, DW_AT_type(*$C$DW$T$22)
    2587                      .dwattr $C$DW$251, DW_AT_name("tmp1")
    2588                      .dwattr $C$DW$251, DW_AT_TI_symbol_name("_tmp1")
    2589                      .dwattr $C$DW$251, DW_AT_data_member_location[DW_OP_plus_uconst 0xa]
    2590                      .dwattr $C$DW$251, DW_AT_accessibility(DW_ACCESS_public)
    2591              $C$DW$252       .dwtag  DW_TAG_member
    2592                      .dwattr $C$DW$252, DW_AT_type(*$C$DW$T$22)
    2593                      .dwattr $C$DW$252, DW_AT_name("tmp2")
    2594                      .dwattr $C$DW$252, DW_AT_TI_symbol_name("_tmp2")
    2595                      .dwattr $C$DW$252, DW_AT_data_member_location[DW_OP_plus_uconst 0xc]
    2596                      .dwattr $C$DW$252, DW_AT_accessibility(DW_ACCESS_public)
    2597              $C$DW$253       .dwtag  DW_TAG_member
    2598                      .dwattr $C$DW$253, DW_AT_type(*$C$DW$T$22)
    2599                      .dwattr $C$DW$253, DW_AT_name("tmp3")
    2600                      .dwattr $C$DW$253, DW_AT_TI_symbol_name("_tmp3")
    2601                      .dwattr $C$DW$253, DW_AT_data_member_location[DW_OP_plus_uconst 0xe]
    2602                      .dwattr $C$DW$253, DW_AT_accessibility(DW_ACCESS_public)
    2603              $C$DW$254       .dwtag  DW_TAG_member
    2604                      .dwattr $C$DW$254, DW_AT_type(*$C$DW$T$34)
    2605                      .dwattr $C$DW$254, DW_AT_name("VecSector")
    2606                      .dwattr $C$DW$254, DW_AT_TI_symbol_name("_VecSector")
    2607                      .dwattr $C$DW$254, DW_AT_data_member_location[DW_OP_plus_uconst 0x10]
    2608                      .dwattr $C$DW$254, DW_AT_accessibility(DW_ACCESS_public)
    2609                      .dwendtag $C$DW$T$35
    2610              
    2611              $C$DW$T$71      .dwtag  DW_TAG_typedef, DW_AT_name("SVGEN")
    2612                      .dwattr $C$DW$T$71, DW_AT_type(*$C$DW$T$35)
    2613                      .dwattr $C$DW$T$71, DW_AT_language(DW_LANG_C)
    2614              
    2615              $C$DW$T$36      .dwtag  DW_TAG_structure_type
    2616                      .dwattr $C$DW$T$36, DW_AT_byte_size(0x10)
    2617              $C$DW$255       .dwtag  DW_TAG_member
    2618                      .dwattr $C$DW$255, DW_AT_type(*$C$DW$T$22)
    2619                      .dwattr $C$DW$255, DW_AT_name("TargetValue")
TMS320C2000 Assembler PC v6.4.2 Thu Dec 14 15:27:05 2017

Tools Copyright (c) 1996-2015 Texas Instruments Incorporated
fsm_main.asm                                                         PAGE   51

    2620                      .dwattr $C$DW$255, DW_AT_TI_symbol_name("_TargetValue")
    2621                      .dwattr $C$DW$255, DW_AT_data_member_location[DW_OP_plus_uconst 0x0]
    2622                      .dwattr $C$DW$255, DW_AT_accessibility(DW_ACCESS_public)
    2623              $C$DW$256       .dwtag  DW_TAG_member
    2624                      .dwattr $C$DW$256, DW_AT_type(*$C$DW$T$20)
    2625                      .dwattr $C$DW$256, DW_AT_name("RampDelayMax")
    2626                      .dwattr $C$DW$256, DW_AT_TI_symbol_name("_RampDelayMax")
    2627                      .dwattr $C$DW$256, DW_AT_data_member_location[DW_OP_plus_uconst 0x2]
    2628                      .dwattr $C$DW$256, DW_AT_accessibility(DW_ACCESS_public)
    2629              $C$DW$257       .dwtag  DW_TAG_member
    2630                      .dwattr $C$DW$257, DW_AT_type(*$C$DW$T$22)
    2631                      .dwattr $C$DW$257, DW_AT_name("RampLowLimit")
    2632                      .dwattr $C$DW$257, DW_AT_TI_symbol_name("_RampLowLimit")
    2633                      .dwattr $C$DW$257, DW_AT_data_member_location[DW_OP_plus_uconst 0x4]
    2634                      .dwattr $C$DW$257, DW_AT_accessibility(DW_ACCESS_public)
    2635              $C$DW$258       .dwtag  DW_TAG_member
    2636                      .dwattr $C$DW$258, DW_AT_type(*$C$DW$T$22)
    2637                      .dwattr $C$DW$258, DW_AT_name("RampHighLimit")
    2638                      .dwattr $C$DW$258, DW_AT_TI_symbol_name("_RampHighLimit")
    2639                      .dwattr $C$DW$258, DW_AT_data_member_location[DW_OP_plus_uconst 0x6]
    2640                      .dwattr $C$DW$258, DW_AT_accessibility(DW_ACCESS_public)
    2641              $C$DW$259       .dwtag  DW_TAG_member
    2642                      .dwattr $C$DW$259, DW_AT_type(*$C$DW$T$20)
    2643                      .dwattr $C$DW$259, DW_AT_name("RampDelayCount")
    2644                      .dwattr $C$DW$259, DW_AT_TI_symbol_name("_RampDelayCount")
    2645                      .dwattr $C$DW$259, DW_AT_data_member_location[DW_OP_plus_uconst 0x8]
    2646                      .dwattr $C$DW$259, DW_AT_accessibility(DW_ACCESS_public)
    2647              $C$DW$260       .dwtag  DW_TAG_member
    2648                      .dwattr $C$DW$260, DW_AT_type(*$C$DW$T$22)
    2649                      .dwattr $C$DW$260, DW_AT_name("SetpointValue")
    2650                      .dwattr $C$DW$260, DW_AT_TI_symbol_name("_SetpointValue")
    2651                      .dwattr $C$DW$260, DW_AT_data_member_location[DW_OP_plus_uconst 0xa]
    2652                      .dwattr $C$DW$260, DW_AT_accessibility(DW_ACCESS_public)
    2653              $C$DW$261       .dwtag  DW_TAG_member
    2654                      .dwattr $C$DW$261, DW_AT_type(*$C$DW$T$20)
    2655                      .dwattr $C$DW$261, DW_AT_name("EqualFlag")
    2656                      .dwattr $C$DW$261, DW_AT_TI_symbol_name("_EqualFlag")
    2657                      .dwattr $C$DW$261, DW_AT_data_member_location[DW_OP_plus_uconst 0xc]
    2658                      .dwattr $C$DW$261, DW_AT_accessibility(DW_ACCESS_public)
    2659              $C$DW$262       .dwtag  DW_TAG_member
    2660                      .dwattr $C$DW$262, DW_AT_type(*$C$DW$T$22)
    2661                      .dwattr $C$DW$262, DW_AT_name("Tmp")
    2662                      .dwattr $C$DW$262, DW_AT_TI_symbol_name("_Tmp")
    2663                      .dwattr $C$DW$262, DW_AT_data_member_location[DW_OP_plus_uconst 0xe]
    2664                      .dwattr $C$DW$262, DW_AT_accessibility(DW_ACCESS_public)
    2665                      .dwendtag $C$DW$T$36
    2666              
    2667              $C$DW$T$72      .dwtag  DW_TAG_typedef, DW_AT_name("RMPCNTL")
    2668                      .dwattr $C$DW$T$72, DW_AT_type(*$C$DW$T$36)
    2669                      .dwattr $C$DW$T$72, DW_AT_language(DW_LANG_C)
    2670              
    2671              $C$DW$T$37      .dwtag  DW_TAG_structure_type
    2672                      .dwattr $C$DW$T$37, DW_AT_byte_size(0x0c)
    2673              $C$DW$263       .dwtag  DW_TAG_member
    2674                      .dwattr $C$DW$263, DW_AT_type(*$C$DW$T$22)
TMS320C2000 Assembler PC v6.4.2 Thu Dec 14 15:27:05 2017

Tools Copyright (c) 1996-2015 Texas Instruments Incorporated
fsm_main.asm                                                         PAGE   52

    2675                      .dwattr $C$DW$263, DW_AT_name("Freq")
    2676                      .dwattr $C$DW$263, DW_AT_TI_symbol_name("_Freq")
    2677                      .dwattr $C$DW$263, DW_AT_data_member_location[DW_OP_plus_uconst 0x0]
    2678                      .dwattr $C$DW$263, DW_AT_accessibility(DW_ACCESS_public)
    2679              $C$DW$264       .dwtag  DW_TAG_member
    2680                      .dwattr $C$DW$264, DW_AT_type(*$C$DW$T$22)
    2681                      .dwattr $C$DW$264, DW_AT_name("StepAngleMax")
    2682                      .dwattr $C$DW$264, DW_AT_TI_symbol_name("_StepAngleMax")
    2683                      .dwattr $C$DW$264, DW_AT_data_member_location[DW_OP_plus_uconst 0x2]
    2684                      .dwattr $C$DW$264, DW_AT_accessibility(DW_ACCESS_public)
    2685              $C$DW$265       .dwtag  DW_TAG_member
    2686                      .dwattr $C$DW$265, DW_AT_type(*$C$DW$T$22)
    2687                      .dwattr $C$DW$265, DW_AT_name("Angle")
    2688                      .dwattr $C$DW$265, DW_AT_TI_symbol_name("_Angle")
    2689                      .dwattr $C$DW$265, DW_AT_data_member_location[DW_OP_plus_uconst 0x4]
    2690                      .dwattr $C$DW$265, DW_AT_accessibility(DW_ACCESS_public)
    2691              $C$DW$266       .dwtag  DW_TAG_member
    2692                      .dwattr $C$DW$266, DW_AT_type(*$C$DW$T$22)
    2693                      .dwattr $C$DW$266, DW_AT_name("Gain")
    2694                      .dwattr $C$DW$266, DW_AT_TI_symbol_name("_Gain")
    2695                      .dwattr $C$DW$266, DW_AT_data_member_location[DW_OP_plus_uconst 0x6]
    2696                      .dwattr $C$DW$266, DW_AT_accessibility(DW_ACCESS_public)
    2697              $C$DW$267       .dwtag  DW_TAG_member
    2698                      .dwattr $C$DW$267, DW_AT_type(*$C$DW$T$22)
    2699                      .dwattr $C$DW$267, DW_AT_name("Out")
    2700                      .dwattr $C$DW$267, DW_AT_TI_symbol_name("_Out")
    2701                      .dwattr $C$DW$267, DW_AT_data_member_location[DW_OP_plus_uconst 0x8]
    2702                      .dwattr $C$DW$267, DW_AT_accessibility(DW_ACCESS_public)
    2703              $C$DW$268       .dwtag  DW_TAG_member
    2704                      .dwattr $C$DW$268, DW_AT_type(*$C$DW$T$22)
    2705                      .dwattr $C$DW$268, DW_AT_name("Offset")
    2706                      .dwattr $C$DW$268, DW_AT_TI_symbol_name("_Offset")
    2707                      .dwattr $C$DW$268, DW_AT_data_member_location[DW_OP_plus_uconst 0xa]
    2708                      .dwattr $C$DW$268, DW_AT_accessibility(DW_ACCESS_public)
    2709                      .dwendtag $C$DW$T$37
    2710              
    2711              $C$DW$T$73      .dwtag  DW_TAG_typedef, DW_AT_name("RAMPGEN")
    2712                      .dwattr $C$DW$T$73, DW_AT_type(*$C$DW$T$37)
    2713                      .dwattr $C$DW$T$73, DW_AT_language(DW_LANG_C)
    2714              
    2715              $C$DW$T$38      .dwtag  DW_TAG_structure_type
    2716                      .dwattr $C$DW$T$38, DW_AT_byte_size(0x16)
    2717              $C$DW$269       .dwtag  DW_TAG_member
    2718                      .dwattr $C$DW$269, DW_AT_type(*$C$DW$T$22)
    2719                      .dwattr $C$DW$269, DW_AT_name("DcBusVolt")
    2720                      .dwattr $C$DW$269, DW_AT_TI_symbol_name("_DcBusVolt")
    2721                      .dwattr $C$DW$269, DW_AT_data_member_location[DW_OP_plus_uconst 0x0]
    2722                      .dwattr $C$DW$269, DW_AT_accessibility(DW_ACCESS_public)
    2723              $C$DW$270       .dwtag  DW_TAG_member
    2724                      .dwattr $C$DW$270, DW_AT_type(*$C$DW$T$22)
    2725                      .dwattr $C$DW$270, DW_AT_name("MfuncV1")
    2726                      .dwattr $C$DW$270, DW_AT_TI_symbol_name("_MfuncV1")
    2727                      .dwattr $C$DW$270, DW_AT_data_member_location[DW_OP_plus_uconst 0x2]
    2728                      .dwattr $C$DW$270, DW_AT_accessibility(DW_ACCESS_public)
    2729              $C$DW$271       .dwtag  DW_TAG_member
TMS320C2000 Assembler PC v6.4.2 Thu Dec 14 15:27:05 2017

Tools Copyright (c) 1996-2015 Texas Instruments Incorporated
fsm_main.asm                                                         PAGE   53

    2730                      .dwattr $C$DW$271, DW_AT_type(*$C$DW$T$22)
    2731                      .dwattr $C$DW$271, DW_AT_name("MfuncV2")
    2732                      .dwattr $C$DW$271, DW_AT_TI_symbol_name("_MfuncV2")
    2733                      .dwattr $C$DW$271, DW_AT_data_member_location[DW_OP_plus_uconst 0x4]
    2734                      .dwattr $C$DW$271, DW_AT_accessibility(DW_ACCESS_public)
    2735              $C$DW$272       .dwtag  DW_TAG_member
    2736                      .dwattr $C$DW$272, DW_AT_type(*$C$DW$T$22)
    2737                      .dwattr $C$DW$272, DW_AT_name("MfuncV3")
    2738                      .dwattr $C$DW$272, DW_AT_TI_symbol_name("_MfuncV3")
    2739                      .dwattr $C$DW$272, DW_AT_data_member_location[DW_OP_plus_uconst 0x6]
    2740                      .dwattr $C$DW$272, DW_AT_accessibility(DW_ACCESS_public)
    2741              $C$DW$273       .dwtag  DW_TAG_member
    2742                      .dwattr $C$DW$273, DW_AT_type(*$C$DW$T$34)
    2743                      .dwattr $C$DW$273, DW_AT_name("OutOfPhase")
    2744                      .dwattr $C$DW$273, DW_AT_TI_symbol_name("_OutOfPhase")
    2745                      .dwattr $C$DW$273, DW_AT_data_member_location[DW_OP_plus_uconst 0x8]
    2746                      .dwattr $C$DW$273, DW_AT_accessibility(DW_ACCESS_public)
    2747              $C$DW$274       .dwtag  DW_TAG_member
    2748                      .dwattr $C$DW$274, DW_AT_type(*$C$DW$T$22)
    2749                      .dwattr $C$DW$274, DW_AT_name("VphaseA")
    2750                      .dwattr $C$DW$274, DW_AT_TI_symbol_name("_VphaseA")
    2751                      .dwattr $C$DW$274, DW_AT_data_member_location[DW_OP_plus_uconst 0xa]
    2752                      .dwattr $C$DW$274, DW_AT_accessibility(DW_ACCESS_public)
    2753              $C$DW$275       .dwtag  DW_TAG_member
    2754                      .dwattr $C$DW$275, DW_AT_type(*$C$DW$T$22)
    2755                      .dwattr $C$DW$275, DW_AT_name("VphaseB")
    2756                      .dwattr $C$DW$275, DW_AT_TI_symbol_name("_VphaseB")
    2757                      .dwattr $C$DW$275, DW_AT_data_member_location[DW_OP_plus_uconst 0xc]
    2758                      .dwattr $C$DW$275, DW_AT_accessibility(DW_ACCESS_public)
    2759              $C$DW$276       .dwtag  DW_TAG_member
    2760                      .dwattr $C$DW$276, DW_AT_type(*$C$DW$T$22)
    2761                      .dwattr $C$DW$276, DW_AT_name("VphaseC")
    2762                      .dwattr $C$DW$276, DW_AT_TI_symbol_name("_VphaseC")
    2763                      .dwattr $C$DW$276, DW_AT_data_member_location[DW_OP_plus_uconst 0xe]
    2764                      .dwattr $C$DW$276, DW_AT_accessibility(DW_ACCESS_public)
    2765              $C$DW$277       .dwtag  DW_TAG_member
    2766                      .dwattr $C$DW$277, DW_AT_type(*$C$DW$T$22)
    2767                      .dwattr $C$DW$277, DW_AT_name("Valpha")
    2768                      .dwattr $C$DW$277, DW_AT_TI_symbol_name("_Valpha")
    2769                      .dwattr $C$DW$277, DW_AT_data_member_location[DW_OP_plus_uconst 0x10]
    2770                      .dwattr $C$DW$277, DW_AT_accessibility(DW_ACCESS_public)
    2771              $C$DW$278       .dwtag  DW_TAG_member
    2772                      .dwattr $C$DW$278, DW_AT_type(*$C$DW$T$22)
    2773                      .dwattr $C$DW$278, DW_AT_name("Vbeta")
    2774                      .dwattr $C$DW$278, DW_AT_TI_symbol_name("_Vbeta")
    2775                      .dwattr $C$DW$278, DW_AT_data_member_location[DW_OP_plus_uconst 0x12]
    2776                      .dwattr $C$DW$278, DW_AT_accessibility(DW_ACCESS_public)
    2777              $C$DW$279       .dwtag  DW_TAG_member
    2778                      .dwattr $C$DW$279, DW_AT_type(*$C$DW$T$22)
    2779                      .dwattr $C$DW$279, DW_AT_name("temp")
    2780                      .dwattr $C$DW$279, DW_AT_TI_symbol_name("_temp")
    2781                      .dwattr $C$DW$279, DW_AT_data_member_location[DW_OP_plus_uconst 0x14]
    2782                      .dwattr $C$DW$279, DW_AT_accessibility(DW_ACCESS_public)
    2783                      .dwendtag $C$DW$T$38
    2784              
TMS320C2000 Assembler PC v6.4.2 Thu Dec 14 15:27:05 2017

Tools Copyright (c) 1996-2015 Texas Instruments Incorporated
fsm_main.asm                                                         PAGE   54

    2785              $C$DW$T$74      .dwtag  DW_TAG_typedef, DW_AT_name("PHASEVOLTAGE")
    2786                      .dwattr $C$DW$T$74, DW_AT_type(*$C$DW$T$38)
    2787                      .dwattr $C$DW$T$74, DW_AT_language(DW_LANG_C)
    2788              
    2789              $C$DW$T$41      .dwtag  DW_TAG_structure_type
    2790                      .dwattr $C$DW$T$41, DW_AT_byte_size(0x14)
    2791              $C$DW$280       .dwtag  DW_TAG_member
    2792                      .dwattr $C$DW$280, DW_AT_type(*$C$DW$T$22)
    2793                      .dwattr $C$DW$280, DW_AT_name("ElecTheta")
    2794                      .dwattr $C$DW$280, DW_AT_TI_symbol_name("_ElecTheta")
    2795                      .dwattr $C$DW$280, DW_AT_data_member_location[DW_OP_plus_uconst 0x0]
    2796                      .dwattr $C$DW$280, DW_AT_accessibility(DW_ACCESS_public)
    2797              $C$DW$281       .dwtag  DW_TAG_member
    2798                      .dwattr $C$DW$281, DW_AT_type(*$C$DW$T$20)
    2799                      .dwattr $C$DW$281, DW_AT_name("DirectionQep")
    2800                      .dwattr $C$DW$281, DW_AT_TI_symbol_name("_DirectionQep")
    2801                      .dwattr $C$DW$281, DW_AT_data_member_location[DW_OP_plus_uconst 0x2]
    2802                      .dwattr $C$DW$281, DW_AT_accessibility(DW_ACCESS_public)
    2803              $C$DW$282       .dwtag  DW_TAG_member
    2804                      .dwattr $C$DW$282, DW_AT_type(*$C$DW$T$22)
    2805                      .dwattr $C$DW$282, DW_AT_name("OldElecTheta")
    2806                      .dwattr $C$DW$282, DW_AT_TI_symbol_name("_OldElecTheta")
    2807                      .dwattr $C$DW$282, DW_AT_data_member_location[DW_OP_plus_uconst 0x4]
    2808                      .dwattr $C$DW$282, DW_AT_accessibility(DW_ACCESS_public)
    2809              $C$DW$283       .dwtag  DW_TAG_member
    2810                      .dwattr $C$DW$283, DW_AT_type(*$C$DW$T$22)
    2811                      .dwattr $C$DW$283, DW_AT_name("Speed")
    2812                      .dwattr $C$DW$283, DW_AT_TI_symbol_name("_Speed")
    2813                      .dwattr $C$DW$283, DW_AT_data_member_location[DW_OP_plus_uconst 0x6]
    2814                      .dwattr $C$DW$283, DW_AT_accessibility(DW_ACCESS_public)
    2815              $C$DW$284       .dwtag  DW_TAG_member
    2816                      .dwattr $C$DW$284, DW_AT_type(*$C$DW$T$20)
    2817                      .dwattr $C$DW$284, DW_AT_name("BaseRpm")
    2818                      .dwattr $C$DW$284, DW_AT_TI_symbol_name("_BaseRpm")
    2819                      .dwattr $C$DW$284, DW_AT_data_member_location[DW_OP_plus_uconst 0x8]
    2820                      .dwattr $C$DW$284, DW_AT_accessibility(DW_ACCESS_public)
    2821              $C$DW$285       .dwtag  DW_TAG_member
    2822                      .dwattr $C$DW$285, DW_AT_type(*$C$DW$T$39)
    2823                      .dwattr $C$DW$285, DW_AT_name("K1")
    2824                      .dwattr $C$DW$285, DW_AT_TI_symbol_name("_K1")
    2825                      .dwattr $C$DW$285, DW_AT_data_member_location[DW_OP_plus_uconst 0xa]
    2826                      .dwattr $C$DW$285, DW_AT_accessibility(DW_ACCESS_public)
    2827              $C$DW$286       .dwtag  DW_TAG_member
    2828                      .dwattr $C$DW$286, DW_AT_type(*$C$DW$T$22)
    2829                      .dwattr $C$DW$286, DW_AT_name("K2")
    2830                      .dwattr $C$DW$286, DW_AT_TI_symbol_name("_K2")
    2831                      .dwattr $C$DW$286, DW_AT_data_member_location[DW_OP_plus_uconst 0xc]
    2832                      .dwattr $C$DW$286, DW_AT_accessibility(DW_ACCESS_public)
    2833              $C$DW$287       .dwtag  DW_TAG_member
    2834                      .dwattr $C$DW$287, DW_AT_type(*$C$DW$T$22)
    2835                      .dwattr $C$DW$287, DW_AT_name("K3")
    2836                      .dwattr $C$DW$287, DW_AT_TI_symbol_name("_K3")
    2837                      .dwattr $C$DW$287, DW_AT_data_member_location[DW_OP_plus_uconst 0xe]
    2838                      .dwattr $C$DW$287, DW_AT_accessibility(DW_ACCESS_public)
    2839              $C$DW$288       .dwtag  DW_TAG_member
TMS320C2000 Assembler PC v6.4.2 Thu Dec 14 15:27:05 2017

Tools Copyright (c) 1996-2015 Texas Instruments Incorporated
fsm_main.asm                                                         PAGE   55

    2840                      .dwattr $C$DW$288, DW_AT_type(*$C$DW$T$40)
    2841                      .dwattr $C$DW$288, DW_AT_name("SpeedRpm")
    2842                      .dwattr $C$DW$288, DW_AT_TI_symbol_name("_SpeedRpm")
    2843                      .dwattr $C$DW$288, DW_AT_data_member_location[DW_OP_plus_uconst 0x10]
    2844                      .dwattr $C$DW$288, DW_AT_accessibility(DW_ACCESS_public)
    2845              $C$DW$289       .dwtag  DW_TAG_member
    2846                      .dwattr $C$DW$289, DW_AT_type(*$C$DW$T$22)
    2847                      .dwattr $C$DW$289, DW_AT_name("Tmp")
    2848                      .dwattr $C$DW$289, DW_AT_TI_symbol_name("_Tmp")
    2849                      .dwattr $C$DW$289, DW_AT_data_member_location[DW_OP_plus_uconst 0x12]
    2850                      .dwattr $C$DW$289, DW_AT_accessibility(DW_ACCESS_public)
    2851                      .dwendtag $C$DW$T$41
    2852              
    2853              $C$DW$T$75      .dwtag  DW_TAG_typedef, DW_AT_name("SPEED_MEAS_QEP")
    2854                      .dwattr $C$DW$T$75, DW_AT_type(*$C$DW$T$41)
    2855                      .dwattr $C$DW$T$75, DW_AT_language(DW_LANG_C)
    2856              
    2857              $C$DW$T$42      .dwtag  DW_TAG_structure_type
    2858                      .dwattr $C$DW$T$42, DW_AT_byte_size(0x12)
    2859              $C$DW$290       .dwtag  DW_TAG_member
    2860                      .dwattr $C$DW$290, DW_AT_type(*$C$DW$T$19)
    2861                      .dwattr $C$DW$290, DW_AT_name("ElecTheta")
    2862                      .dwattr $C$DW$290, DW_AT_TI_symbol_name("_ElecTheta")
    2863                      .dwattr $C$DW$290, DW_AT_data_member_location[DW_OP_plus_uconst 0x0]
    2864                      .dwattr $C$DW$290, DW_AT_accessibility(DW_ACCESS_public)
    2865              $C$DW$291       .dwtag  DW_TAG_member
    2866                      .dwattr $C$DW$291, DW_AT_type(*$C$DW$T$19)
    2867                      .dwattr $C$DW$291, DW_AT_name("MechTheta")
    2868                      .dwattr $C$DW$291, DW_AT_TI_symbol_name("_MechTheta")
    2869                      .dwattr $C$DW$291, DW_AT_data_member_location[DW_OP_plus_uconst 0x2]
    2870                      .dwattr $C$DW$291, DW_AT_accessibility(DW_ACCESS_public)
    2871              $C$DW$292       .dwtag  DW_TAG_member
    2872                      .dwattr $C$DW$292, DW_AT_type(*$C$DW$T$34)
    2873                      .dwattr $C$DW$292, DW_AT_name("DirectionQep")
    2874                      .dwattr $C$DW$292, DW_AT_TI_symbol_name("_DirectionQep")
    2875                      .dwattr $C$DW$292, DW_AT_data_member_location[DW_OP_plus_uconst 0x4]
    2876                      .dwattr $C$DW$292, DW_AT_accessibility(DW_ACCESS_public)
    2877              $C$DW$293       .dwtag  DW_TAG_member
    2878                      .dwattr $C$DW$293, DW_AT_type(*$C$DW$T$34)
    2879                      .dwattr $C$DW$293, DW_AT_name("QepPeriod")
    2880                      .dwattr $C$DW$293, DW_AT_TI_symbol_name("_QepPeriod")
    2881                      .dwattr $C$DW$293, DW_AT_data_member_location[DW_OP_plus_uconst 0x5]
    2882                      .dwattr $C$DW$293, DW_AT_accessibility(DW_ACCESS_public)
    2883              $C$DW$294       .dwtag  DW_TAG_member
    2884                      .dwattr $C$DW$294, DW_AT_type(*$C$DW$T$20)
    2885                      .dwattr $C$DW$294, DW_AT_name("QepCountIndex")
    2886                      .dwattr $C$DW$294, DW_AT_TI_symbol_name("_QepCountIndex")
    2887                      .dwattr $C$DW$294, DW_AT_data_member_location[DW_OP_plus_uconst 0x6]
    2888                      .dwattr $C$DW$294, DW_AT_accessibility(DW_ACCESS_public)
    2889              $C$DW$295       .dwtag  DW_TAG_member
    2890                      .dwattr $C$DW$295, DW_AT_type(*$C$DW$T$40)
    2891                      .dwattr $C$DW$295, DW_AT_name("RawTheta")
    2892                      .dwattr $C$DW$295, DW_AT_TI_symbol_name("_RawTheta")
    2893                      .dwattr $C$DW$295, DW_AT_data_member_location[DW_OP_plus_uconst 0x8]
    2894                      .dwattr $C$DW$295, DW_AT_accessibility(DW_ACCESS_public)
TMS320C2000 Assembler PC v6.4.2 Thu Dec 14 15:27:05 2017

Tools Copyright (c) 1996-2015 Texas Instruments Incorporated
fsm_main.asm                                                         PAGE   56

    2895              $C$DW$296       .dwtag  DW_TAG_member
    2896                      .dwattr $C$DW$296, DW_AT_type(*$C$DW$T$19)
    2897                      .dwattr $C$DW$296, DW_AT_name("MechScaler")
    2898                      .dwattr $C$DW$296, DW_AT_TI_symbol_name("_MechScaler")
    2899                      .dwattr $C$DW$296, DW_AT_data_member_location[DW_OP_plus_uconst 0xa]
    2900                      .dwattr $C$DW$296, DW_AT_accessibility(DW_ACCESS_public)
    2901              $C$DW$297       .dwtag  DW_TAG_member
    2902                      .dwattr $C$DW$297, DW_AT_type(*$C$DW$T$34)
    2903                      .dwattr $C$DW$297, DW_AT_name("LineEncoder")
    2904                      .dwattr $C$DW$297, DW_AT_TI_symbol_name("_LineEncoder")
    2905                      .dwattr $C$DW$297, DW_AT_data_member_location[DW_OP_plus_uconst 0xc]
    2906                      .dwattr $C$DW$297, DW_AT_accessibility(DW_ACCESS_public)
    2907              $C$DW$298       .dwtag  DW_TAG_member
    2908                      .dwattr $C$DW$298, DW_AT_type(*$C$DW$T$34)
    2909                      .dwattr $C$DW$298, DW_AT_name("PolePairs")
    2910                      .dwattr $C$DW$298, DW_AT_TI_symbol_name("_PolePairs")
    2911                      .dwattr $C$DW$298, DW_AT_data_member_location[DW_OP_plus_uconst 0xd]
    2912                      .dwattr $C$DW$298, DW_AT_accessibility(DW_ACCESS_public)
    2913              $C$DW$299       .dwtag  DW_TAG_member
    2914                      .dwattr $C$DW$299, DW_AT_type(*$C$DW$T$40)
    2915                      .dwattr $C$DW$299, DW_AT_name("CalibratedAngle")
    2916                      .dwattr $C$DW$299, DW_AT_TI_symbol_name("_CalibratedAngle")
    2917                      .dwattr $C$DW$299, DW_AT_data_member_location[DW_OP_plus_uconst 0xe]
    2918                      .dwattr $C$DW$299, DW_AT_accessibility(DW_ACCESS_public)
    2919              $C$DW$300       .dwtag  DW_TAG_member
    2920                      .dwattr $C$DW$300, DW_AT_type(*$C$DW$T$34)
    2921                      .dwattr $C$DW$300, DW_AT_name("IndexSyncFlag")
    2922                      .dwattr $C$DW$300, DW_AT_TI_symbol_name("_IndexSyncFlag")
    2923                      .dwattr $C$DW$300, DW_AT_data_member_location[DW_OP_plus_uconst 0x10]
    2924                      .dwattr $C$DW$300, DW_AT_accessibility(DW_ACCESS_public)
    2925                      .dwendtag $C$DW$T$42
    2926              
    2927              $C$DW$T$76      .dwtag  DW_TAG_typedef, DW_AT_name("QEP")
    2928                      .dwattr $C$DW$T$76, DW_AT_type(*$C$DW$T$42)
    2929                      .dwattr $C$DW$T$76, DW_AT_language(DW_LANG_C)
    2930              
    2931              $C$DW$T$47      .dwtag  DW_TAG_structure_type
    2932                      .dwattr $C$DW$T$47, DW_AT_byte_size(0x07)
    2933              $C$DW$301       .dwtag  DW_TAG_member
    2934                      .dwattr $C$DW$301, DW_AT_type(*$C$DW$T$43)
    2935                      .dwattr $C$DW$301, DW_AT_name("stat_reg1")
    2936                      .dwattr $C$DW$301, DW_AT_TI_symbol_name("_stat_reg1")
    2937                      .dwattr $C$DW$301, DW_AT_data_member_location[DW_OP_plus_uconst 0x0]
    2938                      .dwattr $C$DW$301, DW_AT_accessibility(DW_ACCESS_public)
    2939              $C$DW$302       .dwtag  DW_TAG_member
    2940                      .dwattr $C$DW$302, DW_AT_type(*$C$DW$T$44)
    2941                      .dwattr $C$DW$302, DW_AT_name("stat_reg2")
    2942                      .dwattr $C$DW$302, DW_AT_TI_symbol_name("_stat_reg2")
    2943                      .dwattr $C$DW$302, DW_AT_data_member_location[DW_OP_plus_uconst 0x1]
    2944                      .dwattr $C$DW$302, DW_AT_accessibility(DW_ACCESS_public)
    2945              $C$DW$303       .dwtag  DW_TAG_member
    2946                      .dwattr $C$DW$303, DW_AT_type(*$C$DW$T$45)
    2947                      .dwattr $C$DW$303, DW_AT_name("cntrl_reg1")
    2948                      .dwattr $C$DW$303, DW_AT_TI_symbol_name("_cntrl_reg1")
    2949                      .dwattr $C$DW$303, DW_AT_data_member_location[DW_OP_plus_uconst 0x2]
TMS320C2000 Assembler PC v6.4.2 Thu Dec 14 15:27:05 2017

Tools Copyright (c) 1996-2015 Texas Instruments Incorporated
fsm_main.asm                                                         PAGE   57

    2950                      .dwattr $C$DW$303, DW_AT_accessibility(DW_ACCESS_public)
    2951              $C$DW$304       .dwtag  DW_TAG_member
    2952                      .dwattr $C$DW$304, DW_AT_type(*$C$DW$T$46)
    2953                      .dwattr $C$DW$304, DW_AT_name("cntrl_reg2")
    2954                      .dwattr $C$DW$304, DW_AT_TI_symbol_name("_cntrl_reg2")
    2955                      .dwattr $C$DW$304, DW_AT_data_member_location[DW_OP_plus_uconst 0x3]
    2956                      .dwattr $C$DW$304, DW_AT_accessibility(DW_ACCESS_public)
    2957              $C$DW$305       .dwtag  DW_TAG_member
    2958                      .dwattr $C$DW$305, DW_AT_type(*$C$DW$T$34)
    2959                      .dwattr $C$DW$305, DW_AT_name("readCntrl1")
    2960                      .dwattr $C$DW$305, DW_AT_TI_symbol_name("_readCntrl1")
    2961                      .dwattr $C$DW$305, DW_AT_data_member_location[DW_OP_plus_uconst 0x4]
    2962                      .dwattr $C$DW$305, DW_AT_accessibility(DW_ACCESS_public)
    2963              $C$DW$306       .dwtag  DW_TAG_member
    2964                      .dwattr $C$DW$306, DW_AT_type(*$C$DW$T$34)
    2965                      .dwattr $C$DW$306, DW_AT_name("readCntrl2")
    2966                      .dwattr $C$DW$306, DW_AT_TI_symbol_name("_readCntrl2")
    2967                      .dwattr $C$DW$306, DW_AT_data_member_location[DW_OP_plus_uconst 0x5]
    2968                      .dwattr $C$DW$306, DW_AT_accessibility(DW_ACCESS_public)
    2969              $C$DW$307       .dwtag  DW_TAG_member
    2970                      .dwattr $C$DW$307, DW_AT_type(*$C$DW$T$34)
    2971                      .dwattr $C$DW$307, DW_AT_name("DRV_fault")
    2972                      .dwattr $C$DW$307, DW_AT_TI_symbol_name("_DRV_fault")
    2973                      .dwattr $C$DW$307, DW_AT_data_member_location[DW_OP_plus_uconst 0x6]
    2974                      .dwattr $C$DW$307, DW_AT_accessibility(DW_ACCESS_public)
    2975                      .dwendtag $C$DW$T$47
    2976              
    2977              $C$DW$T$77      .dwtag  DW_TAG_typedef, DW_AT_name("DRV8301_Vars")
    2978                      .dwattr $C$DW$T$77, DW_AT_type(*$C$DW$T$47)
    2979                      .dwattr $C$DW$T$77, DW_AT_language(DW_LANG_C)
    2980              
    2981              $C$DW$T$59      .dwtag  DW_TAG_structure_type
    2982                      .dwattr $C$DW$T$59, DW_AT_byte_size(0x15)
    2983              $C$DW$308       .dwtag  DW_TAG_member
    2984                      .dwattr $C$DW$308, DW_AT_type(*$C$DW$T$34)
    2985                      .dwattr $C$DW$308, DW_AT_name("Rsvd0")
    2986                      .dwattr $C$DW$308, DW_AT_TI_symbol_name("_Rsvd0")
    2987                      .dwattr $C$DW$308, DW_AT_data_member_location[DW_OP_plus_uconst 0x0]
    2988                      .dwattr $C$DW$308, DW_AT_accessibility(DW_ACCESS_public)
    2989              $C$DW$309       .dwtag  DW_TAG_member
    2990                      .dwattr $C$DW$309, DW_AT_type(*$C$DW$T$48)
    2991                      .dwattr $C$DW$309, DW_AT_name("status1_wwd")
    2992                      .dwattr $C$DW$309, DW_AT_TI_symbol_name("_status1_wwd")
    2993                      .dwattr $C$DW$309, DW_AT_data_member_location[DW_OP_plus_uconst 0x1]
    2994                      .dwattr $C$DW$309, DW_AT_accessibility(DW_ACCESS_public)
    2995              $C$DW$310       .dwtag  DW_TAG_member
    2996                      .dwattr $C$DW$310, DW_AT_type(*$C$DW$T$49)
    2997                      .dwattr $C$DW$310, DW_AT_name("status2_ov_vds")
    2998                      .dwattr $C$DW$310, DW_AT_TI_symbol_name("_status2_ov_vds")
    2999                      .dwattr $C$DW$310, DW_AT_data_member_location[DW_OP_plus_uconst 0x2]
    3000                      .dwattr $C$DW$310, DW_AT_accessibility(DW_ACCESS_public)
    3001              $C$DW$311       .dwtag  DW_TAG_member
    3002                      .dwattr $C$DW$311, DW_AT_type(*$C$DW$T$50)
    3003                      .dwattr $C$DW$311, DW_AT_name("status3_IC")
    3004                      .dwattr $C$DW$311, DW_AT_TI_symbol_name("_status3_IC")
TMS320C2000 Assembler PC v6.4.2 Thu Dec 14 15:27:05 2017

Tools Copyright (c) 1996-2015 Texas Instruments Incorporated
fsm_main.asm                                                         PAGE   58

    3005                      .dwattr $C$DW$311, DW_AT_data_member_location[DW_OP_plus_uconst 0x3]
    3006                      .dwattr $C$DW$311, DW_AT_accessibility(DW_ACCESS_public)
    3007              $C$DW$312       .dwtag  DW_TAG_member
    3008                      .dwattr $C$DW$312, DW_AT_type(*$C$DW$T$51)
    3009                      .dwattr $C$DW$312, DW_AT_name("status4_gd_Vgs")
    3010                      .dwattr $C$DW$312, DW_AT_TI_symbol_name("_status4_gd_Vgs")
    3011                      .dwattr $C$DW$312, DW_AT_data_member_location[DW_OP_plus_uconst 0x4]
    3012                      .dwattr $C$DW$312, DW_AT_accessibility(DW_ACCESS_public)
    3013              $C$DW$313       .dwtag  DW_TAG_member
    3014                      .dwattr $C$DW$313, DW_AT_type(*$C$DW$T$52)
    3015                      .dwattr $C$DW$313, DW_AT_name("cntrl5_hs_gd")
    3016                      .dwattr $C$DW$313, DW_AT_TI_symbol_name("_cntrl5_hs_gd")
    3017                      .dwattr $C$DW$313, DW_AT_data_member_location[DW_OP_plus_uconst 0x5]
    3018                      .dwattr $C$DW$313, DW_AT_accessibility(DW_ACCESS_public)
    3019              $C$DW$314       .dwtag  DW_TAG_member
    3020                      .dwattr $C$DW$314, DW_AT_type(*$C$DW$T$53)
    3021                      .dwattr $C$DW$314, DW_AT_name("cntrl6_ls_gd")
    3022                      .dwattr $C$DW$314, DW_AT_TI_symbol_name("_cntrl6_ls_gd")
    3023                      .dwattr $C$DW$314, DW_AT_data_member_location[DW_OP_plus_uconst 0x6]
    3024                      .dwattr $C$DW$314, DW_AT_accessibility(DW_ACCESS_public)
    3025              $C$DW$315       .dwtag  DW_TAG_member
    3026                      .dwattr $C$DW$315, DW_AT_type(*$C$DW$T$54)
    3027                      .dwattr $C$DW$315, DW_AT_name("cntrl7_gd")
    3028                      .dwattr $C$DW$315, DW_AT_TI_symbol_name("_cntrl7_gd")
    3029                      .dwattr $C$DW$315, DW_AT_data_member_location[DW_OP_plus_uconst 0x7]
    3030                      .dwattr $C$DW$315, DW_AT_accessibility(DW_ACCESS_public)
    3031              $C$DW$316       .dwtag  DW_TAG_member
    3032                      .dwattr $C$DW$316, DW_AT_type(*$C$DW$T$34)
    3033                      .dwattr $C$DW$316, DW_AT_name("Rsvd8")
    3034                      .dwattr $C$DW$316, DW_AT_TI_symbol_name("_Rsvd8")
    3035                      .dwattr $C$DW$316, DW_AT_data_member_location[DW_OP_plus_uconst 0x8]
    3036                      .dwattr $C$DW$316, DW_AT_accessibility(DW_ACCESS_public)
    3037              $C$DW$317       .dwtag  DW_TAG_member
    3038                      .dwattr $C$DW$317, DW_AT_type(*$C$DW$T$55)
    3039                      .dwattr $C$DW$317, DW_AT_name("cntrl9_IC_ops")
    3040                      .dwattr $C$DW$317, DW_AT_TI_symbol_name("_cntrl9_IC_ops")
    3041                      .dwattr $C$DW$317, DW_AT_data_member_location[DW_OP_plus_uconst 0x9]
    3042                      .dwattr $C$DW$317, DW_AT_accessibility(DW_ACCESS_public)
    3043              $C$DW$318       .dwtag  DW_TAG_member
    3044                      .dwattr $C$DW$318, DW_AT_type(*$C$DW$T$56)
    3045                      .dwattr $C$DW$318, DW_AT_name("cntrlA_shunt_amp")
    3046                      .dwattr $C$DW$318, DW_AT_TI_symbol_name("_cntrlA_shunt_amp")
    3047                      .dwattr $C$DW$318, DW_AT_data_member_location[DW_OP_plus_uconst 0xa]
    3048                      .dwattr $C$DW$318, DW_AT_accessibility(DW_ACCESS_public)
    3049              $C$DW$319       .dwtag  DW_TAG_member
    3050                      .dwattr $C$DW$319, DW_AT_type(*$C$DW$T$57)
    3051                      .dwattr $C$DW$319, DW_AT_name("cntrlB_Vreg")
    3052                      .dwattr $C$DW$319, DW_AT_TI_symbol_name("_cntrlB_Vreg")
    3053                      .dwattr $C$DW$319, DW_AT_data_member_location[DW_OP_plus_uconst 0xb]
    3054                      .dwattr $C$DW$319, DW_AT_accessibility(DW_ACCESS_public)
    3055              $C$DW$320       .dwtag  DW_TAG_member
    3056                      .dwattr $C$DW$320, DW_AT_type(*$C$DW$T$58)
    3057                      .dwattr $C$DW$320, DW_AT_name("cntrlC_Vds_SNS")
    3058                      .dwattr $C$DW$320, DW_AT_TI_symbol_name("_cntrlC_Vds_SNS")
    3059                      .dwattr $C$DW$320, DW_AT_data_member_location[DW_OP_plus_uconst 0xc]
TMS320C2000 Assembler PC v6.4.2 Thu Dec 14 15:27:05 2017

Tools Copyright (c) 1996-2015 Texas Instruments Incorporated
fsm_main.asm                                                         PAGE   59

    3060                      .dwattr $C$DW$320, DW_AT_accessibility(DW_ACCESS_public)
    3061              $C$DW$321       .dwtag  DW_TAG_member
    3062                      .dwattr $C$DW$321, DW_AT_type(*$C$DW$T$34)
    3063                      .dwattr $C$DW$321, DW_AT_name("readCntrl5")
    3064                      .dwattr $C$DW$321, DW_AT_TI_symbol_name("_readCntrl5")
    3065                      .dwattr $C$DW$321, DW_AT_data_member_location[DW_OP_plus_uconst 0xd]
    3066                      .dwattr $C$DW$321, DW_AT_accessibility(DW_ACCESS_public)
    3067              $C$DW$322       .dwtag  DW_TAG_member
    3068                      .dwattr $C$DW$322, DW_AT_type(*$C$DW$T$34)
    3069                      .dwattr $C$DW$322, DW_AT_name("readCntrl6")
    3070                      .dwattr $C$DW$322, DW_AT_TI_symbol_name("_readCntrl6")
    3071                      .dwattr $C$DW$322, DW_AT_data_member_location[DW_OP_plus_uconst 0xe]
    3072                      .dwattr $C$DW$322, DW_AT_accessibility(DW_ACCESS_public)
    3073              $C$DW$323       .dwtag  DW_TAG_member
    3074                      .dwattr $C$DW$323, DW_AT_type(*$C$DW$T$34)
    3075                      .dwattr $C$DW$323, DW_AT_name("readCntrl7")
    3076                      .dwattr $C$DW$323, DW_AT_TI_symbol_name("_readCntrl7")
    3077                      .dwattr $C$DW$323, DW_AT_data_member_location[DW_OP_plus_uconst 0xf]
    3078                      .dwattr $C$DW$323, DW_AT_accessibility(DW_ACCESS_public)
    3079              $C$DW$324       .dwtag  DW_TAG_member
    3080                      .dwattr $C$DW$324, DW_AT_type(*$C$DW$T$34)
    3081                      .dwattr $C$DW$324, DW_AT_name("readCntrl9")
    3082                      .dwattr $C$DW$324, DW_AT_TI_symbol_name("_readCntrl9")
    3083                      .dwattr $C$DW$324, DW_AT_data_member_location[DW_OP_plus_uconst 0x10]
    3084                      .dwattr $C$DW$324, DW_AT_accessibility(DW_ACCESS_public)
    3085              $C$DW$325       .dwtag  DW_TAG_member
    3086                      .dwattr $C$DW$325, DW_AT_type(*$C$DW$T$34)
    3087                      .dwattr $C$DW$325, DW_AT_name("readCntrlA")
    3088                      .dwattr $C$DW$325, DW_AT_TI_symbol_name("_readCntrlA")
    3089                      .dwattr $C$DW$325, DW_AT_data_member_location[DW_OP_plus_uconst 0x11]
    3090                      .dwattr $C$DW$325, DW_AT_accessibility(DW_ACCESS_public)
    3091              $C$DW$326       .dwtag  DW_TAG_member
    3092                      .dwattr $C$DW$326, DW_AT_type(*$C$DW$T$34)
    3093                      .dwattr $C$DW$326, DW_AT_name("readCntrlB")
    3094                      .dwattr $C$DW$326, DW_AT_TI_symbol_name("_readCntrlB")
    3095                      .dwattr $C$DW$326, DW_AT_data_member_location[DW_OP_plus_uconst 0x12]
    3096                      .dwattr $C$DW$326, DW_AT_accessibility(DW_ACCESS_public)
    3097              $C$DW$327       .dwtag  DW_TAG_member
    3098                      .dwattr $C$DW$327, DW_AT_type(*$C$DW$T$34)
    3099                      .dwattr $C$DW$327, DW_AT_name("readCntrlC")
    3100                      .dwattr $C$DW$327, DW_AT_TI_symbol_name("_readCntrlC")
    3101                      .dwattr $C$DW$327, DW_AT_data_member_location[DW_OP_plus_uconst 0x13]
    3102                      .dwattr $C$DW$327, DW_AT_accessibility(DW_ACCESS_public)
    3103              $C$DW$328       .dwtag  DW_TAG_member
    3104                      .dwattr $C$DW$328, DW_AT_type(*$C$DW$T$34)
    3105                      .dwattr $C$DW$328, DW_AT_name("DRV_fault")
    3106                      .dwattr $C$DW$328, DW_AT_TI_symbol_name("_DRV_fault")
    3107                      .dwattr $C$DW$328, DW_AT_data_member_location[DW_OP_plus_uconst 0x14]
    3108                      .dwattr $C$DW$328, DW_AT_accessibility(DW_ACCESS_public)
    3109                      .dwendtag $C$DW$T$59
    3110              
    3111              $C$DW$T$78      .dwtag  DW_TAG_typedef, DW_AT_name("DRV8305_Vars")
    3112                      .dwattr $C$DW$T$78, DW_AT_type(*$C$DW$T$59)
    3113                      .dwattr $C$DW$T$78, DW_AT_language(DW_LANG_C)
    3114              
TMS320C2000 Assembler PC v6.4.2 Thu Dec 14 15:27:05 2017

Tools Copyright (c) 1996-2015 Texas Instruments Incorporated
fsm_main.asm                                                         PAGE   60

    3115              $C$DW$T$79      .dwtag  DW_TAG_structure_type
    3116                      .dwattr $C$DW$T$79, DW_AT_byte_size(0x14c)
    3117              $C$DW$329       .dwtag  DW_TAG_member
    3118                      .dwattr $C$DW$329, DW_AT_type(*$C$DW$T$61)
    3119                      .dwattr $C$DW$329, DW_AT_name("PwmARegs")
    3120                      .dwattr $C$DW$329, DW_AT_TI_symbol_name("_PwmARegs")
    3121                      .dwattr $C$DW$329, DW_AT_data_member_location[DW_OP_plus_uconst 0x0]
    3122                      .dwattr $C$DW$329, DW_AT_accessibility(DW_ACCESS_public)
    3123              $C$DW$330       .dwtag  DW_TAG_member
    3124                      .dwattr $C$DW$330, DW_AT_type(*$C$DW$T$61)
    3125                      .dwattr $C$DW$330, DW_AT_name("PwmBRegs")
    3126                      .dwattr $C$DW$330, DW_AT_TI_symbol_name("_PwmBRegs")
    3127                      .dwattr $C$DW$330, DW_AT_data_member_location[DW_OP_plus_uconst 0x2]
    3128                      .dwattr $C$DW$330, DW_AT_accessibility(DW_ACCESS_public)
    3129              $C$DW$331       .dwtag  DW_TAG_member
    3130                      .dwattr $C$DW$331, DW_AT_type(*$C$DW$T$61)
    3131                      .dwattr $C$DW$331, DW_AT_name("PwmCRegs")
    3132                      .dwattr $C$DW$331, DW_AT_TI_symbol_name("_PwmCRegs")
    3133                      .dwattr $C$DW$331, DW_AT_data_member_location[DW_OP_plus_uconst 0x4]
    3134                      .dwattr $C$DW$331, DW_AT_accessibility(DW_ACCESS_public)
    3135              $C$DW$332       .dwtag  DW_TAG_member
    3136                      .dwattr $C$DW$332, DW_AT_type(*$C$DW$T$63)
    3137                      .dwattr $C$DW$332, DW_AT_name("QepRegs")
    3138                      .dwattr $C$DW$332, DW_AT_TI_symbol_name("_QepRegs")
    3139                      .dwattr $C$DW$332, DW_AT_data_member_location[DW_OP_plus_uconst 0x6]
    3140                      .dwattr $C$DW$332, DW_AT_accessibility(DW_ACCESS_public)
    3141              $C$DW$333       .dwtag  DW_TAG_member
    3142                      .dwattr $C$DW$333, DW_AT_type(*$C$DW$T$65)
    3143                      .dwattr $C$DW$333, DW_AT_name("SpiRegs")
    3144                      .dwattr $C$DW$333, DW_AT_TI_symbol_name("_SpiRegs")
    3145                      .dwattr $C$DW$333, DW_AT_data_member_location[DW_OP_plus_uconst 0x8]
    3146                      .dwattr $C$DW$333, DW_AT_accessibility(DW_ACCESS_public)
    3147              $C$DW$334       .dwtag  DW_TAG_member
    3148                      .dwattr $C$DW$334, DW_AT_type(*$C$DW$T$34)
    3149                      .dwattr $C$DW$334, DW_AT_name("drvScsPin")
    3150                      .dwattr $C$DW$334, DW_AT_TI_symbol_name("_drvScsPin")
    3151                      .dwattr $C$DW$334, DW_AT_data_member_location[DW_OP_plus_uconst 0xa]
    3152                      .dwattr $C$DW$334, DW_AT_accessibility(DW_ACCESS_public)
    3153              $C$DW$335       .dwtag  DW_TAG_member
    3154                      .dwattr $C$DW$335, DW_AT_type(*$C$DW$T$22)
    3155                      .dwattr $C$DW$335, DW_AT_name("offset_shntA")
    3156                      .dwattr $C$DW$335, DW_AT_TI_symbol_name("_offset_shntA")
    3157                      .dwattr $C$DW$335, DW_AT_data_member_location[DW_OP_plus_uconst 0xc]
    3158                      .dwattr $C$DW$335, DW_AT_accessibility(DW_ACCESS_public)
    3159              $C$DW$336       .dwtag  DW_TAG_member
    3160                      .dwattr $C$DW$336, DW_AT_type(*$C$DW$T$22)
    3161                      .dwattr $C$DW$336, DW_AT_name("offset_shntB")
    3162                      .dwattr $C$DW$336, DW_AT_TI_symbol_name("_offset_shntB")
    3163                      .dwattr $C$DW$336, DW_AT_data_member_location[DW_OP_plus_uconst 0xe]
    3164                      .dwattr $C$DW$336, DW_AT_accessibility(DW_ACCESS_public)
    3165              $C$DW$337       .dwtag  DW_TAG_member
    3166                      .dwattr $C$DW$337, DW_AT_type(*$C$DW$T$22)
    3167                      .dwattr $C$DW$337, DW_AT_name("offset_shntC")
    3168                      .dwattr $C$DW$337, DW_AT_TI_symbol_name("_offset_shntC")
    3169                      .dwattr $C$DW$337, DW_AT_data_member_location[DW_OP_plus_uconst 0x10]
TMS320C2000 Assembler PC v6.4.2 Thu Dec 14 15:27:05 2017

Tools Copyright (c) 1996-2015 Texas Instruments Incorporated
fsm_main.asm                                                         PAGE   61

    3170                      .dwattr $C$DW$337, DW_AT_accessibility(DW_ACCESS_public)
    3171              $C$DW$338       .dwtag  DW_TAG_member
    3172                      .dwattr $C$DW$338, DW_AT_type(*$C$DW$T$22)
    3173                      .dwattr $C$DW$338, DW_AT_name("VdTesting")
    3174                      .dwattr $C$DW$338, DW_AT_TI_symbol_name("_VdTesting")
    3175                      .dwattr $C$DW$338, DW_AT_data_member_location[DW_OP_plus_uconst 0x12]
    3176                      .dwattr $C$DW$338, DW_AT_accessibility(DW_ACCESS_public)
    3177              $C$DW$339       .dwtag  DW_TAG_member
    3178                      .dwattr $C$DW$339, DW_AT_type(*$C$DW$T$22)
    3179                      .dwattr $C$DW$339, DW_AT_name("VqTesting")
    3180                      .dwattr $C$DW$339, DW_AT_TI_symbol_name("_VqTesting")
    3181                      .dwattr $C$DW$339, DW_AT_data_member_location[DW_OP_plus_uconst 0x14]
    3182                      .dwattr $C$DW$339, DW_AT_accessibility(DW_ACCESS_public)
    3183              $C$DW$340       .dwtag  DW_TAG_member
    3184                      .dwattr $C$DW$340, DW_AT_type(*$C$DW$T$22)
    3185                      .dwattr $C$DW$340, DW_AT_name("IdRef")
    3186                      .dwattr $C$DW$340, DW_AT_TI_symbol_name("_IdRef")
    3187                      .dwattr $C$DW$340, DW_AT_data_member_location[DW_OP_plus_uconst 0x16]
    3188                      .dwattr $C$DW$340, DW_AT_accessibility(DW_ACCESS_public)
    3189              $C$DW$341       .dwtag  DW_TAG_member
    3190                      .dwattr $C$DW$341, DW_AT_type(*$C$DW$T$22)
    3191                      .dwattr $C$DW$341, DW_AT_name("IqRef")
    3192                      .dwattr $C$DW$341, DW_AT_TI_symbol_name("_IqRef")
    3193                      .dwattr $C$DW$341, DW_AT_data_member_location[DW_OP_plus_uconst 0x18]
    3194                      .dwattr $C$DW$341, DW_AT_accessibility(DW_ACCESS_public)
    3195              $C$DW$342       .dwtag  DW_TAG_member
    3196                      .dwattr $C$DW$342, DW_AT_type(*$C$DW$T$22)
    3197                      .dwattr $C$DW$342, DW_AT_name("SpeedRef")
    3198                      .dwattr $C$DW$342, DW_AT_TI_symbol_name("_SpeedRef")
    3199                      .dwattr $C$DW$342, DW_AT_data_member_location[DW_OP_plus_uconst 0x1a]
    3200                      .dwattr $C$DW$342, DW_AT_accessibility(DW_ACCESS_public)
    3201              $C$DW$343       .dwtag  DW_TAG_member
    3202                      .dwattr $C$DW$343, DW_AT_type(*$C$DW$T$22)
    3203                      .dwattr $C$DW$343, DW_AT_name("ElecTheta")
    3204                      .dwattr $C$DW$343, DW_AT_TI_symbol_name("_ElecTheta")
    3205                      .dwattr $C$DW$343, DW_AT_data_member_location[DW_OP_plus_uconst 0x1c]
    3206                      .dwattr $C$DW$343, DW_AT_accessibility(DW_ACCESS_public)
    3207              $C$DW$344       .dwtag  DW_TAG_member
    3208                      .dwattr $C$DW$344, DW_AT_type(*$C$DW$T$22)
    3209                      .dwattr $C$DW$344, DW_AT_name("MechTheta")
    3210                      .dwattr $C$DW$344, DW_AT_TI_symbol_name("_MechTheta")
    3211                      .dwattr $C$DW$344, DW_AT_data_member_location[DW_OP_plus_uconst 0x1e]
    3212                      .dwattr $C$DW$344, DW_AT_accessibility(DW_ACCESS_public)
    3213              $C$DW$345       .dwtag  DW_TAG_member
    3214                      .dwattr $C$DW$345, DW_AT_type(*$C$DW$T$19)
    3215                      .dwattr $C$DW$345, DW_AT_name("currentAs")
    3216                      .dwattr $C$DW$345, DW_AT_TI_symbol_name("_currentAs")
    3217                      .dwattr $C$DW$345, DW_AT_data_member_location[DW_OP_plus_uconst 0x20]
    3218                      .dwattr $C$DW$345, DW_AT_accessibility(DW_ACCESS_public)
    3219              $C$DW$346       .dwtag  DW_TAG_member
    3220                      .dwattr $C$DW$346, DW_AT_type(*$C$DW$T$19)
    3221                      .dwattr $C$DW$346, DW_AT_name("currentBs")
    3222                      .dwattr $C$DW$346, DW_AT_TI_symbol_name("_currentBs")
    3223                      .dwattr $C$DW$346, DW_AT_data_member_location[DW_OP_plus_uconst 0x22]
    3224                      .dwattr $C$DW$346, DW_AT_accessibility(DW_ACCESS_public)
TMS320C2000 Assembler PC v6.4.2 Thu Dec 14 15:27:05 2017

Tools Copyright (c) 1996-2015 Texas Instruments Incorporated
fsm_main.asm                                                         PAGE   62

    3225              $C$DW$347       .dwtag  DW_TAG_member
    3226                      .dwattr $C$DW$347, DW_AT_type(*$C$DW$T$19)
    3227                      .dwattr $C$DW$347, DW_AT_name("currentCs")
    3228                      .dwattr $C$DW$347, DW_AT_TI_symbol_name("_currentCs")
    3229                      .dwattr $C$DW$347, DW_AT_data_member_location[DW_OP_plus_uconst 0x24]
    3230                      .dwattr $C$DW$347, DW_AT_accessibility(DW_ACCESS_public)
    3231              $C$DW$348       .dwtag  DW_TAG_member
    3232                      .dwattr $C$DW$348, DW_AT_type(*$C$DW$T$40)
    3233                      .dwattr $C$DW$348, DW_AT_name("alignCntr")
    3234                      .dwattr $C$DW$348, DW_AT_TI_symbol_name("_alignCntr")
    3235                      .dwattr $C$DW$348, DW_AT_data_member_location[DW_OP_plus_uconst 0x26]
    3236                      .dwattr $C$DW$348, DW_AT_accessibility(DW_ACCESS_public)
    3237              $C$DW$349       .dwtag  DW_TAG_member
    3238                      .dwattr $C$DW$349, DW_AT_type(*$C$DW$T$40)
    3239                      .dwattr $C$DW$349, DW_AT_name("alignCnt")
    3240                      .dwattr $C$DW$349, DW_AT_TI_symbol_name("_alignCnt")
    3241                      .dwattr $C$DW$349, DW_AT_data_member_location[DW_OP_plus_uconst 0x28]
    3242                      .dwattr $C$DW$349, DW_AT_accessibility(DW_ACCESS_public)
    3243              $C$DW$350       .dwtag  DW_TAG_member
    3244                      .dwattr $C$DW$350, DW_AT_type(*$C$DW$T$34)
    3245                      .dwattr $C$DW$350, DW_AT_name("lsw")
    3246                      .dwattr $C$DW$350, DW_AT_TI_symbol_name("_lsw")
    3247                      .dwattr $C$DW$350, DW_AT_data_member_location[DW_OP_plus_uconst 0x2a]
    3248                      .dwattr $C$DW$350, DW_AT_accessibility(DW_ACCESS_public)
    3249              $C$DW$351       .dwtag  DW_TAG_member
    3250                      .dwattr $C$DW$351, DW_AT_type(*$C$DW$T$34)
    3251                      .dwattr $C$DW$351, DW_AT_name("TripFlagDMC")
    3252                      .dwattr $C$DW$351, DW_AT_TI_symbol_name("_TripFlagDMC")
    3253                      .dwattr $C$DW$351, DW_AT_data_member_location[DW_OP_plus_uconst 0x2b]
    3254                      .dwattr $C$DW$351, DW_AT_accessibility(DW_ACCESS_public)
    3255              $C$DW$352       .dwtag  DW_TAG_member
    3256                      .dwattr $C$DW$352, DW_AT_type(*$C$DW$T$34)
    3257                      .dwattr $C$DW$352, DW_AT_name("clearTripFlagDMC")
    3258                      .dwattr $C$DW$352, DW_AT_TI_symbol_name("_clearTripFlagDMC")
    3259                      .dwattr $C$DW$352, DW_AT_data_member_location[DW_OP_plus_uconst 0x2c]
    3260                      .dwattr $C$DW$352, DW_AT_accessibility(DW_ACCESS_public)
    3261              $C$DW$353       .dwtag  DW_TAG_member
    3262                      .dwattr $C$DW$353, DW_AT_type(*$C$DW$T$34)
    3263                      .dwattr $C$DW$353, DW_AT_name("RunMotor")
    3264                      .dwattr $C$DW$353, DW_AT_TI_symbol_name("_RunMotor")
    3265                      .dwattr $C$DW$353, DW_AT_data_member_location[DW_OP_plus_uconst 0x2d]
    3266                      .dwattr $C$DW$353, DW_AT_accessibility(DW_ACCESS_public)
    3267              $C$DW$354       .dwtag  DW_TAG_member
    3268                      .dwattr $C$DW$354, DW_AT_type(*$C$DW$T$34)
    3269                      .dwattr $C$DW$354, DW_AT_name("SpeedLoopPrescaler")
    3270                      .dwattr $C$DW$354, DW_AT_TI_symbol_name("_SpeedLoopPrescaler")
    3271                      .dwattr $C$DW$354, DW_AT_data_member_location[DW_OP_plus_uconst 0x2e]
    3272                      .dwattr $C$DW$354, DW_AT_accessibility(DW_ACCESS_public)
    3273              $C$DW$355       .dwtag  DW_TAG_member
    3274                      .dwattr $C$DW$355, DW_AT_type(*$C$DW$T$34)
    3275                      .dwattr $C$DW$355, DW_AT_name("SpeedLoopCount")
    3276                      .dwattr $C$DW$355, DW_AT_TI_symbol_name("_SpeedLoopCount")
    3277                      .dwattr $C$DW$355, DW_AT_data_member_location[DW_OP_plus_uconst 0x2f]
    3278                      .dwattr $C$DW$355, DW_AT_accessibility(DW_ACCESS_public)
    3279              $C$DW$356       .dwtag  DW_TAG_member
TMS320C2000 Assembler PC v6.4.2 Thu Dec 14 15:27:05 2017

Tools Copyright (c) 1996-2015 Texas Instruments Incorporated
fsm_main.asm                                                         PAGE   63

    3280                      .dwattr $C$DW$356, DW_AT_type(*$C$DW$T$34)
    3281                      .dwattr $C$DW$356, DW_AT_name("PosSenseReverse")
    3282                      .dwattr $C$DW$356, DW_AT_TI_symbol_name("_PosSenseReverse")
    3283                      .dwattr $C$DW$356, DW_AT_data_member_location[DW_OP_plus_uconst 0x30]
    3284                      .dwattr $C$DW$356, DW_AT_accessibility(DW_ACCESS_public)
    3285              $C$DW$357       .dwtag  DW_TAG_member
    3286                      .dwattr $C$DW$357, DW_AT_type(*$C$DW$T$34)
    3287                      .dwattr $C$DW$357, DW_AT_name("newCmdDRV")
    3288                      .dwattr $C$DW$357, DW_AT_TI_symbol_name("_newCmdDRV")
    3289                      .dwattr $C$DW$357, DW_AT_data_member_location[DW_OP_plus_uconst 0x31]
    3290                      .dwattr $C$DW$357, DW_AT_accessibility(DW_ACCESS_public)
    3291              $C$DW$358       .dwtag  DW_TAG_member
    3292                      .dwattr $C$DW$358, DW_AT_type(*$C$DW$T$19)
    3293                      .dwattr $C$DW$358, DW_AT_name("T")
    3294                      .dwattr $C$DW$358, DW_AT_TI_symbol_name("_T")
    3295                      .dwattr $C$DW$358, DW_AT_data_member_location[DW_OP_plus_uconst 0x32]
    3296                      .dwattr $C$DW$358, DW_AT_accessibility(DW_ACCESS_public)
    3297              $C$DW$359       .dwtag  DW_TAG_member
    3298                      .dwattr $C$DW$359, DW_AT_type(*$C$DW$T$66)
    3299                      .dwattr $C$DW$359, DW_AT_name("clarke")
    3300                      .dwattr $C$DW$359, DW_AT_TI_symbol_name("_clarke")
    3301                      .dwattr $C$DW$359, DW_AT_data_member_location[DW_OP_plus_uconst 0x34]
    3302                      .dwattr $C$DW$359, DW_AT_accessibility(DW_ACCESS_public)
    3303              $C$DW$360       .dwtag  DW_TAG_member
    3304                      .dwattr $C$DW$360, DW_AT_type(*$C$DW$T$67)
    3305                      .dwattr $C$DW$360, DW_AT_name("park")
    3306                      .dwattr $C$DW$360, DW_AT_TI_symbol_name("_park")
    3307                      .dwattr $C$DW$360, DW_AT_data_member_location[DW_OP_plus_uconst 0x3e]
    3308                      .dwattr $C$DW$360, DW_AT_accessibility(DW_ACCESS_public)
    3309              $C$DW$361       .dwtag  DW_TAG_member
    3310                      .dwattr $C$DW$361, DW_AT_type(*$C$DW$T$68)
    3311                      .dwattr $C$DW$361, DW_AT_name("ipark")
    3312                      .dwattr $C$DW$361, DW_AT_TI_symbol_name("_ipark")
    3313                      .dwattr $C$DW$361, DW_AT_data_member_location[DW_OP_plus_uconst 0x4c]
    3314                      .dwattr $C$DW$361, DW_AT_accessibility(DW_ACCESS_public)
    3315              $C$DW$362       .dwtag  DW_TAG_member
    3316                      .dwattr $C$DW$362, DW_AT_type(*$C$DW$T$69)
    3317                      .dwattr $C$DW$362, DW_AT_name("pi_pos")
    3318                      .dwattr $C$DW$362, DW_AT_TI_symbol_name("_pi_pos")
    3319                      .dwattr $C$DW$362, DW_AT_data_member_location[DW_OP_plus_uconst 0x5a]
    3320                      .dwattr $C$DW$362, DW_AT_accessibility(DW_ACCESS_public)
    3321              $C$DW$363       .dwtag  DW_TAG_member
    3322                      .dwattr $C$DW$363, DW_AT_type(*$C$DW$T$70)
    3323                      .dwattr $C$DW$363, DW_AT_name("pid_spd")
    3324                      .dwattr $C$DW$363, DW_AT_TI_symbol_name("_pid_spd")
    3325                      .dwattr $C$DW$363, DW_AT_data_member_location[DW_OP_plus_uconst 0x72]
    3326                      .dwattr $C$DW$363, DW_AT_accessibility(DW_ACCESS_public)
    3327              $C$DW$364       .dwtag  DW_TAG_member
    3328                      .dwattr $C$DW$364, DW_AT_type(*$C$DW$T$69)
    3329                      .dwattr $C$DW$364, DW_AT_name("pi_id")
    3330                      .dwattr $C$DW$364, DW_AT_TI_symbol_name("_pi_id")
    3331                      .dwattr $C$DW$364, DW_AT_data_member_location[DW_OP_plus_uconst 0x9a]
    3332                      .dwattr $C$DW$364, DW_AT_accessibility(DW_ACCESS_public)
    3333              $C$DW$365       .dwtag  DW_TAG_member
    3334                      .dwattr $C$DW$365, DW_AT_type(*$C$DW$T$280)
TMS320C2000 Assembler PC v6.4.2 Thu Dec 14 15:27:05 2017

Tools Copyright (c) 1996-2015 Texas Instruments Incorporated
fsm_main.asm                                                         PAGE   64

    3335                      .dwattr $C$DW$365, DW_AT_name("pi_iq")
    3336                      .dwattr $C$DW$365, DW_AT_TI_symbol_name("_pi_iq")
    3337                      .dwattr $C$DW$365, DW_AT_data_member_location[DW_OP_plus_uconst 0xb2]
    3338                      .dwattr $C$DW$365, DW_AT_accessibility(DW_ACCESS_public)
    3339              $C$DW$366       .dwtag  DW_TAG_member
    3340                      .dwattr $C$DW$366, DW_AT_type(*$C$DW$T$71)
    3341                      .dwattr $C$DW$366, DW_AT_name("svgen")
    3342                      .dwattr $C$DW$366, DW_AT_TI_symbol_name("_svgen")
    3343                      .dwattr $C$DW$366, DW_AT_data_member_location[DW_OP_plus_uconst 0xc6]
    3344                      .dwattr $C$DW$366, DW_AT_accessibility(DW_ACCESS_public)
    3345              $C$DW$367       .dwtag  DW_TAG_member
    3346                      .dwattr $C$DW$367, DW_AT_type(*$C$DW$T$72)
    3347                      .dwattr $C$DW$367, DW_AT_name("rc")
    3348                      .dwattr $C$DW$367, DW_AT_TI_symbol_name("_rc")
    3349                      .dwattr $C$DW$367, DW_AT_data_member_location[DW_OP_plus_uconst 0xd8]
    3350                      .dwattr $C$DW$367, DW_AT_accessibility(DW_ACCESS_public)
    3351              $C$DW$368       .dwtag  DW_TAG_member
    3352                      .dwattr $C$DW$368, DW_AT_type(*$C$DW$T$73)
    3353                      .dwattr $C$DW$368, DW_AT_name("rg")
    3354                      .dwattr $C$DW$368, DW_AT_TI_symbol_name("_rg")
    3355                      .dwattr $C$DW$368, DW_AT_data_member_location[DW_OP_plus_uconst 0xe8]
    3356                      .dwattr $C$DW$368, DW_AT_accessibility(DW_ACCESS_public)
    3357              $C$DW$369       .dwtag  DW_TAG_member
    3358                      .dwattr $C$DW$369, DW_AT_type(*$C$DW$T$74)
    3359                      .dwattr $C$DW$369, DW_AT_name("volt")
    3360                      .dwattr $C$DW$369, DW_AT_TI_symbol_name("_volt")
    3361                      .dwattr $C$DW$369, DW_AT_data_member_location[DW_OP_plus_uconst 0xf4]
    3362                      .dwattr $C$DW$369, DW_AT_accessibility(DW_ACCESS_public)
    3363              $C$DW$370       .dwtag  DW_TAG_member
    3364                      .dwattr $C$DW$370, DW_AT_type(*$C$DW$T$75)
    3365                      .dwattr $C$DW$370, DW_AT_name("speed")
    3366                      .dwattr $C$DW$370, DW_AT_TI_symbol_name("_speed")
    3367                      .dwattr $C$DW$370, DW_AT_data_member_location[DW_OP_plus_uconst 0x10a]
    3368                      .dwattr $C$DW$370, DW_AT_accessibility(DW_ACCESS_public)
    3369              $C$DW$371       .dwtag  DW_TAG_member
    3370                      .dwattr $C$DW$371, DW_AT_type(*$C$DW$T$76)
    3371                      .dwattr $C$DW$371, DW_AT_name("qep")
    3372                      .dwattr $C$DW$371, DW_AT_TI_symbol_name("_qep")
    3373                      .dwattr $C$DW$371, DW_AT_data_member_location[DW_OP_plus_uconst 0x11e]
    3374                      .dwattr $C$DW$371, DW_AT_accessibility(DW_ACCESS_public)
    3375              $C$DW$372       .dwtag  DW_TAG_member
    3376                      .dwattr $C$DW$372, DW_AT_type(*$C$DW$T$77)
    3377                      .dwattr $C$DW$372, DW_AT_name("drv8301")
    3378                      .dwattr $C$DW$372, DW_AT_TI_symbol_name("_drv8301")
    3379                      .dwattr $C$DW$372, DW_AT_data_member_location[DW_OP_plus_uconst 0x130]
    3380                      .dwattr $C$DW$372, DW_AT_accessibility(DW_ACCESS_public)
    3381              $C$DW$373       .dwtag  DW_TAG_member
    3382                      .dwattr $C$DW$373, DW_AT_type(*$C$DW$T$78)
    3383                      .dwattr $C$DW$373, DW_AT_name("drv8305")
    3384                      .dwattr $C$DW$373, DW_AT_TI_symbol_name("_drv8305")
    3385                      .dwattr $C$DW$373, DW_AT_data_member_location[DW_OP_plus_uconst 0x137]
    3386                      .dwattr $C$DW$373, DW_AT_accessibility(DW_ACCESS_public)
    3387                      .dwendtag $C$DW$T$79
    3388              
    3389              $C$DW$T$296     .dwtag  DW_TAG_typedef, DW_AT_name("MOTOR_VARS")
TMS320C2000 Assembler PC v6.4.2 Thu Dec 14 15:27:05 2017

Tools Copyright (c) 1996-2015 Texas Instruments Incorporated
fsm_main.asm                                                         PAGE   65

    3390                      .dwattr $C$DW$T$296, DW_AT_type(*$C$DW$T$79)
    3391                      .dwattr $C$DW$T$296, DW_AT_language(DW_LANG_C)
    3392              
    3393              $C$DW$T$80      .dwtag  DW_TAG_union_type
    3394                      .dwattr $C$DW$T$80, DW_AT_byte_size(0x01)
    3395              $C$DW$374       .dwtag  DW_TAG_member
    3396                      .dwattr $C$DW$374, DW_AT_type(*$C$DW$T$34)
    3397                      .dwattr $C$DW$374, DW_AT_name("all")
    3398                      .dwattr $C$DW$374, DW_AT_TI_symbol_name("_all")
    3399                      .dwattr $C$DW$374, DW_AT_data_member_location[DW_OP_plus_uconst 0x0]
    3400                      .dwattr $C$DW$374, DW_AT_accessibility(DW_ACCESS_public)
    3401              $C$DW$375       .dwtag  DW_TAG_member
    3402                      .dwattr $C$DW$375, DW_AT_type(*$C$DW$T$147)
    3403                      .dwattr $C$DW$375, DW_AT_name("bit")
    3404                      .dwattr $C$DW$375, DW_AT_TI_symbol_name("_bit")
    3405                      .dwattr $C$DW$375, DW_AT_data_member_location[DW_OP_plus_uconst 0x0]
    3406                      .dwattr $C$DW$375, DW_AT_accessibility(DW_ACCESS_public)
    3407                      .dwendtag $C$DW$T$80
    3408              
    3409              $C$DW$T$43      .dwtag  DW_TAG_typedef, DW_AT_name("DRV8301_STATUS_REG_1")
    3410                      .dwattr $C$DW$T$43, DW_AT_type(*$C$DW$T$80)
    3411                      .dwattr $C$DW$T$43, DW_AT_language(DW_LANG_C)
    3412              
    3413              $C$DW$T$81      .dwtag  DW_TAG_union_type
    3414                      .dwattr $C$DW$T$81, DW_AT_byte_size(0x01)
    3415              $C$DW$376       .dwtag  DW_TAG_member
    3416                      .dwattr $C$DW$376, DW_AT_type(*$C$DW$T$34)
    3417                      .dwattr $C$DW$376, DW_AT_name("all")
    3418                      .dwattr $C$DW$376, DW_AT_TI_symbol_name("_all")
    3419                      .dwattr $C$DW$376, DW_AT_data_member_location[DW_OP_plus_uconst 0x0]
    3420                      .dwattr $C$DW$376, DW_AT_accessibility(DW_ACCESS_public)
    3421              $C$DW$377       .dwtag  DW_TAG_member
    3422                      .dwattr $C$DW$377, DW_AT_type(*$C$DW$T$148)
    3423                      .dwattr $C$DW$377, DW_AT_name("bit")
    3424                      .dwattr $C$DW$377, DW_AT_TI_symbol_name("_bit")
    3425                      .dwattr $C$DW$377, DW_AT_data_member_location[DW_OP_plus_uconst 0x0]
    3426                      .dwattr $C$DW$377, DW_AT_accessibility(DW_ACCESS_public)
    3427                      .dwendtag $C$DW$T$81
    3428              
    3429              $C$DW$T$44      .dwtag  DW_TAG_typedef, DW_AT_name("DRV8301_STATUS_REG_2")
    3430                      .dwattr $C$DW$T$44, DW_AT_type(*$C$DW$T$81)
    3431                      .dwattr $C$DW$T$44, DW_AT_language(DW_LANG_C)
    3432              
    3433              $C$DW$T$82      .dwtag  DW_TAG_union_type
    3434                      .dwattr $C$DW$T$82, DW_AT_byte_size(0x01)
    3435              $C$DW$378       .dwtag  DW_TAG_member
    3436                      .dwattr $C$DW$378, DW_AT_type(*$C$DW$T$34)
    3437                      .dwattr $C$DW$378, DW_AT_name("all")
    3438                      .dwattr $C$DW$378, DW_AT_TI_symbol_name("_all")
    3439                      .dwattr $C$DW$378, DW_AT_data_member_location[DW_OP_plus_uconst 0x0]
    3440                      .dwattr $C$DW$378, DW_AT_accessibility(DW_ACCESS_public)
    3441              $C$DW$379       .dwtag  DW_TAG_member
    3442                      .dwattr $C$DW$379, DW_AT_type(*$C$DW$T$145)
    3443                      .dwattr $C$DW$379, DW_AT_name("bit")
    3444                      .dwattr $C$DW$379, DW_AT_TI_symbol_name("_bit")
TMS320C2000 Assembler PC v6.4.2 Thu Dec 14 15:27:05 2017

Tools Copyright (c) 1996-2015 Texas Instruments Incorporated
fsm_main.asm                                                         PAGE   66

    3445                      .dwattr $C$DW$379, DW_AT_data_member_location[DW_OP_plus_uconst 0x0]
    3446                      .dwattr $C$DW$379, DW_AT_accessibility(DW_ACCESS_public)
    3447                      .dwendtag $C$DW$T$82
    3448              
    3449              $C$DW$T$45      .dwtag  DW_TAG_typedef, DW_AT_name("DRV8301_CONTROL_REG_1")
    3450                      .dwattr $C$DW$T$45, DW_AT_type(*$C$DW$T$82)
    3451                      .dwattr $C$DW$T$45, DW_AT_language(DW_LANG_C)
    3452              
    3453              $C$DW$T$83      .dwtag  DW_TAG_union_type
    3454                      .dwattr $C$DW$T$83, DW_AT_byte_size(0x01)
    3455              $C$DW$380       .dwtag  DW_TAG_member
    3456                      .dwattr $C$DW$380, DW_AT_type(*$C$DW$T$34)
    3457                      .dwattr $C$DW$380, DW_AT_name("all")
    3458                      .dwattr $C$DW$380, DW_AT_TI_symbol_name("_all")
    3459                      .dwattr $C$DW$380, DW_AT_data_member_location[DW_OP_plus_uconst 0x0]
    3460                      .dwattr $C$DW$380, DW_AT_accessibility(DW_ACCESS_public)
    3461              $C$DW$381       .dwtag  DW_TAG_member
    3462                      .dwattr $C$DW$381, DW_AT_type(*$C$DW$T$146)
    3463                      .dwattr $C$DW$381, DW_AT_name("bit")
    3464                      .dwattr $C$DW$381, DW_AT_TI_symbol_name("_bit")
    3465                      .dwattr $C$DW$381, DW_AT_data_member_location[DW_OP_plus_uconst 0x0]
    3466                      .dwattr $C$DW$381, DW_AT_accessibility(DW_ACCESS_public)
    3467                      .dwendtag $C$DW$T$83
    3468              
    3469              $C$DW$T$46      .dwtag  DW_TAG_typedef, DW_AT_name("DRV8301_CONTROL_REG_2")
    3470                      .dwattr $C$DW$T$46, DW_AT_type(*$C$DW$T$83)
    3471                      .dwattr $C$DW$T$46, DW_AT_language(DW_LANG_C)
    3472              
    3473              $C$DW$T$84      .dwtag  DW_TAG_union_type
    3474                      .dwattr $C$DW$T$84, DW_AT_byte_size(0x01)
    3475              $C$DW$382       .dwtag  DW_TAG_member
    3476                      .dwattr $C$DW$382, DW_AT_type(*$C$DW$T$34)
    3477                      .dwattr $C$DW$382, DW_AT_name("all")
    3478                      .dwattr $C$DW$382, DW_AT_TI_symbol_name("_all")
    3479                      .dwattr $C$DW$382, DW_AT_data_member_location[DW_OP_plus_uconst 0x0]
    3480                      .dwattr $C$DW$382, DW_AT_accessibility(DW_ACCESS_public)
    3481              $C$DW$383       .dwtag  DW_TAG_member
    3482                      .dwattr $C$DW$383, DW_AT_type(*$C$DW$T$159)
    3483                      .dwattr $C$DW$383, DW_AT_name("bit")
    3484                      .dwattr $C$DW$383, DW_AT_TI_symbol_name("_bit")
    3485                      .dwattr $C$DW$383, DW_AT_data_member_location[DW_OP_plus_uconst 0x0]
    3486                      .dwattr $C$DW$383, DW_AT_accessibility(DW_ACCESS_public)
    3487                      .dwendtag $C$DW$T$84
    3488              
    3489              $C$DW$T$48      .dwtag  DW_TAG_typedef, DW_AT_name("DRV8305_WWD_REG")
    3490                      .dwattr $C$DW$T$48, DW_AT_type(*$C$DW$T$84)
    3491                      .dwattr $C$DW$T$48, DW_AT_language(DW_LANG_C)
    3492              
    3493              $C$DW$T$85      .dwtag  DW_TAG_union_type
    3494                      .dwattr $C$DW$T$85, DW_AT_byte_size(0x01)
    3495              $C$DW$384       .dwtag  DW_TAG_member
    3496                      .dwattr $C$DW$384, DW_AT_type(*$C$DW$T$34)
    3497                      .dwattr $C$DW$384, DW_AT_name("all")
    3498                      .dwattr $C$DW$384, DW_AT_TI_symbol_name("_all")
    3499                      .dwattr $C$DW$384, DW_AT_data_member_location[DW_OP_plus_uconst 0x0]
TMS320C2000 Assembler PC v6.4.2 Thu Dec 14 15:27:05 2017

Tools Copyright (c) 1996-2015 Texas Instruments Incorporated
fsm_main.asm                                                         PAGE   67

    3500                      .dwattr $C$DW$384, DW_AT_accessibility(DW_ACCESS_public)
    3501              $C$DW$385       .dwtag  DW_TAG_member
    3502                      .dwattr $C$DW$385, DW_AT_type(*$C$DW$T$155)
    3503                      .dwattr $C$DW$385, DW_AT_name("bit")
    3504                      .dwattr $C$DW$385, DW_AT_TI_symbol_name("_bit")
    3505                      .dwattr $C$DW$385, DW_AT_data_member_location[DW_OP_plus_uconst 0x0]
    3506                      .dwattr $C$DW$385, DW_AT_accessibility(DW_ACCESS_public)
    3507                      .dwendtag $C$DW$T$85
    3508              
    3509              $C$DW$T$49      .dwtag  DW_TAG_typedef, DW_AT_name("DRV8305_OV_VDS_FAULTS_REG")
    3510                      .dwattr $C$DW$T$49, DW_AT_type(*$C$DW$T$85)
    3511                      .dwattr $C$DW$T$49, DW_AT_language(DW_LANG_C)
    3512              
    3513              $C$DW$T$86      .dwtag  DW_TAG_union_type
    3514                      .dwattr $C$DW$T$86, DW_AT_byte_size(0x01)
    3515              $C$DW$386       .dwtag  DW_TAG_member
    3516                      .dwattr $C$DW$386, DW_AT_type(*$C$DW$T$34)
    3517                      .dwattr $C$DW$386, DW_AT_name("all")
    3518                      .dwattr $C$DW$386, DW_AT_TI_symbol_name("_all")
    3519                      .dwattr $C$DW$386, DW_AT_data_member_location[DW_OP_plus_uconst 0x0]
    3520                      .dwattr $C$DW$386, DW_AT_accessibility(DW_ACCESS_public)
    3521              $C$DW$387       .dwtag  DW_TAG_member
    3522                      .dwattr $C$DW$387, DW_AT_type(*$C$DW$T$152)
    3523                      .dwattr $C$DW$387, DW_AT_name("bit")
    3524                      .dwattr $C$DW$387, DW_AT_TI_symbol_name("_bit")
    3525                      .dwattr $C$DW$387, DW_AT_data_member_location[DW_OP_plus_uconst 0x0]
    3526                      .dwattr $C$DW$387, DW_AT_accessibility(DW_ACCESS_public)
    3527                      .dwendtag $C$DW$T$86
    3528              
    3529              $C$DW$T$50      .dwtag  DW_TAG_typedef, DW_AT_name("DRV8305_IC_FAULTS_REG")
    3530                      .dwattr $C$DW$T$50, DW_AT_type(*$C$DW$T$86)
    3531                      .dwattr $C$DW$T$50, DW_AT_language(DW_LANG_C)
    3532              
    3533              $C$DW$T$87      .dwtag  DW_TAG_union_type
    3534                      .dwattr $C$DW$T$87, DW_AT_byte_size(0x01)
    3535              $C$DW$388       .dwtag  DW_TAG_member
    3536                      .dwattr $C$DW$388, DW_AT_type(*$C$DW$T$34)
    3537                      .dwattr $C$DW$388, DW_AT_name("all")
    3538                      .dwattr $C$DW$388, DW_AT_TI_symbol_name("_all")
    3539                      .dwattr $C$DW$388, DW_AT_data_member_location[DW_OP_plus_uconst 0x0]
    3540                      .dwattr $C$DW$388, DW_AT_accessibility(DW_ACCESS_public)
    3541              $C$DW$389       .dwtag  DW_TAG_member
    3542                      .dwattr $C$DW$389, DW_AT_type(*$C$DW$T$150)
    3543                      .dwattr $C$DW$389, DW_AT_name("bit")
    3544                      .dwattr $C$DW$389, DW_AT_TI_symbol_name("_bit")
    3545                      .dwattr $C$DW$389, DW_AT_data_member_location[DW_OP_plus_uconst 0x0]
    3546                      .dwattr $C$DW$389, DW_AT_accessibility(DW_ACCESS_public)
    3547                      .dwendtag $C$DW$T$87
    3548              
    3549              $C$DW$T$51      .dwtag  DW_TAG_typedef, DW_AT_name("DRV8305_GD_VGS_FAULTS_REG")
    3550                      .dwattr $C$DW$T$51, DW_AT_type(*$C$DW$T$87)
    3551                      .dwattr $C$DW$T$51, DW_AT_language(DW_LANG_C)
    3552              
    3553              $C$DW$T$88      .dwtag  DW_TAG_union_type
    3554                      .dwattr $C$DW$T$88, DW_AT_byte_size(0x01)
TMS320C2000 Assembler PC v6.4.2 Thu Dec 14 15:27:05 2017

Tools Copyright (c) 1996-2015 Texas Instruments Incorporated
fsm_main.asm                                                         PAGE   68

    3555              $C$DW$390       .dwtag  DW_TAG_member
    3556                      .dwattr $C$DW$390, DW_AT_type(*$C$DW$T$34)
    3557                      .dwattr $C$DW$390, DW_AT_name("all")
    3558                      .dwattr $C$DW$390, DW_AT_TI_symbol_name("_all")
    3559                      .dwattr $C$DW$390, DW_AT_data_member_location[DW_OP_plus_uconst 0x0]
    3560                      .dwattr $C$DW$390, DW_AT_accessibility(DW_ACCESS_public)
    3561              $C$DW$391       .dwtag  DW_TAG_member
    3562                      .dwattr $C$DW$391, DW_AT_type(*$C$DW$T$151)
    3563                      .dwattr $C$DW$391, DW_AT_name("bit")
    3564                      .dwattr $C$DW$391, DW_AT_TI_symbol_name("_bit")
    3565                      .dwattr $C$DW$391, DW_AT_data_member_location[DW_OP_plus_uconst 0x0]
    3566                      .dwattr $C$DW$391, DW_AT_accessibility(DW_ACCESS_public)
    3567                      .dwendtag $C$DW$T$88
    3568              
    3569              $C$DW$T$52      .dwtag  DW_TAG_typedef, DW_AT_name("DRV8305_HS_GATE_DRIVER_CNTRL_REG")
    3570                      .dwattr $C$DW$T$52, DW_AT_type(*$C$DW$T$88)
    3571                      .dwattr $C$DW$T$52, DW_AT_language(DW_LANG_C)
    3572              
    3573              $C$DW$T$89      .dwtag  DW_TAG_union_type
    3574                      .dwattr $C$DW$T$89, DW_AT_byte_size(0x01)
    3575              $C$DW$392       .dwtag  DW_TAG_member
    3576                      .dwattr $C$DW$392, DW_AT_type(*$C$DW$T$34)
    3577                      .dwattr $C$DW$392, DW_AT_name("all")
    3578                      .dwattr $C$DW$392, DW_AT_TI_symbol_name("_all")
    3579                      .dwattr $C$DW$392, DW_AT_data_member_location[DW_OP_plus_uconst 0x0]
    3580                      .dwattr $C$DW$392, DW_AT_accessibility(DW_ACCESS_public)
    3581              $C$DW$393       .dwtag  DW_TAG_member
    3582                      .dwattr $C$DW$393, DW_AT_type(*$C$DW$T$154)
    3583                      .dwattr $C$DW$393, DW_AT_name("bit")
    3584                      .dwattr $C$DW$393, DW_AT_TI_symbol_name("_bit")
    3585                      .dwattr $C$DW$393, DW_AT_data_member_location[DW_OP_plus_uconst 0x0]
    3586                      .dwattr $C$DW$393, DW_AT_accessibility(DW_ACCESS_public)
    3587                      .dwendtag $C$DW$T$89
    3588              
    3589              $C$DW$T$53      .dwtag  DW_TAG_typedef, DW_AT_name("DRV8305_LS_GATE_DRIVER_CNTRL_REG")
    3590                      .dwattr $C$DW$T$53, DW_AT_type(*$C$DW$T$89)
    3591                      .dwattr $C$DW$T$53, DW_AT_language(DW_LANG_C)
    3592              
    3593              $C$DW$T$90      .dwtag  DW_TAG_union_type
    3594                      .dwattr $C$DW$T$90, DW_AT_byte_size(0x01)
    3595              $C$DW$394       .dwtag  DW_TAG_member
    3596                      .dwattr $C$DW$394, DW_AT_type(*$C$DW$T$34)
    3597                      .dwattr $C$DW$394, DW_AT_name("all")
    3598                      .dwattr $C$DW$394, DW_AT_TI_symbol_name("_all")
    3599                      .dwattr $C$DW$394, DW_AT_data_member_location[DW_OP_plus_uconst 0x0]
    3600                      .dwattr $C$DW$394, DW_AT_accessibility(DW_ACCESS_public)
    3601              $C$DW$395       .dwtag  DW_TAG_member
    3602                      .dwattr $C$DW$395, DW_AT_type(*$C$DW$T$149)
    3603                      .dwattr $C$DW$395, DW_AT_name("bit")
    3604                      .dwattr $C$DW$395, DW_AT_TI_symbol_name("_bit")
    3605                      .dwattr $C$DW$395, DW_AT_data_member_location[DW_OP_plus_uconst 0x0]
    3606                      .dwattr $C$DW$395, DW_AT_accessibility(DW_ACCESS_public)
    3607                      .dwendtag $C$DW$T$90
    3608              
    3609              $C$DW$T$54      .dwtag  DW_TAG_typedef, DW_AT_name("DRV8305_GD_CNTRL_REG")
TMS320C2000 Assembler PC v6.4.2 Thu Dec 14 15:27:05 2017

Tools Copyright (c) 1996-2015 Texas Instruments Incorporated
fsm_main.asm                                                         PAGE   69

    3610                      .dwattr $C$DW$T$54, DW_AT_type(*$C$DW$T$90)
    3611                      .dwattr $C$DW$T$54, DW_AT_language(DW_LANG_C)
    3612              
    3613              $C$DW$T$91      .dwtag  DW_TAG_union_type
    3614                      .dwattr $C$DW$T$91, DW_AT_byte_size(0x01)
    3615              $C$DW$396       .dwtag  DW_TAG_member
    3616                      .dwattr $C$DW$396, DW_AT_type(*$C$DW$T$34)
    3617                      .dwattr $C$DW$396, DW_AT_name("all")
    3618                      .dwattr $C$DW$396, DW_AT_TI_symbol_name("_all")
    3619                      .dwattr $C$DW$396, DW_AT_data_member_location[DW_OP_plus_uconst 0x0]
    3620                      .dwattr $C$DW$396, DW_AT_accessibility(DW_ACCESS_public)
    3621              $C$DW$397       .dwtag  DW_TAG_member
    3622                      .dwattr $C$DW$397, DW_AT_type(*$C$DW$T$153)
    3623                      .dwattr $C$DW$397, DW_AT_name("bit")
    3624                      .dwattr $C$DW$397, DW_AT_TI_symbol_name("_bit")
    3625                      .dwattr $C$DW$397, DW_AT_data_member_location[DW_OP_plus_uconst 0x0]
    3626                      .dwattr $C$DW$397, DW_AT_accessibility(DW_ACCESS_public)
    3627                      .dwendtag $C$DW$T$91
    3628              
    3629              $C$DW$T$55      .dwtag  DW_TAG_typedef, DW_AT_name("DRV8305_IC_OPS_REG")
    3630                      .dwattr $C$DW$T$55, DW_AT_type(*$C$DW$T$91)
    3631                      .dwattr $C$DW$T$55, DW_AT_language(DW_LANG_C)
    3632              
    3633              $C$DW$T$92      .dwtag  DW_TAG_union_type
    3634                      .dwattr $C$DW$T$92, DW_AT_byte_size(0x01)
    3635              $C$DW$398       .dwtag  DW_TAG_member
    3636                      .dwattr $C$DW$398, DW_AT_type(*$C$DW$T$34)
    3637                      .dwattr $C$DW$398, DW_AT_name("all")
    3638                      .dwattr $C$DW$398, DW_AT_TI_symbol_name("_all")
    3639                      .dwattr $C$DW$398, DW_AT_data_member_location[DW_OP_plus_uconst 0x0]
    3640                      .dwattr $C$DW$398, DW_AT_accessibility(DW_ACCESS_public)
    3641              $C$DW$399       .dwtag  DW_TAG_member
    3642                      .dwattr $C$DW$399, DW_AT_type(*$C$DW$T$156)
    3643                      .dwattr $C$DW$399, DW_AT_name("bit")
    3644                      .dwattr $C$DW$399, DW_AT_TI_symbol_name("_bit")
    3645                      .dwattr $C$DW$399, DW_AT_data_member_location[DW_OP_plus_uconst 0x0]
    3646                      .dwattr $C$DW$399, DW_AT_accessibility(DW_ACCESS_public)
    3647                      .dwendtag $C$DW$T$92
    3648              
    3649              $C$DW$T$56      .dwtag  DW_TAG_typedef, DW_AT_name("DRV8305_SHUNT_AMP_CNTRL_REG")
    3650                      .dwattr $C$DW$T$56, DW_AT_type(*$C$DW$T$92)
    3651                      .dwattr $C$DW$T$56, DW_AT_language(DW_LANG_C)
    3652              
    3653              $C$DW$T$93      .dwtag  DW_TAG_union_type
    3654                      .dwattr $C$DW$T$93, DW_AT_byte_size(0x01)
    3655              $C$DW$400       .dwtag  DW_TAG_member
    3656                      .dwattr $C$DW$400, DW_AT_type(*$C$DW$T$34)
    3657                      .dwattr $C$DW$400, DW_AT_name("all")
    3658                      .dwattr $C$DW$400, DW_AT_TI_symbol_name("_all")
    3659                      .dwattr $C$DW$400, DW_AT_data_member_location[DW_OP_plus_uconst 0x0]
    3660                      .dwattr $C$DW$400, DW_AT_accessibility(DW_ACCESS_public)
    3661              $C$DW$401       .dwtag  DW_TAG_member
    3662                      .dwattr $C$DW$401, DW_AT_type(*$C$DW$T$158)
    3663                      .dwattr $C$DW$401, DW_AT_name("bit")
    3664                      .dwattr $C$DW$401, DW_AT_TI_symbol_name("_bit")
TMS320C2000 Assembler PC v6.4.2 Thu Dec 14 15:27:05 2017

Tools Copyright (c) 1996-2015 Texas Instruments Incorporated
fsm_main.asm                                                         PAGE   70

    3665                      .dwattr $C$DW$401, DW_AT_data_member_location[DW_OP_plus_uconst 0x0]
    3666                      .dwattr $C$DW$401, DW_AT_accessibility(DW_ACCESS_public)
    3667                      .dwendtag $C$DW$T$93
    3668              
    3669              $C$DW$T$57      .dwtag  DW_TAG_typedef, DW_AT_name("DRV8305_VREG_CNTRL_REG")
    3670                      .dwattr $C$DW$T$57, DW_AT_type(*$C$DW$T$93)
    3671                      .dwattr $C$DW$T$57, DW_AT_language(DW_LANG_C)
    3672              
    3673              $C$DW$T$94      .dwtag  DW_TAG_union_type
    3674                      .dwattr $C$DW$T$94, DW_AT_byte_size(0x01)
    3675              $C$DW$402       .dwtag  DW_TAG_member
    3676                      .dwattr $C$DW$402, DW_AT_type(*$C$DW$T$34)
    3677                      .dwattr $C$DW$402, DW_AT_name("all")
    3678                      .dwattr $C$DW$402, DW_AT_TI_symbol_name("_all")
    3679                      .dwattr $C$DW$402, DW_AT_data_member_location[DW_OP_plus_uconst 0x0]
    3680                      .dwattr $C$DW$402, DW_AT_accessibility(DW_ACCESS_public)
    3681              $C$DW$403       .dwtag  DW_TAG_member
    3682                      .dwattr $C$DW$403, DW_AT_type(*$C$DW$T$157)
    3683                      .dwattr $C$DW$403, DW_AT_name("bit")
    3684                      .dwattr $C$DW$403, DW_AT_TI_symbol_name("_bit")
    3685                      .dwattr $C$DW$403, DW_AT_data_member_location[DW_OP_plus_uconst 0x0]
    3686                      .dwattr $C$DW$403, DW_AT_accessibility(DW_ACCESS_public)
    3687                      .dwendtag $C$DW$T$94
    3688              
    3689              $C$DW$T$58      .dwtag  DW_TAG_typedef, DW_AT_name("DRV8305_VDS_SNS_CNTRL_REG")
    3690                      .dwattr $C$DW$T$58, DW_AT_type(*$C$DW$T$94)
    3691                      .dwattr $C$DW$T$58, DW_AT_language(DW_LANG_C)
    3692              
    3693              $C$DW$T$95      .dwtag  DW_TAG_structure_type
    3694                      .dwattr $C$DW$T$95, DW_AT_name("AQCSFRC_BITS")
    3695                      .dwattr $C$DW$T$95, DW_AT_byte_size(0x01)
    3696              $C$DW$404       .dwtag  DW_TAG_member
    3697                      .dwattr $C$DW$404, DW_AT_type(*$C$DW$T$34)
    3698                      .dwattr $C$DW$404, DW_AT_name("CSFA")
    3699                      .dwattr $C$DW$404, DW_AT_TI_symbol_name("_CSFA")
    3700                      .dwattr $C$DW$404, DW_AT_bit_offset(0x0e), DW_AT_bit_size(0x02)
    3701                      .dwattr $C$DW$404, DW_AT_data_member_location[DW_OP_plus_uconst 0x0]
    3702                      .dwattr $C$DW$404, DW_AT_accessibility(DW_ACCESS_public)
    3703              $C$DW$405       .dwtag  DW_TAG_member
    3704                      .dwattr $C$DW$405, DW_AT_type(*$C$DW$T$34)
    3705                      .dwattr $C$DW$405, DW_AT_name("CSFB")
    3706                      .dwattr $C$DW$405, DW_AT_TI_symbol_name("_CSFB")
    3707                      .dwattr $C$DW$405, DW_AT_bit_offset(0x0c), DW_AT_bit_size(0x02)
    3708                      .dwattr $C$DW$405, DW_AT_data_member_location[DW_OP_plus_uconst 0x0]
    3709                      .dwattr $C$DW$405, DW_AT_accessibility(DW_ACCESS_public)
    3710              $C$DW$406       .dwtag  DW_TAG_member
    3711                      .dwattr $C$DW$406, DW_AT_type(*$C$DW$T$34)
    3712                      .dwattr $C$DW$406, DW_AT_name("rsvd1")
    3713                      .dwattr $C$DW$406, DW_AT_TI_symbol_name("_rsvd1")
    3714                      .dwattr $C$DW$406, DW_AT_bit_offset(0x00), DW_AT_bit_size(0x0c)
    3715                      .dwattr $C$DW$406, DW_AT_data_member_location[DW_OP_plus_uconst 0x0]
    3716                      .dwattr $C$DW$406, DW_AT_accessibility(DW_ACCESS_public)
    3717                      .dwendtag $C$DW$T$95
    3718              
    3719              
TMS320C2000 Assembler PC v6.4.2 Thu Dec 14 15:27:05 2017

Tools Copyright (c) 1996-2015 Texas Instruments Incorporated
fsm_main.asm                                                         PAGE   71

    3720              $C$DW$T$96      .dwtag  DW_TAG_union_type
    3721                      .dwattr $C$DW$T$96, DW_AT_name("AQCSFRC_REG")
    3722                      .dwattr $C$DW$T$96, DW_AT_byte_size(0x01)
    3723              $C$DW$407       .dwtag  DW_TAG_member
    3724                      .dwattr $C$DW$407, DW_AT_type(*$C$DW$T$34)
    3725                      .dwattr $C$DW$407, DW_AT_name("all")
    3726                      .dwattr $C$DW$407, DW_AT_TI_symbol_name("_all")
    3727                      .dwattr $C$DW$407, DW_AT_data_member_location[DW_OP_plus_uconst 0x0]
    3728                      .dwattr $C$DW$407, DW_AT_accessibility(DW_ACCESS_public)
    3729              $C$DW$408       .dwtag  DW_TAG_member
    3730                      .dwattr $C$DW$408, DW_AT_type(*$C$DW$T$95)
    3731                      .dwattr $C$DW$408, DW_AT_name("bit")
    3732                      .dwattr $C$DW$408, DW_AT_TI_symbol_name("_bit")
    3733                      .dwattr $C$DW$408, DW_AT_data_member_location[DW_OP_plus_uconst 0x0]
    3734                      .dwattr $C$DW$408, DW_AT_accessibility(DW_ACCESS_public)
    3735                      .dwendtag $C$DW$T$96
    3736              
    3737              
    3738              $C$DW$T$97      .dwtag  DW_TAG_structure_type
    3739                      .dwattr $C$DW$T$97, DW_AT_name("AQCTLA2_BITS")
    3740                      .dwattr $C$DW$T$97, DW_AT_byte_size(0x01)
    3741              $C$DW$409       .dwtag  DW_TAG_member
    3742                      .dwattr $C$DW$409, DW_AT_type(*$C$DW$T$34)
    3743                      .dwattr $C$DW$409, DW_AT_name("T1U")
    3744                      .dwattr $C$DW$409, DW_AT_TI_symbol_name("_T1U")
    3745                      .dwattr $C$DW$409, DW_AT_bit_offset(0x0e), DW_AT_bit_size(0x02)
    3746                      .dwattr $C$DW$409, DW_AT_data_member_location[DW_OP_plus_uconst 0x0]
    3747                      .dwattr $C$DW$409, DW_AT_accessibility(DW_ACCESS_public)
    3748              $C$DW$410       .dwtag  DW_TAG_member
    3749                      .dwattr $C$DW$410, DW_AT_type(*$C$DW$T$34)
    3750                      .dwattr $C$DW$410, DW_AT_name("T1D")
    3751                      .dwattr $C$DW$410, DW_AT_TI_symbol_name("_T1D")
    3752                      .dwattr $C$DW$410, DW_AT_bit_offset(0x0c), DW_AT_bit_size(0x02)
    3753                      .dwattr $C$DW$410, DW_AT_data_member_location[DW_OP_plus_uconst 0x0]
    3754                      .dwattr $C$DW$410, DW_AT_accessibility(DW_ACCESS_public)
    3755              $C$DW$411       .dwtag  DW_TAG_member
    3756                      .dwattr $C$DW$411, DW_AT_type(*$C$DW$T$34)
    3757                      .dwattr $C$DW$411, DW_AT_name("T2U")
    3758                      .dwattr $C$DW$411, DW_AT_TI_symbol_name("_T2U")
    3759                      .dwattr $C$DW$411, DW_AT_bit_offset(0x0a), DW_AT_bit_size(0x02)
    3760                      .dwattr $C$DW$411, DW_AT_data_member_location[DW_OP_plus_uconst 0x0]
    3761                      .dwattr $C$DW$411, DW_AT_accessibility(DW_ACCESS_public)
    3762              $C$DW$412       .dwtag  DW_TAG_member
    3763                      .dwattr $C$DW$412, DW_AT_type(*$C$DW$T$34)
    3764                      .dwattr $C$DW$412, DW_AT_name("T2D")
    3765                      .dwattr $C$DW$412, DW_AT_TI_symbol_name("_T2D")
    3766                      .dwattr $C$DW$412, DW_AT_bit_offset(0x08), DW_AT_bit_size(0x02)
    3767                      .dwattr $C$DW$412, DW_AT_data_member_location[DW_OP_plus_uconst 0x0]
    3768                      .dwattr $C$DW$412, DW_AT_accessibility(DW_ACCESS_public)
    3769              $C$DW$413       .dwtag  DW_TAG_member
    3770                      .dwattr $C$DW$413, DW_AT_type(*$C$DW$T$34)
    3771                      .dwattr $C$DW$413, DW_AT_name("rsvd1")
    3772                      .dwattr $C$DW$413, DW_AT_TI_symbol_name("_rsvd1")
    3773                      .dwattr $C$DW$413, DW_AT_bit_offset(0x00), DW_AT_bit_size(0x08)
    3774                      .dwattr $C$DW$413, DW_AT_data_member_location[DW_OP_plus_uconst 0x0]
TMS320C2000 Assembler PC v6.4.2 Thu Dec 14 15:27:05 2017

Tools Copyright (c) 1996-2015 Texas Instruments Incorporated
fsm_main.asm                                                         PAGE   72

    3775                      .dwattr $C$DW$413, DW_AT_accessibility(DW_ACCESS_public)
    3776                      .dwendtag $C$DW$T$97
    3777              
    3778              
    3779              $C$DW$T$98      .dwtag  DW_TAG_union_type
    3780                      .dwattr $C$DW$T$98, DW_AT_name("AQCTLA2_REG")
    3781                      .dwattr $C$DW$T$98, DW_AT_byte_size(0x01)
    3782              $C$DW$414       .dwtag  DW_TAG_member
    3783                      .dwattr $C$DW$414, DW_AT_type(*$C$DW$T$34)
    3784                      .dwattr $C$DW$414, DW_AT_name("all")
    3785                      .dwattr $C$DW$414, DW_AT_TI_symbol_name("_all")
    3786                      .dwattr $C$DW$414, DW_AT_data_member_location[DW_OP_plus_uconst 0x0]
    3787                      .dwattr $C$DW$414, DW_AT_accessibility(DW_ACCESS_public)
    3788              $C$DW$415       .dwtag  DW_TAG_member
    3789                      .dwattr $C$DW$415, DW_AT_type(*$C$DW$T$97)
    3790                      .dwattr $C$DW$415, DW_AT_name("bit")
    3791                      .dwattr $C$DW$415, DW_AT_TI_symbol_name("_bit")
    3792                      .dwattr $C$DW$415, DW_AT_data_member_location[DW_OP_plus_uconst 0x0]
    3793                      .dwattr $C$DW$415, DW_AT_accessibility(DW_ACCESS_public)
    3794                      .dwendtag $C$DW$T$98
    3795              
    3796              
    3797              $C$DW$T$99      .dwtag  DW_TAG_structure_type
    3798                      .dwattr $C$DW$T$99, DW_AT_name("AQCTLA_BITS")
    3799                      .dwattr $C$DW$T$99, DW_AT_byte_size(0x01)
    3800              $C$DW$416       .dwtag  DW_TAG_member
    3801                      .dwattr $C$DW$416, DW_AT_type(*$C$DW$T$34)
    3802                      .dwattr $C$DW$416, DW_AT_name("ZRO")
    3803                      .dwattr $C$DW$416, DW_AT_TI_symbol_name("_ZRO")
    3804                      .dwattr $C$DW$416, DW_AT_bit_offset(0x0e), DW_AT_bit_size(0x02)
    3805                      .dwattr $C$DW$416, DW_AT_data_member_location[DW_OP_plus_uconst 0x0]
    3806                      .dwattr $C$DW$416, DW_AT_accessibility(DW_ACCESS_public)
    3807              $C$DW$417       .dwtag  DW_TAG_member
    3808                      .dwattr $C$DW$417, DW_AT_type(*$C$DW$T$34)
    3809                      .dwattr $C$DW$417, DW_AT_name("PRD")
    3810                      .dwattr $C$DW$417, DW_AT_TI_symbol_name("_PRD")
    3811                      .dwattr $C$DW$417, DW_AT_bit_offset(0x0c), DW_AT_bit_size(0x02)
    3812                      .dwattr $C$DW$417, DW_AT_data_member_location[DW_OP_plus_uconst 0x0]
    3813                      .dwattr $C$DW$417, DW_AT_accessibility(DW_ACCESS_public)
    3814              $C$DW$418       .dwtag  DW_TAG_member
    3815                      .dwattr $C$DW$418, DW_AT_type(*$C$DW$T$34)
    3816                      .dwattr $C$DW$418, DW_AT_name("CAU")
    3817                      .dwattr $C$DW$418, DW_AT_TI_symbol_name("_CAU")
    3818                      .dwattr $C$DW$418, DW_AT_bit_offset(0x0a), DW_AT_bit_size(0x02)
    3819                      .dwattr $C$DW$418, DW_AT_data_member_location[DW_OP_plus_uconst 0x0]
    3820                      .dwattr $C$DW$418, DW_AT_accessibility(DW_ACCESS_public)
    3821              $C$DW$419       .dwtag  DW_TAG_member
    3822                      .dwattr $C$DW$419, DW_AT_type(*$C$DW$T$34)
    3823                      .dwattr $C$DW$419, DW_AT_name("CAD")
    3824                      .dwattr $C$DW$419, DW_AT_TI_symbol_name("_CAD")
    3825                      .dwattr $C$DW$419, DW_AT_bit_offset(0x08), DW_AT_bit_size(0x02)
    3826                      .dwattr $C$DW$419, DW_AT_data_member_location[DW_OP_plus_uconst 0x0]
    3827                      .dwattr $C$DW$419, DW_AT_accessibility(DW_ACCESS_public)
    3828              $C$DW$420       .dwtag  DW_TAG_member
    3829                      .dwattr $C$DW$420, DW_AT_type(*$C$DW$T$34)
TMS320C2000 Assembler PC v6.4.2 Thu Dec 14 15:27:05 2017

Tools Copyright (c) 1996-2015 Texas Instruments Incorporated
fsm_main.asm                                                         PAGE   73

    3830                      .dwattr $C$DW$420, DW_AT_name("CBU")
    3831                      .dwattr $C$DW$420, DW_AT_TI_symbol_name("_CBU")
    3832                      .dwattr $C$DW$420, DW_AT_bit_offset(0x06), DW_AT_bit_size(0x02)
    3833                      .dwattr $C$DW$420, DW_AT_data_member_location[DW_OP_plus_uconst 0x0]
    3834                      .dwattr $C$DW$420, DW_AT_accessibility(DW_ACCESS_public)
    3835              $C$DW$421       .dwtag  DW_TAG_member
    3836                      .dwattr $C$DW$421, DW_AT_type(*$C$DW$T$34)
    3837                      .dwattr $C$DW$421, DW_AT_name("CBD")
    3838                      .dwattr $C$DW$421, DW_AT_TI_symbol_name("_CBD")
    3839                      .dwattr $C$DW$421, DW_AT_bit_offset(0x04), DW_AT_bit_size(0x02)
    3840                      .dwattr $C$DW$421, DW_AT_data_member_location[DW_OP_plus_uconst 0x0]
    3841                      .dwattr $C$DW$421, DW_AT_accessibility(DW_ACCESS_public)
    3842              $C$DW$422       .dwtag  DW_TAG_member
    3843                      .dwattr $C$DW$422, DW_AT_type(*$C$DW$T$34)
    3844                      .dwattr $C$DW$422, DW_AT_name("rsvd1")
    3845                      .dwattr $C$DW$422, DW_AT_TI_symbol_name("_rsvd1")
    3846                      .dwattr $C$DW$422, DW_AT_bit_offset(0x00), DW_AT_bit_size(0x04)
    3847                      .dwattr $C$DW$422, DW_AT_data_member_location[DW_OP_plus_uconst 0x0]
    3848                      .dwattr $C$DW$422, DW_AT_accessibility(DW_ACCESS_public)
    3849                      .dwendtag $C$DW$T$99
    3850              
    3851              
    3852              $C$DW$T$100     .dwtag  DW_TAG_union_type
    3853                      .dwattr $C$DW$T$100, DW_AT_name("AQCTLA_REG")
    3854                      .dwattr $C$DW$T$100, DW_AT_byte_size(0x01)
    3855              $C$DW$423       .dwtag  DW_TAG_member
    3856                      .dwattr $C$DW$423, DW_AT_type(*$C$DW$T$34)
    3857                      .dwattr $C$DW$423, DW_AT_name("all")
    3858                      .dwattr $C$DW$423, DW_AT_TI_symbol_name("_all")
    3859                      .dwattr $C$DW$423, DW_AT_data_member_location[DW_OP_plus_uconst 0x0]
    3860                      .dwattr $C$DW$423, DW_AT_accessibility(DW_ACCESS_public)
    3861              $C$DW$424       .dwtag  DW_TAG_member
    3862                      .dwattr $C$DW$424, DW_AT_type(*$C$DW$T$99)
    3863                      .dwattr $C$DW$424, DW_AT_name("bit")
    3864                      .dwattr $C$DW$424, DW_AT_TI_symbol_name("_bit")
    3865                      .dwattr $C$DW$424, DW_AT_data_member_location[DW_OP_plus_uconst 0x0]
    3866                      .dwattr $C$DW$424, DW_AT_accessibility(DW_ACCESS_public)
    3867                      .dwendtag $C$DW$T$100
    3868              
    3869              
    3870              $C$DW$T$101     .dwtag  DW_TAG_structure_type
    3871                      .dwattr $C$DW$T$101, DW_AT_name("AQCTLB2_BITS")
    3872                      .dwattr $C$DW$T$101, DW_AT_byte_size(0x01)
    3873              $C$DW$425       .dwtag  DW_TAG_member
    3874                      .dwattr $C$DW$425, DW_AT_type(*$C$DW$T$34)
    3875                      .dwattr $C$DW$425, DW_AT_name("T1U")
    3876                      .dwattr $C$DW$425, DW_AT_TI_symbol_name("_T1U")
    3877                      .dwattr $C$DW$425, DW_AT_bit_offset(0x0e), DW_AT_bit_size(0x02)
    3878                      .dwattr $C$DW$425, DW_AT_data_member_location[DW_OP_plus_uconst 0x0]
    3879                      .dwattr $C$DW$425, DW_AT_accessibility(DW_ACCESS_public)
    3880              $C$DW$426       .dwtag  DW_TAG_member
    3881                      .dwattr $C$DW$426, DW_AT_type(*$C$DW$T$34)
    3882                      .dwattr $C$DW$426, DW_AT_name("T1D")
    3883                      .dwattr $C$DW$426, DW_AT_TI_symbol_name("_T1D")
    3884                      .dwattr $C$DW$426, DW_AT_bit_offset(0x0c), DW_AT_bit_size(0x02)
TMS320C2000 Assembler PC v6.4.2 Thu Dec 14 15:27:05 2017

Tools Copyright (c) 1996-2015 Texas Instruments Incorporated
fsm_main.asm                                                         PAGE   74

    3885                      .dwattr $C$DW$426, DW_AT_data_member_location[DW_OP_plus_uconst 0x0]
    3886                      .dwattr $C$DW$426, DW_AT_accessibility(DW_ACCESS_public)
    3887              $C$DW$427       .dwtag  DW_TAG_member
    3888                      .dwattr $C$DW$427, DW_AT_type(*$C$DW$T$34)
    3889                      .dwattr $C$DW$427, DW_AT_name("T2U")
    3890                      .dwattr $C$DW$427, DW_AT_TI_symbol_name("_T2U")
    3891                      .dwattr $C$DW$427, DW_AT_bit_offset(0x0a), DW_AT_bit_size(0x02)
    3892                      .dwattr $C$DW$427, DW_AT_data_member_location[DW_OP_plus_uconst 0x0]
    3893                      .dwattr $C$DW$427, DW_AT_accessibility(DW_ACCESS_public)
    3894              $C$DW$428       .dwtag  DW_TAG_member
    3895                      .dwattr $C$DW$428, DW_AT_type(*$C$DW$T$34)
    3896                      .dwattr $C$DW$428, DW_AT_name("T2D")
    3897                      .dwattr $C$DW$428, DW_AT_TI_symbol_name("_T2D")
    3898                      .dwattr $C$DW$428, DW_AT_bit_offset(0x08), DW_AT_bit_size(0x02)
    3899                      .dwattr $C$DW$428, DW_AT_data_member_location[DW_OP_plus_uconst 0x0]
    3900                      .dwattr $C$DW$428, DW_AT_accessibility(DW_ACCESS_public)
    3901              $C$DW$429       .dwtag  DW_TAG_member
    3902                      .dwattr $C$DW$429, DW_AT_type(*$C$DW$T$34)
    3903                      .dwattr $C$DW$429, DW_AT_name("rsvd1")
    3904                      .dwattr $C$DW$429, DW_AT_TI_symbol_name("_rsvd1")
    3905                      .dwattr $C$DW$429, DW_AT_bit_offset(0x00), DW_AT_bit_size(0x08)
    3906                      .dwattr $C$DW$429, DW_AT_data_member_location[DW_OP_plus_uconst 0x0]
    3907                      .dwattr $C$DW$429, DW_AT_accessibility(DW_ACCESS_public)
    3908                      .dwendtag $C$DW$T$101
    3909              
    3910              
    3911              $C$DW$T$102     .dwtag  DW_TAG_union_type
    3912                      .dwattr $C$DW$T$102, DW_AT_name("AQCTLB2_REG")
    3913                      .dwattr $C$DW$T$102, DW_AT_byte_size(0x01)
    3914              $C$DW$430       .dwtag  DW_TAG_member
    3915                      .dwattr $C$DW$430, DW_AT_type(*$C$DW$T$34)
    3916                      .dwattr $C$DW$430, DW_AT_name("all")
    3917                      .dwattr $C$DW$430, DW_AT_TI_symbol_name("_all")
    3918                      .dwattr $C$DW$430, DW_AT_data_member_location[DW_OP_plus_uconst 0x0]
    3919                      .dwattr $C$DW$430, DW_AT_accessibility(DW_ACCESS_public)
    3920              $C$DW$431       .dwtag  DW_TAG_member
    3921                      .dwattr $C$DW$431, DW_AT_type(*$C$DW$T$101)
    3922                      .dwattr $C$DW$431, DW_AT_name("bit")
    3923                      .dwattr $C$DW$431, DW_AT_TI_symbol_name("_bit")
    3924                      .dwattr $C$DW$431, DW_AT_data_member_location[DW_OP_plus_uconst 0x0]
    3925                      .dwattr $C$DW$431, DW_AT_accessibility(DW_ACCESS_public)
    3926                      .dwendtag $C$DW$T$102
    3927              
    3928              
    3929              $C$DW$T$103     .dwtag  DW_TAG_structure_type
    3930                      .dwattr $C$DW$T$103, DW_AT_name("AQCTLB_BITS")
    3931                      .dwattr $C$DW$T$103, DW_AT_byte_size(0x01)
    3932              $C$DW$432       .dwtag  DW_TAG_member
    3933                      .dwattr $C$DW$432, DW_AT_type(*$C$DW$T$34)
    3934                      .dwattr $C$DW$432, DW_AT_name("ZRO")
    3935                      .dwattr $C$DW$432, DW_AT_TI_symbol_name("_ZRO")
    3936                      .dwattr $C$DW$432, DW_AT_bit_offset(0x0e), DW_AT_bit_size(0x02)
    3937                      .dwattr $C$DW$432, DW_AT_data_member_location[DW_OP_plus_uconst 0x0]
    3938                      .dwattr $C$DW$432, DW_AT_accessibility(DW_ACCESS_public)
    3939              $C$DW$433       .dwtag  DW_TAG_member
TMS320C2000 Assembler PC v6.4.2 Thu Dec 14 15:27:05 2017

Tools Copyright (c) 1996-2015 Texas Instruments Incorporated
fsm_main.asm                                                         PAGE   75

    3940                      .dwattr $C$DW$433, DW_AT_type(*$C$DW$T$34)
    3941                      .dwattr $C$DW$433, DW_AT_name("PRD")
    3942                      .dwattr $C$DW$433, DW_AT_TI_symbol_name("_PRD")
    3943                      .dwattr $C$DW$433, DW_AT_bit_offset(0x0c), DW_AT_bit_size(0x02)
    3944                      .dwattr $C$DW$433, DW_AT_data_member_location[DW_OP_plus_uconst 0x0]
    3945                      .dwattr $C$DW$433, DW_AT_accessibility(DW_ACCESS_public)
    3946              $C$DW$434       .dwtag  DW_TAG_member
    3947                      .dwattr $C$DW$434, DW_AT_type(*$C$DW$T$34)
    3948                      .dwattr $C$DW$434, DW_AT_name("CAU")
    3949                      .dwattr $C$DW$434, DW_AT_TI_symbol_name("_CAU")
    3950                      .dwattr $C$DW$434, DW_AT_bit_offset(0x0a), DW_AT_bit_size(0x02)
    3951                      .dwattr $C$DW$434, DW_AT_data_member_location[DW_OP_plus_uconst 0x0]
    3952                      .dwattr $C$DW$434, DW_AT_accessibility(DW_ACCESS_public)
    3953              $C$DW$435       .dwtag  DW_TAG_member
    3954                      .dwattr $C$DW$435, DW_AT_type(*$C$DW$T$34)
    3955                      .dwattr $C$DW$435, DW_AT_name("CAD")
    3956                      .dwattr $C$DW$435, DW_AT_TI_symbol_name("_CAD")
    3957                      .dwattr $C$DW$435, DW_AT_bit_offset(0x08), DW_AT_bit_size(0x02)
    3958                      .dwattr $C$DW$435, DW_AT_data_member_location[DW_OP_plus_uconst 0x0]
    3959                      .dwattr $C$DW$435, DW_AT_accessibility(DW_ACCESS_public)
    3960              $C$DW$436       .dwtag  DW_TAG_member
    3961                      .dwattr $C$DW$436, DW_AT_type(*$C$DW$T$34)
    3962                      .dwattr $C$DW$436, DW_AT_name("CBU")
    3963                      .dwattr $C$DW$436, DW_AT_TI_symbol_name("_CBU")
    3964                      .dwattr $C$DW$436, DW_AT_bit_offset(0x06), DW_AT_bit_size(0x02)
    3965                      .dwattr $C$DW$436, DW_AT_data_member_location[DW_OP_plus_uconst 0x0]
    3966                      .dwattr $C$DW$436, DW_AT_accessibility(DW_ACCESS_public)
    3967              $C$DW$437       .dwtag  DW_TAG_member
    3968                      .dwattr $C$DW$437, DW_AT_type(*$C$DW$T$34)
    3969                      .dwattr $C$DW$437, DW_AT_name("CBD")
    3970                      .dwattr $C$DW$437, DW_AT_TI_symbol_name("_CBD")
    3971                      .dwattr $C$DW$437, DW_AT_bit_offset(0x04), DW_AT_bit_size(0x02)
    3972                      .dwattr $C$DW$437, DW_AT_data_member_location[DW_OP_plus_uconst 0x0]
    3973                      .dwattr $C$DW$437, DW_AT_accessibility(DW_ACCESS_public)
    3974              $C$DW$438       .dwtag  DW_TAG_member
    3975                      .dwattr $C$DW$438, DW_AT_type(*$C$DW$T$34)
    3976                      .dwattr $C$DW$438, DW_AT_name("rsvd1")
    3977                      .dwattr $C$DW$438, DW_AT_TI_symbol_name("_rsvd1")
    3978                      .dwattr $C$DW$438, DW_AT_bit_offset(0x00), DW_AT_bit_size(0x04)
    3979                      .dwattr $C$DW$438, DW_AT_data_member_location[DW_OP_plus_uconst 0x0]
    3980                      .dwattr $C$DW$438, DW_AT_accessibility(DW_ACCESS_public)
    3981                      .dwendtag $C$DW$T$103
    3982              
    3983              
    3984              $C$DW$T$104     .dwtag  DW_TAG_union_type
    3985                      .dwattr $C$DW$T$104, DW_AT_name("AQCTLB_REG")
    3986                      .dwattr $C$DW$T$104, DW_AT_byte_size(0x01)
    3987              $C$DW$439       .dwtag  DW_TAG_member
    3988                      .dwattr $C$DW$439, DW_AT_type(*$C$DW$T$34)
    3989                      .dwattr $C$DW$439, DW_AT_name("all")
    3990                      .dwattr $C$DW$439, DW_AT_TI_symbol_name("_all")
    3991                      .dwattr $C$DW$439, DW_AT_data_member_location[DW_OP_plus_uconst 0x0]
    3992                      .dwattr $C$DW$439, DW_AT_accessibility(DW_ACCESS_public)
    3993              $C$DW$440       .dwtag  DW_TAG_member
    3994                      .dwattr $C$DW$440, DW_AT_type(*$C$DW$T$103)
TMS320C2000 Assembler PC v6.4.2 Thu Dec 14 15:27:05 2017

Tools Copyright (c) 1996-2015 Texas Instruments Incorporated
fsm_main.asm                                                         PAGE   76

    3995                      .dwattr $C$DW$440, DW_AT_name("bit")
    3996                      .dwattr $C$DW$440, DW_AT_TI_symbol_name("_bit")
    3997                      .dwattr $C$DW$440, DW_AT_data_member_location[DW_OP_plus_uconst 0x0]
    3998                      .dwattr $C$DW$440, DW_AT_accessibility(DW_ACCESS_public)
    3999                      .dwendtag $C$DW$T$104
    4000              
    4001              
    4002              $C$DW$T$105     .dwtag  DW_TAG_structure_type
    4003                      .dwattr $C$DW$T$105, DW_AT_name("AQCTL_BITS")
    4004                      .dwattr $C$DW$T$105, DW_AT_byte_size(0x01)
    4005              $C$DW$441       .dwtag  DW_TAG_member
    4006                      .dwattr $C$DW$441, DW_AT_type(*$C$DW$T$34)
    4007                      .dwattr $C$DW$441, DW_AT_name("LDAQAMODE")
    4008                      .dwattr $C$DW$441, DW_AT_TI_symbol_name("_LDAQAMODE")
    4009                      .dwattr $C$DW$441, DW_AT_bit_offset(0x0e), DW_AT_bit_size(0x02)
    4010                      .dwattr $C$DW$441, DW_AT_data_member_location[DW_OP_plus_uconst 0x0]
    4011                      .dwattr $C$DW$441, DW_AT_accessibility(DW_ACCESS_public)
    4012              $C$DW$442       .dwtag  DW_TAG_member
    4013                      .dwattr $C$DW$442, DW_AT_type(*$C$DW$T$34)
    4014                      .dwattr $C$DW$442, DW_AT_name("LDAQBMODE")
    4015                      .dwattr $C$DW$442, DW_AT_TI_symbol_name("_LDAQBMODE")
    4016                      .dwattr $C$DW$442, DW_AT_bit_offset(0x0c), DW_AT_bit_size(0x02)
    4017                      .dwattr $C$DW$442, DW_AT_data_member_location[DW_OP_plus_uconst 0x0]
    4018                      .dwattr $C$DW$442, DW_AT_accessibility(DW_ACCESS_public)
    4019              $C$DW$443       .dwtag  DW_TAG_member
    4020                      .dwattr $C$DW$443, DW_AT_type(*$C$DW$T$34)
    4021                      .dwattr $C$DW$443, DW_AT_name("SHDWAQAMODE")
    4022                      .dwattr $C$DW$443, DW_AT_TI_symbol_name("_SHDWAQAMODE")
    4023                      .dwattr $C$DW$443, DW_AT_bit_offset(0x0b), DW_AT_bit_size(0x01)
    4024                      .dwattr $C$DW$443, DW_AT_data_member_location[DW_OP_plus_uconst 0x0]
    4025                      .dwattr $C$DW$443, DW_AT_accessibility(DW_ACCESS_public)
    4026              $C$DW$444       .dwtag  DW_TAG_member
    4027                      .dwattr $C$DW$444, DW_AT_type(*$C$DW$T$34)
    4028                      .dwattr $C$DW$444, DW_AT_name("rsvd1")
    4029                      .dwattr $C$DW$444, DW_AT_TI_symbol_name("_rsvd1")
    4030                      .dwattr $C$DW$444, DW_AT_bit_offset(0x0a), DW_AT_bit_size(0x01)
    4031                      .dwattr $C$DW$444, DW_AT_data_member_location[DW_OP_plus_uconst 0x0]
    4032                      .dwattr $C$DW$444, DW_AT_accessibility(DW_ACCESS_public)
    4033              $C$DW$445       .dwtag  DW_TAG_member
    4034                      .dwattr $C$DW$445, DW_AT_type(*$C$DW$T$34)
    4035                      .dwattr $C$DW$445, DW_AT_name("SHDWAQBMODE")
    4036                      .dwattr $C$DW$445, DW_AT_TI_symbol_name("_SHDWAQBMODE")
    4037                      .dwattr $C$DW$445, DW_AT_bit_offset(0x09), DW_AT_bit_size(0x01)
    4038                      .dwattr $C$DW$445, DW_AT_data_member_location[DW_OP_plus_uconst 0x0]
    4039                      .dwattr $C$DW$445, DW_AT_accessibility(DW_ACCESS_public)
    4040              $C$DW$446       .dwtag  DW_TAG_member
    4041                      .dwattr $C$DW$446, DW_AT_type(*$C$DW$T$34)
    4042                      .dwattr $C$DW$446, DW_AT_name("rsvd2")
    4043                      .dwattr $C$DW$446, DW_AT_TI_symbol_name("_rsvd2")
    4044                      .dwattr $C$DW$446, DW_AT_bit_offset(0x08), DW_AT_bit_size(0x01)
    4045                      .dwattr $C$DW$446, DW_AT_data_member_location[DW_OP_plus_uconst 0x0]
    4046                      .dwattr $C$DW$446, DW_AT_accessibility(DW_ACCESS_public)
    4047              $C$DW$447       .dwtag  DW_TAG_member
    4048                      .dwattr $C$DW$447, DW_AT_type(*$C$DW$T$34)
    4049                      .dwattr $C$DW$447, DW_AT_name("LDAQASYNC")
TMS320C2000 Assembler PC v6.4.2 Thu Dec 14 15:27:05 2017

Tools Copyright (c) 1996-2015 Texas Instruments Incorporated
fsm_main.asm                                                         PAGE   77

    4050                      .dwattr $C$DW$447, DW_AT_TI_symbol_name("_LDAQASYNC")
    4051                      .dwattr $C$DW$447, DW_AT_bit_offset(0x06), DW_AT_bit_size(0x02)
    4052                      .dwattr $C$DW$447, DW_AT_data_member_location[DW_OP_plus_uconst 0x0]
    4053                      .dwattr $C$DW$447, DW_AT_accessibility(DW_ACCESS_public)
    4054              $C$DW$448       .dwtag  DW_TAG_member
    4055                      .dwattr $C$DW$448, DW_AT_type(*$C$DW$T$34)
    4056                      .dwattr $C$DW$448, DW_AT_name("LDAQBSYNC")
    4057                      .dwattr $C$DW$448, DW_AT_TI_symbol_name("_LDAQBSYNC")
    4058                      .dwattr $C$DW$448, DW_AT_bit_offset(0x04), DW_AT_bit_size(0x02)
    4059                      .dwattr $C$DW$448, DW_AT_data_member_location[DW_OP_plus_uconst 0x0]
    4060                      .dwattr $C$DW$448, DW_AT_accessibility(DW_ACCESS_public)
    4061              $C$DW$449       .dwtag  DW_TAG_member
    4062                      .dwattr $C$DW$449, DW_AT_type(*$C$DW$T$34)
    4063                      .dwattr $C$DW$449, DW_AT_name("rsvd3")
    4064                      .dwattr $C$DW$449, DW_AT_TI_symbol_name("_rsvd3")
    4065                      .dwattr $C$DW$449, DW_AT_bit_offset(0x00), DW_AT_bit_size(0x04)
    4066                      .dwattr $C$DW$449, DW_AT_data_member_location[DW_OP_plus_uconst 0x0]
    4067                      .dwattr $C$DW$449, DW_AT_accessibility(DW_ACCESS_public)
    4068                      .dwendtag $C$DW$T$105
    4069              
    4070              
    4071              $C$DW$T$106     .dwtag  DW_TAG_union_type
    4072                      .dwattr $C$DW$T$106, DW_AT_name("AQCTL_REG")
    4073                      .dwattr $C$DW$T$106, DW_AT_byte_size(0x01)
    4074              $C$DW$450       .dwtag  DW_TAG_member
    4075                      .dwattr $C$DW$450, DW_AT_type(*$C$DW$T$34)
    4076                      .dwattr $C$DW$450, DW_AT_name("all")
    4077                      .dwattr $C$DW$450, DW_AT_TI_symbol_name("_all")
    4078                      .dwattr $C$DW$450, DW_AT_data_member_location[DW_OP_plus_uconst 0x0]
    4079                      .dwattr $C$DW$450, DW_AT_accessibility(DW_ACCESS_public)
    4080              $C$DW$451       .dwtag  DW_TAG_member
    4081                      .dwattr $C$DW$451, DW_AT_type(*$C$DW$T$105)
    4082                      .dwattr $C$DW$451, DW_AT_name("bit")
    4083                      .dwattr $C$DW$451, DW_AT_TI_symbol_name("_bit")
    4084                      .dwattr $C$DW$451, DW_AT_data_member_location[DW_OP_plus_uconst 0x0]
    4085                      .dwattr $C$DW$451, DW_AT_accessibility(DW_ACCESS_public)
    4086                      .dwendtag $C$DW$T$106
    4087              
    4088              
    4089              $C$DW$T$107     .dwtag  DW_TAG_structure_type
    4090                      .dwattr $C$DW$T$107, DW_AT_name("AQSFRC_BITS")
    4091                      .dwattr $C$DW$T$107, DW_AT_byte_size(0x01)
    4092              $C$DW$452       .dwtag  DW_TAG_member
    4093                      .dwattr $C$DW$452, DW_AT_type(*$C$DW$T$34)
    4094                      .dwattr $C$DW$452, DW_AT_name("ACTSFA")
    4095                      .dwattr $C$DW$452, DW_AT_TI_symbol_name("_ACTSFA")
    4096                      .dwattr $C$DW$452, DW_AT_bit_offset(0x0e), DW_AT_bit_size(0x02)
    4097                      .dwattr $C$DW$452, DW_AT_data_member_location[DW_OP_plus_uconst 0x0]
    4098                      .dwattr $C$DW$452, DW_AT_accessibility(DW_ACCESS_public)
    4099              $C$DW$453       .dwtag  DW_TAG_member
    4100                      .dwattr $C$DW$453, DW_AT_type(*$C$DW$T$34)
    4101                      .dwattr $C$DW$453, DW_AT_name("OTSFA")
    4102                      .dwattr $C$DW$453, DW_AT_TI_symbol_name("_OTSFA")
    4103                      .dwattr $C$DW$453, DW_AT_bit_offset(0x0d), DW_AT_bit_size(0x01)
    4104                      .dwattr $C$DW$453, DW_AT_data_member_location[DW_OP_plus_uconst 0x0]
TMS320C2000 Assembler PC v6.4.2 Thu Dec 14 15:27:05 2017

Tools Copyright (c) 1996-2015 Texas Instruments Incorporated
fsm_main.asm                                                         PAGE   78

    4105                      .dwattr $C$DW$453, DW_AT_accessibility(DW_ACCESS_public)
    4106              $C$DW$454       .dwtag  DW_TAG_member
    4107                      .dwattr $C$DW$454, DW_AT_type(*$C$DW$T$34)
    4108                      .dwattr $C$DW$454, DW_AT_name("ACTSFB")
    4109                      .dwattr $C$DW$454, DW_AT_TI_symbol_name("_ACTSFB")
    4110                      .dwattr $C$DW$454, DW_AT_bit_offset(0x0b), DW_AT_bit_size(0x02)
    4111                      .dwattr $C$DW$454, DW_AT_data_member_location[DW_OP_plus_uconst 0x0]
    4112                      .dwattr $C$DW$454, DW_AT_accessibility(DW_ACCESS_public)
    4113              $C$DW$455       .dwtag  DW_TAG_member
    4114                      .dwattr $C$DW$455, DW_AT_type(*$C$DW$T$34)
    4115                      .dwattr $C$DW$455, DW_AT_name("OTSFB")
    4116                      .dwattr $C$DW$455, DW_AT_TI_symbol_name("_OTSFB")
    4117                      .dwattr $C$DW$455, DW_AT_bit_offset(0x0a), DW_AT_bit_size(0x01)
    4118                      .dwattr $C$DW$455, DW_AT_data_member_location[DW_OP_plus_uconst 0x0]
    4119                      .dwattr $C$DW$455, DW_AT_accessibility(DW_ACCESS_public)
    4120              $C$DW$456       .dwtag  DW_TAG_member
    4121                      .dwattr $C$DW$456, DW_AT_type(*$C$DW$T$34)
    4122                      .dwattr $C$DW$456, DW_AT_name("RLDCSF")
    4123                      .dwattr $C$DW$456, DW_AT_TI_symbol_name("_RLDCSF")
    4124                      .dwattr $C$DW$456, DW_AT_bit_offset(0x08), DW_AT_bit_size(0x02)
    4125                      .dwattr $C$DW$456, DW_AT_data_member_location[DW_OP_plus_uconst 0x0]
    4126                      .dwattr $C$DW$456, DW_AT_accessibility(DW_ACCESS_public)
    4127              $C$DW$457       .dwtag  DW_TAG_member
    4128                      .dwattr $C$DW$457, DW_AT_type(*$C$DW$T$34)
    4129                      .dwattr $C$DW$457, DW_AT_name("rsvd1")
    4130                      .dwattr $C$DW$457, DW_AT_TI_symbol_name("_rsvd1")
    4131                      .dwattr $C$DW$457, DW_AT_bit_offset(0x00), DW_AT_bit_size(0x08)
    4132                      .dwattr $C$DW$457, DW_AT_data_member_location[DW_OP_plus_uconst 0x0]
    4133                      .dwattr $C$DW$457, DW_AT_accessibility(DW_ACCESS_public)
    4134                      .dwendtag $C$DW$T$107
    4135              
    4136              
    4137              $C$DW$T$108     .dwtag  DW_TAG_union_type
    4138                      .dwattr $C$DW$T$108, DW_AT_name("AQSFRC_REG")
    4139                      .dwattr $C$DW$T$108, DW_AT_byte_size(0x01)
    4140              $C$DW$458       .dwtag  DW_TAG_member
    4141                      .dwattr $C$DW$458, DW_AT_type(*$C$DW$T$34)
    4142                      .dwattr $C$DW$458, DW_AT_name("all")
    4143                      .dwattr $C$DW$458, DW_AT_TI_symbol_name("_all")
    4144                      .dwattr $C$DW$458, DW_AT_data_member_location[DW_OP_plus_uconst 0x0]
    4145                      .dwattr $C$DW$458, DW_AT_accessibility(DW_ACCESS_public)
    4146              $C$DW$459       .dwtag  DW_TAG_member
    4147                      .dwattr $C$DW$459, DW_AT_type(*$C$DW$T$107)
    4148                      .dwattr $C$DW$459, DW_AT_name("bit")
    4149                      .dwattr $C$DW$459, DW_AT_TI_symbol_name("_bit")
    4150                      .dwattr $C$DW$459, DW_AT_data_member_location[DW_OP_plus_uconst 0x0]
    4151                      .dwattr $C$DW$459, DW_AT_accessibility(DW_ACCESS_public)
    4152                      .dwendtag $C$DW$T$108
    4153              
    4154              
    4155              $C$DW$T$109     .dwtag  DW_TAG_structure_type
    4156                      .dwattr $C$DW$T$109, DW_AT_name("AQTSRCSEL_BITS")
    4157                      .dwattr $C$DW$T$109, DW_AT_byte_size(0x01)
    4158              $C$DW$460       .dwtag  DW_TAG_member
    4159                      .dwattr $C$DW$460, DW_AT_type(*$C$DW$T$34)
TMS320C2000 Assembler PC v6.4.2 Thu Dec 14 15:27:05 2017

Tools Copyright (c) 1996-2015 Texas Instruments Incorporated
fsm_main.asm                                                         PAGE   79

    4160                      .dwattr $C$DW$460, DW_AT_name("T1SEL")
    4161                      .dwattr $C$DW$460, DW_AT_TI_symbol_name("_T1SEL")
    4162                      .dwattr $C$DW$460, DW_AT_bit_offset(0x0c), DW_AT_bit_size(0x04)
    4163                      .dwattr $C$DW$460, DW_AT_data_member_location[DW_OP_plus_uconst 0x0]
    4164                      .dwattr $C$DW$460, DW_AT_accessibility(DW_ACCESS_public)
    4165              $C$DW$461       .dwtag  DW_TAG_member
    4166                      .dwattr $C$DW$461, DW_AT_type(*$C$DW$T$34)
    4167                      .dwattr $C$DW$461, DW_AT_name("T2SEL")
    4168                      .dwattr $C$DW$461, DW_AT_TI_symbol_name("_T2SEL")
    4169                      .dwattr $C$DW$461, DW_AT_bit_offset(0x08), DW_AT_bit_size(0x04)
    4170                      .dwattr $C$DW$461, DW_AT_data_member_location[DW_OP_plus_uconst 0x0]
    4171                      .dwattr $C$DW$461, DW_AT_accessibility(DW_ACCESS_public)
    4172              $C$DW$462       .dwtag  DW_TAG_member
    4173                      .dwattr $C$DW$462, DW_AT_type(*$C$DW$T$34)
    4174                      .dwattr $C$DW$462, DW_AT_name("rsvd1")
    4175                      .dwattr $C$DW$462, DW_AT_TI_symbol_name("_rsvd1")
    4176                      .dwattr $C$DW$462, DW_AT_bit_offset(0x00), DW_AT_bit_size(0x08)
    4177                      .dwattr $C$DW$462, DW_AT_data_member_location[DW_OP_plus_uconst 0x0]
    4178                      .dwattr $C$DW$462, DW_AT_accessibility(DW_ACCESS_public)
    4179                      .dwendtag $C$DW$T$109
    4180              
    4181              
    4182              $C$DW$T$110     .dwtag  DW_TAG_union_type
    4183                      .dwattr $C$DW$T$110, DW_AT_name("AQTSRCSEL_REG")
    4184                      .dwattr $C$DW$T$110, DW_AT_byte_size(0x01)
    4185              $C$DW$463       .dwtag  DW_TAG_member
    4186                      .dwattr $C$DW$463, DW_AT_type(*$C$DW$T$34)
    4187                      .dwattr $C$DW$463, DW_AT_name("all")
    4188                      .dwattr $C$DW$463, DW_AT_TI_symbol_name("_all")
    4189                      .dwattr $C$DW$463, DW_AT_data_member_location[DW_OP_plus_uconst 0x0]
    4190                      .dwattr $C$DW$463, DW_AT_accessibility(DW_ACCESS_public)
    4191              $C$DW$464       .dwtag  DW_TAG_member
    4192                      .dwattr $C$DW$464, DW_AT_type(*$C$DW$T$109)
    4193                      .dwattr $C$DW$464, DW_AT_name("bit")
    4194                      .dwattr $C$DW$464, DW_AT_TI_symbol_name("_bit")
    4195                      .dwattr $C$DW$464, DW_AT_data_member_location[DW_OP_plus_uconst 0x0]
    4196                      .dwattr $C$DW$464, DW_AT_accessibility(DW_ACCESS_public)
    4197                      .dwendtag $C$DW$T$110
    4198              
    4199              
    4200              $C$DW$T$111     .dwtag  DW_TAG_structure_type
    4201                      .dwattr $C$DW$T$111, DW_AT_name("CMPA_BITS")
    4202                      .dwattr $C$DW$T$111, DW_AT_byte_size(0x02)
    4203              $C$DW$465       .dwtag  DW_TAG_member
    4204                      .dwattr $C$DW$465, DW_AT_type(*$C$DW$T$34)
    4205                      .dwattr $C$DW$465, DW_AT_name("CMPAHR")
    4206                      .dwattr $C$DW$465, DW_AT_TI_symbol_name("_CMPAHR")
    4207                      .dwattr $C$DW$465, DW_AT_bit_offset(0x00), DW_AT_bit_size(0x10)
    4208                      .dwattr $C$DW$465, DW_AT_data_member_location[DW_OP_plus_uconst 0x0]
    4209                      .dwattr $C$DW$465, DW_AT_accessibility(DW_ACCESS_public)
    4210              $C$DW$466       .dwtag  DW_TAG_member
    4211                      .dwattr $C$DW$466, DW_AT_type(*$C$DW$T$34)
    4212                      .dwattr $C$DW$466, DW_AT_name("CMPA")
    4213                      .dwattr $C$DW$466, DW_AT_TI_symbol_name("_CMPA")
    4214                      .dwattr $C$DW$466, DW_AT_bit_offset(0x00), DW_AT_bit_size(0x10)
TMS320C2000 Assembler PC v6.4.2 Thu Dec 14 15:27:05 2017

Tools Copyright (c) 1996-2015 Texas Instruments Incorporated
fsm_main.asm                                                         PAGE   80

    4215                      .dwattr $C$DW$466, DW_AT_data_member_location[DW_OP_plus_uconst 0x1]
    4216                      .dwattr $C$DW$466, DW_AT_accessibility(DW_ACCESS_public)
    4217                      .dwendtag $C$DW$T$111
    4218              
    4219              
    4220              $C$DW$T$112     .dwtag  DW_TAG_union_type
    4221                      .dwattr $C$DW$T$112, DW_AT_name("CMPA_REG")
    4222                      .dwattr $C$DW$T$112, DW_AT_byte_size(0x02)
    4223              $C$DW$467       .dwtag  DW_TAG_member
    4224                      .dwattr $C$DW$467, DW_AT_type(*$C$DW$T$20)
    4225                      .dwattr $C$DW$467, DW_AT_name("all")
    4226                      .dwattr $C$DW$467, DW_AT_TI_symbol_name("_all")
    4227                      .dwattr $C$DW$467, DW_AT_data_member_location[DW_OP_plus_uconst 0x0]
    4228                      .dwattr $C$DW$467, DW_AT_accessibility(DW_ACCESS_public)
    4229              $C$DW$468       .dwtag  DW_TAG_member
    4230                      .dwattr $C$DW$468, DW_AT_type(*$C$DW$T$111)
    4231                      .dwattr $C$DW$468, DW_AT_name("bit")
    4232                      .dwattr $C$DW$468, DW_AT_TI_symbol_name("_bit")
    4233                      .dwattr $C$DW$468, DW_AT_data_member_location[DW_OP_plus_uconst 0x0]
    4234                      .dwattr $C$DW$468, DW_AT_accessibility(DW_ACCESS_public)
    4235                      .dwendtag $C$DW$T$112
    4236              
    4237              
    4238              $C$DW$T$113     .dwtag  DW_TAG_structure_type
    4239                      .dwattr $C$DW$T$113, DW_AT_name("CMPB_BITS")
    4240                      .dwattr $C$DW$T$113, DW_AT_byte_size(0x02)
    4241              $C$DW$469       .dwtag  DW_TAG_member
    4242                      .dwattr $C$DW$469, DW_AT_type(*$C$DW$T$34)
    4243                      .dwattr $C$DW$469, DW_AT_name("CMPBHR")
    4244                      .dwattr $C$DW$469, DW_AT_TI_symbol_name("_CMPBHR")
    4245                      .dwattr $C$DW$469, DW_AT_bit_offset(0x00), DW_AT_bit_size(0x10)
    4246                      .dwattr $C$DW$469, DW_AT_data_member_location[DW_OP_plus_uconst 0x0]
    4247                      .dwattr $C$DW$469, DW_AT_accessibility(DW_ACCESS_public)
    4248              $C$DW$470       .dwtag  DW_TAG_member
    4249                      .dwattr $C$DW$470, DW_AT_type(*$C$DW$T$34)
    4250                      .dwattr $C$DW$470, DW_AT_name("CMPB")
    4251                      .dwattr $C$DW$470, DW_AT_TI_symbol_name("_CMPB")
    4252                      .dwattr $C$DW$470, DW_AT_bit_offset(0x00), DW_AT_bit_size(0x10)
    4253                      .dwattr $C$DW$470, DW_AT_data_member_location[DW_OP_plus_uconst 0x1]
    4254                      .dwattr $C$DW$470, DW_AT_accessibility(DW_ACCESS_public)
    4255                      .dwendtag $C$DW$T$113
    4256              
    4257              
    4258              $C$DW$T$114     .dwtag  DW_TAG_union_type
    4259                      .dwattr $C$DW$T$114, DW_AT_name("CMPB_REG")
    4260                      .dwattr $C$DW$T$114, DW_AT_byte_size(0x02)
    4261              $C$DW$471       .dwtag  DW_TAG_member
    4262                      .dwattr $C$DW$471, DW_AT_type(*$C$DW$T$20)
    4263                      .dwattr $C$DW$471, DW_AT_name("all")
    4264                      .dwattr $C$DW$471, DW_AT_TI_symbol_name("_all")
    4265                      .dwattr $C$DW$471, DW_AT_data_member_location[DW_OP_plus_uconst 0x0]
    4266                      .dwattr $C$DW$471, DW_AT_accessibility(DW_ACCESS_public)
    4267              $C$DW$472       .dwtag  DW_TAG_member
    4268                      .dwattr $C$DW$472, DW_AT_type(*$C$DW$T$113)
    4269                      .dwattr $C$DW$472, DW_AT_name("bit")
TMS320C2000 Assembler PC v6.4.2 Thu Dec 14 15:27:05 2017

Tools Copyright (c) 1996-2015 Texas Instruments Incorporated
fsm_main.asm                                                         PAGE   81

    4270                      .dwattr $C$DW$472, DW_AT_TI_symbol_name("_bit")
    4271                      .dwattr $C$DW$472, DW_AT_data_member_location[DW_OP_plus_uconst 0x0]
    4272                      .dwattr $C$DW$472, DW_AT_accessibility(DW_ACCESS_public)
    4273                      .dwendtag $C$DW$T$114
    4274              
    4275              
    4276              $C$DW$T$115     .dwtag  DW_TAG_structure_type
    4277                      .dwattr $C$DW$T$115, DW_AT_name("CMPCTL2_BITS")
    4278                      .dwattr $C$DW$T$115, DW_AT_byte_size(0x01)
    4279              $C$DW$473       .dwtag  DW_TAG_member
    4280                      .dwattr $C$DW$473, DW_AT_type(*$C$DW$T$34)
    4281                      .dwattr $C$DW$473, DW_AT_name("LOADCMODE")
    4282                      .dwattr $C$DW$473, DW_AT_TI_symbol_name("_LOADCMODE")
    4283                      .dwattr $C$DW$473, DW_AT_bit_offset(0x0e), DW_AT_bit_size(0x02)
    4284                      .dwattr $C$DW$473, DW_AT_data_member_location[DW_OP_plus_uconst 0x0]
    4285                      .dwattr $C$DW$473, DW_AT_accessibility(DW_ACCESS_public)
    4286              $C$DW$474       .dwtag  DW_TAG_member
    4287                      .dwattr $C$DW$474, DW_AT_type(*$C$DW$T$34)
    4288                      .dwattr $C$DW$474, DW_AT_name("LOADDMODE")
    4289                      .dwattr $C$DW$474, DW_AT_TI_symbol_name("_LOADDMODE")
    4290                      .dwattr $C$DW$474, DW_AT_bit_offset(0x0c), DW_AT_bit_size(0x02)
    4291                      .dwattr $C$DW$474, DW_AT_data_member_location[DW_OP_plus_uconst 0x0]
    4292                      .dwattr $C$DW$474, DW_AT_accessibility(DW_ACCESS_public)
    4293              $C$DW$475       .dwtag  DW_TAG_member
    4294                      .dwattr $C$DW$475, DW_AT_type(*$C$DW$T$34)
    4295                      .dwattr $C$DW$475, DW_AT_name("SHDWCMODE")
    4296                      .dwattr $C$DW$475, DW_AT_TI_symbol_name("_SHDWCMODE")
    4297                      .dwattr $C$DW$475, DW_AT_bit_offset(0x0b), DW_AT_bit_size(0x01)
    4298                      .dwattr $C$DW$475, DW_AT_data_member_location[DW_OP_plus_uconst 0x0]
    4299                      .dwattr $C$DW$475, DW_AT_accessibility(DW_ACCESS_public)
    4300              $C$DW$476       .dwtag  DW_TAG_member
    4301                      .dwattr $C$DW$476, DW_AT_type(*$C$DW$T$34)
    4302                      .dwattr $C$DW$476, DW_AT_name("rsvd1")
    4303                      .dwattr $C$DW$476, DW_AT_TI_symbol_name("_rsvd1")
    4304                      .dwattr $C$DW$476, DW_AT_bit_offset(0x0a), DW_AT_bit_size(0x01)
    4305                      .dwattr $C$DW$476, DW_AT_data_member_location[DW_OP_plus_uconst 0x0]
    4306                      .dwattr $C$DW$476, DW_AT_accessibility(DW_ACCESS_public)
    4307              $C$DW$477       .dwtag  DW_TAG_member
    4308                      .dwattr $C$DW$477, DW_AT_type(*$C$DW$T$34)
    4309                      .dwattr $C$DW$477, DW_AT_name("SHDWDMODE")
    4310                      .dwattr $C$DW$477, DW_AT_TI_symbol_name("_SHDWDMODE")
    4311                      .dwattr $C$DW$477, DW_AT_bit_offset(0x09), DW_AT_bit_size(0x01)
    4312                      .dwattr $C$DW$477, DW_AT_data_member_location[DW_OP_plus_uconst 0x0]
    4313                      .dwattr $C$DW$477, DW_AT_accessibility(DW_ACCESS_public)
    4314              $C$DW$478       .dwtag  DW_TAG_member
    4315                      .dwattr $C$DW$478, DW_AT_type(*$C$DW$T$34)
    4316                      .dwattr $C$DW$478, DW_AT_name("rsvd2")
    4317                      .dwattr $C$DW$478, DW_AT_TI_symbol_name("_rsvd2")
    4318                      .dwattr $C$DW$478, DW_AT_bit_offset(0x06), DW_AT_bit_size(0x03)
    4319                      .dwattr $C$DW$478, DW_AT_data_member_location[DW_OP_plus_uconst 0x0]
    4320                      .dwattr $C$DW$478, DW_AT_accessibility(DW_ACCESS_public)
    4321              $C$DW$479       .dwtag  DW_TAG_member
    4322                      .dwattr $C$DW$479, DW_AT_type(*$C$DW$T$34)
    4323                      .dwattr $C$DW$479, DW_AT_name("LOADCSYNC")
    4324                      .dwattr $C$DW$479, DW_AT_TI_symbol_name("_LOADCSYNC")
TMS320C2000 Assembler PC v6.4.2 Thu Dec 14 15:27:05 2017

Tools Copyright (c) 1996-2015 Texas Instruments Incorporated
fsm_main.asm                                                         PAGE   82

    4325                      .dwattr $C$DW$479, DW_AT_bit_offset(0x04), DW_AT_bit_size(0x02)
    4326                      .dwattr $C$DW$479, DW_AT_data_member_location[DW_OP_plus_uconst 0x0]
    4327                      .dwattr $C$DW$479, DW_AT_accessibility(DW_ACCESS_public)
    4328              $C$DW$480       .dwtag  DW_TAG_member
    4329                      .dwattr $C$DW$480, DW_AT_type(*$C$DW$T$34)
    4330                      .dwattr $C$DW$480, DW_AT_name("LOADDSYNC")
    4331                      .dwattr $C$DW$480, DW_AT_TI_symbol_name("_LOADDSYNC")
    4332                      .dwattr $C$DW$480, DW_AT_bit_offset(0x02), DW_AT_bit_size(0x02)
    4333                      .dwattr $C$DW$480, DW_AT_data_member_location[DW_OP_plus_uconst 0x0]
    4334                      .dwattr $C$DW$480, DW_AT_accessibility(DW_ACCESS_public)
    4335              $C$DW$481       .dwtag  DW_TAG_member
    4336                      .dwattr $C$DW$481, DW_AT_type(*$C$DW$T$34)
    4337                      .dwattr $C$DW$481, DW_AT_name("rsvd3")
    4338                      .dwattr $C$DW$481, DW_AT_TI_symbol_name("_rsvd3")
    4339                      .dwattr $C$DW$481, DW_AT_bit_offset(0x00), DW_AT_bit_size(0x02)
    4340                      .dwattr $C$DW$481, DW_AT_data_member_location[DW_OP_plus_uconst 0x0]
    4341                      .dwattr $C$DW$481, DW_AT_accessibility(DW_ACCESS_public)
    4342                      .dwendtag $C$DW$T$115
    4343              
    4344              
    4345              $C$DW$T$116     .dwtag  DW_TAG_union_type
    4346                      .dwattr $C$DW$T$116, DW_AT_name("CMPCTL2_REG")
    4347                      .dwattr $C$DW$T$116, DW_AT_byte_size(0x01)
    4348              $C$DW$482       .dwtag  DW_TAG_member
    4349                      .dwattr $C$DW$482, DW_AT_type(*$C$DW$T$34)
    4350                      .dwattr $C$DW$482, DW_AT_name("all")
    4351                      .dwattr $C$DW$482, DW_AT_TI_symbol_name("_all")
    4352                      .dwattr $C$DW$482, DW_AT_data_member_location[DW_OP_plus_uconst 0x0]
    4353                      .dwattr $C$DW$482, DW_AT_accessibility(DW_ACCESS_public)
    4354              $C$DW$483       .dwtag  DW_TAG_member
    4355                      .dwattr $C$DW$483, DW_AT_type(*$C$DW$T$115)
    4356                      .dwattr $C$DW$483, DW_AT_name("bit")
    4357                      .dwattr $C$DW$483, DW_AT_TI_symbol_name("_bit")
    4358                      .dwattr $C$DW$483, DW_AT_data_member_location[DW_OP_plus_uconst 0x0]
    4359                      .dwattr $C$DW$483, DW_AT_accessibility(DW_ACCESS_public)
    4360                      .dwendtag $C$DW$T$116
    4361              
    4362              
    4363              $C$DW$T$117     .dwtag  DW_TAG_structure_type
    4364                      .dwattr $C$DW$T$117, DW_AT_name("CMPCTL_BITS")
    4365                      .dwattr $C$DW$T$117, DW_AT_byte_size(0x01)
    4366              $C$DW$484       .dwtag  DW_TAG_member
    4367                      .dwattr $C$DW$484, DW_AT_type(*$C$DW$T$34)
    4368                      .dwattr $C$DW$484, DW_AT_name("LOADAMODE")
    4369                      .dwattr $C$DW$484, DW_AT_TI_symbol_name("_LOADAMODE")
    4370                      .dwattr $C$DW$484, DW_AT_bit_offset(0x0e), DW_AT_bit_size(0x02)
    4371                      .dwattr $C$DW$484, DW_AT_data_member_location[DW_OP_plus_uconst 0x0]
    4372                      .dwattr $C$DW$484, DW_AT_accessibility(DW_ACCESS_public)
    4373              $C$DW$485       .dwtag  DW_TAG_member
    4374                      .dwattr $C$DW$485, DW_AT_type(*$C$DW$T$34)
    4375                      .dwattr $C$DW$485, DW_AT_name("LOADBMODE")
    4376                      .dwattr $C$DW$485, DW_AT_TI_symbol_name("_LOADBMODE")
    4377                      .dwattr $C$DW$485, DW_AT_bit_offset(0x0c), DW_AT_bit_size(0x02)
    4378                      .dwattr $C$DW$485, DW_AT_data_member_location[DW_OP_plus_uconst 0x0]
    4379                      .dwattr $C$DW$485, DW_AT_accessibility(DW_ACCESS_public)
TMS320C2000 Assembler PC v6.4.2 Thu Dec 14 15:27:05 2017

Tools Copyright (c) 1996-2015 Texas Instruments Incorporated
fsm_main.asm                                                         PAGE   83

    4380              $C$DW$486       .dwtag  DW_TAG_member
    4381                      .dwattr $C$DW$486, DW_AT_type(*$C$DW$T$34)
    4382                      .dwattr $C$DW$486, DW_AT_name("SHDWAMODE")
    4383                      .dwattr $C$DW$486, DW_AT_TI_symbol_name("_SHDWAMODE")
    4384                      .dwattr $C$DW$486, DW_AT_bit_offset(0x0b), DW_AT_bit_size(0x01)
    4385                      .dwattr $C$DW$486, DW_AT_data_member_location[DW_OP_plus_uconst 0x0]
    4386                      .dwattr $C$DW$486, DW_AT_accessibility(DW_ACCESS_public)
    4387              $C$DW$487       .dwtag  DW_TAG_member
    4388                      .dwattr $C$DW$487, DW_AT_type(*$C$DW$T$34)
    4389                      .dwattr $C$DW$487, DW_AT_name("rsvd1")
    4390                      .dwattr $C$DW$487, DW_AT_TI_symbol_name("_rsvd1")
    4391                      .dwattr $C$DW$487, DW_AT_bit_offset(0x0a), DW_AT_bit_size(0x01)
    4392                      .dwattr $C$DW$487, DW_AT_data_member_location[DW_OP_plus_uconst 0x0]
    4393                      .dwattr $C$DW$487, DW_AT_accessibility(DW_ACCESS_public)
    4394              $C$DW$488       .dwtag  DW_TAG_member
    4395                      .dwattr $C$DW$488, DW_AT_type(*$C$DW$T$34)
    4396                      .dwattr $C$DW$488, DW_AT_name("SHDWBMODE")
    4397                      .dwattr $C$DW$488, DW_AT_TI_symbol_name("_SHDWBMODE")
    4398                      .dwattr $C$DW$488, DW_AT_bit_offset(0x09), DW_AT_bit_size(0x01)
    4399                      .dwattr $C$DW$488, DW_AT_data_member_location[DW_OP_plus_uconst 0x0]
    4400                      .dwattr $C$DW$488, DW_AT_accessibility(DW_ACCESS_public)
    4401              $C$DW$489       .dwtag  DW_TAG_member
    4402                      .dwattr $C$DW$489, DW_AT_type(*$C$DW$T$34)
    4403                      .dwattr $C$DW$489, DW_AT_name("rsvd2")
    4404                      .dwattr $C$DW$489, DW_AT_TI_symbol_name("_rsvd2")
    4405                      .dwattr $C$DW$489, DW_AT_bit_offset(0x08), DW_AT_bit_size(0x01)
    4406                      .dwattr $C$DW$489, DW_AT_data_member_location[DW_OP_plus_uconst 0x0]
    4407                      .dwattr $C$DW$489, DW_AT_accessibility(DW_ACCESS_public)
    4408              $C$DW$490       .dwtag  DW_TAG_member
    4409                      .dwattr $C$DW$490, DW_AT_type(*$C$DW$T$34)
    4410                      .dwattr $C$DW$490, DW_AT_name("SHDWAFULL")
    4411                      .dwattr $C$DW$490, DW_AT_TI_symbol_name("_SHDWAFULL")
    4412                      .dwattr $C$DW$490, DW_AT_bit_offset(0x07), DW_AT_bit_size(0x01)
    4413                      .dwattr $C$DW$490, DW_AT_data_member_location[DW_OP_plus_uconst 0x0]
    4414                      .dwattr $C$DW$490, DW_AT_accessibility(DW_ACCESS_public)
    4415              $C$DW$491       .dwtag  DW_TAG_member
    4416                      .dwattr $C$DW$491, DW_AT_type(*$C$DW$T$34)
    4417                      .dwattr $C$DW$491, DW_AT_name("SHDWBFULL")
    4418                      .dwattr $C$DW$491, DW_AT_TI_symbol_name("_SHDWBFULL")
    4419                      .dwattr $C$DW$491, DW_AT_bit_offset(0x06), DW_AT_bit_size(0x01)
    4420                      .dwattr $C$DW$491, DW_AT_data_member_location[DW_OP_plus_uconst 0x0]
    4421                      .dwattr $C$DW$491, DW_AT_accessibility(DW_ACCESS_public)
    4422              $C$DW$492       .dwtag  DW_TAG_member
    4423                      .dwattr $C$DW$492, DW_AT_type(*$C$DW$T$34)
    4424                      .dwattr $C$DW$492, DW_AT_name("LOADASYNC")
    4425                      .dwattr $C$DW$492, DW_AT_TI_symbol_name("_LOADASYNC")
    4426                      .dwattr $C$DW$492, DW_AT_bit_offset(0x04), DW_AT_bit_size(0x02)
    4427                      .dwattr $C$DW$492, DW_AT_data_member_location[DW_OP_plus_uconst 0x0]
    4428                      .dwattr $C$DW$492, DW_AT_accessibility(DW_ACCESS_public)
    4429              $C$DW$493       .dwtag  DW_TAG_member
    4430                      .dwattr $C$DW$493, DW_AT_type(*$C$DW$T$34)
    4431                      .dwattr $C$DW$493, DW_AT_name("LOADBSYNC")
    4432                      .dwattr $C$DW$493, DW_AT_TI_symbol_name("_LOADBSYNC")
    4433                      .dwattr $C$DW$493, DW_AT_bit_offset(0x02), DW_AT_bit_size(0x02)
    4434                      .dwattr $C$DW$493, DW_AT_data_member_location[DW_OP_plus_uconst 0x0]
TMS320C2000 Assembler PC v6.4.2 Thu Dec 14 15:27:05 2017

Tools Copyright (c) 1996-2015 Texas Instruments Incorporated
fsm_main.asm                                                         PAGE   84

    4435                      .dwattr $C$DW$493, DW_AT_accessibility(DW_ACCESS_public)
    4436              $C$DW$494       .dwtag  DW_TAG_member
    4437                      .dwattr $C$DW$494, DW_AT_type(*$C$DW$T$34)
    4438                      .dwattr $C$DW$494, DW_AT_name("rsvd3")
    4439                      .dwattr $C$DW$494, DW_AT_TI_symbol_name("_rsvd3")
    4440                      .dwattr $C$DW$494, DW_AT_bit_offset(0x00), DW_AT_bit_size(0x02)
    4441                      .dwattr $C$DW$494, DW_AT_data_member_location[DW_OP_plus_uconst 0x0]
    4442                      .dwattr $C$DW$494, DW_AT_accessibility(DW_ACCESS_public)
    4443                      .dwendtag $C$DW$T$117
    4444              
    4445              
    4446              $C$DW$T$118     .dwtag  DW_TAG_union_type
    4447                      .dwattr $C$DW$T$118, DW_AT_name("CMPCTL_REG")
    4448                      .dwattr $C$DW$T$118, DW_AT_byte_size(0x01)
    4449              $C$DW$495       .dwtag  DW_TAG_member
    4450                      .dwattr $C$DW$495, DW_AT_type(*$C$DW$T$34)
    4451                      .dwattr $C$DW$495, DW_AT_name("all")
    4452                      .dwattr $C$DW$495, DW_AT_TI_symbol_name("_all")
    4453                      .dwattr $C$DW$495, DW_AT_data_member_location[DW_OP_plus_uconst 0x0]
    4454                      .dwattr $C$DW$495, DW_AT_accessibility(DW_ACCESS_public)
    4455              $C$DW$496       .dwtag  DW_TAG_member
    4456                      .dwattr $C$DW$496, DW_AT_type(*$C$DW$T$117)
    4457                      .dwattr $C$DW$496, DW_AT_name("bit")
    4458                      .dwattr $C$DW$496, DW_AT_TI_symbol_name("_bit")
    4459                      .dwattr $C$DW$496, DW_AT_data_member_location[DW_OP_plus_uconst 0x0]
    4460                      .dwattr $C$DW$496, DW_AT_accessibility(DW_ACCESS_public)
    4461                      .dwendtag $C$DW$T$118
    4462              
    4463              
    4464              $C$DW$T$119     .dwtag  DW_TAG_structure_type
    4465                      .dwattr $C$DW$T$119, DW_AT_name("DBCTL2_BITS")
    4466                      .dwattr $C$DW$T$119, DW_AT_byte_size(0x01)
    4467              $C$DW$497       .dwtag  DW_TAG_member
    4468                      .dwattr $C$DW$497, DW_AT_type(*$C$DW$T$34)
    4469                      .dwattr $C$DW$497, DW_AT_name("LOADDBCTLMODE")
    4470                      .dwattr $C$DW$497, DW_AT_TI_symbol_name("_LOADDBCTLMODE")
    4471                      .dwattr $C$DW$497, DW_AT_bit_offset(0x0e), DW_AT_bit_size(0x02)
    4472                      .dwattr $C$DW$497, DW_AT_data_member_location[DW_OP_plus_uconst 0x0]
    4473                      .dwattr $C$DW$497, DW_AT_accessibility(DW_ACCESS_public)
    4474              $C$DW$498       .dwtag  DW_TAG_member
    4475                      .dwattr $C$DW$498, DW_AT_type(*$C$DW$T$34)
    4476                      .dwattr $C$DW$498, DW_AT_name("SHDWDBCTLMODE")
    4477                      .dwattr $C$DW$498, DW_AT_TI_symbol_name("_SHDWDBCTLMODE")
    4478                      .dwattr $C$DW$498, DW_AT_bit_offset(0x0d), DW_AT_bit_size(0x01)
    4479                      .dwattr $C$DW$498, DW_AT_data_member_location[DW_OP_plus_uconst 0x0]
    4480                      .dwattr $C$DW$498, DW_AT_accessibility(DW_ACCESS_public)
    4481              $C$DW$499       .dwtag  DW_TAG_member
    4482                      .dwattr $C$DW$499, DW_AT_type(*$C$DW$T$34)
    4483                      .dwattr $C$DW$499, DW_AT_name("rsvd1")
    4484                      .dwattr $C$DW$499, DW_AT_TI_symbol_name("_rsvd1")
    4485                      .dwattr $C$DW$499, DW_AT_bit_offset(0x00), DW_AT_bit_size(0x0d)
    4486                      .dwattr $C$DW$499, DW_AT_data_member_location[DW_OP_plus_uconst 0x0]
    4487                      .dwattr $C$DW$499, DW_AT_accessibility(DW_ACCESS_public)
    4488                      .dwendtag $C$DW$T$119
    4489              
TMS320C2000 Assembler PC v6.4.2 Thu Dec 14 15:27:05 2017

Tools Copyright (c) 1996-2015 Texas Instruments Incorporated
fsm_main.asm                                                         PAGE   85

    4490              
    4491              $C$DW$T$120     .dwtag  DW_TAG_union_type
    4492                      .dwattr $C$DW$T$120, DW_AT_name("DBCTL2_REG")
    4493                      .dwattr $C$DW$T$120, DW_AT_byte_size(0x01)
    4494              $C$DW$500       .dwtag  DW_TAG_member
    4495                      .dwattr $C$DW$500, DW_AT_type(*$C$DW$T$34)
    4496                      .dwattr $C$DW$500, DW_AT_name("all")
    4497                      .dwattr $C$DW$500, DW_AT_TI_symbol_name("_all")
    4498                      .dwattr $C$DW$500, DW_AT_data_member_location[DW_OP_plus_uconst 0x0]
    4499                      .dwattr $C$DW$500, DW_AT_accessibility(DW_ACCESS_public)
    4500              $C$DW$501       .dwtag  DW_TAG_member
    4501                      .dwattr $C$DW$501, DW_AT_type(*$C$DW$T$119)
    4502                      .dwattr $C$DW$501, DW_AT_name("bit")
    4503                      .dwattr $C$DW$501, DW_AT_TI_symbol_name("_bit")
    4504                      .dwattr $C$DW$501, DW_AT_data_member_location[DW_OP_plus_uconst 0x0]
    4505                      .dwattr $C$DW$501, DW_AT_accessibility(DW_ACCESS_public)
    4506                      .dwendtag $C$DW$T$120
    4507              
    4508              
    4509              $C$DW$T$121     .dwtag  DW_TAG_structure_type
    4510                      .dwattr $C$DW$T$121, DW_AT_name("DBCTL_BITS")
    4511                      .dwattr $C$DW$T$121, DW_AT_byte_size(0x01)
    4512              $C$DW$502       .dwtag  DW_TAG_member
    4513                      .dwattr $C$DW$502, DW_AT_type(*$C$DW$T$34)
    4514                      .dwattr $C$DW$502, DW_AT_name("OUT_MODE")
    4515                      .dwattr $C$DW$502, DW_AT_TI_symbol_name("_OUT_MODE")
    4516                      .dwattr $C$DW$502, DW_AT_bit_offset(0x0e), DW_AT_bit_size(0x02)
    4517                      .dwattr $C$DW$502, DW_AT_data_member_location[DW_OP_plus_uconst 0x0]
    4518                      .dwattr $C$DW$502, DW_AT_accessibility(DW_ACCESS_public)
    4519              $C$DW$503       .dwtag  DW_TAG_member
    4520                      .dwattr $C$DW$503, DW_AT_type(*$C$DW$T$34)
    4521                      .dwattr $C$DW$503, DW_AT_name("POLSEL")
    4522                      .dwattr $C$DW$503, DW_AT_TI_symbol_name("_POLSEL")
    4523                      .dwattr $C$DW$503, DW_AT_bit_offset(0x0c), DW_AT_bit_size(0x02)
    4524                      .dwattr $C$DW$503, DW_AT_data_member_location[DW_OP_plus_uconst 0x0]
    4525                      .dwattr $C$DW$503, DW_AT_accessibility(DW_ACCESS_public)
    4526              $C$DW$504       .dwtag  DW_TAG_member
    4527                      .dwattr $C$DW$504, DW_AT_type(*$C$DW$T$34)
    4528                      .dwattr $C$DW$504, DW_AT_name("IN_MODE")
    4529                      .dwattr $C$DW$504, DW_AT_TI_symbol_name("_IN_MODE")
    4530                      .dwattr $C$DW$504, DW_AT_bit_offset(0x0a), DW_AT_bit_size(0x02)
    4531                      .dwattr $C$DW$504, DW_AT_data_member_location[DW_OP_plus_uconst 0x0]
    4532                      .dwattr $C$DW$504, DW_AT_accessibility(DW_ACCESS_public)
    4533              $C$DW$505       .dwtag  DW_TAG_member
    4534                      .dwattr $C$DW$505, DW_AT_type(*$C$DW$T$34)
    4535                      .dwattr $C$DW$505, DW_AT_name("LOADREDMODE")
    4536                      .dwattr $C$DW$505, DW_AT_TI_symbol_name("_LOADREDMODE")
    4537                      .dwattr $C$DW$505, DW_AT_bit_offset(0x08), DW_AT_bit_size(0x02)
    4538                      .dwattr $C$DW$505, DW_AT_data_member_location[DW_OP_plus_uconst 0x0]
    4539                      .dwattr $C$DW$505, DW_AT_accessibility(DW_ACCESS_public)
    4540              $C$DW$506       .dwtag  DW_TAG_member
    4541                      .dwattr $C$DW$506, DW_AT_type(*$C$DW$T$34)
    4542                      .dwattr $C$DW$506, DW_AT_name("LOADFEDMODE")
    4543                      .dwattr $C$DW$506, DW_AT_TI_symbol_name("_LOADFEDMODE")
    4544                      .dwattr $C$DW$506, DW_AT_bit_offset(0x06), DW_AT_bit_size(0x02)
TMS320C2000 Assembler PC v6.4.2 Thu Dec 14 15:27:05 2017

Tools Copyright (c) 1996-2015 Texas Instruments Incorporated
fsm_main.asm                                                         PAGE   86

    4545                      .dwattr $C$DW$506, DW_AT_data_member_location[DW_OP_plus_uconst 0x0]
    4546                      .dwattr $C$DW$506, DW_AT_accessibility(DW_ACCESS_public)
    4547              $C$DW$507       .dwtag  DW_TAG_member
    4548                      .dwattr $C$DW$507, DW_AT_type(*$C$DW$T$34)
    4549                      .dwattr $C$DW$507, DW_AT_name("SHDWDBREDMODE")
    4550                      .dwattr $C$DW$507, DW_AT_TI_symbol_name("_SHDWDBREDMODE")
    4551                      .dwattr $C$DW$507, DW_AT_bit_offset(0x05), DW_AT_bit_size(0x01)
    4552                      .dwattr $C$DW$507, DW_AT_data_member_location[DW_OP_plus_uconst 0x0]
    4553                      .dwattr $C$DW$507, DW_AT_accessibility(DW_ACCESS_public)
    4554              $C$DW$508       .dwtag  DW_TAG_member
    4555                      .dwattr $C$DW$508, DW_AT_type(*$C$DW$T$34)
    4556                      .dwattr $C$DW$508, DW_AT_name("SHDWDBFEDMODE")
    4557                      .dwattr $C$DW$508, DW_AT_TI_symbol_name("_SHDWDBFEDMODE")
    4558                      .dwattr $C$DW$508, DW_AT_bit_offset(0x04), DW_AT_bit_size(0x01)
    4559                      .dwattr $C$DW$508, DW_AT_data_member_location[DW_OP_plus_uconst 0x0]
    4560                      .dwattr $C$DW$508, DW_AT_accessibility(DW_ACCESS_public)
    4561              $C$DW$509       .dwtag  DW_TAG_member
    4562                      .dwattr $C$DW$509, DW_AT_type(*$C$DW$T$34)
    4563                      .dwattr $C$DW$509, DW_AT_name("OUTSWAP")
    4564                      .dwattr $C$DW$509, DW_AT_TI_symbol_name("_OUTSWAP")
    4565                      .dwattr $C$DW$509, DW_AT_bit_offset(0x02), DW_AT_bit_size(0x02)
    4566                      .dwattr $C$DW$509, DW_AT_data_member_location[DW_OP_plus_uconst 0x0]
    4567                      .dwattr $C$DW$509, DW_AT_accessibility(DW_ACCESS_public)
    4568              $C$DW$510       .dwtag  DW_TAG_member
    4569                      .dwattr $C$DW$510, DW_AT_type(*$C$DW$T$34)
    4570                      .dwattr $C$DW$510, DW_AT_name("DEDB_MODE")
    4571                      .dwattr $C$DW$510, DW_AT_TI_symbol_name("_DEDB_MODE")
    4572                      .dwattr $C$DW$510, DW_AT_bit_offset(0x01), DW_AT_bit_size(0x01)
    4573                      .dwattr $C$DW$510, DW_AT_data_member_location[DW_OP_plus_uconst 0x0]
    4574                      .dwattr $C$DW$510, DW_AT_accessibility(DW_ACCESS_public)
    4575              $C$DW$511       .dwtag  DW_TAG_member
    4576                      .dwattr $C$DW$511, DW_AT_type(*$C$DW$T$34)
    4577                      .dwattr $C$DW$511, DW_AT_name("HALFCYCLE")
    4578                      .dwattr $C$DW$511, DW_AT_TI_symbol_name("_HALFCYCLE")
    4579                      .dwattr $C$DW$511, DW_AT_bit_offset(0x00), DW_AT_bit_size(0x01)
    4580                      .dwattr $C$DW$511, DW_AT_data_member_location[DW_OP_plus_uconst 0x0]
    4581                      .dwattr $C$DW$511, DW_AT_accessibility(DW_ACCESS_public)
    4582                      .dwendtag $C$DW$T$121
    4583              
    4584              
    4585              $C$DW$T$122     .dwtag  DW_TAG_union_type
    4586                      .dwattr $C$DW$T$122, DW_AT_name("DBCTL_REG")
    4587                      .dwattr $C$DW$T$122, DW_AT_byte_size(0x01)
    4588              $C$DW$512       .dwtag  DW_TAG_member
    4589                      .dwattr $C$DW$512, DW_AT_type(*$C$DW$T$34)
    4590                      .dwattr $C$DW$512, DW_AT_name("all")
    4591                      .dwattr $C$DW$512, DW_AT_TI_symbol_name("_all")
    4592                      .dwattr $C$DW$512, DW_AT_data_member_location[DW_OP_plus_uconst 0x0]
    4593                      .dwattr $C$DW$512, DW_AT_accessibility(DW_ACCESS_public)
    4594              $C$DW$513       .dwtag  DW_TAG_member
    4595                      .dwattr $C$DW$513, DW_AT_type(*$C$DW$T$121)
    4596                      .dwattr $C$DW$513, DW_AT_name("bit")
    4597                      .dwattr $C$DW$513, DW_AT_TI_symbol_name("_bit")
    4598                      .dwattr $C$DW$513, DW_AT_data_member_location[DW_OP_plus_uconst 0x0]
    4599                      .dwattr $C$DW$513, DW_AT_accessibility(DW_ACCESS_public)
TMS320C2000 Assembler PC v6.4.2 Thu Dec 14 15:27:05 2017

Tools Copyright (c) 1996-2015 Texas Instruments Incorporated
fsm_main.asm                                                         PAGE   87

    4600                      .dwendtag $C$DW$T$122
    4601              
    4602              
    4603              $C$DW$T$123     .dwtag  DW_TAG_structure_type
    4604                      .dwattr $C$DW$T$123, DW_AT_name("DBFEDHR_BITS")
    4605                      .dwattr $C$DW$T$123, DW_AT_byte_size(0x01)
    4606              $C$DW$514       .dwtag  DW_TAG_member
    4607                      .dwattr $C$DW$514, DW_AT_type(*$C$DW$T$34)
    4608                      .dwattr $C$DW$514, DW_AT_name("rsvd1")
    4609                      .dwattr $C$DW$514, DW_AT_TI_symbol_name("_rsvd1")
    4610                      .dwattr $C$DW$514, DW_AT_bit_offset(0x0f), DW_AT_bit_size(0x01)
    4611                      .dwattr $C$DW$514, DW_AT_data_member_location[DW_OP_plus_uconst 0x0]
    4612                      .dwattr $C$DW$514, DW_AT_accessibility(DW_ACCESS_public)
    4613              $C$DW$515       .dwtag  DW_TAG_member
    4614                      .dwattr $C$DW$515, DW_AT_type(*$C$DW$T$34)
    4615                      .dwattr $C$DW$515, DW_AT_name("rsvd2")
    4616                      .dwattr $C$DW$515, DW_AT_TI_symbol_name("_rsvd2")
    4617                      .dwattr $C$DW$515, DW_AT_bit_offset(0x08), DW_AT_bit_size(0x07)
    4618                      .dwattr $C$DW$515, DW_AT_data_member_location[DW_OP_plus_uconst 0x0]
    4619                      .dwattr $C$DW$515, DW_AT_accessibility(DW_ACCESS_public)
    4620              $C$DW$516       .dwtag  DW_TAG_member
    4621                      .dwattr $C$DW$516, DW_AT_type(*$C$DW$T$34)
    4622                      .dwattr $C$DW$516, DW_AT_name("rsvd3")
    4623                      .dwattr $C$DW$516, DW_AT_TI_symbol_name("_rsvd3")
    4624                      .dwattr $C$DW$516, DW_AT_bit_offset(0x07), DW_AT_bit_size(0x01)
    4625                      .dwattr $C$DW$516, DW_AT_data_member_location[DW_OP_plus_uconst 0x0]
    4626                      .dwattr $C$DW$516, DW_AT_accessibility(DW_ACCESS_public)
    4627              $C$DW$517       .dwtag  DW_TAG_member
    4628                      .dwattr $C$DW$517, DW_AT_type(*$C$DW$T$34)
    4629                      .dwattr $C$DW$517, DW_AT_name("DBFEDHR")
    4630                      .dwattr $C$DW$517, DW_AT_TI_symbol_name("_DBFEDHR")
    4631                      .dwattr $C$DW$517, DW_AT_bit_offset(0x00), DW_AT_bit_size(0x07)
    4632                      .dwattr $C$DW$517, DW_AT_data_member_location[DW_OP_plus_uconst 0x0]
    4633                      .dwattr $C$DW$517, DW_AT_accessibility(DW_ACCESS_public)
    4634                      .dwendtag $C$DW$T$123
    4635              
    4636              
    4637              $C$DW$T$124     .dwtag  DW_TAG_union_type
    4638                      .dwattr $C$DW$T$124, DW_AT_name("DBFEDHR_REG")
    4639                      .dwattr $C$DW$T$124, DW_AT_byte_size(0x01)
    4640              $C$DW$518       .dwtag  DW_TAG_member
    4641                      .dwattr $C$DW$518, DW_AT_type(*$C$DW$T$34)
    4642                      .dwattr $C$DW$518, DW_AT_name("all")
    4643                      .dwattr $C$DW$518, DW_AT_TI_symbol_name("_all")
    4644                      .dwattr $C$DW$518, DW_AT_data_member_location[DW_OP_plus_uconst 0x0]
    4645                      .dwattr $C$DW$518, DW_AT_accessibility(DW_ACCESS_public)
    4646              $C$DW$519       .dwtag  DW_TAG_member
    4647                      .dwattr $C$DW$519, DW_AT_type(*$C$DW$T$123)
    4648                      .dwattr $C$DW$519, DW_AT_name("bit")
    4649                      .dwattr $C$DW$519, DW_AT_TI_symbol_name("_bit")
    4650                      .dwattr $C$DW$519, DW_AT_data_member_location[DW_OP_plus_uconst 0x0]
    4651                      .dwattr $C$DW$519, DW_AT_accessibility(DW_ACCESS_public)
    4652                      .dwendtag $C$DW$T$124
    4653              
    4654              
TMS320C2000 Assembler PC v6.4.2 Thu Dec 14 15:27:05 2017

Tools Copyright (c) 1996-2015 Texas Instruments Incorporated
fsm_main.asm                                                         PAGE   88

    4655              $C$DW$T$125     .dwtag  DW_TAG_structure_type
    4656                      .dwattr $C$DW$T$125, DW_AT_name("DBREDHR_BITS")
    4657                      .dwattr $C$DW$T$125, DW_AT_byte_size(0x01)
    4658              $C$DW$520       .dwtag  DW_TAG_member
    4659                      .dwattr $C$DW$520, DW_AT_type(*$C$DW$T$34)
    4660                      .dwattr $C$DW$520, DW_AT_name("rsvd1")
    4661                      .dwattr $C$DW$520, DW_AT_TI_symbol_name("_rsvd1")
    4662                      .dwattr $C$DW$520, DW_AT_bit_offset(0x0f), DW_AT_bit_size(0x01)
    4663                      .dwattr $C$DW$520, DW_AT_data_member_location[DW_OP_plus_uconst 0x0]
    4664                      .dwattr $C$DW$520, DW_AT_accessibility(DW_ACCESS_public)
    4665              $C$DW$521       .dwtag  DW_TAG_member
    4666                      .dwattr $C$DW$521, DW_AT_type(*$C$DW$T$34)
    4667                      .dwattr $C$DW$521, DW_AT_name("rsvd2")
    4668                      .dwattr $C$DW$521, DW_AT_TI_symbol_name("_rsvd2")
    4669                      .dwattr $C$DW$521, DW_AT_bit_offset(0x08), DW_AT_bit_size(0x07)
    4670                      .dwattr $C$DW$521, DW_AT_data_member_location[DW_OP_plus_uconst 0x0]
    4671                      .dwattr $C$DW$521, DW_AT_accessibility(DW_ACCESS_public)
    4672              $C$DW$522       .dwtag  DW_TAG_member
    4673                      .dwattr $C$DW$522, DW_AT_type(*$C$DW$T$34)
    4674                      .dwattr $C$DW$522, DW_AT_name("rsvd3")
    4675                      .dwattr $C$DW$522, DW_AT_TI_symbol_name("_rsvd3")
    4676                      .dwattr $C$DW$522, DW_AT_bit_offset(0x07), DW_AT_bit_size(0x01)
    4677                      .dwattr $C$DW$522, DW_AT_data_member_location[DW_OP_plus_uconst 0x0]
    4678                      .dwattr $C$DW$522, DW_AT_accessibility(DW_ACCESS_public)
    4679              $C$DW$523       .dwtag  DW_TAG_member
    4680                      .dwattr $C$DW$523, DW_AT_type(*$C$DW$T$34)
    4681                      .dwattr $C$DW$523, DW_AT_name("DBREDHR")
    4682                      .dwattr $C$DW$523, DW_AT_TI_symbol_name("_DBREDHR")
    4683                      .dwattr $C$DW$523, DW_AT_bit_offset(0x00), DW_AT_bit_size(0x07)
    4684                      .dwattr $C$DW$523, DW_AT_data_member_location[DW_OP_plus_uconst 0x0]
    4685                      .dwattr $C$DW$523, DW_AT_accessibility(DW_ACCESS_public)
    4686                      .dwendtag $C$DW$T$125
    4687              
    4688              
    4689              $C$DW$T$126     .dwtag  DW_TAG_union_type
    4690                      .dwattr $C$DW$T$126, DW_AT_name("DBREDHR_REG")
    4691                      .dwattr $C$DW$T$126, DW_AT_byte_size(0x01)
    4692              $C$DW$524       .dwtag  DW_TAG_member
    4693                      .dwattr $C$DW$524, DW_AT_type(*$C$DW$T$34)
    4694                      .dwattr $C$DW$524, DW_AT_name("all")
    4695                      .dwattr $C$DW$524, DW_AT_TI_symbol_name("_all")
    4696                      .dwattr $C$DW$524, DW_AT_data_member_location[DW_OP_plus_uconst 0x0]
    4697                      .dwattr $C$DW$524, DW_AT_accessibility(DW_ACCESS_public)
    4698              $C$DW$525       .dwtag  DW_TAG_member
    4699                      .dwattr $C$DW$525, DW_AT_type(*$C$DW$T$125)
    4700                      .dwattr $C$DW$525, DW_AT_name("bit")
    4701                      .dwattr $C$DW$525, DW_AT_TI_symbol_name("_bit")
    4702                      .dwattr $C$DW$525, DW_AT_data_member_location[DW_OP_plus_uconst 0x0]
    4703                      .dwattr $C$DW$525, DW_AT_accessibility(DW_ACCESS_public)
    4704                      .dwendtag $C$DW$T$126
    4705              
    4706              
    4707              $C$DW$T$127     .dwtag  DW_TAG_structure_type
    4708                      .dwattr $C$DW$T$127, DW_AT_name("DCACTL_BITS")
    4709                      .dwattr $C$DW$T$127, DW_AT_byte_size(0x01)
TMS320C2000 Assembler PC v6.4.2 Thu Dec 14 15:27:05 2017

Tools Copyright (c) 1996-2015 Texas Instruments Incorporated
fsm_main.asm                                                         PAGE   89

    4710              $C$DW$526       .dwtag  DW_TAG_member
    4711                      .dwattr $C$DW$526, DW_AT_type(*$C$DW$T$34)
    4712                      .dwattr $C$DW$526, DW_AT_name("EVT1SRCSEL")
    4713                      .dwattr $C$DW$526, DW_AT_TI_symbol_name("_EVT1SRCSEL")
    4714                      .dwattr $C$DW$526, DW_AT_bit_offset(0x0f), DW_AT_bit_size(0x01)
    4715                      .dwattr $C$DW$526, DW_AT_data_member_location[DW_OP_plus_uconst 0x0]
    4716                      .dwattr $C$DW$526, DW_AT_accessibility(DW_ACCESS_public)
    4717              $C$DW$527       .dwtag  DW_TAG_member
    4718                      .dwattr $C$DW$527, DW_AT_type(*$C$DW$T$34)
    4719                      .dwattr $C$DW$527, DW_AT_name("EVT1FRCSYNCSEL")
    4720                      .dwattr $C$DW$527, DW_AT_TI_symbol_name("_EVT1FRCSYNCSEL")
    4721                      .dwattr $C$DW$527, DW_AT_bit_offset(0x0e), DW_AT_bit_size(0x01)
    4722                      .dwattr $C$DW$527, DW_AT_data_member_location[DW_OP_plus_uconst 0x0]
    4723                      .dwattr $C$DW$527, DW_AT_accessibility(DW_ACCESS_public)
    4724              $C$DW$528       .dwtag  DW_TAG_member
    4725                      .dwattr $C$DW$528, DW_AT_type(*$C$DW$T$34)
    4726                      .dwattr $C$DW$528, DW_AT_name("EVT1SOCE")
    4727                      .dwattr $C$DW$528, DW_AT_TI_symbol_name("_EVT1SOCE")
    4728                      .dwattr $C$DW$528, DW_AT_bit_offset(0x0d), DW_AT_bit_size(0x01)
    4729                      .dwattr $C$DW$528, DW_AT_data_member_location[DW_OP_plus_uconst 0x0]
    4730                      .dwattr $C$DW$528, DW_AT_accessibility(DW_ACCESS_public)
    4731              $C$DW$529       .dwtag  DW_TAG_member
    4732                      .dwattr $C$DW$529, DW_AT_type(*$C$DW$T$34)
    4733                      .dwattr $C$DW$529, DW_AT_name("EVT1SYNCE")
    4734                      .dwattr $C$DW$529, DW_AT_TI_symbol_name("_EVT1SYNCE")
    4735                      .dwattr $C$DW$529, DW_AT_bit_offset(0x0c), DW_AT_bit_size(0x01)
    4736                      .dwattr $C$DW$529, DW_AT_data_member_location[DW_OP_plus_uconst 0x0]
    4737                      .dwattr $C$DW$529, DW_AT_accessibility(DW_ACCESS_public)
    4738              $C$DW$530       .dwtag  DW_TAG_member
    4739                      .dwattr $C$DW$530, DW_AT_type(*$C$DW$T$34)
    4740                      .dwattr $C$DW$530, DW_AT_name("rsvd1")
    4741                      .dwattr $C$DW$530, DW_AT_TI_symbol_name("_rsvd1")
    4742                      .dwattr $C$DW$530, DW_AT_bit_offset(0x08), DW_AT_bit_size(0x04)
    4743                      .dwattr $C$DW$530, DW_AT_data_member_location[DW_OP_plus_uconst 0x0]
    4744                      .dwattr $C$DW$530, DW_AT_accessibility(DW_ACCESS_public)
    4745              $C$DW$531       .dwtag  DW_TAG_member
    4746                      .dwattr $C$DW$531, DW_AT_type(*$C$DW$T$34)
    4747                      .dwattr $C$DW$531, DW_AT_name("EVT2SRCSEL")
    4748                      .dwattr $C$DW$531, DW_AT_TI_symbol_name("_EVT2SRCSEL")
    4749                      .dwattr $C$DW$531, DW_AT_bit_offset(0x07), DW_AT_bit_size(0x01)
    4750                      .dwattr $C$DW$531, DW_AT_data_member_location[DW_OP_plus_uconst 0x0]
    4751                      .dwattr $C$DW$531, DW_AT_accessibility(DW_ACCESS_public)
    4752              $C$DW$532       .dwtag  DW_TAG_member
    4753                      .dwattr $C$DW$532, DW_AT_type(*$C$DW$T$34)
    4754                      .dwattr $C$DW$532, DW_AT_name("EVT2FRCSYNCSEL")
    4755                      .dwattr $C$DW$532, DW_AT_TI_symbol_name("_EVT2FRCSYNCSEL")
    4756                      .dwattr $C$DW$532, DW_AT_bit_offset(0x06), DW_AT_bit_size(0x01)
    4757                      .dwattr $C$DW$532, DW_AT_data_member_location[DW_OP_plus_uconst 0x0]
    4758                      .dwattr $C$DW$532, DW_AT_accessibility(DW_ACCESS_public)
    4759              $C$DW$533       .dwtag  DW_TAG_member
    4760                      .dwattr $C$DW$533, DW_AT_type(*$C$DW$T$34)
    4761                      .dwattr $C$DW$533, DW_AT_name("rsvd2")
    4762                      .dwattr $C$DW$533, DW_AT_TI_symbol_name("_rsvd2")
    4763                      .dwattr $C$DW$533, DW_AT_bit_offset(0x00), DW_AT_bit_size(0x06)
    4764                      .dwattr $C$DW$533, DW_AT_data_member_location[DW_OP_plus_uconst 0x0]
TMS320C2000 Assembler PC v6.4.2 Thu Dec 14 15:27:05 2017

Tools Copyright (c) 1996-2015 Texas Instruments Incorporated
fsm_main.asm                                                         PAGE   90

    4765                      .dwattr $C$DW$533, DW_AT_accessibility(DW_ACCESS_public)
    4766                      .dwendtag $C$DW$T$127
    4767              
    4768              
    4769              $C$DW$T$128     .dwtag  DW_TAG_union_type
    4770                      .dwattr $C$DW$T$128, DW_AT_name("DCACTL_REG")
    4771                      .dwattr $C$DW$T$128, DW_AT_byte_size(0x01)
    4772              $C$DW$534       .dwtag  DW_TAG_member
    4773                      .dwattr $C$DW$534, DW_AT_type(*$C$DW$T$34)
    4774                      .dwattr $C$DW$534, DW_AT_name("all")
    4775                      .dwattr $C$DW$534, DW_AT_TI_symbol_name("_all")
    4776                      .dwattr $C$DW$534, DW_AT_data_member_location[DW_OP_plus_uconst 0x0]
    4777                      .dwattr $C$DW$534, DW_AT_accessibility(DW_ACCESS_public)
    4778              $C$DW$535       .dwtag  DW_TAG_member
    4779                      .dwattr $C$DW$535, DW_AT_type(*$C$DW$T$127)
    4780                      .dwattr $C$DW$535, DW_AT_name("bit")
    4781                      .dwattr $C$DW$535, DW_AT_TI_symbol_name("_bit")
    4782                      .dwattr $C$DW$535, DW_AT_data_member_location[DW_OP_plus_uconst 0x0]
    4783                      .dwattr $C$DW$535, DW_AT_accessibility(DW_ACCESS_public)
    4784                      .dwendtag $C$DW$T$128
    4785              
    4786              
    4787              $C$DW$T$129     .dwtag  DW_TAG_structure_type
    4788                      .dwattr $C$DW$T$129, DW_AT_name("DCAHTRIPSEL_BITS")
    4789                      .dwattr $C$DW$T$129, DW_AT_byte_size(0x01)
    4790              $C$DW$536       .dwtag  DW_TAG_member
    4791                      .dwattr $C$DW$536, DW_AT_type(*$C$DW$T$34)
    4792                      .dwattr $C$DW$536, DW_AT_name("TRIPINPUT1")
    4793                      .dwattr $C$DW$536, DW_AT_TI_symbol_name("_TRIPINPUT1")
    4794                      .dwattr $C$DW$536, DW_AT_bit_offset(0x0f), DW_AT_bit_size(0x01)
    4795                      .dwattr $C$DW$536, DW_AT_data_member_location[DW_OP_plus_uconst 0x0]
    4796                      .dwattr $C$DW$536, DW_AT_accessibility(DW_ACCESS_public)
    4797              $C$DW$537       .dwtag  DW_TAG_member
    4798                      .dwattr $C$DW$537, DW_AT_type(*$C$DW$T$34)
    4799                      .dwattr $C$DW$537, DW_AT_name("TRIPINPUT2")
    4800                      .dwattr $C$DW$537, DW_AT_TI_symbol_name("_TRIPINPUT2")
    4801                      .dwattr $C$DW$537, DW_AT_bit_offset(0x0e), DW_AT_bit_size(0x01)
    4802                      .dwattr $C$DW$537, DW_AT_data_member_location[DW_OP_plus_uconst 0x0]
    4803                      .dwattr $C$DW$537, DW_AT_accessibility(DW_ACCESS_public)
    4804              $C$DW$538       .dwtag  DW_TAG_member
    4805                      .dwattr $C$DW$538, DW_AT_type(*$C$DW$T$34)
    4806                      .dwattr $C$DW$538, DW_AT_name("TRIPINPUT3")
    4807                      .dwattr $C$DW$538, DW_AT_TI_symbol_name("_TRIPINPUT3")
    4808                      .dwattr $C$DW$538, DW_AT_bit_offset(0x0d), DW_AT_bit_size(0x01)
    4809                      .dwattr $C$DW$538, DW_AT_data_member_location[DW_OP_plus_uconst 0x0]
    4810                      .dwattr $C$DW$538, DW_AT_accessibility(DW_ACCESS_public)
    4811              $C$DW$539       .dwtag  DW_TAG_member
    4812                      .dwattr $C$DW$539, DW_AT_type(*$C$DW$T$34)
    4813                      .dwattr $C$DW$539, DW_AT_name("TRIPINPUT4")
    4814                      .dwattr $C$DW$539, DW_AT_TI_symbol_name("_TRIPINPUT4")
    4815                      .dwattr $C$DW$539, DW_AT_bit_offset(0x0c), DW_AT_bit_size(0x01)
    4816                      .dwattr $C$DW$539, DW_AT_data_member_location[DW_OP_plus_uconst 0x0]
    4817                      .dwattr $C$DW$539, DW_AT_accessibility(DW_ACCESS_public)
    4818              $C$DW$540       .dwtag  DW_TAG_member
    4819                      .dwattr $C$DW$540, DW_AT_type(*$C$DW$T$34)
TMS320C2000 Assembler PC v6.4.2 Thu Dec 14 15:27:05 2017

Tools Copyright (c) 1996-2015 Texas Instruments Incorporated
fsm_main.asm                                                         PAGE   91

    4820                      .dwattr $C$DW$540, DW_AT_name("TRIPINPUT5")
    4821                      .dwattr $C$DW$540, DW_AT_TI_symbol_name("_TRIPINPUT5")
    4822                      .dwattr $C$DW$540, DW_AT_bit_offset(0x0b), DW_AT_bit_size(0x01)
    4823                      .dwattr $C$DW$540, DW_AT_data_member_location[DW_OP_plus_uconst 0x0]
    4824                      .dwattr $C$DW$540, DW_AT_accessibility(DW_ACCESS_public)
    4825              $C$DW$541       .dwtag  DW_TAG_member
    4826                      .dwattr $C$DW$541, DW_AT_type(*$C$DW$T$34)
    4827                      .dwattr $C$DW$541, DW_AT_name("TRIPINPUT6")
    4828                      .dwattr $C$DW$541, DW_AT_TI_symbol_name("_TRIPINPUT6")
    4829                      .dwattr $C$DW$541, DW_AT_bit_offset(0x0a), DW_AT_bit_size(0x01)
    4830                      .dwattr $C$DW$541, DW_AT_data_member_location[DW_OP_plus_uconst 0x0]
    4831                      .dwattr $C$DW$541, DW_AT_accessibility(DW_ACCESS_public)
    4832              $C$DW$542       .dwtag  DW_TAG_member
    4833                      .dwattr $C$DW$542, DW_AT_type(*$C$DW$T$34)
    4834                      .dwattr $C$DW$542, DW_AT_name("TRIPINPUT7")
    4835                      .dwattr $C$DW$542, DW_AT_TI_symbol_name("_TRIPINPUT7")
    4836                      .dwattr $C$DW$542, DW_AT_bit_offset(0x09), DW_AT_bit_size(0x01)
    4837                      .dwattr $C$DW$542, DW_AT_data_member_location[DW_OP_plus_uconst 0x0]
    4838                      .dwattr $C$DW$542, DW_AT_accessibility(DW_ACCESS_public)
    4839              $C$DW$543       .dwtag  DW_TAG_member
    4840                      .dwattr $C$DW$543, DW_AT_type(*$C$DW$T$34)
    4841                      .dwattr $C$DW$543, DW_AT_name("TRIPINPUT8")
    4842                      .dwattr $C$DW$543, DW_AT_TI_symbol_name("_TRIPINPUT8")
    4843                      .dwattr $C$DW$543, DW_AT_bit_offset(0x08), DW_AT_bit_size(0x01)
    4844                      .dwattr $C$DW$543, DW_AT_data_member_location[DW_OP_plus_uconst 0x0]
    4845                      .dwattr $C$DW$543, DW_AT_accessibility(DW_ACCESS_public)
    4846              $C$DW$544       .dwtag  DW_TAG_member
    4847                      .dwattr $C$DW$544, DW_AT_type(*$C$DW$T$34)
    4848                      .dwattr $C$DW$544, DW_AT_name("TRIPINPUT9")
    4849                      .dwattr $C$DW$544, DW_AT_TI_symbol_name("_TRIPINPUT9")
    4850                      .dwattr $C$DW$544, DW_AT_bit_offset(0x07), DW_AT_bit_size(0x01)
    4851                      .dwattr $C$DW$544, DW_AT_data_member_location[DW_OP_plus_uconst 0x0]
    4852                      .dwattr $C$DW$544, DW_AT_accessibility(DW_ACCESS_public)
    4853              $C$DW$545       .dwtag  DW_TAG_member
    4854                      .dwattr $C$DW$545, DW_AT_type(*$C$DW$T$34)
    4855                      .dwattr $C$DW$545, DW_AT_name("TRIPINPUT10")
    4856                      .dwattr $C$DW$545, DW_AT_TI_symbol_name("_TRIPINPUT10")
    4857                      .dwattr $C$DW$545, DW_AT_bit_offset(0x06), DW_AT_bit_size(0x01)
    4858                      .dwattr $C$DW$545, DW_AT_data_member_location[DW_OP_plus_uconst 0x0]
    4859                      .dwattr $C$DW$545, DW_AT_accessibility(DW_ACCESS_public)
    4860              $C$DW$546       .dwtag  DW_TAG_member
    4861                      .dwattr $C$DW$546, DW_AT_type(*$C$DW$T$34)
    4862                      .dwattr $C$DW$546, DW_AT_name("TRIPINPUT11")
    4863                      .dwattr $C$DW$546, DW_AT_TI_symbol_name("_TRIPINPUT11")
    4864                      .dwattr $C$DW$546, DW_AT_bit_offset(0x05), DW_AT_bit_size(0x01)
    4865                      .dwattr $C$DW$546, DW_AT_data_member_location[DW_OP_plus_uconst 0x0]
    4866                      .dwattr $C$DW$546, DW_AT_accessibility(DW_ACCESS_public)
    4867              $C$DW$547       .dwtag  DW_TAG_member
    4868                      .dwattr $C$DW$547, DW_AT_type(*$C$DW$T$34)
    4869                      .dwattr $C$DW$547, DW_AT_name("TRIPINPUT12")
    4870                      .dwattr $C$DW$547, DW_AT_TI_symbol_name("_TRIPINPUT12")
    4871                      .dwattr $C$DW$547, DW_AT_bit_offset(0x04), DW_AT_bit_size(0x01)
    4872                      .dwattr $C$DW$547, DW_AT_data_member_location[DW_OP_plus_uconst 0x0]
    4873                      .dwattr $C$DW$547, DW_AT_accessibility(DW_ACCESS_public)
    4874              $C$DW$548       .dwtag  DW_TAG_member
TMS320C2000 Assembler PC v6.4.2 Thu Dec 14 15:27:05 2017

Tools Copyright (c) 1996-2015 Texas Instruments Incorporated
fsm_main.asm                                                         PAGE   92

    4875                      .dwattr $C$DW$548, DW_AT_type(*$C$DW$T$34)
    4876                      .dwattr $C$DW$548, DW_AT_name("rsvd1")
    4877                      .dwattr $C$DW$548, DW_AT_TI_symbol_name("_rsvd1")
    4878                      .dwattr $C$DW$548, DW_AT_bit_offset(0x03), DW_AT_bit_size(0x01)
    4879                      .dwattr $C$DW$548, DW_AT_data_member_location[DW_OP_plus_uconst 0x0]
    4880                      .dwattr $C$DW$548, DW_AT_accessibility(DW_ACCESS_public)
    4881              $C$DW$549       .dwtag  DW_TAG_member
    4882                      .dwattr $C$DW$549, DW_AT_type(*$C$DW$T$34)
    4883                      .dwattr $C$DW$549, DW_AT_name("TRIPINPUT14")
    4884                      .dwattr $C$DW$549, DW_AT_TI_symbol_name("_TRIPINPUT14")
    4885                      .dwattr $C$DW$549, DW_AT_bit_offset(0x02), DW_AT_bit_size(0x01)
    4886                      .dwattr $C$DW$549, DW_AT_data_member_location[DW_OP_plus_uconst 0x0]
    4887                      .dwattr $C$DW$549, DW_AT_accessibility(DW_ACCESS_public)
    4888              $C$DW$550       .dwtag  DW_TAG_member
    4889                      .dwattr $C$DW$550, DW_AT_type(*$C$DW$T$34)
    4890                      .dwattr $C$DW$550, DW_AT_name("TRIPINPUT15")
    4891                      .dwattr $C$DW$550, DW_AT_TI_symbol_name("_TRIPINPUT15")
    4892                      .dwattr $C$DW$550, DW_AT_bit_offset(0x01), DW_AT_bit_size(0x01)
    4893                      .dwattr $C$DW$550, DW_AT_data_member_location[DW_OP_plus_uconst 0x0]
    4894                      .dwattr $C$DW$550, DW_AT_accessibility(DW_ACCESS_public)
    4895              $C$DW$551       .dwtag  DW_TAG_member
    4896                      .dwattr $C$DW$551, DW_AT_type(*$C$DW$T$34)
    4897                      .dwattr $C$DW$551, DW_AT_name("rsvd2")
    4898                      .dwattr $C$DW$551, DW_AT_TI_symbol_name("_rsvd2")
    4899                      .dwattr $C$DW$551, DW_AT_bit_offset(0x00), DW_AT_bit_size(0x01)
    4900                      .dwattr $C$DW$551, DW_AT_data_member_location[DW_OP_plus_uconst 0x0]
    4901                      .dwattr $C$DW$551, DW_AT_accessibility(DW_ACCESS_public)
    4902                      .dwendtag $C$DW$T$129
    4903              
    4904              
    4905              $C$DW$T$130     .dwtag  DW_TAG_union_type
    4906                      .dwattr $C$DW$T$130, DW_AT_name("DCAHTRIPSEL_REG")
    4907                      .dwattr $C$DW$T$130, DW_AT_byte_size(0x01)
    4908              $C$DW$552       .dwtag  DW_TAG_member
    4909                      .dwattr $C$DW$552, DW_AT_type(*$C$DW$T$34)
    4910                      .dwattr $C$DW$552, DW_AT_name("all")
    4911                      .dwattr $C$DW$552, DW_AT_TI_symbol_name("_all")
    4912                      .dwattr $C$DW$552, DW_AT_data_member_location[DW_OP_plus_uconst 0x0]
    4913                      .dwattr $C$DW$552, DW_AT_accessibility(DW_ACCESS_public)
    4914              $C$DW$553       .dwtag  DW_TAG_member
    4915                      .dwattr $C$DW$553, DW_AT_type(*$C$DW$T$129)
    4916                      .dwattr $C$DW$553, DW_AT_name("bit")
    4917                      .dwattr $C$DW$553, DW_AT_TI_symbol_name("_bit")
    4918                      .dwattr $C$DW$553, DW_AT_data_member_location[DW_OP_plus_uconst 0x0]
    4919                      .dwattr $C$DW$553, DW_AT_accessibility(DW_ACCESS_public)
    4920                      .dwendtag $C$DW$T$130
    4921              
    4922              
    4923              $C$DW$T$131     .dwtag  DW_TAG_structure_type
    4924                      .dwattr $C$DW$T$131, DW_AT_name("DCALTRIPSEL_BITS")
    4925                      .dwattr $C$DW$T$131, DW_AT_byte_size(0x01)
    4926              $C$DW$554       .dwtag  DW_TAG_member
    4927                      .dwattr $C$DW$554, DW_AT_type(*$C$DW$T$34)
    4928                      .dwattr $C$DW$554, DW_AT_name("TRIPINPUT1")
    4929                      .dwattr $C$DW$554, DW_AT_TI_symbol_name("_TRIPINPUT1")
TMS320C2000 Assembler PC v6.4.2 Thu Dec 14 15:27:05 2017

Tools Copyright (c) 1996-2015 Texas Instruments Incorporated
fsm_main.asm                                                         PAGE   93

    4930                      .dwattr $C$DW$554, DW_AT_bit_offset(0x0f), DW_AT_bit_size(0x01)
    4931                      .dwattr $C$DW$554, DW_AT_data_member_location[DW_OP_plus_uconst 0x0]
    4932                      .dwattr $C$DW$554, DW_AT_accessibility(DW_ACCESS_public)
    4933              $C$DW$555       .dwtag  DW_TAG_member
    4934                      .dwattr $C$DW$555, DW_AT_type(*$C$DW$T$34)
    4935                      .dwattr $C$DW$555, DW_AT_name("TRIPINPUT2")
    4936                      .dwattr $C$DW$555, DW_AT_TI_symbol_name("_TRIPINPUT2")
    4937                      .dwattr $C$DW$555, DW_AT_bit_offset(0x0e), DW_AT_bit_size(0x01)
    4938                      .dwattr $C$DW$555, DW_AT_data_member_location[DW_OP_plus_uconst 0x0]
    4939                      .dwattr $C$DW$555, DW_AT_accessibility(DW_ACCESS_public)
    4940              $C$DW$556       .dwtag  DW_TAG_member
    4941                      .dwattr $C$DW$556, DW_AT_type(*$C$DW$T$34)
    4942                      .dwattr $C$DW$556, DW_AT_name("TRIPINPUT3")
    4943                      .dwattr $C$DW$556, DW_AT_TI_symbol_name("_TRIPINPUT3")
    4944                      .dwattr $C$DW$556, DW_AT_bit_offset(0x0d), DW_AT_bit_size(0x01)
    4945                      .dwattr $C$DW$556, DW_AT_data_member_location[DW_OP_plus_uconst 0x0]
    4946                      .dwattr $C$DW$556, DW_AT_accessibility(DW_ACCESS_public)
    4947              $C$DW$557       .dwtag  DW_TAG_member
    4948                      .dwattr $C$DW$557, DW_AT_type(*$C$DW$T$34)
    4949                      .dwattr $C$DW$557, DW_AT_name("TRIPINPUT4")
    4950                      .dwattr $C$DW$557, DW_AT_TI_symbol_name("_TRIPINPUT4")
    4951                      .dwattr $C$DW$557, DW_AT_bit_offset(0x0c), DW_AT_bit_size(0x01)
    4952                      .dwattr $C$DW$557, DW_AT_data_member_location[DW_OP_plus_uconst 0x0]
    4953                      .dwattr $C$DW$557, DW_AT_accessibility(DW_ACCESS_public)
    4954              $C$DW$558       .dwtag  DW_TAG_member
    4955                      .dwattr $C$DW$558, DW_AT_type(*$C$DW$T$34)
    4956                      .dwattr $C$DW$558, DW_AT_name("TRIPINPUT5")
    4957                      .dwattr $C$DW$558, DW_AT_TI_symbol_name("_TRIPINPUT5")
    4958                      .dwattr $C$DW$558, DW_AT_bit_offset(0x0b), DW_AT_bit_size(0x01)
    4959                      .dwattr $C$DW$558, DW_AT_data_member_location[DW_OP_plus_uconst 0x0]
    4960                      .dwattr $C$DW$558, DW_AT_accessibility(DW_ACCESS_public)
    4961              $C$DW$559       .dwtag  DW_TAG_member
    4962                      .dwattr $C$DW$559, DW_AT_type(*$C$DW$T$34)
    4963                      .dwattr $C$DW$559, DW_AT_name("TRIPINPUT6")
    4964                      .dwattr $C$DW$559, DW_AT_TI_symbol_name("_TRIPINPUT6")
    4965                      .dwattr $C$DW$559, DW_AT_bit_offset(0x0a), DW_AT_bit_size(0x01)
    4966                      .dwattr $C$DW$559, DW_AT_data_member_location[DW_OP_plus_uconst 0x0]
    4967                      .dwattr $C$DW$559, DW_AT_accessibility(DW_ACCESS_public)
    4968              $C$DW$560       .dwtag  DW_TAG_member
    4969                      .dwattr $C$DW$560, DW_AT_type(*$C$DW$T$34)
    4970                      .dwattr $C$DW$560, DW_AT_name("TRIPINPUT7")
    4971                      .dwattr $C$DW$560, DW_AT_TI_symbol_name("_TRIPINPUT7")
    4972                      .dwattr $C$DW$560, DW_AT_bit_offset(0x09), DW_AT_bit_size(0x01)
    4973                      .dwattr $C$DW$560, DW_AT_data_member_location[DW_OP_plus_uconst 0x0]
    4974                      .dwattr $C$DW$560, DW_AT_accessibility(DW_ACCESS_public)
    4975              $C$DW$561       .dwtag  DW_TAG_member
    4976                      .dwattr $C$DW$561, DW_AT_type(*$C$DW$T$34)
    4977                      .dwattr $C$DW$561, DW_AT_name("TRIPINPUT8")
    4978                      .dwattr $C$DW$561, DW_AT_TI_symbol_name("_TRIPINPUT8")
    4979                      .dwattr $C$DW$561, DW_AT_bit_offset(0x08), DW_AT_bit_size(0x01)
    4980                      .dwattr $C$DW$561, DW_AT_data_member_location[DW_OP_plus_uconst 0x0]
    4981                      .dwattr $C$DW$561, DW_AT_accessibility(DW_ACCESS_public)
    4982              $C$DW$562       .dwtag  DW_TAG_member
    4983                      .dwattr $C$DW$562, DW_AT_type(*$C$DW$T$34)
    4984                      .dwattr $C$DW$562, DW_AT_name("TRIPINPUT9")
TMS320C2000 Assembler PC v6.4.2 Thu Dec 14 15:27:05 2017

Tools Copyright (c) 1996-2015 Texas Instruments Incorporated
fsm_main.asm                                                         PAGE   94

    4985                      .dwattr $C$DW$562, DW_AT_TI_symbol_name("_TRIPINPUT9")
    4986                      .dwattr $C$DW$562, DW_AT_bit_offset(0x07), DW_AT_bit_size(0x01)
    4987                      .dwattr $C$DW$562, DW_AT_data_member_location[DW_OP_plus_uconst 0x0]
    4988                      .dwattr $C$DW$562, DW_AT_accessibility(DW_ACCESS_public)
    4989              $C$DW$563       .dwtag  DW_TAG_member
    4990                      .dwattr $C$DW$563, DW_AT_type(*$C$DW$T$34)
    4991                      .dwattr $C$DW$563, DW_AT_name("TRIPINPUT10")
    4992                      .dwattr $C$DW$563, DW_AT_TI_symbol_name("_TRIPINPUT10")
    4993                      .dwattr $C$DW$563, DW_AT_bit_offset(0x06), DW_AT_bit_size(0x01)
    4994                      .dwattr $C$DW$563, DW_AT_data_member_location[DW_OP_plus_uconst 0x0]
    4995                      .dwattr $C$DW$563, DW_AT_accessibility(DW_ACCESS_public)
    4996              $C$DW$564       .dwtag  DW_TAG_member
    4997                      .dwattr $C$DW$564, DW_AT_type(*$C$DW$T$34)
    4998                      .dwattr $C$DW$564, DW_AT_name("TRIPINPUT11")
    4999                      .dwattr $C$DW$564, DW_AT_TI_symbol_name("_TRIPINPUT11")
    5000                      .dwattr $C$DW$564, DW_AT_bit_offset(0x05), DW_AT_bit_size(0x01)
    5001                      .dwattr $C$DW$564, DW_AT_data_member_location[DW_OP_plus_uconst 0x0]
    5002                      .dwattr $C$DW$564, DW_AT_accessibility(DW_ACCESS_public)
    5003              $C$DW$565       .dwtag  DW_TAG_member
    5004                      .dwattr $C$DW$565, DW_AT_type(*$C$DW$T$34)
    5005                      .dwattr $C$DW$565, DW_AT_name("TRIPINPUT12")
    5006                      .dwattr $C$DW$565, DW_AT_TI_symbol_name("_TRIPINPUT12")
    5007                      .dwattr $C$DW$565, DW_AT_bit_offset(0x04), DW_AT_bit_size(0x01)
    5008                      .dwattr $C$DW$565, DW_AT_data_member_location[DW_OP_plus_uconst 0x0]
    5009                      .dwattr $C$DW$565, DW_AT_accessibility(DW_ACCESS_public)
    5010              $C$DW$566       .dwtag  DW_TAG_member
    5011                      .dwattr $C$DW$566, DW_AT_type(*$C$DW$T$34)
    5012                      .dwattr $C$DW$566, DW_AT_name("rsvd1")
    5013                      .dwattr $C$DW$566, DW_AT_TI_symbol_name("_rsvd1")
    5014                      .dwattr $C$DW$566, DW_AT_bit_offset(0x03), DW_AT_bit_size(0x01)
    5015                      .dwattr $C$DW$566, DW_AT_data_member_location[DW_OP_plus_uconst 0x0]
    5016                      .dwattr $C$DW$566, DW_AT_accessibility(DW_ACCESS_public)
    5017              $C$DW$567       .dwtag  DW_TAG_member
    5018                      .dwattr $C$DW$567, DW_AT_type(*$C$DW$T$34)
    5019                      .dwattr $C$DW$567, DW_AT_name("TRIPINPUT14")
    5020                      .dwattr $C$DW$567, DW_AT_TI_symbol_name("_TRIPINPUT14")
    5021                      .dwattr $C$DW$567, DW_AT_bit_offset(0x02), DW_AT_bit_size(0x01)
    5022                      .dwattr $C$DW$567, DW_AT_data_member_location[DW_OP_plus_uconst 0x0]
    5023                      .dwattr $C$DW$567, DW_AT_accessibility(DW_ACCESS_public)
    5024              $C$DW$568       .dwtag  DW_TAG_member
    5025                      .dwattr $C$DW$568, DW_AT_type(*$C$DW$T$34)
    5026                      .dwattr $C$DW$568, DW_AT_name("TRIPINPUT15")
    5027                      .dwattr $C$DW$568, DW_AT_TI_symbol_name("_TRIPINPUT15")
    5028                      .dwattr $C$DW$568, DW_AT_bit_offset(0x01), DW_AT_bit_size(0x01)
    5029                      .dwattr $C$DW$568, DW_AT_data_member_location[DW_OP_plus_uconst 0x0]
    5030                      .dwattr $C$DW$568, DW_AT_accessibility(DW_ACCESS_public)
    5031              $C$DW$569       .dwtag  DW_TAG_member
    5032                      .dwattr $C$DW$569, DW_AT_type(*$C$DW$T$34)
    5033                      .dwattr $C$DW$569, DW_AT_name("rsvd2")
    5034                      .dwattr $C$DW$569, DW_AT_TI_symbol_name("_rsvd2")
    5035                      .dwattr $C$DW$569, DW_AT_bit_offset(0x00), DW_AT_bit_size(0x01)
    5036                      .dwattr $C$DW$569, DW_AT_data_member_location[DW_OP_plus_uconst 0x0]
    5037                      .dwattr $C$DW$569, DW_AT_accessibility(DW_ACCESS_public)
    5038                      .dwendtag $C$DW$T$131
    5039              
TMS320C2000 Assembler PC v6.4.2 Thu Dec 14 15:27:05 2017

Tools Copyright (c) 1996-2015 Texas Instruments Incorporated
fsm_main.asm                                                         PAGE   95

    5040              
    5041              $C$DW$T$132     .dwtag  DW_TAG_union_type
    5042                      .dwattr $C$DW$T$132, DW_AT_name("DCALTRIPSEL_REG")
    5043                      .dwattr $C$DW$T$132, DW_AT_byte_size(0x01)
    5044              $C$DW$570       .dwtag  DW_TAG_member
    5045                      .dwattr $C$DW$570, DW_AT_type(*$C$DW$T$34)
    5046                      .dwattr $C$DW$570, DW_AT_name("all")
    5047                      .dwattr $C$DW$570, DW_AT_TI_symbol_name("_all")
    5048                      .dwattr $C$DW$570, DW_AT_data_member_location[DW_OP_plus_uconst 0x0]
    5049                      .dwattr $C$DW$570, DW_AT_accessibility(DW_ACCESS_public)
    5050              $C$DW$571       .dwtag  DW_TAG_member
    5051                      .dwattr $C$DW$571, DW_AT_type(*$C$DW$T$131)
    5052                      .dwattr $C$DW$571, DW_AT_name("bit")
    5053                      .dwattr $C$DW$571, DW_AT_TI_symbol_name("_bit")
    5054                      .dwattr $C$DW$571, DW_AT_data_member_location[DW_OP_plus_uconst 0x0]
    5055                      .dwattr $C$DW$571, DW_AT_accessibility(DW_ACCESS_public)
    5056                      .dwendtag $C$DW$T$132
    5057              
    5058              
    5059              $C$DW$T$133     .dwtag  DW_TAG_structure_type
    5060                      .dwattr $C$DW$T$133, DW_AT_name("DCBCTL_BITS")
    5061                      .dwattr $C$DW$T$133, DW_AT_byte_size(0x01)
    5062              $C$DW$572       .dwtag  DW_TAG_member
    5063                      .dwattr $C$DW$572, DW_AT_type(*$C$DW$T$34)
    5064                      .dwattr $C$DW$572, DW_AT_name("EVT1SRCSEL")
    5065                      .dwattr $C$DW$572, DW_AT_TI_symbol_name("_EVT1SRCSEL")
    5066                      .dwattr $C$DW$572, DW_AT_bit_offset(0x0f), DW_AT_bit_size(0x01)
    5067                      .dwattr $C$DW$572, DW_AT_data_member_location[DW_OP_plus_uconst 0x0]
    5068                      .dwattr $C$DW$572, DW_AT_accessibility(DW_ACCESS_public)
    5069              $C$DW$573       .dwtag  DW_TAG_member
    5070                      .dwattr $C$DW$573, DW_AT_type(*$C$DW$T$34)
    5071                      .dwattr $C$DW$573, DW_AT_name("EVT1FRCSYNCSEL")
    5072                      .dwattr $C$DW$573, DW_AT_TI_symbol_name("_EVT1FRCSYNCSEL")
    5073                      .dwattr $C$DW$573, DW_AT_bit_offset(0x0e), DW_AT_bit_size(0x01)
    5074                      .dwattr $C$DW$573, DW_AT_data_member_location[DW_OP_plus_uconst 0x0]
    5075                      .dwattr $C$DW$573, DW_AT_accessibility(DW_ACCESS_public)
    5076              $C$DW$574       .dwtag  DW_TAG_member
    5077                      .dwattr $C$DW$574, DW_AT_type(*$C$DW$T$34)
    5078                      .dwattr $C$DW$574, DW_AT_name("EVT1SOCE")
    5079                      .dwattr $C$DW$574, DW_AT_TI_symbol_name("_EVT1SOCE")
    5080                      .dwattr $C$DW$574, DW_AT_bit_offset(0x0d), DW_AT_bit_size(0x01)
    5081                      .dwattr $C$DW$574, DW_AT_data_member_location[DW_OP_plus_uconst 0x0]
    5082                      .dwattr $C$DW$574, DW_AT_accessibility(DW_ACCESS_public)
    5083              $C$DW$575       .dwtag  DW_TAG_member
    5084                      .dwattr $C$DW$575, DW_AT_type(*$C$DW$T$34)
    5085                      .dwattr $C$DW$575, DW_AT_name("EVT1SYNCE")
    5086                      .dwattr $C$DW$575, DW_AT_TI_symbol_name("_EVT1SYNCE")
    5087                      .dwattr $C$DW$575, DW_AT_bit_offset(0x0c), DW_AT_bit_size(0x01)
    5088                      .dwattr $C$DW$575, DW_AT_data_member_location[DW_OP_plus_uconst 0x0]
    5089                      .dwattr $C$DW$575, DW_AT_accessibility(DW_ACCESS_public)
    5090              $C$DW$576       .dwtag  DW_TAG_member
    5091                      .dwattr $C$DW$576, DW_AT_type(*$C$DW$T$34)
    5092                      .dwattr $C$DW$576, DW_AT_name("rsvd1")
    5093                      .dwattr $C$DW$576, DW_AT_TI_symbol_name("_rsvd1")
    5094                      .dwattr $C$DW$576, DW_AT_bit_offset(0x08), DW_AT_bit_size(0x04)
TMS320C2000 Assembler PC v6.4.2 Thu Dec 14 15:27:05 2017

Tools Copyright (c) 1996-2015 Texas Instruments Incorporated
fsm_main.asm                                                         PAGE   96

    5095                      .dwattr $C$DW$576, DW_AT_data_member_location[DW_OP_plus_uconst 0x0]
    5096                      .dwattr $C$DW$576, DW_AT_accessibility(DW_ACCESS_public)
    5097              $C$DW$577       .dwtag  DW_TAG_member
    5098                      .dwattr $C$DW$577, DW_AT_type(*$C$DW$T$34)
    5099                      .dwattr $C$DW$577, DW_AT_name("EVT2SRCSEL")
    5100                      .dwattr $C$DW$577, DW_AT_TI_symbol_name("_EVT2SRCSEL")
    5101                      .dwattr $C$DW$577, DW_AT_bit_offset(0x07), DW_AT_bit_size(0x01)
    5102                      .dwattr $C$DW$577, DW_AT_data_member_location[DW_OP_plus_uconst 0x0]
    5103                      .dwattr $C$DW$577, DW_AT_accessibility(DW_ACCESS_public)
    5104              $C$DW$578       .dwtag  DW_TAG_member
    5105                      .dwattr $C$DW$578, DW_AT_type(*$C$DW$T$34)
    5106                      .dwattr $C$DW$578, DW_AT_name("EVT2FRCSYNCSEL")
    5107                      .dwattr $C$DW$578, DW_AT_TI_symbol_name("_EVT2FRCSYNCSEL")
    5108                      .dwattr $C$DW$578, DW_AT_bit_offset(0x06), DW_AT_bit_size(0x01)
    5109                      .dwattr $C$DW$578, DW_AT_data_member_location[DW_OP_plus_uconst 0x0]
    5110                      .dwattr $C$DW$578, DW_AT_accessibility(DW_ACCESS_public)
    5111              $C$DW$579       .dwtag  DW_TAG_member
    5112                      .dwattr $C$DW$579, DW_AT_type(*$C$DW$T$34)
    5113                      .dwattr $C$DW$579, DW_AT_name("rsvd2")
    5114                      .dwattr $C$DW$579, DW_AT_TI_symbol_name("_rsvd2")
    5115                      .dwattr $C$DW$579, DW_AT_bit_offset(0x00), DW_AT_bit_size(0x06)
    5116                      .dwattr $C$DW$579, DW_AT_data_member_location[DW_OP_plus_uconst 0x0]
    5117                      .dwattr $C$DW$579, DW_AT_accessibility(DW_ACCESS_public)
    5118                      .dwendtag $C$DW$T$133
    5119              
    5120              
    5121              $C$DW$T$134     .dwtag  DW_TAG_union_type
    5122                      .dwattr $C$DW$T$134, DW_AT_name("DCBCTL_REG")
    5123                      .dwattr $C$DW$T$134, DW_AT_byte_size(0x01)
    5124              $C$DW$580       .dwtag  DW_TAG_member
    5125                      .dwattr $C$DW$580, DW_AT_type(*$C$DW$T$34)
    5126                      .dwattr $C$DW$580, DW_AT_name("all")
    5127                      .dwattr $C$DW$580, DW_AT_TI_symbol_name("_all")
    5128                      .dwattr $C$DW$580, DW_AT_data_member_location[DW_OP_plus_uconst 0x0]
    5129                      .dwattr $C$DW$580, DW_AT_accessibility(DW_ACCESS_public)
    5130              $C$DW$581       .dwtag  DW_TAG_member
    5131                      .dwattr $C$DW$581, DW_AT_type(*$C$DW$T$133)
    5132                      .dwattr $C$DW$581, DW_AT_name("bit")
    5133                      .dwattr $C$DW$581, DW_AT_TI_symbol_name("_bit")
    5134                      .dwattr $C$DW$581, DW_AT_data_member_location[DW_OP_plus_uconst 0x0]
    5135                      .dwattr $C$DW$581, DW_AT_accessibility(DW_ACCESS_public)
    5136                      .dwendtag $C$DW$T$134
    5137              
    5138              
    5139              $C$DW$T$135     .dwtag  DW_TAG_structure_type
    5140                      .dwattr $C$DW$T$135, DW_AT_name("DCBHTRIPSEL_BITS")
    5141                      .dwattr $C$DW$T$135, DW_AT_byte_size(0x01)
    5142              $C$DW$582       .dwtag  DW_TAG_member
    5143                      .dwattr $C$DW$582, DW_AT_type(*$C$DW$T$34)
    5144                      .dwattr $C$DW$582, DW_AT_name("TRIPINPUT1")
    5145                      .dwattr $C$DW$582, DW_AT_TI_symbol_name("_TRIPINPUT1")
    5146                      .dwattr $C$DW$582, DW_AT_bit_offset(0x0f), DW_AT_bit_size(0x01)
    5147                      .dwattr $C$DW$582, DW_AT_data_member_location[DW_OP_plus_uconst 0x0]
    5148                      .dwattr $C$DW$582, DW_AT_accessibility(DW_ACCESS_public)
    5149              $C$DW$583       .dwtag  DW_TAG_member
TMS320C2000 Assembler PC v6.4.2 Thu Dec 14 15:27:05 2017

Tools Copyright (c) 1996-2015 Texas Instruments Incorporated
fsm_main.asm                                                         PAGE   97

    5150                      .dwattr $C$DW$583, DW_AT_type(*$C$DW$T$34)
    5151                      .dwattr $C$DW$583, DW_AT_name("TRIPINPUT2")
    5152                      .dwattr $C$DW$583, DW_AT_TI_symbol_name("_TRIPINPUT2")
    5153                      .dwattr $C$DW$583, DW_AT_bit_offset(0x0e), DW_AT_bit_size(0x01)
    5154                      .dwattr $C$DW$583, DW_AT_data_member_location[DW_OP_plus_uconst 0x0]
    5155                      .dwattr $C$DW$583, DW_AT_accessibility(DW_ACCESS_public)
    5156              $C$DW$584       .dwtag  DW_TAG_member
    5157                      .dwattr $C$DW$584, DW_AT_type(*$C$DW$T$34)
    5158                      .dwattr $C$DW$584, DW_AT_name("TRIPINPUT3")
    5159                      .dwattr $C$DW$584, DW_AT_TI_symbol_name("_TRIPINPUT3")
    5160                      .dwattr $C$DW$584, DW_AT_bit_offset(0x0d), DW_AT_bit_size(0x01)
    5161                      .dwattr $C$DW$584, DW_AT_data_member_location[DW_OP_plus_uconst 0x0]
    5162                      .dwattr $C$DW$584, DW_AT_accessibility(DW_ACCESS_public)
    5163              $C$DW$585       .dwtag  DW_TAG_member
    5164                      .dwattr $C$DW$585, DW_AT_type(*$C$DW$T$34)
    5165                      .dwattr $C$DW$585, DW_AT_name("TRIPINPUT4")
    5166                      .dwattr $C$DW$585, DW_AT_TI_symbol_name("_TRIPINPUT4")
    5167                      .dwattr $C$DW$585, DW_AT_bit_offset(0x0c), DW_AT_bit_size(0x01)
    5168                      .dwattr $C$DW$585, DW_AT_data_member_location[DW_OP_plus_uconst 0x0]
    5169                      .dwattr $C$DW$585, DW_AT_accessibility(DW_ACCESS_public)
    5170              $C$DW$586       .dwtag  DW_TAG_member
    5171                      .dwattr $C$DW$586, DW_AT_type(*$C$DW$T$34)
    5172                      .dwattr $C$DW$586, DW_AT_name("TRIPINPUT5")
    5173                      .dwattr $C$DW$586, DW_AT_TI_symbol_name("_TRIPINPUT5")
    5174                      .dwattr $C$DW$586, DW_AT_bit_offset(0x0b), DW_AT_bit_size(0x01)
    5175                      .dwattr $C$DW$586, DW_AT_data_member_location[DW_OP_plus_uconst 0x0]
    5176                      .dwattr $C$DW$586, DW_AT_accessibility(DW_ACCESS_public)
    5177              $C$DW$587       .dwtag  DW_TAG_member
    5178                      .dwattr $C$DW$587, DW_AT_type(*$C$DW$T$34)
    5179                      .dwattr $C$DW$587, DW_AT_name("TRIPINPUT6")
    5180                      .dwattr $C$DW$587, DW_AT_TI_symbol_name("_TRIPINPUT6")
    5181                      .dwattr $C$DW$587, DW_AT_bit_offset(0x0a), DW_AT_bit_size(0x01)
    5182                      .dwattr $C$DW$587, DW_AT_data_member_location[DW_OP_plus_uconst 0x0]
    5183                      .dwattr $C$DW$587, DW_AT_accessibility(DW_ACCESS_public)
    5184              $C$DW$588       .dwtag  DW_TAG_member
    5185                      .dwattr $C$DW$588, DW_AT_type(*$C$DW$T$34)
    5186                      .dwattr $C$DW$588, DW_AT_name("TRIPINPUT7")
    5187                      .dwattr $C$DW$588, DW_AT_TI_symbol_name("_TRIPINPUT7")
    5188                      .dwattr $C$DW$588, DW_AT_bit_offset(0x09), DW_AT_bit_size(0x01)
    5189                      .dwattr $C$DW$588, DW_AT_data_member_location[DW_OP_plus_uconst 0x0]
    5190                      .dwattr $C$DW$588, DW_AT_accessibility(DW_ACCESS_public)
    5191              $C$DW$589       .dwtag  DW_TAG_member
    5192                      .dwattr $C$DW$589, DW_AT_type(*$C$DW$T$34)
    5193                      .dwattr $C$DW$589, DW_AT_name("TRIPINPUT8")
    5194                      .dwattr $C$DW$589, DW_AT_TI_symbol_name("_TRIPINPUT8")
    5195                      .dwattr $C$DW$589, DW_AT_bit_offset(0x08), DW_AT_bit_size(0x01)
    5196                      .dwattr $C$DW$589, DW_AT_data_member_location[DW_OP_plus_uconst 0x0]
    5197                      .dwattr $C$DW$589, DW_AT_accessibility(DW_ACCESS_public)
    5198              $C$DW$590       .dwtag  DW_TAG_member
    5199                      .dwattr $C$DW$590, DW_AT_type(*$C$DW$T$34)
    5200                      .dwattr $C$DW$590, DW_AT_name("TRIPINPUT9")
    5201                      .dwattr $C$DW$590, DW_AT_TI_symbol_name("_TRIPINPUT9")
    5202                      .dwattr $C$DW$590, DW_AT_bit_offset(0x07), DW_AT_bit_size(0x01)
    5203                      .dwattr $C$DW$590, DW_AT_data_member_location[DW_OP_plus_uconst 0x0]
    5204                      .dwattr $C$DW$590, DW_AT_accessibility(DW_ACCESS_public)
TMS320C2000 Assembler PC v6.4.2 Thu Dec 14 15:27:05 2017

Tools Copyright (c) 1996-2015 Texas Instruments Incorporated
fsm_main.asm                                                         PAGE   98

    5205              $C$DW$591       .dwtag  DW_TAG_member
    5206                      .dwattr $C$DW$591, DW_AT_type(*$C$DW$T$34)
    5207                      .dwattr $C$DW$591, DW_AT_name("TRIPINPUT10")
    5208                      .dwattr $C$DW$591, DW_AT_TI_symbol_name("_TRIPINPUT10")
    5209                      .dwattr $C$DW$591, DW_AT_bit_offset(0x06), DW_AT_bit_size(0x01)
    5210                      .dwattr $C$DW$591, DW_AT_data_member_location[DW_OP_plus_uconst 0x0]
    5211                      .dwattr $C$DW$591, DW_AT_accessibility(DW_ACCESS_public)
    5212              $C$DW$592       .dwtag  DW_TAG_member
    5213                      .dwattr $C$DW$592, DW_AT_type(*$C$DW$T$34)
    5214                      .dwattr $C$DW$592, DW_AT_name("TRIPINPUT11")
    5215                      .dwattr $C$DW$592, DW_AT_TI_symbol_name("_TRIPINPUT11")
    5216                      .dwattr $C$DW$592, DW_AT_bit_offset(0x05), DW_AT_bit_size(0x01)
    5217                      .dwattr $C$DW$592, DW_AT_data_member_location[DW_OP_plus_uconst 0x0]
    5218                      .dwattr $C$DW$592, DW_AT_accessibility(DW_ACCESS_public)
    5219              $C$DW$593       .dwtag  DW_TAG_member
    5220                      .dwattr $C$DW$593, DW_AT_type(*$C$DW$T$34)
    5221                      .dwattr $C$DW$593, DW_AT_name("TRIPINPUT12")
    5222                      .dwattr $C$DW$593, DW_AT_TI_symbol_name("_TRIPINPUT12")
    5223                      .dwattr $C$DW$593, DW_AT_bit_offset(0x04), DW_AT_bit_size(0x01)
    5224                      .dwattr $C$DW$593, DW_AT_data_member_location[DW_OP_plus_uconst 0x0]
    5225                      .dwattr $C$DW$593, DW_AT_accessibility(DW_ACCESS_public)
    5226              $C$DW$594       .dwtag  DW_TAG_member
    5227                      .dwattr $C$DW$594, DW_AT_type(*$C$DW$T$34)
    5228                      .dwattr $C$DW$594, DW_AT_name("rsvd1")
    5229                      .dwattr $C$DW$594, DW_AT_TI_symbol_name("_rsvd1")
    5230                      .dwattr $C$DW$594, DW_AT_bit_offset(0x03), DW_AT_bit_size(0x01)
    5231                      .dwattr $C$DW$594, DW_AT_data_member_location[DW_OP_plus_uconst 0x0]
    5232                      .dwattr $C$DW$594, DW_AT_accessibility(DW_ACCESS_public)
    5233              $C$DW$595       .dwtag  DW_TAG_member
    5234                      .dwattr $C$DW$595, DW_AT_type(*$C$DW$T$34)
    5235                      .dwattr $C$DW$595, DW_AT_name("TRIPINPUT14")
    5236                      .dwattr $C$DW$595, DW_AT_TI_symbol_name("_TRIPINPUT14")
    5237                      .dwattr $C$DW$595, DW_AT_bit_offset(0x02), DW_AT_bit_size(0x01)
    5238                      .dwattr $C$DW$595, DW_AT_data_member_location[DW_OP_plus_uconst 0x0]
    5239                      .dwattr $C$DW$595, DW_AT_accessibility(DW_ACCESS_public)
    5240              $C$DW$596       .dwtag  DW_TAG_member
    5241                      .dwattr $C$DW$596, DW_AT_type(*$C$DW$T$34)
    5242                      .dwattr $C$DW$596, DW_AT_name("TRIPINPUT15")
    5243                      .dwattr $C$DW$596, DW_AT_TI_symbol_name("_TRIPINPUT15")
    5244                      .dwattr $C$DW$596, DW_AT_bit_offset(0x01), DW_AT_bit_size(0x01)
    5245                      .dwattr $C$DW$596, DW_AT_data_member_location[DW_OP_plus_uconst 0x0]
    5246                      .dwattr $C$DW$596, DW_AT_accessibility(DW_ACCESS_public)
    5247              $C$DW$597       .dwtag  DW_TAG_member
    5248                      .dwattr $C$DW$597, DW_AT_type(*$C$DW$T$34)
    5249                      .dwattr $C$DW$597, DW_AT_name("rsvd2")
    5250                      .dwattr $C$DW$597, DW_AT_TI_symbol_name("_rsvd2")
    5251                      .dwattr $C$DW$597, DW_AT_bit_offset(0x00), DW_AT_bit_size(0x01)
    5252                      .dwattr $C$DW$597, DW_AT_data_member_location[DW_OP_plus_uconst 0x0]
    5253                      .dwattr $C$DW$597, DW_AT_accessibility(DW_ACCESS_public)
    5254                      .dwendtag $C$DW$T$135
    5255              
    5256              
    5257              $C$DW$T$136     .dwtag  DW_TAG_union_type
    5258                      .dwattr $C$DW$T$136, DW_AT_name("DCBHTRIPSEL_REG")
    5259                      .dwattr $C$DW$T$136, DW_AT_byte_size(0x01)
TMS320C2000 Assembler PC v6.4.2 Thu Dec 14 15:27:05 2017

Tools Copyright (c) 1996-2015 Texas Instruments Incorporated
fsm_main.asm                                                         PAGE   99

    5260              $C$DW$598       .dwtag  DW_TAG_member
    5261                      .dwattr $C$DW$598, DW_AT_type(*$C$DW$T$34)
    5262                      .dwattr $C$DW$598, DW_AT_name("all")
    5263                      .dwattr $C$DW$598, DW_AT_TI_symbol_name("_all")
    5264                      .dwattr $C$DW$598, DW_AT_data_member_location[DW_OP_plus_uconst 0x0]
    5265                      .dwattr $C$DW$598, DW_AT_accessibility(DW_ACCESS_public)
    5266              $C$DW$599       .dwtag  DW_TAG_member
    5267                      .dwattr $C$DW$599, DW_AT_type(*$C$DW$T$135)
    5268                      .dwattr $C$DW$599, DW_AT_name("bit")
    5269                      .dwattr $C$DW$599, DW_AT_TI_symbol_name("_bit")
    5270                      .dwattr $C$DW$599, DW_AT_data_member_location[DW_OP_plus_uconst 0x0]
    5271                      .dwattr $C$DW$599, DW_AT_accessibility(DW_ACCESS_public)
    5272                      .dwendtag $C$DW$T$136
    5273              
    5274              
    5275              $C$DW$T$137     .dwtag  DW_TAG_structure_type
    5276                      .dwattr $C$DW$T$137, DW_AT_name("DCBLTRIPSEL_BITS")
    5277                      .dwattr $C$DW$T$137, DW_AT_byte_size(0x01)
    5278              $C$DW$600       .dwtag  DW_TAG_member
    5279                      .dwattr $C$DW$600, DW_AT_type(*$C$DW$T$34)
    5280                      .dwattr $C$DW$600, DW_AT_name("TRIPINPUT1")
    5281                      .dwattr $C$DW$600, DW_AT_TI_symbol_name("_TRIPINPUT1")
    5282                      .dwattr $C$DW$600, DW_AT_bit_offset(0x0f), DW_AT_bit_size(0x01)
    5283                      .dwattr $C$DW$600, DW_AT_data_member_location[DW_OP_plus_uconst 0x0]
    5284                      .dwattr $C$DW$600, DW_AT_accessibility(DW_ACCESS_public)
    5285              $C$DW$601       .dwtag  DW_TAG_member
    5286                      .dwattr $C$DW$601, DW_AT_type(*$C$DW$T$34)
    5287                      .dwattr $C$DW$601, DW_AT_name("TRIPINPUT2")
    5288                      .dwattr $C$DW$601, DW_AT_TI_symbol_name("_TRIPINPUT2")
    5289                      .dwattr $C$DW$601, DW_AT_bit_offset(0x0e), DW_AT_bit_size(0x01)
    5290                      .dwattr $C$DW$601, DW_AT_data_member_location[DW_OP_plus_uconst 0x0]
    5291                      .dwattr $C$DW$601, DW_AT_accessibility(DW_ACCESS_public)
    5292              $C$DW$602       .dwtag  DW_TAG_member
    5293                      .dwattr $C$DW$602, DW_AT_type(*$C$DW$T$34)
    5294                      .dwattr $C$DW$602, DW_AT_name("TRIPINPUT3")
    5295                      .dwattr $C$DW$602, DW_AT_TI_symbol_name("_TRIPINPUT3")
    5296                      .dwattr $C$DW$602, DW_AT_bit_offset(0x0d), DW_AT_bit_size(0x01)
    5297                      .dwattr $C$DW$602, DW_AT_data_member_location[DW_OP_plus_uconst 0x0]
    5298                      .dwattr $C$DW$602, DW_AT_accessibility(DW_ACCESS_public)
    5299              $C$DW$603       .dwtag  DW_TAG_member
    5300                      .dwattr $C$DW$603, DW_AT_type(*$C$DW$T$34)
    5301                      .dwattr $C$DW$603, DW_AT_name("TRIPINPUT4")
    5302                      .dwattr $C$DW$603, DW_AT_TI_symbol_name("_TRIPINPUT4")
    5303                      .dwattr $C$DW$603, DW_AT_bit_offset(0x0c), DW_AT_bit_size(0x01)
    5304                      .dwattr $C$DW$603, DW_AT_data_member_location[DW_OP_plus_uconst 0x0]
    5305                      .dwattr $C$DW$603, DW_AT_accessibility(DW_ACCESS_public)
    5306              $C$DW$604       .dwtag  DW_TAG_member
    5307                      .dwattr $C$DW$604, DW_AT_type(*$C$DW$T$34)
    5308                      .dwattr $C$DW$604, DW_AT_name("TRIPINPUT5")
    5309                      .dwattr $C$DW$604, DW_AT_TI_symbol_name("_TRIPINPUT5")
    5310                      .dwattr $C$DW$604, DW_AT_bit_offset(0x0b), DW_AT_bit_size(0x01)
    5311                      .dwattr $C$DW$604, DW_AT_data_member_location[DW_OP_plus_uconst 0x0]
    5312                      .dwattr $C$DW$604, DW_AT_accessibility(DW_ACCESS_public)
    5313              $C$DW$605       .dwtag  DW_TAG_member
    5314                      .dwattr $C$DW$605, DW_AT_type(*$C$DW$T$34)
TMS320C2000 Assembler PC v6.4.2 Thu Dec 14 15:27:05 2017

Tools Copyright (c) 1996-2015 Texas Instruments Incorporated
fsm_main.asm                                                         PAGE  100

    5315                      .dwattr $C$DW$605, DW_AT_name("TRIPINPUT6")
    5316                      .dwattr $C$DW$605, DW_AT_TI_symbol_name("_TRIPINPUT6")
    5317                      .dwattr $C$DW$605, DW_AT_bit_offset(0x0a), DW_AT_bit_size(0x01)
    5318                      .dwattr $C$DW$605, DW_AT_data_member_location[DW_OP_plus_uconst 0x0]
    5319                      .dwattr $C$DW$605, DW_AT_accessibility(DW_ACCESS_public)
    5320              $C$DW$606       .dwtag  DW_TAG_member
    5321                      .dwattr $C$DW$606, DW_AT_type(*$C$DW$T$34)
    5322                      .dwattr $C$DW$606, DW_AT_name("TRIPINPUT7")
    5323                      .dwattr $C$DW$606, DW_AT_TI_symbol_name("_TRIPINPUT7")
    5324                      .dwattr $C$DW$606, DW_AT_bit_offset(0x09), DW_AT_bit_size(0x01)
    5325                      .dwattr $C$DW$606, DW_AT_data_member_location[DW_OP_plus_uconst 0x0]
    5326                      .dwattr $C$DW$606, DW_AT_accessibility(DW_ACCESS_public)
    5327              $C$DW$607       .dwtag  DW_TAG_member
    5328                      .dwattr $C$DW$607, DW_AT_type(*$C$DW$T$34)
    5329                      .dwattr $C$DW$607, DW_AT_name("TRIPINPUT8")
    5330                      .dwattr $C$DW$607, DW_AT_TI_symbol_name("_TRIPINPUT8")
    5331                      .dwattr $C$DW$607, DW_AT_bit_offset(0x08), DW_AT_bit_size(0x01)
    5332                      .dwattr $C$DW$607, DW_AT_data_member_location[DW_OP_plus_uconst 0x0]
    5333                      .dwattr $C$DW$607, DW_AT_accessibility(DW_ACCESS_public)
    5334              $C$DW$608       .dwtag  DW_TAG_member
    5335                      .dwattr $C$DW$608, DW_AT_type(*$C$DW$T$34)
    5336                      .dwattr $C$DW$608, DW_AT_name("TRIPINPUT9")
    5337                      .dwattr $C$DW$608, DW_AT_TI_symbol_name("_TRIPINPUT9")
    5338                      .dwattr $C$DW$608, DW_AT_bit_offset(0x07), DW_AT_bit_size(0x01)
    5339                      .dwattr $C$DW$608, DW_AT_data_member_location[DW_OP_plus_uconst 0x0]
    5340                      .dwattr $C$DW$608, DW_AT_accessibility(DW_ACCESS_public)
    5341              $C$DW$609       .dwtag  DW_TAG_member
    5342                      .dwattr $C$DW$609, DW_AT_type(*$C$DW$T$34)
    5343                      .dwattr $C$DW$609, DW_AT_name("TRIPINPUT10")
    5344                      .dwattr $C$DW$609, DW_AT_TI_symbol_name("_TRIPINPUT10")
    5345                      .dwattr $C$DW$609, DW_AT_bit_offset(0x06), DW_AT_bit_size(0x01)
    5346                      .dwattr $C$DW$609, DW_AT_data_member_location[DW_OP_plus_uconst 0x0]
    5347                      .dwattr $C$DW$609, DW_AT_accessibility(DW_ACCESS_public)
    5348              $C$DW$610       .dwtag  DW_TAG_member
    5349                      .dwattr $C$DW$610, DW_AT_type(*$C$DW$T$34)
    5350                      .dwattr $C$DW$610, DW_AT_name("TRIPINPUT11")
    5351                      .dwattr $C$DW$610, DW_AT_TI_symbol_name("_TRIPINPUT11")
    5352                      .dwattr $C$DW$610, DW_AT_bit_offset(0x05), DW_AT_bit_size(0x01)
    5353                      .dwattr $C$DW$610, DW_AT_data_member_location[DW_OP_plus_uconst 0x0]
    5354                      .dwattr $C$DW$610, DW_AT_accessibility(DW_ACCESS_public)
    5355              $C$DW$611       .dwtag  DW_TAG_member
    5356                      .dwattr $C$DW$611, DW_AT_type(*$C$DW$T$34)
    5357                      .dwattr $C$DW$611, DW_AT_name("TRIPINPUT12")
    5358                      .dwattr $C$DW$611, DW_AT_TI_symbol_name("_TRIPINPUT12")
    5359                      .dwattr $C$DW$611, DW_AT_bit_offset(0x04), DW_AT_bit_size(0x01)
    5360                      .dwattr $C$DW$611, DW_AT_data_member_location[DW_OP_plus_uconst 0x0]
    5361                      .dwattr $C$DW$611, DW_AT_accessibility(DW_ACCESS_public)
    5362              $C$DW$612       .dwtag  DW_TAG_member
    5363                      .dwattr $C$DW$612, DW_AT_type(*$C$DW$T$34)
    5364                      .dwattr $C$DW$612, DW_AT_name("rsvd1")
    5365                      .dwattr $C$DW$612, DW_AT_TI_symbol_name("_rsvd1")
    5366                      .dwattr $C$DW$612, DW_AT_bit_offset(0x03), DW_AT_bit_size(0x01)
    5367                      .dwattr $C$DW$612, DW_AT_data_member_location[DW_OP_plus_uconst 0x0]
    5368                      .dwattr $C$DW$612, DW_AT_accessibility(DW_ACCESS_public)
    5369              $C$DW$613       .dwtag  DW_TAG_member
TMS320C2000 Assembler PC v6.4.2 Thu Dec 14 15:27:05 2017

Tools Copyright (c) 1996-2015 Texas Instruments Incorporated
fsm_main.asm                                                         PAGE  101

    5370                      .dwattr $C$DW$613, DW_AT_type(*$C$DW$T$34)
    5371                      .dwattr $C$DW$613, DW_AT_name("TRIPINPUT14")
    5372                      .dwattr $C$DW$613, DW_AT_TI_symbol_name("_TRIPINPUT14")
    5373                      .dwattr $C$DW$613, DW_AT_bit_offset(0x02), DW_AT_bit_size(0x01)
    5374                      .dwattr $C$DW$613, DW_AT_data_member_location[DW_OP_plus_uconst 0x0]
    5375                      .dwattr $C$DW$613, DW_AT_accessibility(DW_ACCESS_public)
    5376              $C$DW$614       .dwtag  DW_TAG_member
    5377                      .dwattr $C$DW$614, DW_AT_type(*$C$DW$T$34)
    5378                      .dwattr $C$DW$614, DW_AT_name("TRIPINPUT15")
    5379                      .dwattr $C$DW$614, DW_AT_TI_symbol_name("_TRIPINPUT15")
    5380                      .dwattr $C$DW$614, DW_AT_bit_offset(0x01), DW_AT_bit_size(0x01)
    5381                      .dwattr $C$DW$614, DW_AT_data_member_location[DW_OP_plus_uconst 0x0]
    5382                      .dwattr $C$DW$614, DW_AT_accessibility(DW_ACCESS_public)
    5383              $C$DW$615       .dwtag  DW_TAG_member
    5384                      .dwattr $C$DW$615, DW_AT_type(*$C$DW$T$34)
    5385                      .dwattr $C$DW$615, DW_AT_name("rsvd2")
    5386                      .dwattr $C$DW$615, DW_AT_TI_symbol_name("_rsvd2")
    5387                      .dwattr $C$DW$615, DW_AT_bit_offset(0x00), DW_AT_bit_size(0x01)
    5388                      .dwattr $C$DW$615, DW_AT_data_member_location[DW_OP_plus_uconst 0x0]
    5389                      .dwattr $C$DW$615, DW_AT_accessibility(DW_ACCESS_public)
    5390                      .dwendtag $C$DW$T$137
    5391              
    5392              
    5393              $C$DW$T$138     .dwtag  DW_TAG_union_type
    5394                      .dwattr $C$DW$T$138, DW_AT_name("DCBLTRIPSEL_REG")
    5395                      .dwattr $C$DW$T$138, DW_AT_byte_size(0x01)
    5396              $C$DW$616       .dwtag  DW_TAG_member
    5397                      .dwattr $C$DW$616, DW_AT_type(*$C$DW$T$34)
    5398                      .dwattr $C$DW$616, DW_AT_name("all")
    5399                      .dwattr $C$DW$616, DW_AT_TI_symbol_name("_all")
    5400                      .dwattr $C$DW$616, DW_AT_data_member_location[DW_OP_plus_uconst 0x0]
    5401                      .dwattr $C$DW$616, DW_AT_accessibility(DW_ACCESS_public)
    5402              $C$DW$617       .dwtag  DW_TAG_member
    5403                      .dwattr $C$DW$617, DW_AT_type(*$C$DW$T$137)
    5404                      .dwattr $C$DW$617, DW_AT_name("bit")
    5405                      .dwattr $C$DW$617, DW_AT_TI_symbol_name("_bit")
    5406                      .dwattr $C$DW$617, DW_AT_data_member_location[DW_OP_plus_uconst 0x0]
    5407                      .dwattr $C$DW$617, DW_AT_accessibility(DW_ACCESS_public)
    5408                      .dwendtag $C$DW$T$138
    5409              
    5410              
    5411              $C$DW$T$139     .dwtag  DW_TAG_structure_type
    5412                      .dwattr $C$DW$T$139, DW_AT_name("DCCAPCTL_BITS")
    5413                      .dwattr $C$DW$T$139, DW_AT_byte_size(0x01)
    5414              $C$DW$618       .dwtag  DW_TAG_member
    5415                      .dwattr $C$DW$618, DW_AT_type(*$C$DW$T$34)
    5416                      .dwattr $C$DW$618, DW_AT_name("CAPE")
    5417                      .dwattr $C$DW$618, DW_AT_TI_symbol_name("_CAPE")
    5418                      .dwattr $C$DW$618, DW_AT_bit_offset(0x0f), DW_AT_bit_size(0x01)
    5419                      .dwattr $C$DW$618, DW_AT_data_member_location[DW_OP_plus_uconst 0x0]
    5420                      .dwattr $C$DW$618, DW_AT_accessibility(DW_ACCESS_public)
    5421              $C$DW$619       .dwtag  DW_TAG_member
    5422                      .dwattr $C$DW$619, DW_AT_type(*$C$DW$T$34)
    5423                      .dwattr $C$DW$619, DW_AT_name("SHDWMODE")
    5424                      .dwattr $C$DW$619, DW_AT_TI_symbol_name("_SHDWMODE")
TMS320C2000 Assembler PC v6.4.2 Thu Dec 14 15:27:05 2017

Tools Copyright (c) 1996-2015 Texas Instruments Incorporated
fsm_main.asm                                                         PAGE  102

    5425                      .dwattr $C$DW$619, DW_AT_bit_offset(0x0e), DW_AT_bit_size(0x01)
    5426                      .dwattr $C$DW$619, DW_AT_data_member_location[DW_OP_plus_uconst 0x0]
    5427                      .dwattr $C$DW$619, DW_AT_accessibility(DW_ACCESS_public)
    5428              $C$DW$620       .dwtag  DW_TAG_member
    5429                      .dwattr $C$DW$620, DW_AT_type(*$C$DW$T$34)
    5430                      .dwattr $C$DW$620, DW_AT_name("rsvd1")
    5431                      .dwattr $C$DW$620, DW_AT_TI_symbol_name("_rsvd1")
    5432                      .dwattr $C$DW$620, DW_AT_bit_offset(0x03), DW_AT_bit_size(0x0b)
    5433                      .dwattr $C$DW$620, DW_AT_data_member_location[DW_OP_plus_uconst 0x0]
    5434                      .dwattr $C$DW$620, DW_AT_accessibility(DW_ACCESS_public)
    5435              $C$DW$621       .dwtag  DW_TAG_member
    5436                      .dwattr $C$DW$621, DW_AT_type(*$C$DW$T$34)
    5437                      .dwattr $C$DW$621, DW_AT_name("rsvd2")
    5438                      .dwattr $C$DW$621, DW_AT_TI_symbol_name("_rsvd2")
    5439                      .dwattr $C$DW$621, DW_AT_bit_offset(0x02), DW_AT_bit_size(0x01)
    5440                      .dwattr $C$DW$621, DW_AT_data_member_location[DW_OP_plus_uconst 0x0]
    5441                      .dwattr $C$DW$621, DW_AT_accessibility(DW_ACCESS_public)
    5442              $C$DW$622       .dwtag  DW_TAG_member
    5443                      .dwattr $C$DW$622, DW_AT_type(*$C$DW$T$34)
    5444                      .dwattr $C$DW$622, DW_AT_name("rsvd3")
    5445                      .dwattr $C$DW$622, DW_AT_TI_symbol_name("_rsvd3")
    5446                      .dwattr $C$DW$622, DW_AT_bit_offset(0x01), DW_AT_bit_size(0x01)
    5447                      .dwattr $C$DW$622, DW_AT_data_member_location[DW_OP_plus_uconst 0x0]
    5448                      .dwattr $C$DW$622, DW_AT_accessibility(DW_ACCESS_public)
    5449              $C$DW$623       .dwtag  DW_TAG_member
    5450                      .dwattr $C$DW$623, DW_AT_type(*$C$DW$T$34)
    5451                      .dwattr $C$DW$623, DW_AT_name("rsvd4")
    5452                      .dwattr $C$DW$623, DW_AT_TI_symbol_name("_rsvd4")
    5453                      .dwattr $C$DW$623, DW_AT_bit_offset(0x00), DW_AT_bit_size(0x01)
    5454                      .dwattr $C$DW$623, DW_AT_data_member_location[DW_OP_plus_uconst 0x0]
    5455                      .dwattr $C$DW$623, DW_AT_accessibility(DW_ACCESS_public)
    5456                      .dwendtag $C$DW$T$139
    5457              
    5458              
    5459              $C$DW$T$140     .dwtag  DW_TAG_union_type
    5460                      .dwattr $C$DW$T$140, DW_AT_name("DCCAPCTL_REG")
    5461                      .dwattr $C$DW$T$140, DW_AT_byte_size(0x01)
    5462              $C$DW$624       .dwtag  DW_TAG_member
    5463                      .dwattr $C$DW$624, DW_AT_type(*$C$DW$T$34)
    5464                      .dwattr $C$DW$624, DW_AT_name("all")
    5465                      .dwattr $C$DW$624, DW_AT_TI_symbol_name("_all")
    5466                      .dwattr $C$DW$624, DW_AT_data_member_location[DW_OP_plus_uconst 0x0]
    5467                      .dwattr $C$DW$624, DW_AT_accessibility(DW_ACCESS_public)
    5468              $C$DW$625       .dwtag  DW_TAG_member
    5469                      .dwattr $C$DW$625, DW_AT_type(*$C$DW$T$139)
    5470                      .dwattr $C$DW$625, DW_AT_name("bit")
    5471                      .dwattr $C$DW$625, DW_AT_TI_symbol_name("_bit")
    5472                      .dwattr $C$DW$625, DW_AT_data_member_location[DW_OP_plus_uconst 0x0]
    5473                      .dwattr $C$DW$625, DW_AT_accessibility(DW_ACCESS_public)
    5474                      .dwendtag $C$DW$T$140
    5475              
    5476              
    5477              $C$DW$T$141     .dwtag  DW_TAG_structure_type
    5478                      .dwattr $C$DW$T$141, DW_AT_name("DCFCTL_BITS")
    5479                      .dwattr $C$DW$T$141, DW_AT_byte_size(0x01)
TMS320C2000 Assembler PC v6.4.2 Thu Dec 14 15:27:05 2017

Tools Copyright (c) 1996-2015 Texas Instruments Incorporated
fsm_main.asm                                                         PAGE  103

    5480              $C$DW$626       .dwtag  DW_TAG_member
    5481                      .dwattr $C$DW$626, DW_AT_type(*$C$DW$T$34)
    5482                      .dwattr $C$DW$626, DW_AT_name("SRCSEL")
    5483                      .dwattr $C$DW$626, DW_AT_TI_symbol_name("_SRCSEL")
    5484                      .dwattr $C$DW$626, DW_AT_bit_offset(0x0e), DW_AT_bit_size(0x02)
    5485                      .dwattr $C$DW$626, DW_AT_data_member_location[DW_OP_plus_uconst 0x0]
    5486                      .dwattr $C$DW$626, DW_AT_accessibility(DW_ACCESS_public)
    5487              $C$DW$627       .dwtag  DW_TAG_member
    5488                      .dwattr $C$DW$627, DW_AT_type(*$C$DW$T$34)
    5489                      .dwattr $C$DW$627, DW_AT_name("BLANKE")
    5490                      .dwattr $C$DW$627, DW_AT_TI_symbol_name("_BLANKE")
    5491                      .dwattr $C$DW$627, DW_AT_bit_offset(0x0d), DW_AT_bit_size(0x01)
    5492                      .dwattr $C$DW$627, DW_AT_data_member_location[DW_OP_plus_uconst 0x0]
    5493                      .dwattr $C$DW$627, DW_AT_accessibility(DW_ACCESS_public)
    5494              $C$DW$628       .dwtag  DW_TAG_member
    5495                      .dwattr $C$DW$628, DW_AT_type(*$C$DW$T$34)
    5496                      .dwattr $C$DW$628, DW_AT_name("BLANKINV")
    5497                      .dwattr $C$DW$628, DW_AT_TI_symbol_name("_BLANKINV")
    5498                      .dwattr $C$DW$628, DW_AT_bit_offset(0x0c), DW_AT_bit_size(0x01)
    5499                      .dwattr $C$DW$628, DW_AT_data_member_location[DW_OP_plus_uconst 0x0]
    5500                      .dwattr $C$DW$628, DW_AT_accessibility(DW_ACCESS_public)
    5501              $C$DW$629       .dwtag  DW_TAG_member
    5502                      .dwattr $C$DW$629, DW_AT_type(*$C$DW$T$34)
    5503                      .dwattr $C$DW$629, DW_AT_name("PULSESEL")
    5504                      .dwattr $C$DW$629, DW_AT_TI_symbol_name("_PULSESEL")
    5505                      .dwattr $C$DW$629, DW_AT_bit_offset(0x0a), DW_AT_bit_size(0x02)
    5506                      .dwattr $C$DW$629, DW_AT_data_member_location[DW_OP_plus_uconst 0x0]
    5507                      .dwattr $C$DW$629, DW_AT_accessibility(DW_ACCESS_public)
    5508              $C$DW$630       .dwtag  DW_TAG_member
    5509                      .dwattr $C$DW$630, DW_AT_type(*$C$DW$T$34)
    5510                      .dwattr $C$DW$630, DW_AT_name("rsvd1")
    5511                      .dwattr $C$DW$630, DW_AT_TI_symbol_name("_rsvd1")
    5512                      .dwattr $C$DW$630, DW_AT_bit_offset(0x09), DW_AT_bit_size(0x01)
    5513                      .dwattr $C$DW$630, DW_AT_data_member_location[DW_OP_plus_uconst 0x0]
    5514                      .dwattr $C$DW$630, DW_AT_accessibility(DW_ACCESS_public)
    5515              $C$DW$631       .dwtag  DW_TAG_member
    5516                      .dwattr $C$DW$631, DW_AT_type(*$C$DW$T$34)
    5517                      .dwattr $C$DW$631, DW_AT_name("rsvd2")
    5518                      .dwattr $C$DW$631, DW_AT_TI_symbol_name("_rsvd2")
    5519                      .dwattr $C$DW$631, DW_AT_bit_offset(0x08), DW_AT_bit_size(0x01)
    5520                      .dwattr $C$DW$631, DW_AT_data_member_location[DW_OP_plus_uconst 0x0]
    5521                      .dwattr $C$DW$631, DW_AT_accessibility(DW_ACCESS_public)
    5522              $C$DW$632       .dwtag  DW_TAG_member
    5523                      .dwattr $C$DW$632, DW_AT_type(*$C$DW$T$34)
    5524                      .dwattr $C$DW$632, DW_AT_name("rsvd3")
    5525                      .dwattr $C$DW$632, DW_AT_TI_symbol_name("_rsvd3")
    5526                      .dwattr $C$DW$632, DW_AT_bit_offset(0x06), DW_AT_bit_size(0x02)
    5527                      .dwattr $C$DW$632, DW_AT_data_member_location[DW_OP_plus_uconst 0x0]
    5528                      .dwattr $C$DW$632, DW_AT_accessibility(DW_ACCESS_public)
    5529              $C$DW$633       .dwtag  DW_TAG_member
    5530                      .dwattr $C$DW$633, DW_AT_type(*$C$DW$T$34)
    5531                      .dwattr $C$DW$633, DW_AT_name("rsvd4")
    5532                      .dwattr $C$DW$633, DW_AT_TI_symbol_name("_rsvd4")
    5533                      .dwattr $C$DW$633, DW_AT_bit_offset(0x03), DW_AT_bit_size(0x03)
    5534                      .dwattr $C$DW$633, DW_AT_data_member_location[DW_OP_plus_uconst 0x0]
TMS320C2000 Assembler PC v6.4.2 Thu Dec 14 15:27:05 2017

Tools Copyright (c) 1996-2015 Texas Instruments Incorporated
fsm_main.asm                                                         PAGE  104

    5535                      .dwattr $C$DW$633, DW_AT_accessibility(DW_ACCESS_public)
    5536              $C$DW$634       .dwtag  DW_TAG_member
    5537                      .dwattr $C$DW$634, DW_AT_type(*$C$DW$T$34)
    5538                      .dwattr $C$DW$634, DW_AT_name("rsvd5")
    5539                      .dwattr $C$DW$634, DW_AT_TI_symbol_name("_rsvd5")
    5540                      .dwattr $C$DW$634, DW_AT_bit_offset(0x00), DW_AT_bit_size(0x03)
    5541                      .dwattr $C$DW$634, DW_AT_data_member_location[DW_OP_plus_uconst 0x0]
    5542                      .dwattr $C$DW$634, DW_AT_accessibility(DW_ACCESS_public)
    5543                      .dwendtag $C$DW$T$141
    5544              
    5545              
    5546              $C$DW$T$142     .dwtag  DW_TAG_union_type
    5547                      .dwattr $C$DW$T$142, DW_AT_name("DCFCTL_REG")
    5548                      .dwattr $C$DW$T$142, DW_AT_byte_size(0x01)
    5549              $C$DW$635       .dwtag  DW_TAG_member
    5550                      .dwattr $C$DW$635, DW_AT_type(*$C$DW$T$34)
    5551                      .dwattr $C$DW$635, DW_AT_name("all")
    5552                      .dwattr $C$DW$635, DW_AT_TI_symbol_name("_all")
    5553                      .dwattr $C$DW$635, DW_AT_data_member_location[DW_OP_plus_uconst 0x0]
    5554                      .dwattr $C$DW$635, DW_AT_accessibility(DW_ACCESS_public)
    5555              $C$DW$636       .dwtag  DW_TAG_member
    5556                      .dwattr $C$DW$636, DW_AT_type(*$C$DW$T$141)
    5557                      .dwattr $C$DW$636, DW_AT_name("bit")
    5558                      .dwattr $C$DW$636, DW_AT_TI_symbol_name("_bit")
    5559                      .dwattr $C$DW$636, DW_AT_data_member_location[DW_OP_plus_uconst 0x0]
    5560                      .dwattr $C$DW$636, DW_AT_accessibility(DW_ACCESS_public)
    5561                      .dwendtag $C$DW$T$142
    5562              
    5563              
    5564              $C$DW$T$143     .dwtag  DW_TAG_structure_type
    5565                      .dwattr $C$DW$T$143, DW_AT_name("DCTRIPSEL_BITS")
    5566                      .dwattr $C$DW$T$143, DW_AT_byte_size(0x01)
    5567              $C$DW$637       .dwtag  DW_TAG_member
    5568                      .dwattr $C$DW$637, DW_AT_type(*$C$DW$T$34)
    5569                      .dwattr $C$DW$637, DW_AT_name("DCAHCOMPSEL")
    5570                      .dwattr $C$DW$637, DW_AT_TI_symbol_name("_DCAHCOMPSEL")
    5571                      .dwattr $C$DW$637, DW_AT_bit_offset(0x0c), DW_AT_bit_size(0x04)
    5572                      .dwattr $C$DW$637, DW_AT_data_member_location[DW_OP_plus_uconst 0x0]
    5573                      .dwattr $C$DW$637, DW_AT_accessibility(DW_ACCESS_public)
    5574              $C$DW$638       .dwtag  DW_TAG_member
    5575                      .dwattr $C$DW$638, DW_AT_type(*$C$DW$T$34)
    5576                      .dwattr $C$DW$638, DW_AT_name("DCALCOMPSEL")
    5577                      .dwattr $C$DW$638, DW_AT_TI_symbol_name("_DCALCOMPSEL")
    5578                      .dwattr $C$DW$638, DW_AT_bit_offset(0x08), DW_AT_bit_size(0x04)
    5579                      .dwattr $C$DW$638, DW_AT_data_member_location[DW_OP_plus_uconst 0x0]
    5580                      .dwattr $C$DW$638, DW_AT_accessibility(DW_ACCESS_public)
    5581              $C$DW$639       .dwtag  DW_TAG_member
    5582                      .dwattr $C$DW$639, DW_AT_type(*$C$DW$T$34)
    5583                      .dwattr $C$DW$639, DW_AT_name("DCBHCOMPSEL")
    5584                      .dwattr $C$DW$639, DW_AT_TI_symbol_name("_DCBHCOMPSEL")
    5585                      .dwattr $C$DW$639, DW_AT_bit_offset(0x04), DW_AT_bit_size(0x04)
    5586                      .dwattr $C$DW$639, DW_AT_data_member_location[DW_OP_plus_uconst 0x0]
    5587                      .dwattr $C$DW$639, DW_AT_accessibility(DW_ACCESS_public)
    5588              $C$DW$640       .dwtag  DW_TAG_member
    5589                      .dwattr $C$DW$640, DW_AT_type(*$C$DW$T$34)
TMS320C2000 Assembler PC v6.4.2 Thu Dec 14 15:27:05 2017

Tools Copyright (c) 1996-2015 Texas Instruments Incorporated
fsm_main.asm                                                         PAGE  105

    5590                      .dwattr $C$DW$640, DW_AT_name("DCBLCOMPSEL")
    5591                      .dwattr $C$DW$640, DW_AT_TI_symbol_name("_DCBLCOMPSEL")
    5592                      .dwattr $C$DW$640, DW_AT_bit_offset(0x00), DW_AT_bit_size(0x04)
    5593                      .dwattr $C$DW$640, DW_AT_data_member_location[DW_OP_plus_uconst 0x0]
    5594                      .dwattr $C$DW$640, DW_AT_accessibility(DW_ACCESS_public)
    5595                      .dwendtag $C$DW$T$143
    5596              
    5597              
    5598              $C$DW$T$144     .dwtag  DW_TAG_union_type
    5599                      .dwattr $C$DW$T$144, DW_AT_name("DCTRIPSEL_REG")
    5600                      .dwattr $C$DW$T$144, DW_AT_byte_size(0x01)
    5601              $C$DW$641       .dwtag  DW_TAG_member
    5602                      .dwattr $C$DW$641, DW_AT_type(*$C$DW$T$34)
    5603                      .dwattr $C$DW$641, DW_AT_name("all")
    5604                      .dwattr $C$DW$641, DW_AT_TI_symbol_name("_all")
    5605                      .dwattr $C$DW$641, DW_AT_data_member_location[DW_OP_plus_uconst 0x0]
    5606                      .dwattr $C$DW$641, DW_AT_accessibility(DW_ACCESS_public)
    5607              $C$DW$642       .dwtag  DW_TAG_member
    5608                      .dwattr $C$DW$642, DW_AT_type(*$C$DW$T$143)
    5609                      .dwattr $C$DW$642, DW_AT_name("bit")
    5610                      .dwattr $C$DW$642, DW_AT_TI_symbol_name("_bit")
    5611                      .dwattr $C$DW$642, DW_AT_data_member_location[DW_OP_plus_uconst 0x0]
    5612                      .dwattr $C$DW$642, DW_AT_accessibility(DW_ACCESS_public)
    5613                      .dwendtag $C$DW$T$144
    5614              
    5615              
    5616              $C$DW$T$145     .dwtag  DW_TAG_structure_type
    5617                      .dwattr $C$DW$T$145, DW_AT_name("DRV8301_CONTROL_REG_1_BITS")
    5618                      .dwattr $C$DW$T$145, DW_AT_byte_size(0x01)
    5619              $C$DW$643       .dwtag  DW_TAG_member
    5620                      .dwattr $C$DW$643, DW_AT_type(*$C$DW$T$34)
    5621                      .dwattr $C$DW$643, DW_AT_name("GATE_CURRENT")
    5622                      .dwattr $C$DW$643, DW_AT_TI_symbol_name("_GATE_CURRENT")
    5623                      .dwattr $C$DW$643, DW_AT_bit_offset(0x0e), DW_AT_bit_size(0x02)
    5624                      .dwattr $C$DW$643, DW_AT_data_member_location[DW_OP_plus_uconst 0x0]
    5625                      .dwattr $C$DW$643, DW_AT_accessibility(DW_ACCESS_public)
    5626              $C$DW$644       .dwtag  DW_TAG_member
    5627                      .dwattr $C$DW$644, DW_AT_type(*$C$DW$T$34)
    5628                      .dwattr $C$DW$644, DW_AT_name("GATE_RESET")
    5629                      .dwattr $C$DW$644, DW_AT_TI_symbol_name("_GATE_RESET")
    5630                      .dwattr $C$DW$644, DW_AT_bit_offset(0x0d), DW_AT_bit_size(0x01)
    5631                      .dwattr $C$DW$644, DW_AT_data_member_location[DW_OP_plus_uconst 0x0]
    5632                      .dwattr $C$DW$644, DW_AT_accessibility(DW_ACCESS_public)
    5633              $C$DW$645       .dwtag  DW_TAG_member
    5634                      .dwattr $C$DW$645, DW_AT_type(*$C$DW$T$34)
    5635                      .dwattr $C$DW$645, DW_AT_name("PWM_MODE")
    5636                      .dwattr $C$DW$645, DW_AT_TI_symbol_name("_PWM_MODE")
    5637                      .dwattr $C$DW$645, DW_AT_bit_offset(0x0c), DW_AT_bit_size(0x01)
    5638                      .dwattr $C$DW$645, DW_AT_data_member_location[DW_OP_plus_uconst 0x0]
    5639                      .dwattr $C$DW$645, DW_AT_accessibility(DW_ACCESS_public)
    5640              $C$DW$646       .dwtag  DW_TAG_member
    5641                      .dwattr $C$DW$646, DW_AT_type(*$C$DW$T$34)
    5642                      .dwattr $C$DW$646, DW_AT_name("OC_MODE")
    5643                      .dwattr $C$DW$646, DW_AT_TI_symbol_name("_OC_MODE")
    5644                      .dwattr $C$DW$646, DW_AT_bit_offset(0x0a), DW_AT_bit_size(0x02)
TMS320C2000 Assembler PC v6.4.2 Thu Dec 14 15:27:05 2017

Tools Copyright (c) 1996-2015 Texas Instruments Incorporated
fsm_main.asm                                                         PAGE  106

    5645                      .dwattr $C$DW$646, DW_AT_data_member_location[DW_OP_plus_uconst 0x0]
    5646                      .dwattr $C$DW$646, DW_AT_accessibility(DW_ACCESS_public)
    5647              $C$DW$647       .dwtag  DW_TAG_member
    5648                      .dwattr $C$DW$647, DW_AT_type(*$C$DW$T$34)
    5649                      .dwattr $C$DW$647, DW_AT_name("OC_ADJ_SET")
    5650                      .dwattr $C$DW$647, DW_AT_TI_symbol_name("_OC_ADJ_SET")
    5651                      .dwattr $C$DW$647, DW_AT_bit_offset(0x05), DW_AT_bit_size(0x05)
    5652                      .dwattr $C$DW$647, DW_AT_data_member_location[DW_OP_plus_uconst 0x0]
    5653                      .dwattr $C$DW$647, DW_AT_accessibility(DW_ACCESS_public)
    5654              $C$DW$648       .dwtag  DW_TAG_member
    5655                      .dwattr $C$DW$648, DW_AT_type(*$C$DW$T$34)
    5656                      .dwattr $C$DW$648, DW_AT_name("Reserved")
    5657                      .dwattr $C$DW$648, DW_AT_TI_symbol_name("_Reserved")
    5658                      .dwattr $C$DW$648, DW_AT_bit_offset(0x00), DW_AT_bit_size(0x05)
    5659                      .dwattr $C$DW$648, DW_AT_data_member_location[DW_OP_plus_uconst 0x0]
    5660                      .dwattr $C$DW$648, DW_AT_accessibility(DW_ACCESS_public)
    5661                      .dwendtag $C$DW$T$145
    5662              
    5663              
    5664              $C$DW$T$146     .dwtag  DW_TAG_structure_type
    5665                      .dwattr $C$DW$T$146, DW_AT_name("DRV8301_CONTROL_REG_2_BITS")
    5666                      .dwattr $C$DW$T$146, DW_AT_byte_size(0x01)
    5667              $C$DW$649       .dwtag  DW_TAG_member
    5668                      .dwattr $C$DW$649, DW_AT_type(*$C$DW$T$34)
    5669                      .dwattr $C$DW$649, DW_AT_name("OCTW_SET")
    5670                      .dwattr $C$DW$649, DW_AT_TI_symbol_name("_OCTW_SET")
    5671                      .dwattr $C$DW$649, DW_AT_bit_offset(0x0e), DW_AT_bit_size(0x02)
    5672                      .dwattr $C$DW$649, DW_AT_data_member_location[DW_OP_plus_uconst 0x0]
    5673                      .dwattr $C$DW$649, DW_AT_accessibility(DW_ACCESS_public)
    5674              $C$DW$650       .dwtag  DW_TAG_member
    5675                      .dwattr $C$DW$650, DW_AT_type(*$C$DW$T$34)
    5676                      .dwattr $C$DW$650, DW_AT_name("GAIN")
    5677                      .dwattr $C$DW$650, DW_AT_TI_symbol_name("_GAIN")
    5678                      .dwattr $C$DW$650, DW_AT_bit_offset(0x0c), DW_AT_bit_size(0x02)
    5679                      .dwattr $C$DW$650, DW_AT_data_member_location[DW_OP_plus_uconst 0x0]
    5680                      .dwattr $C$DW$650, DW_AT_accessibility(DW_ACCESS_public)
    5681              $C$DW$651       .dwtag  DW_TAG_member
    5682                      .dwattr $C$DW$651, DW_AT_type(*$C$DW$T$34)
    5683                      .dwattr $C$DW$651, DW_AT_name("DC_CAL_CH1")
    5684                      .dwattr $C$DW$651, DW_AT_TI_symbol_name("_DC_CAL_CH1")
    5685                      .dwattr $C$DW$651, DW_AT_bit_offset(0x0b), DW_AT_bit_size(0x01)
    5686                      .dwattr $C$DW$651, DW_AT_data_member_location[DW_OP_plus_uconst 0x0]
    5687                      .dwattr $C$DW$651, DW_AT_accessibility(DW_ACCESS_public)
    5688              $C$DW$652       .dwtag  DW_TAG_member
    5689                      .dwattr $C$DW$652, DW_AT_type(*$C$DW$T$34)
    5690                      .dwattr $C$DW$652, DW_AT_name("DC_CAL_CH2")
    5691                      .dwattr $C$DW$652, DW_AT_TI_symbol_name("_DC_CAL_CH2")
    5692                      .dwattr $C$DW$652, DW_AT_bit_offset(0x0a), DW_AT_bit_size(0x01)
    5693                      .dwattr $C$DW$652, DW_AT_data_member_location[DW_OP_plus_uconst 0x0]
    5694                      .dwattr $C$DW$652, DW_AT_accessibility(DW_ACCESS_public)
    5695              $C$DW$653       .dwtag  DW_TAG_member
    5696                      .dwattr $C$DW$653, DW_AT_type(*$C$DW$T$34)
    5697                      .dwattr $C$DW$653, DW_AT_name("OC_TOFF")
    5698                      .dwattr $C$DW$653, DW_AT_TI_symbol_name("_OC_TOFF")
    5699                      .dwattr $C$DW$653, DW_AT_bit_offset(0x09), DW_AT_bit_size(0x01)
TMS320C2000 Assembler PC v6.4.2 Thu Dec 14 15:27:05 2017

Tools Copyright (c) 1996-2015 Texas Instruments Incorporated
fsm_main.asm                                                         PAGE  107

    5700                      .dwattr $C$DW$653, DW_AT_data_member_location[DW_OP_plus_uconst 0x0]
    5701                      .dwattr $C$DW$653, DW_AT_accessibility(DW_ACCESS_public)
    5702              $C$DW$654       .dwtag  DW_TAG_member
    5703                      .dwattr $C$DW$654, DW_AT_type(*$C$DW$T$34)
    5704                      .dwattr $C$DW$654, DW_AT_name("Reserved")
    5705                      .dwattr $C$DW$654, DW_AT_TI_symbol_name("_Reserved")
    5706                      .dwattr $C$DW$654, DW_AT_bit_offset(0x00), DW_AT_bit_size(0x09)
    5707                      .dwattr $C$DW$654, DW_AT_data_member_location[DW_OP_plus_uconst 0x0]
    5708                      .dwattr $C$DW$654, DW_AT_accessibility(DW_ACCESS_public)
    5709                      .dwendtag $C$DW$T$146
    5710              
    5711              
    5712              $C$DW$T$147     .dwtag  DW_TAG_structure_type
    5713                      .dwattr $C$DW$T$147, DW_AT_name("DRV8301_STATUS_REG_1_BITS")
    5714                      .dwattr $C$DW$T$147, DW_AT_byte_size(0x01)
    5715              $C$DW$655       .dwtag  DW_TAG_member
    5716                      .dwattr $C$DW$655, DW_AT_type(*$C$DW$T$34)
    5717                      .dwattr $C$DW$655, DW_AT_name("FETLC_OC")
    5718                      .dwattr $C$DW$655, DW_AT_TI_symbol_name("_FETLC_OC")
    5719                      .dwattr $C$DW$655, DW_AT_bit_offset(0x0f), DW_AT_bit_size(0x01)
    5720                      .dwattr $C$DW$655, DW_AT_data_member_location[DW_OP_plus_uconst 0x0]
    5721                      .dwattr $C$DW$655, DW_AT_accessibility(DW_ACCESS_public)
    5722              $C$DW$656       .dwtag  DW_TAG_member
    5723                      .dwattr $C$DW$656, DW_AT_type(*$C$DW$T$34)
    5724                      .dwattr $C$DW$656, DW_AT_name("FETHC_OC")
    5725                      .dwattr $C$DW$656, DW_AT_TI_symbol_name("_FETHC_OC")
    5726                      .dwattr $C$DW$656, DW_AT_bit_offset(0x0e), DW_AT_bit_size(0x01)
    5727                      .dwattr $C$DW$656, DW_AT_data_member_location[DW_OP_plus_uconst 0x0]
    5728                      .dwattr $C$DW$656, DW_AT_accessibility(DW_ACCESS_public)
    5729              $C$DW$657       .dwtag  DW_TAG_member
    5730                      .dwattr $C$DW$657, DW_AT_type(*$C$DW$T$34)
    5731                      .dwattr $C$DW$657, DW_AT_name("FETLB_OC")
    5732                      .dwattr $C$DW$657, DW_AT_TI_symbol_name("_FETLB_OC")
    5733                      .dwattr $C$DW$657, DW_AT_bit_offset(0x0d), DW_AT_bit_size(0x01)
    5734                      .dwattr $C$DW$657, DW_AT_data_member_location[DW_OP_plus_uconst 0x0]
    5735                      .dwattr $C$DW$657, DW_AT_accessibility(DW_ACCESS_public)
    5736              $C$DW$658       .dwtag  DW_TAG_member
    5737                      .dwattr $C$DW$658, DW_AT_type(*$C$DW$T$34)
    5738                      .dwattr $C$DW$658, DW_AT_name("FETHB_OC")
    5739                      .dwattr $C$DW$658, DW_AT_TI_symbol_name("_FETHB_OC")
    5740                      .dwattr $C$DW$658, DW_AT_bit_offset(0x0c), DW_AT_bit_size(0x01)
    5741                      .dwattr $C$DW$658, DW_AT_data_member_location[DW_OP_plus_uconst 0x0]
    5742                      .dwattr $C$DW$658, DW_AT_accessibility(DW_ACCESS_public)
    5743              $C$DW$659       .dwtag  DW_TAG_member
    5744                      .dwattr $C$DW$659, DW_AT_type(*$C$DW$T$34)
    5745                      .dwattr $C$DW$659, DW_AT_name("FETLA_OC")
    5746                      .dwattr $C$DW$659, DW_AT_TI_symbol_name("_FETLA_OC")
    5747                      .dwattr $C$DW$659, DW_AT_bit_offset(0x0b), DW_AT_bit_size(0x01)
    5748                      .dwattr $C$DW$659, DW_AT_data_member_location[DW_OP_plus_uconst 0x0]
    5749                      .dwattr $C$DW$659, DW_AT_accessibility(DW_ACCESS_public)
    5750              $C$DW$660       .dwtag  DW_TAG_member
    5751                      .dwattr $C$DW$660, DW_AT_type(*$C$DW$T$34)
    5752                      .dwattr $C$DW$660, DW_AT_name("FETHA_OC")
    5753                      .dwattr $C$DW$660, DW_AT_TI_symbol_name("_FETHA_OC")
    5754                      .dwattr $C$DW$660, DW_AT_bit_offset(0x0a), DW_AT_bit_size(0x01)
TMS320C2000 Assembler PC v6.4.2 Thu Dec 14 15:27:05 2017

Tools Copyright (c) 1996-2015 Texas Instruments Incorporated
fsm_main.asm                                                         PAGE  108

    5755                      .dwattr $C$DW$660, DW_AT_data_member_location[DW_OP_plus_uconst 0x0]
    5756                      .dwattr $C$DW$660, DW_AT_accessibility(DW_ACCESS_public)
    5757              $C$DW$661       .dwtag  DW_TAG_member
    5758                      .dwattr $C$DW$661, DW_AT_type(*$C$DW$T$34)
    5759                      .dwattr $C$DW$661, DW_AT_name("OTW")
    5760                      .dwattr $C$DW$661, DW_AT_TI_symbol_name("_OTW")
    5761                      .dwattr $C$DW$661, DW_AT_bit_offset(0x09), DW_AT_bit_size(0x01)
    5762                      .dwattr $C$DW$661, DW_AT_data_member_location[DW_OP_plus_uconst 0x0]
    5763                      .dwattr $C$DW$661, DW_AT_accessibility(DW_ACCESS_public)
    5764              $C$DW$662       .dwtag  DW_TAG_member
    5765                      .dwattr $C$DW$662, DW_AT_type(*$C$DW$T$34)
    5766                      .dwattr $C$DW$662, DW_AT_name("OTSD")
    5767                      .dwattr $C$DW$662, DW_AT_TI_symbol_name("_OTSD")
    5768                      .dwattr $C$DW$662, DW_AT_bit_offset(0x08), DW_AT_bit_size(0x01)
    5769                      .dwattr $C$DW$662, DW_AT_data_member_location[DW_OP_plus_uconst 0x0]
    5770                      .dwattr $C$DW$662, DW_AT_accessibility(DW_ACCESS_public)
    5771              $C$DW$663       .dwtag  DW_TAG_member
    5772                      .dwattr $C$DW$663, DW_AT_type(*$C$DW$T$34)
    5773                      .dwattr $C$DW$663, DW_AT_name("PVDD_UV")
    5774                      .dwattr $C$DW$663, DW_AT_TI_symbol_name("_PVDD_UV")
    5775                      .dwattr $C$DW$663, DW_AT_bit_offset(0x07), DW_AT_bit_size(0x01)
    5776                      .dwattr $C$DW$663, DW_AT_data_member_location[DW_OP_plus_uconst 0x0]
    5777                      .dwattr $C$DW$663, DW_AT_accessibility(DW_ACCESS_public)
    5778              $C$DW$664       .dwtag  DW_TAG_member
    5779                      .dwattr $C$DW$664, DW_AT_type(*$C$DW$T$34)
    5780                      .dwattr $C$DW$664, DW_AT_name("GVDD_UV")
    5781                      .dwattr $C$DW$664, DW_AT_TI_symbol_name("_GVDD_UV")
    5782                      .dwattr $C$DW$664, DW_AT_bit_offset(0x06), DW_AT_bit_size(0x01)
    5783                      .dwattr $C$DW$664, DW_AT_data_member_location[DW_OP_plus_uconst 0x0]
    5784                      .dwattr $C$DW$664, DW_AT_accessibility(DW_ACCESS_public)
    5785              $C$DW$665       .dwtag  DW_TAG_member
    5786                      .dwattr $C$DW$665, DW_AT_type(*$C$DW$T$34)
    5787                      .dwattr $C$DW$665, DW_AT_name("FAULT")
    5788                      .dwattr $C$DW$665, DW_AT_TI_symbol_name("_FAULT")
    5789                      .dwattr $C$DW$665, DW_AT_bit_offset(0x05), DW_AT_bit_size(0x01)
    5790                      .dwattr $C$DW$665, DW_AT_data_member_location[DW_OP_plus_uconst 0x0]
    5791                      .dwattr $C$DW$665, DW_AT_accessibility(DW_ACCESS_public)
    5792              $C$DW$666       .dwtag  DW_TAG_member
    5793                      .dwattr $C$DW$666, DW_AT_type(*$C$DW$T$34)
    5794                      .dwattr $C$DW$666, DW_AT_name("Reserved")
    5795                      .dwattr $C$DW$666, DW_AT_TI_symbol_name("_Reserved")
    5796                      .dwattr $C$DW$666, DW_AT_bit_offset(0x00), DW_AT_bit_size(0x05)
    5797                      .dwattr $C$DW$666, DW_AT_data_member_location[DW_OP_plus_uconst 0x0]
    5798                      .dwattr $C$DW$666, DW_AT_accessibility(DW_ACCESS_public)
    5799                      .dwendtag $C$DW$T$147
    5800              
    5801              
    5802              $C$DW$T$148     .dwtag  DW_TAG_structure_type
    5803                      .dwattr $C$DW$T$148, DW_AT_name("DRV8301_STATUS_REG_2_BITS")
    5804                      .dwattr $C$DW$T$148, DW_AT_byte_size(0x01)
    5805              $C$DW$667       .dwtag  DW_TAG_member
    5806                      .dwattr $C$DW$667, DW_AT_type(*$C$DW$T$34)
    5807                      .dwattr $C$DW$667, DW_AT_name("DEVICE_ID")
    5808                      .dwattr $C$DW$667, DW_AT_TI_symbol_name("_DEVICE_ID")
    5809                      .dwattr $C$DW$667, DW_AT_bit_offset(0x0c), DW_AT_bit_size(0x04)
TMS320C2000 Assembler PC v6.4.2 Thu Dec 14 15:27:05 2017

Tools Copyright (c) 1996-2015 Texas Instruments Incorporated
fsm_main.asm                                                         PAGE  109

    5810                      .dwattr $C$DW$667, DW_AT_data_member_location[DW_OP_plus_uconst 0x0]
    5811                      .dwattr $C$DW$667, DW_AT_accessibility(DW_ACCESS_public)
    5812              $C$DW$668       .dwtag  DW_TAG_member
    5813                      .dwattr $C$DW$668, DW_AT_type(*$C$DW$T$34)
    5814                      .dwattr $C$DW$668, DW_AT_name("Reserved1")
    5815                      .dwattr $C$DW$668, DW_AT_TI_symbol_name("_Reserved1")
    5816                      .dwattr $C$DW$668, DW_AT_bit_offset(0x09), DW_AT_bit_size(0x03)
    5817                      .dwattr $C$DW$668, DW_AT_data_member_location[DW_OP_plus_uconst 0x0]
    5818                      .dwattr $C$DW$668, DW_AT_accessibility(DW_ACCESS_public)
    5819              $C$DW$669       .dwtag  DW_TAG_member
    5820                      .dwattr $C$DW$669, DW_AT_type(*$C$DW$T$34)
    5821                      .dwattr $C$DW$669, DW_AT_name("GVDD_OV")
    5822                      .dwattr $C$DW$669, DW_AT_TI_symbol_name("_GVDD_OV")
    5823                      .dwattr $C$DW$669, DW_AT_bit_offset(0x08), DW_AT_bit_size(0x01)
    5824                      .dwattr $C$DW$669, DW_AT_data_member_location[DW_OP_plus_uconst 0x0]
    5825                      .dwattr $C$DW$669, DW_AT_accessibility(DW_ACCESS_public)
    5826              $C$DW$670       .dwtag  DW_TAG_member
    5827                      .dwattr $C$DW$670, DW_AT_type(*$C$DW$T$34)
    5828                      .dwattr $C$DW$670, DW_AT_name("Reserved2")
    5829                      .dwattr $C$DW$670, DW_AT_TI_symbol_name("_Reserved2")
    5830                      .dwattr $C$DW$670, DW_AT_bit_offset(0x00), DW_AT_bit_size(0x08)
    5831                      .dwattr $C$DW$670, DW_AT_data_member_location[DW_OP_plus_uconst 0x0]
    5832                      .dwattr $C$DW$670, DW_AT_accessibility(DW_ACCESS_public)
    5833                      .dwendtag $C$DW$T$148
    5834              
    5835              
    5836              $C$DW$T$149     .dwtag  DW_TAG_structure_type
    5837                      .dwattr $C$DW$T$149, DW_AT_name("DRV8305_GD_CNTRL_REG_BITS")
    5838                      .dwattr $C$DW$T$149, DW_AT_byte_size(0x01)
    5839              $C$DW$671       .dwtag  DW_TAG_member
    5840                      .dwattr $C$DW$671, DW_AT_type(*$C$DW$T$34)
    5841                      .dwattr $C$DW$671, DW_AT_name("TVDS")
    5842                      .dwattr $C$DW$671, DW_AT_TI_symbol_name("_TVDS")
    5843                      .dwattr $C$DW$671, DW_AT_bit_offset(0x0e), DW_AT_bit_size(0x02)
    5844                      .dwattr $C$DW$671, DW_AT_data_member_location[DW_OP_plus_uconst 0x0]
    5845                      .dwattr $C$DW$671, DW_AT_accessibility(DW_ACCESS_public)
    5846              $C$DW$672       .dwtag  DW_TAG_member
    5847                      .dwattr $C$DW$672, DW_AT_type(*$C$DW$T$34)
    5848                      .dwattr $C$DW$672, DW_AT_name("TBLANK")
    5849                      .dwattr $C$DW$672, DW_AT_TI_symbol_name("_TBLANK")
    5850                      .dwattr $C$DW$672, DW_AT_bit_offset(0x0c), DW_AT_bit_size(0x02)
    5851                      .dwattr $C$DW$672, DW_AT_data_member_location[DW_OP_plus_uconst 0x0]
    5852                      .dwattr $C$DW$672, DW_AT_accessibility(DW_ACCESS_public)
    5853              $C$DW$673       .dwtag  DW_TAG_member
    5854                      .dwattr $C$DW$673, DW_AT_type(*$C$DW$T$34)
    5855                      .dwattr $C$DW$673, DW_AT_name("DEAD_TIME")
    5856                      .dwattr $C$DW$673, DW_AT_TI_symbol_name("_DEAD_TIME")
    5857                      .dwattr $C$DW$673, DW_AT_bit_offset(0x09), DW_AT_bit_size(0x03)
    5858                      .dwattr $C$DW$673, DW_AT_data_member_location[DW_OP_plus_uconst 0x0]
    5859                      .dwattr $C$DW$673, DW_AT_accessibility(DW_ACCESS_public)
    5860              $C$DW$674       .dwtag  DW_TAG_member
    5861                      .dwattr $C$DW$674, DW_AT_type(*$C$DW$T$34)
    5862                      .dwattr $C$DW$674, DW_AT_name("PWM_MODE")
    5863                      .dwattr $C$DW$674, DW_AT_TI_symbol_name("_PWM_MODE")
    5864                      .dwattr $C$DW$674, DW_AT_bit_offset(0x07), DW_AT_bit_size(0x02)
TMS320C2000 Assembler PC v6.4.2 Thu Dec 14 15:27:05 2017

Tools Copyright (c) 1996-2015 Texas Instruments Incorporated
fsm_main.asm                                                         PAGE  110

    5865                      .dwattr $C$DW$674, DW_AT_data_member_location[DW_OP_plus_uconst 0x0]
    5866                      .dwattr $C$DW$674, DW_AT_accessibility(DW_ACCESS_public)
    5867              $C$DW$675       .dwtag  DW_TAG_member
    5868                      .dwattr $C$DW$675, DW_AT_type(*$C$DW$T$34)
    5869                      .dwattr $C$DW$675, DW_AT_name("COMM_OPTION")
    5870                      .dwattr $C$DW$675, DW_AT_TI_symbol_name("_COMM_OPTION")
    5871                      .dwattr $C$DW$675, DW_AT_bit_offset(0x06), DW_AT_bit_size(0x01)
    5872                      .dwattr $C$DW$675, DW_AT_data_member_location[DW_OP_plus_uconst 0x0]
    5873                      .dwattr $C$DW$675, DW_AT_accessibility(DW_ACCESS_public)
    5874              $C$DW$676       .dwtag  DW_TAG_member
    5875                      .dwattr $C$DW$676, DW_AT_type(*$C$DW$T$34)
    5876                      .dwattr $C$DW$676, DW_AT_name("Reserved")
    5877                      .dwattr $C$DW$676, DW_AT_TI_symbol_name("_Reserved")
    5878                      .dwattr $C$DW$676, DW_AT_bit_offset(0x05), DW_AT_bit_size(0x01)
    5879                      .dwattr $C$DW$676, DW_AT_data_member_location[DW_OP_plus_uconst 0x0]
    5880                      .dwattr $C$DW$676, DW_AT_accessibility(DW_ACCESS_public)
    5881              $C$DW$677       .dwtag  DW_TAG_member
    5882                      .dwattr $C$DW$677, DW_AT_type(*$C$DW$T$34)
    5883                      .dwattr $C$DW$677, DW_AT_name("Reserved2")
    5884                      .dwattr $C$DW$677, DW_AT_TI_symbol_name("_Reserved2")
    5885                      .dwattr $C$DW$677, DW_AT_bit_offset(0x00), DW_AT_bit_size(0x05)
    5886                      .dwattr $C$DW$677, DW_AT_data_member_location[DW_OP_plus_uconst 0x0]
    5887                      .dwattr $C$DW$677, DW_AT_accessibility(DW_ACCESS_public)
    5888                      .dwendtag $C$DW$T$149
    5889              
    5890              
    5891              $C$DW$T$150     .dwtag  DW_TAG_structure_type
    5892                      .dwattr $C$DW$T$150, DW_AT_name("DRV8305_GD_VGS_FAULTS_REG_BITS")
    5893                      .dwattr $C$DW$T$150, DW_AT_byte_size(0x01)
    5894              $C$DW$678       .dwtag  DW_TAG_member
    5895                      .dwattr $C$DW$678, DW_AT_type(*$C$DW$T$34)
    5896                      .dwattr $C$DW$678, DW_AT_name("Reserved")
    5897                      .dwattr $C$DW$678, DW_AT_TI_symbol_name("_Reserved")
    5898                      .dwattr $C$DW$678, DW_AT_bit_offset(0x0b), DW_AT_bit_size(0x05)
    5899                      .dwattr $C$DW$678, DW_AT_data_member_location[DW_OP_plus_uconst 0x0]
    5900                      .dwattr $C$DW$678, DW_AT_accessibility(DW_ACCESS_public)
    5901              $C$DW$679       .dwtag  DW_TAG_member
    5902                      .dwattr $C$DW$679, DW_AT_type(*$C$DW$T$34)
    5903                      .dwattr $C$DW$679, DW_AT_name("FETLC_VGS")
    5904                      .dwattr $C$DW$679, DW_AT_TI_symbol_name("_FETLC_VGS")
    5905                      .dwattr $C$DW$679, DW_AT_bit_offset(0x0a), DW_AT_bit_size(0x01)
    5906                      .dwattr $C$DW$679, DW_AT_data_member_location[DW_OP_plus_uconst 0x0]
    5907                      .dwattr $C$DW$679, DW_AT_accessibility(DW_ACCESS_public)
    5908              $C$DW$680       .dwtag  DW_TAG_member
    5909                      .dwattr $C$DW$680, DW_AT_type(*$C$DW$T$34)
    5910                      .dwattr $C$DW$680, DW_AT_name("FETHC_VGS")
    5911                      .dwattr $C$DW$680, DW_AT_TI_symbol_name("_FETHC_VGS")
    5912                      .dwattr $C$DW$680, DW_AT_bit_offset(0x09), DW_AT_bit_size(0x01)
    5913                      .dwattr $C$DW$680, DW_AT_data_member_location[DW_OP_plus_uconst 0x0]
    5914                      .dwattr $C$DW$680, DW_AT_accessibility(DW_ACCESS_public)
    5915              $C$DW$681       .dwtag  DW_TAG_member
    5916                      .dwattr $C$DW$681, DW_AT_type(*$C$DW$T$34)
    5917                      .dwattr $C$DW$681, DW_AT_name("FETLB_VGS")
    5918                      .dwattr $C$DW$681, DW_AT_TI_symbol_name("_FETLB_VGS")
    5919                      .dwattr $C$DW$681, DW_AT_bit_offset(0x08), DW_AT_bit_size(0x01)
TMS320C2000 Assembler PC v6.4.2 Thu Dec 14 15:27:05 2017

Tools Copyright (c) 1996-2015 Texas Instruments Incorporated
fsm_main.asm                                                         PAGE  111

    5920                      .dwattr $C$DW$681, DW_AT_data_member_location[DW_OP_plus_uconst 0x0]
    5921                      .dwattr $C$DW$681, DW_AT_accessibility(DW_ACCESS_public)
    5922              $C$DW$682       .dwtag  DW_TAG_member
    5923                      .dwattr $C$DW$682, DW_AT_type(*$C$DW$T$34)
    5924                      .dwattr $C$DW$682, DW_AT_name("FETHB_VGS")
    5925                      .dwattr $C$DW$682, DW_AT_TI_symbol_name("_FETHB_VGS")
    5926                      .dwattr $C$DW$682, DW_AT_bit_offset(0x07), DW_AT_bit_size(0x01)
    5927                      .dwattr $C$DW$682, DW_AT_data_member_location[DW_OP_plus_uconst 0x0]
    5928                      .dwattr $C$DW$682, DW_AT_accessibility(DW_ACCESS_public)
    5929              $C$DW$683       .dwtag  DW_TAG_member
    5930                      .dwattr $C$DW$683, DW_AT_type(*$C$DW$T$34)
    5931                      .dwattr $C$DW$683, DW_AT_name("FETLA_VGS")
    5932                      .dwattr $C$DW$683, DW_AT_TI_symbol_name("_FETLA_VGS")
    5933                      .dwattr $C$DW$683, DW_AT_bit_offset(0x06), DW_AT_bit_size(0x01)
    5934                      .dwattr $C$DW$683, DW_AT_data_member_location[DW_OP_plus_uconst 0x0]
    5935                      .dwattr $C$DW$683, DW_AT_accessibility(DW_ACCESS_public)
    5936              $C$DW$684       .dwtag  DW_TAG_member
    5937                      .dwattr $C$DW$684, DW_AT_type(*$C$DW$T$34)
    5938                      .dwattr $C$DW$684, DW_AT_name("FETHA_VGS")
    5939                      .dwattr $C$DW$684, DW_AT_TI_symbol_name("_FETHA_VGS")
    5940                      .dwattr $C$DW$684, DW_AT_bit_offset(0x05), DW_AT_bit_size(0x01)
    5941                      .dwattr $C$DW$684, DW_AT_data_member_location[DW_OP_plus_uconst 0x0]
    5942                      .dwattr $C$DW$684, DW_AT_accessibility(DW_ACCESS_public)
    5943              $C$DW$685       .dwtag  DW_TAG_member
    5944                      .dwattr $C$DW$685, DW_AT_type(*$C$DW$T$34)
    5945                      .dwattr $C$DW$685, DW_AT_name("Reserved2")
    5946                      .dwattr $C$DW$685, DW_AT_TI_symbol_name("_Reserved2")
    5947                      .dwattr $C$DW$685, DW_AT_bit_offset(0x00), DW_AT_bit_size(0x05)
    5948                      .dwattr $C$DW$685, DW_AT_data_member_location[DW_OP_plus_uconst 0x0]
    5949                      .dwattr $C$DW$685, DW_AT_accessibility(DW_ACCESS_public)
    5950                      .dwendtag $C$DW$T$150
    5951              
    5952              
    5953              $C$DW$T$151     .dwtag  DW_TAG_structure_type
    5954                      .dwattr $C$DW$T$151, DW_AT_name("DRV8305_HS_GATE_DRIVER_CNTRL_REG_BITS")
    5955                      .dwattr $C$DW$T$151, DW_AT_byte_size(0x01)
    5956              $C$DW$686       .dwtag  DW_TAG_member
    5957                      .dwattr $C$DW$686, DW_AT_type(*$C$DW$T$34)
    5958                      .dwattr $C$DW$686, DW_AT_name("IDRIVEP_HS")
    5959                      .dwattr $C$DW$686, DW_AT_TI_symbol_name("_IDRIVEP_HS")
    5960                      .dwattr $C$DW$686, DW_AT_bit_offset(0x0c), DW_AT_bit_size(0x04)
    5961                      .dwattr $C$DW$686, DW_AT_data_member_location[DW_OP_plus_uconst 0x0]
    5962                      .dwattr $C$DW$686, DW_AT_accessibility(DW_ACCESS_public)
    5963              $C$DW$687       .dwtag  DW_TAG_member
    5964                      .dwattr $C$DW$687, DW_AT_type(*$C$DW$T$34)
    5965                      .dwattr $C$DW$687, DW_AT_name("IDRIVEN_HS")
    5966                      .dwattr $C$DW$687, DW_AT_TI_symbol_name("_IDRIVEN_HS")
    5967                      .dwattr $C$DW$687, DW_AT_bit_offset(0x08), DW_AT_bit_size(0x04)
    5968                      .dwattr $C$DW$687, DW_AT_data_member_location[DW_OP_plus_uconst 0x0]
    5969                      .dwattr $C$DW$687, DW_AT_accessibility(DW_ACCESS_public)
    5970              $C$DW$688       .dwtag  DW_TAG_member
    5971                      .dwattr $C$DW$688, DW_AT_type(*$C$DW$T$34)
    5972                      .dwattr $C$DW$688, DW_AT_name("TDRIVEN")
    5973                      .dwattr $C$DW$688, DW_AT_TI_symbol_name("_TDRIVEN")
    5974                      .dwattr $C$DW$688, DW_AT_bit_offset(0x06), DW_AT_bit_size(0x02)
TMS320C2000 Assembler PC v6.4.2 Thu Dec 14 15:27:05 2017

Tools Copyright (c) 1996-2015 Texas Instruments Incorporated
fsm_main.asm                                                         PAGE  112

    5975                      .dwattr $C$DW$688, DW_AT_data_member_location[DW_OP_plus_uconst 0x0]
    5976                      .dwattr $C$DW$688, DW_AT_accessibility(DW_ACCESS_public)
    5977              $C$DW$689       .dwtag  DW_TAG_member
    5978                      .dwattr $C$DW$689, DW_AT_type(*$C$DW$T$34)
    5979                      .dwattr $C$DW$689, DW_AT_name("Reserved")
    5980                      .dwattr $C$DW$689, DW_AT_TI_symbol_name("_Reserved")
    5981                      .dwattr $C$DW$689, DW_AT_bit_offset(0x05), DW_AT_bit_size(0x01)
    5982                      .dwattr $C$DW$689, DW_AT_data_member_location[DW_OP_plus_uconst 0x0]
    5983                      .dwattr $C$DW$689, DW_AT_accessibility(DW_ACCESS_public)
    5984              $C$DW$690       .dwtag  DW_TAG_member
    5985                      .dwattr $C$DW$690, DW_AT_type(*$C$DW$T$34)
    5986                      .dwattr $C$DW$690, DW_AT_name("Reserved2")
    5987                      .dwattr $C$DW$690, DW_AT_TI_symbol_name("_Reserved2")
    5988                      .dwattr $C$DW$690, DW_AT_bit_offset(0x00), DW_AT_bit_size(0x05)
    5989                      .dwattr $C$DW$690, DW_AT_data_member_location[DW_OP_plus_uconst 0x0]
    5990                      .dwattr $C$DW$690, DW_AT_accessibility(DW_ACCESS_public)
    5991                      .dwendtag $C$DW$T$151
    5992              
    5993              
    5994              $C$DW$T$152     .dwtag  DW_TAG_structure_type
    5995                      .dwattr $C$DW$T$152, DW_AT_name("DRV8305_IC_FAULTS_REG_BITS")
    5996                      .dwattr $C$DW$T$152, DW_AT_byte_size(0x01)
    5997              $C$DW$691       .dwtag  DW_TAG_member
    5998                      .dwattr $C$DW$691, DW_AT_type(*$C$DW$T$34)
    5999                      .dwattr $C$DW$691, DW_AT_name("VCPH_OVLO_ABS")
    6000                      .dwattr $C$DW$691, DW_AT_TI_symbol_name("_VCPH_OVLO_ABS")
    6001                      .dwattr $C$DW$691, DW_AT_bit_offset(0x0f), DW_AT_bit_size(0x01)
    6002                      .dwattr $C$DW$691, DW_AT_data_member_location[DW_OP_plus_uconst 0x0]
    6003                      .dwattr $C$DW$691, DW_AT_accessibility(DW_ACCESS_public)
    6004              $C$DW$692       .dwtag  DW_TAG_member
    6005                      .dwattr $C$DW$692, DW_AT_type(*$C$DW$T$34)
    6006                      .dwattr $C$DW$692, DW_AT_name("VCPH_OVLO")
    6007                      .dwattr $C$DW$692, DW_AT_TI_symbol_name("_VCPH_OVLO")
    6008                      .dwattr $C$DW$692, DW_AT_bit_offset(0x0e), DW_AT_bit_size(0x01)
    6009                      .dwattr $C$DW$692, DW_AT_data_member_location[DW_OP_plus_uconst 0x0]
    6010                      .dwattr $C$DW$692, DW_AT_accessibility(DW_ACCESS_public)
    6011              $C$DW$693       .dwtag  DW_TAG_member
    6012                      .dwattr $C$DW$693, DW_AT_type(*$C$DW$T$34)
    6013                      .dwattr $C$DW$693, DW_AT_name("VCPH_UVLO")
    6014                      .dwattr $C$DW$693, DW_AT_TI_symbol_name("_VCPH_UVLO")
    6015                      .dwattr $C$DW$693, DW_AT_bit_offset(0x0d), DW_AT_bit_size(0x01)
    6016                      .dwattr $C$DW$693, DW_AT_data_member_location[DW_OP_plus_uconst 0x0]
    6017                      .dwattr $C$DW$693, DW_AT_accessibility(DW_ACCESS_public)
    6018              $C$DW$694       .dwtag  DW_TAG_member
    6019                      .dwattr $C$DW$694, DW_AT_type(*$C$DW$T$34)
    6020                      .dwattr $C$DW$694, DW_AT_name("Reserved")
    6021                      .dwattr $C$DW$694, DW_AT_TI_symbol_name("_Reserved")
    6022                      .dwattr $C$DW$694, DW_AT_bit_offset(0x0c), DW_AT_bit_size(0x01)
    6023                      .dwattr $C$DW$694, DW_AT_data_member_location[DW_OP_plus_uconst 0x0]
    6024                      .dwattr $C$DW$694, DW_AT_accessibility(DW_ACCESS_public)
    6025              $C$DW$695       .dwtag  DW_TAG_member
    6026                      .dwattr $C$DW$695, DW_AT_type(*$C$DW$T$34)
    6027                      .dwattr $C$DW$695, DW_AT_name("VCP_LSD_UVLO")
    6028                      .dwattr $C$DW$695, DW_AT_TI_symbol_name("_VCP_LSD_UVLO")
    6029                      .dwattr $C$DW$695, DW_AT_bit_offset(0x0b), DW_AT_bit_size(0x01)
TMS320C2000 Assembler PC v6.4.2 Thu Dec 14 15:27:05 2017

Tools Copyright (c) 1996-2015 Texas Instruments Incorporated
fsm_main.asm                                                         PAGE  113

    6030                      .dwattr $C$DW$695, DW_AT_data_member_location[DW_OP_plus_uconst 0x0]
    6031                      .dwattr $C$DW$695, DW_AT_accessibility(DW_ACCESS_public)
    6032              $C$DW$696       .dwtag  DW_TAG_member
    6033                      .dwattr $C$DW$696, DW_AT_type(*$C$DW$T$34)
    6034                      .dwattr $C$DW$696, DW_AT_name("AVDD_UVLO")
    6035                      .dwattr $C$DW$696, DW_AT_TI_symbol_name("_AVDD_UVLO")
    6036                      .dwattr $C$DW$696, DW_AT_bit_offset(0x0a), DW_AT_bit_size(0x01)
    6037                      .dwattr $C$DW$696, DW_AT_data_member_location[DW_OP_plus_uconst 0x0]
    6038                      .dwattr $C$DW$696, DW_AT_accessibility(DW_ACCESS_public)
    6039              $C$DW$697       .dwtag  DW_TAG_member
    6040                      .dwattr $C$DW$697, DW_AT_type(*$C$DW$T$34)
    6041                      .dwattr $C$DW$697, DW_AT_name("VREG_UV")
    6042                      .dwattr $C$DW$697, DW_AT_TI_symbol_name("_VREG_UV")
    6043                      .dwattr $C$DW$697, DW_AT_bit_offset(0x09), DW_AT_bit_size(0x01)
    6044                      .dwattr $C$DW$697, DW_AT_data_member_location[DW_OP_plus_uconst 0x0]
    6045                      .dwattr $C$DW$697, DW_AT_accessibility(DW_ACCESS_public)
    6046              $C$DW$698       .dwtag  DW_TAG_member
    6047                      .dwattr $C$DW$698, DW_AT_type(*$C$DW$T$34)
    6048                      .dwattr $C$DW$698, DW_AT_name("Reserved2")
    6049                      .dwattr $C$DW$698, DW_AT_TI_symbol_name("_Reserved2")
    6050                      .dwattr $C$DW$698, DW_AT_bit_offset(0x08), DW_AT_bit_size(0x01)
    6051                      .dwattr $C$DW$698, DW_AT_data_member_location[DW_OP_plus_uconst 0x0]
    6052                      .dwattr $C$DW$698, DW_AT_accessibility(DW_ACCESS_public)
    6053              $C$DW$699       .dwtag  DW_TAG_member
    6054                      .dwattr $C$DW$699, DW_AT_type(*$C$DW$T$34)
    6055                      .dwattr $C$DW$699, DW_AT_name("OTS")
    6056                      .dwattr $C$DW$699, DW_AT_TI_symbol_name("_OTS")
    6057                      .dwattr $C$DW$699, DW_AT_bit_offset(0x07), DW_AT_bit_size(0x01)
    6058                      .dwattr $C$DW$699, DW_AT_data_member_location[DW_OP_plus_uconst 0x0]
    6059                      .dwattr $C$DW$699, DW_AT_accessibility(DW_ACCESS_public)
    6060              $C$DW$700       .dwtag  DW_TAG_member
    6061                      .dwattr $C$DW$700, DW_AT_type(*$C$DW$T$34)
    6062                      .dwattr $C$DW$700, DW_AT_name("WD_FAULT")
    6063                      .dwattr $C$DW$700, DW_AT_TI_symbol_name("_WD_FAULT")
    6064                      .dwattr $C$DW$700, DW_AT_bit_offset(0x06), DW_AT_bit_size(0x01)
    6065                      .dwattr $C$DW$700, DW_AT_data_member_location[DW_OP_plus_uconst 0x0]
    6066                      .dwattr $C$DW$700, DW_AT_accessibility(DW_ACCESS_public)
    6067              $C$DW$701       .dwtag  DW_TAG_member
    6068                      .dwattr $C$DW$701, DW_AT_type(*$C$DW$T$34)
    6069                      .dwattr $C$DW$701, DW_AT_name("PVDD_UVLO2")
    6070                      .dwattr $C$DW$701, DW_AT_TI_symbol_name("_PVDD_UVLO2")
    6071                      .dwattr $C$DW$701, DW_AT_bit_offset(0x05), DW_AT_bit_size(0x01)
    6072                      .dwattr $C$DW$701, DW_AT_data_member_location[DW_OP_plus_uconst 0x0]
    6073                      .dwattr $C$DW$701, DW_AT_accessibility(DW_ACCESS_public)
    6074              $C$DW$702       .dwtag  DW_TAG_member
    6075                      .dwattr $C$DW$702, DW_AT_type(*$C$DW$T$34)
    6076                      .dwattr $C$DW$702, DW_AT_name("Reserved3")
    6077                      .dwattr $C$DW$702, DW_AT_TI_symbol_name("_Reserved3")
    6078                      .dwattr $C$DW$702, DW_AT_bit_offset(0x00), DW_AT_bit_size(0x05)
    6079                      .dwattr $C$DW$702, DW_AT_data_member_location[DW_OP_plus_uconst 0x0]
    6080                      .dwattr $C$DW$702, DW_AT_accessibility(DW_ACCESS_public)
    6081                      .dwendtag $C$DW$T$152
    6082              
    6083              
    6084              $C$DW$T$153     .dwtag  DW_TAG_structure_type
TMS320C2000 Assembler PC v6.4.2 Thu Dec 14 15:27:05 2017

Tools Copyright (c) 1996-2015 Texas Instruments Incorporated
fsm_main.asm                                                         PAGE  114

    6085                      .dwattr $C$DW$T$153, DW_AT_name("DRV8305_IC_OPS_REG_BITS")
    6086                      .dwattr $C$DW$T$153, DW_AT_byte_size(0x01)
    6087              $C$DW$703       .dwtag  DW_TAG_member
    6088                      .dwattr $C$DW$703, DW_AT_type(*$C$DW$T$34)
    6089                      .dwattr $C$DW$703, DW_AT_name("SET_VCPH_UV")
    6090                      .dwattr $C$DW$703, DW_AT_TI_symbol_name("_SET_VCPH_UV")
    6091                      .dwattr $C$DW$703, DW_AT_bit_offset(0x0f), DW_AT_bit_size(0x01)
    6092                      .dwattr $C$DW$703, DW_AT_data_member_location[DW_OP_plus_uconst 0x0]
    6093                      .dwattr $C$DW$703, DW_AT_accessibility(DW_ACCESS_public)
    6094              $C$DW$704       .dwtag  DW_TAG_member
    6095                      .dwattr $C$DW$704, DW_AT_type(*$C$DW$T$34)
    6096                      .dwattr $C$DW$704, DW_AT_name("CLR_FLTS")
    6097                      .dwattr $C$DW$704, DW_AT_TI_symbol_name("_CLR_FLTS")
    6098                      .dwattr $C$DW$704, DW_AT_bit_offset(0x0e), DW_AT_bit_size(0x01)
    6099                      .dwattr $C$DW$704, DW_AT_data_member_location[DW_OP_plus_uconst 0x0]
    6100                      .dwattr $C$DW$704, DW_AT_accessibility(DW_ACCESS_public)
    6101              $C$DW$705       .dwtag  DW_TAG_member
    6102                      .dwattr $C$DW$705, DW_AT_type(*$C$DW$T$34)
    6103                      .dwattr $C$DW$705, DW_AT_name("SLEEP")
    6104                      .dwattr $C$DW$705, DW_AT_TI_symbol_name("_SLEEP")
    6105                      .dwattr $C$DW$705, DW_AT_bit_offset(0x0d), DW_AT_bit_size(0x01)
    6106                      .dwattr $C$DW$705, DW_AT_data_member_location[DW_OP_plus_uconst 0x0]
    6107                      .dwattr $C$DW$705, DW_AT_accessibility(DW_ACCESS_public)
    6108              $C$DW$706       .dwtag  DW_TAG_member
    6109                      .dwattr $C$DW$706, DW_AT_type(*$C$DW$T$34)
    6110                      .dwattr $C$DW$706, DW_AT_name("WD_EN")
    6111                      .dwattr $C$DW$706, DW_AT_TI_symbol_name("_WD_EN")
    6112                      .dwattr $C$DW$706, DW_AT_bit_offset(0x0c), DW_AT_bit_size(0x01)
    6113                      .dwattr $C$DW$706, DW_AT_data_member_location[DW_OP_plus_uconst 0x0]
    6114                      .dwattr $C$DW$706, DW_AT_accessibility(DW_ACCESS_public)
    6115              $C$DW$707       .dwtag  DW_TAG_member
    6116                      .dwattr $C$DW$707, DW_AT_type(*$C$DW$T$34)
    6117                      .dwattr $C$DW$707, DW_AT_name("DIS_SNS_OCP")
    6118                      .dwattr $C$DW$707, DW_AT_TI_symbol_name("_DIS_SNS_OCP")
    6119                      .dwattr $C$DW$707, DW_AT_bit_offset(0x0b), DW_AT_bit_size(0x01)
    6120                      .dwattr $C$DW$707, DW_AT_data_member_location[DW_OP_plus_uconst 0x0]
    6121                      .dwattr $C$DW$707, DW_AT_accessibility(DW_ACCESS_public)
    6122              $C$DW$708       .dwtag  DW_TAG_member
    6123                      .dwattr $C$DW$708, DW_AT_type(*$C$DW$T$34)
    6124                      .dwattr $C$DW$708, DW_AT_name("WD_DLY")
    6125                      .dwattr $C$DW$708, DW_AT_TI_symbol_name("_WD_DLY")
    6126                      .dwattr $C$DW$708, DW_AT_bit_offset(0x09), DW_AT_bit_size(0x02)
    6127                      .dwattr $C$DW$708, DW_AT_data_member_location[DW_OP_plus_uconst 0x0]
    6128                      .dwattr $C$DW$708, DW_AT_accessibility(DW_ACCESS_public)
    6129              $C$DW$709       .dwtag  DW_TAG_member
    6130                      .dwattr $C$DW$709, DW_AT_type(*$C$DW$T$34)
    6131                      .dwattr $C$DW$709, DW_AT_name("EN_SNS_CLAMP")
    6132                      .dwattr $C$DW$709, DW_AT_TI_symbol_name("_EN_SNS_CLAMP")
    6133                      .dwattr $C$DW$709, DW_AT_bit_offset(0x08), DW_AT_bit_size(0x01)
    6134                      .dwattr $C$DW$709, DW_AT_data_member_location[DW_OP_plus_uconst 0x0]
    6135                      .dwattr $C$DW$709, DW_AT_accessibility(DW_ACCESS_public)
    6136              $C$DW$710       .dwtag  DW_TAG_member
    6137                      .dwattr $C$DW$710, DW_AT_type(*$C$DW$T$34)
    6138                      .dwattr $C$DW$710, DW_AT_name("DIS_GDRV_FAULT")
    6139                      .dwattr $C$DW$710, DW_AT_TI_symbol_name("_DIS_GDRV_FAULT")
TMS320C2000 Assembler PC v6.4.2 Thu Dec 14 15:27:05 2017

Tools Copyright (c) 1996-2015 Texas Instruments Incorporated
fsm_main.asm                                                         PAGE  115

    6140                      .dwattr $C$DW$710, DW_AT_bit_offset(0x07), DW_AT_bit_size(0x01)
    6141                      .dwattr $C$DW$710, DW_AT_data_member_location[DW_OP_plus_uconst 0x0]
    6142                      .dwattr $C$DW$710, DW_AT_accessibility(DW_ACCESS_public)
    6143              $C$DW$711       .dwtag  DW_TAG_member
    6144                      .dwattr $C$DW$711, DW_AT_type(*$C$DW$T$34)
    6145                      .dwattr $C$DW$711, DW_AT_name("DIS_VPVDD_UVLO2")
    6146                      .dwattr $C$DW$711, DW_AT_TI_symbol_name("_DIS_VPVDD_UVLO2")
    6147                      .dwattr $C$DW$711, DW_AT_bit_offset(0x06), DW_AT_bit_size(0x01)
    6148                      .dwattr $C$DW$711, DW_AT_data_member_location[DW_OP_plus_uconst 0x0]
    6149                      .dwattr $C$DW$711, DW_AT_accessibility(DW_ACCESS_public)
    6150              $C$DW$712       .dwtag  DW_TAG_member
    6151                      .dwattr $C$DW$712, DW_AT_type(*$C$DW$T$34)
    6152                      .dwattr $C$DW$712, DW_AT_name("Flip_OTS")
    6153                      .dwattr $C$DW$712, DW_AT_TI_symbol_name("_Flip_OTS")
    6154                      .dwattr $C$DW$712, DW_AT_bit_offset(0x05), DW_AT_bit_size(0x01)
    6155                      .dwattr $C$DW$712, DW_AT_data_member_location[DW_OP_plus_uconst 0x0]
    6156                      .dwattr $C$DW$712, DW_AT_accessibility(DW_ACCESS_public)
    6157              $C$DW$713       .dwtag  DW_TAG_member
    6158                      .dwattr $C$DW$713, DW_AT_type(*$C$DW$T$34)
    6159                      .dwattr $C$DW$713, DW_AT_name("Reserved2")
    6160                      .dwattr $C$DW$713, DW_AT_TI_symbol_name("_Reserved2")
    6161                      .dwattr $C$DW$713, DW_AT_bit_offset(0x00), DW_AT_bit_size(0x05)
    6162                      .dwattr $C$DW$713, DW_AT_data_member_location[DW_OP_plus_uconst 0x0]
    6163                      .dwattr $C$DW$713, DW_AT_accessibility(DW_ACCESS_public)
    6164                      .dwendtag $C$DW$T$153
    6165              
    6166              
    6167              $C$DW$T$154     .dwtag  DW_TAG_structure_type
    6168                      .dwattr $C$DW$T$154, DW_AT_name("DRV8305_LS_GATE_DRIVER_CNTRL_REG_BITS")
    6169                      .dwattr $C$DW$T$154, DW_AT_byte_size(0x01)
    6170              $C$DW$714       .dwtag  DW_TAG_member
    6171                      .dwattr $C$DW$714, DW_AT_type(*$C$DW$T$34)
    6172                      .dwattr $C$DW$714, DW_AT_name("IDRIVEP_LS")
    6173                      .dwattr $C$DW$714, DW_AT_TI_symbol_name("_IDRIVEP_LS")
    6174                      .dwattr $C$DW$714, DW_AT_bit_offset(0x0c), DW_AT_bit_size(0x04)
    6175                      .dwattr $C$DW$714, DW_AT_data_member_location[DW_OP_plus_uconst 0x0]
    6176                      .dwattr $C$DW$714, DW_AT_accessibility(DW_ACCESS_public)
    6177              $C$DW$715       .dwtag  DW_TAG_member
    6178                      .dwattr $C$DW$715, DW_AT_type(*$C$DW$T$34)
    6179                      .dwattr $C$DW$715, DW_AT_name("IDRIVEN_LS")
    6180                      .dwattr $C$DW$715, DW_AT_TI_symbol_name("_IDRIVEN_LS")
    6181                      .dwattr $C$DW$715, DW_AT_bit_offset(0x08), DW_AT_bit_size(0x04)
    6182                      .dwattr $C$DW$715, DW_AT_data_member_location[DW_OP_plus_uconst 0x0]
    6183                      .dwattr $C$DW$715, DW_AT_accessibility(DW_ACCESS_public)
    6184              $C$DW$716       .dwtag  DW_TAG_member
    6185                      .dwattr $C$DW$716, DW_AT_type(*$C$DW$T$34)
    6186                      .dwattr $C$DW$716, DW_AT_name("TDRIVEP")
    6187                      .dwattr $C$DW$716, DW_AT_TI_symbol_name("_TDRIVEP")
    6188                      .dwattr $C$DW$716, DW_AT_bit_offset(0x06), DW_AT_bit_size(0x02)
    6189                      .dwattr $C$DW$716, DW_AT_data_member_location[DW_OP_plus_uconst 0x0]
    6190                      .dwattr $C$DW$716, DW_AT_accessibility(DW_ACCESS_public)
    6191              $C$DW$717       .dwtag  DW_TAG_member
    6192                      .dwattr $C$DW$717, DW_AT_type(*$C$DW$T$34)
    6193                      .dwattr $C$DW$717, DW_AT_name("Reserved")
    6194                      .dwattr $C$DW$717, DW_AT_TI_symbol_name("_Reserved")
TMS320C2000 Assembler PC v6.4.2 Thu Dec 14 15:27:05 2017

Tools Copyright (c) 1996-2015 Texas Instruments Incorporated
fsm_main.asm                                                         PAGE  116

    6195                      .dwattr $C$DW$717, DW_AT_bit_offset(0x05), DW_AT_bit_size(0x01)
    6196                      .dwattr $C$DW$717, DW_AT_data_member_location[DW_OP_plus_uconst 0x0]
    6197                      .dwattr $C$DW$717, DW_AT_accessibility(DW_ACCESS_public)
    6198              $C$DW$718       .dwtag  DW_TAG_member
    6199                      .dwattr $C$DW$718, DW_AT_type(*$C$DW$T$34)
    6200                      .dwattr $C$DW$718, DW_AT_name("Reserved2")
    6201                      .dwattr $C$DW$718, DW_AT_TI_symbol_name("_Reserved2")
    6202                      .dwattr $C$DW$718, DW_AT_bit_offset(0x00), DW_AT_bit_size(0x05)
    6203                      .dwattr $C$DW$718, DW_AT_data_member_location[DW_OP_plus_uconst 0x0]
    6204                      .dwattr $C$DW$718, DW_AT_accessibility(DW_ACCESS_public)
    6205                      .dwendtag $C$DW$T$154
    6206              
    6207              
    6208              $C$DW$T$155     .dwtag  DW_TAG_structure_type
    6209                      .dwattr $C$DW$T$155, DW_AT_name("DRV8305_OV_VDS_FAULTS_REG_BITS")
    6210                      .dwattr $C$DW$T$155, DW_AT_byte_size(0x01)
    6211              $C$DW$719       .dwtag  DW_TAG_member
    6212                      .dwattr $C$DW$719, DW_AT_type(*$C$DW$T$34)
    6213                      .dwattr $C$DW$719, DW_AT_name("SNS_A_OCP")
    6214                      .dwattr $C$DW$719, DW_AT_TI_symbol_name("_SNS_A_OCP")
    6215                      .dwattr $C$DW$719, DW_AT_bit_offset(0x0f), DW_AT_bit_size(0x01)
    6216                      .dwattr $C$DW$719, DW_AT_data_member_location[DW_OP_plus_uconst 0x0]
    6217                      .dwattr $C$DW$719, DW_AT_accessibility(DW_ACCESS_public)
    6218              $C$DW$720       .dwtag  DW_TAG_member
    6219                      .dwattr $C$DW$720, DW_AT_type(*$C$DW$T$34)
    6220                      .dwattr $C$DW$720, DW_AT_name("SNS_B_OCP")
    6221                      .dwattr $C$DW$720, DW_AT_TI_symbol_name("_SNS_B_OCP")
    6222                      .dwattr $C$DW$720, DW_AT_bit_offset(0x0e), DW_AT_bit_size(0x01)
    6223                      .dwattr $C$DW$720, DW_AT_data_member_location[DW_OP_plus_uconst 0x0]
    6224                      .dwattr $C$DW$720, DW_AT_accessibility(DW_ACCESS_public)
    6225              $C$DW$721       .dwtag  DW_TAG_member
    6226                      .dwattr $C$DW$721, DW_AT_type(*$C$DW$T$34)
    6227                      .dwattr $C$DW$721, DW_AT_name("SNS_C_OCP")
    6228                      .dwattr $C$DW$721, DW_AT_TI_symbol_name("_SNS_C_OCP")
    6229                      .dwattr $C$DW$721, DW_AT_bit_offset(0x0d), DW_AT_bit_size(0x01)
    6230                      .dwattr $C$DW$721, DW_AT_data_member_location[DW_OP_plus_uconst 0x0]
    6231                      .dwattr $C$DW$721, DW_AT_accessibility(DW_ACCESS_public)
    6232              $C$DW$722       .dwtag  DW_TAG_member
    6233                      .dwattr $C$DW$722, DW_AT_type(*$C$DW$T$34)
    6234                      .dwattr $C$DW$722, DW_AT_name("Rerserved")
    6235                      .dwattr $C$DW$722, DW_AT_TI_symbol_name("_Rerserved")
    6236                      .dwattr $C$DW$722, DW_AT_bit_offset(0x0b), DW_AT_bit_size(0x02)
    6237                      .dwattr $C$DW$722, DW_AT_data_member_location[DW_OP_plus_uconst 0x0]
    6238                      .dwattr $C$DW$722, DW_AT_accessibility(DW_ACCESS_public)
    6239              $C$DW$723       .dwtag  DW_TAG_member
    6240                      .dwattr $C$DW$723, DW_AT_type(*$C$DW$T$34)
    6241                      .dwattr $C$DW$723, DW_AT_name("FETLC_VDS")
    6242                      .dwattr $C$DW$723, DW_AT_TI_symbol_name("_FETLC_VDS")
    6243                      .dwattr $C$DW$723, DW_AT_bit_offset(0x0a), DW_AT_bit_size(0x01)
    6244                      .dwattr $C$DW$723, DW_AT_data_member_location[DW_OP_plus_uconst 0x0]
    6245                      .dwattr $C$DW$723, DW_AT_accessibility(DW_ACCESS_public)
    6246              $C$DW$724       .dwtag  DW_TAG_member
    6247                      .dwattr $C$DW$724, DW_AT_type(*$C$DW$T$34)
    6248                      .dwattr $C$DW$724, DW_AT_name("FETHC_VDS")
    6249                      .dwattr $C$DW$724, DW_AT_TI_symbol_name("_FETHC_VDS")
TMS320C2000 Assembler PC v6.4.2 Thu Dec 14 15:27:05 2017

Tools Copyright (c) 1996-2015 Texas Instruments Incorporated
fsm_main.asm                                                         PAGE  117

    6250                      .dwattr $C$DW$724, DW_AT_bit_offset(0x09), DW_AT_bit_size(0x01)
    6251                      .dwattr $C$DW$724, DW_AT_data_member_location[DW_OP_plus_uconst 0x0]
    6252                      .dwattr $C$DW$724, DW_AT_accessibility(DW_ACCESS_public)
    6253              $C$DW$725       .dwtag  DW_TAG_member
    6254                      .dwattr $C$DW$725, DW_AT_type(*$C$DW$T$34)
    6255                      .dwattr $C$DW$725, DW_AT_name("FETLB_VDS")
    6256                      .dwattr $C$DW$725, DW_AT_TI_symbol_name("_FETLB_VDS")
    6257                      .dwattr $C$DW$725, DW_AT_bit_offset(0x08), DW_AT_bit_size(0x01)
    6258                      .dwattr $C$DW$725, DW_AT_data_member_location[DW_OP_plus_uconst 0x0]
    6259                      .dwattr $C$DW$725, DW_AT_accessibility(DW_ACCESS_public)
    6260              $C$DW$726       .dwtag  DW_TAG_member
    6261                      .dwattr $C$DW$726, DW_AT_type(*$C$DW$T$34)
    6262                      .dwattr $C$DW$726, DW_AT_name("FETHB_VDS")
    6263                      .dwattr $C$DW$726, DW_AT_TI_symbol_name("_FETHB_VDS")
    6264                      .dwattr $C$DW$726, DW_AT_bit_offset(0x07), DW_AT_bit_size(0x01)
    6265                      .dwattr $C$DW$726, DW_AT_data_member_location[DW_OP_plus_uconst 0x0]
    6266                      .dwattr $C$DW$726, DW_AT_accessibility(DW_ACCESS_public)
    6267              $C$DW$727       .dwtag  DW_TAG_member
    6268                      .dwattr $C$DW$727, DW_AT_type(*$C$DW$T$34)
    6269                      .dwattr $C$DW$727, DW_AT_name("FETLA_VDS")
    6270                      .dwattr $C$DW$727, DW_AT_TI_symbol_name("_FETLA_VDS")
    6271                      .dwattr $C$DW$727, DW_AT_bit_offset(0x06), DW_AT_bit_size(0x01)
    6272                      .dwattr $C$DW$727, DW_AT_data_member_location[DW_OP_plus_uconst 0x0]
    6273                      .dwattr $C$DW$727, DW_AT_accessibility(DW_ACCESS_public)
    6274              $C$DW$728       .dwtag  DW_TAG_member
    6275                      .dwattr $C$DW$728, DW_AT_type(*$C$DW$T$34)
    6276                      .dwattr $C$DW$728, DW_AT_name("FETHA_VDS")
    6277                      .dwattr $C$DW$728, DW_AT_TI_symbol_name("_FETHA_VDS")
    6278                      .dwattr $C$DW$728, DW_AT_bit_offset(0x05), DW_AT_bit_size(0x01)
    6279                      .dwattr $C$DW$728, DW_AT_data_member_location[DW_OP_plus_uconst 0x0]
    6280                      .dwattr $C$DW$728, DW_AT_accessibility(DW_ACCESS_public)
    6281              $C$DW$729       .dwtag  DW_TAG_member
    6282                      .dwattr $C$DW$729, DW_AT_type(*$C$DW$T$34)
    6283                      .dwattr $C$DW$729, DW_AT_name("Reserved2")
    6284                      .dwattr $C$DW$729, DW_AT_TI_symbol_name("_Reserved2")
    6285                      .dwattr $C$DW$729, DW_AT_bit_offset(0x00), DW_AT_bit_size(0x05)
    6286                      .dwattr $C$DW$729, DW_AT_data_member_location[DW_OP_plus_uconst 0x0]
    6287                      .dwattr $C$DW$729, DW_AT_accessibility(DW_ACCESS_public)
    6288                      .dwendtag $C$DW$T$155
    6289              
    6290              
    6291              $C$DW$T$156     .dwtag  DW_TAG_structure_type
    6292                      .dwattr $C$DW$T$156, DW_AT_name("DRV8305_SHUNT_AMP_CNTRL_REG_BITS")
    6293                      .dwattr $C$DW$T$156, DW_AT_byte_size(0x01)
    6294              $C$DW$730       .dwtag  DW_TAG_member
    6295                      .dwattr $C$DW$730, DW_AT_type(*$C$DW$T$34)
    6296                      .dwattr $C$DW$730, DW_AT_name("GAIN_CS1")
    6297                      .dwattr $C$DW$730, DW_AT_TI_symbol_name("_GAIN_CS1")
    6298                      .dwattr $C$DW$730, DW_AT_bit_offset(0x0e), DW_AT_bit_size(0x02)
    6299                      .dwattr $C$DW$730, DW_AT_data_member_location[DW_OP_plus_uconst 0x0]
    6300                      .dwattr $C$DW$730, DW_AT_accessibility(DW_ACCESS_public)
    6301              $C$DW$731       .dwtag  DW_TAG_member
    6302                      .dwattr $C$DW$731, DW_AT_type(*$C$DW$T$34)
    6303                      .dwattr $C$DW$731, DW_AT_name("GAIN_CS2")
    6304                      .dwattr $C$DW$731, DW_AT_TI_symbol_name("_GAIN_CS2")
TMS320C2000 Assembler PC v6.4.2 Thu Dec 14 15:27:05 2017

Tools Copyright (c) 1996-2015 Texas Instruments Incorporated
fsm_main.asm                                                         PAGE  118

    6305                      .dwattr $C$DW$731, DW_AT_bit_offset(0x0c), DW_AT_bit_size(0x02)
    6306                      .dwattr $C$DW$731, DW_AT_data_member_location[DW_OP_plus_uconst 0x0]
    6307                      .dwattr $C$DW$731, DW_AT_accessibility(DW_ACCESS_public)
    6308              $C$DW$732       .dwtag  DW_TAG_member
    6309                      .dwattr $C$DW$732, DW_AT_type(*$C$DW$T$34)
    6310                      .dwattr $C$DW$732, DW_AT_name("GAIN_CS3")
    6311                      .dwattr $C$DW$732, DW_AT_TI_symbol_name("_GAIN_CS3")
    6312                      .dwattr $C$DW$732, DW_AT_bit_offset(0x0a), DW_AT_bit_size(0x02)
    6313                      .dwattr $C$DW$732, DW_AT_data_member_location[DW_OP_plus_uconst 0x0]
    6314                      .dwattr $C$DW$732, DW_AT_accessibility(DW_ACCESS_public)
    6315              $C$DW$733       .dwtag  DW_TAG_member
    6316                      .dwattr $C$DW$733, DW_AT_type(*$C$DW$T$34)
    6317                      .dwattr $C$DW$733, DW_AT_name("CS_BLANK")
    6318                      .dwattr $C$DW$733, DW_AT_TI_symbol_name("_CS_BLANK")
    6319                      .dwattr $C$DW$733, DW_AT_bit_offset(0x08), DW_AT_bit_size(0x02)
    6320                      .dwattr $C$DW$733, DW_AT_data_member_location[DW_OP_plus_uconst 0x0]
    6321                      .dwattr $C$DW$733, DW_AT_accessibility(DW_ACCESS_public)
    6322              $C$DW$734       .dwtag  DW_TAG_member
    6323                      .dwattr $C$DW$734, DW_AT_type(*$C$DW$T$34)
    6324                      .dwattr $C$DW$734, DW_AT_name("DC_CAL_CH1")
    6325                      .dwattr $C$DW$734, DW_AT_TI_symbol_name("_DC_CAL_CH1")
    6326                      .dwattr $C$DW$734, DW_AT_bit_offset(0x07), DW_AT_bit_size(0x01)
    6327                      .dwattr $C$DW$734, DW_AT_data_member_location[DW_OP_plus_uconst 0x0]
    6328                      .dwattr $C$DW$734, DW_AT_accessibility(DW_ACCESS_public)
    6329              $C$DW$735       .dwtag  DW_TAG_member
    6330                      .dwattr $C$DW$735, DW_AT_type(*$C$DW$T$34)
    6331                      .dwattr $C$DW$735, DW_AT_name("DC_CAL_CH2")
    6332                      .dwattr $C$DW$735, DW_AT_TI_symbol_name("_DC_CAL_CH2")
    6333                      .dwattr $C$DW$735, DW_AT_bit_offset(0x06), DW_AT_bit_size(0x01)
    6334                      .dwattr $C$DW$735, DW_AT_data_member_location[DW_OP_plus_uconst 0x0]
    6335                      .dwattr $C$DW$735, DW_AT_accessibility(DW_ACCESS_public)
    6336              $C$DW$736       .dwtag  DW_TAG_member
    6337                      .dwattr $C$DW$736, DW_AT_type(*$C$DW$T$34)
    6338                      .dwattr $C$DW$736, DW_AT_name("DC_CAL_CH3")
    6339                      .dwattr $C$DW$736, DW_AT_TI_symbol_name("_DC_CAL_CH3")
    6340                      .dwattr $C$DW$736, DW_AT_bit_offset(0x05), DW_AT_bit_size(0x01)
    6341                      .dwattr $C$DW$736, DW_AT_data_member_location[DW_OP_plus_uconst 0x0]
    6342                      .dwattr $C$DW$736, DW_AT_accessibility(DW_ACCESS_public)
    6343              $C$DW$737       .dwtag  DW_TAG_member
    6344                      .dwattr $C$DW$737, DW_AT_type(*$C$DW$T$34)
    6345                      .dwattr $C$DW$737, DW_AT_name("Reserved2")
    6346                      .dwattr $C$DW$737, DW_AT_TI_symbol_name("_Reserved2")
    6347                      .dwattr $C$DW$737, DW_AT_bit_offset(0x00), DW_AT_bit_size(0x05)
    6348                      .dwattr $C$DW$737, DW_AT_data_member_location[DW_OP_plus_uconst 0x0]
    6349                      .dwattr $C$DW$737, DW_AT_accessibility(DW_ACCESS_public)
    6350                      .dwendtag $C$DW$T$156
    6351              
    6352              
    6353              $C$DW$T$157     .dwtag  DW_TAG_structure_type
    6354                      .dwattr $C$DW$T$157, DW_AT_name("DRV8305_VDS_SNS_CNTRL_REG_BITS")
    6355                      .dwattr $C$DW$T$157, DW_AT_byte_size(0x01)
    6356              $C$DW$738       .dwtag  DW_TAG_member
    6357                      .dwattr $C$DW$738, DW_AT_type(*$C$DW$T$34)
    6358                      .dwattr $C$DW$738, DW_AT_name("VDS_MODE")
    6359                      .dwattr $C$DW$738, DW_AT_TI_symbol_name("_VDS_MODE")
TMS320C2000 Assembler PC v6.4.2 Thu Dec 14 15:27:05 2017

Tools Copyright (c) 1996-2015 Texas Instruments Incorporated
fsm_main.asm                                                         PAGE  119

    6360                      .dwattr $C$DW$738, DW_AT_bit_offset(0x0d), DW_AT_bit_size(0x03)
    6361                      .dwattr $C$DW$738, DW_AT_data_member_location[DW_OP_plus_uconst 0x0]
    6362                      .dwattr $C$DW$738, DW_AT_accessibility(DW_ACCESS_public)
    6363              $C$DW$739       .dwtag  DW_TAG_member
    6364                      .dwattr $C$DW$739, DW_AT_type(*$C$DW$T$34)
    6365                      .dwattr $C$DW$739, DW_AT_name("VDS_LEVEL")
    6366                      .dwattr $C$DW$739, DW_AT_TI_symbol_name("_VDS_LEVEL")
    6367                      .dwattr $C$DW$739, DW_AT_bit_offset(0x08), DW_AT_bit_size(0x05)
    6368                      .dwattr $C$DW$739, DW_AT_data_member_location[DW_OP_plus_uconst 0x0]
    6369                      .dwattr $C$DW$739, DW_AT_accessibility(DW_ACCESS_public)
    6370              $C$DW$740       .dwtag  DW_TAG_member
    6371                      .dwattr $C$DW$740, DW_AT_type(*$C$DW$T$34)
    6372                      .dwattr $C$DW$740, DW_AT_name("Reserved")
    6373                      .dwattr $C$DW$740, DW_AT_TI_symbol_name("_Reserved")
    6374                      .dwattr $C$DW$740, DW_AT_bit_offset(0x05), DW_AT_bit_size(0x03)
    6375                      .dwattr $C$DW$740, DW_AT_data_member_location[DW_OP_plus_uconst 0x0]
    6376                      .dwattr $C$DW$740, DW_AT_accessibility(DW_ACCESS_public)
    6377              $C$DW$741       .dwtag  DW_TAG_member
    6378                      .dwattr $C$DW$741, DW_AT_type(*$C$DW$T$34)
    6379                      .dwattr $C$DW$741, DW_AT_name("Reserved2")
    6380                      .dwattr $C$DW$741, DW_AT_TI_symbol_name("_Reserved2")
    6381                      .dwattr $C$DW$741, DW_AT_bit_offset(0x00), DW_AT_bit_size(0x05)
    6382                      .dwattr $C$DW$741, DW_AT_data_member_location[DW_OP_plus_uconst 0x0]
    6383                      .dwattr $C$DW$741, DW_AT_accessibility(DW_ACCESS_public)
    6384                      .dwendtag $C$DW$T$157
    6385              
    6386              
    6387              $C$DW$T$158     .dwtag  DW_TAG_structure_type
    6388                      .dwattr $C$DW$T$158, DW_AT_name("DRV8305_VREG_CNTRL_REG_BITS")
    6389                      .dwattr $C$DW$T$158, DW_AT_byte_size(0x01)
    6390              $C$DW$742       .dwtag  DW_TAG_member
    6391                      .dwattr $C$DW$742, DW_AT_type(*$C$DW$T$34)
    6392                      .dwattr $C$DW$742, DW_AT_name("VREG_UV_LEVEL")
    6393                      .dwattr $C$DW$742, DW_AT_TI_symbol_name("_VREG_UV_LEVEL")
    6394                      .dwattr $C$DW$742, DW_AT_bit_offset(0x0e), DW_AT_bit_size(0x02)
    6395                      .dwattr $C$DW$742, DW_AT_data_member_location[DW_OP_plus_uconst 0x0]
    6396                      .dwattr $C$DW$742, DW_AT_accessibility(DW_ACCESS_public)
    6397              $C$DW$743       .dwtag  DW_TAG_member
    6398                      .dwattr $C$DW$743, DW_AT_type(*$C$DW$T$34)
    6399                      .dwattr $C$DW$743, DW_AT_name("DIS_VREG_PWRGD")
    6400                      .dwattr $C$DW$743, DW_AT_TI_symbol_name("_DIS_VREG_PWRGD")
    6401                      .dwattr $C$DW$743, DW_AT_bit_offset(0x0d), DW_AT_bit_size(0x01)
    6402                      .dwattr $C$DW$743, DW_AT_data_member_location[DW_OP_plus_uconst 0x0]
    6403                      .dwattr $C$DW$743, DW_AT_accessibility(DW_ACCESS_public)
    6404              $C$DW$744       .dwtag  DW_TAG_member
    6405                      .dwattr $C$DW$744, DW_AT_type(*$C$DW$T$34)
    6406                      .dwattr $C$DW$744, DW_AT_name("SLEEP_DLY")
    6407                      .dwattr $C$DW$744, DW_AT_TI_symbol_name("_SLEEP_DLY")
    6408                      .dwattr $C$DW$744, DW_AT_bit_offset(0x0b), DW_AT_bit_size(0x02)
    6409                      .dwattr $C$DW$744, DW_AT_data_member_location[DW_OP_plus_uconst 0x0]
    6410                      .dwattr $C$DW$744, DW_AT_accessibility(DW_ACCESS_public)
    6411              $C$DW$745       .dwtag  DW_TAG_member
    6412                      .dwattr $C$DW$745, DW_AT_type(*$C$DW$T$34)
    6413                      .dwattr $C$DW$745, DW_AT_name("Reserved")
    6414                      .dwattr $C$DW$745, DW_AT_TI_symbol_name("_Reserved")
TMS320C2000 Assembler PC v6.4.2 Thu Dec 14 15:27:05 2017

Tools Copyright (c) 1996-2015 Texas Instruments Incorporated
fsm_main.asm                                                         PAGE  120

    6415                      .dwattr $C$DW$745, DW_AT_bit_offset(0x08), DW_AT_bit_size(0x03)
    6416                      .dwattr $C$DW$745, DW_AT_data_member_location[DW_OP_plus_uconst 0x0]
    6417                      .dwattr $C$DW$745, DW_AT_accessibility(DW_ACCESS_public)
    6418              $C$DW$746       .dwtag  DW_TAG_member
    6419                      .dwattr $C$DW$746, DW_AT_type(*$C$DW$T$34)
    6420                      .dwattr $C$DW$746, DW_AT_name("VREF_SCALING")
    6421                      .dwattr $C$DW$746, DW_AT_TI_symbol_name("_VREF_SCALING")
    6422                      .dwattr $C$DW$746, DW_AT_bit_offset(0x06), DW_AT_bit_size(0x02)
    6423                      .dwattr $C$DW$746, DW_AT_data_member_location[DW_OP_plus_uconst 0x0]
    6424                      .dwattr $C$DW$746, DW_AT_accessibility(DW_ACCESS_public)
    6425              $C$DW$747       .dwtag  DW_TAG_member
    6426                      .dwattr $C$DW$747, DW_AT_type(*$C$DW$T$34)
    6427                      .dwattr $C$DW$747, DW_AT_name("Reserved2")
    6428                      .dwattr $C$DW$747, DW_AT_TI_symbol_name("_Reserved2")
    6429                      .dwattr $C$DW$747, DW_AT_bit_offset(0x05), DW_AT_bit_size(0x01)
    6430                      .dwattr $C$DW$747, DW_AT_data_member_location[DW_OP_plus_uconst 0x0]
    6431                      .dwattr $C$DW$747, DW_AT_accessibility(DW_ACCESS_public)
    6432              $C$DW$748       .dwtag  DW_TAG_member
    6433                      .dwattr $C$DW$748, DW_AT_type(*$C$DW$T$34)
    6434                      .dwattr $C$DW$748, DW_AT_name("Reserved3")
    6435                      .dwattr $C$DW$748, DW_AT_TI_symbol_name("_Reserved3")
    6436                      .dwattr $C$DW$748, DW_AT_bit_offset(0x00), DW_AT_bit_size(0x05)
    6437                      .dwattr $C$DW$748, DW_AT_data_member_location[DW_OP_plus_uconst 0x0]
    6438                      .dwattr $C$DW$748, DW_AT_accessibility(DW_ACCESS_public)
    6439                      .dwendtag $C$DW$T$158
    6440              
    6441              
    6442              $C$DW$T$159     .dwtag  DW_TAG_structure_type
    6443                      .dwattr $C$DW$T$159, DW_AT_name("DRV8305_WWD_REG_BITS")
    6444                      .dwattr $C$DW$T$159, DW_AT_byte_size(0x01)
    6445              $C$DW$749       .dwtag  DW_TAG_member
    6446                      .dwattr $C$DW$749, DW_AT_type(*$C$DW$T$34)
    6447                      .dwattr $C$DW$749, DW_AT_name("OTW")
    6448                      .dwattr $C$DW$749, DW_AT_TI_symbol_name("_OTW")
    6449                      .dwattr $C$DW$749, DW_AT_bit_offset(0x0f), DW_AT_bit_size(0x01)
    6450                      .dwattr $C$DW$749, DW_AT_data_member_location[DW_OP_plus_uconst 0x0]
    6451                      .dwattr $C$DW$749, DW_AT_accessibility(DW_ACCESS_public)
    6452              $C$DW$750       .dwtag  DW_TAG_member
    6453                      .dwattr $C$DW$750, DW_AT_type(*$C$DW$T$34)
    6454                      .dwattr $C$DW$750, DW_AT_name("TMP_FLG3")
    6455                      .dwattr $C$DW$750, DW_AT_TI_symbol_name("_TMP_FLG3")
    6456                      .dwattr $C$DW$750, DW_AT_bit_offset(0x0e), DW_AT_bit_size(0x01)
    6457                      .dwattr $C$DW$750, DW_AT_data_member_location[DW_OP_plus_uconst 0x0]
    6458                      .dwattr $C$DW$750, DW_AT_accessibility(DW_ACCESS_public)
    6459              $C$DW$751       .dwtag  DW_TAG_member
    6460                      .dwattr $C$DW$751, DW_AT_type(*$C$DW$T$34)
    6461                      .dwattr $C$DW$751, DW_AT_name("TMP_FLG2")
    6462                      .dwattr $C$DW$751, DW_AT_TI_symbol_name("_TMP_FLG2")
    6463                      .dwattr $C$DW$751, DW_AT_bit_offset(0x0d), DW_AT_bit_size(0x01)
    6464                      .dwattr $C$DW$751, DW_AT_data_member_location[DW_OP_plus_uconst 0x0]
    6465                      .dwattr $C$DW$751, DW_AT_accessibility(DW_ACCESS_public)
    6466              $C$DW$752       .dwtag  DW_TAG_member
    6467                      .dwattr $C$DW$752, DW_AT_type(*$C$DW$T$34)
    6468                      .dwattr $C$DW$752, DW_AT_name("TMP_FLG1")
    6469                      .dwattr $C$DW$752, DW_AT_TI_symbol_name("_TMP_FLG1")
TMS320C2000 Assembler PC v6.4.2 Thu Dec 14 15:27:05 2017

Tools Copyright (c) 1996-2015 Texas Instruments Incorporated
fsm_main.asm                                                         PAGE  121

    6470                      .dwattr $C$DW$752, DW_AT_bit_offset(0x0c), DW_AT_bit_size(0x01)
    6471                      .dwattr $C$DW$752, DW_AT_data_member_location[DW_OP_plus_uconst 0x0]
    6472                      .dwattr $C$DW$752, DW_AT_accessibility(DW_ACCESS_public)
    6473              $C$DW$753       .dwtag  DW_TAG_member
    6474                      .dwattr $C$DW$753, DW_AT_type(*$C$DW$T$34)
    6475                      .dwattr $C$DW$753, DW_AT_name("VCHP_UVFL")
    6476                      .dwattr $C$DW$753, DW_AT_TI_symbol_name("_VCHP_UVFL")
    6477                      .dwattr $C$DW$753, DW_AT_bit_offset(0x0b), DW_AT_bit_size(0x01)
    6478                      .dwattr $C$DW$753, DW_AT_data_member_location[DW_OP_plus_uconst 0x0]
    6479                      .dwattr $C$DW$753, DW_AT_accessibility(DW_ACCESS_public)
    6480              $C$DW$754       .dwtag  DW_TAG_member
    6481                      .dwattr $C$DW$754, DW_AT_type(*$C$DW$T$34)
    6482                      .dwattr $C$DW$754, DW_AT_name("VDS_STATUS")
    6483                      .dwattr $C$DW$754, DW_AT_TI_symbol_name("_VDS_STATUS")
    6484                      .dwattr $C$DW$754, DW_AT_bit_offset(0x0a), DW_AT_bit_size(0x01)
    6485                      .dwattr $C$DW$754, DW_AT_data_member_location[DW_OP_plus_uconst 0x0]
    6486                      .dwattr $C$DW$754, DW_AT_accessibility(DW_ACCESS_public)
    6487              $C$DW$755       .dwtag  DW_TAG_member
    6488                      .dwattr $C$DW$755, DW_AT_type(*$C$DW$T$34)
    6489                      .dwattr $C$DW$755, DW_AT_name("PVDD_OVFL")
    6490                      .dwattr $C$DW$755, DW_AT_TI_symbol_name("_PVDD_OVFL")
    6491                      .dwattr $C$DW$755, DW_AT_bit_offset(0x09), DW_AT_bit_size(0x01)
    6492                      .dwattr $C$DW$755, DW_AT_data_member_location[DW_OP_plus_uconst 0x0]
    6493                      .dwattr $C$DW$755, DW_AT_accessibility(DW_ACCESS_public)
    6494              $C$DW$756       .dwtag  DW_TAG_member
    6495                      .dwattr $C$DW$756, DW_AT_type(*$C$DW$T$34)
    6496                      .dwattr $C$DW$756, DW_AT_name("PVDD_UVFL")
    6497                      .dwattr $C$DW$756, DW_AT_TI_symbol_name("_PVDD_UVFL")
    6498                      .dwattr $C$DW$756, DW_AT_bit_offset(0x08), DW_AT_bit_size(0x01)
    6499                      .dwattr $C$DW$756, DW_AT_data_member_location[DW_OP_plus_uconst 0x0]
    6500                      .dwattr $C$DW$756, DW_AT_accessibility(DW_ACCESS_public)
    6501              $C$DW$757       .dwtag  DW_TAG_member
    6502                      .dwattr $C$DW$757, DW_AT_type(*$C$DW$T$34)
    6503                      .dwattr $C$DW$757, DW_AT_name("TMP_FLG4")
    6504                      .dwattr $C$DW$757, DW_AT_TI_symbol_name("_TMP_FLG4")
    6505                      .dwattr $C$DW$757, DW_AT_bit_offset(0x07), DW_AT_bit_size(0x01)
    6506                      .dwattr $C$DW$757, DW_AT_data_member_location[DW_OP_plus_uconst 0x0]
    6507                      .dwattr $C$DW$757, DW_AT_accessibility(DW_ACCESS_public)
    6508              $C$DW$758       .dwtag  DW_TAG_member
    6509                      .dwattr $C$DW$758, DW_AT_type(*$C$DW$T$34)
    6510                      .dwattr $C$DW$758, DW_AT_name("Reserve")
    6511                      .dwattr $C$DW$758, DW_AT_TI_symbol_name("_Reserve")
    6512                      .dwattr $C$DW$758, DW_AT_bit_offset(0x06), DW_AT_bit_size(0x01)
    6513                      .dwattr $C$DW$758, DW_AT_data_member_location[DW_OP_plus_uconst 0x0]
    6514                      .dwattr $C$DW$758, DW_AT_accessibility(DW_ACCESS_public)
    6515              $C$DW$759       .dwtag  DW_TAG_member
    6516                      .dwattr $C$DW$759, DW_AT_type(*$C$DW$T$34)
    6517                      .dwattr $C$DW$759, DW_AT_name("FAULT")
    6518                      .dwattr $C$DW$759, DW_AT_TI_symbol_name("_FAULT")
    6519                      .dwattr $C$DW$759, DW_AT_bit_offset(0x05), DW_AT_bit_size(0x01)
    6520                      .dwattr $C$DW$759, DW_AT_data_member_location[DW_OP_plus_uconst 0x0]
    6521                      .dwattr $C$DW$759, DW_AT_accessibility(DW_ACCESS_public)
    6522              $C$DW$760       .dwtag  DW_TAG_member
    6523                      .dwattr $C$DW$760, DW_AT_type(*$C$DW$T$34)
    6524                      .dwattr $C$DW$760, DW_AT_name("Reserved2")
TMS320C2000 Assembler PC v6.4.2 Thu Dec 14 15:27:05 2017

Tools Copyright (c) 1996-2015 Texas Instruments Incorporated
fsm_main.asm                                                         PAGE  122

    6525                      .dwattr $C$DW$760, DW_AT_TI_symbol_name("_Reserved2")
    6526                      .dwattr $C$DW$760, DW_AT_bit_offset(0x00), DW_AT_bit_size(0x05)
    6527                      .dwattr $C$DW$760, DW_AT_data_member_location[DW_OP_plus_uconst 0x0]
    6528                      .dwattr $C$DW$760, DW_AT_accessibility(DW_ACCESS_public)
    6529                      .dwendtag $C$DW$T$159
    6530              
    6531              
    6532              $C$DW$T$160     .dwtag  DW_TAG_structure_type
    6533                      .dwattr $C$DW$T$160, DW_AT_name("EPWMXLINK_BITS")
    6534                      .dwattr $C$DW$T$160, DW_AT_byte_size(0x02)
    6535              $C$DW$761       .dwtag  DW_TAG_member
    6536                      .dwattr $C$DW$761, DW_AT_type(*$C$DW$T$34)
    6537                      .dwattr $C$DW$761, DW_AT_name("TBPRDLINK")
    6538                      .dwattr $C$DW$761, DW_AT_TI_symbol_name("_TBPRDLINK")
    6539                      .dwattr $C$DW$761, DW_AT_bit_offset(0x0c), DW_AT_bit_size(0x04)
    6540                      .dwattr $C$DW$761, DW_AT_data_member_location[DW_OP_plus_uconst 0x0]
    6541                      .dwattr $C$DW$761, DW_AT_accessibility(DW_ACCESS_public)
    6542              $C$DW$762       .dwtag  DW_TAG_member
    6543                      .dwattr $C$DW$762, DW_AT_type(*$C$DW$T$34)
    6544                      .dwattr $C$DW$762, DW_AT_name("CMPALINK")
    6545                      .dwattr $C$DW$762, DW_AT_TI_symbol_name("_CMPALINK")
    6546                      .dwattr $C$DW$762, DW_AT_bit_offset(0x08), DW_AT_bit_size(0x04)
    6547                      .dwattr $C$DW$762, DW_AT_data_member_location[DW_OP_plus_uconst 0x0]
    6548                      .dwattr $C$DW$762, DW_AT_accessibility(DW_ACCESS_public)
    6549              $C$DW$763       .dwtag  DW_TAG_member
    6550                      .dwattr $C$DW$763, DW_AT_type(*$C$DW$T$34)
    6551                      .dwattr $C$DW$763, DW_AT_name("CMPBLINK")
    6552                      .dwattr $C$DW$763, DW_AT_TI_symbol_name("_CMPBLINK")
    6553                      .dwattr $C$DW$763, DW_AT_bit_offset(0x04), DW_AT_bit_size(0x04)
    6554                      .dwattr $C$DW$763, DW_AT_data_member_location[DW_OP_plus_uconst 0x0]
    6555                      .dwattr $C$DW$763, DW_AT_accessibility(DW_ACCESS_public)
    6556              $C$DW$764       .dwtag  DW_TAG_member
    6557                      .dwattr $C$DW$764, DW_AT_type(*$C$DW$T$34)
    6558                      .dwattr $C$DW$764, DW_AT_name("CMPCLINK")
    6559                      .dwattr $C$DW$764, DW_AT_TI_symbol_name("_CMPCLINK")
    6560                      .dwattr $C$DW$764, DW_AT_bit_offset(0x00), DW_AT_bit_size(0x04)
    6561                      .dwattr $C$DW$764, DW_AT_data_member_location[DW_OP_plus_uconst 0x0]
    6562                      .dwattr $C$DW$764, DW_AT_accessibility(DW_ACCESS_public)
    6563              $C$DW$765       .dwtag  DW_TAG_member
    6564                      .dwattr $C$DW$765, DW_AT_type(*$C$DW$T$34)
    6565                      .dwattr $C$DW$765, DW_AT_name("CMPDLINK")
    6566                      .dwattr $C$DW$765, DW_AT_TI_symbol_name("_CMPDLINK")
    6567                      .dwattr $C$DW$765, DW_AT_bit_offset(0x0c), DW_AT_bit_size(0x04)
    6568                      .dwattr $C$DW$765, DW_AT_data_member_location[DW_OP_plus_uconst 0x1]
    6569                      .dwattr $C$DW$765, DW_AT_accessibility(DW_ACCESS_public)
    6570              $C$DW$766       .dwtag  DW_TAG_member
    6571                      .dwattr $C$DW$766, DW_AT_type(*$C$DW$T$34)
    6572                      .dwattr $C$DW$766, DW_AT_name("rsvd1")
    6573                      .dwattr $C$DW$766, DW_AT_TI_symbol_name("_rsvd1")
    6574                      .dwattr $C$DW$766, DW_AT_bit_offset(0x04), DW_AT_bit_size(0x08)
    6575                      .dwattr $C$DW$766, DW_AT_data_member_location[DW_OP_plus_uconst 0x1]
    6576                      .dwattr $C$DW$766, DW_AT_accessibility(DW_ACCESS_public)
    6577              $C$DW$767       .dwtag  DW_TAG_member
    6578                      .dwattr $C$DW$767, DW_AT_type(*$C$DW$T$34)
    6579                      .dwattr $C$DW$767, DW_AT_name("GLDCTL2LINK")
TMS320C2000 Assembler PC v6.4.2 Thu Dec 14 15:27:05 2017

Tools Copyright (c) 1996-2015 Texas Instruments Incorporated
fsm_main.asm                                                         PAGE  123

    6580                      .dwattr $C$DW$767, DW_AT_TI_symbol_name("_GLDCTL2LINK")
    6581                      .dwattr $C$DW$767, DW_AT_bit_offset(0x00), DW_AT_bit_size(0x04)
    6582                      .dwattr $C$DW$767, DW_AT_data_member_location[DW_OP_plus_uconst 0x1]
    6583                      .dwattr $C$DW$767, DW_AT_accessibility(DW_ACCESS_public)
    6584                      .dwendtag $C$DW$T$160
    6585              
    6586              
    6587              $C$DW$T$161     .dwtag  DW_TAG_union_type
    6588                      .dwattr $C$DW$T$161, DW_AT_name("EPWMXLINK_REG")
    6589                      .dwattr $C$DW$T$161, DW_AT_byte_size(0x02)
    6590              $C$DW$768       .dwtag  DW_TAG_member
    6591                      .dwattr $C$DW$768, DW_AT_type(*$C$DW$T$20)
    6592                      .dwattr $C$DW$768, DW_AT_name("all")
    6593                      .dwattr $C$DW$768, DW_AT_TI_symbol_name("_all")
    6594                      .dwattr $C$DW$768, DW_AT_data_member_location[DW_OP_plus_uconst 0x0]
    6595                      .dwattr $C$DW$768, DW_AT_accessibility(DW_ACCESS_public)
    6596              $C$DW$769       .dwtag  DW_TAG_member
    6597                      .dwattr $C$DW$769, DW_AT_type(*$C$DW$T$160)
    6598                      .dwattr $C$DW$769, DW_AT_name("bit")
    6599                      .dwattr $C$DW$769, DW_AT_TI_symbol_name("_bit")
    6600                      .dwattr $C$DW$769, DW_AT_data_member_location[DW_OP_plus_uconst 0x0]
    6601                      .dwattr $C$DW$769, DW_AT_accessibility(DW_ACCESS_public)
    6602                      .dwendtag $C$DW$T$161
    6603              
    6604              
    6605              $C$DW$T$171     .dwtag  DW_TAG_structure_type
    6606                      .dwattr $C$DW$T$171, DW_AT_name("EPWM_REGS")
    6607                      .dwattr $C$DW$T$171, DW_AT_byte_size(0x100)
    6608              $C$DW$770       .dwtag  DW_TAG_member
    6609                      .dwattr $C$DW$770, DW_AT_type(*$C$DW$T$247)
    6610                      .dwattr $C$DW$770, DW_AT_name("TBCTL")
    6611                      .dwattr $C$DW$770, DW_AT_TI_symbol_name("_TBCTL")
    6612                      .dwattr $C$DW$770, DW_AT_data_member_location[DW_OP_plus_uconst 0x0]
    6613                      .dwattr $C$DW$770, DW_AT_accessibility(DW_ACCESS_public)
    6614              $C$DW$771       .dwtag  DW_TAG_member
    6615                      .dwattr $C$DW$771, DW_AT_type(*$C$DW$T$245)
    6616                      .dwattr $C$DW$771, DW_AT_name("TBCTL2")
    6617                      .dwattr $C$DW$771, DW_AT_TI_symbol_name("_TBCTL2")
    6618                      .dwattr $C$DW$771, DW_AT_data_member_location[DW_OP_plus_uconst 0x1]
    6619                      .dwattr $C$DW$771, DW_AT_accessibility(DW_ACCESS_public)
    6620              $C$DW$772       .dwtag  DW_TAG_member
    6621                      .dwattr $C$DW$772, DW_AT_type(*$C$DW$T$162)
    6622                      .dwattr $C$DW$772, DW_AT_name("rsvd1")
    6623                      .dwattr $C$DW$772, DW_AT_TI_symbol_name("_rsvd1")
    6624                      .dwattr $C$DW$772, DW_AT_data_member_location[DW_OP_plus_uconst 0x2]
    6625                      .dwattr $C$DW$772, DW_AT_accessibility(DW_ACCESS_public)
    6626              $C$DW$773       .dwtag  DW_TAG_member
    6627                      .dwattr $C$DW$773, DW_AT_type(*$C$DW$T$34)
    6628                      .dwattr $C$DW$773, DW_AT_name("TBCTR")
    6629                      .dwattr $C$DW$773, DW_AT_TI_symbol_name("_TBCTR")
    6630                      .dwattr $C$DW$773, DW_AT_data_member_location[DW_OP_plus_uconst 0x4]
    6631                      .dwattr $C$DW$773, DW_AT_accessibility(DW_ACCESS_public)
    6632              $C$DW$774       .dwtag  DW_TAG_member
    6633                      .dwattr $C$DW$774, DW_AT_type(*$C$DW$T$251)
    6634                      .dwattr $C$DW$774, DW_AT_name("TBSTS")
TMS320C2000 Assembler PC v6.4.2 Thu Dec 14 15:27:05 2017

Tools Copyright (c) 1996-2015 Texas Instruments Incorporated
fsm_main.asm                                                         PAGE  124

    6635                      .dwattr $C$DW$774, DW_AT_TI_symbol_name("_TBSTS")
    6636                      .dwattr $C$DW$774, DW_AT_data_member_location[DW_OP_plus_uconst 0x5]
    6637                      .dwattr $C$DW$774, DW_AT_accessibility(DW_ACCESS_public)
    6638              $C$DW$775       .dwtag  DW_TAG_member
    6639                      .dwattr $C$DW$775, DW_AT_type(*$C$DW$T$162)
    6640                      .dwattr $C$DW$775, DW_AT_name("rsvd2")
    6641                      .dwattr $C$DW$775, DW_AT_TI_symbol_name("_rsvd2")
    6642                      .dwattr $C$DW$775, DW_AT_data_member_location[DW_OP_plus_uconst 0x6]
    6643                      .dwattr $C$DW$775, DW_AT_accessibility(DW_ACCESS_public)
    6644              $C$DW$776       .dwtag  DW_TAG_member
    6645                      .dwattr $C$DW$776, DW_AT_type(*$C$DW$T$118)
    6646                      .dwattr $C$DW$776, DW_AT_name("CMPCTL")
    6647                      .dwattr $C$DW$776, DW_AT_TI_symbol_name("_CMPCTL")
    6648                      .dwattr $C$DW$776, DW_AT_data_member_location[DW_OP_plus_uconst 0x8]
    6649                      .dwattr $C$DW$776, DW_AT_accessibility(DW_ACCESS_public)
    6650              $C$DW$777       .dwtag  DW_TAG_member
    6651                      .dwattr $C$DW$777, DW_AT_type(*$C$DW$T$116)
    6652                      .dwattr $C$DW$777, DW_AT_name("CMPCTL2")
    6653                      .dwattr $C$DW$777, DW_AT_TI_symbol_name("_CMPCTL2")
    6654                      .dwattr $C$DW$777, DW_AT_data_member_location[DW_OP_plus_uconst 0x9]
    6655                      .dwattr $C$DW$777, DW_AT_accessibility(DW_ACCESS_public)
    6656              $C$DW$778       .dwtag  DW_TAG_member
    6657                      .dwattr $C$DW$778, DW_AT_type(*$C$DW$T$162)
    6658                      .dwattr $C$DW$778, DW_AT_name("rsvd3")
    6659                      .dwattr $C$DW$778, DW_AT_TI_symbol_name("_rsvd3")
    6660                      .dwattr $C$DW$778, DW_AT_data_member_location[DW_OP_plus_uconst 0xa]
    6661                      .dwattr $C$DW$778, DW_AT_accessibility(DW_ACCESS_public)
    6662              $C$DW$779       .dwtag  DW_TAG_member
    6663                      .dwattr $C$DW$779, DW_AT_type(*$C$DW$T$122)
    6664                      .dwattr $C$DW$779, DW_AT_name("DBCTL")
    6665                      .dwattr $C$DW$779, DW_AT_TI_symbol_name("_DBCTL")
    6666                      .dwattr $C$DW$779, DW_AT_data_member_location[DW_OP_plus_uconst 0xc]
    6667                      .dwattr $C$DW$779, DW_AT_accessibility(DW_ACCESS_public)
    6668              $C$DW$780       .dwtag  DW_TAG_member
    6669                      .dwattr $C$DW$780, DW_AT_type(*$C$DW$T$120)
    6670                      .dwattr $C$DW$780, DW_AT_name("DBCTL2")
    6671                      .dwattr $C$DW$780, DW_AT_TI_symbol_name("_DBCTL2")
    6672                      .dwattr $C$DW$780, DW_AT_data_member_location[DW_OP_plus_uconst 0xd]
    6673                      .dwattr $C$DW$780, DW_AT_accessibility(DW_ACCESS_public)
    6674              $C$DW$781       .dwtag  DW_TAG_member
    6675                      .dwattr $C$DW$781, DW_AT_type(*$C$DW$T$162)
    6676                      .dwattr $C$DW$781, DW_AT_name("rsvd4")
    6677                      .dwattr $C$DW$781, DW_AT_TI_symbol_name("_rsvd4")
    6678                      .dwattr $C$DW$781, DW_AT_data_member_location[DW_OP_plus_uconst 0xe]
    6679                      .dwattr $C$DW$781, DW_AT_accessibility(DW_ACCESS_public)
    6680              $C$DW$782       .dwtag  DW_TAG_member
    6681                      .dwattr $C$DW$782, DW_AT_type(*$C$DW$T$106)
    6682                      .dwattr $C$DW$782, DW_AT_name("AQCTL")
    6683                      .dwattr $C$DW$782, DW_AT_TI_symbol_name("_AQCTL")
    6684                      .dwattr $C$DW$782, DW_AT_data_member_location[DW_OP_plus_uconst 0x10]
    6685                      .dwattr $C$DW$782, DW_AT_accessibility(DW_ACCESS_public)
    6686              $C$DW$783       .dwtag  DW_TAG_member
    6687                      .dwattr $C$DW$783, DW_AT_type(*$C$DW$T$110)
    6688                      .dwattr $C$DW$783, DW_AT_name("AQTSRCSEL")
    6689                      .dwattr $C$DW$783, DW_AT_TI_symbol_name("_AQTSRCSEL")
TMS320C2000 Assembler PC v6.4.2 Thu Dec 14 15:27:05 2017

Tools Copyright (c) 1996-2015 Texas Instruments Incorporated
fsm_main.asm                                                         PAGE  125

    6690                      .dwattr $C$DW$783, DW_AT_data_member_location[DW_OP_plus_uconst 0x11]
    6691                      .dwattr $C$DW$783, DW_AT_accessibility(DW_ACCESS_public)
    6692              $C$DW$784       .dwtag  DW_TAG_member
    6693                      .dwattr $C$DW$784, DW_AT_type(*$C$DW$T$162)
    6694                      .dwattr $C$DW$784, DW_AT_name("rsvd5")
    6695                      .dwattr $C$DW$784, DW_AT_TI_symbol_name("_rsvd5")
    6696                      .dwattr $C$DW$784, DW_AT_data_member_location[DW_OP_plus_uconst 0x12]
    6697                      .dwattr $C$DW$784, DW_AT_accessibility(DW_ACCESS_public)
    6698              $C$DW$785       .dwtag  DW_TAG_member
    6699                      .dwattr $C$DW$785, DW_AT_type(*$C$DW$T$208)
    6700                      .dwattr $C$DW$785, DW_AT_name("PCCTL")
    6701                      .dwattr $C$DW$785, DW_AT_TI_symbol_name("_PCCTL")
    6702                      .dwattr $C$DW$785, DW_AT_data_member_location[DW_OP_plus_uconst 0x14]
    6703                      .dwattr $C$DW$785, DW_AT_accessibility(DW_ACCESS_public)
    6704              $C$DW$786       .dwtag  DW_TAG_member
    6705                      .dwattr $C$DW$786, DW_AT_type(*$C$DW$T$163)
    6706                      .dwattr $C$DW$786, DW_AT_name("rsvd6")
    6707                      .dwattr $C$DW$786, DW_AT_TI_symbol_name("_rsvd6")
    6708                      .dwattr $C$DW$786, DW_AT_data_member_location[DW_OP_plus_uconst 0x15]
    6709                      .dwattr $C$DW$786, DW_AT_accessibility(DW_ACCESS_public)
    6710              $C$DW$787       .dwtag  DW_TAG_member
    6711                      .dwattr $C$DW$787, DW_AT_type(*$C$DW$T$200)
    6712                      .dwattr $C$DW$787, DW_AT_name("HRCNFG")
    6713                      .dwattr $C$DW$787, DW_AT_TI_symbol_name("_HRCNFG")
    6714                      .dwattr $C$DW$787, DW_AT_data_member_location[DW_OP_plus_uconst 0x20]
    6715                      .dwattr $C$DW$787, DW_AT_accessibility(DW_ACCESS_public)
    6716              $C$DW$788       .dwtag  DW_TAG_member
    6717                      .dwattr $C$DW$788, DW_AT_type(*$C$DW$T$206)
    6718                      .dwattr $C$DW$788, DW_AT_name("HRPWR")
    6719                      .dwattr $C$DW$788, DW_AT_TI_symbol_name("_HRPWR")
    6720                      .dwattr $C$DW$788, DW_AT_data_member_location[DW_OP_plus_uconst 0x21]
    6721                      .dwattr $C$DW$788, DW_AT_accessibility(DW_ACCESS_public)
    6722              $C$DW$789       .dwtag  DW_TAG_member
    6723                      .dwattr $C$DW$789, DW_AT_type(*$C$DW$T$164)
    6724                      .dwattr $C$DW$789, DW_AT_name("rsvd7")
    6725                      .dwattr $C$DW$789, DW_AT_TI_symbol_name("_rsvd7")
    6726                      .dwattr $C$DW$789, DW_AT_data_member_location[DW_OP_plus_uconst 0x22]
    6727                      .dwattr $C$DW$789, DW_AT_accessibility(DW_ACCESS_public)
    6728              $C$DW$790       .dwtag  DW_TAG_member
    6729                      .dwattr $C$DW$790, DW_AT_type(*$C$DW$T$202)
    6730                      .dwattr $C$DW$790, DW_AT_name("HRMSTEP")
    6731                      .dwattr $C$DW$790, DW_AT_TI_symbol_name("_HRMSTEP")
    6732                      .dwattr $C$DW$790, DW_AT_data_member_location[DW_OP_plus_uconst 0x26]
    6733                      .dwattr $C$DW$790, DW_AT_accessibility(DW_ACCESS_public)
    6734              $C$DW$791       .dwtag  DW_TAG_member
    6735                      .dwattr $C$DW$791, DW_AT_type(*$C$DW$T$198)
    6736                      .dwattr $C$DW$791, DW_AT_name("HRCNFG2")
    6737                      .dwattr $C$DW$791, DW_AT_TI_symbol_name("_HRCNFG2")
    6738                      .dwattr $C$DW$791, DW_AT_data_member_location[DW_OP_plus_uconst 0x27]
    6739                      .dwattr $C$DW$791, DW_AT_accessibility(DW_ACCESS_public)
    6740              $C$DW$792       .dwtag  DW_TAG_member
    6741                      .dwattr $C$DW$792, DW_AT_type(*$C$DW$T$165)
    6742                      .dwattr $C$DW$792, DW_AT_name("rsvd8")
    6743                      .dwattr $C$DW$792, DW_AT_TI_symbol_name("_rsvd8")
    6744                      .dwattr $C$DW$792, DW_AT_data_member_location[DW_OP_plus_uconst 0x28]
TMS320C2000 Assembler PC v6.4.2 Thu Dec 14 15:27:05 2017

Tools Copyright (c) 1996-2015 Texas Instruments Incorporated
fsm_main.asm                                                         PAGE  126

    6745                      .dwattr $C$DW$792, DW_AT_accessibility(DW_ACCESS_public)
    6746              $C$DW$793       .dwtag  DW_TAG_member
    6747                      .dwattr $C$DW$793, DW_AT_type(*$C$DW$T$204)
    6748                      .dwattr $C$DW$793, DW_AT_name("HRPCTL")
    6749                      .dwattr $C$DW$793, DW_AT_TI_symbol_name("_HRPCTL")
    6750                      .dwattr $C$DW$793, DW_AT_data_member_location[DW_OP_plus_uconst 0x2d]
    6751                      .dwattr $C$DW$793, DW_AT_accessibility(DW_ACCESS_public)
    6752              $C$DW$794       .dwtag  DW_TAG_member
    6753                      .dwattr $C$DW$794, DW_AT_type(*$C$DW$T$166)
    6754                      .dwattr $C$DW$794, DW_AT_name("rsvd9")
    6755                      .dwattr $C$DW$794, DW_AT_TI_symbol_name("_rsvd9")
    6756                      .dwattr $C$DW$794, DW_AT_data_member_location[DW_OP_plus_uconst 0x2e]
    6757                      .dwattr $C$DW$794, DW_AT_accessibility(DW_ACCESS_public)
    6758              $C$DW$795       .dwtag  DW_TAG_member
    6759                      .dwattr $C$DW$795, DW_AT_type(*$C$DW$T$196)
    6760                      .dwattr $C$DW$795, DW_AT_name("GLDCTL")
    6761                      .dwattr $C$DW$795, DW_AT_TI_symbol_name("_GLDCTL")
    6762                      .dwattr $C$DW$795, DW_AT_data_member_location[DW_OP_plus_uconst 0x34]
    6763                      .dwattr $C$DW$795, DW_AT_accessibility(DW_ACCESS_public)
    6764              $C$DW$796       .dwtag  DW_TAG_member
    6765                      .dwattr $C$DW$796, DW_AT_type(*$C$DW$T$192)
    6766                      .dwattr $C$DW$796, DW_AT_name("GLDCFG")
    6767                      .dwattr $C$DW$796, DW_AT_TI_symbol_name("_GLDCFG")
    6768                      .dwattr $C$DW$796, DW_AT_data_member_location[DW_OP_plus_uconst 0x35]
    6769                      .dwattr $C$DW$796, DW_AT_accessibility(DW_ACCESS_public)
    6770              $C$DW$797       .dwtag  DW_TAG_member
    6771                      .dwattr $C$DW$797, DW_AT_type(*$C$DW$T$162)
    6772                      .dwattr $C$DW$797, DW_AT_name("rsvd10")
    6773                      .dwattr $C$DW$797, DW_AT_TI_symbol_name("_rsvd10")
    6774                      .dwattr $C$DW$797, DW_AT_data_member_location[DW_OP_plus_uconst 0x36]
    6775                      .dwattr $C$DW$797, DW_AT_accessibility(DW_ACCESS_public)
    6776              $C$DW$798       .dwtag  DW_TAG_member
    6777                      .dwattr $C$DW$798, DW_AT_type(*$C$DW$T$161)
    6778                      .dwattr $C$DW$798, DW_AT_name("EPWMXLINK")
    6779                      .dwattr $C$DW$798, DW_AT_TI_symbol_name("_EPWMXLINK")
    6780                      .dwattr $C$DW$798, DW_AT_data_member_location[DW_OP_plus_uconst 0x38]
    6781                      .dwattr $C$DW$798, DW_AT_accessibility(DW_ACCESS_public)
    6782              $C$DW$799       .dwtag  DW_TAG_member
    6783                      .dwattr $C$DW$799, DW_AT_type(*$C$DW$T$166)
    6784                      .dwattr $C$DW$799, DW_AT_name("rsvd11")
    6785                      .dwattr $C$DW$799, DW_AT_TI_symbol_name("_rsvd11")
    6786                      .dwattr $C$DW$799, DW_AT_data_member_location[DW_OP_plus_uconst 0x3a]
    6787                      .dwattr $C$DW$799, DW_AT_accessibility(DW_ACCESS_public)
    6788              $C$DW$800       .dwtag  DW_TAG_member
    6789                      .dwattr $C$DW$800, DW_AT_type(*$C$DW$T$100)
    6790                      .dwattr $C$DW$800, DW_AT_name("AQCTLA")
    6791                      .dwattr $C$DW$800, DW_AT_TI_symbol_name("_AQCTLA")
    6792                      .dwattr $C$DW$800, DW_AT_data_member_location[DW_OP_plus_uconst 0x40]
    6793                      .dwattr $C$DW$800, DW_AT_accessibility(DW_ACCESS_public)
    6794              $C$DW$801       .dwtag  DW_TAG_member
    6795                      .dwattr $C$DW$801, DW_AT_type(*$C$DW$T$98)
    6796                      .dwattr $C$DW$801, DW_AT_name("AQCTLA2")
    6797                      .dwattr $C$DW$801, DW_AT_TI_symbol_name("_AQCTLA2")
    6798                      .dwattr $C$DW$801, DW_AT_data_member_location[DW_OP_plus_uconst 0x41]
    6799                      .dwattr $C$DW$801, DW_AT_accessibility(DW_ACCESS_public)
TMS320C2000 Assembler PC v6.4.2 Thu Dec 14 15:27:05 2017

Tools Copyright (c) 1996-2015 Texas Instruments Incorporated
fsm_main.asm                                                         PAGE  127

    6800              $C$DW$802       .dwtag  DW_TAG_member
    6801                      .dwattr $C$DW$802, DW_AT_type(*$C$DW$T$104)
    6802                      .dwattr $C$DW$802, DW_AT_name("AQCTLB")
    6803                      .dwattr $C$DW$802, DW_AT_TI_symbol_name("_AQCTLB")
    6804                      .dwattr $C$DW$802, DW_AT_data_member_location[DW_OP_plus_uconst 0x42]
    6805                      .dwattr $C$DW$802, DW_AT_accessibility(DW_ACCESS_public)
    6806              $C$DW$803       .dwtag  DW_TAG_member
    6807                      .dwattr $C$DW$803, DW_AT_type(*$C$DW$T$102)
    6808                      .dwattr $C$DW$803, DW_AT_name("AQCTLB2")
    6809                      .dwattr $C$DW$803, DW_AT_TI_symbol_name("_AQCTLB2")
    6810                      .dwattr $C$DW$803, DW_AT_data_member_location[DW_OP_plus_uconst 0x43]
    6811                      .dwattr $C$DW$803, DW_AT_accessibility(DW_ACCESS_public)
    6812              $C$DW$804       .dwtag  DW_TAG_member
    6813                      .dwattr $C$DW$804, DW_AT_type(*$C$DW$T$167)
    6814                      .dwattr $C$DW$804, DW_AT_name("rsvd12")
    6815                      .dwattr $C$DW$804, DW_AT_TI_symbol_name("_rsvd12")
    6816                      .dwattr $C$DW$804, DW_AT_data_member_location[DW_OP_plus_uconst 0x44]
    6817                      .dwattr $C$DW$804, DW_AT_accessibility(DW_ACCESS_public)
    6818              $C$DW$805       .dwtag  DW_TAG_member
    6819                      .dwattr $C$DW$805, DW_AT_type(*$C$DW$T$108)
    6820                      .dwattr $C$DW$805, DW_AT_name("AQSFRC")
    6821                      .dwattr $C$DW$805, DW_AT_TI_symbol_name("_AQSFRC")
    6822                      .dwattr $C$DW$805, DW_AT_data_member_location[DW_OP_plus_uconst 0x47]
    6823                      .dwattr $C$DW$805, DW_AT_accessibility(DW_ACCESS_public)
    6824              $C$DW$806       .dwtag  DW_TAG_member
    6825                      .dwattr $C$DW$806, DW_AT_type(*$C$DW$T$34)
    6826                      .dwattr $C$DW$806, DW_AT_name("rsvd13")
    6827                      .dwattr $C$DW$806, DW_AT_TI_symbol_name("_rsvd13")
    6828                      .dwattr $C$DW$806, DW_AT_data_member_location[DW_OP_plus_uconst 0x48]
    6829                      .dwattr $C$DW$806, DW_AT_accessibility(DW_ACCESS_public)
    6830              $C$DW$807       .dwtag  DW_TAG_member
    6831                      .dwattr $C$DW$807, DW_AT_type(*$C$DW$T$96)
    6832                      .dwattr $C$DW$807, DW_AT_name("AQCSFRC")
    6833                      .dwattr $C$DW$807, DW_AT_TI_symbol_name("_AQCSFRC")
    6834                      .dwattr $C$DW$807, DW_AT_data_member_location[DW_OP_plus_uconst 0x49]
    6835                      .dwattr $C$DW$807, DW_AT_accessibility(DW_ACCESS_public)
    6836              $C$DW$808       .dwtag  DW_TAG_member
    6837                      .dwattr $C$DW$808, DW_AT_type(*$C$DW$T$166)
    6838                      .dwattr $C$DW$808, DW_AT_name("rsvd14")
    6839                      .dwattr $C$DW$808, DW_AT_TI_symbol_name("_rsvd14")
    6840                      .dwattr $C$DW$808, DW_AT_data_member_location[DW_OP_plus_uconst 0x4a]
    6841                      .dwattr $C$DW$808, DW_AT_accessibility(DW_ACCESS_public)
    6842              $C$DW$809       .dwtag  DW_TAG_member
    6843                      .dwattr $C$DW$809, DW_AT_type(*$C$DW$T$126)
    6844                      .dwattr $C$DW$809, DW_AT_name("DBREDHR")
    6845                      .dwattr $C$DW$809, DW_AT_TI_symbol_name("_DBREDHR")
    6846                      .dwattr $C$DW$809, DW_AT_data_member_location[DW_OP_plus_uconst 0x50]
    6847                      .dwattr $C$DW$809, DW_AT_accessibility(DW_ACCESS_public)
    6848              $C$DW$810       .dwtag  DW_TAG_member
    6849                      .dwattr $C$DW$810, DW_AT_type(*$C$DW$T$34)
    6850                      .dwattr $C$DW$810, DW_AT_name("DBRED")
    6851                      .dwattr $C$DW$810, DW_AT_TI_symbol_name("_DBRED")
    6852                      .dwattr $C$DW$810, DW_AT_data_member_location[DW_OP_plus_uconst 0x51]
    6853                      .dwattr $C$DW$810, DW_AT_accessibility(DW_ACCESS_public)
    6854              $C$DW$811       .dwtag  DW_TAG_member
TMS320C2000 Assembler PC v6.4.2 Thu Dec 14 15:27:05 2017

Tools Copyright (c) 1996-2015 Texas Instruments Incorporated
fsm_main.asm                                                         PAGE  128

    6855                      .dwattr $C$DW$811, DW_AT_type(*$C$DW$T$124)
    6856                      .dwattr $C$DW$811, DW_AT_name("DBFEDHR")
    6857                      .dwattr $C$DW$811, DW_AT_TI_symbol_name("_DBFEDHR")
    6858                      .dwattr $C$DW$811, DW_AT_data_member_location[DW_OP_plus_uconst 0x52]
    6859                      .dwattr $C$DW$811, DW_AT_accessibility(DW_ACCESS_public)
    6860              $C$DW$812       .dwtag  DW_TAG_member
    6861                      .dwattr $C$DW$812, DW_AT_type(*$C$DW$T$34)
    6862                      .dwattr $C$DW$812, DW_AT_name("DBFED")
    6863                      .dwattr $C$DW$812, DW_AT_TI_symbol_name("_DBFED")
    6864                      .dwattr $C$DW$812, DW_AT_data_member_location[DW_OP_plus_uconst 0x53]
    6865                      .dwattr $C$DW$812, DW_AT_accessibility(DW_ACCESS_public)
    6866              $C$DW$813       .dwtag  DW_TAG_member
    6867                      .dwattr $C$DW$813, DW_AT_type(*$C$DW$T$168)
    6868                      .dwattr $C$DW$813, DW_AT_name("rsvd15")
    6869                      .dwattr $C$DW$813, DW_AT_TI_symbol_name("_rsvd15")
    6870                      .dwattr $C$DW$813, DW_AT_data_member_location[DW_OP_plus_uconst 0x54]
    6871                      .dwattr $C$DW$813, DW_AT_accessibility(DW_ACCESS_public)
    6872              $C$DW$814       .dwtag  DW_TAG_member
    6873                      .dwattr $C$DW$814, DW_AT_type(*$C$DW$T$249)
    6874                      .dwattr $C$DW$814, DW_AT_name("TBPHS")
    6875                      .dwattr $C$DW$814, DW_AT_TI_symbol_name("_TBPHS")
    6876                      .dwattr $C$DW$814, DW_AT_data_member_location[DW_OP_plus_uconst 0x60]
    6877                      .dwattr $C$DW$814, DW_AT_accessibility(DW_ACCESS_public)
    6878              $C$DW$815       .dwtag  DW_TAG_member
    6879                      .dwattr $C$DW$815, DW_AT_type(*$C$DW$T$34)
    6880                      .dwattr $C$DW$815, DW_AT_name("TBPRDHR")
    6881                      .dwattr $C$DW$815, DW_AT_TI_symbol_name("_TBPRDHR")
    6882                      .dwattr $C$DW$815, DW_AT_data_member_location[DW_OP_plus_uconst 0x62]
    6883                      .dwattr $C$DW$815, DW_AT_accessibility(DW_ACCESS_public)
    6884              $C$DW$816       .dwtag  DW_TAG_member
    6885                      .dwattr $C$DW$816, DW_AT_type(*$C$DW$T$34)
    6886                      .dwattr $C$DW$816, DW_AT_name("TBPRD")
    6887                      .dwattr $C$DW$816, DW_AT_TI_symbol_name("_TBPRD")
    6888                      .dwattr $C$DW$816, DW_AT_data_member_location[DW_OP_plus_uconst 0x63]
    6889                      .dwattr $C$DW$816, DW_AT_accessibility(DW_ACCESS_public)
    6890              $C$DW$817       .dwtag  DW_TAG_member
    6891                      .dwattr $C$DW$817, DW_AT_type(*$C$DW$T$166)
    6892                      .dwattr $C$DW$817, DW_AT_name("rsvd16")
    6893                      .dwattr $C$DW$817, DW_AT_TI_symbol_name("_rsvd16")
    6894                      .dwattr $C$DW$817, DW_AT_data_member_location[DW_OP_plus_uconst 0x64]
    6895                      .dwattr $C$DW$817, DW_AT_accessibility(DW_ACCESS_public)
    6896              $C$DW$818       .dwtag  DW_TAG_member
    6897                      .dwattr $C$DW$818, DW_AT_type(*$C$DW$T$112)
    6898                      .dwattr $C$DW$818, DW_AT_name("CMPA")
    6899                      .dwattr $C$DW$818, DW_AT_TI_symbol_name("_CMPA")
    6900                      .dwattr $C$DW$818, DW_AT_data_member_location[DW_OP_plus_uconst 0x6a]
    6901                      .dwattr $C$DW$818, DW_AT_accessibility(DW_ACCESS_public)
    6902              $C$DW$819       .dwtag  DW_TAG_member
    6903                      .dwattr $C$DW$819, DW_AT_type(*$C$DW$T$114)
    6904                      .dwattr $C$DW$819, DW_AT_name("CMPB")
    6905                      .dwattr $C$DW$819, DW_AT_TI_symbol_name("_CMPB")
    6906                      .dwattr $C$DW$819, DW_AT_data_member_location[DW_OP_plus_uconst 0x6c]
    6907                      .dwattr $C$DW$819, DW_AT_accessibility(DW_ACCESS_public)
    6908              $C$DW$820       .dwtag  DW_TAG_member
    6909                      .dwattr $C$DW$820, DW_AT_type(*$C$DW$T$34)
TMS320C2000 Assembler PC v6.4.2 Thu Dec 14 15:27:05 2017

Tools Copyright (c) 1996-2015 Texas Instruments Incorporated
fsm_main.asm                                                         PAGE  129

    6910                      .dwattr $C$DW$820, DW_AT_name("rsvd17")
    6911                      .dwattr $C$DW$820, DW_AT_TI_symbol_name("_rsvd17")
    6912                      .dwattr $C$DW$820, DW_AT_data_member_location[DW_OP_plus_uconst 0x6e]
    6913                      .dwattr $C$DW$820, DW_AT_accessibility(DW_ACCESS_public)
    6914              $C$DW$821       .dwtag  DW_TAG_member
    6915                      .dwattr $C$DW$821, DW_AT_type(*$C$DW$T$34)
    6916                      .dwattr $C$DW$821, DW_AT_name("CMPC")
    6917                      .dwattr $C$DW$821, DW_AT_TI_symbol_name("_CMPC")
    6918                      .dwattr $C$DW$821, DW_AT_data_member_location[DW_OP_plus_uconst 0x6f]
    6919                      .dwattr $C$DW$821, DW_AT_accessibility(DW_ACCESS_public)
    6920              $C$DW$822       .dwtag  DW_TAG_member
    6921                      .dwattr $C$DW$822, DW_AT_type(*$C$DW$T$34)
    6922                      .dwattr $C$DW$822, DW_AT_name("rsvd18")
    6923                      .dwattr $C$DW$822, DW_AT_TI_symbol_name("_rsvd18")
    6924                      .dwattr $C$DW$822, DW_AT_data_member_location[DW_OP_plus_uconst 0x70]
    6925                      .dwattr $C$DW$822, DW_AT_accessibility(DW_ACCESS_public)
    6926              $C$DW$823       .dwtag  DW_TAG_member
    6927                      .dwattr $C$DW$823, DW_AT_type(*$C$DW$T$34)
    6928                      .dwattr $C$DW$823, DW_AT_name("CMPD")
    6929                      .dwattr $C$DW$823, DW_AT_TI_symbol_name("_CMPD")
    6930                      .dwattr $C$DW$823, DW_AT_data_member_location[DW_OP_plus_uconst 0x71]
    6931                      .dwattr $C$DW$823, DW_AT_accessibility(DW_ACCESS_public)
    6932              $C$DW$824       .dwtag  DW_TAG_member
    6933                      .dwattr $C$DW$824, DW_AT_type(*$C$DW$T$162)
    6934                      .dwattr $C$DW$824, DW_AT_name("rsvd19")
    6935                      .dwattr $C$DW$824, DW_AT_TI_symbol_name("_rsvd19")
    6936                      .dwattr $C$DW$824, DW_AT_data_member_location[DW_OP_plus_uconst 0x72]
    6937                      .dwattr $C$DW$824, DW_AT_accessibility(DW_ACCESS_public)
    6938              $C$DW$825       .dwtag  DW_TAG_member
    6939                      .dwattr $C$DW$825, DW_AT_type(*$C$DW$T$194)
    6940                      .dwattr $C$DW$825, DW_AT_name("GLDCTL2")
    6941                      .dwattr $C$DW$825, DW_AT_TI_symbol_name("_GLDCTL2")
    6942                      .dwattr $C$DW$825, DW_AT_data_member_location[DW_OP_plus_uconst 0x74]
    6943                      .dwattr $C$DW$825, DW_AT_accessibility(DW_ACCESS_public)
    6944              $C$DW$826       .dwtag  DW_TAG_member
    6945                      .dwattr $C$DW$826, DW_AT_type(*$C$DW$T$163)
    6946                      .dwattr $C$DW$826, DW_AT_name("rsvd20")
    6947                      .dwattr $C$DW$826, DW_AT_TI_symbol_name("_rsvd20")
    6948                      .dwattr $C$DW$826, DW_AT_data_member_location[DW_OP_plus_uconst 0x75]
    6949                      .dwattr $C$DW$826, DW_AT_accessibility(DW_ACCESS_public)
    6950              $C$DW$827       .dwtag  DW_TAG_member
    6951                      .dwattr $C$DW$827, DW_AT_type(*$C$DW$T$279)
    6952                      .dwattr $C$DW$827, DW_AT_name("TZSEL")
    6953                      .dwattr $C$DW$827, DW_AT_TI_symbol_name("_TZSEL")
    6954                      .dwattr $C$DW$827, DW_AT_data_member_location[DW_OP_plus_uconst 0x80]
    6955                      .dwattr $C$DW$827, DW_AT_accessibility(DW_ACCESS_public)
    6956              $C$DW$828       .dwtag  DW_TAG_member
    6957                      .dwattr $C$DW$828, DW_AT_type(*$C$DW$T$34)
    6958                      .dwattr $C$DW$828, DW_AT_name("rsvd21")
    6959                      .dwattr $C$DW$828, DW_AT_TI_symbol_name("_rsvd21")
    6960                      .dwattr $C$DW$828, DW_AT_data_member_location[DW_OP_plus_uconst 0x81]
    6961                      .dwattr $C$DW$828, DW_AT_accessibility(DW_ACCESS_public)
    6962              $C$DW$829       .dwtag  DW_TAG_member
    6963                      .dwattr $C$DW$829, DW_AT_type(*$C$DW$T$267)
    6964                      .dwattr $C$DW$829, DW_AT_name("TZDCSEL")
TMS320C2000 Assembler PC v6.4.2 Thu Dec 14 15:27:05 2017

Tools Copyright (c) 1996-2015 Texas Instruments Incorporated
fsm_main.asm                                                         PAGE  130

    6965                      .dwattr $C$DW$829, DW_AT_TI_symbol_name("_TZDCSEL")
    6966                      .dwattr $C$DW$829, DW_AT_data_member_location[DW_OP_plus_uconst 0x82]
    6967                      .dwattr $C$DW$829, DW_AT_accessibility(DW_ACCESS_public)
    6968              $C$DW$830       .dwtag  DW_TAG_member
    6969                      .dwattr $C$DW$830, DW_AT_type(*$C$DW$T$34)
    6970                      .dwattr $C$DW$830, DW_AT_name("rsvd22")
    6971                      .dwattr $C$DW$830, DW_AT_TI_symbol_name("_rsvd22")
    6972                      .dwattr $C$DW$830, DW_AT_data_member_location[DW_OP_plus_uconst 0x83]
    6973                      .dwattr $C$DW$830, DW_AT_accessibility(DW_ACCESS_public)
    6974              $C$DW$831       .dwtag  DW_TAG_member
    6975                      .dwattr $C$DW$831, DW_AT_type(*$C$DW$T$265)
    6976                      .dwattr $C$DW$831, DW_AT_name("TZCTL")
    6977                      .dwattr $C$DW$831, DW_AT_TI_symbol_name("_TZCTL")
    6978                      .dwattr $C$DW$831, DW_AT_data_member_location[DW_OP_plus_uconst 0x84]
    6979                      .dwattr $C$DW$831, DW_AT_accessibility(DW_ACCESS_public)
    6980              $C$DW$832       .dwtag  DW_TAG_member
    6981                      .dwattr $C$DW$832, DW_AT_type(*$C$DW$T$259)
    6982                      .dwattr $C$DW$832, DW_AT_name("TZCTL2")
    6983                      .dwattr $C$DW$832, DW_AT_TI_symbol_name("_TZCTL2")
    6984                      .dwattr $C$DW$832, DW_AT_data_member_location[DW_OP_plus_uconst 0x85]
    6985                      .dwattr $C$DW$832, DW_AT_accessibility(DW_ACCESS_public)
    6986              $C$DW$833       .dwtag  DW_TAG_member
    6987                      .dwattr $C$DW$833, DW_AT_type(*$C$DW$T$261)
    6988                      .dwattr $C$DW$833, DW_AT_name("TZCTLDCA")
    6989                      .dwattr $C$DW$833, DW_AT_TI_symbol_name("_TZCTLDCA")
    6990                      .dwattr $C$DW$833, DW_AT_data_member_location[DW_OP_plus_uconst 0x86]
    6991                      .dwattr $C$DW$833, DW_AT_accessibility(DW_ACCESS_public)
    6992              $C$DW$834       .dwtag  DW_TAG_member
    6993                      .dwattr $C$DW$834, DW_AT_type(*$C$DW$T$263)
    6994                      .dwattr $C$DW$834, DW_AT_name("TZCTLDCB")
    6995                      .dwattr $C$DW$834, DW_AT_TI_symbol_name("_TZCTLDCB")
    6996                      .dwattr $C$DW$834, DW_AT_data_member_location[DW_OP_plus_uconst 0x87]
    6997                      .dwattr $C$DW$834, DW_AT_accessibility(DW_ACCESS_public)
    6998              $C$DW$835       .dwtag  DW_TAG_member
    6999                      .dwattr $C$DW$835, DW_AT_type(*$C$DW$T$165)
    7000                      .dwattr $C$DW$835, DW_AT_name("rsvd23")
    7001                      .dwattr $C$DW$835, DW_AT_TI_symbol_name("_rsvd23")
    7002                      .dwattr $C$DW$835, DW_AT_data_member_location[DW_OP_plus_uconst 0x88]
    7003                      .dwattr $C$DW$835, DW_AT_accessibility(DW_ACCESS_public)
    7004              $C$DW$836       .dwtag  DW_TAG_member
    7005                      .dwattr $C$DW$836, DW_AT_type(*$C$DW$T$269)
    7006                      .dwattr $C$DW$836, DW_AT_name("TZEINT")
    7007                      .dwattr $C$DW$836, DW_AT_TI_symbol_name("_TZEINT")
    7008                      .dwattr $C$DW$836, DW_AT_data_member_location[DW_OP_plus_uconst 0x8d]
    7009                      .dwattr $C$DW$836, DW_AT_accessibility(DW_ACCESS_public)
    7010              $C$DW$837       .dwtag  DW_TAG_member
    7011                      .dwattr $C$DW$837, DW_AT_type(*$C$DW$T$165)
    7012                      .dwattr $C$DW$837, DW_AT_name("rsvd24")
    7013                      .dwattr $C$DW$837, DW_AT_TI_symbol_name("_rsvd24")
    7014                      .dwattr $C$DW$837, DW_AT_data_member_location[DW_OP_plus_uconst 0x8e]
    7015                      .dwattr $C$DW$837, DW_AT_accessibility(DW_ACCESS_public)
    7016              $C$DW$838       .dwtag  DW_TAG_member
    7017                      .dwattr $C$DW$838, DW_AT_type(*$C$DW$T$271)
    7018                      .dwattr $C$DW$838, DW_AT_name("TZFLG")
    7019                      .dwattr $C$DW$838, DW_AT_TI_symbol_name("_TZFLG")
TMS320C2000 Assembler PC v6.4.2 Thu Dec 14 15:27:05 2017

Tools Copyright (c) 1996-2015 Texas Instruments Incorporated
fsm_main.asm                                                         PAGE  131

    7020                      .dwattr $C$DW$838, DW_AT_data_member_location[DW_OP_plus_uconst 0x93]
    7021                      .dwattr $C$DW$838, DW_AT_accessibility(DW_ACCESS_public)
    7022              $C$DW$839       .dwtag  DW_TAG_member
    7023                      .dwattr $C$DW$839, DW_AT_type(*$C$DW$T$255)
    7024                      .dwattr $C$DW$839, DW_AT_name("TZCBCFLG")
    7025                      .dwattr $C$DW$839, DW_AT_TI_symbol_name("_TZCBCFLG")
    7026                      .dwattr $C$DW$839, DW_AT_data_member_location[DW_OP_plus_uconst 0x94]
    7027                      .dwattr $C$DW$839, DW_AT_accessibility(DW_ACCESS_public)
    7028              $C$DW$840       .dwtag  DW_TAG_member
    7029                      .dwattr $C$DW$840, DW_AT_type(*$C$DW$T$277)
    7030                      .dwattr $C$DW$840, DW_AT_name("TZOSTFLG")
    7031                      .dwattr $C$DW$840, DW_AT_TI_symbol_name("_TZOSTFLG")
    7032                      .dwattr $C$DW$840, DW_AT_data_member_location[DW_OP_plus_uconst 0x95]
    7033                      .dwattr $C$DW$840, DW_AT_accessibility(DW_ACCESS_public)
    7034              $C$DW$841       .dwtag  DW_TAG_member
    7035                      .dwattr $C$DW$841, DW_AT_type(*$C$DW$T$34)
    7036                      .dwattr $C$DW$841, DW_AT_name("rsvd25")
    7037                      .dwattr $C$DW$841, DW_AT_TI_symbol_name("_rsvd25")
    7038                      .dwattr $C$DW$841, DW_AT_data_member_location[DW_OP_plus_uconst 0x96]
    7039                      .dwattr $C$DW$841, DW_AT_accessibility(DW_ACCESS_public)
    7040              $C$DW$842       .dwtag  DW_TAG_member
    7041                      .dwattr $C$DW$842, DW_AT_type(*$C$DW$T$257)
    7042                      .dwattr $C$DW$842, DW_AT_name("TZCLR")
    7043                      .dwattr $C$DW$842, DW_AT_TI_symbol_name("_TZCLR")
    7044                      .dwattr $C$DW$842, DW_AT_data_member_location[DW_OP_plus_uconst 0x97]
    7045                      .dwattr $C$DW$842, DW_AT_accessibility(DW_ACCESS_public)
    7046              $C$DW$843       .dwtag  DW_TAG_member
    7047                      .dwattr $C$DW$843, DW_AT_type(*$C$DW$T$253)
    7048                      .dwattr $C$DW$843, DW_AT_name("TZCBCCLR")
    7049                      .dwattr $C$DW$843, DW_AT_TI_symbol_name("_TZCBCCLR")
    7050                      .dwattr $C$DW$843, DW_AT_data_member_location[DW_OP_plus_uconst 0x98]
    7051                      .dwattr $C$DW$843, DW_AT_accessibility(DW_ACCESS_public)
    7052              $C$DW$844       .dwtag  DW_TAG_member
    7053                      .dwattr $C$DW$844, DW_AT_type(*$C$DW$T$275)
    7054                      .dwattr $C$DW$844, DW_AT_name("TZOSTCLR")
    7055                      .dwattr $C$DW$844, DW_AT_TI_symbol_name("_TZOSTCLR")
    7056                      .dwattr $C$DW$844, DW_AT_data_member_location[DW_OP_plus_uconst 0x99]
    7057                      .dwattr $C$DW$844, DW_AT_accessibility(DW_ACCESS_public)
    7058              $C$DW$845       .dwtag  DW_TAG_member
    7059                      .dwattr $C$DW$845, DW_AT_type(*$C$DW$T$34)
    7060                      .dwattr $C$DW$845, DW_AT_name("rsvd26")
    7061                      .dwattr $C$DW$845, DW_AT_TI_symbol_name("_rsvd26")
    7062                      .dwattr $C$DW$845, DW_AT_data_member_location[DW_OP_plus_uconst 0x9a]
    7063                      .dwattr $C$DW$845, DW_AT_accessibility(DW_ACCESS_public)
    7064              $C$DW$846       .dwtag  DW_TAG_member
    7065                      .dwattr $C$DW$846, DW_AT_type(*$C$DW$T$273)
    7066                      .dwattr $C$DW$846, DW_AT_name("TZFRC")
    7067                      .dwattr $C$DW$846, DW_AT_TI_symbol_name("_TZFRC")
    7068                      .dwattr $C$DW$846, DW_AT_data_member_location[DW_OP_plus_uconst 0x9b]
    7069                      .dwattr $C$DW$846, DW_AT_accessibility(DW_ACCESS_public)
    7070              $C$DW$847       .dwtag  DW_TAG_member
    7071                      .dwattr $C$DW$847, DW_AT_type(*$C$DW$T$169)
    7072                      .dwattr $C$DW$847, DW_AT_name("rsvd27")
    7073                      .dwattr $C$DW$847, DW_AT_TI_symbol_name("_rsvd27")
    7074                      .dwattr $C$DW$847, DW_AT_data_member_location[DW_OP_plus_uconst 0x9c]
TMS320C2000 Assembler PC v6.4.2 Thu Dec 14 15:27:05 2017

Tools Copyright (c) 1996-2015 Texas Instruments Incorporated
fsm_main.asm                                                         PAGE  132

    7075                      .dwattr $C$DW$847, DW_AT_accessibility(DW_ACCESS_public)
    7076              $C$DW$848       .dwtag  DW_TAG_member
    7077                      .dwattr $C$DW$848, DW_AT_type(*$C$DW$T$188)
    7078                      .dwattr $C$DW$848, DW_AT_name("ETSEL")
    7079                      .dwattr $C$DW$848, DW_AT_TI_symbol_name("_ETSEL")
    7080                      .dwattr $C$DW$848, DW_AT_data_member_location[DW_OP_plus_uconst 0xa4]
    7081                      .dwattr $C$DW$848, DW_AT_accessibility(DW_ACCESS_public)
    7082              $C$DW$849       .dwtag  DW_TAG_member
    7083                      .dwattr $C$DW$849, DW_AT_type(*$C$DW$T$34)
    7084                      .dwattr $C$DW$849, DW_AT_name("rsvd28")
    7085                      .dwattr $C$DW$849, DW_AT_TI_symbol_name("_rsvd28")
    7086                      .dwattr $C$DW$849, DW_AT_data_member_location[DW_OP_plus_uconst 0xa5]
    7087                      .dwattr $C$DW$849, DW_AT_accessibility(DW_ACCESS_public)
    7088              $C$DW$850       .dwtag  DW_TAG_member
    7089                      .dwattr $C$DW$850, DW_AT_type(*$C$DW$T$186)
    7090                      .dwattr $C$DW$850, DW_AT_name("ETPS")
    7091                      .dwattr $C$DW$850, DW_AT_TI_symbol_name("_ETPS")
    7092                      .dwattr $C$DW$850, DW_AT_data_member_location[DW_OP_plus_uconst 0xa6]
    7093                      .dwattr $C$DW$850, DW_AT_accessibility(DW_ACCESS_public)
    7094              $C$DW$851       .dwtag  DW_TAG_member
    7095                      .dwattr $C$DW$851, DW_AT_type(*$C$DW$T$34)
    7096                      .dwattr $C$DW$851, DW_AT_name("rsvd29")
    7097                      .dwattr $C$DW$851, DW_AT_TI_symbol_name("_rsvd29")
    7098                      .dwattr $C$DW$851, DW_AT_data_member_location[DW_OP_plus_uconst 0xa7]
    7099                      .dwattr $C$DW$851, DW_AT_accessibility(DW_ACCESS_public)
    7100              $C$DW$852       .dwtag  DW_TAG_member
    7101                      .dwattr $C$DW$852, DW_AT_type(*$C$DW$T$180)
    7102                      .dwattr $C$DW$852, DW_AT_name("ETFLG")
    7103                      .dwattr $C$DW$852, DW_AT_TI_symbol_name("_ETFLG")
    7104                      .dwattr $C$DW$852, DW_AT_data_member_location[DW_OP_plus_uconst 0xa8]
    7105                      .dwattr $C$DW$852, DW_AT_accessibility(DW_ACCESS_public)
    7106              $C$DW$853       .dwtag  DW_TAG_member
    7107                      .dwattr $C$DW$853, DW_AT_type(*$C$DW$T$34)
    7108                      .dwattr $C$DW$853, DW_AT_name("rsvd30")
    7109                      .dwattr $C$DW$853, DW_AT_TI_symbol_name("_rsvd30")
    7110                      .dwattr $C$DW$853, DW_AT_data_member_location[DW_OP_plus_uconst 0xa9]
    7111                      .dwattr $C$DW$853, DW_AT_accessibility(DW_ACCESS_public)
    7112              $C$DW$854       .dwtag  DW_TAG_member
    7113                      .dwattr $C$DW$854, DW_AT_type(*$C$DW$T$174)
    7114                      .dwattr $C$DW$854, DW_AT_name("ETCLR")
    7115                      .dwattr $C$DW$854, DW_AT_TI_symbol_name("_ETCLR")
    7116                      .dwattr $C$DW$854, DW_AT_data_member_location[DW_OP_plus_uconst 0xaa]
    7117                      .dwattr $C$DW$854, DW_AT_accessibility(DW_ACCESS_public)
    7118              $C$DW$855       .dwtag  DW_TAG_member
    7119                      .dwattr $C$DW$855, DW_AT_type(*$C$DW$T$34)
    7120                      .dwattr $C$DW$855, DW_AT_name("rsvd31")
    7121                      .dwattr $C$DW$855, DW_AT_TI_symbol_name("_rsvd31")
    7122                      .dwattr $C$DW$855, DW_AT_data_member_location[DW_OP_plus_uconst 0xab]
    7123                      .dwattr $C$DW$855, DW_AT_accessibility(DW_ACCESS_public)
    7124              $C$DW$856       .dwtag  DW_TAG_member
    7125                      .dwattr $C$DW$856, DW_AT_type(*$C$DW$T$182)
    7126                      .dwattr $C$DW$856, DW_AT_name("ETFRC")
    7127                      .dwattr $C$DW$856, DW_AT_TI_symbol_name("_ETFRC")
    7128                      .dwattr $C$DW$856, DW_AT_data_member_location[DW_OP_plus_uconst 0xac]
    7129                      .dwattr $C$DW$856, DW_AT_accessibility(DW_ACCESS_public)
TMS320C2000 Assembler PC v6.4.2 Thu Dec 14 15:27:05 2017

Tools Copyright (c) 1996-2015 Texas Instruments Incorporated
fsm_main.asm                                                         PAGE  133

    7130              $C$DW$857       .dwtag  DW_TAG_member
    7131                      .dwattr $C$DW$857, DW_AT_type(*$C$DW$T$34)
    7132                      .dwattr $C$DW$857, DW_AT_name("rsvd32")
    7133                      .dwattr $C$DW$857, DW_AT_TI_symbol_name("_rsvd32")
    7134                      .dwattr $C$DW$857, DW_AT_data_member_location[DW_OP_plus_uconst 0xad]
    7135                      .dwattr $C$DW$857, DW_AT_accessibility(DW_ACCESS_public)
    7136              $C$DW$858       .dwtag  DW_TAG_member
    7137                      .dwattr $C$DW$858, DW_AT_type(*$C$DW$T$184)
    7138                      .dwattr $C$DW$858, DW_AT_name("ETINTPS")
    7139                      .dwattr $C$DW$858, DW_AT_TI_symbol_name("_ETINTPS")
    7140                      .dwattr $C$DW$858, DW_AT_data_member_location[DW_OP_plus_uconst 0xae]
    7141                      .dwattr $C$DW$858, DW_AT_accessibility(DW_ACCESS_public)
    7142              $C$DW$859       .dwtag  DW_TAG_member
    7143                      .dwattr $C$DW$859, DW_AT_type(*$C$DW$T$34)
    7144                      .dwattr $C$DW$859, DW_AT_name("rsvd33")
    7145                      .dwattr $C$DW$859, DW_AT_TI_symbol_name("_rsvd33")
    7146                      .dwattr $C$DW$859, DW_AT_data_member_location[DW_OP_plus_uconst 0xaf]
    7147                      .dwattr $C$DW$859, DW_AT_accessibility(DW_ACCESS_public)
    7148              $C$DW$860       .dwtag  DW_TAG_member
    7149                      .dwattr $C$DW$860, DW_AT_type(*$C$DW$T$190)
    7150                      .dwattr $C$DW$860, DW_AT_name("ETSOCPS")
    7151                      .dwattr $C$DW$860, DW_AT_TI_symbol_name("_ETSOCPS")
    7152                      .dwattr $C$DW$860, DW_AT_data_member_location[DW_OP_plus_uconst 0xb0]
    7153                      .dwattr $C$DW$860, DW_AT_accessibility(DW_ACCESS_public)
    7154              $C$DW$861       .dwtag  DW_TAG_member
    7155                      .dwattr $C$DW$861, DW_AT_type(*$C$DW$T$34)
    7156                      .dwattr $C$DW$861, DW_AT_name("rsvd34")
    7157                      .dwattr $C$DW$861, DW_AT_TI_symbol_name("_rsvd34")
    7158                      .dwattr $C$DW$861, DW_AT_data_member_location[DW_OP_plus_uconst 0xb1]
    7159                      .dwattr $C$DW$861, DW_AT_accessibility(DW_ACCESS_public)
    7160              $C$DW$862       .dwtag  DW_TAG_member
    7161                      .dwattr $C$DW$862, DW_AT_type(*$C$DW$T$176)
    7162                      .dwattr $C$DW$862, DW_AT_name("ETCNTINITCTL")
    7163                      .dwattr $C$DW$862, DW_AT_TI_symbol_name("_ETCNTINITCTL")
    7164                      .dwattr $C$DW$862, DW_AT_data_member_location[DW_OP_plus_uconst 0xb2]
    7165                      .dwattr $C$DW$862, DW_AT_accessibility(DW_ACCESS_public)
    7166              $C$DW$863       .dwtag  DW_TAG_member
    7167                      .dwattr $C$DW$863, DW_AT_type(*$C$DW$T$34)
    7168                      .dwattr $C$DW$863, DW_AT_name("rsvd35")
    7169                      .dwattr $C$DW$863, DW_AT_TI_symbol_name("_rsvd35")
    7170                      .dwattr $C$DW$863, DW_AT_data_member_location[DW_OP_plus_uconst 0xb3]
    7171                      .dwattr $C$DW$863, DW_AT_accessibility(DW_ACCESS_public)
    7172              $C$DW$864       .dwtag  DW_TAG_member
    7173                      .dwattr $C$DW$864, DW_AT_type(*$C$DW$T$178)
    7174                      .dwattr $C$DW$864, DW_AT_name("ETCNTINIT")
    7175                      .dwattr $C$DW$864, DW_AT_TI_symbol_name("_ETCNTINIT")
    7176                      .dwattr $C$DW$864, DW_AT_data_member_location[DW_OP_plus_uconst 0xb4]
    7177                      .dwattr $C$DW$864, DW_AT_accessibility(DW_ACCESS_public)
    7178              $C$DW$865       .dwtag  DW_TAG_member
    7179                      .dwattr $C$DW$865, DW_AT_type(*$C$DW$T$163)
    7180                      .dwattr $C$DW$865, DW_AT_name("rsvd36")
    7181                      .dwattr $C$DW$865, DW_AT_TI_symbol_name("_rsvd36")
    7182                      .dwattr $C$DW$865, DW_AT_data_member_location[DW_OP_plus_uconst 0xb5]
    7183                      .dwattr $C$DW$865, DW_AT_accessibility(DW_ACCESS_public)
    7184              $C$DW$866       .dwtag  DW_TAG_member
TMS320C2000 Assembler PC v6.4.2 Thu Dec 14 15:27:05 2017

Tools Copyright (c) 1996-2015 Texas Instruments Incorporated
fsm_main.asm                                                         PAGE  134

    7185                      .dwattr $C$DW$866, DW_AT_type(*$C$DW$T$144)
    7186                      .dwattr $C$DW$866, DW_AT_name("DCTRIPSEL")
    7187                      .dwattr $C$DW$866, DW_AT_TI_symbol_name("_DCTRIPSEL")
    7188                      .dwattr $C$DW$866, DW_AT_data_member_location[DW_OP_plus_uconst 0xc0]
    7189                      .dwattr $C$DW$866, DW_AT_accessibility(DW_ACCESS_public)
    7190              $C$DW$867       .dwtag  DW_TAG_member
    7191                      .dwattr $C$DW$867, DW_AT_type(*$C$DW$T$162)
    7192                      .dwattr $C$DW$867, DW_AT_name("rsvd37")
    7193                      .dwattr $C$DW$867, DW_AT_TI_symbol_name("_rsvd37")
    7194                      .dwattr $C$DW$867, DW_AT_data_member_location[DW_OP_plus_uconst 0xc1]
    7195                      .dwattr $C$DW$867, DW_AT_accessibility(DW_ACCESS_public)
    7196              $C$DW$868       .dwtag  DW_TAG_member
    7197                      .dwattr $C$DW$868, DW_AT_type(*$C$DW$T$128)
    7198                      .dwattr $C$DW$868, DW_AT_name("DCACTL")
    7199                      .dwattr $C$DW$868, DW_AT_TI_symbol_name("_DCACTL")
    7200                      .dwattr $C$DW$868, DW_AT_data_member_location[DW_OP_plus_uconst 0xc3]
    7201                      .dwattr $C$DW$868, DW_AT_accessibility(DW_ACCESS_public)
    7202              $C$DW$869       .dwtag  DW_TAG_member
    7203                      .dwattr $C$DW$869, DW_AT_type(*$C$DW$T$134)
    7204                      .dwattr $C$DW$869, DW_AT_name("DCBCTL")
    7205                      .dwattr $C$DW$869, DW_AT_TI_symbol_name("_DCBCTL")
    7206                      .dwattr $C$DW$869, DW_AT_data_member_location[DW_OP_plus_uconst 0xc4]
    7207                      .dwattr $C$DW$869, DW_AT_accessibility(DW_ACCESS_public)
    7208              $C$DW$870       .dwtag  DW_TAG_member
    7209                      .dwattr $C$DW$870, DW_AT_type(*$C$DW$T$162)
    7210                      .dwattr $C$DW$870, DW_AT_name("rsvd38")
    7211                      .dwattr $C$DW$870, DW_AT_TI_symbol_name("_rsvd38")
    7212                      .dwattr $C$DW$870, DW_AT_data_member_location[DW_OP_plus_uconst 0xc5]
    7213                      .dwattr $C$DW$870, DW_AT_accessibility(DW_ACCESS_public)
    7214              $C$DW$871       .dwtag  DW_TAG_member
    7215                      .dwattr $C$DW$871, DW_AT_type(*$C$DW$T$142)
    7216                      .dwattr $C$DW$871, DW_AT_name("DCFCTL")
    7217                      .dwattr $C$DW$871, DW_AT_TI_symbol_name("_DCFCTL")
    7218                      .dwattr $C$DW$871, DW_AT_data_member_location[DW_OP_plus_uconst 0xc7]
    7219                      .dwattr $C$DW$871, DW_AT_accessibility(DW_ACCESS_public)
    7220              $C$DW$872       .dwtag  DW_TAG_member
    7221                      .dwattr $C$DW$872, DW_AT_type(*$C$DW$T$140)
    7222                      .dwattr $C$DW$872, DW_AT_name("DCCAPCTL")
    7223                      .dwattr $C$DW$872, DW_AT_TI_symbol_name("_DCCAPCTL")
    7224                      .dwattr $C$DW$872, DW_AT_data_member_location[DW_OP_plus_uconst 0xc8]
    7225                      .dwattr $C$DW$872, DW_AT_accessibility(DW_ACCESS_public)
    7226              $C$DW$873       .dwtag  DW_TAG_member
    7227                      .dwattr $C$DW$873, DW_AT_type(*$C$DW$T$34)
    7228                      .dwattr $C$DW$873, DW_AT_name("DCFOFFSET")
    7229                      .dwattr $C$DW$873, DW_AT_TI_symbol_name("_DCFOFFSET")
    7230                      .dwattr $C$DW$873, DW_AT_data_member_location[DW_OP_plus_uconst 0xc9]
    7231                      .dwattr $C$DW$873, DW_AT_accessibility(DW_ACCESS_public)
    7232              $C$DW$874       .dwtag  DW_TAG_member
    7233                      .dwattr $C$DW$874, DW_AT_type(*$C$DW$T$34)
    7234                      .dwattr $C$DW$874, DW_AT_name("DCFOFFSETCNT")
    7235                      .dwattr $C$DW$874, DW_AT_TI_symbol_name("_DCFOFFSETCNT")
    7236                      .dwattr $C$DW$874, DW_AT_data_member_location[DW_OP_plus_uconst 0xca]
    7237                      .dwattr $C$DW$874, DW_AT_accessibility(DW_ACCESS_public)
    7238              $C$DW$875       .dwtag  DW_TAG_member
    7239                      .dwattr $C$DW$875, DW_AT_type(*$C$DW$T$34)
TMS320C2000 Assembler PC v6.4.2 Thu Dec 14 15:27:05 2017

Tools Copyright (c) 1996-2015 Texas Instruments Incorporated
fsm_main.asm                                                         PAGE  135

    7240                      .dwattr $C$DW$875, DW_AT_name("DCFWINDOW")
    7241                      .dwattr $C$DW$875, DW_AT_TI_symbol_name("_DCFWINDOW")
    7242                      .dwattr $C$DW$875, DW_AT_data_member_location[DW_OP_plus_uconst 0xcb]
    7243                      .dwattr $C$DW$875, DW_AT_accessibility(DW_ACCESS_public)
    7244              $C$DW$876       .dwtag  DW_TAG_member
    7245                      .dwattr $C$DW$876, DW_AT_type(*$C$DW$T$34)
    7246                      .dwattr $C$DW$876, DW_AT_name("DCFWINDOWCNT")
    7247                      .dwattr $C$DW$876, DW_AT_TI_symbol_name("_DCFWINDOWCNT")
    7248                      .dwattr $C$DW$876, DW_AT_data_member_location[DW_OP_plus_uconst 0xcc]
    7249                      .dwattr $C$DW$876, DW_AT_accessibility(DW_ACCESS_public)
    7250              $C$DW$877       .dwtag  DW_TAG_member
    7251                      .dwattr $C$DW$877, DW_AT_type(*$C$DW$T$162)
    7252                      .dwattr $C$DW$877, DW_AT_name("rsvd39")
    7253                      .dwattr $C$DW$877, DW_AT_TI_symbol_name("_rsvd39")
    7254                      .dwattr $C$DW$877, DW_AT_data_member_location[DW_OP_plus_uconst 0xcd]
    7255                      .dwattr $C$DW$877, DW_AT_accessibility(DW_ACCESS_public)
    7256              $C$DW$878       .dwtag  DW_TAG_member
    7257                      .dwattr $C$DW$878, DW_AT_type(*$C$DW$T$34)
    7258                      .dwattr $C$DW$878, DW_AT_name("DCCAP")
    7259                      .dwattr $C$DW$878, DW_AT_TI_symbol_name("_DCCAP")
    7260                      .dwattr $C$DW$878, DW_AT_data_member_location[DW_OP_plus_uconst 0xcf]
    7261                      .dwattr $C$DW$878, DW_AT_accessibility(DW_ACCESS_public)
    7262              $C$DW$879       .dwtag  DW_TAG_member
    7263                      .dwattr $C$DW$879, DW_AT_type(*$C$DW$T$162)
    7264                      .dwattr $C$DW$879, DW_AT_name("rsvd40")
    7265                      .dwattr $C$DW$879, DW_AT_TI_symbol_name("_rsvd40")
    7266                      .dwattr $C$DW$879, DW_AT_data_member_location[DW_OP_plus_uconst 0xd0]
    7267                      .dwattr $C$DW$879, DW_AT_accessibility(DW_ACCESS_public)
    7268              $C$DW$880       .dwtag  DW_TAG_member
    7269                      .dwattr $C$DW$880, DW_AT_type(*$C$DW$T$130)
    7270                      .dwattr $C$DW$880, DW_AT_name("DCAHTRIPSEL")
    7271                      .dwattr $C$DW$880, DW_AT_TI_symbol_name("_DCAHTRIPSEL")
    7272                      .dwattr $C$DW$880, DW_AT_data_member_location[DW_OP_plus_uconst 0xd2]
    7273                      .dwattr $C$DW$880, DW_AT_accessibility(DW_ACCESS_public)
    7274              $C$DW$881       .dwtag  DW_TAG_member
    7275                      .dwattr $C$DW$881, DW_AT_type(*$C$DW$T$132)
    7276                      .dwattr $C$DW$881, DW_AT_name("DCALTRIPSEL")
    7277                      .dwattr $C$DW$881, DW_AT_TI_symbol_name("_DCALTRIPSEL")
    7278                      .dwattr $C$DW$881, DW_AT_data_member_location[DW_OP_plus_uconst 0xd3]
    7279                      .dwattr $C$DW$881, DW_AT_accessibility(DW_ACCESS_public)
    7280              $C$DW$882       .dwtag  DW_TAG_member
    7281                      .dwattr $C$DW$882, DW_AT_type(*$C$DW$T$136)
    7282                      .dwattr $C$DW$882, DW_AT_name("DCBHTRIPSEL")
    7283                      .dwattr $C$DW$882, DW_AT_TI_symbol_name("_DCBHTRIPSEL")
    7284                      .dwattr $C$DW$882, DW_AT_data_member_location[DW_OP_plus_uconst 0xd4]
    7285                      .dwattr $C$DW$882, DW_AT_accessibility(DW_ACCESS_public)
    7286              $C$DW$883       .dwtag  DW_TAG_member
    7287                      .dwattr $C$DW$883, DW_AT_type(*$C$DW$T$138)
    7288                      .dwattr $C$DW$883, DW_AT_name("DCBLTRIPSEL")
    7289                      .dwattr $C$DW$883, DW_AT_TI_symbol_name("_DCBLTRIPSEL")
    7290                      .dwattr $C$DW$883, DW_AT_data_member_location[DW_OP_plus_uconst 0xd5]
    7291                      .dwattr $C$DW$883, DW_AT_accessibility(DW_ACCESS_public)
    7292              $C$DW$884       .dwtag  DW_TAG_member
    7293                      .dwattr $C$DW$884, DW_AT_type(*$C$DW$T$170)
    7294                      .dwattr $C$DW$884, DW_AT_name("rsvd41")
TMS320C2000 Assembler PC v6.4.2 Thu Dec 14 15:27:05 2017

Tools Copyright (c) 1996-2015 Texas Instruments Incorporated
fsm_main.asm                                                         PAGE  136

    7295                      .dwattr $C$DW$884, DW_AT_TI_symbol_name("_rsvd41")
    7296                      .dwattr $C$DW$884, DW_AT_data_member_location[DW_OP_plus_uconst 0xd6]
    7297                      .dwattr $C$DW$884, DW_AT_accessibility(DW_ACCESS_public)
    7298                      .dwendtag $C$DW$T$171
    7299              
    7300              $C$DW$885       .dwtag  DW_TAG_TI_far_type
    7301                      .dwattr $C$DW$885, DW_AT_type(*$C$DW$T$171)
    7302              $C$DW$T$60      .dwtag  DW_TAG_volatile_type
    7303                      .dwattr $C$DW$T$60, DW_AT_type(*$C$DW$885)
    7304              $C$DW$T$61      .dwtag  DW_TAG_pointer_type
    7305                      .dwattr $C$DW$T$61, DW_AT_type(*$C$DW$T$60)
    7306                      .dwattr $C$DW$T$61, DW_AT_address_class(0x20)
    7307              
    7308              $C$DW$T$172     .dwtag  DW_TAG_structure_type
    7309                      .dwattr $C$DW$T$172, DW_AT_name("EQEP_REGS")
    7310                      .dwattr $C$DW$T$172, DW_AT_byte_size(0x22)
    7311              $C$DW$886       .dwtag  DW_TAG_member
    7312                      .dwattr $C$DW$886, DW_AT_type(*$C$DW$T$20)
    7313                      .dwattr $C$DW$886, DW_AT_name("QPOSCNT")
    7314                      .dwattr $C$DW$886, DW_AT_TI_symbol_name("_QPOSCNT")
    7315                      .dwattr $C$DW$886, DW_AT_data_member_location[DW_OP_plus_uconst 0x0]
    7316                      .dwattr $C$DW$886, DW_AT_accessibility(DW_ACCESS_public)
    7317              $C$DW$887       .dwtag  DW_TAG_member
    7318                      .dwattr $C$DW$887, DW_AT_type(*$C$DW$T$20)
    7319                      .dwattr $C$DW$887, DW_AT_name("QPOSINIT")
    7320                      .dwattr $C$DW$887, DW_AT_TI_symbol_name("_QPOSINIT")
    7321                      .dwattr $C$DW$887, DW_AT_data_member_location[DW_OP_plus_uconst 0x2]
    7322                      .dwattr $C$DW$887, DW_AT_accessibility(DW_ACCESS_public)
    7323              $C$DW$888       .dwtag  DW_TAG_member
    7324                      .dwattr $C$DW$888, DW_AT_type(*$C$DW$T$20)
    7325                      .dwattr $C$DW$888, DW_AT_name("QPOSMAX")
    7326                      .dwattr $C$DW$888, DW_AT_TI_symbol_name("_QPOSMAX")
    7327                      .dwattr $C$DW$888, DW_AT_data_member_location[DW_OP_plus_uconst 0x4]
    7328                      .dwattr $C$DW$888, DW_AT_accessibility(DW_ACCESS_public)
    7329              $C$DW$889       .dwtag  DW_TAG_member
    7330                      .dwattr $C$DW$889, DW_AT_type(*$C$DW$T$20)
    7331                      .dwattr $C$DW$889, DW_AT_name("QPOSCMP")
    7332                      .dwattr $C$DW$889, DW_AT_TI_symbol_name("_QPOSCMP")
    7333                      .dwattr $C$DW$889, DW_AT_data_member_location[DW_OP_plus_uconst 0x6]
    7334                      .dwattr $C$DW$889, DW_AT_accessibility(DW_ACCESS_public)
    7335              $C$DW$890       .dwtag  DW_TAG_member
    7336                      .dwattr $C$DW$890, DW_AT_type(*$C$DW$T$20)
    7337                      .dwattr $C$DW$890, DW_AT_name("QPOSILAT")
    7338                      .dwattr $C$DW$890, DW_AT_TI_symbol_name("_QPOSILAT")
    7339                      .dwattr $C$DW$890, DW_AT_data_member_location[DW_OP_plus_uconst 0x8]
    7340                      .dwattr $C$DW$890, DW_AT_accessibility(DW_ACCESS_public)
    7341              $C$DW$891       .dwtag  DW_TAG_member
    7342                      .dwattr $C$DW$891, DW_AT_type(*$C$DW$T$20)
    7343                      .dwattr $C$DW$891, DW_AT_name("QPOSSLAT")
    7344                      .dwattr $C$DW$891, DW_AT_TI_symbol_name("_QPOSSLAT")
    7345                      .dwattr $C$DW$891, DW_AT_data_member_location[DW_OP_plus_uconst 0xa]
    7346                      .dwattr $C$DW$891, DW_AT_accessibility(DW_ACCESS_public)
    7347              $C$DW$892       .dwtag  DW_TAG_member
    7348                      .dwattr $C$DW$892, DW_AT_type(*$C$DW$T$20)
    7349                      .dwattr $C$DW$892, DW_AT_name("QPOSLAT")
TMS320C2000 Assembler PC v6.4.2 Thu Dec 14 15:27:05 2017

Tools Copyright (c) 1996-2015 Texas Instruments Incorporated
fsm_main.asm                                                         PAGE  137

    7350                      .dwattr $C$DW$892, DW_AT_TI_symbol_name("_QPOSLAT")
    7351                      .dwattr $C$DW$892, DW_AT_data_member_location[DW_OP_plus_uconst 0xc]
    7352                      .dwattr $C$DW$892, DW_AT_accessibility(DW_ACCESS_public)
    7353              $C$DW$893       .dwtag  DW_TAG_member
    7354                      .dwattr $C$DW$893, DW_AT_type(*$C$DW$T$20)
    7355                      .dwattr $C$DW$893, DW_AT_name("QUTMR")
    7356                      .dwattr $C$DW$893, DW_AT_TI_symbol_name("_QUTMR")
    7357                      .dwattr $C$DW$893, DW_AT_data_member_location[DW_OP_plus_uconst 0xe]
    7358                      .dwattr $C$DW$893, DW_AT_accessibility(DW_ACCESS_public)
    7359              $C$DW$894       .dwtag  DW_TAG_member
    7360                      .dwattr $C$DW$894, DW_AT_type(*$C$DW$T$20)
    7361                      .dwattr $C$DW$894, DW_AT_name("QUPRD")
    7362                      .dwattr $C$DW$894, DW_AT_TI_symbol_name("_QUPRD")
    7363                      .dwattr $C$DW$894, DW_AT_data_member_location[DW_OP_plus_uconst 0x10]
    7364                      .dwattr $C$DW$894, DW_AT_accessibility(DW_ACCESS_public)
    7365              $C$DW$895       .dwtag  DW_TAG_member
    7366                      .dwattr $C$DW$895, DW_AT_type(*$C$DW$T$34)
    7367                      .dwattr $C$DW$895, DW_AT_name("QWDTMR")
    7368                      .dwattr $C$DW$895, DW_AT_TI_symbol_name("_QWDTMR")
    7369                      .dwattr $C$DW$895, DW_AT_data_member_location[DW_OP_plus_uconst 0x12]
    7370                      .dwattr $C$DW$895, DW_AT_accessibility(DW_ACCESS_public)
    7371              $C$DW$896       .dwtag  DW_TAG_member
    7372                      .dwattr $C$DW$896, DW_AT_type(*$C$DW$T$34)
    7373                      .dwattr $C$DW$896, DW_AT_name("QWDPRD")
    7374                      .dwattr $C$DW$896, DW_AT_TI_symbol_name("_QWDPRD")
    7375                      .dwattr $C$DW$896, DW_AT_data_member_location[DW_OP_plus_uconst 0x13]
    7376                      .dwattr $C$DW$896, DW_AT_accessibility(DW_ACCESS_public)
    7377              $C$DW$897       .dwtag  DW_TAG_member
    7378                      .dwattr $C$DW$897, DW_AT_type(*$C$DW$T$214)
    7379                      .dwattr $C$DW$897, DW_AT_name("QDECCTL")
    7380                      .dwattr $C$DW$897, DW_AT_TI_symbol_name("_QDECCTL")
    7381                      .dwattr $C$DW$897, DW_AT_data_member_location[DW_OP_plus_uconst 0x14]
    7382                      .dwattr $C$DW$897, DW_AT_accessibility(DW_ACCESS_public)
    7383              $C$DW$898       .dwtag  DW_TAG_member
    7384                      .dwattr $C$DW$898, DW_AT_type(*$C$DW$T$218)
    7385                      .dwattr $C$DW$898, DW_AT_name("QEPCTL")
    7386                      .dwattr $C$DW$898, DW_AT_TI_symbol_name("_QEPCTL")
    7387                      .dwattr $C$DW$898, DW_AT_data_member_location[DW_OP_plus_uconst 0x15]
    7388                      .dwattr $C$DW$898, DW_AT_accessibility(DW_ACCESS_public)
    7389              $C$DW$899       .dwtag  DW_TAG_member
    7390                      .dwattr $C$DW$899, DW_AT_type(*$C$DW$T$210)
    7391                      .dwattr $C$DW$899, DW_AT_name("QCAPCTL")
    7392                      .dwattr $C$DW$899, DW_AT_TI_symbol_name("_QCAPCTL")
    7393                      .dwattr $C$DW$899, DW_AT_data_member_location[DW_OP_plus_uconst 0x16]
    7394                      .dwattr $C$DW$899, DW_AT_accessibility(DW_ACCESS_public)
    7395              $C$DW$900       .dwtag  DW_TAG_member
    7396                      .dwattr $C$DW$900, DW_AT_type(*$C$DW$T$226)
    7397                      .dwattr $C$DW$900, DW_AT_name("QPOSCTL")
    7398                      .dwattr $C$DW$900, DW_AT_TI_symbol_name("_QPOSCTL")
    7399                      .dwattr $C$DW$900, DW_AT_data_member_location[DW_OP_plus_uconst 0x17]
    7400                      .dwattr $C$DW$900, DW_AT_accessibility(DW_ACCESS_public)
    7401              $C$DW$901       .dwtag  DW_TAG_member
    7402                      .dwattr $C$DW$901, DW_AT_type(*$C$DW$T$216)
    7403                      .dwattr $C$DW$901, DW_AT_name("QEINT")
    7404                      .dwattr $C$DW$901, DW_AT_TI_symbol_name("_QEINT")
TMS320C2000 Assembler PC v6.4.2 Thu Dec 14 15:27:05 2017

Tools Copyright (c) 1996-2015 Texas Instruments Incorporated
fsm_main.asm                                                         PAGE  138

    7405                      .dwattr $C$DW$901, DW_AT_data_member_location[DW_OP_plus_uconst 0x18]
    7406                      .dwattr $C$DW$901, DW_AT_accessibility(DW_ACCESS_public)
    7407              $C$DW$902       .dwtag  DW_TAG_member
    7408                      .dwattr $C$DW$902, DW_AT_type(*$C$DW$T$222)
    7409                      .dwattr $C$DW$902, DW_AT_name("QFLG")
    7410                      .dwattr $C$DW$902, DW_AT_TI_symbol_name("_QFLG")
    7411                      .dwattr $C$DW$902, DW_AT_data_member_location[DW_OP_plus_uconst 0x19]
    7412                      .dwattr $C$DW$902, DW_AT_accessibility(DW_ACCESS_public)
    7413              $C$DW$903       .dwtag  DW_TAG_member
    7414                      .dwattr $C$DW$903, DW_AT_type(*$C$DW$T$212)
    7415                      .dwattr $C$DW$903, DW_AT_name("QCLR")
    7416                      .dwattr $C$DW$903, DW_AT_TI_symbol_name("_QCLR")
    7417                      .dwattr $C$DW$903, DW_AT_data_member_location[DW_OP_plus_uconst 0x1a]
    7418                      .dwattr $C$DW$903, DW_AT_accessibility(DW_ACCESS_public)
    7419              $C$DW$904       .dwtag  DW_TAG_member
    7420                      .dwattr $C$DW$904, DW_AT_type(*$C$DW$T$224)
    7421                      .dwattr $C$DW$904, DW_AT_name("QFRC")
    7422                      .dwattr $C$DW$904, DW_AT_TI_symbol_name("_QFRC")
    7423                      .dwattr $C$DW$904, DW_AT_data_member_location[DW_OP_plus_uconst 0x1b]
    7424                      .dwattr $C$DW$904, DW_AT_accessibility(DW_ACCESS_public)
    7425              $C$DW$905       .dwtag  DW_TAG_member
    7426                      .dwattr $C$DW$905, DW_AT_type(*$C$DW$T$220)
    7427                      .dwattr $C$DW$905, DW_AT_name("QEPSTS")
    7428                      .dwattr $C$DW$905, DW_AT_TI_symbol_name("_QEPSTS")
    7429                      .dwattr $C$DW$905, DW_AT_data_member_location[DW_OP_plus_uconst 0x1c]
    7430                      .dwattr $C$DW$905, DW_AT_accessibility(DW_ACCESS_public)
    7431              $C$DW$906       .dwtag  DW_TAG_member
    7432                      .dwattr $C$DW$906, DW_AT_type(*$C$DW$T$34)
    7433                      .dwattr $C$DW$906, DW_AT_name("QCTMR")
    7434                      .dwattr $C$DW$906, DW_AT_TI_symbol_name("_QCTMR")
    7435                      .dwattr $C$DW$906, DW_AT_data_member_location[DW_OP_plus_uconst 0x1d]
    7436                      .dwattr $C$DW$906, DW_AT_accessibility(DW_ACCESS_public)
    7437              $C$DW$907       .dwtag  DW_TAG_member
    7438                      .dwattr $C$DW$907, DW_AT_type(*$C$DW$T$34)
    7439                      .dwattr $C$DW$907, DW_AT_name("QCPRD")
    7440                      .dwattr $C$DW$907, DW_AT_TI_symbol_name("_QCPRD")
    7441                      .dwattr $C$DW$907, DW_AT_data_member_location[DW_OP_plus_uconst 0x1e]
    7442                      .dwattr $C$DW$907, DW_AT_accessibility(DW_ACCESS_public)
    7443              $C$DW$908       .dwtag  DW_TAG_member
    7444                      .dwattr $C$DW$908, DW_AT_type(*$C$DW$T$34)
    7445                      .dwattr $C$DW$908, DW_AT_name("QCTMRLAT")
    7446                      .dwattr $C$DW$908, DW_AT_TI_symbol_name("_QCTMRLAT")
    7447                      .dwattr $C$DW$908, DW_AT_data_member_location[DW_OP_plus_uconst 0x1f]
    7448                      .dwattr $C$DW$908, DW_AT_accessibility(DW_ACCESS_public)
    7449              $C$DW$909       .dwtag  DW_TAG_member
    7450                      .dwattr $C$DW$909, DW_AT_type(*$C$DW$T$34)
    7451                      .dwattr $C$DW$909, DW_AT_name("QCPRDLAT")
    7452                      .dwattr $C$DW$909, DW_AT_TI_symbol_name("_QCPRDLAT")
    7453                      .dwattr $C$DW$909, DW_AT_data_member_location[DW_OP_plus_uconst 0x20]
    7454                      .dwattr $C$DW$909, DW_AT_accessibility(DW_ACCESS_public)
    7455              $C$DW$910       .dwtag  DW_TAG_member
    7456                      .dwattr $C$DW$910, DW_AT_type(*$C$DW$T$34)
    7457                      .dwattr $C$DW$910, DW_AT_name("rsvd1")
    7458                      .dwattr $C$DW$910, DW_AT_TI_symbol_name("_rsvd1")
    7459                      .dwattr $C$DW$910, DW_AT_data_member_location[DW_OP_plus_uconst 0x21]
TMS320C2000 Assembler PC v6.4.2 Thu Dec 14 15:27:05 2017

Tools Copyright (c) 1996-2015 Texas Instruments Incorporated
fsm_main.asm                                                         PAGE  139

    7460                      .dwattr $C$DW$910, DW_AT_accessibility(DW_ACCESS_public)
    7461                      .dwendtag $C$DW$T$172
    7462              
    7463              $C$DW$911       .dwtag  DW_TAG_TI_far_type
    7464                      .dwattr $C$DW$911, DW_AT_type(*$C$DW$T$172)
    7465              $C$DW$T$62      .dwtag  DW_TAG_volatile_type
    7466                      .dwattr $C$DW$T$62, DW_AT_type(*$C$DW$911)
    7467              $C$DW$T$63      .dwtag  DW_TAG_pointer_type
    7468                      .dwattr $C$DW$T$63, DW_AT_type(*$C$DW$T$62)
    7469                      .dwattr $C$DW$T$63, DW_AT_address_class(0x20)
    7470              
    7471              $C$DW$T$173     .dwtag  DW_TAG_structure_type
    7472                      .dwattr $C$DW$T$173, DW_AT_name("ETCLR_BITS")
    7473                      .dwattr $C$DW$T$173, DW_AT_byte_size(0x01)
    7474              $C$DW$912       .dwtag  DW_TAG_member
    7475                      .dwattr $C$DW$912, DW_AT_type(*$C$DW$T$34)
    7476                      .dwattr $C$DW$912, DW_AT_name("INT")
    7477                      .dwattr $C$DW$912, DW_AT_TI_symbol_name("_INT")
    7478                      .dwattr $C$DW$912, DW_AT_bit_offset(0x0f), DW_AT_bit_size(0x01)
    7479                      .dwattr $C$DW$912, DW_AT_data_member_location[DW_OP_plus_uconst 0x0]
    7480                      .dwattr $C$DW$912, DW_AT_accessibility(DW_ACCESS_public)
    7481              $C$DW$913       .dwtag  DW_TAG_member
    7482                      .dwattr $C$DW$913, DW_AT_type(*$C$DW$T$34)
    7483                      .dwattr $C$DW$913, DW_AT_name("rsvd1")
    7484                      .dwattr $C$DW$913, DW_AT_TI_symbol_name("_rsvd1")
    7485                      .dwattr $C$DW$913, DW_AT_bit_offset(0x0e), DW_AT_bit_size(0x01)
    7486                      .dwattr $C$DW$913, DW_AT_data_member_location[DW_OP_plus_uconst 0x0]
    7487                      .dwattr $C$DW$913, DW_AT_accessibility(DW_ACCESS_public)
    7488              $C$DW$914       .dwtag  DW_TAG_member
    7489                      .dwattr $C$DW$914, DW_AT_type(*$C$DW$T$34)
    7490                      .dwattr $C$DW$914, DW_AT_name("SOCA")
    7491                      .dwattr $C$DW$914, DW_AT_TI_symbol_name("_SOCA")
    7492                      .dwattr $C$DW$914, DW_AT_bit_offset(0x0d), DW_AT_bit_size(0x01)
    7493                      .dwattr $C$DW$914, DW_AT_data_member_location[DW_OP_plus_uconst 0x0]
    7494                      .dwattr $C$DW$914, DW_AT_accessibility(DW_ACCESS_public)
    7495              $C$DW$915       .dwtag  DW_TAG_member
    7496                      .dwattr $C$DW$915, DW_AT_type(*$C$DW$T$34)
    7497                      .dwattr $C$DW$915, DW_AT_name("SOCB")
    7498                      .dwattr $C$DW$915, DW_AT_TI_symbol_name("_SOCB")
    7499                      .dwattr $C$DW$915, DW_AT_bit_offset(0x0c), DW_AT_bit_size(0x01)
    7500                      .dwattr $C$DW$915, DW_AT_data_member_location[DW_OP_plus_uconst 0x0]
    7501                      .dwattr $C$DW$915, DW_AT_accessibility(DW_ACCESS_public)
    7502              $C$DW$916       .dwtag  DW_TAG_member
    7503                      .dwattr $C$DW$916, DW_AT_type(*$C$DW$T$34)
    7504                      .dwattr $C$DW$916, DW_AT_name("rsvd2")
    7505                      .dwattr $C$DW$916, DW_AT_TI_symbol_name("_rsvd2")
    7506                      .dwattr $C$DW$916, DW_AT_bit_offset(0x00), DW_AT_bit_size(0x0c)
    7507                      .dwattr $C$DW$916, DW_AT_data_member_location[DW_OP_plus_uconst 0x0]
    7508                      .dwattr $C$DW$916, DW_AT_accessibility(DW_ACCESS_public)
    7509                      .dwendtag $C$DW$T$173
    7510              
    7511              
    7512              $C$DW$T$174     .dwtag  DW_TAG_union_type
    7513                      .dwattr $C$DW$T$174, DW_AT_name("ETCLR_REG")
    7514                      .dwattr $C$DW$T$174, DW_AT_byte_size(0x01)
TMS320C2000 Assembler PC v6.4.2 Thu Dec 14 15:27:05 2017

Tools Copyright (c) 1996-2015 Texas Instruments Incorporated
fsm_main.asm                                                         PAGE  140

    7515              $C$DW$917       .dwtag  DW_TAG_member
    7516                      .dwattr $C$DW$917, DW_AT_type(*$C$DW$T$34)
    7517                      .dwattr $C$DW$917, DW_AT_name("all")
    7518                      .dwattr $C$DW$917, DW_AT_TI_symbol_name("_all")
    7519                      .dwattr $C$DW$917, DW_AT_data_member_location[DW_OP_plus_uconst 0x0]
    7520                      .dwattr $C$DW$917, DW_AT_accessibility(DW_ACCESS_public)
    7521              $C$DW$918       .dwtag  DW_TAG_member
    7522                      .dwattr $C$DW$918, DW_AT_type(*$C$DW$T$173)
    7523                      .dwattr $C$DW$918, DW_AT_name("bit")
    7524                      .dwattr $C$DW$918, DW_AT_TI_symbol_name("_bit")
    7525                      .dwattr $C$DW$918, DW_AT_data_member_location[DW_OP_plus_uconst 0x0]
    7526                      .dwattr $C$DW$918, DW_AT_accessibility(DW_ACCESS_public)
    7527                      .dwendtag $C$DW$T$174
    7528              
    7529              
    7530              $C$DW$T$175     .dwtag  DW_TAG_structure_type
    7531                      .dwattr $C$DW$T$175, DW_AT_name("ETCNTINITCTL_BITS")
    7532                      .dwattr $C$DW$T$175, DW_AT_byte_size(0x01)
    7533              $C$DW$919       .dwtag  DW_TAG_member
    7534                      .dwattr $C$DW$919, DW_AT_type(*$C$DW$T$34)
    7535                      .dwattr $C$DW$919, DW_AT_name("rsvd1")
    7536                      .dwattr $C$DW$919, DW_AT_TI_symbol_name("_rsvd1")
    7537                      .dwattr $C$DW$919, DW_AT_bit_offset(0x06), DW_AT_bit_size(0x0a)
    7538                      .dwattr $C$DW$919, DW_AT_data_member_location[DW_OP_plus_uconst 0x0]
    7539                      .dwattr $C$DW$919, DW_AT_accessibility(DW_ACCESS_public)
    7540              $C$DW$920       .dwtag  DW_TAG_member
    7541                      .dwattr $C$DW$920, DW_AT_type(*$C$DW$T$34)
    7542                      .dwattr $C$DW$920, DW_AT_name("INTINITFRC")
    7543                      .dwattr $C$DW$920, DW_AT_TI_symbol_name("_INTINITFRC")
    7544                      .dwattr $C$DW$920, DW_AT_bit_offset(0x05), DW_AT_bit_size(0x01)
    7545                      .dwattr $C$DW$920, DW_AT_data_member_location[DW_OP_plus_uconst 0x0]
    7546                      .dwattr $C$DW$920, DW_AT_accessibility(DW_ACCESS_public)
    7547              $C$DW$921       .dwtag  DW_TAG_member
    7548                      .dwattr $C$DW$921, DW_AT_type(*$C$DW$T$34)
    7549                      .dwattr $C$DW$921, DW_AT_name("SOCAINITFRC")
    7550                      .dwattr $C$DW$921, DW_AT_TI_symbol_name("_SOCAINITFRC")
    7551                      .dwattr $C$DW$921, DW_AT_bit_offset(0x04), DW_AT_bit_size(0x01)
    7552                      .dwattr $C$DW$921, DW_AT_data_member_location[DW_OP_plus_uconst 0x0]
    7553                      .dwattr $C$DW$921, DW_AT_accessibility(DW_ACCESS_public)
    7554              $C$DW$922       .dwtag  DW_TAG_member
    7555                      .dwattr $C$DW$922, DW_AT_type(*$C$DW$T$34)
    7556                      .dwattr $C$DW$922, DW_AT_name("SOCBINITFRC")
    7557                      .dwattr $C$DW$922, DW_AT_TI_symbol_name("_SOCBINITFRC")
    7558                      .dwattr $C$DW$922, DW_AT_bit_offset(0x03), DW_AT_bit_size(0x01)
    7559                      .dwattr $C$DW$922, DW_AT_data_member_location[DW_OP_plus_uconst 0x0]
    7560                      .dwattr $C$DW$922, DW_AT_accessibility(DW_ACCESS_public)
    7561              $C$DW$923       .dwtag  DW_TAG_member
    7562                      .dwattr $C$DW$923, DW_AT_type(*$C$DW$T$34)
    7563                      .dwattr $C$DW$923, DW_AT_name("INTINITEN")
    7564                      .dwattr $C$DW$923, DW_AT_TI_symbol_name("_INTINITEN")
    7565                      .dwattr $C$DW$923, DW_AT_bit_offset(0x02), DW_AT_bit_size(0x01)
    7566                      .dwattr $C$DW$923, DW_AT_data_member_location[DW_OP_plus_uconst 0x0]
    7567                      .dwattr $C$DW$923, DW_AT_accessibility(DW_ACCESS_public)
    7568              $C$DW$924       .dwtag  DW_TAG_member
    7569                      .dwattr $C$DW$924, DW_AT_type(*$C$DW$T$34)
TMS320C2000 Assembler PC v6.4.2 Thu Dec 14 15:27:05 2017

Tools Copyright (c) 1996-2015 Texas Instruments Incorporated
fsm_main.asm                                                         PAGE  141

    7570                      .dwattr $C$DW$924, DW_AT_name("SOCAINITEN")
    7571                      .dwattr $C$DW$924, DW_AT_TI_symbol_name("_SOCAINITEN")
    7572                      .dwattr $C$DW$924, DW_AT_bit_offset(0x01), DW_AT_bit_size(0x01)
    7573                      .dwattr $C$DW$924, DW_AT_data_member_location[DW_OP_plus_uconst 0x0]
    7574                      .dwattr $C$DW$924, DW_AT_accessibility(DW_ACCESS_public)
    7575              $C$DW$925       .dwtag  DW_TAG_member
    7576                      .dwattr $C$DW$925, DW_AT_type(*$C$DW$T$34)
    7577                      .dwattr $C$DW$925, DW_AT_name("SOCBINITEN")
    7578                      .dwattr $C$DW$925, DW_AT_TI_symbol_name("_SOCBINITEN")
    7579                      .dwattr $C$DW$925, DW_AT_bit_offset(0x00), DW_AT_bit_size(0x01)
    7580                      .dwattr $C$DW$925, DW_AT_data_member_location[DW_OP_plus_uconst 0x0]
    7581                      .dwattr $C$DW$925, DW_AT_accessibility(DW_ACCESS_public)
    7582                      .dwendtag $C$DW$T$175
    7583              
    7584              
    7585              $C$DW$T$176     .dwtag  DW_TAG_union_type
    7586                      .dwattr $C$DW$T$176, DW_AT_name("ETCNTINITCTL_REG")
    7587                      .dwattr $C$DW$T$176, DW_AT_byte_size(0x01)
    7588              $C$DW$926       .dwtag  DW_TAG_member
    7589                      .dwattr $C$DW$926, DW_AT_type(*$C$DW$T$34)
    7590                      .dwattr $C$DW$926, DW_AT_name("all")
    7591                      .dwattr $C$DW$926, DW_AT_TI_symbol_name("_all")
    7592                      .dwattr $C$DW$926, DW_AT_data_member_location[DW_OP_plus_uconst 0x0]
    7593                      .dwattr $C$DW$926, DW_AT_accessibility(DW_ACCESS_public)
    7594              $C$DW$927       .dwtag  DW_TAG_member
    7595                      .dwattr $C$DW$927, DW_AT_type(*$C$DW$T$175)
    7596                      .dwattr $C$DW$927, DW_AT_name("bit")
    7597                      .dwattr $C$DW$927, DW_AT_TI_symbol_name("_bit")
    7598                      .dwattr $C$DW$927, DW_AT_data_member_location[DW_OP_plus_uconst 0x0]
    7599                      .dwattr $C$DW$927, DW_AT_accessibility(DW_ACCESS_public)
    7600                      .dwendtag $C$DW$T$176
    7601              
    7602              
    7603              $C$DW$T$177     .dwtag  DW_TAG_structure_type
    7604                      .dwattr $C$DW$T$177, DW_AT_name("ETCNTINIT_BITS")
    7605                      .dwattr $C$DW$T$177, DW_AT_byte_size(0x01)
    7606              $C$DW$928       .dwtag  DW_TAG_member
    7607                      .dwattr $C$DW$928, DW_AT_type(*$C$DW$T$34)
    7608                      .dwattr $C$DW$928, DW_AT_name("INTINIT")
    7609                      .dwattr $C$DW$928, DW_AT_TI_symbol_name("_INTINIT")
    7610                      .dwattr $C$DW$928, DW_AT_bit_offset(0x0c), DW_AT_bit_size(0x04)
    7611                      .dwattr $C$DW$928, DW_AT_data_member_location[DW_OP_plus_uconst 0x0]
    7612                      .dwattr $C$DW$928, DW_AT_accessibility(DW_ACCESS_public)
    7613              $C$DW$929       .dwtag  DW_TAG_member
    7614                      .dwattr $C$DW$929, DW_AT_type(*$C$DW$T$34)
    7615                      .dwattr $C$DW$929, DW_AT_name("SOCAINIT")
    7616                      .dwattr $C$DW$929, DW_AT_TI_symbol_name("_SOCAINIT")
    7617                      .dwattr $C$DW$929, DW_AT_bit_offset(0x08), DW_AT_bit_size(0x04)
    7618                      .dwattr $C$DW$929, DW_AT_data_member_location[DW_OP_plus_uconst 0x0]
    7619                      .dwattr $C$DW$929, DW_AT_accessibility(DW_ACCESS_public)
    7620              $C$DW$930       .dwtag  DW_TAG_member
    7621                      .dwattr $C$DW$930, DW_AT_type(*$C$DW$T$34)
    7622                      .dwattr $C$DW$930, DW_AT_name("SOCBINIT")
    7623                      .dwattr $C$DW$930, DW_AT_TI_symbol_name("_SOCBINIT")
    7624                      .dwattr $C$DW$930, DW_AT_bit_offset(0x04), DW_AT_bit_size(0x04)
TMS320C2000 Assembler PC v6.4.2 Thu Dec 14 15:27:05 2017

Tools Copyright (c) 1996-2015 Texas Instruments Incorporated
fsm_main.asm                                                         PAGE  142

    7625                      .dwattr $C$DW$930, DW_AT_data_member_location[DW_OP_plus_uconst 0x0]
    7626                      .dwattr $C$DW$930, DW_AT_accessibility(DW_ACCESS_public)
    7627              $C$DW$931       .dwtag  DW_TAG_member
    7628                      .dwattr $C$DW$931, DW_AT_type(*$C$DW$T$34)
    7629                      .dwattr $C$DW$931, DW_AT_name("rsvd1")
    7630                      .dwattr $C$DW$931, DW_AT_TI_symbol_name("_rsvd1")
    7631                      .dwattr $C$DW$931, DW_AT_bit_offset(0x00), DW_AT_bit_size(0x04)
    7632                      .dwattr $C$DW$931, DW_AT_data_member_location[DW_OP_plus_uconst 0x0]
    7633                      .dwattr $C$DW$931, DW_AT_accessibility(DW_ACCESS_public)
    7634                      .dwendtag $C$DW$T$177
    7635              
    7636              
    7637              $C$DW$T$178     .dwtag  DW_TAG_union_type
    7638                      .dwattr $C$DW$T$178, DW_AT_name("ETCNTINIT_REG")
    7639                      .dwattr $C$DW$T$178, DW_AT_byte_size(0x01)
    7640              $C$DW$932       .dwtag  DW_TAG_member
    7641                      .dwattr $C$DW$932, DW_AT_type(*$C$DW$T$34)
    7642                      .dwattr $C$DW$932, DW_AT_name("all")
    7643                      .dwattr $C$DW$932, DW_AT_TI_symbol_name("_all")
    7644                      .dwattr $C$DW$932, DW_AT_data_member_location[DW_OP_plus_uconst 0x0]
    7645                      .dwattr $C$DW$932, DW_AT_accessibility(DW_ACCESS_public)
    7646              $C$DW$933       .dwtag  DW_TAG_member
    7647                      .dwattr $C$DW$933, DW_AT_type(*$C$DW$T$177)
    7648                      .dwattr $C$DW$933, DW_AT_name("bit")
    7649                      .dwattr $C$DW$933, DW_AT_TI_symbol_name("_bit")
    7650                      .dwattr $C$DW$933, DW_AT_data_member_location[DW_OP_plus_uconst 0x0]
    7651                      .dwattr $C$DW$933, DW_AT_accessibility(DW_ACCESS_public)
    7652                      .dwendtag $C$DW$T$178
    7653              
    7654              
    7655              $C$DW$T$179     .dwtag  DW_TAG_structure_type
    7656                      .dwattr $C$DW$T$179, DW_AT_name("ETFLG_BITS")
    7657                      .dwattr $C$DW$T$179, DW_AT_byte_size(0x01)
    7658              $C$DW$934       .dwtag  DW_TAG_member
    7659                      .dwattr $C$DW$934, DW_AT_type(*$C$DW$T$34)
    7660                      .dwattr $C$DW$934, DW_AT_name("INT")
    7661                      .dwattr $C$DW$934, DW_AT_TI_symbol_name("_INT")
    7662                      .dwattr $C$DW$934, DW_AT_bit_offset(0x0f), DW_AT_bit_size(0x01)
    7663                      .dwattr $C$DW$934, DW_AT_data_member_location[DW_OP_plus_uconst 0x0]
    7664                      .dwattr $C$DW$934, DW_AT_accessibility(DW_ACCESS_public)
    7665              $C$DW$935       .dwtag  DW_TAG_member
    7666                      .dwattr $C$DW$935, DW_AT_type(*$C$DW$T$34)
    7667                      .dwattr $C$DW$935, DW_AT_name("rsvd1")
    7668                      .dwattr $C$DW$935, DW_AT_TI_symbol_name("_rsvd1")
    7669                      .dwattr $C$DW$935, DW_AT_bit_offset(0x0e), DW_AT_bit_size(0x01)
    7670                      .dwattr $C$DW$935, DW_AT_data_member_location[DW_OP_plus_uconst 0x0]
    7671                      .dwattr $C$DW$935, DW_AT_accessibility(DW_ACCESS_public)
    7672              $C$DW$936       .dwtag  DW_TAG_member
    7673                      .dwattr $C$DW$936, DW_AT_type(*$C$DW$T$34)
    7674                      .dwattr $C$DW$936, DW_AT_name("SOCA")
    7675                      .dwattr $C$DW$936, DW_AT_TI_symbol_name("_SOCA")
    7676                      .dwattr $C$DW$936, DW_AT_bit_offset(0x0d), DW_AT_bit_size(0x01)
    7677                      .dwattr $C$DW$936, DW_AT_data_member_location[DW_OP_plus_uconst 0x0]
    7678                      .dwattr $C$DW$936, DW_AT_accessibility(DW_ACCESS_public)
    7679              $C$DW$937       .dwtag  DW_TAG_member
TMS320C2000 Assembler PC v6.4.2 Thu Dec 14 15:27:05 2017

Tools Copyright (c) 1996-2015 Texas Instruments Incorporated
fsm_main.asm                                                         PAGE  143

    7680                      .dwattr $C$DW$937, DW_AT_type(*$C$DW$T$34)
    7681                      .dwattr $C$DW$937, DW_AT_name("SOCB")
    7682                      .dwattr $C$DW$937, DW_AT_TI_symbol_name("_SOCB")
    7683                      .dwattr $C$DW$937, DW_AT_bit_offset(0x0c), DW_AT_bit_size(0x01)
    7684                      .dwattr $C$DW$937, DW_AT_data_member_location[DW_OP_plus_uconst 0x0]
    7685                      .dwattr $C$DW$937, DW_AT_accessibility(DW_ACCESS_public)
    7686              $C$DW$938       .dwtag  DW_TAG_member
    7687                      .dwattr $C$DW$938, DW_AT_type(*$C$DW$T$34)
    7688                      .dwattr $C$DW$938, DW_AT_name("rsvd2")
    7689                      .dwattr $C$DW$938, DW_AT_TI_symbol_name("_rsvd2")
    7690                      .dwattr $C$DW$938, DW_AT_bit_offset(0x00), DW_AT_bit_size(0x0c)
    7691                      .dwattr $C$DW$938, DW_AT_data_member_location[DW_OP_plus_uconst 0x0]
    7692                      .dwattr $C$DW$938, DW_AT_accessibility(DW_ACCESS_public)
    7693                      .dwendtag $C$DW$T$179
    7694              
    7695              
    7696              $C$DW$T$180     .dwtag  DW_TAG_union_type
    7697                      .dwattr $C$DW$T$180, DW_AT_name("ETFLG_REG")
    7698                      .dwattr $C$DW$T$180, DW_AT_byte_size(0x01)
    7699              $C$DW$939       .dwtag  DW_TAG_member
    7700                      .dwattr $C$DW$939, DW_AT_type(*$C$DW$T$34)
    7701                      .dwattr $C$DW$939, DW_AT_name("all")
    7702                      .dwattr $C$DW$939, DW_AT_TI_symbol_name("_all")
    7703                      .dwattr $C$DW$939, DW_AT_data_member_location[DW_OP_plus_uconst 0x0]
    7704                      .dwattr $C$DW$939, DW_AT_accessibility(DW_ACCESS_public)
    7705              $C$DW$940       .dwtag  DW_TAG_member
    7706                      .dwattr $C$DW$940, DW_AT_type(*$C$DW$T$179)
    7707                      .dwattr $C$DW$940, DW_AT_name("bit")
    7708                      .dwattr $C$DW$940, DW_AT_TI_symbol_name("_bit")
    7709                      .dwattr $C$DW$940, DW_AT_data_member_location[DW_OP_plus_uconst 0x0]
    7710                      .dwattr $C$DW$940, DW_AT_accessibility(DW_ACCESS_public)
    7711                      .dwendtag $C$DW$T$180
    7712              
    7713              
    7714              $C$DW$T$181     .dwtag  DW_TAG_structure_type
    7715                      .dwattr $C$DW$T$181, DW_AT_name("ETFRC_BITS")
    7716                      .dwattr $C$DW$T$181, DW_AT_byte_size(0x01)
    7717              $C$DW$941       .dwtag  DW_TAG_member
    7718                      .dwattr $C$DW$941, DW_AT_type(*$C$DW$T$34)
    7719                      .dwattr $C$DW$941, DW_AT_name("INT")
    7720                      .dwattr $C$DW$941, DW_AT_TI_symbol_name("_INT")
    7721                      .dwattr $C$DW$941, DW_AT_bit_offset(0x0f), DW_AT_bit_size(0x01)
    7722                      .dwattr $C$DW$941, DW_AT_data_member_location[DW_OP_plus_uconst 0x0]
    7723                      .dwattr $C$DW$941, DW_AT_accessibility(DW_ACCESS_public)
    7724              $C$DW$942       .dwtag  DW_TAG_member
    7725                      .dwattr $C$DW$942, DW_AT_type(*$C$DW$T$34)
    7726                      .dwattr $C$DW$942, DW_AT_name("rsvd1")
    7727                      .dwattr $C$DW$942, DW_AT_TI_symbol_name("_rsvd1")
    7728                      .dwattr $C$DW$942, DW_AT_bit_offset(0x0e), DW_AT_bit_size(0x01)
    7729                      .dwattr $C$DW$942, DW_AT_data_member_location[DW_OP_plus_uconst 0x0]
    7730                      .dwattr $C$DW$942, DW_AT_accessibility(DW_ACCESS_public)
    7731              $C$DW$943       .dwtag  DW_TAG_member
    7732                      .dwattr $C$DW$943, DW_AT_type(*$C$DW$T$34)
    7733                      .dwattr $C$DW$943, DW_AT_name("SOCA")
    7734                      .dwattr $C$DW$943, DW_AT_TI_symbol_name("_SOCA")
TMS320C2000 Assembler PC v6.4.2 Thu Dec 14 15:27:05 2017

Tools Copyright (c) 1996-2015 Texas Instruments Incorporated
fsm_main.asm                                                         PAGE  144

    7735                      .dwattr $C$DW$943, DW_AT_bit_offset(0x0d), DW_AT_bit_size(0x01)
    7736                      .dwattr $C$DW$943, DW_AT_data_member_location[DW_OP_plus_uconst 0x0]
    7737                      .dwattr $C$DW$943, DW_AT_accessibility(DW_ACCESS_public)
    7738              $C$DW$944       .dwtag  DW_TAG_member
    7739                      .dwattr $C$DW$944, DW_AT_type(*$C$DW$T$34)
    7740                      .dwattr $C$DW$944, DW_AT_name("SOCB")
    7741                      .dwattr $C$DW$944, DW_AT_TI_symbol_name("_SOCB")
    7742                      .dwattr $C$DW$944, DW_AT_bit_offset(0x0c), DW_AT_bit_size(0x01)
    7743                      .dwattr $C$DW$944, DW_AT_data_member_location[DW_OP_plus_uconst 0x0]
    7744                      .dwattr $C$DW$944, DW_AT_accessibility(DW_ACCESS_public)
    7745              $C$DW$945       .dwtag  DW_TAG_member
    7746                      .dwattr $C$DW$945, DW_AT_type(*$C$DW$T$34)
    7747                      .dwattr $C$DW$945, DW_AT_name("rsvd2")
    7748                      .dwattr $C$DW$945, DW_AT_TI_symbol_name("_rsvd2")
    7749                      .dwattr $C$DW$945, DW_AT_bit_offset(0x00), DW_AT_bit_size(0x0c)
    7750                      .dwattr $C$DW$945, DW_AT_data_member_location[DW_OP_plus_uconst 0x0]
    7751                      .dwattr $C$DW$945, DW_AT_accessibility(DW_ACCESS_public)
    7752                      .dwendtag $C$DW$T$181
    7753              
    7754              
    7755              $C$DW$T$182     .dwtag  DW_TAG_union_type
    7756                      .dwattr $C$DW$T$182, DW_AT_name("ETFRC_REG")
    7757                      .dwattr $C$DW$T$182, DW_AT_byte_size(0x01)
    7758              $C$DW$946       .dwtag  DW_TAG_member
    7759                      .dwattr $C$DW$946, DW_AT_type(*$C$DW$T$34)
    7760                      .dwattr $C$DW$946, DW_AT_name("all")
    7761                      .dwattr $C$DW$946, DW_AT_TI_symbol_name("_all")
    7762                      .dwattr $C$DW$946, DW_AT_data_member_location[DW_OP_plus_uconst 0x0]
    7763                      .dwattr $C$DW$946, DW_AT_accessibility(DW_ACCESS_public)
    7764              $C$DW$947       .dwtag  DW_TAG_member
    7765                      .dwattr $C$DW$947, DW_AT_type(*$C$DW$T$181)
    7766                      .dwattr $C$DW$947, DW_AT_name("bit")
    7767                      .dwattr $C$DW$947, DW_AT_TI_symbol_name("_bit")
    7768                      .dwattr $C$DW$947, DW_AT_data_member_location[DW_OP_plus_uconst 0x0]
    7769                      .dwattr $C$DW$947, DW_AT_accessibility(DW_ACCESS_public)
    7770                      .dwendtag $C$DW$T$182
    7771              
    7772              
    7773              $C$DW$T$183     .dwtag  DW_TAG_structure_type
    7774                      .dwattr $C$DW$T$183, DW_AT_name("ETINTPS_BITS")
    7775                      .dwattr $C$DW$T$183, DW_AT_byte_size(0x01)
    7776              $C$DW$948       .dwtag  DW_TAG_member
    7777                      .dwattr $C$DW$948, DW_AT_type(*$C$DW$T$34)
    7778                      .dwattr $C$DW$948, DW_AT_name("INTPRD2")
    7779                      .dwattr $C$DW$948, DW_AT_TI_symbol_name("_INTPRD2")
    7780                      .dwattr $C$DW$948, DW_AT_bit_offset(0x0c), DW_AT_bit_size(0x04)
    7781                      .dwattr $C$DW$948, DW_AT_data_member_location[DW_OP_plus_uconst 0x0]
    7782                      .dwattr $C$DW$948, DW_AT_accessibility(DW_ACCESS_public)
    7783              $C$DW$949       .dwtag  DW_TAG_member
    7784                      .dwattr $C$DW$949, DW_AT_type(*$C$DW$T$34)
    7785                      .dwattr $C$DW$949, DW_AT_name("INTCNT2")
    7786                      .dwattr $C$DW$949, DW_AT_TI_symbol_name("_INTCNT2")
    7787                      .dwattr $C$DW$949, DW_AT_bit_offset(0x08), DW_AT_bit_size(0x04)
    7788                      .dwattr $C$DW$949, DW_AT_data_member_location[DW_OP_plus_uconst 0x0]
    7789                      .dwattr $C$DW$949, DW_AT_accessibility(DW_ACCESS_public)
TMS320C2000 Assembler PC v6.4.2 Thu Dec 14 15:27:05 2017

Tools Copyright (c) 1996-2015 Texas Instruments Incorporated
fsm_main.asm                                                         PAGE  145

    7790              $C$DW$950       .dwtag  DW_TAG_member
    7791                      .dwattr $C$DW$950, DW_AT_type(*$C$DW$T$34)
    7792                      .dwattr $C$DW$950, DW_AT_name("rsvd1")
    7793                      .dwattr $C$DW$950, DW_AT_TI_symbol_name("_rsvd1")
    7794                      .dwattr $C$DW$950, DW_AT_bit_offset(0x00), DW_AT_bit_size(0x08)
    7795                      .dwattr $C$DW$950, DW_AT_data_member_location[DW_OP_plus_uconst 0x0]
    7796                      .dwattr $C$DW$950, DW_AT_accessibility(DW_ACCESS_public)
    7797                      .dwendtag $C$DW$T$183
    7798              
    7799              
    7800              $C$DW$T$184     .dwtag  DW_TAG_union_type
    7801                      .dwattr $C$DW$T$184, DW_AT_name("ETINTPS_REG")
    7802                      .dwattr $C$DW$T$184, DW_AT_byte_size(0x01)
    7803              $C$DW$951       .dwtag  DW_TAG_member
    7804                      .dwattr $C$DW$951, DW_AT_type(*$C$DW$T$34)
    7805                      .dwattr $C$DW$951, DW_AT_name("all")
    7806                      .dwattr $C$DW$951, DW_AT_TI_symbol_name("_all")
    7807                      .dwattr $C$DW$951, DW_AT_data_member_location[DW_OP_plus_uconst 0x0]
    7808                      .dwattr $C$DW$951, DW_AT_accessibility(DW_ACCESS_public)
    7809              $C$DW$952       .dwtag  DW_TAG_member
    7810                      .dwattr $C$DW$952, DW_AT_type(*$C$DW$T$183)
    7811                      .dwattr $C$DW$952, DW_AT_name("bit")
    7812                      .dwattr $C$DW$952, DW_AT_TI_symbol_name("_bit")
    7813                      .dwattr $C$DW$952, DW_AT_data_member_location[DW_OP_plus_uconst 0x0]
    7814                      .dwattr $C$DW$952, DW_AT_accessibility(DW_ACCESS_public)
    7815                      .dwendtag $C$DW$T$184
    7816              
    7817              
    7818              $C$DW$T$185     .dwtag  DW_TAG_structure_type
    7819                      .dwattr $C$DW$T$185, DW_AT_name("ETPS_BITS")
    7820                      .dwattr $C$DW$T$185, DW_AT_byte_size(0x01)
    7821              $C$DW$953       .dwtag  DW_TAG_member
    7822                      .dwattr $C$DW$953, DW_AT_type(*$C$DW$T$34)
    7823                      .dwattr $C$DW$953, DW_AT_name("INTPRD")
    7824                      .dwattr $C$DW$953, DW_AT_TI_symbol_name("_INTPRD")
    7825                      .dwattr $C$DW$953, DW_AT_bit_offset(0x0e), DW_AT_bit_size(0x02)
    7826                      .dwattr $C$DW$953, DW_AT_data_member_location[DW_OP_plus_uconst 0x0]
    7827                      .dwattr $C$DW$953, DW_AT_accessibility(DW_ACCESS_public)
    7828              $C$DW$954       .dwtag  DW_TAG_member
    7829                      .dwattr $C$DW$954, DW_AT_type(*$C$DW$T$34)
    7830                      .dwattr $C$DW$954, DW_AT_name("INTCNT")
    7831                      .dwattr $C$DW$954, DW_AT_TI_symbol_name("_INTCNT")
    7832                      .dwattr $C$DW$954, DW_AT_bit_offset(0x0c), DW_AT_bit_size(0x02)
    7833                      .dwattr $C$DW$954, DW_AT_data_member_location[DW_OP_plus_uconst 0x0]
    7834                      .dwattr $C$DW$954, DW_AT_accessibility(DW_ACCESS_public)
    7835              $C$DW$955       .dwtag  DW_TAG_member
    7836                      .dwattr $C$DW$955, DW_AT_type(*$C$DW$T$34)
    7837                      .dwattr $C$DW$955, DW_AT_name("INTPSSEL")
    7838                      .dwattr $C$DW$955, DW_AT_TI_symbol_name("_INTPSSEL")
    7839                      .dwattr $C$DW$955, DW_AT_bit_offset(0x0b), DW_AT_bit_size(0x01)
    7840                      .dwattr $C$DW$955, DW_AT_data_member_location[DW_OP_plus_uconst 0x0]
    7841                      .dwattr $C$DW$955, DW_AT_accessibility(DW_ACCESS_public)
    7842              $C$DW$956       .dwtag  DW_TAG_member
    7843                      .dwattr $C$DW$956, DW_AT_type(*$C$DW$T$34)
    7844                      .dwattr $C$DW$956, DW_AT_name("SOCPSSEL")
TMS320C2000 Assembler PC v6.4.2 Thu Dec 14 15:27:05 2017

Tools Copyright (c) 1996-2015 Texas Instruments Incorporated
fsm_main.asm                                                         PAGE  146

    7845                      .dwattr $C$DW$956, DW_AT_TI_symbol_name("_SOCPSSEL")
    7846                      .dwattr $C$DW$956, DW_AT_bit_offset(0x0a), DW_AT_bit_size(0x01)
    7847                      .dwattr $C$DW$956, DW_AT_data_member_location[DW_OP_plus_uconst 0x0]
    7848                      .dwattr $C$DW$956, DW_AT_accessibility(DW_ACCESS_public)
    7849              $C$DW$957       .dwtag  DW_TAG_member
    7850                      .dwattr $C$DW$957, DW_AT_type(*$C$DW$T$34)
    7851                      .dwattr $C$DW$957, DW_AT_name("rsvd1")
    7852                      .dwattr $C$DW$957, DW_AT_TI_symbol_name("_rsvd1")
    7853                      .dwattr $C$DW$957, DW_AT_bit_offset(0x08), DW_AT_bit_size(0x02)
    7854                      .dwattr $C$DW$957, DW_AT_data_member_location[DW_OP_plus_uconst 0x0]
    7855                      .dwattr $C$DW$957, DW_AT_accessibility(DW_ACCESS_public)
    7856              $C$DW$958       .dwtag  DW_TAG_member
    7857                      .dwattr $C$DW$958, DW_AT_type(*$C$DW$T$34)
    7858                      .dwattr $C$DW$958, DW_AT_name("SOCAPRD")
    7859                      .dwattr $C$DW$958, DW_AT_TI_symbol_name("_SOCAPRD")
    7860                      .dwattr $C$DW$958, DW_AT_bit_offset(0x06), DW_AT_bit_size(0x02)
    7861                      .dwattr $C$DW$958, DW_AT_data_member_location[DW_OP_plus_uconst 0x0]
    7862                      .dwattr $C$DW$958, DW_AT_accessibility(DW_ACCESS_public)
    7863              $C$DW$959       .dwtag  DW_TAG_member
    7864                      .dwattr $C$DW$959, DW_AT_type(*$C$DW$T$34)
    7865                      .dwattr $C$DW$959, DW_AT_name("SOCACNT")
    7866                      .dwattr $C$DW$959, DW_AT_TI_symbol_name("_SOCACNT")
    7867                      .dwattr $C$DW$959, DW_AT_bit_offset(0x04), DW_AT_bit_size(0x02)
    7868                      .dwattr $C$DW$959, DW_AT_data_member_location[DW_OP_plus_uconst 0x0]
    7869                      .dwattr $C$DW$959, DW_AT_accessibility(DW_ACCESS_public)
    7870              $C$DW$960       .dwtag  DW_TAG_member
    7871                      .dwattr $C$DW$960, DW_AT_type(*$C$DW$T$34)
    7872                      .dwattr $C$DW$960, DW_AT_name("SOCBPRD")
    7873                      .dwattr $C$DW$960, DW_AT_TI_symbol_name("_SOCBPRD")
    7874                      .dwattr $C$DW$960, DW_AT_bit_offset(0x02), DW_AT_bit_size(0x02)
    7875                      .dwattr $C$DW$960, DW_AT_data_member_location[DW_OP_plus_uconst 0x0]
    7876                      .dwattr $C$DW$960, DW_AT_accessibility(DW_ACCESS_public)
    7877              $C$DW$961       .dwtag  DW_TAG_member
    7878                      .dwattr $C$DW$961, DW_AT_type(*$C$DW$T$34)
    7879                      .dwattr $C$DW$961, DW_AT_name("SOCBCNT")
    7880                      .dwattr $C$DW$961, DW_AT_TI_symbol_name("_SOCBCNT")
    7881                      .dwattr $C$DW$961, DW_AT_bit_offset(0x00), DW_AT_bit_size(0x02)
    7882                      .dwattr $C$DW$961, DW_AT_data_member_location[DW_OP_plus_uconst 0x0]
    7883                      .dwattr $C$DW$961, DW_AT_accessibility(DW_ACCESS_public)
    7884                      .dwendtag $C$DW$T$185
    7885              
    7886              
    7887              $C$DW$T$186     .dwtag  DW_TAG_union_type
    7888                      .dwattr $C$DW$T$186, DW_AT_name("ETPS_REG")
    7889                      .dwattr $C$DW$T$186, DW_AT_byte_size(0x01)
    7890              $C$DW$962       .dwtag  DW_TAG_member
    7891                      .dwattr $C$DW$962, DW_AT_type(*$C$DW$T$34)
    7892                      .dwattr $C$DW$962, DW_AT_name("all")
    7893                      .dwattr $C$DW$962, DW_AT_TI_symbol_name("_all")
    7894                      .dwattr $C$DW$962, DW_AT_data_member_location[DW_OP_plus_uconst 0x0]
    7895                      .dwattr $C$DW$962, DW_AT_accessibility(DW_ACCESS_public)
    7896              $C$DW$963       .dwtag  DW_TAG_member
    7897                      .dwattr $C$DW$963, DW_AT_type(*$C$DW$T$185)
    7898                      .dwattr $C$DW$963, DW_AT_name("bit")
    7899                      .dwattr $C$DW$963, DW_AT_TI_symbol_name("_bit")
TMS320C2000 Assembler PC v6.4.2 Thu Dec 14 15:27:05 2017

Tools Copyright (c) 1996-2015 Texas Instruments Incorporated
fsm_main.asm                                                         PAGE  147

    7900                      .dwattr $C$DW$963, DW_AT_data_member_location[DW_OP_plus_uconst 0x0]
    7901                      .dwattr $C$DW$963, DW_AT_accessibility(DW_ACCESS_public)
    7902                      .dwendtag $C$DW$T$186
    7903              
    7904              
    7905              $C$DW$T$187     .dwtag  DW_TAG_structure_type
    7906                      .dwattr $C$DW$T$187, DW_AT_name("ETSEL_BITS")
    7907                      .dwattr $C$DW$T$187, DW_AT_byte_size(0x01)
    7908              $C$DW$964       .dwtag  DW_TAG_member
    7909                      .dwattr $C$DW$964, DW_AT_type(*$C$DW$T$34)
    7910                      .dwattr $C$DW$964, DW_AT_name("INTSEL")
    7911                      .dwattr $C$DW$964, DW_AT_TI_symbol_name("_INTSEL")
    7912                      .dwattr $C$DW$964, DW_AT_bit_offset(0x0d), DW_AT_bit_size(0x03)
    7913                      .dwattr $C$DW$964, DW_AT_data_member_location[DW_OP_plus_uconst 0x0]
    7914                      .dwattr $C$DW$964, DW_AT_accessibility(DW_ACCESS_public)
    7915              $C$DW$965       .dwtag  DW_TAG_member
    7916                      .dwattr $C$DW$965, DW_AT_type(*$C$DW$T$34)
    7917                      .dwattr $C$DW$965, DW_AT_name("INTEN")
    7918                      .dwattr $C$DW$965, DW_AT_TI_symbol_name("_INTEN")
    7919                      .dwattr $C$DW$965, DW_AT_bit_offset(0x0c), DW_AT_bit_size(0x01)
    7920                      .dwattr $C$DW$965, DW_AT_data_member_location[DW_OP_plus_uconst 0x0]
    7921                      .dwattr $C$DW$965, DW_AT_accessibility(DW_ACCESS_public)
    7922              $C$DW$966       .dwtag  DW_TAG_member
    7923                      .dwattr $C$DW$966, DW_AT_type(*$C$DW$T$34)
    7924                      .dwattr $C$DW$966, DW_AT_name("SOCASELCMP")
    7925                      .dwattr $C$DW$966, DW_AT_TI_symbol_name("_SOCASELCMP")
    7926                      .dwattr $C$DW$966, DW_AT_bit_offset(0x0b), DW_AT_bit_size(0x01)
    7927                      .dwattr $C$DW$966, DW_AT_data_member_location[DW_OP_plus_uconst 0x0]
    7928                      .dwattr $C$DW$966, DW_AT_accessibility(DW_ACCESS_public)
    7929              $C$DW$967       .dwtag  DW_TAG_member
    7930                      .dwattr $C$DW$967, DW_AT_type(*$C$DW$T$34)
    7931                      .dwattr $C$DW$967, DW_AT_name("SOCBSELCMP")
    7932                      .dwattr $C$DW$967, DW_AT_TI_symbol_name("_SOCBSELCMP")
    7933                      .dwattr $C$DW$967, DW_AT_bit_offset(0x0a), DW_AT_bit_size(0x01)
    7934                      .dwattr $C$DW$967, DW_AT_data_member_location[DW_OP_plus_uconst 0x0]
    7935                      .dwattr $C$DW$967, DW_AT_accessibility(DW_ACCESS_public)
    7936              $C$DW$968       .dwtag  DW_TAG_member
    7937                      .dwattr $C$DW$968, DW_AT_type(*$C$DW$T$34)
    7938                      .dwattr $C$DW$968, DW_AT_name("INTSELCMP")
    7939                      .dwattr $C$DW$968, DW_AT_TI_symbol_name("_INTSELCMP")
    7940                      .dwattr $C$DW$968, DW_AT_bit_offset(0x09), DW_AT_bit_size(0x01)
    7941                      .dwattr $C$DW$968, DW_AT_data_member_location[DW_OP_plus_uconst 0x0]
    7942                      .dwattr $C$DW$968, DW_AT_accessibility(DW_ACCESS_public)
    7943              $C$DW$969       .dwtag  DW_TAG_member
    7944                      .dwattr $C$DW$969, DW_AT_type(*$C$DW$T$34)
    7945                      .dwattr $C$DW$969, DW_AT_name("rsvd1")
    7946                      .dwattr $C$DW$969, DW_AT_TI_symbol_name("_rsvd1")
    7947                      .dwattr $C$DW$969, DW_AT_bit_offset(0x08), DW_AT_bit_size(0x01)
    7948                      .dwattr $C$DW$969, DW_AT_data_member_location[DW_OP_plus_uconst 0x0]
    7949                      .dwattr $C$DW$969, DW_AT_accessibility(DW_ACCESS_public)
    7950              $C$DW$970       .dwtag  DW_TAG_member
    7951                      .dwattr $C$DW$970, DW_AT_type(*$C$DW$T$34)
    7952                      .dwattr $C$DW$970, DW_AT_name("SOCASEL")
    7953                      .dwattr $C$DW$970, DW_AT_TI_symbol_name("_SOCASEL")
    7954                      .dwattr $C$DW$970, DW_AT_bit_offset(0x05), DW_AT_bit_size(0x03)
TMS320C2000 Assembler PC v6.4.2 Thu Dec 14 15:27:05 2017

Tools Copyright (c) 1996-2015 Texas Instruments Incorporated
fsm_main.asm                                                         PAGE  148

    7955                      .dwattr $C$DW$970, DW_AT_data_member_location[DW_OP_plus_uconst 0x0]
    7956                      .dwattr $C$DW$970, DW_AT_accessibility(DW_ACCESS_public)
    7957              $C$DW$971       .dwtag  DW_TAG_member
    7958                      .dwattr $C$DW$971, DW_AT_type(*$C$DW$T$34)
    7959                      .dwattr $C$DW$971, DW_AT_name("SOCAEN")
    7960                      .dwattr $C$DW$971, DW_AT_TI_symbol_name("_SOCAEN")
    7961                      .dwattr $C$DW$971, DW_AT_bit_offset(0x04), DW_AT_bit_size(0x01)
    7962                      .dwattr $C$DW$971, DW_AT_data_member_location[DW_OP_plus_uconst 0x0]
    7963                      .dwattr $C$DW$971, DW_AT_accessibility(DW_ACCESS_public)
    7964              $C$DW$972       .dwtag  DW_TAG_member
    7965                      .dwattr $C$DW$972, DW_AT_type(*$C$DW$T$34)
    7966                      .dwattr $C$DW$972, DW_AT_name("SOCBSEL")
    7967                      .dwattr $C$DW$972, DW_AT_TI_symbol_name("_SOCBSEL")
    7968                      .dwattr $C$DW$972, DW_AT_bit_offset(0x01), DW_AT_bit_size(0x03)
    7969                      .dwattr $C$DW$972, DW_AT_data_member_location[DW_OP_plus_uconst 0x0]
    7970                      .dwattr $C$DW$972, DW_AT_accessibility(DW_ACCESS_public)
    7971              $C$DW$973       .dwtag  DW_TAG_member
    7972                      .dwattr $C$DW$973, DW_AT_type(*$C$DW$T$34)
    7973                      .dwattr $C$DW$973, DW_AT_name("SOCBEN")
    7974                      .dwattr $C$DW$973, DW_AT_TI_symbol_name("_SOCBEN")
    7975                      .dwattr $C$DW$973, DW_AT_bit_offset(0x00), DW_AT_bit_size(0x01)
    7976                      .dwattr $C$DW$973, DW_AT_data_member_location[DW_OP_plus_uconst 0x0]
    7977                      .dwattr $C$DW$973, DW_AT_accessibility(DW_ACCESS_public)
    7978                      .dwendtag $C$DW$T$187
    7979              
    7980              
    7981              $C$DW$T$188     .dwtag  DW_TAG_union_type
    7982                      .dwattr $C$DW$T$188, DW_AT_name("ETSEL_REG")
    7983                      .dwattr $C$DW$T$188, DW_AT_byte_size(0x01)
    7984              $C$DW$974       .dwtag  DW_TAG_member
    7985                      .dwattr $C$DW$974, DW_AT_type(*$C$DW$T$34)
    7986                      .dwattr $C$DW$974, DW_AT_name("all")
    7987                      .dwattr $C$DW$974, DW_AT_TI_symbol_name("_all")
    7988                      .dwattr $C$DW$974, DW_AT_data_member_location[DW_OP_plus_uconst 0x0]
    7989                      .dwattr $C$DW$974, DW_AT_accessibility(DW_ACCESS_public)
    7990              $C$DW$975       .dwtag  DW_TAG_member
    7991                      .dwattr $C$DW$975, DW_AT_type(*$C$DW$T$187)
    7992                      .dwattr $C$DW$975, DW_AT_name("bit")
    7993                      .dwattr $C$DW$975, DW_AT_TI_symbol_name("_bit")
    7994                      .dwattr $C$DW$975, DW_AT_data_member_location[DW_OP_plus_uconst 0x0]
    7995                      .dwattr $C$DW$975, DW_AT_accessibility(DW_ACCESS_public)
    7996                      .dwendtag $C$DW$T$188
    7997              
    7998              
    7999              $C$DW$T$189     .dwtag  DW_TAG_structure_type
    8000                      .dwattr $C$DW$T$189, DW_AT_name("ETSOCPS_BITS")
    8001                      .dwattr $C$DW$T$189, DW_AT_byte_size(0x01)
    8002              $C$DW$976       .dwtag  DW_TAG_member
    8003                      .dwattr $C$DW$976, DW_AT_type(*$C$DW$T$34)
    8004                      .dwattr $C$DW$976, DW_AT_name("SOCAPRD2")
    8005                      .dwattr $C$DW$976, DW_AT_TI_symbol_name("_SOCAPRD2")
    8006                      .dwattr $C$DW$976, DW_AT_bit_offset(0x0c), DW_AT_bit_size(0x04)
    8007                      .dwattr $C$DW$976, DW_AT_data_member_location[DW_OP_plus_uconst 0x0]
    8008                      .dwattr $C$DW$976, DW_AT_accessibility(DW_ACCESS_public)
    8009              $C$DW$977       .dwtag  DW_TAG_member
TMS320C2000 Assembler PC v6.4.2 Thu Dec 14 15:27:05 2017

Tools Copyright (c) 1996-2015 Texas Instruments Incorporated
fsm_main.asm                                                         PAGE  149

    8010                      .dwattr $C$DW$977, DW_AT_type(*$C$DW$T$34)
    8011                      .dwattr $C$DW$977, DW_AT_name("SOCACNT2")
    8012                      .dwattr $C$DW$977, DW_AT_TI_symbol_name("_SOCACNT2")
    8013                      .dwattr $C$DW$977, DW_AT_bit_offset(0x08), DW_AT_bit_size(0x04)
    8014                      .dwattr $C$DW$977, DW_AT_data_member_location[DW_OP_plus_uconst 0x0]
    8015                      .dwattr $C$DW$977, DW_AT_accessibility(DW_ACCESS_public)
    8016              $C$DW$978       .dwtag  DW_TAG_member
    8017                      .dwattr $C$DW$978, DW_AT_type(*$C$DW$T$34)
    8018                      .dwattr $C$DW$978, DW_AT_name("SOCBPRD2")
    8019                      .dwattr $C$DW$978, DW_AT_TI_symbol_name("_SOCBPRD2")
    8020                      .dwattr $C$DW$978, DW_AT_bit_offset(0x04), DW_AT_bit_size(0x04)
    8021                      .dwattr $C$DW$978, DW_AT_data_member_location[DW_OP_plus_uconst 0x0]
    8022                      .dwattr $C$DW$978, DW_AT_accessibility(DW_ACCESS_public)
    8023              $C$DW$979       .dwtag  DW_TAG_member
    8024                      .dwattr $C$DW$979, DW_AT_type(*$C$DW$T$34)
    8025                      .dwattr $C$DW$979, DW_AT_name("SOCBCNT2")
    8026                      .dwattr $C$DW$979, DW_AT_TI_symbol_name("_SOCBCNT2")
    8027                      .dwattr $C$DW$979, DW_AT_bit_offset(0x00), DW_AT_bit_size(0x04)
    8028                      .dwattr $C$DW$979, DW_AT_data_member_location[DW_OP_plus_uconst 0x0]
    8029                      .dwattr $C$DW$979, DW_AT_accessibility(DW_ACCESS_public)
    8030                      .dwendtag $C$DW$T$189
    8031              
    8032              
    8033              $C$DW$T$190     .dwtag  DW_TAG_union_type
    8034                      .dwattr $C$DW$T$190, DW_AT_name("ETSOCPS_REG")
    8035                      .dwattr $C$DW$T$190, DW_AT_byte_size(0x01)
    8036              $C$DW$980       .dwtag  DW_TAG_member
    8037                      .dwattr $C$DW$980, DW_AT_type(*$C$DW$T$34)
    8038                      .dwattr $C$DW$980, DW_AT_name("all")
    8039                      .dwattr $C$DW$980, DW_AT_TI_symbol_name("_all")
    8040                      .dwattr $C$DW$980, DW_AT_data_member_location[DW_OP_plus_uconst 0x0]
    8041                      .dwattr $C$DW$980, DW_AT_accessibility(DW_ACCESS_public)
    8042              $C$DW$981       .dwtag  DW_TAG_member
    8043                      .dwattr $C$DW$981, DW_AT_type(*$C$DW$T$189)
    8044                      .dwattr $C$DW$981, DW_AT_name("bit")
    8045                      .dwattr $C$DW$981, DW_AT_TI_symbol_name("_bit")
    8046                      .dwattr $C$DW$981, DW_AT_data_member_location[DW_OP_plus_uconst 0x0]
    8047                      .dwattr $C$DW$981, DW_AT_accessibility(DW_ACCESS_public)
    8048                      .dwendtag $C$DW$T$190
    8049              
    8050              
    8051              $C$DW$T$191     .dwtag  DW_TAG_structure_type
    8052                      .dwattr $C$DW$T$191, DW_AT_name("GLDCFG_BITS")
    8053                      .dwattr $C$DW$T$191, DW_AT_byte_size(0x01)
    8054              $C$DW$982       .dwtag  DW_TAG_member
    8055                      .dwattr $C$DW$982, DW_AT_type(*$C$DW$T$34)
    8056                      .dwattr $C$DW$982, DW_AT_name("TBPRD_TBPRDHR")
    8057                      .dwattr $C$DW$982, DW_AT_TI_symbol_name("_TBPRD_TBPRDHR")
    8058                      .dwattr $C$DW$982, DW_AT_bit_offset(0x0f), DW_AT_bit_size(0x01)
    8059                      .dwattr $C$DW$982, DW_AT_data_member_location[DW_OP_plus_uconst 0x0]
    8060                      .dwattr $C$DW$982, DW_AT_accessibility(DW_ACCESS_public)
    8061              $C$DW$983       .dwtag  DW_TAG_member
    8062                      .dwattr $C$DW$983, DW_AT_type(*$C$DW$T$34)
    8063                      .dwattr $C$DW$983, DW_AT_name("CMPA_CMPAHR")
    8064                      .dwattr $C$DW$983, DW_AT_TI_symbol_name("_CMPA_CMPAHR")
TMS320C2000 Assembler PC v6.4.2 Thu Dec 14 15:27:05 2017

Tools Copyright (c) 1996-2015 Texas Instruments Incorporated
fsm_main.asm                                                         PAGE  150

    8065                      .dwattr $C$DW$983, DW_AT_bit_offset(0x0e), DW_AT_bit_size(0x01)
    8066                      .dwattr $C$DW$983, DW_AT_data_member_location[DW_OP_plus_uconst 0x0]
    8067                      .dwattr $C$DW$983, DW_AT_accessibility(DW_ACCESS_public)
    8068              $C$DW$984       .dwtag  DW_TAG_member
    8069                      .dwattr $C$DW$984, DW_AT_type(*$C$DW$T$34)
    8070                      .dwattr $C$DW$984, DW_AT_name("CMPB_CMPBHR")
    8071                      .dwattr $C$DW$984, DW_AT_TI_symbol_name("_CMPB_CMPBHR")
    8072                      .dwattr $C$DW$984, DW_AT_bit_offset(0x0d), DW_AT_bit_size(0x01)
    8073                      .dwattr $C$DW$984, DW_AT_data_member_location[DW_OP_plus_uconst 0x0]
    8074                      .dwattr $C$DW$984, DW_AT_accessibility(DW_ACCESS_public)
    8075              $C$DW$985       .dwtag  DW_TAG_member
    8076                      .dwattr $C$DW$985, DW_AT_type(*$C$DW$T$34)
    8077                      .dwattr $C$DW$985, DW_AT_name("CMPC")
    8078                      .dwattr $C$DW$985, DW_AT_TI_symbol_name("_CMPC")
    8079                      .dwattr $C$DW$985, DW_AT_bit_offset(0x0c), DW_AT_bit_size(0x01)
    8080                      .dwattr $C$DW$985, DW_AT_data_member_location[DW_OP_plus_uconst 0x0]
    8081                      .dwattr $C$DW$985, DW_AT_accessibility(DW_ACCESS_public)
    8082              $C$DW$986       .dwtag  DW_TAG_member
    8083                      .dwattr $C$DW$986, DW_AT_type(*$C$DW$T$34)
    8084                      .dwattr $C$DW$986, DW_AT_name("CMPD")
    8085                      .dwattr $C$DW$986, DW_AT_TI_symbol_name("_CMPD")
    8086                      .dwattr $C$DW$986, DW_AT_bit_offset(0x0b), DW_AT_bit_size(0x01)
    8087                      .dwattr $C$DW$986, DW_AT_data_member_location[DW_OP_plus_uconst 0x0]
    8088                      .dwattr $C$DW$986, DW_AT_accessibility(DW_ACCESS_public)
    8089              $C$DW$987       .dwtag  DW_TAG_member
    8090                      .dwattr $C$DW$987, DW_AT_type(*$C$DW$T$34)
    8091                      .dwattr $C$DW$987, DW_AT_name("DBRED_DBREDHR")
    8092                      .dwattr $C$DW$987, DW_AT_TI_symbol_name("_DBRED_DBREDHR")
    8093                      .dwattr $C$DW$987, DW_AT_bit_offset(0x0a), DW_AT_bit_size(0x01)
    8094                      .dwattr $C$DW$987, DW_AT_data_member_location[DW_OP_plus_uconst 0x0]
    8095                      .dwattr $C$DW$987, DW_AT_accessibility(DW_ACCESS_public)
    8096              $C$DW$988       .dwtag  DW_TAG_member
    8097                      .dwattr $C$DW$988, DW_AT_type(*$C$DW$T$34)
    8098                      .dwattr $C$DW$988, DW_AT_name("DBFED_DBFEDHR")
    8099                      .dwattr $C$DW$988, DW_AT_TI_symbol_name("_DBFED_DBFEDHR")
    8100                      .dwattr $C$DW$988, DW_AT_bit_offset(0x09), DW_AT_bit_size(0x01)
    8101                      .dwattr $C$DW$988, DW_AT_data_member_location[DW_OP_plus_uconst 0x0]
    8102                      .dwattr $C$DW$988, DW_AT_accessibility(DW_ACCESS_public)
    8103              $C$DW$989       .dwtag  DW_TAG_member
    8104                      .dwattr $C$DW$989, DW_AT_type(*$C$DW$T$34)
    8105                      .dwattr $C$DW$989, DW_AT_name("DBCTL")
    8106                      .dwattr $C$DW$989, DW_AT_TI_symbol_name("_DBCTL")
    8107                      .dwattr $C$DW$989, DW_AT_bit_offset(0x08), DW_AT_bit_size(0x01)
    8108                      .dwattr $C$DW$989, DW_AT_data_member_location[DW_OP_plus_uconst 0x0]
    8109                      .dwattr $C$DW$989, DW_AT_accessibility(DW_ACCESS_public)
    8110              $C$DW$990       .dwtag  DW_TAG_member
    8111                      .dwattr $C$DW$990, DW_AT_type(*$C$DW$T$34)
    8112                      .dwattr $C$DW$990, DW_AT_name("AQCTLA_AQCTLA2")
    8113                      .dwattr $C$DW$990, DW_AT_TI_symbol_name("_AQCTLA_AQCTLA2")
    8114                      .dwattr $C$DW$990, DW_AT_bit_offset(0x07), DW_AT_bit_size(0x01)
    8115                      .dwattr $C$DW$990, DW_AT_data_member_location[DW_OP_plus_uconst 0x0]
    8116                      .dwattr $C$DW$990, DW_AT_accessibility(DW_ACCESS_public)
    8117              $C$DW$991       .dwtag  DW_TAG_member
    8118                      .dwattr $C$DW$991, DW_AT_type(*$C$DW$T$34)
    8119                      .dwattr $C$DW$991, DW_AT_name("AQCTLB_AQCTLB2")
TMS320C2000 Assembler PC v6.4.2 Thu Dec 14 15:27:05 2017

Tools Copyright (c) 1996-2015 Texas Instruments Incorporated
fsm_main.asm                                                         PAGE  151

    8120                      .dwattr $C$DW$991, DW_AT_TI_symbol_name("_AQCTLB_AQCTLB2")
    8121                      .dwattr $C$DW$991, DW_AT_bit_offset(0x06), DW_AT_bit_size(0x01)
    8122                      .dwattr $C$DW$991, DW_AT_data_member_location[DW_OP_plus_uconst 0x0]
    8123                      .dwattr $C$DW$991, DW_AT_accessibility(DW_ACCESS_public)
    8124              $C$DW$992       .dwtag  DW_TAG_member
    8125                      .dwattr $C$DW$992, DW_AT_type(*$C$DW$T$34)
    8126                      .dwattr $C$DW$992, DW_AT_name("AQCSFRC")
    8127                      .dwattr $C$DW$992, DW_AT_TI_symbol_name("_AQCSFRC")
    8128                      .dwattr $C$DW$992, DW_AT_bit_offset(0x05), DW_AT_bit_size(0x01)
    8129                      .dwattr $C$DW$992, DW_AT_data_member_location[DW_OP_plus_uconst 0x0]
    8130                      .dwattr $C$DW$992, DW_AT_accessibility(DW_ACCESS_public)
    8131              $C$DW$993       .dwtag  DW_TAG_member
    8132                      .dwattr $C$DW$993, DW_AT_type(*$C$DW$T$34)
    8133                      .dwattr $C$DW$993, DW_AT_name("rsvd1")
    8134                      .dwattr $C$DW$993, DW_AT_TI_symbol_name("_rsvd1")
    8135                      .dwattr $C$DW$993, DW_AT_bit_offset(0x00), DW_AT_bit_size(0x05)
    8136                      .dwattr $C$DW$993, DW_AT_data_member_location[DW_OP_plus_uconst 0x0]
    8137                      .dwattr $C$DW$993, DW_AT_accessibility(DW_ACCESS_public)
    8138                      .dwendtag $C$DW$T$191
    8139              
    8140              
    8141              $C$DW$T$192     .dwtag  DW_TAG_union_type
    8142                      .dwattr $C$DW$T$192, DW_AT_name("GLDCFG_REG")
    8143                      .dwattr $C$DW$T$192, DW_AT_byte_size(0x01)
    8144              $C$DW$994       .dwtag  DW_TAG_member
    8145                      .dwattr $C$DW$994, DW_AT_type(*$C$DW$T$34)
    8146                      .dwattr $C$DW$994, DW_AT_name("all")
    8147                      .dwattr $C$DW$994, DW_AT_TI_symbol_name("_all")
    8148                      .dwattr $C$DW$994, DW_AT_data_member_location[DW_OP_plus_uconst 0x0]
    8149                      .dwattr $C$DW$994, DW_AT_accessibility(DW_ACCESS_public)
    8150              $C$DW$995       .dwtag  DW_TAG_member
    8151                      .dwattr $C$DW$995, DW_AT_type(*$C$DW$T$191)
    8152                      .dwattr $C$DW$995, DW_AT_name("bit")
    8153                      .dwattr $C$DW$995, DW_AT_TI_symbol_name("_bit")
    8154                      .dwattr $C$DW$995, DW_AT_data_member_location[DW_OP_plus_uconst 0x0]
    8155                      .dwattr $C$DW$995, DW_AT_accessibility(DW_ACCESS_public)
    8156                      .dwendtag $C$DW$T$192
    8157              
    8158              
    8159              $C$DW$T$193     .dwtag  DW_TAG_structure_type
    8160                      .dwattr $C$DW$T$193, DW_AT_name("GLDCTL2_BITS")
    8161                      .dwattr $C$DW$T$193, DW_AT_byte_size(0x01)
    8162              $C$DW$996       .dwtag  DW_TAG_member
    8163                      .dwattr $C$DW$996, DW_AT_type(*$C$DW$T$34)
    8164                      .dwattr $C$DW$996, DW_AT_name("OSHTLD")
    8165                      .dwattr $C$DW$996, DW_AT_TI_symbol_name("_OSHTLD")
    8166                      .dwattr $C$DW$996, DW_AT_bit_offset(0x0f), DW_AT_bit_size(0x01)
    8167                      .dwattr $C$DW$996, DW_AT_data_member_location[DW_OP_plus_uconst 0x0]
    8168                      .dwattr $C$DW$996, DW_AT_accessibility(DW_ACCESS_public)
    8169              $C$DW$997       .dwtag  DW_TAG_member
    8170                      .dwattr $C$DW$997, DW_AT_type(*$C$DW$T$34)
    8171                      .dwattr $C$DW$997, DW_AT_name("GFRCLD")
    8172                      .dwattr $C$DW$997, DW_AT_TI_symbol_name("_GFRCLD")
    8173                      .dwattr $C$DW$997, DW_AT_bit_offset(0x0e), DW_AT_bit_size(0x01)
    8174                      .dwattr $C$DW$997, DW_AT_data_member_location[DW_OP_plus_uconst 0x0]
TMS320C2000 Assembler PC v6.4.2 Thu Dec 14 15:27:05 2017

Tools Copyright (c) 1996-2015 Texas Instruments Incorporated
fsm_main.asm                                                         PAGE  152

    8175                      .dwattr $C$DW$997, DW_AT_accessibility(DW_ACCESS_public)
    8176              $C$DW$998       .dwtag  DW_TAG_member
    8177                      .dwattr $C$DW$998, DW_AT_type(*$C$DW$T$34)
    8178                      .dwattr $C$DW$998, DW_AT_name("rsvd1")
    8179                      .dwattr $C$DW$998, DW_AT_TI_symbol_name("_rsvd1")
    8180                      .dwattr $C$DW$998, DW_AT_bit_offset(0x00), DW_AT_bit_size(0x0e)
    8181                      .dwattr $C$DW$998, DW_AT_data_member_location[DW_OP_plus_uconst 0x0]
    8182                      .dwattr $C$DW$998, DW_AT_accessibility(DW_ACCESS_public)
    8183                      .dwendtag $C$DW$T$193
    8184              
    8185              
    8186              $C$DW$T$194     .dwtag  DW_TAG_union_type
    8187                      .dwattr $C$DW$T$194, DW_AT_name("GLDCTL2_REG")
    8188                      .dwattr $C$DW$T$194, DW_AT_byte_size(0x01)
    8189              $C$DW$999       .dwtag  DW_TAG_member
    8190                      .dwattr $C$DW$999, DW_AT_type(*$C$DW$T$34)
    8191                      .dwattr $C$DW$999, DW_AT_name("all")
    8192                      .dwattr $C$DW$999, DW_AT_TI_symbol_name("_all")
    8193                      .dwattr $C$DW$999, DW_AT_data_member_location[DW_OP_plus_uconst 0x0]
    8194                      .dwattr $C$DW$999, DW_AT_accessibility(DW_ACCESS_public)
    8195              $C$DW$1000      .dwtag  DW_TAG_member
    8196                      .dwattr $C$DW$1000, DW_AT_type(*$C$DW$T$193)
    8197                      .dwattr $C$DW$1000, DW_AT_name("bit")
    8198                      .dwattr $C$DW$1000, DW_AT_TI_symbol_name("_bit")
    8199                      .dwattr $C$DW$1000, DW_AT_data_member_location[DW_OP_plus_uconst 0x0]
    8200                      .dwattr $C$DW$1000, DW_AT_accessibility(DW_ACCESS_public)
    8201                      .dwendtag $C$DW$T$194
    8202              
    8203              
    8204              $C$DW$T$195     .dwtag  DW_TAG_structure_type
    8205                      .dwattr $C$DW$T$195, DW_AT_name("GLDCTL_BITS")
    8206                      .dwattr $C$DW$T$195, DW_AT_byte_size(0x01)
    8207              $C$DW$1001      .dwtag  DW_TAG_member
    8208                      .dwattr $C$DW$1001, DW_AT_type(*$C$DW$T$34)
    8209                      .dwattr $C$DW$1001, DW_AT_name("GLD")
    8210                      .dwattr $C$DW$1001, DW_AT_TI_symbol_name("_GLD")
    8211                      .dwattr $C$DW$1001, DW_AT_bit_offset(0x0f), DW_AT_bit_size(0x01)
    8212                      .dwattr $C$DW$1001, DW_AT_data_member_location[DW_OP_plus_uconst 0x0]
    8213                      .dwattr $C$DW$1001, DW_AT_accessibility(DW_ACCESS_public)
    8214              $C$DW$1002      .dwtag  DW_TAG_member
    8215                      .dwattr $C$DW$1002, DW_AT_type(*$C$DW$T$34)
    8216                      .dwattr $C$DW$1002, DW_AT_name("GLDMODE")
    8217                      .dwattr $C$DW$1002, DW_AT_TI_symbol_name("_GLDMODE")
    8218                      .dwattr $C$DW$1002, DW_AT_bit_offset(0x0b), DW_AT_bit_size(0x04)
    8219                      .dwattr $C$DW$1002, DW_AT_data_member_location[DW_OP_plus_uconst 0x0]
    8220                      .dwattr $C$DW$1002, DW_AT_accessibility(DW_ACCESS_public)
    8221              $C$DW$1003      .dwtag  DW_TAG_member
    8222                      .dwattr $C$DW$1003, DW_AT_type(*$C$DW$T$34)
    8223                      .dwattr $C$DW$1003, DW_AT_name("OSHTMODE")
    8224                      .dwattr $C$DW$1003, DW_AT_TI_symbol_name("_OSHTMODE")
    8225                      .dwattr $C$DW$1003, DW_AT_bit_offset(0x0a), DW_AT_bit_size(0x01)
    8226                      .dwattr $C$DW$1003, DW_AT_data_member_location[DW_OP_plus_uconst 0x0]
    8227                      .dwattr $C$DW$1003, DW_AT_accessibility(DW_ACCESS_public)
    8228              $C$DW$1004      .dwtag  DW_TAG_member
    8229                      .dwattr $C$DW$1004, DW_AT_type(*$C$DW$T$34)
TMS320C2000 Assembler PC v6.4.2 Thu Dec 14 15:27:05 2017

Tools Copyright (c) 1996-2015 Texas Instruments Incorporated
fsm_main.asm                                                         PAGE  153

    8230                      .dwattr $C$DW$1004, DW_AT_name("rsvd1")
    8231                      .dwattr $C$DW$1004, DW_AT_TI_symbol_name("_rsvd1")
    8232                      .dwattr $C$DW$1004, DW_AT_bit_offset(0x09), DW_AT_bit_size(0x01)
    8233                      .dwattr $C$DW$1004, DW_AT_data_member_location[DW_OP_plus_uconst 0x0]
    8234                      .dwattr $C$DW$1004, DW_AT_accessibility(DW_ACCESS_public)
    8235              $C$DW$1005      .dwtag  DW_TAG_member
    8236                      .dwattr $C$DW$1005, DW_AT_type(*$C$DW$T$34)
    8237                      .dwattr $C$DW$1005, DW_AT_name("GLDPRD")
    8238                      .dwattr $C$DW$1005, DW_AT_TI_symbol_name("_GLDPRD")
    8239                      .dwattr $C$DW$1005, DW_AT_bit_offset(0x06), DW_AT_bit_size(0x03)
    8240                      .dwattr $C$DW$1005, DW_AT_data_member_location[DW_OP_plus_uconst 0x0]
    8241                      .dwattr $C$DW$1005, DW_AT_accessibility(DW_ACCESS_public)
    8242              $C$DW$1006      .dwtag  DW_TAG_member
    8243                      .dwattr $C$DW$1006, DW_AT_type(*$C$DW$T$34)
    8244                      .dwattr $C$DW$1006, DW_AT_name("GLDCNT")
    8245                      .dwattr $C$DW$1006, DW_AT_TI_symbol_name("_GLDCNT")
    8246                      .dwattr $C$DW$1006, DW_AT_bit_offset(0x03), DW_AT_bit_size(0x03)
    8247                      .dwattr $C$DW$1006, DW_AT_data_member_location[DW_OP_plus_uconst 0x0]
    8248                      .dwattr $C$DW$1006, DW_AT_accessibility(DW_ACCESS_public)
    8249              $C$DW$1007      .dwtag  DW_TAG_member
    8250                      .dwattr $C$DW$1007, DW_AT_type(*$C$DW$T$34)
    8251                      .dwattr $C$DW$1007, DW_AT_name("rsvd2")
    8252                      .dwattr $C$DW$1007, DW_AT_TI_symbol_name("_rsvd2")
    8253                      .dwattr $C$DW$1007, DW_AT_bit_offset(0x00), DW_AT_bit_size(0x03)
    8254                      .dwattr $C$DW$1007, DW_AT_data_member_location[DW_OP_plus_uconst 0x0]
    8255                      .dwattr $C$DW$1007, DW_AT_accessibility(DW_ACCESS_public)
    8256                      .dwendtag $C$DW$T$195
    8257              
    8258              
    8259              $C$DW$T$196     .dwtag  DW_TAG_union_type
    8260                      .dwattr $C$DW$T$196, DW_AT_name("GLDCTL_REG")
    8261                      .dwattr $C$DW$T$196, DW_AT_byte_size(0x01)
    8262              $C$DW$1008      .dwtag  DW_TAG_member
    8263                      .dwattr $C$DW$1008, DW_AT_type(*$C$DW$T$34)
    8264                      .dwattr $C$DW$1008, DW_AT_name("all")
    8265                      .dwattr $C$DW$1008, DW_AT_TI_symbol_name("_all")
    8266                      .dwattr $C$DW$1008, DW_AT_data_member_location[DW_OP_plus_uconst 0x0]
    8267                      .dwattr $C$DW$1008, DW_AT_accessibility(DW_ACCESS_public)
    8268              $C$DW$1009      .dwtag  DW_TAG_member
    8269                      .dwattr $C$DW$1009, DW_AT_type(*$C$DW$T$195)
    8270                      .dwattr $C$DW$1009, DW_AT_name("bit")
    8271                      .dwattr $C$DW$1009, DW_AT_TI_symbol_name("_bit")
    8272                      .dwattr $C$DW$1009, DW_AT_data_member_location[DW_OP_plus_uconst 0x0]
    8273                      .dwattr $C$DW$1009, DW_AT_accessibility(DW_ACCESS_public)
    8274                      .dwendtag $C$DW$T$196
    8275              
    8276              
    8277              $C$DW$T$197     .dwtag  DW_TAG_structure_type
    8278                      .dwattr $C$DW$T$197, DW_AT_name("HRCNFG2_BITS")
    8279                      .dwattr $C$DW$T$197, DW_AT_byte_size(0x01)
    8280              $C$DW$1010      .dwtag  DW_TAG_member
    8281                      .dwattr $C$DW$1010, DW_AT_type(*$C$DW$T$34)
    8282                      .dwattr $C$DW$1010, DW_AT_name("EDGMODEDB")
    8283                      .dwattr $C$DW$1010, DW_AT_TI_symbol_name("_EDGMODEDB")
    8284                      .dwattr $C$DW$1010, DW_AT_bit_offset(0x0e), DW_AT_bit_size(0x02)
TMS320C2000 Assembler PC v6.4.2 Thu Dec 14 15:27:05 2017

Tools Copyright (c) 1996-2015 Texas Instruments Incorporated
fsm_main.asm                                                         PAGE  154

    8285                      .dwattr $C$DW$1010, DW_AT_data_member_location[DW_OP_plus_uconst 0x0]
    8286                      .dwattr $C$DW$1010, DW_AT_accessibility(DW_ACCESS_public)
    8287              $C$DW$1011      .dwtag  DW_TAG_member
    8288                      .dwattr $C$DW$1011, DW_AT_type(*$C$DW$T$34)
    8289                      .dwattr $C$DW$1011, DW_AT_name("CTLMODEDBRED")
    8290                      .dwattr $C$DW$1011, DW_AT_TI_symbol_name("_CTLMODEDBRED")
    8291                      .dwattr $C$DW$1011, DW_AT_bit_offset(0x0c), DW_AT_bit_size(0x02)
    8292                      .dwattr $C$DW$1011, DW_AT_data_member_location[DW_OP_plus_uconst 0x0]
    8293                      .dwattr $C$DW$1011, DW_AT_accessibility(DW_ACCESS_public)
    8294              $C$DW$1012      .dwtag  DW_TAG_member
    8295                      .dwattr $C$DW$1012, DW_AT_type(*$C$DW$T$34)
    8296                      .dwattr $C$DW$1012, DW_AT_name("CTLMODEDBFED")
    8297                      .dwattr $C$DW$1012, DW_AT_TI_symbol_name("_CTLMODEDBFED")
    8298                      .dwattr $C$DW$1012, DW_AT_bit_offset(0x0a), DW_AT_bit_size(0x02)
    8299                      .dwattr $C$DW$1012, DW_AT_data_member_location[DW_OP_plus_uconst 0x0]
    8300                      .dwattr $C$DW$1012, DW_AT_accessibility(DW_ACCESS_public)
    8301              $C$DW$1013      .dwtag  DW_TAG_member
    8302                      .dwattr $C$DW$1013, DW_AT_type(*$C$DW$T$34)
    8303                      .dwattr $C$DW$1013, DW_AT_name("rsvd1")
    8304                      .dwattr $C$DW$1013, DW_AT_TI_symbol_name("_rsvd1")
    8305                      .dwattr $C$DW$1013, DW_AT_bit_offset(0x02), DW_AT_bit_size(0x08)
    8306                      .dwattr $C$DW$1013, DW_AT_data_member_location[DW_OP_plus_uconst 0x0]
    8307                      .dwattr $C$DW$1013, DW_AT_accessibility(DW_ACCESS_public)
    8308              $C$DW$1014      .dwtag  DW_TAG_member
    8309                      .dwattr $C$DW$1014, DW_AT_type(*$C$DW$T$34)
    8310                      .dwattr $C$DW$1014, DW_AT_name("rsvd2")
    8311                      .dwattr $C$DW$1014, DW_AT_TI_symbol_name("_rsvd2")
    8312                      .dwattr $C$DW$1014, DW_AT_bit_offset(0x01), DW_AT_bit_size(0x01)
    8313                      .dwattr $C$DW$1014, DW_AT_data_member_location[DW_OP_plus_uconst 0x0]
    8314                      .dwattr $C$DW$1014, DW_AT_accessibility(DW_ACCESS_public)
    8315              $C$DW$1015      .dwtag  DW_TAG_member
    8316                      .dwattr $C$DW$1015, DW_AT_type(*$C$DW$T$34)
    8317                      .dwattr $C$DW$1015, DW_AT_name("rsvd3")
    8318                      .dwattr $C$DW$1015, DW_AT_TI_symbol_name("_rsvd3")
    8319                      .dwattr $C$DW$1015, DW_AT_bit_offset(0x00), DW_AT_bit_size(0x01)
    8320                      .dwattr $C$DW$1015, DW_AT_data_member_location[DW_OP_plus_uconst 0x0]
    8321                      .dwattr $C$DW$1015, DW_AT_accessibility(DW_ACCESS_public)
    8322                      .dwendtag $C$DW$T$197
    8323              
    8324              
    8325              $C$DW$T$198     .dwtag  DW_TAG_union_type
    8326                      .dwattr $C$DW$T$198, DW_AT_name("HRCNFG2_REG")
    8327                      .dwattr $C$DW$T$198, DW_AT_byte_size(0x01)
    8328              $C$DW$1016      .dwtag  DW_TAG_member
    8329                      .dwattr $C$DW$1016, DW_AT_type(*$C$DW$T$34)
    8330                      .dwattr $C$DW$1016, DW_AT_name("all")
    8331                      .dwattr $C$DW$1016, DW_AT_TI_symbol_name("_all")
    8332                      .dwattr $C$DW$1016, DW_AT_data_member_location[DW_OP_plus_uconst 0x0]
    8333                      .dwattr $C$DW$1016, DW_AT_accessibility(DW_ACCESS_public)
    8334              $C$DW$1017      .dwtag  DW_TAG_member
    8335                      .dwattr $C$DW$1017, DW_AT_type(*$C$DW$T$197)
    8336                      .dwattr $C$DW$1017, DW_AT_name("bit")
    8337                      .dwattr $C$DW$1017, DW_AT_TI_symbol_name("_bit")
    8338                      .dwattr $C$DW$1017, DW_AT_data_member_location[DW_OP_plus_uconst 0x0]
    8339                      .dwattr $C$DW$1017, DW_AT_accessibility(DW_ACCESS_public)
TMS320C2000 Assembler PC v6.4.2 Thu Dec 14 15:27:05 2017

Tools Copyright (c) 1996-2015 Texas Instruments Incorporated
fsm_main.asm                                                         PAGE  155

    8340                      .dwendtag $C$DW$T$198
    8341              
    8342              
    8343              $C$DW$T$199     .dwtag  DW_TAG_structure_type
    8344                      .dwattr $C$DW$T$199, DW_AT_name("HRCNFG_BITS")
    8345                      .dwattr $C$DW$T$199, DW_AT_byte_size(0x01)
    8346              $C$DW$1018      .dwtag  DW_TAG_member
    8347                      .dwattr $C$DW$1018, DW_AT_type(*$C$DW$T$34)
    8348                      .dwattr $C$DW$1018, DW_AT_name("EDGMODE")
    8349                      .dwattr $C$DW$1018, DW_AT_TI_symbol_name("_EDGMODE")
    8350                      .dwattr $C$DW$1018, DW_AT_bit_offset(0x0e), DW_AT_bit_size(0x02)
    8351                      .dwattr $C$DW$1018, DW_AT_data_member_location[DW_OP_plus_uconst 0x0]
    8352                      .dwattr $C$DW$1018, DW_AT_accessibility(DW_ACCESS_public)
    8353              $C$DW$1019      .dwtag  DW_TAG_member
    8354                      .dwattr $C$DW$1019, DW_AT_type(*$C$DW$T$34)
    8355                      .dwattr $C$DW$1019, DW_AT_name("CTLMODE")
    8356                      .dwattr $C$DW$1019, DW_AT_TI_symbol_name("_CTLMODE")
    8357                      .dwattr $C$DW$1019, DW_AT_bit_offset(0x0d), DW_AT_bit_size(0x01)
    8358                      .dwattr $C$DW$1019, DW_AT_data_member_location[DW_OP_plus_uconst 0x0]
    8359                      .dwattr $C$DW$1019, DW_AT_accessibility(DW_ACCESS_public)
    8360              $C$DW$1020      .dwtag  DW_TAG_member
    8361                      .dwattr $C$DW$1020, DW_AT_type(*$C$DW$T$34)
    8362                      .dwattr $C$DW$1020, DW_AT_name("HRLOAD")
    8363                      .dwattr $C$DW$1020, DW_AT_TI_symbol_name("_HRLOAD")
    8364                      .dwattr $C$DW$1020, DW_AT_bit_offset(0x0b), DW_AT_bit_size(0x02)
    8365                      .dwattr $C$DW$1020, DW_AT_data_member_location[DW_OP_plus_uconst 0x0]
    8366                      .dwattr $C$DW$1020, DW_AT_accessibility(DW_ACCESS_public)
    8367              $C$DW$1021      .dwtag  DW_TAG_member
    8368                      .dwattr $C$DW$1021, DW_AT_type(*$C$DW$T$34)
    8369                      .dwattr $C$DW$1021, DW_AT_name("SELOUTB")
    8370                      .dwattr $C$DW$1021, DW_AT_TI_symbol_name("_SELOUTB")
    8371                      .dwattr $C$DW$1021, DW_AT_bit_offset(0x0a), DW_AT_bit_size(0x01)
    8372                      .dwattr $C$DW$1021, DW_AT_data_member_location[DW_OP_plus_uconst 0x0]
    8373                      .dwattr $C$DW$1021, DW_AT_accessibility(DW_ACCESS_public)
    8374              $C$DW$1022      .dwtag  DW_TAG_member
    8375                      .dwattr $C$DW$1022, DW_AT_type(*$C$DW$T$34)
    8376                      .dwattr $C$DW$1022, DW_AT_name("AUTOCONV")
    8377                      .dwattr $C$DW$1022, DW_AT_TI_symbol_name("_AUTOCONV")
    8378                      .dwattr $C$DW$1022, DW_AT_bit_offset(0x09), DW_AT_bit_size(0x01)
    8379                      .dwattr $C$DW$1022, DW_AT_data_member_location[DW_OP_plus_uconst 0x0]
    8380                      .dwattr $C$DW$1022, DW_AT_accessibility(DW_ACCESS_public)
    8381              $C$DW$1023      .dwtag  DW_TAG_member
    8382                      .dwattr $C$DW$1023, DW_AT_type(*$C$DW$T$34)
    8383                      .dwattr $C$DW$1023, DW_AT_name("SWAPAB")
    8384                      .dwattr $C$DW$1023, DW_AT_TI_symbol_name("_SWAPAB")
    8385                      .dwattr $C$DW$1023, DW_AT_bit_offset(0x08), DW_AT_bit_size(0x01)
    8386                      .dwattr $C$DW$1023, DW_AT_data_member_location[DW_OP_plus_uconst 0x0]
    8387                      .dwattr $C$DW$1023, DW_AT_accessibility(DW_ACCESS_public)
    8388              $C$DW$1024      .dwtag  DW_TAG_member
    8389                      .dwattr $C$DW$1024, DW_AT_type(*$C$DW$T$34)
    8390                      .dwattr $C$DW$1024, DW_AT_name("EDGMODEB")
    8391                      .dwattr $C$DW$1024, DW_AT_TI_symbol_name("_EDGMODEB")
    8392                      .dwattr $C$DW$1024, DW_AT_bit_offset(0x06), DW_AT_bit_size(0x02)
    8393                      .dwattr $C$DW$1024, DW_AT_data_member_location[DW_OP_plus_uconst 0x0]
    8394                      .dwattr $C$DW$1024, DW_AT_accessibility(DW_ACCESS_public)
TMS320C2000 Assembler PC v6.4.2 Thu Dec 14 15:27:05 2017

Tools Copyright (c) 1996-2015 Texas Instruments Incorporated
fsm_main.asm                                                         PAGE  156

    8395              $C$DW$1025      .dwtag  DW_TAG_member
    8396                      .dwattr $C$DW$1025, DW_AT_type(*$C$DW$T$34)
    8397                      .dwattr $C$DW$1025, DW_AT_name("CTLMODEB")
    8398                      .dwattr $C$DW$1025, DW_AT_TI_symbol_name("_CTLMODEB")
    8399                      .dwattr $C$DW$1025, DW_AT_bit_offset(0x05), DW_AT_bit_size(0x01)
    8400                      .dwattr $C$DW$1025, DW_AT_data_member_location[DW_OP_plus_uconst 0x0]
    8401                      .dwattr $C$DW$1025, DW_AT_accessibility(DW_ACCESS_public)
    8402              $C$DW$1026      .dwtag  DW_TAG_member
    8403                      .dwattr $C$DW$1026, DW_AT_type(*$C$DW$T$34)
    8404                      .dwattr $C$DW$1026, DW_AT_name("HRLOADB")
    8405                      .dwattr $C$DW$1026, DW_AT_TI_symbol_name("_HRLOADB")
    8406                      .dwattr $C$DW$1026, DW_AT_bit_offset(0x03), DW_AT_bit_size(0x02)
    8407                      .dwattr $C$DW$1026, DW_AT_data_member_location[DW_OP_plus_uconst 0x0]
    8408                      .dwattr $C$DW$1026, DW_AT_accessibility(DW_ACCESS_public)
    8409              $C$DW$1027      .dwtag  DW_TAG_member
    8410                      .dwattr $C$DW$1027, DW_AT_type(*$C$DW$T$34)
    8411                      .dwattr $C$DW$1027, DW_AT_name("rsvd1")
    8412                      .dwattr $C$DW$1027, DW_AT_TI_symbol_name("_rsvd1")
    8413                      .dwattr $C$DW$1027, DW_AT_bit_offset(0x02), DW_AT_bit_size(0x01)
    8414                      .dwattr $C$DW$1027, DW_AT_data_member_location[DW_OP_plus_uconst 0x0]
    8415                      .dwattr $C$DW$1027, DW_AT_accessibility(DW_ACCESS_public)
    8416              $C$DW$1028      .dwtag  DW_TAG_member
    8417                      .dwattr $C$DW$1028, DW_AT_type(*$C$DW$T$34)
    8418                      .dwattr $C$DW$1028, DW_AT_name("rsvd2")
    8419                      .dwattr $C$DW$1028, DW_AT_TI_symbol_name("_rsvd2")
    8420                      .dwattr $C$DW$1028, DW_AT_bit_offset(0x00), DW_AT_bit_size(0x02)
    8421                      .dwattr $C$DW$1028, DW_AT_data_member_location[DW_OP_plus_uconst 0x0]
    8422                      .dwattr $C$DW$1028, DW_AT_accessibility(DW_ACCESS_public)
    8423                      .dwendtag $C$DW$T$199
    8424              
    8425              
    8426              $C$DW$T$200     .dwtag  DW_TAG_union_type
    8427                      .dwattr $C$DW$T$200, DW_AT_name("HRCNFG_REG")
    8428                      .dwattr $C$DW$T$200, DW_AT_byte_size(0x01)
    8429              $C$DW$1029      .dwtag  DW_TAG_member
    8430                      .dwattr $C$DW$1029, DW_AT_type(*$C$DW$T$34)
    8431                      .dwattr $C$DW$1029, DW_AT_name("all")
    8432                      .dwattr $C$DW$1029, DW_AT_TI_symbol_name("_all")
    8433                      .dwattr $C$DW$1029, DW_AT_data_member_location[DW_OP_plus_uconst 0x0]
    8434                      .dwattr $C$DW$1029, DW_AT_accessibility(DW_ACCESS_public)
    8435              $C$DW$1030      .dwtag  DW_TAG_member
    8436                      .dwattr $C$DW$1030, DW_AT_type(*$C$DW$T$199)
    8437                      .dwattr $C$DW$1030, DW_AT_name("bit")
    8438                      .dwattr $C$DW$1030, DW_AT_TI_symbol_name("_bit")
    8439                      .dwattr $C$DW$1030, DW_AT_data_member_location[DW_OP_plus_uconst 0x0]
    8440                      .dwattr $C$DW$1030, DW_AT_accessibility(DW_ACCESS_public)
    8441                      .dwendtag $C$DW$T$200
    8442              
    8443              
    8444              $C$DW$T$201     .dwtag  DW_TAG_structure_type
    8445                      .dwattr $C$DW$T$201, DW_AT_name("HRMSTEP_BITS")
    8446                      .dwattr $C$DW$T$201, DW_AT_byte_size(0x01)
    8447              $C$DW$1031      .dwtag  DW_TAG_member
    8448                      .dwattr $C$DW$1031, DW_AT_type(*$C$DW$T$34)
    8449                      .dwattr $C$DW$1031, DW_AT_name("HRMSTEP")
TMS320C2000 Assembler PC v6.4.2 Thu Dec 14 15:27:05 2017

Tools Copyright (c) 1996-2015 Texas Instruments Incorporated
fsm_main.asm                                                         PAGE  157

    8450                      .dwattr $C$DW$1031, DW_AT_TI_symbol_name("_HRMSTEP")
    8451                      .dwattr $C$DW$1031, DW_AT_bit_offset(0x08), DW_AT_bit_size(0x08)
    8452                      .dwattr $C$DW$1031, DW_AT_data_member_location[DW_OP_plus_uconst 0x0]
    8453                      .dwattr $C$DW$1031, DW_AT_accessibility(DW_ACCESS_public)
    8454              $C$DW$1032      .dwtag  DW_TAG_member
    8455                      .dwattr $C$DW$1032, DW_AT_type(*$C$DW$T$34)
    8456                      .dwattr $C$DW$1032, DW_AT_name("rsvd1")
    8457                      .dwattr $C$DW$1032, DW_AT_TI_symbol_name("_rsvd1")
    8458                      .dwattr $C$DW$1032, DW_AT_bit_offset(0x00), DW_AT_bit_size(0x08)
    8459                      .dwattr $C$DW$1032, DW_AT_data_member_location[DW_OP_plus_uconst 0x0]
    8460                      .dwattr $C$DW$1032, DW_AT_accessibility(DW_ACCESS_public)
    8461                      .dwendtag $C$DW$T$201
    8462              
    8463              
    8464              $C$DW$T$202     .dwtag  DW_TAG_union_type
    8465                      .dwattr $C$DW$T$202, DW_AT_name("HRMSTEP_REG")
    8466                      .dwattr $C$DW$T$202, DW_AT_byte_size(0x01)
    8467              $C$DW$1033      .dwtag  DW_TAG_member
    8468                      .dwattr $C$DW$1033, DW_AT_type(*$C$DW$T$34)
    8469                      .dwattr $C$DW$1033, DW_AT_name("all")
    8470                      .dwattr $C$DW$1033, DW_AT_TI_symbol_name("_all")
    8471                      .dwattr $C$DW$1033, DW_AT_data_member_location[DW_OP_plus_uconst 0x0]
    8472                      .dwattr $C$DW$1033, DW_AT_accessibility(DW_ACCESS_public)
    8473              $C$DW$1034      .dwtag  DW_TAG_member
    8474                      .dwattr $C$DW$1034, DW_AT_type(*$C$DW$T$201)
    8475                      .dwattr $C$DW$1034, DW_AT_name("bit")
    8476                      .dwattr $C$DW$1034, DW_AT_TI_symbol_name("_bit")
    8477                      .dwattr $C$DW$1034, DW_AT_data_member_location[DW_OP_plus_uconst 0x0]
    8478                      .dwattr $C$DW$1034, DW_AT_accessibility(DW_ACCESS_public)
    8479                      .dwendtag $C$DW$T$202
    8480              
    8481              
    8482              $C$DW$T$203     .dwtag  DW_TAG_structure_type
    8483                      .dwattr $C$DW$T$203, DW_AT_name("HRPCTL_BITS")
    8484                      .dwattr $C$DW$T$203, DW_AT_byte_size(0x01)
    8485              $C$DW$1035      .dwtag  DW_TAG_member
    8486                      .dwattr $C$DW$1035, DW_AT_type(*$C$DW$T$34)
    8487                      .dwattr $C$DW$1035, DW_AT_name("HRPE")
    8488                      .dwattr $C$DW$1035, DW_AT_TI_symbol_name("_HRPE")
    8489                      .dwattr $C$DW$1035, DW_AT_bit_offset(0x0f), DW_AT_bit_size(0x01)
    8490                      .dwattr $C$DW$1035, DW_AT_data_member_location[DW_OP_plus_uconst 0x0]
    8491                      .dwattr $C$DW$1035, DW_AT_accessibility(DW_ACCESS_public)
    8492              $C$DW$1036      .dwtag  DW_TAG_member
    8493                      .dwattr $C$DW$1036, DW_AT_type(*$C$DW$T$34)
    8494                      .dwattr $C$DW$1036, DW_AT_name("PWMSYNCSEL")
    8495                      .dwattr $C$DW$1036, DW_AT_TI_symbol_name("_PWMSYNCSEL")
    8496                      .dwattr $C$DW$1036, DW_AT_bit_offset(0x0e), DW_AT_bit_size(0x01)
    8497                      .dwattr $C$DW$1036, DW_AT_data_member_location[DW_OP_plus_uconst 0x0]
    8498                      .dwattr $C$DW$1036, DW_AT_accessibility(DW_ACCESS_public)
    8499              $C$DW$1037      .dwtag  DW_TAG_member
    8500                      .dwattr $C$DW$1037, DW_AT_type(*$C$DW$T$34)
    8501                      .dwattr $C$DW$1037, DW_AT_name("TBPHSHRLOADE")
    8502                      .dwattr $C$DW$1037, DW_AT_TI_symbol_name("_TBPHSHRLOADE")
    8503                      .dwattr $C$DW$1037, DW_AT_bit_offset(0x0d), DW_AT_bit_size(0x01)
    8504                      .dwattr $C$DW$1037, DW_AT_data_member_location[DW_OP_plus_uconst 0x0]
TMS320C2000 Assembler PC v6.4.2 Thu Dec 14 15:27:05 2017

Tools Copyright (c) 1996-2015 Texas Instruments Incorporated
fsm_main.asm                                                         PAGE  158

    8505                      .dwattr $C$DW$1037, DW_AT_accessibility(DW_ACCESS_public)
    8506              $C$DW$1038      .dwtag  DW_TAG_member
    8507                      .dwattr $C$DW$1038, DW_AT_type(*$C$DW$T$34)
    8508                      .dwattr $C$DW$1038, DW_AT_name("rsvd1")
    8509                      .dwattr $C$DW$1038, DW_AT_TI_symbol_name("_rsvd1")
    8510                      .dwattr $C$DW$1038, DW_AT_bit_offset(0x0c), DW_AT_bit_size(0x01)
    8511                      .dwattr $C$DW$1038, DW_AT_data_member_location[DW_OP_plus_uconst 0x0]
    8512                      .dwattr $C$DW$1038, DW_AT_accessibility(DW_ACCESS_public)
    8513              $C$DW$1039      .dwtag  DW_TAG_member
    8514                      .dwattr $C$DW$1039, DW_AT_type(*$C$DW$T$34)
    8515                      .dwattr $C$DW$1039, DW_AT_name("PWMSYNCSELX")
    8516                      .dwattr $C$DW$1039, DW_AT_TI_symbol_name("_PWMSYNCSELX")
    8517                      .dwattr $C$DW$1039, DW_AT_bit_offset(0x09), DW_AT_bit_size(0x03)
    8518                      .dwattr $C$DW$1039, DW_AT_data_member_location[DW_OP_plus_uconst 0x0]
    8519                      .dwattr $C$DW$1039, DW_AT_accessibility(DW_ACCESS_public)
    8520              $C$DW$1040      .dwtag  DW_TAG_member
    8521                      .dwattr $C$DW$1040, DW_AT_type(*$C$DW$T$34)
    8522                      .dwattr $C$DW$1040, DW_AT_name("rsvd2")
    8523                      .dwattr $C$DW$1040, DW_AT_TI_symbol_name("_rsvd2")
    8524                      .dwattr $C$DW$1040, DW_AT_bit_offset(0x00), DW_AT_bit_size(0x09)
    8525                      .dwattr $C$DW$1040, DW_AT_data_member_location[DW_OP_plus_uconst 0x0]
    8526                      .dwattr $C$DW$1040, DW_AT_accessibility(DW_ACCESS_public)
    8527                      .dwendtag $C$DW$T$203
    8528              
    8529              
    8530              $C$DW$T$204     .dwtag  DW_TAG_union_type
    8531                      .dwattr $C$DW$T$204, DW_AT_name("HRPCTL_REG")
    8532                      .dwattr $C$DW$T$204, DW_AT_byte_size(0x01)
    8533              $C$DW$1041      .dwtag  DW_TAG_member
    8534                      .dwattr $C$DW$1041, DW_AT_type(*$C$DW$T$34)
    8535                      .dwattr $C$DW$1041, DW_AT_name("all")
    8536                      .dwattr $C$DW$1041, DW_AT_TI_symbol_name("_all")
    8537                      .dwattr $C$DW$1041, DW_AT_data_member_location[DW_OP_plus_uconst 0x0]
    8538                      .dwattr $C$DW$1041, DW_AT_accessibility(DW_ACCESS_public)
    8539              $C$DW$1042      .dwtag  DW_TAG_member
    8540                      .dwattr $C$DW$1042, DW_AT_type(*$C$DW$T$203)
    8541                      .dwattr $C$DW$1042, DW_AT_name("bit")
    8542                      .dwattr $C$DW$1042, DW_AT_TI_symbol_name("_bit")
    8543                      .dwattr $C$DW$1042, DW_AT_data_member_location[DW_OP_plus_uconst 0x0]
    8544                      .dwattr $C$DW$1042, DW_AT_accessibility(DW_ACCESS_public)
    8545                      .dwendtag $C$DW$T$204
    8546              
    8547              
    8548              $C$DW$T$205     .dwtag  DW_TAG_structure_type
    8549                      .dwattr $C$DW$T$205, DW_AT_name("HRPWR_BITS")
    8550                      .dwattr $C$DW$T$205, DW_AT_byte_size(0x01)
    8551              $C$DW$1043      .dwtag  DW_TAG_member
    8552                      .dwattr $C$DW$1043, DW_AT_type(*$C$DW$T$34)
    8553                      .dwattr $C$DW$1043, DW_AT_name("rsvd1")
    8554                      .dwattr $C$DW$1043, DW_AT_TI_symbol_name("_rsvd1")
    8555                      .dwattr $C$DW$1043, DW_AT_bit_offset(0x0e), DW_AT_bit_size(0x02)
    8556                      .dwattr $C$DW$1043, DW_AT_data_member_location[DW_OP_plus_uconst 0x0]
    8557                      .dwattr $C$DW$1043, DW_AT_accessibility(DW_ACCESS_public)
    8558              $C$DW$1044      .dwtag  DW_TAG_member
    8559                      .dwattr $C$DW$1044, DW_AT_type(*$C$DW$T$34)
TMS320C2000 Assembler PC v6.4.2 Thu Dec 14 15:27:05 2017

Tools Copyright (c) 1996-2015 Texas Instruments Incorporated
fsm_main.asm                                                         PAGE  159

    8560                      .dwattr $C$DW$1044, DW_AT_name("rsvd2")
    8561                      .dwattr $C$DW$1044, DW_AT_TI_symbol_name("_rsvd2")
    8562                      .dwattr $C$DW$1044, DW_AT_bit_offset(0x0d), DW_AT_bit_size(0x01)
    8563                      .dwattr $C$DW$1044, DW_AT_data_member_location[DW_OP_plus_uconst 0x0]
    8564                      .dwattr $C$DW$1044, DW_AT_accessibility(DW_ACCESS_public)
    8565              $C$DW$1045      .dwtag  DW_TAG_member
    8566                      .dwattr $C$DW$1045, DW_AT_type(*$C$DW$T$34)
    8567                      .dwattr $C$DW$1045, DW_AT_name("rsvd3")
    8568                      .dwattr $C$DW$1045, DW_AT_TI_symbol_name("_rsvd3")
    8569                      .dwattr $C$DW$1045, DW_AT_bit_offset(0x0c), DW_AT_bit_size(0x01)
    8570                      .dwattr $C$DW$1045, DW_AT_data_member_location[DW_OP_plus_uconst 0x0]
    8571                      .dwattr $C$DW$1045, DW_AT_accessibility(DW_ACCESS_public)
    8572              $C$DW$1046      .dwtag  DW_TAG_member
    8573                      .dwattr $C$DW$1046, DW_AT_type(*$C$DW$T$34)
    8574                      .dwattr $C$DW$1046, DW_AT_name("rsvd4")
    8575                      .dwattr $C$DW$1046, DW_AT_TI_symbol_name("_rsvd4")
    8576                      .dwattr $C$DW$1046, DW_AT_bit_offset(0x0b), DW_AT_bit_size(0x01)
    8577                      .dwattr $C$DW$1046, DW_AT_data_member_location[DW_OP_plus_uconst 0x0]
    8578                      .dwattr $C$DW$1046, DW_AT_accessibility(DW_ACCESS_public)
    8579              $C$DW$1047      .dwtag  DW_TAG_member
    8580                      .dwattr $C$DW$1047, DW_AT_type(*$C$DW$T$34)
    8581                      .dwattr $C$DW$1047, DW_AT_name("rsvd5")
    8582                      .dwattr $C$DW$1047, DW_AT_TI_symbol_name("_rsvd5")
    8583                      .dwattr $C$DW$1047, DW_AT_bit_offset(0x0a), DW_AT_bit_size(0x01)
    8584                      .dwattr $C$DW$1047, DW_AT_data_member_location[DW_OP_plus_uconst 0x0]
    8585                      .dwattr $C$DW$1047, DW_AT_accessibility(DW_ACCESS_public)
    8586              $C$DW$1048      .dwtag  DW_TAG_member
    8587                      .dwattr $C$DW$1048, DW_AT_type(*$C$DW$T$34)
    8588                      .dwattr $C$DW$1048, DW_AT_name("rsvd6")
    8589                      .dwattr $C$DW$1048, DW_AT_TI_symbol_name("_rsvd6")
    8590                      .dwattr $C$DW$1048, DW_AT_bit_offset(0x06), DW_AT_bit_size(0x04)
    8591                      .dwattr $C$DW$1048, DW_AT_data_member_location[DW_OP_plus_uconst 0x0]
    8592                      .dwattr $C$DW$1048, DW_AT_accessibility(DW_ACCESS_public)
    8593              $C$DW$1049      .dwtag  DW_TAG_member
    8594                      .dwattr $C$DW$1049, DW_AT_type(*$C$DW$T$34)
    8595                      .dwattr $C$DW$1049, DW_AT_name("rsvd7")
    8596                      .dwattr $C$DW$1049, DW_AT_TI_symbol_name("_rsvd7")
    8597                      .dwattr $C$DW$1049, DW_AT_bit_offset(0x01), DW_AT_bit_size(0x05)
    8598                      .dwattr $C$DW$1049, DW_AT_data_member_location[DW_OP_plus_uconst 0x0]
    8599                      .dwattr $C$DW$1049, DW_AT_accessibility(DW_ACCESS_public)
    8600              $C$DW$1050      .dwtag  DW_TAG_member
    8601                      .dwattr $C$DW$1050, DW_AT_type(*$C$DW$T$34)
    8602                      .dwattr $C$DW$1050, DW_AT_name("CALPWRON")
    8603                      .dwattr $C$DW$1050, DW_AT_TI_symbol_name("_CALPWRON")
    8604                      .dwattr $C$DW$1050, DW_AT_bit_offset(0x00), DW_AT_bit_size(0x01)
    8605                      .dwattr $C$DW$1050, DW_AT_data_member_location[DW_OP_plus_uconst 0x0]
    8606                      .dwattr $C$DW$1050, DW_AT_accessibility(DW_ACCESS_public)
    8607                      .dwendtag $C$DW$T$205
    8608              
    8609              
    8610              $C$DW$T$206     .dwtag  DW_TAG_union_type
    8611                      .dwattr $C$DW$T$206, DW_AT_name("HRPWR_REG")
    8612                      .dwattr $C$DW$T$206, DW_AT_byte_size(0x01)
    8613              $C$DW$1051      .dwtag  DW_TAG_member
    8614                      .dwattr $C$DW$1051, DW_AT_type(*$C$DW$T$34)
TMS320C2000 Assembler PC v6.4.2 Thu Dec 14 15:27:05 2017

Tools Copyright (c) 1996-2015 Texas Instruments Incorporated
fsm_main.asm                                                         PAGE  160

    8615                      .dwattr $C$DW$1051, DW_AT_name("all")
    8616                      .dwattr $C$DW$1051, DW_AT_TI_symbol_name("_all")
    8617                      .dwattr $C$DW$1051, DW_AT_data_member_location[DW_OP_plus_uconst 0x0]
    8618                      .dwattr $C$DW$1051, DW_AT_accessibility(DW_ACCESS_public)
    8619              $C$DW$1052      .dwtag  DW_TAG_member
    8620                      .dwattr $C$DW$1052, DW_AT_type(*$C$DW$T$205)
    8621                      .dwattr $C$DW$1052, DW_AT_name("bit")
    8622                      .dwattr $C$DW$1052, DW_AT_TI_symbol_name("_bit")
    8623                      .dwattr $C$DW$1052, DW_AT_data_member_location[DW_OP_plus_uconst 0x0]
    8624                      .dwattr $C$DW$1052, DW_AT_accessibility(DW_ACCESS_public)
    8625                      .dwendtag $C$DW$T$206
    8626              
    8627              
    8628              $C$DW$T$207     .dwtag  DW_TAG_structure_type
    8629                      .dwattr $C$DW$T$207, DW_AT_name("PCCTL_BITS")
    8630                      .dwattr $C$DW$T$207, DW_AT_byte_size(0x01)
    8631              $C$DW$1053      .dwtag  DW_TAG_member
    8632                      .dwattr $C$DW$1053, DW_AT_type(*$C$DW$T$34)
    8633                      .dwattr $C$DW$1053, DW_AT_name("CHPEN")
    8634                      .dwattr $C$DW$1053, DW_AT_TI_symbol_name("_CHPEN")
    8635                      .dwattr $C$DW$1053, DW_AT_bit_offset(0x0f), DW_AT_bit_size(0x01)
    8636                      .dwattr $C$DW$1053, DW_AT_data_member_location[DW_OP_plus_uconst 0x0]
    8637                      .dwattr $C$DW$1053, DW_AT_accessibility(DW_ACCESS_public)
    8638              $C$DW$1054      .dwtag  DW_TAG_member
    8639                      .dwattr $C$DW$1054, DW_AT_type(*$C$DW$T$34)
    8640                      .dwattr $C$DW$1054, DW_AT_name("OSHTWTH")
    8641                      .dwattr $C$DW$1054, DW_AT_TI_symbol_name("_OSHTWTH")
    8642                      .dwattr $C$DW$1054, DW_AT_bit_offset(0x0b), DW_AT_bit_size(0x04)
    8643                      .dwattr $C$DW$1054, DW_AT_data_member_location[DW_OP_plus_uconst 0x0]
    8644                      .dwattr $C$DW$1054, DW_AT_accessibility(DW_ACCESS_public)
    8645              $C$DW$1055      .dwtag  DW_TAG_member
    8646                      .dwattr $C$DW$1055, DW_AT_type(*$C$DW$T$34)
    8647                      .dwattr $C$DW$1055, DW_AT_name("CHPFREQ")
    8648                      .dwattr $C$DW$1055, DW_AT_TI_symbol_name("_CHPFREQ")
    8649                      .dwattr $C$DW$1055, DW_AT_bit_offset(0x08), DW_AT_bit_size(0x03)
    8650                      .dwattr $C$DW$1055, DW_AT_data_member_location[DW_OP_plus_uconst 0x0]
    8651                      .dwattr $C$DW$1055, DW_AT_accessibility(DW_ACCESS_public)
    8652              $C$DW$1056      .dwtag  DW_TAG_member
    8653                      .dwattr $C$DW$1056, DW_AT_type(*$C$DW$T$34)
    8654                      .dwattr $C$DW$1056, DW_AT_name("CHPDUTY")
    8655                      .dwattr $C$DW$1056, DW_AT_TI_symbol_name("_CHPDUTY")
    8656                      .dwattr $C$DW$1056, DW_AT_bit_offset(0x05), DW_AT_bit_size(0x03)
    8657                      .dwattr $C$DW$1056, DW_AT_data_member_location[DW_OP_plus_uconst 0x0]
    8658                      .dwattr $C$DW$1056, DW_AT_accessibility(DW_ACCESS_public)
    8659              $C$DW$1057      .dwtag  DW_TAG_member
    8660                      .dwattr $C$DW$1057, DW_AT_type(*$C$DW$T$34)
    8661                      .dwattr $C$DW$1057, DW_AT_name("rsvd1")
    8662                      .dwattr $C$DW$1057, DW_AT_TI_symbol_name("_rsvd1")
    8663                      .dwattr $C$DW$1057, DW_AT_bit_offset(0x00), DW_AT_bit_size(0x05)
    8664                      .dwattr $C$DW$1057, DW_AT_data_member_location[DW_OP_plus_uconst 0x0]
    8665                      .dwattr $C$DW$1057, DW_AT_accessibility(DW_ACCESS_public)
    8666                      .dwendtag $C$DW$T$207
    8667              
    8668              
    8669              $C$DW$T$208     .dwtag  DW_TAG_union_type
TMS320C2000 Assembler PC v6.4.2 Thu Dec 14 15:27:05 2017

Tools Copyright (c) 1996-2015 Texas Instruments Incorporated
fsm_main.asm                                                         PAGE  161

    8670                      .dwattr $C$DW$T$208, DW_AT_name("PCCTL_REG")
    8671                      .dwattr $C$DW$T$208, DW_AT_byte_size(0x01)
    8672              $C$DW$1058      .dwtag  DW_TAG_member
    8673                      .dwattr $C$DW$1058, DW_AT_type(*$C$DW$T$34)
    8674                      .dwattr $C$DW$1058, DW_AT_name("all")
    8675                      .dwattr $C$DW$1058, DW_AT_TI_symbol_name("_all")
    8676                      .dwattr $C$DW$1058, DW_AT_data_member_location[DW_OP_plus_uconst 0x0]
    8677                      .dwattr $C$DW$1058, DW_AT_accessibility(DW_ACCESS_public)
    8678              $C$DW$1059      .dwtag  DW_TAG_member
    8679                      .dwattr $C$DW$1059, DW_AT_type(*$C$DW$T$207)
    8680                      .dwattr $C$DW$1059, DW_AT_name("bit")
    8681                      .dwattr $C$DW$1059, DW_AT_TI_symbol_name("_bit")
    8682                      .dwattr $C$DW$1059, DW_AT_data_member_location[DW_OP_plus_uconst 0x0]
    8683                      .dwattr $C$DW$1059, DW_AT_accessibility(DW_ACCESS_public)
    8684                      .dwendtag $C$DW$T$208
    8685              
    8686              
    8687              $C$DW$T$209     .dwtag  DW_TAG_structure_type
    8688                      .dwattr $C$DW$T$209, DW_AT_name("QCAPCTL_BITS")
    8689                      .dwattr $C$DW$T$209, DW_AT_byte_size(0x01)
    8690              $C$DW$1060      .dwtag  DW_TAG_member
    8691                      .dwattr $C$DW$1060, DW_AT_type(*$C$DW$T$34)
    8692                      .dwattr $C$DW$1060, DW_AT_name("UPPS")
    8693                      .dwattr $C$DW$1060, DW_AT_TI_symbol_name("_UPPS")
    8694                      .dwattr $C$DW$1060, DW_AT_bit_offset(0x0c), DW_AT_bit_size(0x04)
    8695                      .dwattr $C$DW$1060, DW_AT_data_member_location[DW_OP_plus_uconst 0x0]
    8696                      .dwattr $C$DW$1060, DW_AT_accessibility(DW_ACCESS_public)
    8697              $C$DW$1061      .dwtag  DW_TAG_member
    8698                      .dwattr $C$DW$1061, DW_AT_type(*$C$DW$T$34)
    8699                      .dwattr $C$DW$1061, DW_AT_name("CCPS")
    8700                      .dwattr $C$DW$1061, DW_AT_TI_symbol_name("_CCPS")
    8701                      .dwattr $C$DW$1061, DW_AT_bit_offset(0x09), DW_AT_bit_size(0x03)
    8702                      .dwattr $C$DW$1061, DW_AT_data_member_location[DW_OP_plus_uconst 0x0]
    8703                      .dwattr $C$DW$1061, DW_AT_accessibility(DW_ACCESS_public)
    8704              $C$DW$1062      .dwtag  DW_TAG_member
    8705                      .dwattr $C$DW$1062, DW_AT_type(*$C$DW$T$34)
    8706                      .dwattr $C$DW$1062, DW_AT_name("rsvd1")
    8707                      .dwattr $C$DW$1062, DW_AT_TI_symbol_name("_rsvd1")
    8708                      .dwattr $C$DW$1062, DW_AT_bit_offset(0x01), DW_AT_bit_size(0x08)
    8709                      .dwattr $C$DW$1062, DW_AT_data_member_location[DW_OP_plus_uconst 0x0]
    8710                      .dwattr $C$DW$1062, DW_AT_accessibility(DW_ACCESS_public)
    8711              $C$DW$1063      .dwtag  DW_TAG_member
    8712                      .dwattr $C$DW$1063, DW_AT_type(*$C$DW$T$34)
    8713                      .dwattr $C$DW$1063, DW_AT_name("CEN")
    8714                      .dwattr $C$DW$1063, DW_AT_TI_symbol_name("_CEN")
    8715                      .dwattr $C$DW$1063, DW_AT_bit_offset(0x00), DW_AT_bit_size(0x01)
    8716                      .dwattr $C$DW$1063, DW_AT_data_member_location[DW_OP_plus_uconst 0x0]
    8717                      .dwattr $C$DW$1063, DW_AT_accessibility(DW_ACCESS_public)
    8718                      .dwendtag $C$DW$T$209
    8719              
    8720              
    8721              $C$DW$T$210     .dwtag  DW_TAG_union_type
    8722                      .dwattr $C$DW$T$210, DW_AT_name("QCAPCTL_REG")
    8723                      .dwattr $C$DW$T$210, DW_AT_byte_size(0x01)
    8724              $C$DW$1064      .dwtag  DW_TAG_member
TMS320C2000 Assembler PC v6.4.2 Thu Dec 14 15:27:05 2017

Tools Copyright (c) 1996-2015 Texas Instruments Incorporated
fsm_main.asm                                                         PAGE  162

    8725                      .dwattr $C$DW$1064, DW_AT_type(*$C$DW$T$34)
    8726                      .dwattr $C$DW$1064, DW_AT_name("all")
    8727                      .dwattr $C$DW$1064, DW_AT_TI_symbol_name("_all")
    8728                      .dwattr $C$DW$1064, DW_AT_data_member_location[DW_OP_plus_uconst 0x0]
    8729                      .dwattr $C$DW$1064, DW_AT_accessibility(DW_ACCESS_public)
    8730              $C$DW$1065      .dwtag  DW_TAG_member
    8731                      .dwattr $C$DW$1065, DW_AT_type(*$C$DW$T$209)
    8732                      .dwattr $C$DW$1065, DW_AT_name("bit")
    8733                      .dwattr $C$DW$1065, DW_AT_TI_symbol_name("_bit")
    8734                      .dwattr $C$DW$1065, DW_AT_data_member_location[DW_OP_plus_uconst 0x0]
    8735                      .dwattr $C$DW$1065, DW_AT_accessibility(DW_ACCESS_public)
    8736                      .dwendtag $C$DW$T$210
    8737              
    8738              
    8739              $C$DW$T$211     .dwtag  DW_TAG_structure_type
    8740                      .dwattr $C$DW$T$211, DW_AT_name("QCLR_BITS")
    8741                      .dwattr $C$DW$T$211, DW_AT_byte_size(0x01)
    8742              $C$DW$1066      .dwtag  DW_TAG_member
    8743                      .dwattr $C$DW$1066, DW_AT_type(*$C$DW$T$34)
    8744                      .dwattr $C$DW$1066, DW_AT_name("INT")
    8745                      .dwattr $C$DW$1066, DW_AT_TI_symbol_name("_INT")
    8746                      .dwattr $C$DW$1066, DW_AT_bit_offset(0x0f), DW_AT_bit_size(0x01)
    8747                      .dwattr $C$DW$1066, DW_AT_data_member_location[DW_OP_plus_uconst 0x0]
    8748                      .dwattr $C$DW$1066, DW_AT_accessibility(DW_ACCESS_public)
    8749              $C$DW$1067      .dwtag  DW_TAG_member
    8750                      .dwattr $C$DW$1067, DW_AT_type(*$C$DW$T$34)
    8751                      .dwattr $C$DW$1067, DW_AT_name("PCE")
    8752                      .dwattr $C$DW$1067, DW_AT_TI_symbol_name("_PCE")
    8753                      .dwattr $C$DW$1067, DW_AT_bit_offset(0x0e), DW_AT_bit_size(0x01)
    8754                      .dwattr $C$DW$1067, DW_AT_data_member_location[DW_OP_plus_uconst 0x0]
    8755                      .dwattr $C$DW$1067, DW_AT_accessibility(DW_ACCESS_public)
    8756              $C$DW$1068      .dwtag  DW_TAG_member
    8757                      .dwattr $C$DW$1068, DW_AT_type(*$C$DW$T$34)
    8758                      .dwattr $C$DW$1068, DW_AT_name("PHE")
    8759                      .dwattr $C$DW$1068, DW_AT_TI_symbol_name("_PHE")
    8760                      .dwattr $C$DW$1068, DW_AT_bit_offset(0x0d), DW_AT_bit_size(0x01)
    8761                      .dwattr $C$DW$1068, DW_AT_data_member_location[DW_OP_plus_uconst 0x0]
    8762                      .dwattr $C$DW$1068, DW_AT_accessibility(DW_ACCESS_public)
    8763              $C$DW$1069      .dwtag  DW_TAG_member
    8764                      .dwattr $C$DW$1069, DW_AT_type(*$C$DW$T$34)
    8765                      .dwattr $C$DW$1069, DW_AT_name("QDC")
    8766                      .dwattr $C$DW$1069, DW_AT_TI_symbol_name("_QDC")
    8767                      .dwattr $C$DW$1069, DW_AT_bit_offset(0x0c), DW_AT_bit_size(0x01)
    8768                      .dwattr $C$DW$1069, DW_AT_data_member_location[DW_OP_plus_uconst 0x0]
    8769                      .dwattr $C$DW$1069, DW_AT_accessibility(DW_ACCESS_public)
    8770              $C$DW$1070      .dwtag  DW_TAG_member
    8771                      .dwattr $C$DW$1070, DW_AT_type(*$C$DW$T$34)
    8772                      .dwattr $C$DW$1070, DW_AT_name("WTO")
    8773                      .dwattr $C$DW$1070, DW_AT_TI_symbol_name("_WTO")
    8774                      .dwattr $C$DW$1070, DW_AT_bit_offset(0x0b), DW_AT_bit_size(0x01)
    8775                      .dwattr $C$DW$1070, DW_AT_data_member_location[DW_OP_plus_uconst 0x0]
    8776                      .dwattr $C$DW$1070, DW_AT_accessibility(DW_ACCESS_public)
    8777              $C$DW$1071      .dwtag  DW_TAG_member
    8778                      .dwattr $C$DW$1071, DW_AT_type(*$C$DW$T$34)
    8779                      .dwattr $C$DW$1071, DW_AT_name("PCU")
TMS320C2000 Assembler PC v6.4.2 Thu Dec 14 15:27:05 2017

Tools Copyright (c) 1996-2015 Texas Instruments Incorporated
fsm_main.asm                                                         PAGE  163

    8780                      .dwattr $C$DW$1071, DW_AT_TI_symbol_name("_PCU")
    8781                      .dwattr $C$DW$1071, DW_AT_bit_offset(0x0a), DW_AT_bit_size(0x01)
    8782                      .dwattr $C$DW$1071, DW_AT_data_member_location[DW_OP_plus_uconst 0x0]
    8783                      .dwattr $C$DW$1071, DW_AT_accessibility(DW_ACCESS_public)
    8784              $C$DW$1072      .dwtag  DW_TAG_member
    8785                      .dwattr $C$DW$1072, DW_AT_type(*$C$DW$T$34)
    8786                      .dwattr $C$DW$1072, DW_AT_name("PCO")
    8787                      .dwattr $C$DW$1072, DW_AT_TI_symbol_name("_PCO")
    8788                      .dwattr $C$DW$1072, DW_AT_bit_offset(0x09), DW_AT_bit_size(0x01)
    8789                      .dwattr $C$DW$1072, DW_AT_data_member_location[DW_OP_plus_uconst 0x0]
    8790                      .dwattr $C$DW$1072, DW_AT_accessibility(DW_ACCESS_public)
    8791              $C$DW$1073      .dwtag  DW_TAG_member
    8792                      .dwattr $C$DW$1073, DW_AT_type(*$C$DW$T$34)
    8793                      .dwattr $C$DW$1073, DW_AT_name("PCR")
    8794                      .dwattr $C$DW$1073, DW_AT_TI_symbol_name("_PCR")
    8795                      .dwattr $C$DW$1073, DW_AT_bit_offset(0x08), DW_AT_bit_size(0x01)
    8796                      .dwattr $C$DW$1073, DW_AT_data_member_location[DW_OP_plus_uconst 0x0]
    8797                      .dwattr $C$DW$1073, DW_AT_accessibility(DW_ACCESS_public)
    8798              $C$DW$1074      .dwtag  DW_TAG_member
    8799                      .dwattr $C$DW$1074, DW_AT_type(*$C$DW$T$34)
    8800                      .dwattr $C$DW$1074, DW_AT_name("PCM")
    8801                      .dwattr $C$DW$1074, DW_AT_TI_symbol_name("_PCM")
    8802                      .dwattr $C$DW$1074, DW_AT_bit_offset(0x07), DW_AT_bit_size(0x01)
    8803                      .dwattr $C$DW$1074, DW_AT_data_member_location[DW_OP_plus_uconst 0x0]
    8804                      .dwattr $C$DW$1074, DW_AT_accessibility(DW_ACCESS_public)
    8805              $C$DW$1075      .dwtag  DW_TAG_member
    8806                      .dwattr $C$DW$1075, DW_AT_type(*$C$DW$T$34)
    8807                      .dwattr $C$DW$1075, DW_AT_name("SEL")
    8808                      .dwattr $C$DW$1075, DW_AT_TI_symbol_name("_SEL")
    8809                      .dwattr $C$DW$1075, DW_AT_bit_offset(0x06), DW_AT_bit_size(0x01)
    8810                      .dwattr $C$DW$1075, DW_AT_data_member_location[DW_OP_plus_uconst 0x0]
    8811                      .dwattr $C$DW$1075, DW_AT_accessibility(DW_ACCESS_public)
    8812              $C$DW$1076      .dwtag  DW_TAG_member
    8813                      .dwattr $C$DW$1076, DW_AT_type(*$C$DW$T$34)
    8814                      .dwattr $C$DW$1076, DW_AT_name("IEL")
    8815                      .dwattr $C$DW$1076, DW_AT_TI_symbol_name("_IEL")
    8816                      .dwattr $C$DW$1076, DW_AT_bit_offset(0x05), DW_AT_bit_size(0x01)
    8817                      .dwattr $C$DW$1076, DW_AT_data_member_location[DW_OP_plus_uconst 0x0]
    8818                      .dwattr $C$DW$1076, DW_AT_accessibility(DW_ACCESS_public)
    8819              $C$DW$1077      .dwtag  DW_TAG_member
    8820                      .dwattr $C$DW$1077, DW_AT_type(*$C$DW$T$34)
    8821                      .dwattr $C$DW$1077, DW_AT_name("UTO")
    8822                      .dwattr $C$DW$1077, DW_AT_TI_symbol_name("_UTO")
    8823                      .dwattr $C$DW$1077, DW_AT_bit_offset(0x04), DW_AT_bit_size(0x01)
    8824                      .dwattr $C$DW$1077, DW_AT_data_member_location[DW_OP_plus_uconst 0x0]
    8825                      .dwattr $C$DW$1077, DW_AT_accessibility(DW_ACCESS_public)
    8826              $C$DW$1078      .dwtag  DW_TAG_member
    8827                      .dwattr $C$DW$1078, DW_AT_type(*$C$DW$T$34)
    8828                      .dwattr $C$DW$1078, DW_AT_name("rsvd1")
    8829                      .dwattr $C$DW$1078, DW_AT_TI_symbol_name("_rsvd1")
    8830                      .dwattr $C$DW$1078, DW_AT_bit_offset(0x00), DW_AT_bit_size(0x04)
    8831                      .dwattr $C$DW$1078, DW_AT_data_member_location[DW_OP_plus_uconst 0x0]
    8832                      .dwattr $C$DW$1078, DW_AT_accessibility(DW_ACCESS_public)
    8833                      .dwendtag $C$DW$T$211
    8834              
TMS320C2000 Assembler PC v6.4.2 Thu Dec 14 15:27:05 2017

Tools Copyright (c) 1996-2015 Texas Instruments Incorporated
fsm_main.asm                                                         PAGE  164

    8835              
    8836              $C$DW$T$212     .dwtag  DW_TAG_union_type
    8837                      .dwattr $C$DW$T$212, DW_AT_name("QCLR_REG")
    8838                      .dwattr $C$DW$T$212, DW_AT_byte_size(0x01)
    8839              $C$DW$1079      .dwtag  DW_TAG_member
    8840                      .dwattr $C$DW$1079, DW_AT_type(*$C$DW$T$34)
    8841                      .dwattr $C$DW$1079, DW_AT_name("all")
    8842                      .dwattr $C$DW$1079, DW_AT_TI_symbol_name("_all")
    8843                      .dwattr $C$DW$1079, DW_AT_data_member_location[DW_OP_plus_uconst 0x0]
    8844                      .dwattr $C$DW$1079, DW_AT_accessibility(DW_ACCESS_public)
    8845              $C$DW$1080      .dwtag  DW_TAG_member
    8846                      .dwattr $C$DW$1080, DW_AT_type(*$C$DW$T$211)
    8847                      .dwattr $C$DW$1080, DW_AT_name("bit")
    8848                      .dwattr $C$DW$1080, DW_AT_TI_symbol_name("_bit")
    8849                      .dwattr $C$DW$1080, DW_AT_data_member_location[DW_OP_plus_uconst 0x0]
    8850                      .dwattr $C$DW$1080, DW_AT_accessibility(DW_ACCESS_public)
    8851                      .dwendtag $C$DW$T$212
    8852              
    8853              
    8854              $C$DW$T$213     .dwtag  DW_TAG_structure_type
    8855                      .dwattr $C$DW$T$213, DW_AT_name("QDECCTL_BITS")
    8856                      .dwattr $C$DW$T$213, DW_AT_byte_size(0x01)
    8857              $C$DW$1081      .dwtag  DW_TAG_member
    8858                      .dwattr $C$DW$1081, DW_AT_type(*$C$DW$T$34)
    8859                      .dwattr $C$DW$1081, DW_AT_name("rsvd1")
    8860                      .dwattr $C$DW$1081, DW_AT_TI_symbol_name("_rsvd1")
    8861                      .dwattr $C$DW$1081, DW_AT_bit_offset(0x0b), DW_AT_bit_size(0x05)
    8862                      .dwattr $C$DW$1081, DW_AT_data_member_location[DW_OP_plus_uconst 0x0]
    8863                      .dwattr $C$DW$1081, DW_AT_accessibility(DW_ACCESS_public)
    8864              $C$DW$1082      .dwtag  DW_TAG_member
    8865                      .dwattr $C$DW$1082, DW_AT_type(*$C$DW$T$34)
    8866                      .dwattr $C$DW$1082, DW_AT_name("QSP")
    8867                      .dwattr $C$DW$1082, DW_AT_TI_symbol_name("_QSP")
    8868                      .dwattr $C$DW$1082, DW_AT_bit_offset(0x0a), DW_AT_bit_size(0x01)
    8869                      .dwattr $C$DW$1082, DW_AT_data_member_location[DW_OP_plus_uconst 0x0]
    8870                      .dwattr $C$DW$1082, DW_AT_accessibility(DW_ACCESS_public)
    8871              $C$DW$1083      .dwtag  DW_TAG_member
    8872                      .dwattr $C$DW$1083, DW_AT_type(*$C$DW$T$34)
    8873                      .dwattr $C$DW$1083, DW_AT_name("QIP")
    8874                      .dwattr $C$DW$1083, DW_AT_TI_symbol_name("_QIP")
    8875                      .dwattr $C$DW$1083, DW_AT_bit_offset(0x09), DW_AT_bit_size(0x01)
    8876                      .dwattr $C$DW$1083, DW_AT_data_member_location[DW_OP_plus_uconst 0x0]
    8877                      .dwattr $C$DW$1083, DW_AT_accessibility(DW_ACCESS_public)
    8878              $C$DW$1084      .dwtag  DW_TAG_member
    8879                      .dwattr $C$DW$1084, DW_AT_type(*$C$DW$T$34)
    8880                      .dwattr $C$DW$1084, DW_AT_name("QBP")
    8881                      .dwattr $C$DW$1084, DW_AT_TI_symbol_name("_QBP")
    8882                      .dwattr $C$DW$1084, DW_AT_bit_offset(0x08), DW_AT_bit_size(0x01)
    8883                      .dwattr $C$DW$1084, DW_AT_data_member_location[DW_OP_plus_uconst 0x0]
    8884                      .dwattr $C$DW$1084, DW_AT_accessibility(DW_ACCESS_public)
    8885              $C$DW$1085      .dwtag  DW_TAG_member
    8886                      .dwattr $C$DW$1085, DW_AT_type(*$C$DW$T$34)
    8887                      .dwattr $C$DW$1085, DW_AT_name("QAP")
    8888                      .dwattr $C$DW$1085, DW_AT_TI_symbol_name("_QAP")
    8889                      .dwattr $C$DW$1085, DW_AT_bit_offset(0x07), DW_AT_bit_size(0x01)
TMS320C2000 Assembler PC v6.4.2 Thu Dec 14 15:27:05 2017

Tools Copyright (c) 1996-2015 Texas Instruments Incorporated
fsm_main.asm                                                         PAGE  165

    8890                      .dwattr $C$DW$1085, DW_AT_data_member_location[DW_OP_plus_uconst 0x0]
    8891                      .dwattr $C$DW$1085, DW_AT_accessibility(DW_ACCESS_public)
    8892              $C$DW$1086      .dwtag  DW_TAG_member
    8893                      .dwattr $C$DW$1086, DW_AT_type(*$C$DW$T$34)
    8894                      .dwattr $C$DW$1086, DW_AT_name("IGATE")
    8895                      .dwattr $C$DW$1086, DW_AT_TI_symbol_name("_IGATE")
    8896                      .dwattr $C$DW$1086, DW_AT_bit_offset(0x06), DW_AT_bit_size(0x01)
    8897                      .dwattr $C$DW$1086, DW_AT_data_member_location[DW_OP_plus_uconst 0x0]
    8898                      .dwattr $C$DW$1086, DW_AT_accessibility(DW_ACCESS_public)
    8899              $C$DW$1087      .dwtag  DW_TAG_member
    8900                      .dwattr $C$DW$1087, DW_AT_type(*$C$DW$T$34)
    8901                      .dwattr $C$DW$1087, DW_AT_name("SWAP")
    8902                      .dwattr $C$DW$1087, DW_AT_TI_symbol_name("_SWAP")
    8903                      .dwattr $C$DW$1087, DW_AT_bit_offset(0x05), DW_AT_bit_size(0x01)
    8904                      .dwattr $C$DW$1087, DW_AT_data_member_location[DW_OP_plus_uconst 0x0]
    8905                      .dwattr $C$DW$1087, DW_AT_accessibility(DW_ACCESS_public)
    8906              $C$DW$1088      .dwtag  DW_TAG_member
    8907                      .dwattr $C$DW$1088, DW_AT_type(*$C$DW$T$34)
    8908                      .dwattr $C$DW$1088, DW_AT_name("XCR")
    8909                      .dwattr $C$DW$1088, DW_AT_TI_symbol_name("_XCR")
    8910                      .dwattr $C$DW$1088, DW_AT_bit_offset(0x04), DW_AT_bit_size(0x01)
    8911                      .dwattr $C$DW$1088, DW_AT_data_member_location[DW_OP_plus_uconst 0x0]
    8912                      .dwattr $C$DW$1088, DW_AT_accessibility(DW_ACCESS_public)
    8913              $C$DW$1089      .dwtag  DW_TAG_member
    8914                      .dwattr $C$DW$1089, DW_AT_type(*$C$DW$T$34)
    8915                      .dwattr $C$DW$1089, DW_AT_name("SPSEL")
    8916                      .dwattr $C$DW$1089, DW_AT_TI_symbol_name("_SPSEL")
    8917                      .dwattr $C$DW$1089, DW_AT_bit_offset(0x03), DW_AT_bit_size(0x01)
    8918                      .dwattr $C$DW$1089, DW_AT_data_member_location[DW_OP_plus_uconst 0x0]
    8919                      .dwattr $C$DW$1089, DW_AT_accessibility(DW_ACCESS_public)
    8920              $C$DW$1090      .dwtag  DW_TAG_member
    8921                      .dwattr $C$DW$1090, DW_AT_type(*$C$DW$T$34)
    8922                      .dwattr $C$DW$1090, DW_AT_name("SOEN")
    8923                      .dwattr $C$DW$1090, DW_AT_TI_symbol_name("_SOEN")
    8924                      .dwattr $C$DW$1090, DW_AT_bit_offset(0x02), DW_AT_bit_size(0x01)
    8925                      .dwattr $C$DW$1090, DW_AT_data_member_location[DW_OP_plus_uconst 0x0]
    8926                      .dwattr $C$DW$1090, DW_AT_accessibility(DW_ACCESS_public)
    8927              $C$DW$1091      .dwtag  DW_TAG_member
    8928                      .dwattr $C$DW$1091, DW_AT_type(*$C$DW$T$34)
    8929                      .dwattr $C$DW$1091, DW_AT_name("QSRC")
    8930                      .dwattr $C$DW$1091, DW_AT_TI_symbol_name("_QSRC")
    8931                      .dwattr $C$DW$1091, DW_AT_bit_offset(0x00), DW_AT_bit_size(0x02)
    8932                      .dwattr $C$DW$1091, DW_AT_data_member_location[DW_OP_plus_uconst 0x0]
    8933                      .dwattr $C$DW$1091, DW_AT_accessibility(DW_ACCESS_public)
    8934                      .dwendtag $C$DW$T$213
    8935              
    8936              
    8937              $C$DW$T$214     .dwtag  DW_TAG_union_type
    8938                      .dwattr $C$DW$T$214, DW_AT_name("QDECCTL_REG")
    8939                      .dwattr $C$DW$T$214, DW_AT_byte_size(0x01)
    8940              $C$DW$1092      .dwtag  DW_TAG_member
    8941                      .dwattr $C$DW$1092, DW_AT_type(*$C$DW$T$34)
    8942                      .dwattr $C$DW$1092, DW_AT_name("all")
    8943                      .dwattr $C$DW$1092, DW_AT_TI_symbol_name("_all")
    8944                      .dwattr $C$DW$1092, DW_AT_data_member_location[DW_OP_plus_uconst 0x0]
TMS320C2000 Assembler PC v6.4.2 Thu Dec 14 15:27:05 2017

Tools Copyright (c) 1996-2015 Texas Instruments Incorporated
fsm_main.asm                                                         PAGE  166

    8945                      .dwattr $C$DW$1092, DW_AT_accessibility(DW_ACCESS_public)
    8946              $C$DW$1093      .dwtag  DW_TAG_member
    8947                      .dwattr $C$DW$1093, DW_AT_type(*$C$DW$T$213)
    8948                      .dwattr $C$DW$1093, DW_AT_name("bit")
    8949                      .dwattr $C$DW$1093, DW_AT_TI_symbol_name("_bit")
    8950                      .dwattr $C$DW$1093, DW_AT_data_member_location[DW_OP_plus_uconst 0x0]
    8951                      .dwattr $C$DW$1093, DW_AT_accessibility(DW_ACCESS_public)
    8952                      .dwendtag $C$DW$T$214
    8953              
    8954              
    8955              $C$DW$T$215     .dwtag  DW_TAG_structure_type
    8956                      .dwattr $C$DW$T$215, DW_AT_name("QEINT_BITS")
    8957                      .dwattr $C$DW$T$215, DW_AT_byte_size(0x01)
    8958              $C$DW$1094      .dwtag  DW_TAG_member
    8959                      .dwattr $C$DW$1094, DW_AT_type(*$C$DW$T$34)
    8960                      .dwattr $C$DW$1094, DW_AT_name("rsvd1")
    8961                      .dwattr $C$DW$1094, DW_AT_TI_symbol_name("_rsvd1")
    8962                      .dwattr $C$DW$1094, DW_AT_bit_offset(0x0f), DW_AT_bit_size(0x01)
    8963                      .dwattr $C$DW$1094, DW_AT_data_member_location[DW_OP_plus_uconst 0x0]
    8964                      .dwattr $C$DW$1094, DW_AT_accessibility(DW_ACCESS_public)
    8965              $C$DW$1095      .dwtag  DW_TAG_member
    8966                      .dwattr $C$DW$1095, DW_AT_type(*$C$DW$T$34)
    8967                      .dwattr $C$DW$1095, DW_AT_name("PCE")
    8968                      .dwattr $C$DW$1095, DW_AT_TI_symbol_name("_PCE")
    8969                      .dwattr $C$DW$1095, DW_AT_bit_offset(0x0e), DW_AT_bit_size(0x01)
    8970                      .dwattr $C$DW$1095, DW_AT_data_member_location[DW_OP_plus_uconst 0x0]
    8971                      .dwattr $C$DW$1095, DW_AT_accessibility(DW_ACCESS_public)
    8972              $C$DW$1096      .dwtag  DW_TAG_member
    8973                      .dwattr $C$DW$1096, DW_AT_type(*$C$DW$T$34)
    8974                      .dwattr $C$DW$1096, DW_AT_name("QPE")
    8975                      .dwattr $C$DW$1096, DW_AT_TI_symbol_name("_QPE")
    8976                      .dwattr $C$DW$1096, DW_AT_bit_offset(0x0d), DW_AT_bit_size(0x01)
    8977                      .dwattr $C$DW$1096, DW_AT_data_member_location[DW_OP_plus_uconst 0x0]
    8978                      .dwattr $C$DW$1096, DW_AT_accessibility(DW_ACCESS_public)
    8979              $C$DW$1097      .dwtag  DW_TAG_member
    8980                      .dwattr $C$DW$1097, DW_AT_type(*$C$DW$T$34)
    8981                      .dwattr $C$DW$1097, DW_AT_name("QDC")
    8982                      .dwattr $C$DW$1097, DW_AT_TI_symbol_name("_QDC")
    8983                      .dwattr $C$DW$1097, DW_AT_bit_offset(0x0c), DW_AT_bit_size(0x01)
    8984                      .dwattr $C$DW$1097, DW_AT_data_member_location[DW_OP_plus_uconst 0x0]
    8985                      .dwattr $C$DW$1097, DW_AT_accessibility(DW_ACCESS_public)
    8986              $C$DW$1098      .dwtag  DW_TAG_member
    8987                      .dwattr $C$DW$1098, DW_AT_type(*$C$DW$T$34)
    8988                      .dwattr $C$DW$1098, DW_AT_name("WTO")
    8989                      .dwattr $C$DW$1098, DW_AT_TI_symbol_name("_WTO")
    8990                      .dwattr $C$DW$1098, DW_AT_bit_offset(0x0b), DW_AT_bit_size(0x01)
    8991                      .dwattr $C$DW$1098, DW_AT_data_member_location[DW_OP_plus_uconst 0x0]
    8992                      .dwattr $C$DW$1098, DW_AT_accessibility(DW_ACCESS_public)
    8993              $C$DW$1099      .dwtag  DW_TAG_member
    8994                      .dwattr $C$DW$1099, DW_AT_type(*$C$DW$T$34)
    8995                      .dwattr $C$DW$1099, DW_AT_name("PCU")
    8996                      .dwattr $C$DW$1099, DW_AT_TI_symbol_name("_PCU")
    8997                      .dwattr $C$DW$1099, DW_AT_bit_offset(0x0a), DW_AT_bit_size(0x01)
    8998                      .dwattr $C$DW$1099, DW_AT_data_member_location[DW_OP_plus_uconst 0x0]
    8999                      .dwattr $C$DW$1099, DW_AT_accessibility(DW_ACCESS_public)
TMS320C2000 Assembler PC v6.4.2 Thu Dec 14 15:27:05 2017

Tools Copyright (c) 1996-2015 Texas Instruments Incorporated
fsm_main.asm                                                         PAGE  167

    9000              $C$DW$1100      .dwtag  DW_TAG_member
    9001                      .dwattr $C$DW$1100, DW_AT_type(*$C$DW$T$34)
    9002                      .dwattr $C$DW$1100, DW_AT_name("PCO")
    9003                      .dwattr $C$DW$1100, DW_AT_TI_symbol_name("_PCO")
    9004                      .dwattr $C$DW$1100, DW_AT_bit_offset(0x09), DW_AT_bit_size(0x01)
    9005                      .dwattr $C$DW$1100, DW_AT_data_member_location[DW_OP_plus_uconst 0x0]
    9006                      .dwattr $C$DW$1100, DW_AT_accessibility(DW_ACCESS_public)
    9007              $C$DW$1101      .dwtag  DW_TAG_member
    9008                      .dwattr $C$DW$1101, DW_AT_type(*$C$DW$T$34)
    9009                      .dwattr $C$DW$1101, DW_AT_name("PCR")
    9010                      .dwattr $C$DW$1101, DW_AT_TI_symbol_name("_PCR")
    9011                      .dwattr $C$DW$1101, DW_AT_bit_offset(0x08), DW_AT_bit_size(0x01)
    9012                      .dwattr $C$DW$1101, DW_AT_data_member_location[DW_OP_plus_uconst 0x0]
    9013                      .dwattr $C$DW$1101, DW_AT_accessibility(DW_ACCESS_public)
    9014              $C$DW$1102      .dwtag  DW_TAG_member
    9015                      .dwattr $C$DW$1102, DW_AT_type(*$C$DW$T$34)
    9016                      .dwattr $C$DW$1102, DW_AT_name("PCM")
    9017                      .dwattr $C$DW$1102, DW_AT_TI_symbol_name("_PCM")
    9018                      .dwattr $C$DW$1102, DW_AT_bit_offset(0x07), DW_AT_bit_size(0x01)
    9019                      .dwattr $C$DW$1102, DW_AT_data_member_location[DW_OP_plus_uconst 0x0]
    9020                      .dwattr $C$DW$1102, DW_AT_accessibility(DW_ACCESS_public)
    9021              $C$DW$1103      .dwtag  DW_TAG_member
    9022                      .dwattr $C$DW$1103, DW_AT_type(*$C$DW$T$34)
    9023                      .dwattr $C$DW$1103, DW_AT_name("SEL")
    9024                      .dwattr $C$DW$1103, DW_AT_TI_symbol_name("_SEL")
    9025                      .dwattr $C$DW$1103, DW_AT_bit_offset(0x06), DW_AT_bit_size(0x01)
    9026                      .dwattr $C$DW$1103, DW_AT_data_member_location[DW_OP_plus_uconst 0x0]
    9027                      .dwattr $C$DW$1103, DW_AT_accessibility(DW_ACCESS_public)
    9028              $C$DW$1104      .dwtag  DW_TAG_member
    9029                      .dwattr $C$DW$1104, DW_AT_type(*$C$DW$T$34)
    9030                      .dwattr $C$DW$1104, DW_AT_name("IEL")
    9031                      .dwattr $C$DW$1104, DW_AT_TI_symbol_name("_IEL")
    9032                      .dwattr $C$DW$1104, DW_AT_bit_offset(0x05), DW_AT_bit_size(0x01)
    9033                      .dwattr $C$DW$1104, DW_AT_data_member_location[DW_OP_plus_uconst 0x0]
    9034                      .dwattr $C$DW$1104, DW_AT_accessibility(DW_ACCESS_public)
    9035              $C$DW$1105      .dwtag  DW_TAG_member
    9036                      .dwattr $C$DW$1105, DW_AT_type(*$C$DW$T$34)
    9037                      .dwattr $C$DW$1105, DW_AT_name("UTO")
    9038                      .dwattr $C$DW$1105, DW_AT_TI_symbol_name("_UTO")
    9039                      .dwattr $C$DW$1105, DW_AT_bit_offset(0x04), DW_AT_bit_size(0x01)
    9040                      .dwattr $C$DW$1105, DW_AT_data_member_location[DW_OP_plus_uconst 0x0]
    9041                      .dwattr $C$DW$1105, DW_AT_accessibility(DW_ACCESS_public)
    9042              $C$DW$1106      .dwtag  DW_TAG_member
    9043                      .dwattr $C$DW$1106, DW_AT_type(*$C$DW$T$34)
    9044                      .dwattr $C$DW$1106, DW_AT_name("rsvd2")
    9045                      .dwattr $C$DW$1106, DW_AT_TI_symbol_name("_rsvd2")
    9046                      .dwattr $C$DW$1106, DW_AT_bit_offset(0x00), DW_AT_bit_size(0x04)
    9047                      .dwattr $C$DW$1106, DW_AT_data_member_location[DW_OP_plus_uconst 0x0]
    9048                      .dwattr $C$DW$1106, DW_AT_accessibility(DW_ACCESS_public)
    9049                      .dwendtag $C$DW$T$215
    9050              
    9051              
    9052              $C$DW$T$216     .dwtag  DW_TAG_union_type
    9053                      .dwattr $C$DW$T$216, DW_AT_name("QEINT_REG")
    9054                      .dwattr $C$DW$T$216, DW_AT_byte_size(0x01)
TMS320C2000 Assembler PC v6.4.2 Thu Dec 14 15:27:05 2017

Tools Copyright (c) 1996-2015 Texas Instruments Incorporated
fsm_main.asm                                                         PAGE  168

    9055              $C$DW$1107      .dwtag  DW_TAG_member
    9056                      .dwattr $C$DW$1107, DW_AT_type(*$C$DW$T$34)
    9057                      .dwattr $C$DW$1107, DW_AT_name("all")
    9058                      .dwattr $C$DW$1107, DW_AT_TI_symbol_name("_all")
    9059                      .dwattr $C$DW$1107, DW_AT_data_member_location[DW_OP_plus_uconst 0x0]
    9060                      .dwattr $C$DW$1107, DW_AT_accessibility(DW_ACCESS_public)
    9061              $C$DW$1108      .dwtag  DW_TAG_member
    9062                      .dwattr $C$DW$1108, DW_AT_type(*$C$DW$T$215)
    9063                      .dwattr $C$DW$1108, DW_AT_name("bit")
    9064                      .dwattr $C$DW$1108, DW_AT_TI_symbol_name("_bit")
    9065                      .dwattr $C$DW$1108, DW_AT_data_member_location[DW_OP_plus_uconst 0x0]
    9066                      .dwattr $C$DW$1108, DW_AT_accessibility(DW_ACCESS_public)
    9067                      .dwendtag $C$DW$T$216
    9068              
    9069              
    9070              $C$DW$T$217     .dwtag  DW_TAG_structure_type
    9071                      .dwattr $C$DW$T$217, DW_AT_name("QEPCTL_BITS")
    9072                      .dwattr $C$DW$T$217, DW_AT_byte_size(0x01)
    9073              $C$DW$1109      .dwtag  DW_TAG_member
    9074                      .dwattr $C$DW$1109, DW_AT_type(*$C$DW$T$34)
    9075                      .dwattr $C$DW$1109, DW_AT_name("WDE")
    9076                      .dwattr $C$DW$1109, DW_AT_TI_symbol_name("_WDE")
    9077                      .dwattr $C$DW$1109, DW_AT_bit_offset(0x0f), DW_AT_bit_size(0x01)
    9078                      .dwattr $C$DW$1109, DW_AT_data_member_location[DW_OP_plus_uconst 0x0]
    9079                      .dwattr $C$DW$1109, DW_AT_accessibility(DW_ACCESS_public)
    9080              $C$DW$1110      .dwtag  DW_TAG_member
    9081                      .dwattr $C$DW$1110, DW_AT_type(*$C$DW$T$34)
    9082                      .dwattr $C$DW$1110, DW_AT_name("UTE")
    9083                      .dwattr $C$DW$1110, DW_AT_TI_symbol_name("_UTE")
    9084                      .dwattr $C$DW$1110, DW_AT_bit_offset(0x0e), DW_AT_bit_size(0x01)
    9085                      .dwattr $C$DW$1110, DW_AT_data_member_location[DW_OP_plus_uconst 0x0]
    9086                      .dwattr $C$DW$1110, DW_AT_accessibility(DW_ACCESS_public)
    9087              $C$DW$1111      .dwtag  DW_TAG_member
    9088                      .dwattr $C$DW$1111, DW_AT_type(*$C$DW$T$34)
    9089                      .dwattr $C$DW$1111, DW_AT_name("QCLM")
    9090                      .dwattr $C$DW$1111, DW_AT_TI_symbol_name("_QCLM")
    9091                      .dwattr $C$DW$1111, DW_AT_bit_offset(0x0d), DW_AT_bit_size(0x01)
    9092                      .dwattr $C$DW$1111, DW_AT_data_member_location[DW_OP_plus_uconst 0x0]
    9093                      .dwattr $C$DW$1111, DW_AT_accessibility(DW_ACCESS_public)
    9094              $C$DW$1112      .dwtag  DW_TAG_member
    9095                      .dwattr $C$DW$1112, DW_AT_type(*$C$DW$T$34)
    9096                      .dwattr $C$DW$1112, DW_AT_name("QPEN")
    9097                      .dwattr $C$DW$1112, DW_AT_TI_symbol_name("_QPEN")
    9098                      .dwattr $C$DW$1112, DW_AT_bit_offset(0x0c), DW_AT_bit_size(0x01)
    9099                      .dwattr $C$DW$1112, DW_AT_data_member_location[DW_OP_plus_uconst 0x0]
    9100                      .dwattr $C$DW$1112, DW_AT_accessibility(DW_ACCESS_public)
    9101              $C$DW$1113      .dwtag  DW_TAG_member
    9102                      .dwattr $C$DW$1113, DW_AT_type(*$C$DW$T$34)
    9103                      .dwattr $C$DW$1113, DW_AT_name("IEL")
    9104                      .dwattr $C$DW$1113, DW_AT_TI_symbol_name("_IEL")
    9105                      .dwattr $C$DW$1113, DW_AT_bit_offset(0x0a), DW_AT_bit_size(0x02)
    9106                      .dwattr $C$DW$1113, DW_AT_data_member_location[DW_OP_plus_uconst 0x0]
    9107                      .dwattr $C$DW$1113, DW_AT_accessibility(DW_ACCESS_public)
    9108              $C$DW$1114      .dwtag  DW_TAG_member
    9109                      .dwattr $C$DW$1114, DW_AT_type(*$C$DW$T$34)
TMS320C2000 Assembler PC v6.4.2 Thu Dec 14 15:27:05 2017

Tools Copyright (c) 1996-2015 Texas Instruments Incorporated
fsm_main.asm                                                         PAGE  169

    9110                      .dwattr $C$DW$1114, DW_AT_name("SEL")
    9111                      .dwattr $C$DW$1114, DW_AT_TI_symbol_name("_SEL")
    9112                      .dwattr $C$DW$1114, DW_AT_bit_offset(0x09), DW_AT_bit_size(0x01)
    9113                      .dwattr $C$DW$1114, DW_AT_data_member_location[DW_OP_plus_uconst 0x0]
    9114                      .dwattr $C$DW$1114, DW_AT_accessibility(DW_ACCESS_public)
    9115              $C$DW$1115      .dwtag  DW_TAG_member
    9116                      .dwattr $C$DW$1115, DW_AT_type(*$C$DW$T$34)
    9117                      .dwattr $C$DW$1115, DW_AT_name("SWI")
    9118                      .dwattr $C$DW$1115, DW_AT_TI_symbol_name("_SWI")
    9119                      .dwattr $C$DW$1115, DW_AT_bit_offset(0x08), DW_AT_bit_size(0x01)
    9120                      .dwattr $C$DW$1115, DW_AT_data_member_location[DW_OP_plus_uconst 0x0]
    9121                      .dwattr $C$DW$1115, DW_AT_accessibility(DW_ACCESS_public)
    9122              $C$DW$1116      .dwtag  DW_TAG_member
    9123                      .dwattr $C$DW$1116, DW_AT_type(*$C$DW$T$34)
    9124                      .dwattr $C$DW$1116, DW_AT_name("IEI")
    9125                      .dwattr $C$DW$1116, DW_AT_TI_symbol_name("_IEI")
    9126                      .dwattr $C$DW$1116, DW_AT_bit_offset(0x06), DW_AT_bit_size(0x02)
    9127                      .dwattr $C$DW$1116, DW_AT_data_member_location[DW_OP_plus_uconst 0x0]
    9128                      .dwattr $C$DW$1116, DW_AT_accessibility(DW_ACCESS_public)
    9129              $C$DW$1117      .dwtag  DW_TAG_member
    9130                      .dwattr $C$DW$1117, DW_AT_type(*$C$DW$T$34)
    9131                      .dwattr $C$DW$1117, DW_AT_name("SEI")
    9132                      .dwattr $C$DW$1117, DW_AT_TI_symbol_name("_SEI")
    9133                      .dwattr $C$DW$1117, DW_AT_bit_offset(0x04), DW_AT_bit_size(0x02)
    9134                      .dwattr $C$DW$1117, DW_AT_data_member_location[DW_OP_plus_uconst 0x0]
    9135                      .dwattr $C$DW$1117, DW_AT_accessibility(DW_ACCESS_public)
    9136              $C$DW$1118      .dwtag  DW_TAG_member
    9137                      .dwattr $C$DW$1118, DW_AT_type(*$C$DW$T$34)
    9138                      .dwattr $C$DW$1118, DW_AT_name("PCRM")
    9139                      .dwattr $C$DW$1118, DW_AT_TI_symbol_name("_PCRM")
    9140                      .dwattr $C$DW$1118, DW_AT_bit_offset(0x02), DW_AT_bit_size(0x02)
    9141                      .dwattr $C$DW$1118, DW_AT_data_member_location[DW_OP_plus_uconst 0x0]
    9142                      .dwattr $C$DW$1118, DW_AT_accessibility(DW_ACCESS_public)
    9143              $C$DW$1119      .dwtag  DW_TAG_member
    9144                      .dwattr $C$DW$1119, DW_AT_type(*$C$DW$T$34)
    9145                      .dwattr $C$DW$1119, DW_AT_name("FREE_SOFT")
    9146                      .dwattr $C$DW$1119, DW_AT_TI_symbol_name("_FREE_SOFT")
    9147                      .dwattr $C$DW$1119, DW_AT_bit_offset(0x00), DW_AT_bit_size(0x02)
    9148                      .dwattr $C$DW$1119, DW_AT_data_member_location[DW_OP_plus_uconst 0x0]
    9149                      .dwattr $C$DW$1119, DW_AT_accessibility(DW_ACCESS_public)
    9150                      .dwendtag $C$DW$T$217
    9151              
    9152              
    9153              $C$DW$T$218     .dwtag  DW_TAG_union_type
    9154                      .dwattr $C$DW$T$218, DW_AT_name("QEPCTL_REG")
    9155                      .dwattr $C$DW$T$218, DW_AT_byte_size(0x01)
    9156              $C$DW$1120      .dwtag  DW_TAG_member
    9157                      .dwattr $C$DW$1120, DW_AT_type(*$C$DW$T$34)
    9158                      .dwattr $C$DW$1120, DW_AT_name("all")
    9159                      .dwattr $C$DW$1120, DW_AT_TI_symbol_name("_all")
    9160                      .dwattr $C$DW$1120, DW_AT_data_member_location[DW_OP_plus_uconst 0x0]
    9161                      .dwattr $C$DW$1120, DW_AT_accessibility(DW_ACCESS_public)
    9162              $C$DW$1121      .dwtag  DW_TAG_member
    9163                      .dwattr $C$DW$1121, DW_AT_type(*$C$DW$T$217)
    9164                      .dwattr $C$DW$1121, DW_AT_name("bit")
TMS320C2000 Assembler PC v6.4.2 Thu Dec 14 15:27:05 2017

Tools Copyright (c) 1996-2015 Texas Instruments Incorporated
fsm_main.asm                                                         PAGE  170

    9165                      .dwattr $C$DW$1121, DW_AT_TI_symbol_name("_bit")
    9166                      .dwattr $C$DW$1121, DW_AT_data_member_location[DW_OP_plus_uconst 0x0]
    9167                      .dwattr $C$DW$1121, DW_AT_accessibility(DW_ACCESS_public)
    9168                      .dwendtag $C$DW$T$218
    9169              
    9170              
    9171              $C$DW$T$219     .dwtag  DW_TAG_structure_type
    9172                      .dwattr $C$DW$T$219, DW_AT_name("QEPSTS_BITS")
    9173                      .dwattr $C$DW$T$219, DW_AT_byte_size(0x01)
    9174              $C$DW$1122      .dwtag  DW_TAG_member
    9175                      .dwattr $C$DW$1122, DW_AT_type(*$C$DW$T$34)
    9176                      .dwattr $C$DW$1122, DW_AT_name("PCEF")
    9177                      .dwattr $C$DW$1122, DW_AT_TI_symbol_name("_PCEF")
    9178                      .dwattr $C$DW$1122, DW_AT_bit_offset(0x0f), DW_AT_bit_size(0x01)
    9179                      .dwattr $C$DW$1122, DW_AT_data_member_location[DW_OP_plus_uconst 0x0]
    9180                      .dwattr $C$DW$1122, DW_AT_accessibility(DW_ACCESS_public)
    9181              $C$DW$1123      .dwtag  DW_TAG_member
    9182                      .dwattr $C$DW$1123, DW_AT_type(*$C$DW$T$34)
    9183                      .dwattr $C$DW$1123, DW_AT_name("FIMF")
    9184                      .dwattr $C$DW$1123, DW_AT_TI_symbol_name("_FIMF")
    9185                      .dwattr $C$DW$1123, DW_AT_bit_offset(0x0e), DW_AT_bit_size(0x01)
    9186                      .dwattr $C$DW$1123, DW_AT_data_member_location[DW_OP_plus_uconst 0x0]
    9187                      .dwattr $C$DW$1123, DW_AT_accessibility(DW_ACCESS_public)
    9188              $C$DW$1124      .dwtag  DW_TAG_member
    9189                      .dwattr $C$DW$1124, DW_AT_type(*$C$DW$T$34)
    9190                      .dwattr $C$DW$1124, DW_AT_name("CDEF")
    9191                      .dwattr $C$DW$1124, DW_AT_TI_symbol_name("_CDEF")
    9192                      .dwattr $C$DW$1124, DW_AT_bit_offset(0x0d), DW_AT_bit_size(0x01)
    9193                      .dwattr $C$DW$1124, DW_AT_data_member_location[DW_OP_plus_uconst 0x0]
    9194                      .dwattr $C$DW$1124, DW_AT_accessibility(DW_ACCESS_public)
    9195              $C$DW$1125      .dwtag  DW_TAG_member
    9196                      .dwattr $C$DW$1125, DW_AT_type(*$C$DW$T$34)
    9197                      .dwattr $C$DW$1125, DW_AT_name("COEF")
    9198                      .dwattr $C$DW$1125, DW_AT_TI_symbol_name("_COEF")
    9199                      .dwattr $C$DW$1125, DW_AT_bit_offset(0x0c), DW_AT_bit_size(0x01)
    9200                      .dwattr $C$DW$1125, DW_AT_data_member_location[DW_OP_plus_uconst 0x0]
    9201                      .dwattr $C$DW$1125, DW_AT_accessibility(DW_ACCESS_public)
    9202              $C$DW$1126      .dwtag  DW_TAG_member
    9203                      .dwattr $C$DW$1126, DW_AT_type(*$C$DW$T$34)
    9204                      .dwattr $C$DW$1126, DW_AT_name("QDLF")
    9205                      .dwattr $C$DW$1126, DW_AT_TI_symbol_name("_QDLF")
    9206                      .dwattr $C$DW$1126, DW_AT_bit_offset(0x0b), DW_AT_bit_size(0x01)
    9207                      .dwattr $C$DW$1126, DW_AT_data_member_location[DW_OP_plus_uconst 0x0]
    9208                      .dwattr $C$DW$1126, DW_AT_accessibility(DW_ACCESS_public)
    9209              $C$DW$1127      .dwtag  DW_TAG_member
    9210                      .dwattr $C$DW$1127, DW_AT_type(*$C$DW$T$34)
    9211                      .dwattr $C$DW$1127, DW_AT_name("QDF")
    9212                      .dwattr $C$DW$1127, DW_AT_TI_symbol_name("_QDF")
    9213                      .dwattr $C$DW$1127, DW_AT_bit_offset(0x0a), DW_AT_bit_size(0x01)
    9214                      .dwattr $C$DW$1127, DW_AT_data_member_location[DW_OP_plus_uconst 0x0]
    9215                      .dwattr $C$DW$1127, DW_AT_accessibility(DW_ACCESS_public)
    9216              $C$DW$1128      .dwtag  DW_TAG_member
    9217                      .dwattr $C$DW$1128, DW_AT_type(*$C$DW$T$34)
    9218                      .dwattr $C$DW$1128, DW_AT_name("FIDF")
    9219                      .dwattr $C$DW$1128, DW_AT_TI_symbol_name("_FIDF")
TMS320C2000 Assembler PC v6.4.2 Thu Dec 14 15:27:05 2017

Tools Copyright (c) 1996-2015 Texas Instruments Incorporated
fsm_main.asm                                                         PAGE  171

    9220                      .dwattr $C$DW$1128, DW_AT_bit_offset(0x09), DW_AT_bit_size(0x01)
    9221                      .dwattr $C$DW$1128, DW_AT_data_member_location[DW_OP_plus_uconst 0x0]
    9222                      .dwattr $C$DW$1128, DW_AT_accessibility(DW_ACCESS_public)
    9223              $C$DW$1129      .dwtag  DW_TAG_member
    9224                      .dwattr $C$DW$1129, DW_AT_type(*$C$DW$T$34)
    9225                      .dwattr $C$DW$1129, DW_AT_name("UPEVNT")
    9226                      .dwattr $C$DW$1129, DW_AT_TI_symbol_name("_UPEVNT")
    9227                      .dwattr $C$DW$1129, DW_AT_bit_offset(0x08), DW_AT_bit_size(0x01)
    9228                      .dwattr $C$DW$1129, DW_AT_data_member_location[DW_OP_plus_uconst 0x0]
    9229                      .dwattr $C$DW$1129, DW_AT_accessibility(DW_ACCESS_public)
    9230              $C$DW$1130      .dwtag  DW_TAG_member
    9231                      .dwattr $C$DW$1130, DW_AT_type(*$C$DW$T$34)
    9232                      .dwattr $C$DW$1130, DW_AT_name("rsvd1")
    9233                      .dwattr $C$DW$1130, DW_AT_TI_symbol_name("_rsvd1")
    9234                      .dwattr $C$DW$1130, DW_AT_bit_offset(0x00), DW_AT_bit_size(0x08)
    9235                      .dwattr $C$DW$1130, DW_AT_data_member_location[DW_OP_plus_uconst 0x0]
    9236                      .dwattr $C$DW$1130, DW_AT_accessibility(DW_ACCESS_public)
    9237                      .dwendtag $C$DW$T$219
    9238              
    9239              
    9240              $C$DW$T$220     .dwtag  DW_TAG_union_type
    9241                      .dwattr $C$DW$T$220, DW_AT_name("QEPSTS_REG")
    9242                      .dwattr $C$DW$T$220, DW_AT_byte_size(0x01)
    9243              $C$DW$1131      .dwtag  DW_TAG_member
    9244                      .dwattr $C$DW$1131, DW_AT_type(*$C$DW$T$34)
    9245                      .dwattr $C$DW$1131, DW_AT_name("all")
    9246                      .dwattr $C$DW$1131, DW_AT_TI_symbol_name("_all")
    9247                      .dwattr $C$DW$1131, DW_AT_data_member_location[DW_OP_plus_uconst 0x0]
    9248                      .dwattr $C$DW$1131, DW_AT_accessibility(DW_ACCESS_public)
    9249              $C$DW$1132      .dwtag  DW_TAG_member
    9250                      .dwattr $C$DW$1132, DW_AT_type(*$C$DW$T$219)
    9251                      .dwattr $C$DW$1132, DW_AT_name("bit")
    9252                      .dwattr $C$DW$1132, DW_AT_TI_symbol_name("_bit")
    9253                      .dwattr $C$DW$1132, DW_AT_data_member_location[DW_OP_plus_uconst 0x0]
    9254                      .dwattr $C$DW$1132, DW_AT_accessibility(DW_ACCESS_public)
    9255                      .dwendtag $C$DW$T$220
    9256              
    9257              
    9258              $C$DW$T$221     .dwtag  DW_TAG_structure_type
    9259                      .dwattr $C$DW$T$221, DW_AT_name("QFLG_BITS")
    9260                      .dwattr $C$DW$T$221, DW_AT_byte_size(0x01)
    9261              $C$DW$1133      .dwtag  DW_TAG_member
    9262                      .dwattr $C$DW$1133, DW_AT_type(*$C$DW$T$34)
    9263                      .dwattr $C$DW$1133, DW_AT_name("INT")
    9264                      .dwattr $C$DW$1133, DW_AT_TI_symbol_name("_INT")
    9265                      .dwattr $C$DW$1133, DW_AT_bit_offset(0x0f), DW_AT_bit_size(0x01)
    9266                      .dwattr $C$DW$1133, DW_AT_data_member_location[DW_OP_plus_uconst 0x0]
    9267                      .dwattr $C$DW$1133, DW_AT_accessibility(DW_ACCESS_public)
    9268              $C$DW$1134      .dwtag  DW_TAG_member
    9269                      .dwattr $C$DW$1134, DW_AT_type(*$C$DW$T$34)
    9270                      .dwattr $C$DW$1134, DW_AT_name("PCE")
    9271                      .dwattr $C$DW$1134, DW_AT_TI_symbol_name("_PCE")
    9272                      .dwattr $C$DW$1134, DW_AT_bit_offset(0x0e), DW_AT_bit_size(0x01)
    9273                      .dwattr $C$DW$1134, DW_AT_data_member_location[DW_OP_plus_uconst 0x0]
    9274                      .dwattr $C$DW$1134, DW_AT_accessibility(DW_ACCESS_public)
TMS320C2000 Assembler PC v6.4.2 Thu Dec 14 15:27:05 2017

Tools Copyright (c) 1996-2015 Texas Instruments Incorporated
fsm_main.asm                                                         PAGE  172

    9275              $C$DW$1135      .dwtag  DW_TAG_member
    9276                      .dwattr $C$DW$1135, DW_AT_type(*$C$DW$T$34)
    9277                      .dwattr $C$DW$1135, DW_AT_name("PHE")
    9278                      .dwattr $C$DW$1135, DW_AT_TI_symbol_name("_PHE")
    9279                      .dwattr $C$DW$1135, DW_AT_bit_offset(0x0d), DW_AT_bit_size(0x01)
    9280                      .dwattr $C$DW$1135, DW_AT_data_member_location[DW_OP_plus_uconst 0x0]
    9281                      .dwattr $C$DW$1135, DW_AT_accessibility(DW_ACCESS_public)
    9282              $C$DW$1136      .dwtag  DW_TAG_member
    9283                      .dwattr $C$DW$1136, DW_AT_type(*$C$DW$T$34)
    9284                      .dwattr $C$DW$1136, DW_AT_name("QDC")
    9285                      .dwattr $C$DW$1136, DW_AT_TI_symbol_name("_QDC")
    9286                      .dwattr $C$DW$1136, DW_AT_bit_offset(0x0c), DW_AT_bit_size(0x01)
    9287                      .dwattr $C$DW$1136, DW_AT_data_member_location[DW_OP_plus_uconst 0x0]
    9288                      .dwattr $C$DW$1136, DW_AT_accessibility(DW_ACCESS_public)
    9289              $C$DW$1137      .dwtag  DW_TAG_member
    9290                      .dwattr $C$DW$1137, DW_AT_type(*$C$DW$T$34)
    9291                      .dwattr $C$DW$1137, DW_AT_name("WTO")
    9292                      .dwattr $C$DW$1137, DW_AT_TI_symbol_name("_WTO")
    9293                      .dwattr $C$DW$1137, DW_AT_bit_offset(0x0b), DW_AT_bit_size(0x01)
    9294                      .dwattr $C$DW$1137, DW_AT_data_member_location[DW_OP_plus_uconst 0x0]
    9295                      .dwattr $C$DW$1137, DW_AT_accessibility(DW_ACCESS_public)
    9296              $C$DW$1138      .dwtag  DW_TAG_member
    9297                      .dwattr $C$DW$1138, DW_AT_type(*$C$DW$T$34)
    9298                      .dwattr $C$DW$1138, DW_AT_name("PCU")
    9299                      .dwattr $C$DW$1138, DW_AT_TI_symbol_name("_PCU")
    9300                      .dwattr $C$DW$1138, DW_AT_bit_offset(0x0a), DW_AT_bit_size(0x01)
    9301                      .dwattr $C$DW$1138, DW_AT_data_member_location[DW_OP_plus_uconst 0x0]
    9302                      .dwattr $C$DW$1138, DW_AT_accessibility(DW_ACCESS_public)
    9303              $C$DW$1139      .dwtag  DW_TAG_member
    9304                      .dwattr $C$DW$1139, DW_AT_type(*$C$DW$T$34)
    9305                      .dwattr $C$DW$1139, DW_AT_name("PCO")
    9306                      .dwattr $C$DW$1139, DW_AT_TI_symbol_name("_PCO")
    9307                      .dwattr $C$DW$1139, DW_AT_bit_offset(0x09), DW_AT_bit_size(0x01)
    9308                      .dwattr $C$DW$1139, DW_AT_data_member_location[DW_OP_plus_uconst 0x0]
    9309                      .dwattr $C$DW$1139, DW_AT_accessibility(DW_ACCESS_public)
    9310              $C$DW$1140      .dwtag  DW_TAG_member
    9311                      .dwattr $C$DW$1140, DW_AT_type(*$C$DW$T$34)
    9312                      .dwattr $C$DW$1140, DW_AT_name("PCR")
    9313                      .dwattr $C$DW$1140, DW_AT_TI_symbol_name("_PCR")
    9314                      .dwattr $C$DW$1140, DW_AT_bit_offset(0x08), DW_AT_bit_size(0x01)
    9315                      .dwattr $C$DW$1140, DW_AT_data_member_location[DW_OP_plus_uconst 0x0]
    9316                      .dwattr $C$DW$1140, DW_AT_accessibility(DW_ACCESS_public)
    9317              $C$DW$1141      .dwtag  DW_TAG_member
    9318                      .dwattr $C$DW$1141, DW_AT_type(*$C$DW$T$34)
    9319                      .dwattr $C$DW$1141, DW_AT_name("PCM")
    9320                      .dwattr $C$DW$1141, DW_AT_TI_symbol_name("_PCM")
    9321                      .dwattr $C$DW$1141, DW_AT_bit_offset(0x07), DW_AT_bit_size(0x01)
    9322                      .dwattr $C$DW$1141, DW_AT_data_member_location[DW_OP_plus_uconst 0x0]
    9323                      .dwattr $C$DW$1141, DW_AT_accessibility(DW_ACCESS_public)
    9324              $C$DW$1142      .dwtag  DW_TAG_member
    9325                      .dwattr $C$DW$1142, DW_AT_type(*$C$DW$T$34)
    9326                      .dwattr $C$DW$1142, DW_AT_name("SEL")
    9327                      .dwattr $C$DW$1142, DW_AT_TI_symbol_name("_SEL")
    9328                      .dwattr $C$DW$1142, DW_AT_bit_offset(0x06), DW_AT_bit_size(0x01)
    9329                      .dwattr $C$DW$1142, DW_AT_data_member_location[DW_OP_plus_uconst 0x0]
TMS320C2000 Assembler PC v6.4.2 Thu Dec 14 15:27:05 2017

Tools Copyright (c) 1996-2015 Texas Instruments Incorporated
fsm_main.asm                                                         PAGE  173

    9330                      .dwattr $C$DW$1142, DW_AT_accessibility(DW_ACCESS_public)
    9331              $C$DW$1143      .dwtag  DW_TAG_member
    9332                      .dwattr $C$DW$1143, DW_AT_type(*$C$DW$T$34)
    9333                      .dwattr $C$DW$1143, DW_AT_name("IEL")
    9334                      .dwattr $C$DW$1143, DW_AT_TI_symbol_name("_IEL")
    9335                      .dwattr $C$DW$1143, DW_AT_bit_offset(0x05), DW_AT_bit_size(0x01)
    9336                      .dwattr $C$DW$1143, DW_AT_data_member_location[DW_OP_plus_uconst 0x0]
    9337                      .dwattr $C$DW$1143, DW_AT_accessibility(DW_ACCESS_public)
    9338              $C$DW$1144      .dwtag  DW_TAG_member
    9339                      .dwattr $C$DW$1144, DW_AT_type(*$C$DW$T$34)
    9340                      .dwattr $C$DW$1144, DW_AT_name("UTO")
    9341                      .dwattr $C$DW$1144, DW_AT_TI_symbol_name("_UTO")
    9342                      .dwattr $C$DW$1144, DW_AT_bit_offset(0x04), DW_AT_bit_size(0x01)
    9343                      .dwattr $C$DW$1144, DW_AT_data_member_location[DW_OP_plus_uconst 0x0]
    9344                      .dwattr $C$DW$1144, DW_AT_accessibility(DW_ACCESS_public)
    9345              $C$DW$1145      .dwtag  DW_TAG_member
    9346                      .dwattr $C$DW$1145, DW_AT_type(*$C$DW$T$34)
    9347                      .dwattr $C$DW$1145, DW_AT_name("rsvd1")
    9348                      .dwattr $C$DW$1145, DW_AT_TI_symbol_name("_rsvd1")
    9349                      .dwattr $C$DW$1145, DW_AT_bit_offset(0x00), DW_AT_bit_size(0x04)
    9350                      .dwattr $C$DW$1145, DW_AT_data_member_location[DW_OP_plus_uconst 0x0]
    9351                      .dwattr $C$DW$1145, DW_AT_accessibility(DW_ACCESS_public)
    9352                      .dwendtag $C$DW$T$221
    9353              
    9354              
    9355              $C$DW$T$222     .dwtag  DW_TAG_union_type
    9356                      .dwattr $C$DW$T$222, DW_AT_name("QFLG_REG")
    9357                      .dwattr $C$DW$T$222, DW_AT_byte_size(0x01)
    9358              $C$DW$1146      .dwtag  DW_TAG_member
    9359                      .dwattr $C$DW$1146, DW_AT_type(*$C$DW$T$34)
    9360                      .dwattr $C$DW$1146, DW_AT_name("all")
    9361                      .dwattr $C$DW$1146, DW_AT_TI_symbol_name("_all")
    9362                      .dwattr $C$DW$1146, DW_AT_data_member_location[DW_OP_plus_uconst 0x0]
    9363                      .dwattr $C$DW$1146, DW_AT_accessibility(DW_ACCESS_public)
    9364              $C$DW$1147      .dwtag  DW_TAG_member
    9365                      .dwattr $C$DW$1147, DW_AT_type(*$C$DW$T$221)
    9366                      .dwattr $C$DW$1147, DW_AT_name("bit")
    9367                      .dwattr $C$DW$1147, DW_AT_TI_symbol_name("_bit")
    9368                      .dwattr $C$DW$1147, DW_AT_data_member_location[DW_OP_plus_uconst 0x0]
    9369                      .dwattr $C$DW$1147, DW_AT_accessibility(DW_ACCESS_public)
    9370                      .dwendtag $C$DW$T$222
    9371              
    9372              
    9373              $C$DW$T$223     .dwtag  DW_TAG_structure_type
    9374                      .dwattr $C$DW$T$223, DW_AT_name("QFRC_BITS")
    9375                      .dwattr $C$DW$T$223, DW_AT_byte_size(0x01)
    9376              $C$DW$1148      .dwtag  DW_TAG_member
    9377                      .dwattr $C$DW$1148, DW_AT_type(*$C$DW$T$34)
    9378                      .dwattr $C$DW$1148, DW_AT_name("rsvd1")
    9379                      .dwattr $C$DW$1148, DW_AT_TI_symbol_name("_rsvd1")
    9380                      .dwattr $C$DW$1148, DW_AT_bit_offset(0x0f), DW_AT_bit_size(0x01)
    9381                      .dwattr $C$DW$1148, DW_AT_data_member_location[DW_OP_plus_uconst 0x0]
    9382                      .dwattr $C$DW$1148, DW_AT_accessibility(DW_ACCESS_public)
    9383              $C$DW$1149      .dwtag  DW_TAG_member
    9384                      .dwattr $C$DW$1149, DW_AT_type(*$C$DW$T$34)
TMS320C2000 Assembler PC v6.4.2 Thu Dec 14 15:27:05 2017

Tools Copyright (c) 1996-2015 Texas Instruments Incorporated
fsm_main.asm                                                         PAGE  174

    9385                      .dwattr $C$DW$1149, DW_AT_name("PCE")
    9386                      .dwattr $C$DW$1149, DW_AT_TI_symbol_name("_PCE")
    9387                      .dwattr $C$DW$1149, DW_AT_bit_offset(0x0e), DW_AT_bit_size(0x01)
    9388                      .dwattr $C$DW$1149, DW_AT_data_member_location[DW_OP_plus_uconst 0x0]
    9389                      .dwattr $C$DW$1149, DW_AT_accessibility(DW_ACCESS_public)
    9390              $C$DW$1150      .dwtag  DW_TAG_member
    9391                      .dwattr $C$DW$1150, DW_AT_type(*$C$DW$T$34)
    9392                      .dwattr $C$DW$1150, DW_AT_name("PHE")
    9393                      .dwattr $C$DW$1150, DW_AT_TI_symbol_name("_PHE")
    9394                      .dwattr $C$DW$1150, DW_AT_bit_offset(0x0d), DW_AT_bit_size(0x01)
    9395                      .dwattr $C$DW$1150, DW_AT_data_member_location[DW_OP_plus_uconst 0x0]
    9396                      .dwattr $C$DW$1150, DW_AT_accessibility(DW_ACCESS_public)
    9397              $C$DW$1151      .dwtag  DW_TAG_member
    9398                      .dwattr $C$DW$1151, DW_AT_type(*$C$DW$T$34)
    9399                      .dwattr $C$DW$1151, DW_AT_name("QDC")
    9400                      .dwattr $C$DW$1151, DW_AT_TI_symbol_name("_QDC")
    9401                      .dwattr $C$DW$1151, DW_AT_bit_offset(0x0c), DW_AT_bit_size(0x01)
    9402                      .dwattr $C$DW$1151, DW_AT_data_member_location[DW_OP_plus_uconst 0x0]
    9403                      .dwattr $C$DW$1151, DW_AT_accessibility(DW_ACCESS_public)
    9404              $C$DW$1152      .dwtag  DW_TAG_member
    9405                      .dwattr $C$DW$1152, DW_AT_type(*$C$DW$T$34)
    9406                      .dwattr $C$DW$1152, DW_AT_name("WTO")
    9407                      .dwattr $C$DW$1152, DW_AT_TI_symbol_name("_WTO")
    9408                      .dwattr $C$DW$1152, DW_AT_bit_offset(0x0b), DW_AT_bit_size(0x01)
    9409                      .dwattr $C$DW$1152, DW_AT_data_member_location[DW_OP_plus_uconst 0x0]
    9410                      .dwattr $C$DW$1152, DW_AT_accessibility(DW_ACCESS_public)
    9411              $C$DW$1153      .dwtag  DW_TAG_member
    9412                      .dwattr $C$DW$1153, DW_AT_type(*$C$DW$T$34)
    9413                      .dwattr $C$DW$1153, DW_AT_name("PCU")
    9414                      .dwattr $C$DW$1153, DW_AT_TI_symbol_name("_PCU")
    9415                      .dwattr $C$DW$1153, DW_AT_bit_offset(0x0a), DW_AT_bit_size(0x01)
    9416                      .dwattr $C$DW$1153, DW_AT_data_member_location[DW_OP_plus_uconst 0x0]
    9417                      .dwattr $C$DW$1153, DW_AT_accessibility(DW_ACCESS_public)
    9418              $C$DW$1154      .dwtag  DW_TAG_member
    9419                      .dwattr $C$DW$1154, DW_AT_type(*$C$DW$T$34)
    9420                      .dwattr $C$DW$1154, DW_AT_name("PCO")
    9421                      .dwattr $C$DW$1154, DW_AT_TI_symbol_name("_PCO")
    9422                      .dwattr $C$DW$1154, DW_AT_bit_offset(0x09), DW_AT_bit_size(0x01)
    9423                      .dwattr $C$DW$1154, DW_AT_data_member_location[DW_OP_plus_uconst 0x0]
    9424                      .dwattr $C$DW$1154, DW_AT_accessibility(DW_ACCESS_public)
    9425              $C$DW$1155      .dwtag  DW_TAG_member
    9426                      .dwattr $C$DW$1155, DW_AT_type(*$C$DW$T$34)
    9427                      .dwattr $C$DW$1155, DW_AT_name("PCR")
    9428                      .dwattr $C$DW$1155, DW_AT_TI_symbol_name("_PCR")
    9429                      .dwattr $C$DW$1155, DW_AT_bit_offset(0x08), DW_AT_bit_size(0x01)
    9430                      .dwattr $C$DW$1155, DW_AT_data_member_location[DW_OP_plus_uconst 0x0]
    9431                      .dwattr $C$DW$1155, DW_AT_accessibility(DW_ACCESS_public)
    9432              $C$DW$1156      .dwtag  DW_TAG_member
    9433                      .dwattr $C$DW$1156, DW_AT_type(*$C$DW$T$34)
    9434                      .dwattr $C$DW$1156, DW_AT_name("PCM")
    9435                      .dwattr $C$DW$1156, DW_AT_TI_symbol_name("_PCM")
    9436                      .dwattr $C$DW$1156, DW_AT_bit_offset(0x07), DW_AT_bit_size(0x01)
    9437                      .dwattr $C$DW$1156, DW_AT_data_member_location[DW_OP_plus_uconst 0x0]
    9438                      .dwattr $C$DW$1156, DW_AT_accessibility(DW_ACCESS_public)
    9439              $C$DW$1157      .dwtag  DW_TAG_member
TMS320C2000 Assembler PC v6.4.2 Thu Dec 14 15:27:05 2017

Tools Copyright (c) 1996-2015 Texas Instruments Incorporated
fsm_main.asm                                                         PAGE  175

    9440                      .dwattr $C$DW$1157, DW_AT_type(*$C$DW$T$34)
    9441                      .dwattr $C$DW$1157, DW_AT_name("SEL")
    9442                      .dwattr $C$DW$1157, DW_AT_TI_symbol_name("_SEL")
    9443                      .dwattr $C$DW$1157, DW_AT_bit_offset(0x06), DW_AT_bit_size(0x01)
    9444                      .dwattr $C$DW$1157, DW_AT_data_member_location[DW_OP_plus_uconst 0x0]
    9445                      .dwattr $C$DW$1157, DW_AT_accessibility(DW_ACCESS_public)
    9446              $C$DW$1158      .dwtag  DW_TAG_member
    9447                      .dwattr $C$DW$1158, DW_AT_type(*$C$DW$T$34)
    9448                      .dwattr $C$DW$1158, DW_AT_name("IEL")
    9449                      .dwattr $C$DW$1158, DW_AT_TI_symbol_name("_IEL")
    9450                      .dwattr $C$DW$1158, DW_AT_bit_offset(0x05), DW_AT_bit_size(0x01)
    9451                      .dwattr $C$DW$1158, DW_AT_data_member_location[DW_OP_plus_uconst 0x0]
    9452                      .dwattr $C$DW$1158, DW_AT_accessibility(DW_ACCESS_public)
    9453              $C$DW$1159      .dwtag  DW_TAG_member
    9454                      .dwattr $C$DW$1159, DW_AT_type(*$C$DW$T$34)
    9455                      .dwattr $C$DW$1159, DW_AT_name("UTO")
    9456                      .dwattr $C$DW$1159, DW_AT_TI_symbol_name("_UTO")
    9457                      .dwattr $C$DW$1159, DW_AT_bit_offset(0x04), DW_AT_bit_size(0x01)
    9458                      .dwattr $C$DW$1159, DW_AT_data_member_location[DW_OP_plus_uconst 0x0]
    9459                      .dwattr $C$DW$1159, DW_AT_accessibility(DW_ACCESS_public)
    9460              $C$DW$1160      .dwtag  DW_TAG_member
    9461                      .dwattr $C$DW$1160, DW_AT_type(*$C$DW$T$34)
    9462                      .dwattr $C$DW$1160, DW_AT_name("rsvd2")
    9463                      .dwattr $C$DW$1160, DW_AT_TI_symbol_name("_rsvd2")
    9464                      .dwattr $C$DW$1160, DW_AT_bit_offset(0x00), DW_AT_bit_size(0x04)
    9465                      .dwattr $C$DW$1160, DW_AT_data_member_location[DW_OP_plus_uconst 0x0]
    9466                      .dwattr $C$DW$1160, DW_AT_accessibility(DW_ACCESS_public)
    9467                      .dwendtag $C$DW$T$223
    9468              
    9469              
    9470              $C$DW$T$224     .dwtag  DW_TAG_union_type
    9471                      .dwattr $C$DW$T$224, DW_AT_name("QFRC_REG")
    9472                      .dwattr $C$DW$T$224, DW_AT_byte_size(0x01)
    9473              $C$DW$1161      .dwtag  DW_TAG_member
    9474                      .dwattr $C$DW$1161, DW_AT_type(*$C$DW$T$34)
    9475                      .dwattr $C$DW$1161, DW_AT_name("all")
    9476                      .dwattr $C$DW$1161, DW_AT_TI_symbol_name("_all")
    9477                      .dwattr $C$DW$1161, DW_AT_data_member_location[DW_OP_plus_uconst 0x0]
    9478                      .dwattr $C$DW$1161, DW_AT_accessibility(DW_ACCESS_public)
    9479              $C$DW$1162      .dwtag  DW_TAG_member
    9480                      .dwattr $C$DW$1162, DW_AT_type(*$C$DW$T$223)
    9481                      .dwattr $C$DW$1162, DW_AT_name("bit")
    9482                      .dwattr $C$DW$1162, DW_AT_TI_symbol_name("_bit")
    9483                      .dwattr $C$DW$1162, DW_AT_data_member_location[DW_OP_plus_uconst 0x0]
    9484                      .dwattr $C$DW$1162, DW_AT_accessibility(DW_ACCESS_public)
    9485                      .dwendtag $C$DW$T$224
    9486              
    9487              
    9488              $C$DW$T$225     .dwtag  DW_TAG_structure_type
    9489                      .dwattr $C$DW$T$225, DW_AT_name("QPOSCTL_BITS")
    9490                      .dwattr $C$DW$T$225, DW_AT_byte_size(0x01)
    9491              $C$DW$1163      .dwtag  DW_TAG_member
    9492                      .dwattr $C$DW$1163, DW_AT_type(*$C$DW$T$34)
    9493                      .dwattr $C$DW$1163, DW_AT_name("PCSPW")
    9494                      .dwattr $C$DW$1163, DW_AT_TI_symbol_name("_PCSPW")
TMS320C2000 Assembler PC v6.4.2 Thu Dec 14 15:27:05 2017

Tools Copyright (c) 1996-2015 Texas Instruments Incorporated
fsm_main.asm                                                         PAGE  176

    9495                      .dwattr $C$DW$1163, DW_AT_bit_offset(0x04), DW_AT_bit_size(0x0c)
    9496                      .dwattr $C$DW$1163, DW_AT_data_member_location[DW_OP_plus_uconst 0x0]
    9497                      .dwattr $C$DW$1163, DW_AT_accessibility(DW_ACCESS_public)
    9498              $C$DW$1164      .dwtag  DW_TAG_member
    9499                      .dwattr $C$DW$1164, DW_AT_type(*$C$DW$T$34)
    9500                      .dwattr $C$DW$1164, DW_AT_name("PCE")
    9501                      .dwattr $C$DW$1164, DW_AT_TI_symbol_name("_PCE")
    9502                      .dwattr $C$DW$1164, DW_AT_bit_offset(0x03), DW_AT_bit_size(0x01)
    9503                      .dwattr $C$DW$1164, DW_AT_data_member_location[DW_OP_plus_uconst 0x0]
    9504                      .dwattr $C$DW$1164, DW_AT_accessibility(DW_ACCESS_public)
    9505              $C$DW$1165      .dwtag  DW_TAG_member
    9506                      .dwattr $C$DW$1165, DW_AT_type(*$C$DW$T$34)
    9507                      .dwattr $C$DW$1165, DW_AT_name("PCPOL")
    9508                      .dwattr $C$DW$1165, DW_AT_TI_symbol_name("_PCPOL")
    9509                      .dwattr $C$DW$1165, DW_AT_bit_offset(0x02), DW_AT_bit_size(0x01)
    9510                      .dwattr $C$DW$1165, DW_AT_data_member_location[DW_OP_plus_uconst 0x0]
    9511                      .dwattr $C$DW$1165, DW_AT_accessibility(DW_ACCESS_public)
    9512              $C$DW$1166      .dwtag  DW_TAG_member
    9513                      .dwattr $C$DW$1166, DW_AT_type(*$C$DW$T$34)
    9514                      .dwattr $C$DW$1166, DW_AT_name("PCLOAD")
    9515                      .dwattr $C$DW$1166, DW_AT_TI_symbol_name("_PCLOAD")
    9516                      .dwattr $C$DW$1166, DW_AT_bit_offset(0x01), DW_AT_bit_size(0x01)
    9517                      .dwattr $C$DW$1166, DW_AT_data_member_location[DW_OP_plus_uconst 0x0]
    9518                      .dwattr $C$DW$1166, DW_AT_accessibility(DW_ACCESS_public)
    9519              $C$DW$1167      .dwtag  DW_TAG_member
    9520                      .dwattr $C$DW$1167, DW_AT_type(*$C$DW$T$34)
    9521                      .dwattr $C$DW$1167, DW_AT_name("PCSHDW")
    9522                      .dwattr $C$DW$1167, DW_AT_TI_symbol_name("_PCSHDW")
    9523                      .dwattr $C$DW$1167, DW_AT_bit_offset(0x00), DW_AT_bit_size(0x01)
    9524                      .dwattr $C$DW$1167, DW_AT_data_member_location[DW_OP_plus_uconst 0x0]
    9525                      .dwattr $C$DW$1167, DW_AT_accessibility(DW_ACCESS_public)
    9526                      .dwendtag $C$DW$T$225
    9527              
    9528              
    9529              $C$DW$T$226     .dwtag  DW_TAG_union_type
    9530                      .dwattr $C$DW$T$226, DW_AT_name("QPOSCTL_REG")
    9531                      .dwattr $C$DW$T$226, DW_AT_byte_size(0x01)
    9532              $C$DW$1168      .dwtag  DW_TAG_member
    9533                      .dwattr $C$DW$1168, DW_AT_type(*$C$DW$T$34)
    9534                      .dwattr $C$DW$1168, DW_AT_name("all")
    9535                      .dwattr $C$DW$1168, DW_AT_TI_symbol_name("_all")
    9536                      .dwattr $C$DW$1168, DW_AT_data_member_location[DW_OP_plus_uconst 0x0]
    9537                      .dwattr $C$DW$1168, DW_AT_accessibility(DW_ACCESS_public)
    9538              $C$DW$1169      .dwtag  DW_TAG_member
    9539                      .dwattr $C$DW$1169, DW_AT_type(*$C$DW$T$225)
    9540                      .dwattr $C$DW$1169, DW_AT_name("bit")
    9541                      .dwattr $C$DW$1169, DW_AT_TI_symbol_name("_bit")
    9542                      .dwattr $C$DW$1169, DW_AT_data_member_location[DW_OP_plus_uconst 0x0]
    9543                      .dwattr $C$DW$1169, DW_AT_accessibility(DW_ACCESS_public)
    9544                      .dwendtag $C$DW$T$226
    9545              
    9546              
    9547              $C$DW$T$227     .dwtag  DW_TAG_structure_type
    9548                      .dwattr $C$DW$T$227, DW_AT_name("SPIBRR_BITS")
    9549                      .dwattr $C$DW$T$227, DW_AT_byte_size(0x01)
TMS320C2000 Assembler PC v6.4.2 Thu Dec 14 15:27:05 2017

Tools Copyright (c) 1996-2015 Texas Instruments Incorporated
fsm_main.asm                                                         PAGE  177

    9550              $C$DW$1170      .dwtag  DW_TAG_member
    9551                      .dwattr $C$DW$1170, DW_AT_type(*$C$DW$T$34)
    9552                      .dwattr $C$DW$1170, DW_AT_name("SPI_BIT_RATE")
    9553                      .dwattr $C$DW$1170, DW_AT_TI_symbol_name("_SPI_BIT_RATE")
    9554                      .dwattr $C$DW$1170, DW_AT_bit_offset(0x09), DW_AT_bit_size(0x07)
    9555                      .dwattr $C$DW$1170, DW_AT_data_member_location[DW_OP_plus_uconst 0x0]
    9556                      .dwattr $C$DW$1170, DW_AT_accessibility(DW_ACCESS_public)
    9557              $C$DW$1171      .dwtag  DW_TAG_member
    9558                      .dwattr $C$DW$1171, DW_AT_type(*$C$DW$T$34)
    9559                      .dwattr $C$DW$1171, DW_AT_name("rsvd1")
    9560                      .dwattr $C$DW$1171, DW_AT_TI_symbol_name("_rsvd1")
    9561                      .dwattr $C$DW$1171, DW_AT_bit_offset(0x00), DW_AT_bit_size(0x09)
    9562                      .dwattr $C$DW$1171, DW_AT_data_member_location[DW_OP_plus_uconst 0x0]
    9563                      .dwattr $C$DW$1171, DW_AT_accessibility(DW_ACCESS_public)
    9564                      .dwendtag $C$DW$T$227
    9565              
    9566              
    9567              $C$DW$T$228     .dwtag  DW_TAG_union_type
    9568                      .dwattr $C$DW$T$228, DW_AT_name("SPIBRR_REG")
    9569                      .dwattr $C$DW$T$228, DW_AT_byte_size(0x01)
    9570              $C$DW$1172      .dwtag  DW_TAG_member
    9571                      .dwattr $C$DW$1172, DW_AT_type(*$C$DW$T$34)
    9572                      .dwattr $C$DW$1172, DW_AT_name("all")
    9573                      .dwattr $C$DW$1172, DW_AT_TI_symbol_name("_all")
    9574                      .dwattr $C$DW$1172, DW_AT_data_member_location[DW_OP_plus_uconst 0x0]
    9575                      .dwattr $C$DW$1172, DW_AT_accessibility(DW_ACCESS_public)
    9576              $C$DW$1173      .dwtag  DW_TAG_member
    9577                      .dwattr $C$DW$1173, DW_AT_type(*$C$DW$T$227)
    9578                      .dwattr $C$DW$1173, DW_AT_name("bit")
    9579                      .dwattr $C$DW$1173, DW_AT_TI_symbol_name("_bit")
    9580                      .dwattr $C$DW$1173, DW_AT_data_member_location[DW_OP_plus_uconst 0x0]
    9581                      .dwattr $C$DW$1173, DW_AT_accessibility(DW_ACCESS_public)
    9582                      .dwendtag $C$DW$T$228
    9583              
    9584              
    9585              $C$DW$T$229     .dwtag  DW_TAG_structure_type
    9586                      .dwattr $C$DW$T$229, DW_AT_name("SPICCR_BITS")
    9587                      .dwattr $C$DW$T$229, DW_AT_byte_size(0x01)
    9588              $C$DW$1174      .dwtag  DW_TAG_member
    9589                      .dwattr $C$DW$1174, DW_AT_type(*$C$DW$T$34)
    9590                      .dwattr $C$DW$1174, DW_AT_name("SPICHAR")
    9591                      .dwattr $C$DW$1174, DW_AT_TI_symbol_name("_SPICHAR")
    9592                      .dwattr $C$DW$1174, DW_AT_bit_offset(0x0c), DW_AT_bit_size(0x04)
    9593                      .dwattr $C$DW$1174, DW_AT_data_member_location[DW_OP_plus_uconst 0x0]
    9594                      .dwattr $C$DW$1174, DW_AT_accessibility(DW_ACCESS_public)
    9595              $C$DW$1175      .dwtag  DW_TAG_member
    9596                      .dwattr $C$DW$1175, DW_AT_type(*$C$DW$T$34)
    9597                      .dwattr $C$DW$1175, DW_AT_name("SPILBK")
    9598                      .dwattr $C$DW$1175, DW_AT_TI_symbol_name("_SPILBK")
    9599                      .dwattr $C$DW$1175, DW_AT_bit_offset(0x0b), DW_AT_bit_size(0x01)
    9600                      .dwattr $C$DW$1175, DW_AT_data_member_location[DW_OP_plus_uconst 0x0]
    9601                      .dwattr $C$DW$1175, DW_AT_accessibility(DW_ACCESS_public)
    9602              $C$DW$1176      .dwtag  DW_TAG_member
    9603                      .dwattr $C$DW$1176, DW_AT_type(*$C$DW$T$34)
    9604                      .dwattr $C$DW$1176, DW_AT_name("HS_MODE")
TMS320C2000 Assembler PC v6.4.2 Thu Dec 14 15:27:05 2017

Tools Copyright (c) 1996-2015 Texas Instruments Incorporated
fsm_main.asm                                                         PAGE  178

    9605                      .dwattr $C$DW$1176, DW_AT_TI_symbol_name("_HS_MODE")
    9606                      .dwattr $C$DW$1176, DW_AT_bit_offset(0x0a), DW_AT_bit_size(0x01)
    9607                      .dwattr $C$DW$1176, DW_AT_data_member_location[DW_OP_plus_uconst 0x0]
    9608                      .dwattr $C$DW$1176, DW_AT_accessibility(DW_ACCESS_public)
    9609              $C$DW$1177      .dwtag  DW_TAG_member
    9610                      .dwattr $C$DW$1177, DW_AT_type(*$C$DW$T$34)
    9611                      .dwattr $C$DW$1177, DW_AT_name("CLKPOLARITY")
    9612                      .dwattr $C$DW$1177, DW_AT_TI_symbol_name("_CLKPOLARITY")
    9613                      .dwattr $C$DW$1177, DW_AT_bit_offset(0x09), DW_AT_bit_size(0x01)
    9614                      .dwattr $C$DW$1177, DW_AT_data_member_location[DW_OP_plus_uconst 0x0]
    9615                      .dwattr $C$DW$1177, DW_AT_accessibility(DW_ACCESS_public)
    9616              $C$DW$1178      .dwtag  DW_TAG_member
    9617                      .dwattr $C$DW$1178, DW_AT_type(*$C$DW$T$34)
    9618                      .dwattr $C$DW$1178, DW_AT_name("SPISWRESET")
    9619                      .dwattr $C$DW$1178, DW_AT_TI_symbol_name("_SPISWRESET")
    9620                      .dwattr $C$DW$1178, DW_AT_bit_offset(0x08), DW_AT_bit_size(0x01)
    9621                      .dwattr $C$DW$1178, DW_AT_data_member_location[DW_OP_plus_uconst 0x0]
    9622                      .dwattr $C$DW$1178, DW_AT_accessibility(DW_ACCESS_public)
    9623              $C$DW$1179      .dwtag  DW_TAG_member
    9624                      .dwattr $C$DW$1179, DW_AT_type(*$C$DW$T$34)
    9625                      .dwattr $C$DW$1179, DW_AT_name("rsvd1")
    9626                      .dwattr $C$DW$1179, DW_AT_TI_symbol_name("_rsvd1")
    9627                      .dwattr $C$DW$1179, DW_AT_bit_offset(0x00), DW_AT_bit_size(0x08)
    9628                      .dwattr $C$DW$1179, DW_AT_data_member_location[DW_OP_plus_uconst 0x0]
    9629                      .dwattr $C$DW$1179, DW_AT_accessibility(DW_ACCESS_public)
    9630                      .dwendtag $C$DW$T$229
    9631              
    9632              
    9633              $C$DW$T$230     .dwtag  DW_TAG_union_type
    9634                      .dwattr $C$DW$T$230, DW_AT_name("SPICCR_REG")
    9635                      .dwattr $C$DW$T$230, DW_AT_byte_size(0x01)
    9636              $C$DW$1180      .dwtag  DW_TAG_member
    9637                      .dwattr $C$DW$1180, DW_AT_type(*$C$DW$T$34)
    9638                      .dwattr $C$DW$1180, DW_AT_name("all")
    9639                      .dwattr $C$DW$1180, DW_AT_TI_symbol_name("_all")
    9640                      .dwattr $C$DW$1180, DW_AT_data_member_location[DW_OP_plus_uconst 0x0]
    9641                      .dwattr $C$DW$1180, DW_AT_accessibility(DW_ACCESS_public)
    9642              $C$DW$1181      .dwtag  DW_TAG_member
    9643                      .dwattr $C$DW$1181, DW_AT_type(*$C$DW$T$229)
    9644                      .dwattr $C$DW$1181, DW_AT_name("bit")
    9645                      .dwattr $C$DW$1181, DW_AT_TI_symbol_name("_bit")
    9646                      .dwattr $C$DW$1181, DW_AT_data_member_location[DW_OP_plus_uconst 0x0]
    9647                      .dwattr $C$DW$1181, DW_AT_accessibility(DW_ACCESS_public)
    9648                      .dwendtag $C$DW$T$230
    9649              
    9650              
    9651              $C$DW$T$231     .dwtag  DW_TAG_structure_type
    9652                      .dwattr $C$DW$T$231, DW_AT_name("SPICTL_BITS")
    9653                      .dwattr $C$DW$T$231, DW_AT_byte_size(0x01)
    9654              $C$DW$1182      .dwtag  DW_TAG_member
    9655                      .dwattr $C$DW$1182, DW_AT_type(*$C$DW$T$34)
    9656                      .dwattr $C$DW$1182, DW_AT_name("SPIINTENA")
    9657                      .dwattr $C$DW$1182, DW_AT_TI_symbol_name("_SPIINTENA")
    9658                      .dwattr $C$DW$1182, DW_AT_bit_offset(0x0f), DW_AT_bit_size(0x01)
    9659                      .dwattr $C$DW$1182, DW_AT_data_member_location[DW_OP_plus_uconst 0x0]
TMS320C2000 Assembler PC v6.4.2 Thu Dec 14 15:27:05 2017

Tools Copyright (c) 1996-2015 Texas Instruments Incorporated
fsm_main.asm                                                         PAGE  179

    9660                      .dwattr $C$DW$1182, DW_AT_accessibility(DW_ACCESS_public)
    9661              $C$DW$1183      .dwtag  DW_TAG_member
    9662                      .dwattr $C$DW$1183, DW_AT_type(*$C$DW$T$34)
    9663                      .dwattr $C$DW$1183, DW_AT_name("TALK")
    9664                      .dwattr $C$DW$1183, DW_AT_TI_symbol_name("_TALK")
    9665                      .dwattr $C$DW$1183, DW_AT_bit_offset(0x0e), DW_AT_bit_size(0x01)
    9666                      .dwattr $C$DW$1183, DW_AT_data_member_location[DW_OP_plus_uconst 0x0]
    9667                      .dwattr $C$DW$1183, DW_AT_accessibility(DW_ACCESS_public)
    9668              $C$DW$1184      .dwtag  DW_TAG_member
    9669                      .dwattr $C$DW$1184, DW_AT_type(*$C$DW$T$34)
    9670                      .dwattr $C$DW$1184, DW_AT_name("MASTER_SLAVE")
    9671                      .dwattr $C$DW$1184, DW_AT_TI_symbol_name("_MASTER_SLAVE")
    9672                      .dwattr $C$DW$1184, DW_AT_bit_offset(0x0d), DW_AT_bit_size(0x01)
    9673                      .dwattr $C$DW$1184, DW_AT_data_member_location[DW_OP_plus_uconst 0x0]
    9674                      .dwattr $C$DW$1184, DW_AT_accessibility(DW_ACCESS_public)
    9675              $C$DW$1185      .dwtag  DW_TAG_member
    9676                      .dwattr $C$DW$1185, DW_AT_type(*$C$DW$T$34)
    9677                      .dwattr $C$DW$1185, DW_AT_name("CLK_PHASE")
    9678                      .dwattr $C$DW$1185, DW_AT_TI_symbol_name("_CLK_PHASE")
    9679                      .dwattr $C$DW$1185, DW_AT_bit_offset(0x0c), DW_AT_bit_size(0x01)
    9680                      .dwattr $C$DW$1185, DW_AT_data_member_location[DW_OP_plus_uconst 0x0]
    9681                      .dwattr $C$DW$1185, DW_AT_accessibility(DW_ACCESS_public)
    9682              $C$DW$1186      .dwtag  DW_TAG_member
    9683                      .dwattr $C$DW$1186, DW_AT_type(*$C$DW$T$34)
    9684                      .dwattr $C$DW$1186, DW_AT_name("OVERRUNINTENA")
    9685                      .dwattr $C$DW$1186, DW_AT_TI_symbol_name("_OVERRUNINTENA")
    9686                      .dwattr $C$DW$1186, DW_AT_bit_offset(0x0b), DW_AT_bit_size(0x01)
    9687                      .dwattr $C$DW$1186, DW_AT_data_member_location[DW_OP_plus_uconst 0x0]
    9688                      .dwattr $C$DW$1186, DW_AT_accessibility(DW_ACCESS_public)
    9689              $C$DW$1187      .dwtag  DW_TAG_member
    9690                      .dwattr $C$DW$1187, DW_AT_type(*$C$DW$T$34)
    9691                      .dwattr $C$DW$1187, DW_AT_name("rsvd1")
    9692                      .dwattr $C$DW$1187, DW_AT_TI_symbol_name("_rsvd1")
    9693                      .dwattr $C$DW$1187, DW_AT_bit_offset(0x00), DW_AT_bit_size(0x0b)
    9694                      .dwattr $C$DW$1187, DW_AT_data_member_location[DW_OP_plus_uconst 0x0]
    9695                      .dwattr $C$DW$1187, DW_AT_accessibility(DW_ACCESS_public)
    9696                      .dwendtag $C$DW$T$231
    9697              
    9698              
    9699              $C$DW$T$232     .dwtag  DW_TAG_union_type
    9700                      .dwattr $C$DW$T$232, DW_AT_name("SPICTL_REG")
    9701                      .dwattr $C$DW$T$232, DW_AT_byte_size(0x01)
    9702              $C$DW$1188      .dwtag  DW_TAG_member
    9703                      .dwattr $C$DW$1188, DW_AT_type(*$C$DW$T$34)
    9704                      .dwattr $C$DW$1188, DW_AT_name("all")
    9705                      .dwattr $C$DW$1188, DW_AT_TI_symbol_name("_all")
    9706                      .dwattr $C$DW$1188, DW_AT_data_member_location[DW_OP_plus_uconst 0x0]
    9707                      .dwattr $C$DW$1188, DW_AT_accessibility(DW_ACCESS_public)
    9708              $C$DW$1189      .dwtag  DW_TAG_member
    9709                      .dwattr $C$DW$1189, DW_AT_type(*$C$DW$T$231)
    9710                      .dwattr $C$DW$1189, DW_AT_name("bit")
    9711                      .dwattr $C$DW$1189, DW_AT_TI_symbol_name("_bit")
    9712                      .dwattr $C$DW$1189, DW_AT_data_member_location[DW_OP_plus_uconst 0x0]
    9713                      .dwattr $C$DW$1189, DW_AT_accessibility(DW_ACCESS_public)
    9714                      .dwendtag $C$DW$T$232
TMS320C2000 Assembler PC v6.4.2 Thu Dec 14 15:27:05 2017

Tools Copyright (c) 1996-2015 Texas Instruments Incorporated
fsm_main.asm                                                         PAGE  180

    9715              
    9716              
    9717              $C$DW$T$233     .dwtag  DW_TAG_structure_type
    9718                      .dwattr $C$DW$T$233, DW_AT_name("SPIFFCT_BITS")
    9719                      .dwattr $C$DW$T$233, DW_AT_byte_size(0x01)
    9720              $C$DW$1190      .dwtag  DW_TAG_member
    9721                      .dwattr $C$DW$1190, DW_AT_type(*$C$DW$T$34)
    9722                      .dwattr $C$DW$1190, DW_AT_name("TXDLY")
    9723                      .dwattr $C$DW$1190, DW_AT_TI_symbol_name("_TXDLY")
    9724                      .dwattr $C$DW$1190, DW_AT_bit_offset(0x08), DW_AT_bit_size(0x08)
    9725                      .dwattr $C$DW$1190, DW_AT_data_member_location[DW_OP_plus_uconst 0x0]
    9726                      .dwattr $C$DW$1190, DW_AT_accessibility(DW_ACCESS_public)
    9727              $C$DW$1191      .dwtag  DW_TAG_member
    9728                      .dwattr $C$DW$1191, DW_AT_type(*$C$DW$T$34)
    9729                      .dwattr $C$DW$1191, DW_AT_name("rsvd1")
    9730                      .dwattr $C$DW$1191, DW_AT_TI_symbol_name("_rsvd1")
    9731                      .dwattr $C$DW$1191, DW_AT_bit_offset(0x00), DW_AT_bit_size(0x08)
    9732                      .dwattr $C$DW$1191, DW_AT_data_member_location[DW_OP_plus_uconst 0x0]
    9733                      .dwattr $C$DW$1191, DW_AT_accessibility(DW_ACCESS_public)
    9734                      .dwendtag $C$DW$T$233
    9735              
    9736              
    9737              $C$DW$T$234     .dwtag  DW_TAG_union_type
    9738                      .dwattr $C$DW$T$234, DW_AT_name("SPIFFCT_REG")
    9739                      .dwattr $C$DW$T$234, DW_AT_byte_size(0x01)
    9740              $C$DW$1192      .dwtag  DW_TAG_member
    9741                      .dwattr $C$DW$1192, DW_AT_type(*$C$DW$T$34)
    9742                      .dwattr $C$DW$1192, DW_AT_name("all")
    9743                      .dwattr $C$DW$1192, DW_AT_TI_symbol_name("_all")
    9744                      .dwattr $C$DW$1192, DW_AT_data_member_location[DW_OP_plus_uconst 0x0]
    9745                      .dwattr $C$DW$1192, DW_AT_accessibility(DW_ACCESS_public)
    9746              $C$DW$1193      .dwtag  DW_TAG_member
    9747                      .dwattr $C$DW$1193, DW_AT_type(*$C$DW$T$233)
    9748                      .dwattr $C$DW$1193, DW_AT_name("bit")
    9749                      .dwattr $C$DW$1193, DW_AT_TI_symbol_name("_bit")
    9750                      .dwattr $C$DW$1193, DW_AT_data_member_location[DW_OP_plus_uconst 0x0]
    9751                      .dwattr $C$DW$1193, DW_AT_accessibility(DW_ACCESS_public)
    9752                      .dwendtag $C$DW$T$234
    9753              
    9754              
    9755              $C$DW$T$235     .dwtag  DW_TAG_structure_type
    9756                      .dwattr $C$DW$T$235, DW_AT_name("SPIFFRX_BITS")
    9757                      .dwattr $C$DW$T$235, DW_AT_byte_size(0x01)
    9758              $C$DW$1194      .dwtag  DW_TAG_member
    9759                      .dwattr $C$DW$1194, DW_AT_type(*$C$DW$T$34)
    9760                      .dwattr $C$DW$1194, DW_AT_name("RXFFIL")
    9761                      .dwattr $C$DW$1194, DW_AT_TI_symbol_name("_RXFFIL")
    9762                      .dwattr $C$DW$1194, DW_AT_bit_offset(0x0b), DW_AT_bit_size(0x05)
    9763                      .dwattr $C$DW$1194, DW_AT_data_member_location[DW_OP_plus_uconst 0x0]
    9764                      .dwattr $C$DW$1194, DW_AT_accessibility(DW_ACCESS_public)
    9765              $C$DW$1195      .dwtag  DW_TAG_member
    9766                      .dwattr $C$DW$1195, DW_AT_type(*$C$DW$T$34)
    9767                      .dwattr $C$DW$1195, DW_AT_name("RXFFIENA")
    9768                      .dwattr $C$DW$1195, DW_AT_TI_symbol_name("_RXFFIENA")
    9769                      .dwattr $C$DW$1195, DW_AT_bit_offset(0x0a), DW_AT_bit_size(0x01)
TMS320C2000 Assembler PC v6.4.2 Thu Dec 14 15:27:05 2017

Tools Copyright (c) 1996-2015 Texas Instruments Incorporated
fsm_main.asm                                                         PAGE  181

    9770                      .dwattr $C$DW$1195, DW_AT_data_member_location[DW_OP_plus_uconst 0x0]
    9771                      .dwattr $C$DW$1195, DW_AT_accessibility(DW_ACCESS_public)
    9772              $C$DW$1196      .dwtag  DW_TAG_member
    9773                      .dwattr $C$DW$1196, DW_AT_type(*$C$DW$T$34)
    9774                      .dwattr $C$DW$1196, DW_AT_name("RXFFINTCLR")
    9775                      .dwattr $C$DW$1196, DW_AT_TI_symbol_name("_RXFFINTCLR")
    9776                      .dwattr $C$DW$1196, DW_AT_bit_offset(0x09), DW_AT_bit_size(0x01)
    9777                      .dwattr $C$DW$1196, DW_AT_data_member_location[DW_OP_plus_uconst 0x0]
    9778                      .dwattr $C$DW$1196, DW_AT_accessibility(DW_ACCESS_public)
    9779              $C$DW$1197      .dwtag  DW_TAG_member
    9780                      .dwattr $C$DW$1197, DW_AT_type(*$C$DW$T$34)
    9781                      .dwattr $C$DW$1197, DW_AT_name("RXFFINT")
    9782                      .dwattr $C$DW$1197, DW_AT_TI_symbol_name("_RXFFINT")
    9783                      .dwattr $C$DW$1197, DW_AT_bit_offset(0x08), DW_AT_bit_size(0x01)
    9784                      .dwattr $C$DW$1197, DW_AT_data_member_location[DW_OP_plus_uconst 0x0]
    9785                      .dwattr $C$DW$1197, DW_AT_accessibility(DW_ACCESS_public)
    9786              $C$DW$1198      .dwtag  DW_TAG_member
    9787                      .dwattr $C$DW$1198, DW_AT_type(*$C$DW$T$34)
    9788                      .dwattr $C$DW$1198, DW_AT_name("RXFFST")
    9789                      .dwattr $C$DW$1198, DW_AT_TI_symbol_name("_RXFFST")
    9790                      .dwattr $C$DW$1198, DW_AT_bit_offset(0x03), DW_AT_bit_size(0x05)
    9791                      .dwattr $C$DW$1198, DW_AT_data_member_location[DW_OP_plus_uconst 0x0]
    9792                      .dwattr $C$DW$1198, DW_AT_accessibility(DW_ACCESS_public)
    9793              $C$DW$1199      .dwtag  DW_TAG_member
    9794                      .dwattr $C$DW$1199, DW_AT_type(*$C$DW$T$34)
    9795                      .dwattr $C$DW$1199, DW_AT_name("RXFIFORESET")
    9796                      .dwattr $C$DW$1199, DW_AT_TI_symbol_name("_RXFIFORESET")
    9797                      .dwattr $C$DW$1199, DW_AT_bit_offset(0x02), DW_AT_bit_size(0x01)
    9798                      .dwattr $C$DW$1199, DW_AT_data_member_location[DW_OP_plus_uconst 0x0]
    9799                      .dwattr $C$DW$1199, DW_AT_accessibility(DW_ACCESS_public)
    9800              $C$DW$1200      .dwtag  DW_TAG_member
    9801                      .dwattr $C$DW$1200, DW_AT_type(*$C$DW$T$34)
    9802                      .dwattr $C$DW$1200, DW_AT_name("RXFFOVFCLR")
    9803                      .dwattr $C$DW$1200, DW_AT_TI_symbol_name("_RXFFOVFCLR")
    9804                      .dwattr $C$DW$1200, DW_AT_bit_offset(0x01), DW_AT_bit_size(0x01)
    9805                      .dwattr $C$DW$1200, DW_AT_data_member_location[DW_OP_plus_uconst 0x0]
    9806                      .dwattr $C$DW$1200, DW_AT_accessibility(DW_ACCESS_public)
    9807              $C$DW$1201      .dwtag  DW_TAG_member
    9808                      .dwattr $C$DW$1201, DW_AT_type(*$C$DW$T$34)
    9809                      .dwattr $C$DW$1201, DW_AT_name("RXFFOVF")
    9810                      .dwattr $C$DW$1201, DW_AT_TI_symbol_name("_RXFFOVF")
    9811                      .dwattr $C$DW$1201, DW_AT_bit_offset(0x00), DW_AT_bit_size(0x01)
    9812                      .dwattr $C$DW$1201, DW_AT_data_member_location[DW_OP_plus_uconst 0x0]
    9813                      .dwattr $C$DW$1201, DW_AT_accessibility(DW_ACCESS_public)
    9814                      .dwendtag $C$DW$T$235
    9815              
    9816              
    9817              $C$DW$T$236     .dwtag  DW_TAG_union_type
    9818                      .dwattr $C$DW$T$236, DW_AT_name("SPIFFRX_REG")
    9819                      .dwattr $C$DW$T$236, DW_AT_byte_size(0x01)
    9820              $C$DW$1202      .dwtag  DW_TAG_member
    9821                      .dwattr $C$DW$1202, DW_AT_type(*$C$DW$T$34)
    9822                      .dwattr $C$DW$1202, DW_AT_name("all")
    9823                      .dwattr $C$DW$1202, DW_AT_TI_symbol_name("_all")
    9824                      .dwattr $C$DW$1202, DW_AT_data_member_location[DW_OP_plus_uconst 0x0]
TMS320C2000 Assembler PC v6.4.2 Thu Dec 14 15:27:05 2017

Tools Copyright (c) 1996-2015 Texas Instruments Incorporated
fsm_main.asm                                                         PAGE  182

    9825                      .dwattr $C$DW$1202, DW_AT_accessibility(DW_ACCESS_public)
    9826              $C$DW$1203      .dwtag  DW_TAG_member
    9827                      .dwattr $C$DW$1203, DW_AT_type(*$C$DW$T$235)
    9828                      .dwattr $C$DW$1203, DW_AT_name("bit")
    9829                      .dwattr $C$DW$1203, DW_AT_TI_symbol_name("_bit")
    9830                      .dwattr $C$DW$1203, DW_AT_data_member_location[DW_OP_plus_uconst 0x0]
    9831                      .dwattr $C$DW$1203, DW_AT_accessibility(DW_ACCESS_public)
    9832                      .dwendtag $C$DW$T$236
    9833              
    9834              
    9835              $C$DW$T$237     .dwtag  DW_TAG_structure_type
    9836                      .dwattr $C$DW$T$237, DW_AT_name("SPIFFTX_BITS")
    9837                      .dwattr $C$DW$T$237, DW_AT_byte_size(0x01)
    9838              $C$DW$1204      .dwtag  DW_TAG_member
    9839                      .dwattr $C$DW$1204, DW_AT_type(*$C$DW$T$34)
    9840                      .dwattr $C$DW$1204, DW_AT_name("TXFFIL")
    9841                      .dwattr $C$DW$1204, DW_AT_TI_symbol_name("_TXFFIL")
    9842                      .dwattr $C$DW$1204, DW_AT_bit_offset(0x0b), DW_AT_bit_size(0x05)
    9843                      .dwattr $C$DW$1204, DW_AT_data_member_location[DW_OP_plus_uconst 0x0]
    9844                      .dwattr $C$DW$1204, DW_AT_accessibility(DW_ACCESS_public)
    9845              $C$DW$1205      .dwtag  DW_TAG_member
    9846                      .dwattr $C$DW$1205, DW_AT_type(*$C$DW$T$34)
    9847                      .dwattr $C$DW$1205, DW_AT_name("TXFFIENA")
    9848                      .dwattr $C$DW$1205, DW_AT_TI_symbol_name("_TXFFIENA")
    9849                      .dwattr $C$DW$1205, DW_AT_bit_offset(0x0a), DW_AT_bit_size(0x01)
    9850                      .dwattr $C$DW$1205, DW_AT_data_member_location[DW_OP_plus_uconst 0x0]
    9851                      .dwattr $C$DW$1205, DW_AT_accessibility(DW_ACCESS_public)
    9852              $C$DW$1206      .dwtag  DW_TAG_member
    9853                      .dwattr $C$DW$1206, DW_AT_type(*$C$DW$T$34)
    9854                      .dwattr $C$DW$1206, DW_AT_name("TXFFINTCLR")
    9855                      .dwattr $C$DW$1206, DW_AT_TI_symbol_name("_TXFFINTCLR")
    9856                      .dwattr $C$DW$1206, DW_AT_bit_offset(0x09), DW_AT_bit_size(0x01)
    9857                      .dwattr $C$DW$1206, DW_AT_data_member_location[DW_OP_plus_uconst 0x0]
    9858                      .dwattr $C$DW$1206, DW_AT_accessibility(DW_ACCESS_public)
    9859              $C$DW$1207      .dwtag  DW_TAG_member
    9860                      .dwattr $C$DW$1207, DW_AT_type(*$C$DW$T$34)
    9861                      .dwattr $C$DW$1207, DW_AT_name("TXFFINT")
    9862                      .dwattr $C$DW$1207, DW_AT_TI_symbol_name("_TXFFINT")
    9863                      .dwattr $C$DW$1207, DW_AT_bit_offset(0x08), DW_AT_bit_size(0x01)
    9864                      .dwattr $C$DW$1207, DW_AT_data_member_location[DW_OP_plus_uconst 0x0]
    9865                      .dwattr $C$DW$1207, DW_AT_accessibility(DW_ACCESS_public)
    9866              $C$DW$1208      .dwtag  DW_TAG_member
    9867                      .dwattr $C$DW$1208, DW_AT_type(*$C$DW$T$34)
    9868                      .dwattr $C$DW$1208, DW_AT_name("TXFFST")
    9869                      .dwattr $C$DW$1208, DW_AT_TI_symbol_name("_TXFFST")
    9870                      .dwattr $C$DW$1208, DW_AT_bit_offset(0x03), DW_AT_bit_size(0x05)
    9871                      .dwattr $C$DW$1208, DW_AT_data_member_location[DW_OP_plus_uconst 0x0]
    9872                      .dwattr $C$DW$1208, DW_AT_accessibility(DW_ACCESS_public)
    9873              $C$DW$1209      .dwtag  DW_TAG_member
    9874                      .dwattr $C$DW$1209, DW_AT_type(*$C$DW$T$34)
    9875                      .dwattr $C$DW$1209, DW_AT_name("TXFIFO")
    9876                      .dwattr $C$DW$1209, DW_AT_TI_symbol_name("_TXFIFO")
    9877                      .dwattr $C$DW$1209, DW_AT_bit_offset(0x02), DW_AT_bit_size(0x01)
    9878                      .dwattr $C$DW$1209, DW_AT_data_member_location[DW_OP_plus_uconst 0x0]
    9879                      .dwattr $C$DW$1209, DW_AT_accessibility(DW_ACCESS_public)
TMS320C2000 Assembler PC v6.4.2 Thu Dec 14 15:27:05 2017

Tools Copyright (c) 1996-2015 Texas Instruments Incorporated
fsm_main.asm                                                         PAGE  183

    9880              $C$DW$1210      .dwtag  DW_TAG_member
    9881                      .dwattr $C$DW$1210, DW_AT_type(*$C$DW$T$34)
    9882                      .dwattr $C$DW$1210, DW_AT_name("SPIFFENA")
    9883                      .dwattr $C$DW$1210, DW_AT_TI_symbol_name("_SPIFFENA")
    9884                      .dwattr $C$DW$1210, DW_AT_bit_offset(0x01), DW_AT_bit_size(0x01)
    9885                      .dwattr $C$DW$1210, DW_AT_data_member_location[DW_OP_plus_uconst 0x0]
    9886                      .dwattr $C$DW$1210, DW_AT_accessibility(DW_ACCESS_public)
    9887              $C$DW$1211      .dwtag  DW_TAG_member
    9888                      .dwattr $C$DW$1211, DW_AT_type(*$C$DW$T$34)
    9889                      .dwattr $C$DW$1211, DW_AT_name("SPIRST")
    9890                      .dwattr $C$DW$1211, DW_AT_TI_symbol_name("_SPIRST")
    9891                      .dwattr $C$DW$1211, DW_AT_bit_offset(0x00), DW_AT_bit_size(0x01)
    9892                      .dwattr $C$DW$1211, DW_AT_data_member_location[DW_OP_plus_uconst 0x0]
    9893                      .dwattr $C$DW$1211, DW_AT_accessibility(DW_ACCESS_public)
    9894                      .dwendtag $C$DW$T$237
    9895              
    9896              
    9897              $C$DW$T$238     .dwtag  DW_TAG_union_type
    9898                      .dwattr $C$DW$T$238, DW_AT_name("SPIFFTX_REG")
    9899                      .dwattr $C$DW$T$238, DW_AT_byte_size(0x01)
    9900              $C$DW$1212      .dwtag  DW_TAG_member
    9901                      .dwattr $C$DW$1212, DW_AT_type(*$C$DW$T$34)
    9902                      .dwattr $C$DW$1212, DW_AT_name("all")
    9903                      .dwattr $C$DW$1212, DW_AT_TI_symbol_name("_all")
    9904                      .dwattr $C$DW$1212, DW_AT_data_member_location[DW_OP_plus_uconst 0x0]
    9905                      .dwattr $C$DW$1212, DW_AT_accessibility(DW_ACCESS_public)
    9906              $C$DW$1213      .dwtag  DW_TAG_member
    9907                      .dwattr $C$DW$1213, DW_AT_type(*$C$DW$T$237)
    9908                      .dwattr $C$DW$1213, DW_AT_name("bit")
    9909                      .dwattr $C$DW$1213, DW_AT_TI_symbol_name("_bit")
    9910                      .dwattr $C$DW$1213, DW_AT_data_member_location[DW_OP_plus_uconst 0x0]
    9911                      .dwattr $C$DW$1213, DW_AT_accessibility(DW_ACCESS_public)
    9912                      .dwendtag $C$DW$T$238
    9913              
    9914              
    9915              $C$DW$T$239     .dwtag  DW_TAG_structure_type
    9916                      .dwattr $C$DW$T$239, DW_AT_name("SPIPRI_BITS")
    9917                      .dwattr $C$DW$T$239, DW_AT_byte_size(0x01)
    9918              $C$DW$1214      .dwtag  DW_TAG_member
    9919                      .dwattr $C$DW$1214, DW_AT_type(*$C$DW$T$34)
    9920                      .dwattr $C$DW$1214, DW_AT_name("TRIWIRE")
    9921                      .dwattr $C$DW$1214, DW_AT_TI_symbol_name("_TRIWIRE")
    9922                      .dwattr $C$DW$1214, DW_AT_bit_offset(0x0f), DW_AT_bit_size(0x01)
    9923                      .dwattr $C$DW$1214, DW_AT_data_member_location[DW_OP_plus_uconst 0x0]
    9924                      .dwattr $C$DW$1214, DW_AT_accessibility(DW_ACCESS_public)
    9925              $C$DW$1215      .dwtag  DW_TAG_member
    9926                      .dwattr $C$DW$1215, DW_AT_type(*$C$DW$T$34)
    9927                      .dwattr $C$DW$1215, DW_AT_name("STEINV")
    9928                      .dwattr $C$DW$1215, DW_AT_TI_symbol_name("_STEINV")
    9929                      .dwattr $C$DW$1215, DW_AT_bit_offset(0x0e), DW_AT_bit_size(0x01)
    9930                      .dwattr $C$DW$1215, DW_AT_data_member_location[DW_OP_plus_uconst 0x0]
    9931                      .dwattr $C$DW$1215, DW_AT_accessibility(DW_ACCESS_public)
    9932              $C$DW$1216      .dwtag  DW_TAG_member
    9933                      .dwattr $C$DW$1216, DW_AT_type(*$C$DW$T$34)
    9934                      .dwattr $C$DW$1216, DW_AT_name("rsvd1")
TMS320C2000 Assembler PC v6.4.2 Thu Dec 14 15:27:05 2017

Tools Copyright (c) 1996-2015 Texas Instruments Incorporated
fsm_main.asm                                                         PAGE  184

    9935                      .dwattr $C$DW$1216, DW_AT_TI_symbol_name("_rsvd1")
    9936                      .dwattr $C$DW$1216, DW_AT_bit_offset(0x0c), DW_AT_bit_size(0x02)
    9937                      .dwattr $C$DW$1216, DW_AT_data_member_location[DW_OP_plus_uconst 0x0]
    9938                      .dwattr $C$DW$1216, DW_AT_accessibility(DW_ACCESS_public)
    9939              $C$DW$1217      .dwtag  DW_TAG_member
    9940                      .dwattr $C$DW$1217, DW_AT_type(*$C$DW$T$34)
    9941                      .dwattr $C$DW$1217, DW_AT_name("FREE")
    9942                      .dwattr $C$DW$1217, DW_AT_TI_symbol_name("_FREE")
    9943                      .dwattr $C$DW$1217, DW_AT_bit_offset(0x0b), DW_AT_bit_size(0x01)
    9944                      .dwattr $C$DW$1217, DW_AT_data_member_location[DW_OP_plus_uconst 0x0]
    9945                      .dwattr $C$DW$1217, DW_AT_accessibility(DW_ACCESS_public)
    9946              $C$DW$1218      .dwtag  DW_TAG_member
    9947                      .dwattr $C$DW$1218, DW_AT_type(*$C$DW$T$34)
    9948                      .dwattr $C$DW$1218, DW_AT_name("SOFT")
    9949                      .dwattr $C$DW$1218, DW_AT_TI_symbol_name("_SOFT")
    9950                      .dwattr $C$DW$1218, DW_AT_bit_offset(0x0a), DW_AT_bit_size(0x01)
    9951                      .dwattr $C$DW$1218, DW_AT_data_member_location[DW_OP_plus_uconst 0x0]
    9952                      .dwattr $C$DW$1218, DW_AT_accessibility(DW_ACCESS_public)
    9953              $C$DW$1219      .dwtag  DW_TAG_member
    9954                      .dwattr $C$DW$1219, DW_AT_type(*$C$DW$T$34)
    9955                      .dwattr $C$DW$1219, DW_AT_name("rsvd2")
    9956                      .dwattr $C$DW$1219, DW_AT_TI_symbol_name("_rsvd2")
    9957                      .dwattr $C$DW$1219, DW_AT_bit_offset(0x09), DW_AT_bit_size(0x01)
    9958                      .dwattr $C$DW$1219, DW_AT_data_member_location[DW_OP_plus_uconst 0x0]
    9959                      .dwattr $C$DW$1219, DW_AT_accessibility(DW_ACCESS_public)
    9960              $C$DW$1220      .dwtag  DW_TAG_member
    9961                      .dwattr $C$DW$1220, DW_AT_type(*$C$DW$T$34)
    9962                      .dwattr $C$DW$1220, DW_AT_name("rsvd3")
    9963                      .dwattr $C$DW$1220, DW_AT_TI_symbol_name("_rsvd3")
    9964                      .dwattr $C$DW$1220, DW_AT_bit_offset(0x00), DW_AT_bit_size(0x09)
    9965                      .dwattr $C$DW$1220, DW_AT_data_member_location[DW_OP_plus_uconst 0x0]
    9966                      .dwattr $C$DW$1220, DW_AT_accessibility(DW_ACCESS_public)
    9967                      .dwendtag $C$DW$T$239
    9968              
    9969              
    9970              $C$DW$T$240     .dwtag  DW_TAG_union_type
    9971                      .dwattr $C$DW$T$240, DW_AT_name("SPIPRI_REG")
    9972                      .dwattr $C$DW$T$240, DW_AT_byte_size(0x01)
    9973              $C$DW$1221      .dwtag  DW_TAG_member
    9974                      .dwattr $C$DW$1221, DW_AT_type(*$C$DW$T$34)
    9975                      .dwattr $C$DW$1221, DW_AT_name("all")
    9976                      .dwattr $C$DW$1221, DW_AT_TI_symbol_name("_all")
    9977                      .dwattr $C$DW$1221, DW_AT_data_member_location[DW_OP_plus_uconst 0x0]
    9978                      .dwattr $C$DW$1221, DW_AT_accessibility(DW_ACCESS_public)
    9979              $C$DW$1222      .dwtag  DW_TAG_member
    9980                      .dwattr $C$DW$1222, DW_AT_type(*$C$DW$T$239)
    9981                      .dwattr $C$DW$1222, DW_AT_name("bit")
    9982                      .dwattr $C$DW$1222, DW_AT_TI_symbol_name("_bit")
    9983                      .dwattr $C$DW$1222, DW_AT_data_member_location[DW_OP_plus_uconst 0x0]
    9984                      .dwattr $C$DW$1222, DW_AT_accessibility(DW_ACCESS_public)
    9985                      .dwendtag $C$DW$T$240
    9986              
    9987              
    9988              $C$DW$T$241     .dwtag  DW_TAG_structure_type
    9989                      .dwattr $C$DW$T$241, DW_AT_name("SPISTS_BITS")
TMS320C2000 Assembler PC v6.4.2 Thu Dec 14 15:27:05 2017

Tools Copyright (c) 1996-2015 Texas Instruments Incorporated
fsm_main.asm                                                         PAGE  185

    9990                      .dwattr $C$DW$T$241, DW_AT_byte_size(0x01)
    9991              $C$DW$1223      .dwtag  DW_TAG_member
    9992                      .dwattr $C$DW$1223, DW_AT_type(*$C$DW$T$34)
    9993                      .dwattr $C$DW$1223, DW_AT_name("rsvd1")
    9994                      .dwattr $C$DW$1223, DW_AT_TI_symbol_name("_rsvd1")
    9995                      .dwattr $C$DW$1223, DW_AT_bit_offset(0x0b), DW_AT_bit_size(0x05)
    9996                      .dwattr $C$DW$1223, DW_AT_data_member_location[DW_OP_plus_uconst 0x0]
    9997                      .dwattr $C$DW$1223, DW_AT_accessibility(DW_ACCESS_public)
    9998              $C$DW$1224      .dwtag  DW_TAG_member
    9999                      .dwattr $C$DW$1224, DW_AT_type(*$C$DW$T$34)
   10000                      .dwattr $C$DW$1224, DW_AT_name("BUFFULL_FLAG")
   10001                      .dwattr $C$DW$1224, DW_AT_TI_symbol_name("_BUFFULL_FLAG")
   10002                      .dwattr $C$DW$1224, DW_AT_bit_offset(0x0a), DW_AT_bit_size(0x01)
   10003                      .dwattr $C$DW$1224, DW_AT_data_member_location[DW_OP_plus_uconst 0x0]
   10004                      .dwattr $C$DW$1224, DW_AT_accessibility(DW_ACCESS_public)
   10005              $C$DW$1225      .dwtag  DW_TAG_member
   10006                      .dwattr $C$DW$1225, DW_AT_type(*$C$DW$T$34)
   10007                      .dwattr $C$DW$1225, DW_AT_name("INT_FLAG")
   10008                      .dwattr $C$DW$1225, DW_AT_TI_symbol_name("_INT_FLAG")
   10009                      .dwattr $C$DW$1225, DW_AT_bit_offset(0x09), DW_AT_bit_size(0x01)
   10010                      .dwattr $C$DW$1225, DW_AT_data_member_location[DW_OP_plus_uconst 0x0]
   10011                      .dwattr $C$DW$1225, DW_AT_accessibility(DW_ACCESS_public)
   10012              $C$DW$1226      .dwtag  DW_TAG_member
   10013                      .dwattr $C$DW$1226, DW_AT_type(*$C$DW$T$34)
   10014                      .dwattr $C$DW$1226, DW_AT_name("OVERRUN_FLAG")
   10015                      .dwattr $C$DW$1226, DW_AT_TI_symbol_name("_OVERRUN_FLAG")
   10016                      .dwattr $C$DW$1226, DW_AT_bit_offset(0x08), DW_AT_bit_size(0x01)
   10017                      .dwattr $C$DW$1226, DW_AT_data_member_location[DW_OP_plus_uconst 0x0]
   10018                      .dwattr $C$DW$1226, DW_AT_accessibility(DW_ACCESS_public)
   10019              $C$DW$1227      .dwtag  DW_TAG_member
   10020                      .dwattr $C$DW$1227, DW_AT_type(*$C$DW$T$34)
   10021                      .dwattr $C$DW$1227, DW_AT_name("rsvd2")
   10022                      .dwattr $C$DW$1227, DW_AT_TI_symbol_name("_rsvd2")
   10023                      .dwattr $C$DW$1227, DW_AT_bit_offset(0x00), DW_AT_bit_size(0x08)
   10024                      .dwattr $C$DW$1227, DW_AT_data_member_location[DW_OP_plus_uconst 0x0]
   10025                      .dwattr $C$DW$1227, DW_AT_accessibility(DW_ACCESS_public)
   10026                      .dwendtag $C$DW$T$241
   10027              
   10028              
   10029              $C$DW$T$242     .dwtag  DW_TAG_union_type
   10030                      .dwattr $C$DW$T$242, DW_AT_name("SPISTS_REG")
   10031                      .dwattr $C$DW$T$242, DW_AT_byte_size(0x01)
   10032              $C$DW$1228      .dwtag  DW_TAG_member
   10033                      .dwattr $C$DW$1228, DW_AT_type(*$C$DW$T$34)
   10034                      .dwattr $C$DW$1228, DW_AT_name("all")
   10035                      .dwattr $C$DW$1228, DW_AT_TI_symbol_name("_all")
   10036                      .dwattr $C$DW$1228, DW_AT_data_member_location[DW_OP_plus_uconst 0x0]
   10037                      .dwattr $C$DW$1228, DW_AT_accessibility(DW_ACCESS_public)
   10038              $C$DW$1229      .dwtag  DW_TAG_member
   10039                      .dwattr $C$DW$1229, DW_AT_type(*$C$DW$T$241)
   10040                      .dwattr $C$DW$1229, DW_AT_name("bit")
   10041                      .dwattr $C$DW$1229, DW_AT_TI_symbol_name("_bit")
   10042                      .dwattr $C$DW$1229, DW_AT_data_member_location[DW_OP_plus_uconst 0x0]
   10043                      .dwattr $C$DW$1229, DW_AT_accessibility(DW_ACCESS_public)
   10044                      .dwendtag $C$DW$T$242
TMS320C2000 Assembler PC v6.4.2 Thu Dec 14 15:27:05 2017

Tools Copyright (c) 1996-2015 Texas Instruments Incorporated
fsm_main.asm                                                         PAGE  186

   10045              
   10046              
   10047              $C$DW$T$243     .dwtag  DW_TAG_structure_type
   10048                      .dwattr $C$DW$T$243, DW_AT_name("SPI_REGS")
   10049                      .dwattr $C$DW$T$243, DW_AT_byte_size(0x10)
   10050              $C$DW$1230      .dwtag  DW_TAG_member
   10051                      .dwattr $C$DW$1230, DW_AT_type(*$C$DW$T$230)
   10052                      .dwattr $C$DW$1230, DW_AT_name("SPICCR")
   10053                      .dwattr $C$DW$1230, DW_AT_TI_symbol_name("_SPICCR")
   10054                      .dwattr $C$DW$1230, DW_AT_data_member_location[DW_OP_plus_uconst 0x0]
   10055                      .dwattr $C$DW$1230, DW_AT_accessibility(DW_ACCESS_public)
   10056              $C$DW$1231      .dwtag  DW_TAG_member
   10057                      .dwattr $C$DW$1231, DW_AT_type(*$C$DW$T$232)
   10058                      .dwattr $C$DW$1231, DW_AT_name("SPICTL")
   10059                      .dwattr $C$DW$1231, DW_AT_TI_symbol_name("_SPICTL")
   10060                      .dwattr $C$DW$1231, DW_AT_data_member_location[DW_OP_plus_uconst 0x1]
   10061                      .dwattr $C$DW$1231, DW_AT_accessibility(DW_ACCESS_public)
   10062              $C$DW$1232      .dwtag  DW_TAG_member
   10063                      .dwattr $C$DW$1232, DW_AT_type(*$C$DW$T$242)
   10064                      .dwattr $C$DW$1232, DW_AT_name("SPISTS")
   10065                      .dwattr $C$DW$1232, DW_AT_TI_symbol_name("_SPISTS")
   10066                      .dwattr $C$DW$1232, DW_AT_data_member_location[DW_OP_plus_uconst 0x2]
   10067                      .dwattr $C$DW$1232, DW_AT_accessibility(DW_ACCESS_public)
   10068              $C$DW$1233      .dwtag  DW_TAG_member
   10069                      .dwattr $C$DW$1233, DW_AT_type(*$C$DW$T$34)
   10070                      .dwattr $C$DW$1233, DW_AT_name("rsvd1")
   10071                      .dwattr $C$DW$1233, DW_AT_TI_symbol_name("_rsvd1")
   10072                      .dwattr $C$DW$1233, DW_AT_data_member_location[DW_OP_plus_uconst 0x3]
   10073                      .dwattr $C$DW$1233, DW_AT_accessibility(DW_ACCESS_public)
   10074              $C$DW$1234      .dwtag  DW_TAG_member
   10075                      .dwattr $C$DW$1234, DW_AT_type(*$C$DW$T$228)
   10076                      .dwattr $C$DW$1234, DW_AT_name("SPIBRR")
   10077                      .dwattr $C$DW$1234, DW_AT_TI_symbol_name("_SPIBRR")
   10078                      .dwattr $C$DW$1234, DW_AT_data_member_location[DW_OP_plus_uconst 0x4]
   10079                      .dwattr $C$DW$1234, DW_AT_accessibility(DW_ACCESS_public)
   10080              $C$DW$1235      .dwtag  DW_TAG_member
   10081                      .dwattr $C$DW$1235, DW_AT_type(*$C$DW$T$34)
   10082                      .dwattr $C$DW$1235, DW_AT_name("rsvd2")
   10083                      .dwattr $C$DW$1235, DW_AT_TI_symbol_name("_rsvd2")
   10084                      .dwattr $C$DW$1235, DW_AT_data_member_location[DW_OP_plus_uconst 0x5]
   10085                      .dwattr $C$DW$1235, DW_AT_accessibility(DW_ACCESS_public)
   10086              $C$DW$1236      .dwtag  DW_TAG_member
   10087                      .dwattr $C$DW$1236, DW_AT_type(*$C$DW$T$34)
   10088                      .dwattr $C$DW$1236, DW_AT_name("SPIRXEMU")
   10089                      .dwattr $C$DW$1236, DW_AT_TI_symbol_name("_SPIRXEMU")
   10090                      .dwattr $C$DW$1236, DW_AT_data_member_location[DW_OP_plus_uconst 0x6]
   10091                      .dwattr $C$DW$1236, DW_AT_accessibility(DW_ACCESS_public)
   10092              $C$DW$1237      .dwtag  DW_TAG_member
   10093                      .dwattr $C$DW$1237, DW_AT_type(*$C$DW$T$34)
   10094                      .dwattr $C$DW$1237, DW_AT_name("SPIRXBUF")
   10095                      .dwattr $C$DW$1237, DW_AT_TI_symbol_name("_SPIRXBUF")
   10096                      .dwattr $C$DW$1237, DW_AT_data_member_location[DW_OP_plus_uconst 0x7]
   10097                      .dwattr $C$DW$1237, DW_AT_accessibility(DW_ACCESS_public)
   10098              $C$DW$1238      .dwtag  DW_TAG_member
   10099                      .dwattr $C$DW$1238, DW_AT_type(*$C$DW$T$34)
TMS320C2000 Assembler PC v6.4.2 Thu Dec 14 15:27:05 2017

Tools Copyright (c) 1996-2015 Texas Instruments Incorporated
fsm_main.asm                                                         PAGE  187

   10100                      .dwattr $C$DW$1238, DW_AT_name("SPITXBUF")
   10101                      .dwattr $C$DW$1238, DW_AT_TI_symbol_name("_SPITXBUF")
   10102                      .dwattr $C$DW$1238, DW_AT_data_member_location[DW_OP_plus_uconst 0x8]
   10103                      .dwattr $C$DW$1238, DW_AT_accessibility(DW_ACCESS_public)
   10104              $C$DW$1239      .dwtag  DW_TAG_member
   10105                      .dwattr $C$DW$1239, DW_AT_type(*$C$DW$T$34)
   10106                      .dwattr $C$DW$1239, DW_AT_name("SPIDAT")
   10107                      .dwattr $C$DW$1239, DW_AT_TI_symbol_name("_SPIDAT")
   10108                      .dwattr $C$DW$1239, DW_AT_data_member_location[DW_OP_plus_uconst 0x9]
   10109                      .dwattr $C$DW$1239, DW_AT_accessibility(DW_ACCESS_public)
   10110              $C$DW$1240      .dwtag  DW_TAG_member
   10111                      .dwattr $C$DW$1240, DW_AT_type(*$C$DW$T$238)
   10112                      .dwattr $C$DW$1240, DW_AT_name("SPIFFTX")
   10113                      .dwattr $C$DW$1240, DW_AT_TI_symbol_name("_SPIFFTX")
   10114                      .dwattr $C$DW$1240, DW_AT_data_member_location[DW_OP_plus_uconst 0xa]
   10115                      .dwattr $C$DW$1240, DW_AT_accessibility(DW_ACCESS_public)
   10116              $C$DW$1241      .dwtag  DW_TAG_member
   10117                      .dwattr $C$DW$1241, DW_AT_type(*$C$DW$T$236)
   10118                      .dwattr $C$DW$1241, DW_AT_name("SPIFFRX")
   10119                      .dwattr $C$DW$1241, DW_AT_TI_symbol_name("_SPIFFRX")
   10120                      .dwattr $C$DW$1241, DW_AT_data_member_location[DW_OP_plus_uconst 0xb]
   10121                      .dwattr $C$DW$1241, DW_AT_accessibility(DW_ACCESS_public)
   10122              $C$DW$1242      .dwtag  DW_TAG_member
   10123                      .dwattr $C$DW$1242, DW_AT_type(*$C$DW$T$234)
   10124                      .dwattr $C$DW$1242, DW_AT_name("SPIFFCT")
   10125                      .dwattr $C$DW$1242, DW_AT_TI_symbol_name("_SPIFFCT")
   10126                      .dwattr $C$DW$1242, DW_AT_data_member_location[DW_OP_plus_uconst 0xc]
   10127                      .dwattr $C$DW$1242, DW_AT_accessibility(DW_ACCESS_public)
   10128              $C$DW$1243      .dwtag  DW_TAG_member
   10129                      .dwattr $C$DW$1243, DW_AT_type(*$C$DW$T$162)
   10130                      .dwattr $C$DW$1243, DW_AT_name("rsvd3")
   10131                      .dwattr $C$DW$1243, DW_AT_TI_symbol_name("_rsvd3")
   10132                      .dwattr $C$DW$1243, DW_AT_data_member_location[DW_OP_plus_uconst 0xd]
   10133                      .dwattr $C$DW$1243, DW_AT_accessibility(DW_ACCESS_public)
   10134              $C$DW$1244      .dwtag  DW_TAG_member
   10135                      .dwattr $C$DW$1244, DW_AT_type(*$C$DW$T$240)
   10136                      .dwattr $C$DW$1244, DW_AT_name("SPIPRI")
   10137                      .dwattr $C$DW$1244, DW_AT_TI_symbol_name("_SPIPRI")
   10138                      .dwattr $C$DW$1244, DW_AT_data_member_location[DW_OP_plus_uconst 0xf]
   10139                      .dwattr $C$DW$1244, DW_AT_accessibility(DW_ACCESS_public)
   10140                      .dwendtag $C$DW$T$243
   10141              
   10142              $C$DW$1245      .dwtag  DW_TAG_TI_far_type
   10143                      .dwattr $C$DW$1245, DW_AT_type(*$C$DW$T$243)
   10144              $C$DW$T$64      .dwtag  DW_TAG_volatile_type
   10145                      .dwattr $C$DW$T$64, DW_AT_type(*$C$DW$1245)
   10146              $C$DW$T$65      .dwtag  DW_TAG_pointer_type
   10147                      .dwattr $C$DW$T$65, DW_AT_type(*$C$DW$T$64)
   10148                      .dwattr $C$DW$T$65, DW_AT_address_class(0x20)
   10149              
   10150              $C$DW$T$244     .dwtag  DW_TAG_structure_type
   10151                      .dwattr $C$DW$T$244, DW_AT_name("TBCTL2_BITS")
   10152                      .dwattr $C$DW$T$244, DW_AT_byte_size(0x01)
   10153              $C$DW$1246      .dwtag  DW_TAG_member
   10154                      .dwattr $C$DW$1246, DW_AT_type(*$C$DW$T$34)
TMS320C2000 Assembler PC v6.4.2 Thu Dec 14 15:27:05 2017

Tools Copyright (c) 1996-2015 Texas Instruments Incorporated
fsm_main.asm                                                         PAGE  188

   10155                      .dwattr $C$DW$1246, DW_AT_name("rsvd1")
   10156                      .dwattr $C$DW$1246, DW_AT_TI_symbol_name("_rsvd1")
   10157                      .dwattr $C$DW$1246, DW_AT_bit_offset(0x0b), DW_AT_bit_size(0x05)
   10158                      .dwattr $C$DW$1246, DW_AT_data_member_location[DW_OP_plus_uconst 0x0]
   10159                      .dwattr $C$DW$1246, DW_AT_accessibility(DW_ACCESS_public)
   10160              $C$DW$1247      .dwtag  DW_TAG_member
   10161                      .dwattr $C$DW$1247, DW_AT_type(*$C$DW$T$34)
   10162                      .dwattr $C$DW$1247, DW_AT_name("SELFCLRTRREM")
   10163                      .dwattr $C$DW$1247, DW_AT_TI_symbol_name("_SELFCLRTRREM")
   10164                      .dwattr $C$DW$1247, DW_AT_bit_offset(0x0a), DW_AT_bit_size(0x01)
   10165                      .dwattr $C$DW$1247, DW_AT_data_member_location[DW_OP_plus_uconst 0x0]
   10166                      .dwattr $C$DW$1247, DW_AT_accessibility(DW_ACCESS_public)
   10167              $C$DW$1248      .dwtag  DW_TAG_member
   10168                      .dwattr $C$DW$1248, DW_AT_type(*$C$DW$T$34)
   10169                      .dwattr $C$DW$1248, DW_AT_name("OSHTSYNCMODE")
   10170                      .dwattr $C$DW$1248, DW_AT_TI_symbol_name("_OSHTSYNCMODE")
   10171                      .dwattr $C$DW$1248, DW_AT_bit_offset(0x09), DW_AT_bit_size(0x01)
   10172                      .dwattr $C$DW$1248, DW_AT_data_member_location[DW_OP_plus_uconst 0x0]
   10173                      .dwattr $C$DW$1248, DW_AT_accessibility(DW_ACCESS_public)
   10174              $C$DW$1249      .dwtag  DW_TAG_member
   10175                      .dwattr $C$DW$1249, DW_AT_type(*$C$DW$T$34)
   10176                      .dwattr $C$DW$1249, DW_AT_name("OSHTSYNC")
   10177                      .dwattr $C$DW$1249, DW_AT_TI_symbol_name("_OSHTSYNC")
   10178                      .dwattr $C$DW$1249, DW_AT_bit_offset(0x08), DW_AT_bit_size(0x01)
   10179                      .dwattr $C$DW$1249, DW_AT_data_member_location[DW_OP_plus_uconst 0x0]
   10180                      .dwattr $C$DW$1249, DW_AT_accessibility(DW_ACCESS_public)
   10181              $C$DW$1250      .dwtag  DW_TAG_member
   10182                      .dwattr $C$DW$1250, DW_AT_type(*$C$DW$T$34)
   10183                      .dwattr $C$DW$1250, DW_AT_name("rsvd2")
   10184                      .dwattr $C$DW$1250, DW_AT_TI_symbol_name("_rsvd2")
   10185                      .dwattr $C$DW$1250, DW_AT_bit_offset(0x04), DW_AT_bit_size(0x04)
   10186                      .dwattr $C$DW$1250, DW_AT_data_member_location[DW_OP_plus_uconst 0x0]
   10187                      .dwattr $C$DW$1250, DW_AT_accessibility(DW_ACCESS_public)
   10188              $C$DW$1251      .dwtag  DW_TAG_member
   10189                      .dwattr $C$DW$1251, DW_AT_type(*$C$DW$T$34)
   10190                      .dwattr $C$DW$1251, DW_AT_name("SYNCOSELX")
   10191                      .dwattr $C$DW$1251, DW_AT_TI_symbol_name("_SYNCOSELX")
   10192                      .dwattr $C$DW$1251, DW_AT_bit_offset(0x02), DW_AT_bit_size(0x02)
   10193                      .dwattr $C$DW$1251, DW_AT_data_member_location[DW_OP_plus_uconst 0x0]
   10194                      .dwattr $C$DW$1251, DW_AT_accessibility(DW_ACCESS_public)
   10195              $C$DW$1252      .dwtag  DW_TAG_member
   10196                      .dwattr $C$DW$1252, DW_AT_type(*$C$DW$T$34)
   10197                      .dwattr $C$DW$1252, DW_AT_name("PRDLDSYNC")
   10198                      .dwattr $C$DW$1252, DW_AT_TI_symbol_name("_PRDLDSYNC")
   10199                      .dwattr $C$DW$1252, DW_AT_bit_offset(0x00), DW_AT_bit_size(0x02)
   10200                      .dwattr $C$DW$1252, DW_AT_data_member_location[DW_OP_plus_uconst 0x0]
   10201                      .dwattr $C$DW$1252, DW_AT_accessibility(DW_ACCESS_public)
   10202                      .dwendtag $C$DW$T$244
   10203              
   10204              
   10205              $C$DW$T$245     .dwtag  DW_TAG_union_type
   10206                      .dwattr $C$DW$T$245, DW_AT_name("TBCTL2_REG")
   10207                      .dwattr $C$DW$T$245, DW_AT_byte_size(0x01)
   10208              $C$DW$1253      .dwtag  DW_TAG_member
   10209                      .dwattr $C$DW$1253, DW_AT_type(*$C$DW$T$34)
TMS320C2000 Assembler PC v6.4.2 Thu Dec 14 15:27:05 2017

Tools Copyright (c) 1996-2015 Texas Instruments Incorporated
fsm_main.asm                                                         PAGE  189

   10210                      .dwattr $C$DW$1253, DW_AT_name("all")
   10211                      .dwattr $C$DW$1253, DW_AT_TI_symbol_name("_all")
   10212                      .dwattr $C$DW$1253, DW_AT_data_member_location[DW_OP_plus_uconst 0x0]
   10213                      .dwattr $C$DW$1253, DW_AT_accessibility(DW_ACCESS_public)
   10214              $C$DW$1254      .dwtag  DW_TAG_member
   10215                      .dwattr $C$DW$1254, DW_AT_type(*$C$DW$T$244)
   10216                      .dwattr $C$DW$1254, DW_AT_name("bit")
   10217                      .dwattr $C$DW$1254, DW_AT_TI_symbol_name("_bit")
   10218                      .dwattr $C$DW$1254, DW_AT_data_member_location[DW_OP_plus_uconst 0x0]
   10219                      .dwattr $C$DW$1254, DW_AT_accessibility(DW_ACCESS_public)
   10220                      .dwendtag $C$DW$T$245
   10221              
   10222              
   10223              $C$DW$T$246     .dwtag  DW_TAG_structure_type
   10224                      .dwattr $C$DW$T$246, DW_AT_name("TBCTL_BITS")
   10225                      .dwattr $C$DW$T$246, DW_AT_byte_size(0x01)
   10226              $C$DW$1255      .dwtag  DW_TAG_member
   10227                      .dwattr $C$DW$1255, DW_AT_type(*$C$DW$T$34)
   10228                      .dwattr $C$DW$1255, DW_AT_name("CTRMODE")
   10229                      .dwattr $C$DW$1255, DW_AT_TI_symbol_name("_CTRMODE")
   10230                      .dwattr $C$DW$1255, DW_AT_bit_offset(0x0e), DW_AT_bit_size(0x02)
   10231                      .dwattr $C$DW$1255, DW_AT_data_member_location[DW_OP_plus_uconst 0x0]
   10232                      .dwattr $C$DW$1255, DW_AT_accessibility(DW_ACCESS_public)
   10233              $C$DW$1256      .dwtag  DW_TAG_member
   10234                      .dwattr $C$DW$1256, DW_AT_type(*$C$DW$T$34)
   10235                      .dwattr $C$DW$1256, DW_AT_name("PHSEN")
   10236                      .dwattr $C$DW$1256, DW_AT_TI_symbol_name("_PHSEN")
   10237                      .dwattr $C$DW$1256, DW_AT_bit_offset(0x0d), DW_AT_bit_size(0x01)
   10238                      .dwattr $C$DW$1256, DW_AT_data_member_location[DW_OP_plus_uconst 0x0]
   10239                      .dwattr $C$DW$1256, DW_AT_accessibility(DW_ACCESS_public)
   10240              $C$DW$1257      .dwtag  DW_TAG_member
   10241                      .dwattr $C$DW$1257, DW_AT_type(*$C$DW$T$34)
   10242                      .dwattr $C$DW$1257, DW_AT_name("PRDLD")
   10243                      .dwattr $C$DW$1257, DW_AT_TI_symbol_name("_PRDLD")
   10244                      .dwattr $C$DW$1257, DW_AT_bit_offset(0x0c), DW_AT_bit_size(0x01)
   10245                      .dwattr $C$DW$1257, DW_AT_data_member_location[DW_OP_plus_uconst 0x0]
   10246                      .dwattr $C$DW$1257, DW_AT_accessibility(DW_ACCESS_public)
   10247              $C$DW$1258      .dwtag  DW_TAG_member
   10248                      .dwattr $C$DW$1258, DW_AT_type(*$C$DW$T$34)
   10249                      .dwattr $C$DW$1258, DW_AT_name("SYNCOSEL")
   10250                      .dwattr $C$DW$1258, DW_AT_TI_symbol_name("_SYNCOSEL")
   10251                      .dwattr $C$DW$1258, DW_AT_bit_offset(0x0a), DW_AT_bit_size(0x02)
   10252                      .dwattr $C$DW$1258, DW_AT_data_member_location[DW_OP_plus_uconst 0x0]
   10253                      .dwattr $C$DW$1258, DW_AT_accessibility(DW_ACCESS_public)
   10254              $C$DW$1259      .dwtag  DW_TAG_member
   10255                      .dwattr $C$DW$1259, DW_AT_type(*$C$DW$T$34)
   10256                      .dwattr $C$DW$1259, DW_AT_name("SWFSYNC")
   10257                      .dwattr $C$DW$1259, DW_AT_TI_symbol_name("_SWFSYNC")
   10258                      .dwattr $C$DW$1259, DW_AT_bit_offset(0x09), DW_AT_bit_size(0x01)
   10259                      .dwattr $C$DW$1259, DW_AT_data_member_location[DW_OP_plus_uconst 0x0]
   10260                      .dwattr $C$DW$1259, DW_AT_accessibility(DW_ACCESS_public)
   10261              $C$DW$1260      .dwtag  DW_TAG_member
   10262                      .dwattr $C$DW$1260, DW_AT_type(*$C$DW$T$34)
   10263                      .dwattr $C$DW$1260, DW_AT_name("HSPCLKDIV")
   10264                      .dwattr $C$DW$1260, DW_AT_TI_symbol_name("_HSPCLKDIV")
TMS320C2000 Assembler PC v6.4.2 Thu Dec 14 15:27:05 2017

Tools Copyright (c) 1996-2015 Texas Instruments Incorporated
fsm_main.asm                                                         PAGE  190

   10265                      .dwattr $C$DW$1260, DW_AT_bit_offset(0x06), DW_AT_bit_size(0x03)
   10266                      .dwattr $C$DW$1260, DW_AT_data_member_location[DW_OP_plus_uconst 0x0]
   10267                      .dwattr $C$DW$1260, DW_AT_accessibility(DW_ACCESS_public)
   10268              $C$DW$1261      .dwtag  DW_TAG_member
   10269                      .dwattr $C$DW$1261, DW_AT_type(*$C$DW$T$34)
   10270                      .dwattr $C$DW$1261, DW_AT_name("CLKDIV")
   10271                      .dwattr $C$DW$1261, DW_AT_TI_symbol_name("_CLKDIV")
   10272                      .dwattr $C$DW$1261, DW_AT_bit_offset(0x03), DW_AT_bit_size(0x03)
   10273                      .dwattr $C$DW$1261, DW_AT_data_member_location[DW_OP_plus_uconst 0x0]
   10274                      .dwattr $C$DW$1261, DW_AT_accessibility(DW_ACCESS_public)
   10275              $C$DW$1262      .dwtag  DW_TAG_member
   10276                      .dwattr $C$DW$1262, DW_AT_type(*$C$DW$T$34)
   10277                      .dwattr $C$DW$1262, DW_AT_name("PHSDIR")
   10278                      .dwattr $C$DW$1262, DW_AT_TI_symbol_name("_PHSDIR")
   10279                      .dwattr $C$DW$1262, DW_AT_bit_offset(0x02), DW_AT_bit_size(0x01)
   10280                      .dwattr $C$DW$1262, DW_AT_data_member_location[DW_OP_plus_uconst 0x0]
   10281                      .dwattr $C$DW$1262, DW_AT_accessibility(DW_ACCESS_public)
   10282              $C$DW$1263      .dwtag  DW_TAG_member
   10283                      .dwattr $C$DW$1263, DW_AT_type(*$C$DW$T$34)
   10284                      .dwattr $C$DW$1263, DW_AT_name("FREE_SOFT")
   10285                      .dwattr $C$DW$1263, DW_AT_TI_symbol_name("_FREE_SOFT")
   10286                      .dwattr $C$DW$1263, DW_AT_bit_offset(0x00), DW_AT_bit_size(0x02)
   10287                      .dwattr $C$DW$1263, DW_AT_data_member_location[DW_OP_plus_uconst 0x0]
   10288                      .dwattr $C$DW$1263, DW_AT_accessibility(DW_ACCESS_public)
   10289                      .dwendtag $C$DW$T$246
   10290              
   10291              
   10292              $C$DW$T$247     .dwtag  DW_TAG_union_type
   10293                      .dwattr $C$DW$T$247, DW_AT_name("TBCTL_REG")
   10294                      .dwattr $C$DW$T$247, DW_AT_byte_size(0x01)
   10295              $C$DW$1264      .dwtag  DW_TAG_member
   10296                      .dwattr $C$DW$1264, DW_AT_type(*$C$DW$T$34)
   10297                      .dwattr $C$DW$1264, DW_AT_name("all")
   10298                      .dwattr $C$DW$1264, DW_AT_TI_symbol_name("_all")
   10299                      .dwattr $C$DW$1264, DW_AT_data_member_location[DW_OP_plus_uconst 0x0]
   10300                      .dwattr $C$DW$1264, DW_AT_accessibility(DW_ACCESS_public)
   10301              $C$DW$1265      .dwtag  DW_TAG_member
   10302                      .dwattr $C$DW$1265, DW_AT_type(*$C$DW$T$246)
   10303                      .dwattr $C$DW$1265, DW_AT_name("bit")
   10304                      .dwattr $C$DW$1265, DW_AT_TI_symbol_name("_bit")
   10305                      .dwattr $C$DW$1265, DW_AT_data_member_location[DW_OP_plus_uconst 0x0]
   10306                      .dwattr $C$DW$1265, DW_AT_accessibility(DW_ACCESS_public)
   10307                      .dwendtag $C$DW$T$247
   10308              
   10309              
   10310              $C$DW$T$248     .dwtag  DW_TAG_structure_type
   10311                      .dwattr $C$DW$T$248, DW_AT_name("TBPHS_BITS")
   10312                      .dwattr $C$DW$T$248, DW_AT_byte_size(0x02)
   10313              $C$DW$1266      .dwtag  DW_TAG_member
   10314                      .dwattr $C$DW$1266, DW_AT_type(*$C$DW$T$34)
   10315                      .dwattr $C$DW$1266, DW_AT_name("TBPHSHR")
   10316                      .dwattr $C$DW$1266, DW_AT_TI_symbol_name("_TBPHSHR")
   10317                      .dwattr $C$DW$1266, DW_AT_bit_offset(0x00), DW_AT_bit_size(0x10)
   10318                      .dwattr $C$DW$1266, DW_AT_data_member_location[DW_OP_plus_uconst 0x0]
   10319                      .dwattr $C$DW$1266, DW_AT_accessibility(DW_ACCESS_public)
TMS320C2000 Assembler PC v6.4.2 Thu Dec 14 15:27:05 2017

Tools Copyright (c) 1996-2015 Texas Instruments Incorporated
fsm_main.asm                                                         PAGE  191

   10320              $C$DW$1267      .dwtag  DW_TAG_member
   10321                      .dwattr $C$DW$1267, DW_AT_type(*$C$DW$T$34)
   10322                      .dwattr $C$DW$1267, DW_AT_name("TBPHS")
   10323                      .dwattr $C$DW$1267, DW_AT_TI_symbol_name("_TBPHS")
   10324                      .dwattr $C$DW$1267, DW_AT_bit_offset(0x00), DW_AT_bit_size(0x10)
   10325                      .dwattr $C$DW$1267, DW_AT_data_member_location[DW_OP_plus_uconst 0x1]
   10326                      .dwattr $C$DW$1267, DW_AT_accessibility(DW_ACCESS_public)
   10327                      .dwendtag $C$DW$T$248
   10328              
   10329              
   10330              $C$DW$T$249     .dwtag  DW_TAG_union_type
   10331                      .dwattr $C$DW$T$249, DW_AT_name("TBPHS_REG")
   10332                      .dwattr $C$DW$T$249, DW_AT_byte_size(0x02)
   10333              $C$DW$1268      .dwtag  DW_TAG_member
   10334                      .dwattr $C$DW$1268, DW_AT_type(*$C$DW$T$20)
   10335                      .dwattr $C$DW$1268, DW_AT_name("all")
   10336                      .dwattr $C$DW$1268, DW_AT_TI_symbol_name("_all")
   10337                      .dwattr $C$DW$1268, DW_AT_data_member_location[DW_OP_plus_uconst 0x0]
   10338                      .dwattr $C$DW$1268, DW_AT_accessibility(DW_ACCESS_public)
   10339              $C$DW$1269      .dwtag  DW_TAG_member
   10340                      .dwattr $C$DW$1269, DW_AT_type(*$C$DW$T$248)
   10341                      .dwattr $C$DW$1269, DW_AT_name("bit")
   10342                      .dwattr $C$DW$1269, DW_AT_TI_symbol_name("_bit")
   10343                      .dwattr $C$DW$1269, DW_AT_data_member_location[DW_OP_plus_uconst 0x0]
   10344                      .dwattr $C$DW$1269, DW_AT_accessibility(DW_ACCESS_public)
   10345                      .dwendtag $C$DW$T$249
   10346              
   10347              
   10348              $C$DW$T$250     .dwtag  DW_TAG_structure_type
   10349                      .dwattr $C$DW$T$250, DW_AT_name("TBSTS_BITS")
   10350                      .dwattr $C$DW$T$250, DW_AT_byte_size(0x01)
   10351              $C$DW$1270      .dwtag  DW_TAG_member
   10352                      .dwattr $C$DW$1270, DW_AT_type(*$C$DW$T$34)
   10353                      .dwattr $C$DW$1270, DW_AT_name("CTRDIR")
   10354                      .dwattr $C$DW$1270, DW_AT_TI_symbol_name("_CTRDIR")
   10355                      .dwattr $C$DW$1270, DW_AT_bit_offset(0x0f), DW_AT_bit_size(0x01)
   10356                      .dwattr $C$DW$1270, DW_AT_data_member_location[DW_OP_plus_uconst 0x0]
   10357                      .dwattr $C$DW$1270, DW_AT_accessibility(DW_ACCESS_public)
   10358              $C$DW$1271      .dwtag  DW_TAG_member
   10359                      .dwattr $C$DW$1271, DW_AT_type(*$C$DW$T$34)
   10360                      .dwattr $C$DW$1271, DW_AT_name("SYNCI")
   10361                      .dwattr $C$DW$1271, DW_AT_TI_symbol_name("_SYNCI")
   10362                      .dwattr $C$DW$1271, DW_AT_bit_offset(0x0e), DW_AT_bit_size(0x01)
   10363                      .dwattr $C$DW$1271, DW_AT_data_member_location[DW_OP_plus_uconst 0x0]
   10364                      .dwattr $C$DW$1271, DW_AT_accessibility(DW_ACCESS_public)
   10365              $C$DW$1272      .dwtag  DW_TAG_member
   10366                      .dwattr $C$DW$1272, DW_AT_type(*$C$DW$T$34)
   10367                      .dwattr $C$DW$1272, DW_AT_name("CTRMAX")
   10368                      .dwattr $C$DW$1272, DW_AT_TI_symbol_name("_CTRMAX")
   10369                      .dwattr $C$DW$1272, DW_AT_bit_offset(0x0d), DW_AT_bit_size(0x01)
   10370                      .dwattr $C$DW$1272, DW_AT_data_member_location[DW_OP_plus_uconst 0x0]
   10371                      .dwattr $C$DW$1272, DW_AT_accessibility(DW_ACCESS_public)
   10372              $C$DW$1273      .dwtag  DW_TAG_member
   10373                      .dwattr $C$DW$1273, DW_AT_type(*$C$DW$T$34)
   10374                      .dwattr $C$DW$1273, DW_AT_name("rsvd1")
TMS320C2000 Assembler PC v6.4.2 Thu Dec 14 15:27:05 2017

Tools Copyright (c) 1996-2015 Texas Instruments Incorporated
fsm_main.asm                                                         PAGE  192

   10375                      .dwattr $C$DW$1273, DW_AT_TI_symbol_name("_rsvd1")
   10376                      .dwattr $C$DW$1273, DW_AT_bit_offset(0x00), DW_AT_bit_size(0x0d)
   10377                      .dwattr $C$DW$1273, DW_AT_data_member_location[DW_OP_plus_uconst 0x0]
   10378                      .dwattr $C$DW$1273, DW_AT_accessibility(DW_ACCESS_public)
   10379                      .dwendtag $C$DW$T$250
   10380              
   10381              
   10382              $C$DW$T$251     .dwtag  DW_TAG_union_type
   10383                      .dwattr $C$DW$T$251, DW_AT_name("TBSTS_REG")
   10384                      .dwattr $C$DW$T$251, DW_AT_byte_size(0x01)
   10385              $C$DW$1274      .dwtag  DW_TAG_member
   10386                      .dwattr $C$DW$1274, DW_AT_type(*$C$DW$T$34)
   10387                      .dwattr $C$DW$1274, DW_AT_name("all")
   10388                      .dwattr $C$DW$1274, DW_AT_TI_symbol_name("_all")
   10389                      .dwattr $C$DW$1274, DW_AT_data_member_location[DW_OP_plus_uconst 0x0]
   10390                      .dwattr $C$DW$1274, DW_AT_accessibility(DW_ACCESS_public)
   10391              $C$DW$1275      .dwtag  DW_TAG_member
   10392                      .dwattr $C$DW$1275, DW_AT_type(*$C$DW$T$250)
   10393                      .dwattr $C$DW$1275, DW_AT_name("bit")
   10394                      .dwattr $C$DW$1275, DW_AT_TI_symbol_name("_bit")
   10395                      .dwattr $C$DW$1275, DW_AT_data_member_location[DW_OP_plus_uconst 0x0]
   10396                      .dwattr $C$DW$1275, DW_AT_accessibility(DW_ACCESS_public)
   10397                      .dwendtag $C$DW$T$251
   10398              
   10399              
   10400              $C$DW$T$252     .dwtag  DW_TAG_structure_type
   10401                      .dwattr $C$DW$T$252, DW_AT_name("TZCBCCLR_BITS")
   10402                      .dwattr $C$DW$T$252, DW_AT_byte_size(0x01)
   10403              $C$DW$1276      .dwtag  DW_TAG_member
   10404                      .dwattr $C$DW$1276, DW_AT_type(*$C$DW$T$34)
   10405                      .dwattr $C$DW$1276, DW_AT_name("CBC1")
   10406                      .dwattr $C$DW$1276, DW_AT_TI_symbol_name("_CBC1")
   10407                      .dwattr $C$DW$1276, DW_AT_bit_offset(0x0f), DW_AT_bit_size(0x01)
   10408                      .dwattr $C$DW$1276, DW_AT_data_member_location[DW_OP_plus_uconst 0x0]
   10409                      .dwattr $C$DW$1276, DW_AT_accessibility(DW_ACCESS_public)
   10410              $C$DW$1277      .dwtag  DW_TAG_member
   10411                      .dwattr $C$DW$1277, DW_AT_type(*$C$DW$T$34)
   10412                      .dwattr $C$DW$1277, DW_AT_name("CBC2")
   10413                      .dwattr $C$DW$1277, DW_AT_TI_symbol_name("_CBC2")
   10414                      .dwattr $C$DW$1277, DW_AT_bit_offset(0x0e), DW_AT_bit_size(0x01)
   10415                      .dwattr $C$DW$1277, DW_AT_data_member_location[DW_OP_plus_uconst 0x0]
   10416                      .dwattr $C$DW$1277, DW_AT_accessibility(DW_ACCESS_public)
   10417              $C$DW$1278      .dwtag  DW_TAG_member
   10418                      .dwattr $C$DW$1278, DW_AT_type(*$C$DW$T$34)
   10419                      .dwattr $C$DW$1278, DW_AT_name("CBC3")
   10420                      .dwattr $C$DW$1278, DW_AT_TI_symbol_name("_CBC3")
   10421                      .dwattr $C$DW$1278, DW_AT_bit_offset(0x0d), DW_AT_bit_size(0x01)
   10422                      .dwattr $C$DW$1278, DW_AT_data_member_location[DW_OP_plus_uconst 0x0]
   10423                      .dwattr $C$DW$1278, DW_AT_accessibility(DW_ACCESS_public)
   10424              $C$DW$1279      .dwtag  DW_TAG_member
   10425                      .dwattr $C$DW$1279, DW_AT_type(*$C$DW$T$34)
   10426                      .dwattr $C$DW$1279, DW_AT_name("CBC4")
   10427                      .dwattr $C$DW$1279, DW_AT_TI_symbol_name("_CBC4")
   10428                      .dwattr $C$DW$1279, DW_AT_bit_offset(0x0c), DW_AT_bit_size(0x01)
   10429                      .dwattr $C$DW$1279, DW_AT_data_member_location[DW_OP_plus_uconst 0x0]
TMS320C2000 Assembler PC v6.4.2 Thu Dec 14 15:27:05 2017

Tools Copyright (c) 1996-2015 Texas Instruments Incorporated
fsm_main.asm                                                         PAGE  193

   10430                      .dwattr $C$DW$1279, DW_AT_accessibility(DW_ACCESS_public)
   10431              $C$DW$1280      .dwtag  DW_TAG_member
   10432                      .dwattr $C$DW$1280, DW_AT_type(*$C$DW$T$34)
   10433                      .dwattr $C$DW$1280, DW_AT_name("CBC5")
   10434                      .dwattr $C$DW$1280, DW_AT_TI_symbol_name("_CBC5")
   10435                      .dwattr $C$DW$1280, DW_AT_bit_offset(0x0b), DW_AT_bit_size(0x01)
   10436                      .dwattr $C$DW$1280, DW_AT_data_member_location[DW_OP_plus_uconst 0x0]
   10437                      .dwattr $C$DW$1280, DW_AT_accessibility(DW_ACCESS_public)
   10438              $C$DW$1281      .dwtag  DW_TAG_member
   10439                      .dwattr $C$DW$1281, DW_AT_type(*$C$DW$T$34)
   10440                      .dwattr $C$DW$1281, DW_AT_name("CBC6")
   10441                      .dwattr $C$DW$1281, DW_AT_TI_symbol_name("_CBC6")
   10442                      .dwattr $C$DW$1281, DW_AT_bit_offset(0x0a), DW_AT_bit_size(0x01)
   10443                      .dwattr $C$DW$1281, DW_AT_data_member_location[DW_OP_plus_uconst 0x0]
   10444                      .dwattr $C$DW$1281, DW_AT_accessibility(DW_ACCESS_public)
   10445              $C$DW$1282      .dwtag  DW_TAG_member
   10446                      .dwattr $C$DW$1282, DW_AT_type(*$C$DW$T$34)
   10447                      .dwattr $C$DW$1282, DW_AT_name("DCAEVT2")
   10448                      .dwattr $C$DW$1282, DW_AT_TI_symbol_name("_DCAEVT2")
   10449                      .dwattr $C$DW$1282, DW_AT_bit_offset(0x09), DW_AT_bit_size(0x01)
   10450                      .dwattr $C$DW$1282, DW_AT_data_member_location[DW_OP_plus_uconst 0x0]
   10451                      .dwattr $C$DW$1282, DW_AT_accessibility(DW_ACCESS_public)
   10452              $C$DW$1283      .dwtag  DW_TAG_member
   10453                      .dwattr $C$DW$1283, DW_AT_type(*$C$DW$T$34)
   10454                      .dwattr $C$DW$1283, DW_AT_name("DCBEVT2")
   10455                      .dwattr $C$DW$1283, DW_AT_TI_symbol_name("_DCBEVT2")
   10456                      .dwattr $C$DW$1283, DW_AT_bit_offset(0x08), DW_AT_bit_size(0x01)
   10457                      .dwattr $C$DW$1283, DW_AT_data_member_location[DW_OP_plus_uconst 0x0]
   10458                      .dwattr $C$DW$1283, DW_AT_accessibility(DW_ACCESS_public)
   10459              $C$DW$1284      .dwtag  DW_TAG_member
   10460                      .dwattr $C$DW$1284, DW_AT_type(*$C$DW$T$34)
   10461                      .dwattr $C$DW$1284, DW_AT_name("rsvd1")
   10462                      .dwattr $C$DW$1284, DW_AT_TI_symbol_name("_rsvd1")
   10463                      .dwattr $C$DW$1284, DW_AT_bit_offset(0x00), DW_AT_bit_size(0x08)
   10464                      .dwattr $C$DW$1284, DW_AT_data_member_location[DW_OP_plus_uconst 0x0]
   10465                      .dwattr $C$DW$1284, DW_AT_accessibility(DW_ACCESS_public)
   10466                      .dwendtag $C$DW$T$252
   10467              
   10468              
   10469              $C$DW$T$253     .dwtag  DW_TAG_union_type
   10470                      .dwattr $C$DW$T$253, DW_AT_name("TZCBCCLR_REG")
   10471                      .dwattr $C$DW$T$253, DW_AT_byte_size(0x01)
   10472              $C$DW$1285      .dwtag  DW_TAG_member
   10473                      .dwattr $C$DW$1285, DW_AT_type(*$C$DW$T$34)
   10474                      .dwattr $C$DW$1285, DW_AT_name("all")
   10475                      .dwattr $C$DW$1285, DW_AT_TI_symbol_name("_all")
   10476                      .dwattr $C$DW$1285, DW_AT_data_member_location[DW_OP_plus_uconst 0x0]
   10477                      .dwattr $C$DW$1285, DW_AT_accessibility(DW_ACCESS_public)
   10478              $C$DW$1286      .dwtag  DW_TAG_member
   10479                      .dwattr $C$DW$1286, DW_AT_type(*$C$DW$T$252)
   10480                      .dwattr $C$DW$1286, DW_AT_name("bit")
   10481                      .dwattr $C$DW$1286, DW_AT_TI_symbol_name("_bit")
   10482                      .dwattr $C$DW$1286, DW_AT_data_member_location[DW_OP_plus_uconst 0x0]
   10483                      .dwattr $C$DW$1286, DW_AT_accessibility(DW_ACCESS_public)
   10484                      .dwendtag $C$DW$T$253
TMS320C2000 Assembler PC v6.4.2 Thu Dec 14 15:27:05 2017

Tools Copyright (c) 1996-2015 Texas Instruments Incorporated
fsm_main.asm                                                         PAGE  194

   10485              
   10486              
   10487              $C$DW$T$254     .dwtag  DW_TAG_structure_type
   10488                      .dwattr $C$DW$T$254, DW_AT_name("TZCBCFLG_BITS")
   10489                      .dwattr $C$DW$T$254, DW_AT_byte_size(0x01)
   10490              $C$DW$1287      .dwtag  DW_TAG_member
   10491                      .dwattr $C$DW$1287, DW_AT_type(*$C$DW$T$34)
   10492                      .dwattr $C$DW$1287, DW_AT_name("CBC1")
   10493                      .dwattr $C$DW$1287, DW_AT_TI_symbol_name("_CBC1")
   10494                      .dwattr $C$DW$1287, DW_AT_bit_offset(0x0f), DW_AT_bit_size(0x01)
   10495                      .dwattr $C$DW$1287, DW_AT_data_member_location[DW_OP_plus_uconst 0x0]
   10496                      .dwattr $C$DW$1287, DW_AT_accessibility(DW_ACCESS_public)
   10497              $C$DW$1288      .dwtag  DW_TAG_member
   10498                      .dwattr $C$DW$1288, DW_AT_type(*$C$DW$T$34)
   10499                      .dwattr $C$DW$1288, DW_AT_name("CBC2")
   10500                      .dwattr $C$DW$1288, DW_AT_TI_symbol_name("_CBC2")
   10501                      .dwattr $C$DW$1288, DW_AT_bit_offset(0x0e), DW_AT_bit_size(0x01)
   10502                      .dwattr $C$DW$1288, DW_AT_data_member_location[DW_OP_plus_uconst 0x0]
   10503                      .dwattr $C$DW$1288, DW_AT_accessibility(DW_ACCESS_public)
   10504              $C$DW$1289      .dwtag  DW_TAG_member
   10505                      .dwattr $C$DW$1289, DW_AT_type(*$C$DW$T$34)
   10506                      .dwattr $C$DW$1289, DW_AT_name("CBC3")
   10507                      .dwattr $C$DW$1289, DW_AT_TI_symbol_name("_CBC3")
   10508                      .dwattr $C$DW$1289, DW_AT_bit_offset(0x0d), DW_AT_bit_size(0x01)
   10509                      .dwattr $C$DW$1289, DW_AT_data_member_location[DW_OP_plus_uconst 0x0]
   10510                      .dwattr $C$DW$1289, DW_AT_accessibility(DW_ACCESS_public)
   10511              $C$DW$1290      .dwtag  DW_TAG_member
   10512                      .dwattr $C$DW$1290, DW_AT_type(*$C$DW$T$34)
   10513                      .dwattr $C$DW$1290, DW_AT_name("CBC4")
   10514                      .dwattr $C$DW$1290, DW_AT_TI_symbol_name("_CBC4")
   10515                      .dwattr $C$DW$1290, DW_AT_bit_offset(0x0c), DW_AT_bit_size(0x01)
   10516                      .dwattr $C$DW$1290, DW_AT_data_member_location[DW_OP_plus_uconst 0x0]
   10517                      .dwattr $C$DW$1290, DW_AT_accessibility(DW_ACCESS_public)
   10518              $C$DW$1291      .dwtag  DW_TAG_member
   10519                      .dwattr $C$DW$1291, DW_AT_type(*$C$DW$T$34)
   10520                      .dwattr $C$DW$1291, DW_AT_name("CBC5")
   10521                      .dwattr $C$DW$1291, DW_AT_TI_symbol_name("_CBC5")
   10522                      .dwattr $C$DW$1291, DW_AT_bit_offset(0x0b), DW_AT_bit_size(0x01)
   10523                      .dwattr $C$DW$1291, DW_AT_data_member_location[DW_OP_plus_uconst 0x0]
   10524                      .dwattr $C$DW$1291, DW_AT_accessibility(DW_ACCESS_public)
   10525              $C$DW$1292      .dwtag  DW_TAG_member
   10526                      .dwattr $C$DW$1292, DW_AT_type(*$C$DW$T$34)
   10527                      .dwattr $C$DW$1292, DW_AT_name("CBC6")
   10528                      .dwattr $C$DW$1292, DW_AT_TI_symbol_name("_CBC6")
   10529                      .dwattr $C$DW$1292, DW_AT_bit_offset(0x0a), DW_AT_bit_size(0x01)
   10530                      .dwattr $C$DW$1292, DW_AT_data_member_location[DW_OP_plus_uconst 0x0]
   10531                      .dwattr $C$DW$1292, DW_AT_accessibility(DW_ACCESS_public)
   10532              $C$DW$1293      .dwtag  DW_TAG_member
   10533                      .dwattr $C$DW$1293, DW_AT_type(*$C$DW$T$34)
   10534                      .dwattr $C$DW$1293, DW_AT_name("DCAEVT2")
   10535                      .dwattr $C$DW$1293, DW_AT_TI_symbol_name("_DCAEVT2")
   10536                      .dwattr $C$DW$1293, DW_AT_bit_offset(0x09), DW_AT_bit_size(0x01)
   10537                      .dwattr $C$DW$1293, DW_AT_data_member_location[DW_OP_plus_uconst 0x0]
   10538                      .dwattr $C$DW$1293, DW_AT_accessibility(DW_ACCESS_public)
   10539              $C$DW$1294      .dwtag  DW_TAG_member
TMS320C2000 Assembler PC v6.4.2 Thu Dec 14 15:27:05 2017

Tools Copyright (c) 1996-2015 Texas Instruments Incorporated
fsm_main.asm                                                         PAGE  195

   10540                      .dwattr $C$DW$1294, DW_AT_type(*$C$DW$T$34)
   10541                      .dwattr $C$DW$1294, DW_AT_name("DCBEVT2")
   10542                      .dwattr $C$DW$1294, DW_AT_TI_symbol_name("_DCBEVT2")
   10543                      .dwattr $C$DW$1294, DW_AT_bit_offset(0x08), DW_AT_bit_size(0x01)
   10544                      .dwattr $C$DW$1294, DW_AT_data_member_location[DW_OP_plus_uconst 0x0]
   10545                      .dwattr $C$DW$1294, DW_AT_accessibility(DW_ACCESS_public)
   10546              $C$DW$1295      .dwtag  DW_TAG_member
   10547                      .dwattr $C$DW$1295, DW_AT_type(*$C$DW$T$34)
   10548                      .dwattr $C$DW$1295, DW_AT_name("rsvd1")
   10549                      .dwattr $C$DW$1295, DW_AT_TI_symbol_name("_rsvd1")
   10550                      .dwattr $C$DW$1295, DW_AT_bit_offset(0x00), DW_AT_bit_size(0x08)
   10551                      .dwattr $C$DW$1295, DW_AT_data_member_location[DW_OP_plus_uconst 0x0]
   10552                      .dwattr $C$DW$1295, DW_AT_accessibility(DW_ACCESS_public)
   10553                      .dwendtag $C$DW$T$254
   10554              
   10555              
   10556              $C$DW$T$255     .dwtag  DW_TAG_union_type
   10557                      .dwattr $C$DW$T$255, DW_AT_name("TZCBCFLG_REG")
   10558                      .dwattr $C$DW$T$255, DW_AT_byte_size(0x01)
   10559              $C$DW$1296      .dwtag  DW_TAG_member
   10560                      .dwattr $C$DW$1296, DW_AT_type(*$C$DW$T$34)
   10561                      .dwattr $C$DW$1296, DW_AT_name("all")
   10562                      .dwattr $C$DW$1296, DW_AT_TI_symbol_name("_all")
   10563                      .dwattr $C$DW$1296, DW_AT_data_member_location[DW_OP_plus_uconst 0x0]
   10564                      .dwattr $C$DW$1296, DW_AT_accessibility(DW_ACCESS_public)
   10565              $C$DW$1297      .dwtag  DW_TAG_member
   10566                      .dwattr $C$DW$1297, DW_AT_type(*$C$DW$T$254)
   10567                      .dwattr $C$DW$1297, DW_AT_name("bit")
   10568                      .dwattr $C$DW$1297, DW_AT_TI_symbol_name("_bit")
   10569                      .dwattr $C$DW$1297, DW_AT_data_member_location[DW_OP_plus_uconst 0x0]
   10570                      .dwattr $C$DW$1297, DW_AT_accessibility(DW_ACCESS_public)
   10571                      .dwendtag $C$DW$T$255
   10572              
   10573              
   10574              $C$DW$T$256     .dwtag  DW_TAG_structure_type
   10575                      .dwattr $C$DW$T$256, DW_AT_name("TZCLR_BITS")
   10576                      .dwattr $C$DW$T$256, DW_AT_byte_size(0x01)
   10577              $C$DW$1298      .dwtag  DW_TAG_member
   10578                      .dwattr $C$DW$1298, DW_AT_type(*$C$DW$T$34)
   10579                      .dwattr $C$DW$1298, DW_AT_name("INT")
   10580                      .dwattr $C$DW$1298, DW_AT_TI_symbol_name("_INT")
   10581                      .dwattr $C$DW$1298, DW_AT_bit_offset(0x0f), DW_AT_bit_size(0x01)
   10582                      .dwattr $C$DW$1298, DW_AT_data_member_location[DW_OP_plus_uconst 0x0]
   10583                      .dwattr $C$DW$1298, DW_AT_accessibility(DW_ACCESS_public)
   10584              $C$DW$1299      .dwtag  DW_TAG_member
   10585                      .dwattr $C$DW$1299, DW_AT_type(*$C$DW$T$34)
   10586                      .dwattr $C$DW$1299, DW_AT_name("CBC")
   10587                      .dwattr $C$DW$1299, DW_AT_TI_symbol_name("_CBC")
   10588                      .dwattr $C$DW$1299, DW_AT_bit_offset(0x0e), DW_AT_bit_size(0x01)
   10589                      .dwattr $C$DW$1299, DW_AT_data_member_location[DW_OP_plus_uconst 0x0]
   10590                      .dwattr $C$DW$1299, DW_AT_accessibility(DW_ACCESS_public)
   10591              $C$DW$1300      .dwtag  DW_TAG_member
   10592                      .dwattr $C$DW$1300, DW_AT_type(*$C$DW$T$34)
   10593                      .dwattr $C$DW$1300, DW_AT_name("OST")
   10594                      .dwattr $C$DW$1300, DW_AT_TI_symbol_name("_OST")
TMS320C2000 Assembler PC v6.4.2 Thu Dec 14 15:27:05 2017

Tools Copyright (c) 1996-2015 Texas Instruments Incorporated
fsm_main.asm                                                         PAGE  196

   10595                      .dwattr $C$DW$1300, DW_AT_bit_offset(0x0d), DW_AT_bit_size(0x01)
   10596                      .dwattr $C$DW$1300, DW_AT_data_member_location[DW_OP_plus_uconst 0x0]
   10597                      .dwattr $C$DW$1300, DW_AT_accessibility(DW_ACCESS_public)
   10598              $C$DW$1301      .dwtag  DW_TAG_member
   10599                      .dwattr $C$DW$1301, DW_AT_type(*$C$DW$T$34)
   10600                      .dwattr $C$DW$1301, DW_AT_name("DCAEVT1")
   10601                      .dwattr $C$DW$1301, DW_AT_TI_symbol_name("_DCAEVT1")
   10602                      .dwattr $C$DW$1301, DW_AT_bit_offset(0x0c), DW_AT_bit_size(0x01)
   10603                      .dwattr $C$DW$1301, DW_AT_data_member_location[DW_OP_plus_uconst 0x0]
   10604                      .dwattr $C$DW$1301, DW_AT_accessibility(DW_ACCESS_public)
   10605              $C$DW$1302      .dwtag  DW_TAG_member
   10606                      .dwattr $C$DW$1302, DW_AT_type(*$C$DW$T$34)
   10607                      .dwattr $C$DW$1302, DW_AT_name("DCAEVT2")
   10608                      .dwattr $C$DW$1302, DW_AT_TI_symbol_name("_DCAEVT2")
   10609                      .dwattr $C$DW$1302, DW_AT_bit_offset(0x0b), DW_AT_bit_size(0x01)
   10610                      .dwattr $C$DW$1302, DW_AT_data_member_location[DW_OP_plus_uconst 0x0]
   10611                      .dwattr $C$DW$1302, DW_AT_accessibility(DW_ACCESS_public)
   10612              $C$DW$1303      .dwtag  DW_TAG_member
   10613                      .dwattr $C$DW$1303, DW_AT_type(*$C$DW$T$34)
   10614                      .dwattr $C$DW$1303, DW_AT_name("DCBEVT1")
   10615                      .dwattr $C$DW$1303, DW_AT_TI_symbol_name("_DCBEVT1")
   10616                      .dwattr $C$DW$1303, DW_AT_bit_offset(0x0a), DW_AT_bit_size(0x01)
   10617                      .dwattr $C$DW$1303, DW_AT_data_member_location[DW_OP_plus_uconst 0x0]
   10618                      .dwattr $C$DW$1303, DW_AT_accessibility(DW_ACCESS_public)
   10619              $C$DW$1304      .dwtag  DW_TAG_member
   10620                      .dwattr $C$DW$1304, DW_AT_type(*$C$DW$T$34)
   10621                      .dwattr $C$DW$1304, DW_AT_name("DCBEVT2")
   10622                      .dwattr $C$DW$1304, DW_AT_TI_symbol_name("_DCBEVT2")
   10623                      .dwattr $C$DW$1304, DW_AT_bit_offset(0x09), DW_AT_bit_size(0x01)
   10624                      .dwattr $C$DW$1304, DW_AT_data_member_location[DW_OP_plus_uconst 0x0]
   10625                      .dwattr $C$DW$1304, DW_AT_accessibility(DW_ACCESS_public)
   10626              $C$DW$1305      .dwtag  DW_TAG_member
   10627                      .dwattr $C$DW$1305, DW_AT_type(*$C$DW$T$34)
   10628                      .dwattr $C$DW$1305, DW_AT_name("rsvd1")
   10629                      .dwattr $C$DW$1305, DW_AT_TI_symbol_name("_rsvd1")
   10630                      .dwattr $C$DW$1305, DW_AT_bit_offset(0x02), DW_AT_bit_size(0x07)
   10631                      .dwattr $C$DW$1305, DW_AT_data_member_location[DW_OP_plus_uconst 0x0]
   10632                      .dwattr $C$DW$1305, DW_AT_accessibility(DW_ACCESS_public)
   10633              $C$DW$1306      .dwtag  DW_TAG_member
   10634                      .dwattr $C$DW$1306, DW_AT_type(*$C$DW$T$34)
   10635                      .dwattr $C$DW$1306, DW_AT_name("CBCPULSE")
   10636                      .dwattr $C$DW$1306, DW_AT_TI_symbol_name("_CBCPULSE")
   10637                      .dwattr $C$DW$1306, DW_AT_bit_offset(0x00), DW_AT_bit_size(0x02)
   10638                      .dwattr $C$DW$1306, DW_AT_data_member_location[DW_OP_plus_uconst 0x0]
   10639                      .dwattr $C$DW$1306, DW_AT_accessibility(DW_ACCESS_public)
   10640                      .dwendtag $C$DW$T$256
   10641              
   10642              
   10643              $C$DW$T$257     .dwtag  DW_TAG_union_type
   10644                      .dwattr $C$DW$T$257, DW_AT_name("TZCLR_REG")
   10645                      .dwattr $C$DW$T$257, DW_AT_byte_size(0x01)
   10646              $C$DW$1307      .dwtag  DW_TAG_member
   10647                      .dwattr $C$DW$1307, DW_AT_type(*$C$DW$T$34)
   10648                      .dwattr $C$DW$1307, DW_AT_name("all")
   10649                      .dwattr $C$DW$1307, DW_AT_TI_symbol_name("_all")
TMS320C2000 Assembler PC v6.4.2 Thu Dec 14 15:27:05 2017

Tools Copyright (c) 1996-2015 Texas Instruments Incorporated
fsm_main.asm                                                         PAGE  197

   10650                      .dwattr $C$DW$1307, DW_AT_data_member_location[DW_OP_plus_uconst 0x0]
   10651                      .dwattr $C$DW$1307, DW_AT_accessibility(DW_ACCESS_public)
   10652              $C$DW$1308      .dwtag  DW_TAG_member
   10653                      .dwattr $C$DW$1308, DW_AT_type(*$C$DW$T$256)
   10654                      .dwattr $C$DW$1308, DW_AT_name("bit")
   10655                      .dwattr $C$DW$1308, DW_AT_TI_symbol_name("_bit")
   10656                      .dwattr $C$DW$1308, DW_AT_data_member_location[DW_OP_plus_uconst 0x0]
   10657                      .dwattr $C$DW$1308, DW_AT_accessibility(DW_ACCESS_public)
   10658                      .dwendtag $C$DW$T$257
   10659              
   10660              
   10661              $C$DW$T$258     .dwtag  DW_TAG_structure_type
   10662                      .dwattr $C$DW$T$258, DW_AT_name("TZCTL2_BITS")
   10663                      .dwattr $C$DW$T$258, DW_AT_byte_size(0x01)
   10664              $C$DW$1309      .dwtag  DW_TAG_member
   10665                      .dwattr $C$DW$1309, DW_AT_type(*$C$DW$T$34)
   10666                      .dwattr $C$DW$1309, DW_AT_name("TZAU")
   10667                      .dwattr $C$DW$1309, DW_AT_TI_symbol_name("_TZAU")
   10668                      .dwattr $C$DW$1309, DW_AT_bit_offset(0x0d), DW_AT_bit_size(0x03)
   10669                      .dwattr $C$DW$1309, DW_AT_data_member_location[DW_OP_plus_uconst 0x0]
   10670                      .dwattr $C$DW$1309, DW_AT_accessibility(DW_ACCESS_public)
   10671              $C$DW$1310      .dwtag  DW_TAG_member
   10672                      .dwattr $C$DW$1310, DW_AT_type(*$C$DW$T$34)
   10673                      .dwattr $C$DW$1310, DW_AT_name("TZAD")
   10674                      .dwattr $C$DW$1310, DW_AT_TI_symbol_name("_TZAD")
   10675                      .dwattr $C$DW$1310, DW_AT_bit_offset(0x0a), DW_AT_bit_size(0x03)
   10676                      .dwattr $C$DW$1310, DW_AT_data_member_location[DW_OP_plus_uconst 0x0]
   10677                      .dwattr $C$DW$1310, DW_AT_accessibility(DW_ACCESS_public)
   10678              $C$DW$1311      .dwtag  DW_TAG_member
   10679                      .dwattr $C$DW$1311, DW_AT_type(*$C$DW$T$34)
   10680                      .dwattr $C$DW$1311, DW_AT_name("TZBU")
   10681                      .dwattr $C$DW$1311, DW_AT_TI_symbol_name("_TZBU")
   10682                      .dwattr $C$DW$1311, DW_AT_bit_offset(0x07), DW_AT_bit_size(0x03)
   10683                      .dwattr $C$DW$1311, DW_AT_data_member_location[DW_OP_plus_uconst 0x0]
   10684                      .dwattr $C$DW$1311, DW_AT_accessibility(DW_ACCESS_public)
   10685              $C$DW$1312      .dwtag  DW_TAG_member
   10686                      .dwattr $C$DW$1312, DW_AT_type(*$C$DW$T$34)
   10687                      .dwattr $C$DW$1312, DW_AT_name("TZBD")
   10688                      .dwattr $C$DW$1312, DW_AT_TI_symbol_name("_TZBD")
   10689                      .dwattr $C$DW$1312, DW_AT_bit_offset(0x04), DW_AT_bit_size(0x03)
   10690                      .dwattr $C$DW$1312, DW_AT_data_member_location[DW_OP_plus_uconst 0x0]
   10691                      .dwattr $C$DW$1312, DW_AT_accessibility(DW_ACCESS_public)
   10692              $C$DW$1313      .dwtag  DW_TAG_member
   10693                      .dwattr $C$DW$1313, DW_AT_type(*$C$DW$T$34)
   10694                      .dwattr $C$DW$1313, DW_AT_name("rsvd1")
   10695                      .dwattr $C$DW$1313, DW_AT_TI_symbol_name("_rsvd1")
   10696                      .dwattr $C$DW$1313, DW_AT_bit_offset(0x01), DW_AT_bit_size(0x03)
   10697                      .dwattr $C$DW$1313, DW_AT_data_member_location[DW_OP_plus_uconst 0x0]
   10698                      .dwattr $C$DW$1313, DW_AT_accessibility(DW_ACCESS_public)
   10699              $C$DW$1314      .dwtag  DW_TAG_member
   10700                      .dwattr $C$DW$1314, DW_AT_type(*$C$DW$T$34)
   10701                      .dwattr $C$DW$1314, DW_AT_name("ETZE")
   10702                      .dwattr $C$DW$1314, DW_AT_TI_symbol_name("_ETZE")
   10703                      .dwattr $C$DW$1314, DW_AT_bit_offset(0x00), DW_AT_bit_size(0x01)
   10704                      .dwattr $C$DW$1314, DW_AT_data_member_location[DW_OP_plus_uconst 0x0]
TMS320C2000 Assembler PC v6.4.2 Thu Dec 14 15:27:05 2017

Tools Copyright (c) 1996-2015 Texas Instruments Incorporated
fsm_main.asm                                                         PAGE  198

   10705                      .dwattr $C$DW$1314, DW_AT_accessibility(DW_ACCESS_public)
   10706                      .dwendtag $C$DW$T$258
   10707              
   10708              
   10709              $C$DW$T$259     .dwtag  DW_TAG_union_type
   10710                      .dwattr $C$DW$T$259, DW_AT_name("TZCTL2_REG")
   10711                      .dwattr $C$DW$T$259, DW_AT_byte_size(0x01)
   10712              $C$DW$1315      .dwtag  DW_TAG_member
   10713                      .dwattr $C$DW$1315, DW_AT_type(*$C$DW$T$34)
   10714                      .dwattr $C$DW$1315, DW_AT_name("all")
   10715                      .dwattr $C$DW$1315, DW_AT_TI_symbol_name("_all")
   10716                      .dwattr $C$DW$1315, DW_AT_data_member_location[DW_OP_plus_uconst 0x0]
   10717                      .dwattr $C$DW$1315, DW_AT_accessibility(DW_ACCESS_public)
   10718              $C$DW$1316      .dwtag  DW_TAG_member
   10719                      .dwattr $C$DW$1316, DW_AT_type(*$C$DW$T$258)
   10720                      .dwattr $C$DW$1316, DW_AT_name("bit")
   10721                      .dwattr $C$DW$1316, DW_AT_TI_symbol_name("_bit")
   10722                      .dwattr $C$DW$1316, DW_AT_data_member_location[DW_OP_plus_uconst 0x0]
   10723                      .dwattr $C$DW$1316, DW_AT_accessibility(DW_ACCESS_public)
   10724                      .dwendtag $C$DW$T$259
   10725              
   10726              
   10727              $C$DW$T$260     .dwtag  DW_TAG_structure_type
   10728                      .dwattr $C$DW$T$260, DW_AT_name("TZCTLDCA_BITS")
   10729                      .dwattr $C$DW$T$260, DW_AT_byte_size(0x01)
   10730              $C$DW$1317      .dwtag  DW_TAG_member
   10731                      .dwattr $C$DW$1317, DW_AT_type(*$C$DW$T$34)
   10732                      .dwattr $C$DW$1317, DW_AT_name("DCAEVT1U")
   10733                      .dwattr $C$DW$1317, DW_AT_TI_symbol_name("_DCAEVT1U")
   10734                      .dwattr $C$DW$1317, DW_AT_bit_offset(0x0d), DW_AT_bit_size(0x03)
   10735                      .dwattr $C$DW$1317, DW_AT_data_member_location[DW_OP_plus_uconst 0x0]
   10736                      .dwattr $C$DW$1317, DW_AT_accessibility(DW_ACCESS_public)
   10737              $C$DW$1318      .dwtag  DW_TAG_member
   10738                      .dwattr $C$DW$1318, DW_AT_type(*$C$DW$T$34)
   10739                      .dwattr $C$DW$1318, DW_AT_name("DCAEVT1D")
   10740                      .dwattr $C$DW$1318, DW_AT_TI_symbol_name("_DCAEVT1D")
   10741                      .dwattr $C$DW$1318, DW_AT_bit_offset(0x0a), DW_AT_bit_size(0x03)
   10742                      .dwattr $C$DW$1318, DW_AT_data_member_location[DW_OP_plus_uconst 0x0]
   10743                      .dwattr $C$DW$1318, DW_AT_accessibility(DW_ACCESS_public)
   10744              $C$DW$1319      .dwtag  DW_TAG_member
   10745                      .dwattr $C$DW$1319, DW_AT_type(*$C$DW$T$34)
   10746                      .dwattr $C$DW$1319, DW_AT_name("DCAEVT2U")
   10747                      .dwattr $C$DW$1319, DW_AT_TI_symbol_name("_DCAEVT2U")
   10748                      .dwattr $C$DW$1319, DW_AT_bit_offset(0x07), DW_AT_bit_size(0x03)
   10749                      .dwattr $C$DW$1319, DW_AT_data_member_location[DW_OP_plus_uconst 0x0]
   10750                      .dwattr $C$DW$1319, DW_AT_accessibility(DW_ACCESS_public)
   10751              $C$DW$1320      .dwtag  DW_TAG_member
   10752                      .dwattr $C$DW$1320, DW_AT_type(*$C$DW$T$34)
   10753                      .dwattr $C$DW$1320, DW_AT_name("DCAEVT2D")
   10754                      .dwattr $C$DW$1320, DW_AT_TI_symbol_name("_DCAEVT2D")
   10755                      .dwattr $C$DW$1320, DW_AT_bit_offset(0x04), DW_AT_bit_size(0x03)
   10756                      .dwattr $C$DW$1320, DW_AT_data_member_location[DW_OP_plus_uconst 0x0]
   10757                      .dwattr $C$DW$1320, DW_AT_accessibility(DW_ACCESS_public)
   10758              $C$DW$1321      .dwtag  DW_TAG_member
   10759                      .dwattr $C$DW$1321, DW_AT_type(*$C$DW$T$34)
TMS320C2000 Assembler PC v6.4.2 Thu Dec 14 15:27:05 2017

Tools Copyright (c) 1996-2015 Texas Instruments Incorporated
fsm_main.asm                                                         PAGE  199

   10760                      .dwattr $C$DW$1321, DW_AT_name("rsvd1")
   10761                      .dwattr $C$DW$1321, DW_AT_TI_symbol_name("_rsvd1")
   10762                      .dwattr $C$DW$1321, DW_AT_bit_offset(0x00), DW_AT_bit_size(0x04)
   10763                      .dwattr $C$DW$1321, DW_AT_data_member_location[DW_OP_plus_uconst 0x0]
   10764                      .dwattr $C$DW$1321, DW_AT_accessibility(DW_ACCESS_public)
   10765                      .dwendtag $C$DW$T$260
   10766              
   10767              
   10768              $C$DW$T$261     .dwtag  DW_TAG_union_type
   10769                      .dwattr $C$DW$T$261, DW_AT_name("TZCTLDCA_REG")
   10770                      .dwattr $C$DW$T$261, DW_AT_byte_size(0x01)
   10771              $C$DW$1322      .dwtag  DW_TAG_member
   10772                      .dwattr $C$DW$1322, DW_AT_type(*$C$DW$T$34)
   10773                      .dwattr $C$DW$1322, DW_AT_name("all")
   10774                      .dwattr $C$DW$1322, DW_AT_TI_symbol_name("_all")
   10775                      .dwattr $C$DW$1322, DW_AT_data_member_location[DW_OP_plus_uconst 0x0]
   10776                      .dwattr $C$DW$1322, DW_AT_accessibility(DW_ACCESS_public)
   10777              $C$DW$1323      .dwtag  DW_TAG_member
   10778                      .dwattr $C$DW$1323, DW_AT_type(*$C$DW$T$260)
   10779                      .dwattr $C$DW$1323, DW_AT_name("bit")
   10780                      .dwattr $C$DW$1323, DW_AT_TI_symbol_name("_bit")
   10781                      .dwattr $C$DW$1323, DW_AT_data_member_location[DW_OP_plus_uconst 0x0]
   10782                      .dwattr $C$DW$1323, DW_AT_accessibility(DW_ACCESS_public)
   10783                      .dwendtag $C$DW$T$261
   10784              
   10785              
   10786              $C$DW$T$262     .dwtag  DW_TAG_structure_type
   10787                      .dwattr $C$DW$T$262, DW_AT_name("TZCTLDCB_BITS")
   10788                      .dwattr $C$DW$T$262, DW_AT_byte_size(0x01)
   10789              $C$DW$1324      .dwtag  DW_TAG_member
   10790                      .dwattr $C$DW$1324, DW_AT_type(*$C$DW$T$34)
   10791                      .dwattr $C$DW$1324, DW_AT_name("DCBEVT1U")
   10792                      .dwattr $C$DW$1324, DW_AT_TI_symbol_name("_DCBEVT1U")
   10793                      .dwattr $C$DW$1324, DW_AT_bit_offset(0x0d), DW_AT_bit_size(0x03)
   10794                      .dwattr $C$DW$1324, DW_AT_data_member_location[DW_OP_plus_uconst 0x0]
   10795                      .dwattr $C$DW$1324, DW_AT_accessibility(DW_ACCESS_public)
   10796              $C$DW$1325      .dwtag  DW_TAG_member
   10797                      .dwattr $C$DW$1325, DW_AT_type(*$C$DW$T$34)
   10798                      .dwattr $C$DW$1325, DW_AT_name("DCBEVT1D")
   10799                      .dwattr $C$DW$1325, DW_AT_TI_symbol_name("_DCBEVT1D")
   10800                      .dwattr $C$DW$1325, DW_AT_bit_offset(0x0a), DW_AT_bit_size(0x03)
   10801                      .dwattr $C$DW$1325, DW_AT_data_member_location[DW_OP_plus_uconst 0x0]
   10802                      .dwattr $C$DW$1325, DW_AT_accessibility(DW_ACCESS_public)
   10803              $C$DW$1326      .dwtag  DW_TAG_member
   10804                      .dwattr $C$DW$1326, DW_AT_type(*$C$DW$T$34)
   10805                      .dwattr $C$DW$1326, DW_AT_name("DCBEVT2U")
   10806                      .dwattr $C$DW$1326, DW_AT_TI_symbol_name("_DCBEVT2U")
   10807                      .dwattr $C$DW$1326, DW_AT_bit_offset(0x07), DW_AT_bit_size(0x03)
   10808                      .dwattr $C$DW$1326, DW_AT_data_member_location[DW_OP_plus_uconst 0x0]
   10809                      .dwattr $C$DW$1326, DW_AT_accessibility(DW_ACCESS_public)
   10810              $C$DW$1327      .dwtag  DW_TAG_member
   10811                      .dwattr $C$DW$1327, DW_AT_type(*$C$DW$T$34)
   10812                      .dwattr $C$DW$1327, DW_AT_name("DCBEVT2D")
   10813                      .dwattr $C$DW$1327, DW_AT_TI_symbol_name("_DCBEVT2D")
   10814                      .dwattr $C$DW$1327, DW_AT_bit_offset(0x04), DW_AT_bit_size(0x03)
TMS320C2000 Assembler PC v6.4.2 Thu Dec 14 15:27:05 2017

Tools Copyright (c) 1996-2015 Texas Instruments Incorporated
fsm_main.asm                                                         PAGE  200

   10815                      .dwattr $C$DW$1327, DW_AT_data_member_location[DW_OP_plus_uconst 0x0]
   10816                      .dwattr $C$DW$1327, DW_AT_accessibility(DW_ACCESS_public)
   10817              $C$DW$1328      .dwtag  DW_TAG_member
   10818                      .dwattr $C$DW$1328, DW_AT_type(*$C$DW$T$34)
   10819                      .dwattr $C$DW$1328, DW_AT_name("rsvd1")
   10820                      .dwattr $C$DW$1328, DW_AT_TI_symbol_name("_rsvd1")
   10821                      .dwattr $C$DW$1328, DW_AT_bit_offset(0x00), DW_AT_bit_size(0x04)
   10822                      .dwattr $C$DW$1328, DW_AT_data_member_location[DW_OP_plus_uconst 0x0]
   10823                      .dwattr $C$DW$1328, DW_AT_accessibility(DW_ACCESS_public)
   10824                      .dwendtag $C$DW$T$262
   10825              
   10826              
   10827              $C$DW$T$263     .dwtag  DW_TAG_union_type
   10828                      .dwattr $C$DW$T$263, DW_AT_name("TZCTLDCB_REG")
   10829                      .dwattr $C$DW$T$263, DW_AT_byte_size(0x01)
   10830              $C$DW$1329      .dwtag  DW_TAG_member
   10831                      .dwattr $C$DW$1329, DW_AT_type(*$C$DW$T$34)
   10832                      .dwattr $C$DW$1329, DW_AT_name("all")
   10833                      .dwattr $C$DW$1329, DW_AT_TI_symbol_name("_all")
   10834                      .dwattr $C$DW$1329, DW_AT_data_member_location[DW_OP_plus_uconst 0x0]
   10835                      .dwattr $C$DW$1329, DW_AT_accessibility(DW_ACCESS_public)
   10836              $C$DW$1330      .dwtag  DW_TAG_member
   10837                      .dwattr $C$DW$1330, DW_AT_type(*$C$DW$T$262)
   10838                      .dwattr $C$DW$1330, DW_AT_name("bit")
   10839                      .dwattr $C$DW$1330, DW_AT_TI_symbol_name("_bit")
   10840                      .dwattr $C$DW$1330, DW_AT_data_member_location[DW_OP_plus_uconst 0x0]
   10841                      .dwattr $C$DW$1330, DW_AT_accessibility(DW_ACCESS_public)
   10842                      .dwendtag $C$DW$T$263
   10843              
   10844              
   10845              $C$DW$T$264     .dwtag  DW_TAG_structure_type
   10846                      .dwattr $C$DW$T$264, DW_AT_name("TZCTL_BITS")
   10847                      .dwattr $C$DW$T$264, DW_AT_byte_size(0x01)
   10848              $C$DW$1331      .dwtag  DW_TAG_member
   10849                      .dwattr $C$DW$1331, DW_AT_type(*$C$DW$T$34)
   10850                      .dwattr $C$DW$1331, DW_AT_name("TZA")
   10851                      .dwattr $C$DW$1331, DW_AT_TI_symbol_name("_TZA")
   10852                      .dwattr $C$DW$1331, DW_AT_bit_offset(0x0e), DW_AT_bit_size(0x02)
   10853                      .dwattr $C$DW$1331, DW_AT_data_member_location[DW_OP_plus_uconst 0x0]
   10854                      .dwattr $C$DW$1331, DW_AT_accessibility(DW_ACCESS_public)
   10855              $C$DW$1332      .dwtag  DW_TAG_member
   10856                      .dwattr $C$DW$1332, DW_AT_type(*$C$DW$T$34)
   10857                      .dwattr $C$DW$1332, DW_AT_name("TZB")
   10858                      .dwattr $C$DW$1332, DW_AT_TI_symbol_name("_TZB")
   10859                      .dwattr $C$DW$1332, DW_AT_bit_offset(0x0c), DW_AT_bit_size(0x02)
   10860                      .dwattr $C$DW$1332, DW_AT_data_member_location[DW_OP_plus_uconst 0x0]
   10861                      .dwattr $C$DW$1332, DW_AT_accessibility(DW_ACCESS_public)
   10862              $C$DW$1333      .dwtag  DW_TAG_member
   10863                      .dwattr $C$DW$1333, DW_AT_type(*$C$DW$T$34)
   10864                      .dwattr $C$DW$1333, DW_AT_name("DCAEVT1")
   10865                      .dwattr $C$DW$1333, DW_AT_TI_symbol_name("_DCAEVT1")
   10866                      .dwattr $C$DW$1333, DW_AT_bit_offset(0x0a), DW_AT_bit_size(0x02)
   10867                      .dwattr $C$DW$1333, DW_AT_data_member_location[DW_OP_plus_uconst 0x0]
   10868                      .dwattr $C$DW$1333, DW_AT_accessibility(DW_ACCESS_public)
   10869              $C$DW$1334      .dwtag  DW_TAG_member
TMS320C2000 Assembler PC v6.4.2 Thu Dec 14 15:27:05 2017

Tools Copyright (c) 1996-2015 Texas Instruments Incorporated
fsm_main.asm                                                         PAGE  201

   10870                      .dwattr $C$DW$1334, DW_AT_type(*$C$DW$T$34)
   10871                      .dwattr $C$DW$1334, DW_AT_name("DCAEVT2")
   10872                      .dwattr $C$DW$1334, DW_AT_TI_symbol_name("_DCAEVT2")
   10873                      .dwattr $C$DW$1334, DW_AT_bit_offset(0x08), DW_AT_bit_size(0x02)
   10874                      .dwattr $C$DW$1334, DW_AT_data_member_location[DW_OP_plus_uconst 0x0]
   10875                      .dwattr $C$DW$1334, DW_AT_accessibility(DW_ACCESS_public)
   10876              $C$DW$1335      .dwtag  DW_TAG_member
   10877                      .dwattr $C$DW$1335, DW_AT_type(*$C$DW$T$34)
   10878                      .dwattr $C$DW$1335, DW_AT_name("DCBEVT1")
   10879                      .dwattr $C$DW$1335, DW_AT_TI_symbol_name("_DCBEVT1")
   10880                      .dwattr $C$DW$1335, DW_AT_bit_offset(0x06), DW_AT_bit_size(0x02)
   10881                      .dwattr $C$DW$1335, DW_AT_data_member_location[DW_OP_plus_uconst 0x0]
   10882                      .dwattr $C$DW$1335, DW_AT_accessibility(DW_ACCESS_public)
   10883              $C$DW$1336      .dwtag  DW_TAG_member
   10884                      .dwattr $C$DW$1336, DW_AT_type(*$C$DW$T$34)
   10885                      .dwattr $C$DW$1336, DW_AT_name("DCBEVT2")
   10886                      .dwattr $C$DW$1336, DW_AT_TI_symbol_name("_DCBEVT2")
   10887                      .dwattr $C$DW$1336, DW_AT_bit_offset(0x04), DW_AT_bit_size(0x02)
   10888                      .dwattr $C$DW$1336, DW_AT_data_member_location[DW_OP_plus_uconst 0x0]
   10889                      .dwattr $C$DW$1336, DW_AT_accessibility(DW_ACCESS_public)
   10890              $C$DW$1337      .dwtag  DW_TAG_member
   10891                      .dwattr $C$DW$1337, DW_AT_type(*$C$DW$T$34)
   10892                      .dwattr $C$DW$1337, DW_AT_name("rsvd1")
   10893                      .dwattr $C$DW$1337, DW_AT_TI_symbol_name("_rsvd1")
   10894                      .dwattr $C$DW$1337, DW_AT_bit_offset(0x00), DW_AT_bit_size(0x04)
   10895                      .dwattr $C$DW$1337, DW_AT_data_member_location[DW_OP_plus_uconst 0x0]
   10896                      .dwattr $C$DW$1337, DW_AT_accessibility(DW_ACCESS_public)
   10897                      .dwendtag $C$DW$T$264
   10898              
   10899              
   10900              $C$DW$T$265     .dwtag  DW_TAG_union_type
   10901                      .dwattr $C$DW$T$265, DW_AT_name("TZCTL_REG")
   10902                      .dwattr $C$DW$T$265, DW_AT_byte_size(0x01)
   10903              $C$DW$1338      .dwtag  DW_TAG_member
   10904                      .dwattr $C$DW$1338, DW_AT_type(*$C$DW$T$34)
   10905                      .dwattr $C$DW$1338, DW_AT_name("all")
   10906                      .dwattr $C$DW$1338, DW_AT_TI_symbol_name("_all")
   10907                      .dwattr $C$DW$1338, DW_AT_data_member_location[DW_OP_plus_uconst 0x0]
   10908                      .dwattr $C$DW$1338, DW_AT_accessibility(DW_ACCESS_public)
   10909              $C$DW$1339      .dwtag  DW_TAG_member
   10910                      .dwattr $C$DW$1339, DW_AT_type(*$C$DW$T$264)
   10911                      .dwattr $C$DW$1339, DW_AT_name("bit")
   10912                      .dwattr $C$DW$1339, DW_AT_TI_symbol_name("_bit")
   10913                      .dwattr $C$DW$1339, DW_AT_data_member_location[DW_OP_plus_uconst 0x0]
   10914                      .dwattr $C$DW$1339, DW_AT_accessibility(DW_ACCESS_public)
   10915                      .dwendtag $C$DW$T$265
   10916              
   10917              
   10918              $C$DW$T$266     .dwtag  DW_TAG_structure_type
   10919                      .dwattr $C$DW$T$266, DW_AT_name("TZDCSEL_BITS")
   10920                      .dwattr $C$DW$T$266, DW_AT_byte_size(0x01)
   10921              $C$DW$1340      .dwtag  DW_TAG_member
   10922                      .dwattr $C$DW$1340, DW_AT_type(*$C$DW$T$34)
   10923                      .dwattr $C$DW$1340, DW_AT_name("DCAEVT1")
   10924                      .dwattr $C$DW$1340, DW_AT_TI_symbol_name("_DCAEVT1")
TMS320C2000 Assembler PC v6.4.2 Thu Dec 14 15:27:05 2017

Tools Copyright (c) 1996-2015 Texas Instruments Incorporated
fsm_main.asm                                                         PAGE  202

   10925                      .dwattr $C$DW$1340, DW_AT_bit_offset(0x0d), DW_AT_bit_size(0x03)
   10926                      .dwattr $C$DW$1340, DW_AT_data_member_location[DW_OP_plus_uconst 0x0]
   10927                      .dwattr $C$DW$1340, DW_AT_accessibility(DW_ACCESS_public)
   10928              $C$DW$1341      .dwtag  DW_TAG_member
   10929                      .dwattr $C$DW$1341, DW_AT_type(*$C$DW$T$34)
   10930                      .dwattr $C$DW$1341, DW_AT_name("DCAEVT2")
   10931                      .dwattr $C$DW$1341, DW_AT_TI_symbol_name("_DCAEVT2")
   10932                      .dwattr $C$DW$1341, DW_AT_bit_offset(0x0a), DW_AT_bit_size(0x03)
   10933                      .dwattr $C$DW$1341, DW_AT_data_member_location[DW_OP_plus_uconst 0x0]
   10934                      .dwattr $C$DW$1341, DW_AT_accessibility(DW_ACCESS_public)
   10935              $C$DW$1342      .dwtag  DW_TAG_member
   10936                      .dwattr $C$DW$1342, DW_AT_type(*$C$DW$T$34)
   10937                      .dwattr $C$DW$1342, DW_AT_name("DCBEVT1")
   10938                      .dwattr $C$DW$1342, DW_AT_TI_symbol_name("_DCBEVT1")
   10939                      .dwattr $C$DW$1342, DW_AT_bit_offset(0x07), DW_AT_bit_size(0x03)
   10940                      .dwattr $C$DW$1342, DW_AT_data_member_location[DW_OP_plus_uconst 0x0]
   10941                      .dwattr $C$DW$1342, DW_AT_accessibility(DW_ACCESS_public)
   10942              $C$DW$1343      .dwtag  DW_TAG_member
   10943                      .dwattr $C$DW$1343, DW_AT_type(*$C$DW$T$34)
   10944                      .dwattr $C$DW$1343, DW_AT_name("DCBEVT2")
   10945                      .dwattr $C$DW$1343, DW_AT_TI_symbol_name("_DCBEVT2")
   10946                      .dwattr $C$DW$1343, DW_AT_bit_offset(0x04), DW_AT_bit_size(0x03)
   10947                      .dwattr $C$DW$1343, DW_AT_data_member_location[DW_OP_plus_uconst 0x0]
   10948                      .dwattr $C$DW$1343, DW_AT_accessibility(DW_ACCESS_public)
   10949              $C$DW$1344      .dwtag  DW_TAG_member
   10950                      .dwattr $C$DW$1344, DW_AT_type(*$C$DW$T$34)
   10951                      .dwattr $C$DW$1344, DW_AT_name("rsvd1")
   10952                      .dwattr $C$DW$1344, DW_AT_TI_symbol_name("_rsvd1")
   10953                      .dwattr $C$DW$1344, DW_AT_bit_offset(0x00), DW_AT_bit_size(0x04)
   10954                      .dwattr $C$DW$1344, DW_AT_data_member_location[DW_OP_plus_uconst 0x0]
   10955                      .dwattr $C$DW$1344, DW_AT_accessibility(DW_ACCESS_public)
   10956                      .dwendtag $C$DW$T$266
   10957              
   10958              
   10959              $C$DW$T$267     .dwtag  DW_TAG_union_type
   10960                      .dwattr $C$DW$T$267, DW_AT_name("TZDCSEL_REG")
   10961                      .dwattr $C$DW$T$267, DW_AT_byte_size(0x01)
   10962              $C$DW$1345      .dwtag  DW_TAG_member
   10963                      .dwattr $C$DW$1345, DW_AT_type(*$C$DW$T$34)
   10964                      .dwattr $C$DW$1345, DW_AT_name("all")
   10965                      .dwattr $C$DW$1345, DW_AT_TI_symbol_name("_all")
   10966                      .dwattr $C$DW$1345, DW_AT_data_member_location[DW_OP_plus_uconst 0x0]
   10967                      .dwattr $C$DW$1345, DW_AT_accessibility(DW_ACCESS_public)
   10968              $C$DW$1346      .dwtag  DW_TAG_member
   10969                      .dwattr $C$DW$1346, DW_AT_type(*$C$DW$T$266)
   10970                      .dwattr $C$DW$1346, DW_AT_name("bit")
   10971                      .dwattr $C$DW$1346, DW_AT_TI_symbol_name("_bit")
   10972                      .dwattr $C$DW$1346, DW_AT_data_member_location[DW_OP_plus_uconst 0x0]
   10973                      .dwattr $C$DW$1346, DW_AT_accessibility(DW_ACCESS_public)
   10974                      .dwendtag $C$DW$T$267
   10975              
   10976              
   10977              $C$DW$T$268     .dwtag  DW_TAG_structure_type
   10978                      .dwattr $C$DW$T$268, DW_AT_name("TZEINT_BITS")
   10979                      .dwattr $C$DW$T$268, DW_AT_byte_size(0x01)
TMS320C2000 Assembler PC v6.4.2 Thu Dec 14 15:27:05 2017

Tools Copyright (c) 1996-2015 Texas Instruments Incorporated
fsm_main.asm                                                         PAGE  203

   10980              $C$DW$1347      .dwtag  DW_TAG_member
   10981                      .dwattr $C$DW$1347, DW_AT_type(*$C$DW$T$34)
   10982                      .dwattr $C$DW$1347, DW_AT_name("rsvd1")
   10983                      .dwattr $C$DW$1347, DW_AT_TI_symbol_name("_rsvd1")
   10984                      .dwattr $C$DW$1347, DW_AT_bit_offset(0x0f), DW_AT_bit_size(0x01)
   10985                      .dwattr $C$DW$1347, DW_AT_data_member_location[DW_OP_plus_uconst 0x0]
   10986                      .dwattr $C$DW$1347, DW_AT_accessibility(DW_ACCESS_public)
   10987              $C$DW$1348      .dwtag  DW_TAG_member
   10988                      .dwattr $C$DW$1348, DW_AT_type(*$C$DW$T$34)
   10989                      .dwattr $C$DW$1348, DW_AT_name("CBC")
   10990                      .dwattr $C$DW$1348, DW_AT_TI_symbol_name("_CBC")
   10991                      .dwattr $C$DW$1348, DW_AT_bit_offset(0x0e), DW_AT_bit_size(0x01)
   10992                      .dwattr $C$DW$1348, DW_AT_data_member_location[DW_OP_plus_uconst 0x0]
   10993                      .dwattr $C$DW$1348, DW_AT_accessibility(DW_ACCESS_public)
   10994              $C$DW$1349      .dwtag  DW_TAG_member
   10995                      .dwattr $C$DW$1349, DW_AT_type(*$C$DW$T$34)
   10996                      .dwattr $C$DW$1349, DW_AT_name("OST")
   10997                      .dwattr $C$DW$1349, DW_AT_TI_symbol_name("_OST")
   10998                      .dwattr $C$DW$1349, DW_AT_bit_offset(0x0d), DW_AT_bit_size(0x01)
   10999                      .dwattr $C$DW$1349, DW_AT_data_member_location[DW_OP_plus_uconst 0x0]
   11000                      .dwattr $C$DW$1349, DW_AT_accessibility(DW_ACCESS_public)
   11001              $C$DW$1350      .dwtag  DW_TAG_member
   11002                      .dwattr $C$DW$1350, DW_AT_type(*$C$DW$T$34)
   11003                      .dwattr $C$DW$1350, DW_AT_name("DCAEVT1")
   11004                      .dwattr $C$DW$1350, DW_AT_TI_symbol_name("_DCAEVT1")
   11005                      .dwattr $C$DW$1350, DW_AT_bit_offset(0x0c), DW_AT_bit_size(0x01)
   11006                      .dwattr $C$DW$1350, DW_AT_data_member_location[DW_OP_plus_uconst 0x0]
   11007                      .dwattr $C$DW$1350, DW_AT_accessibility(DW_ACCESS_public)
   11008              $C$DW$1351      .dwtag  DW_TAG_member
   11009                      .dwattr $C$DW$1351, DW_AT_type(*$C$DW$T$34)
   11010                      .dwattr $C$DW$1351, DW_AT_name("DCAEVT2")
   11011                      .dwattr $C$DW$1351, DW_AT_TI_symbol_name("_DCAEVT2")
   11012                      .dwattr $C$DW$1351, DW_AT_bit_offset(0x0b), DW_AT_bit_size(0x01)
   11013                      .dwattr $C$DW$1351, DW_AT_data_member_location[DW_OP_plus_uconst 0x0]
   11014                      .dwattr $C$DW$1351, DW_AT_accessibility(DW_ACCESS_public)
   11015              $C$DW$1352      .dwtag  DW_TAG_member
   11016                      .dwattr $C$DW$1352, DW_AT_type(*$C$DW$T$34)
   11017                      .dwattr $C$DW$1352, DW_AT_name("DCBEVT1")
   11018                      .dwattr $C$DW$1352, DW_AT_TI_symbol_name("_DCBEVT1")
   11019                      .dwattr $C$DW$1352, DW_AT_bit_offset(0x0a), DW_AT_bit_size(0x01)
   11020                      .dwattr $C$DW$1352, DW_AT_data_member_location[DW_OP_plus_uconst 0x0]
   11021                      .dwattr $C$DW$1352, DW_AT_accessibility(DW_ACCESS_public)
   11022              $C$DW$1353      .dwtag  DW_TAG_member
   11023                      .dwattr $C$DW$1353, DW_AT_type(*$C$DW$T$34)
   11024                      .dwattr $C$DW$1353, DW_AT_name("DCBEVT2")
   11025                      .dwattr $C$DW$1353, DW_AT_TI_symbol_name("_DCBEVT2")
   11026                      .dwattr $C$DW$1353, DW_AT_bit_offset(0x09), DW_AT_bit_size(0x01)
   11027                      .dwattr $C$DW$1353, DW_AT_data_member_location[DW_OP_plus_uconst 0x0]
   11028                      .dwattr $C$DW$1353, DW_AT_accessibility(DW_ACCESS_public)
   11029              $C$DW$1354      .dwtag  DW_TAG_member
   11030                      .dwattr $C$DW$1354, DW_AT_type(*$C$DW$T$34)
   11031                      .dwattr $C$DW$1354, DW_AT_name("rsvd2")
   11032                      .dwattr $C$DW$1354, DW_AT_TI_symbol_name("_rsvd2")
   11033                      .dwattr $C$DW$1354, DW_AT_bit_offset(0x00), DW_AT_bit_size(0x09)
   11034                      .dwattr $C$DW$1354, DW_AT_data_member_location[DW_OP_plus_uconst 0x0]
TMS320C2000 Assembler PC v6.4.2 Thu Dec 14 15:27:05 2017

Tools Copyright (c) 1996-2015 Texas Instruments Incorporated
fsm_main.asm                                                         PAGE  204

   11035                      .dwattr $C$DW$1354, DW_AT_accessibility(DW_ACCESS_public)
   11036                      .dwendtag $C$DW$T$268
   11037              
   11038              
   11039              $C$DW$T$269     .dwtag  DW_TAG_union_type
   11040                      .dwattr $C$DW$T$269, DW_AT_name("TZEINT_REG")
   11041                      .dwattr $C$DW$T$269, DW_AT_byte_size(0x01)
   11042              $C$DW$1355      .dwtag  DW_TAG_member
   11043                      .dwattr $C$DW$1355, DW_AT_type(*$C$DW$T$34)
   11044                      .dwattr $C$DW$1355, DW_AT_name("all")
   11045                      .dwattr $C$DW$1355, DW_AT_TI_symbol_name("_all")
   11046                      .dwattr $C$DW$1355, DW_AT_data_member_location[DW_OP_plus_uconst 0x0]
   11047                      .dwattr $C$DW$1355, DW_AT_accessibility(DW_ACCESS_public)
   11048              $C$DW$1356      .dwtag  DW_TAG_member
   11049                      .dwattr $C$DW$1356, DW_AT_type(*$C$DW$T$268)
   11050                      .dwattr $C$DW$1356, DW_AT_name("bit")
   11051                      .dwattr $C$DW$1356, DW_AT_TI_symbol_name("_bit")
   11052                      .dwattr $C$DW$1356, DW_AT_data_member_location[DW_OP_plus_uconst 0x0]
   11053                      .dwattr $C$DW$1356, DW_AT_accessibility(DW_ACCESS_public)
   11054                      .dwendtag $C$DW$T$269
   11055              
   11056              
   11057              $C$DW$T$270     .dwtag  DW_TAG_structure_type
   11058                      .dwattr $C$DW$T$270, DW_AT_name("TZFLG_BITS")
   11059                      .dwattr $C$DW$T$270, DW_AT_byte_size(0x01)
   11060              $C$DW$1357      .dwtag  DW_TAG_member
   11061                      .dwattr $C$DW$1357, DW_AT_type(*$C$DW$T$34)
   11062                      .dwattr $C$DW$1357, DW_AT_name("INT")
   11063                      .dwattr $C$DW$1357, DW_AT_TI_symbol_name("_INT")
   11064                      .dwattr $C$DW$1357, DW_AT_bit_offset(0x0f), DW_AT_bit_size(0x01)
   11065                      .dwattr $C$DW$1357, DW_AT_data_member_location[DW_OP_plus_uconst 0x0]
   11066                      .dwattr $C$DW$1357, DW_AT_accessibility(DW_ACCESS_public)
   11067              $C$DW$1358      .dwtag  DW_TAG_member
   11068                      .dwattr $C$DW$1358, DW_AT_type(*$C$DW$T$34)
   11069                      .dwattr $C$DW$1358, DW_AT_name("CBC")
   11070                      .dwattr $C$DW$1358, DW_AT_TI_symbol_name("_CBC")
   11071                      .dwattr $C$DW$1358, DW_AT_bit_offset(0x0e), DW_AT_bit_size(0x01)
   11072                      .dwattr $C$DW$1358, DW_AT_data_member_location[DW_OP_plus_uconst 0x0]
   11073                      .dwattr $C$DW$1358, DW_AT_accessibility(DW_ACCESS_public)
   11074              $C$DW$1359      .dwtag  DW_TAG_member
   11075                      .dwattr $C$DW$1359, DW_AT_type(*$C$DW$T$34)
   11076                      .dwattr $C$DW$1359, DW_AT_name("OST")
   11077                      .dwattr $C$DW$1359, DW_AT_TI_symbol_name("_OST")
   11078                      .dwattr $C$DW$1359, DW_AT_bit_offset(0x0d), DW_AT_bit_size(0x01)
   11079                      .dwattr $C$DW$1359, DW_AT_data_member_location[DW_OP_plus_uconst 0x0]
   11080                      .dwattr $C$DW$1359, DW_AT_accessibility(DW_ACCESS_public)
   11081              $C$DW$1360      .dwtag  DW_TAG_member
   11082                      .dwattr $C$DW$1360, DW_AT_type(*$C$DW$T$34)
   11083                      .dwattr $C$DW$1360, DW_AT_name("DCAEVT1")
   11084                      .dwattr $C$DW$1360, DW_AT_TI_symbol_name("_DCAEVT1")
   11085                      .dwattr $C$DW$1360, DW_AT_bit_offset(0x0c), DW_AT_bit_size(0x01)
   11086                      .dwattr $C$DW$1360, DW_AT_data_member_location[DW_OP_plus_uconst 0x0]
   11087                      .dwattr $C$DW$1360, DW_AT_accessibility(DW_ACCESS_public)
   11088              $C$DW$1361      .dwtag  DW_TAG_member
   11089                      .dwattr $C$DW$1361, DW_AT_type(*$C$DW$T$34)
TMS320C2000 Assembler PC v6.4.2 Thu Dec 14 15:27:05 2017

Tools Copyright (c) 1996-2015 Texas Instruments Incorporated
fsm_main.asm                                                         PAGE  205

   11090                      .dwattr $C$DW$1361, DW_AT_name("DCAEVT2")
   11091                      .dwattr $C$DW$1361, DW_AT_TI_symbol_name("_DCAEVT2")
   11092                      .dwattr $C$DW$1361, DW_AT_bit_offset(0x0b), DW_AT_bit_size(0x01)
   11093                      .dwattr $C$DW$1361, DW_AT_data_member_location[DW_OP_plus_uconst 0x0]
   11094                      .dwattr $C$DW$1361, DW_AT_accessibility(DW_ACCESS_public)
   11095              $C$DW$1362      .dwtag  DW_TAG_member
   11096                      .dwattr $C$DW$1362, DW_AT_type(*$C$DW$T$34)
   11097                      .dwattr $C$DW$1362, DW_AT_name("DCBEVT1")
   11098                      .dwattr $C$DW$1362, DW_AT_TI_symbol_name("_DCBEVT1")
   11099                      .dwattr $C$DW$1362, DW_AT_bit_offset(0x0a), DW_AT_bit_size(0x01)
   11100                      .dwattr $C$DW$1362, DW_AT_data_member_location[DW_OP_plus_uconst 0x0]
   11101                      .dwattr $C$DW$1362, DW_AT_accessibility(DW_ACCESS_public)
   11102              $C$DW$1363      .dwtag  DW_TAG_member
   11103                      .dwattr $C$DW$1363, DW_AT_type(*$C$DW$T$34)
   11104                      .dwattr $C$DW$1363, DW_AT_name("DCBEVT2")
   11105                      .dwattr $C$DW$1363, DW_AT_TI_symbol_name("_DCBEVT2")
   11106                      .dwattr $C$DW$1363, DW_AT_bit_offset(0x09), DW_AT_bit_size(0x01)
   11107                      .dwattr $C$DW$1363, DW_AT_data_member_location[DW_OP_plus_uconst 0x0]
   11108                      .dwattr $C$DW$1363, DW_AT_accessibility(DW_ACCESS_public)
   11109              $C$DW$1364      .dwtag  DW_TAG_member
   11110                      .dwattr $C$DW$1364, DW_AT_type(*$C$DW$T$34)
   11111                      .dwattr $C$DW$1364, DW_AT_name("rsvd1")
   11112                      .dwattr $C$DW$1364, DW_AT_TI_symbol_name("_rsvd1")
   11113                      .dwattr $C$DW$1364, DW_AT_bit_offset(0x00), DW_AT_bit_size(0x09)
   11114                      .dwattr $C$DW$1364, DW_AT_data_member_location[DW_OP_plus_uconst 0x0]
   11115                      .dwattr $C$DW$1364, DW_AT_accessibility(DW_ACCESS_public)
   11116                      .dwendtag $C$DW$T$270
   11117              
   11118              
   11119              $C$DW$T$271     .dwtag  DW_TAG_union_type
   11120                      .dwattr $C$DW$T$271, DW_AT_name("TZFLG_REG")
   11121                      .dwattr $C$DW$T$271, DW_AT_byte_size(0x01)
   11122              $C$DW$1365      .dwtag  DW_TAG_member
   11123                      .dwattr $C$DW$1365, DW_AT_type(*$C$DW$T$34)
   11124                      .dwattr $C$DW$1365, DW_AT_name("all")
   11125                      .dwattr $C$DW$1365, DW_AT_TI_symbol_name("_all")
   11126                      .dwattr $C$DW$1365, DW_AT_data_member_location[DW_OP_plus_uconst 0x0]
   11127                      .dwattr $C$DW$1365, DW_AT_accessibility(DW_ACCESS_public)
   11128              $C$DW$1366      .dwtag  DW_TAG_member
   11129                      .dwattr $C$DW$1366, DW_AT_type(*$C$DW$T$270)
   11130                      .dwattr $C$DW$1366, DW_AT_name("bit")
   11131                      .dwattr $C$DW$1366, DW_AT_TI_symbol_name("_bit")
   11132                      .dwattr $C$DW$1366, DW_AT_data_member_location[DW_OP_plus_uconst 0x0]
   11133                      .dwattr $C$DW$1366, DW_AT_accessibility(DW_ACCESS_public)
   11134                      .dwendtag $C$DW$T$271
   11135              
   11136              
   11137              $C$DW$T$272     .dwtag  DW_TAG_structure_type
   11138                      .dwattr $C$DW$T$272, DW_AT_name("TZFRC_BITS")
   11139                      .dwattr $C$DW$T$272, DW_AT_byte_size(0x01)
   11140              $C$DW$1367      .dwtag  DW_TAG_member
   11141                      .dwattr $C$DW$1367, DW_AT_type(*$C$DW$T$34)
   11142                      .dwattr $C$DW$1367, DW_AT_name("rsvd1")
   11143                      .dwattr $C$DW$1367, DW_AT_TI_symbol_name("_rsvd1")
   11144                      .dwattr $C$DW$1367, DW_AT_bit_offset(0x0f), DW_AT_bit_size(0x01)
TMS320C2000 Assembler PC v6.4.2 Thu Dec 14 15:27:05 2017

Tools Copyright (c) 1996-2015 Texas Instruments Incorporated
fsm_main.asm                                                         PAGE  206

   11145                      .dwattr $C$DW$1367, DW_AT_data_member_location[DW_OP_plus_uconst 0x0]
   11146                      .dwattr $C$DW$1367, DW_AT_accessibility(DW_ACCESS_public)
   11147              $C$DW$1368      .dwtag  DW_TAG_member
   11148                      .dwattr $C$DW$1368, DW_AT_type(*$C$DW$T$34)
   11149                      .dwattr $C$DW$1368, DW_AT_name("CBC")
   11150                      .dwattr $C$DW$1368, DW_AT_TI_symbol_name("_CBC")
   11151                      .dwattr $C$DW$1368, DW_AT_bit_offset(0x0e), DW_AT_bit_size(0x01)
   11152                      .dwattr $C$DW$1368, DW_AT_data_member_location[DW_OP_plus_uconst 0x0]
   11153                      .dwattr $C$DW$1368, DW_AT_accessibility(DW_ACCESS_public)
   11154              $C$DW$1369      .dwtag  DW_TAG_member
   11155                      .dwattr $C$DW$1369, DW_AT_type(*$C$DW$T$34)
   11156                      .dwattr $C$DW$1369, DW_AT_name("OST")
   11157                      .dwattr $C$DW$1369, DW_AT_TI_symbol_name("_OST")
   11158                      .dwattr $C$DW$1369, DW_AT_bit_offset(0x0d), DW_AT_bit_size(0x01)
   11159                      .dwattr $C$DW$1369, DW_AT_data_member_location[DW_OP_plus_uconst 0x0]
   11160                      .dwattr $C$DW$1369, DW_AT_accessibility(DW_ACCESS_public)
   11161              $C$DW$1370      .dwtag  DW_TAG_member
   11162                      .dwattr $C$DW$1370, DW_AT_type(*$C$DW$T$34)
   11163                      .dwattr $C$DW$1370, DW_AT_name("DCAEVT1")
   11164                      .dwattr $C$DW$1370, DW_AT_TI_symbol_name("_DCAEVT1")
   11165                      .dwattr $C$DW$1370, DW_AT_bit_offset(0x0c), DW_AT_bit_size(0x01)
   11166                      .dwattr $C$DW$1370, DW_AT_data_member_location[DW_OP_plus_uconst 0x0]
   11167                      .dwattr $C$DW$1370, DW_AT_accessibility(DW_ACCESS_public)
   11168              $C$DW$1371      .dwtag  DW_TAG_member
   11169                      .dwattr $C$DW$1371, DW_AT_type(*$C$DW$T$34)
   11170                      .dwattr $C$DW$1371, DW_AT_name("DCAEVT2")
   11171                      .dwattr $C$DW$1371, DW_AT_TI_symbol_name("_DCAEVT2")
   11172                      .dwattr $C$DW$1371, DW_AT_bit_offset(0x0b), DW_AT_bit_size(0x01)
   11173                      .dwattr $C$DW$1371, DW_AT_data_member_location[DW_OP_plus_uconst 0x0]
   11174                      .dwattr $C$DW$1371, DW_AT_accessibility(DW_ACCESS_public)
   11175              $C$DW$1372      .dwtag  DW_TAG_member
   11176                      .dwattr $C$DW$1372, DW_AT_type(*$C$DW$T$34)
   11177                      .dwattr $C$DW$1372, DW_AT_name("DCBEVT1")
   11178                      .dwattr $C$DW$1372, DW_AT_TI_symbol_name("_DCBEVT1")
   11179                      .dwattr $C$DW$1372, DW_AT_bit_offset(0x0a), DW_AT_bit_size(0x01)
   11180                      .dwattr $C$DW$1372, DW_AT_data_member_location[DW_OP_plus_uconst 0x0]
   11181                      .dwattr $C$DW$1372, DW_AT_accessibility(DW_ACCESS_public)
   11182              $C$DW$1373      .dwtag  DW_TAG_member
   11183                      .dwattr $C$DW$1373, DW_AT_type(*$C$DW$T$34)
   11184                      .dwattr $C$DW$1373, DW_AT_name("DCBEVT2")
   11185                      .dwattr $C$DW$1373, DW_AT_TI_symbol_name("_DCBEVT2")
   11186                      .dwattr $C$DW$1373, DW_AT_bit_offset(0x09), DW_AT_bit_size(0x01)
   11187                      .dwattr $C$DW$1373, DW_AT_data_member_location[DW_OP_plus_uconst 0x0]
   11188                      .dwattr $C$DW$1373, DW_AT_accessibility(DW_ACCESS_public)
   11189              $C$DW$1374      .dwtag  DW_TAG_member
   11190                      .dwattr $C$DW$1374, DW_AT_type(*$C$DW$T$34)
   11191                      .dwattr $C$DW$1374, DW_AT_name("rsvd2")
   11192                      .dwattr $C$DW$1374, DW_AT_TI_symbol_name("_rsvd2")
   11193                      .dwattr $C$DW$1374, DW_AT_bit_offset(0x00), DW_AT_bit_size(0x09)
   11194                      .dwattr $C$DW$1374, DW_AT_data_member_location[DW_OP_plus_uconst 0x0]
   11195                      .dwattr $C$DW$1374, DW_AT_accessibility(DW_ACCESS_public)
   11196                      .dwendtag $C$DW$T$272
   11197              
   11198              
   11199              $C$DW$T$273     .dwtag  DW_TAG_union_type
TMS320C2000 Assembler PC v6.4.2 Thu Dec 14 15:27:05 2017

Tools Copyright (c) 1996-2015 Texas Instruments Incorporated
fsm_main.asm                                                         PAGE  207

   11200                      .dwattr $C$DW$T$273, DW_AT_name("TZFRC_REG")
   11201                      .dwattr $C$DW$T$273, DW_AT_byte_size(0x01)
   11202              $C$DW$1375      .dwtag  DW_TAG_member
   11203                      .dwattr $C$DW$1375, DW_AT_type(*$C$DW$T$34)
   11204                      .dwattr $C$DW$1375, DW_AT_name("all")
   11205                      .dwattr $C$DW$1375, DW_AT_TI_symbol_name("_all")
   11206                      .dwattr $C$DW$1375, DW_AT_data_member_location[DW_OP_plus_uconst 0x0]
   11207                      .dwattr $C$DW$1375, DW_AT_accessibility(DW_ACCESS_public)
   11208              $C$DW$1376      .dwtag  DW_TAG_member
   11209                      .dwattr $C$DW$1376, DW_AT_type(*$C$DW$T$272)
   11210                      .dwattr $C$DW$1376, DW_AT_name("bit")
   11211                      .dwattr $C$DW$1376, DW_AT_TI_symbol_name("_bit")
   11212                      .dwattr $C$DW$1376, DW_AT_data_member_location[DW_OP_plus_uconst 0x0]
   11213                      .dwattr $C$DW$1376, DW_AT_accessibility(DW_ACCESS_public)
   11214                      .dwendtag $C$DW$T$273
   11215              
   11216              
   11217              $C$DW$T$274     .dwtag  DW_TAG_structure_type
   11218                      .dwattr $C$DW$T$274, DW_AT_name("TZOSTCLR_BITS")
   11219                      .dwattr $C$DW$T$274, DW_AT_byte_size(0x01)
   11220              $C$DW$1377      .dwtag  DW_TAG_member
   11221                      .dwattr $C$DW$1377, DW_AT_type(*$C$DW$T$34)
   11222                      .dwattr $C$DW$1377, DW_AT_name("OST1")
   11223                      .dwattr $C$DW$1377, DW_AT_TI_symbol_name("_OST1")
   11224                      .dwattr $C$DW$1377, DW_AT_bit_offset(0x0f), DW_AT_bit_size(0x01)
   11225                      .dwattr $C$DW$1377, DW_AT_data_member_location[DW_OP_plus_uconst 0x0]
   11226                      .dwattr $C$DW$1377, DW_AT_accessibility(DW_ACCESS_public)
   11227              $C$DW$1378      .dwtag  DW_TAG_member
   11228                      .dwattr $C$DW$1378, DW_AT_type(*$C$DW$T$34)
   11229                      .dwattr $C$DW$1378, DW_AT_name("OST2")
   11230                      .dwattr $C$DW$1378, DW_AT_TI_symbol_name("_OST2")
   11231                      .dwattr $C$DW$1378, DW_AT_bit_offset(0x0e), DW_AT_bit_size(0x01)
   11232                      .dwattr $C$DW$1378, DW_AT_data_member_location[DW_OP_plus_uconst 0x0]
   11233                      .dwattr $C$DW$1378, DW_AT_accessibility(DW_ACCESS_public)
   11234              $C$DW$1379      .dwtag  DW_TAG_member
   11235                      .dwattr $C$DW$1379, DW_AT_type(*$C$DW$T$34)
   11236                      .dwattr $C$DW$1379, DW_AT_name("OST3")
   11237                      .dwattr $C$DW$1379, DW_AT_TI_symbol_name("_OST3")
   11238                      .dwattr $C$DW$1379, DW_AT_bit_offset(0x0d), DW_AT_bit_size(0x01)
   11239                      .dwattr $C$DW$1379, DW_AT_data_member_location[DW_OP_plus_uconst 0x0]
   11240                      .dwattr $C$DW$1379, DW_AT_accessibility(DW_ACCESS_public)
   11241              $C$DW$1380      .dwtag  DW_TAG_member
   11242                      .dwattr $C$DW$1380, DW_AT_type(*$C$DW$T$34)
   11243                      .dwattr $C$DW$1380, DW_AT_name("OST4")
   11244                      .dwattr $C$DW$1380, DW_AT_TI_symbol_name("_OST4")
   11245                      .dwattr $C$DW$1380, DW_AT_bit_offset(0x0c), DW_AT_bit_size(0x01)
   11246                      .dwattr $C$DW$1380, DW_AT_data_member_location[DW_OP_plus_uconst 0x0]
   11247                      .dwattr $C$DW$1380, DW_AT_accessibility(DW_ACCESS_public)
   11248              $C$DW$1381      .dwtag  DW_TAG_member
   11249                      .dwattr $C$DW$1381, DW_AT_type(*$C$DW$T$34)
   11250                      .dwattr $C$DW$1381, DW_AT_name("OST5")
   11251                      .dwattr $C$DW$1381, DW_AT_TI_symbol_name("_OST5")
   11252                      .dwattr $C$DW$1381, DW_AT_bit_offset(0x0b), DW_AT_bit_size(0x01)
   11253                      .dwattr $C$DW$1381, DW_AT_data_member_location[DW_OP_plus_uconst 0x0]
   11254                      .dwattr $C$DW$1381, DW_AT_accessibility(DW_ACCESS_public)
TMS320C2000 Assembler PC v6.4.2 Thu Dec 14 15:27:05 2017

Tools Copyright (c) 1996-2015 Texas Instruments Incorporated
fsm_main.asm                                                         PAGE  208

   11255              $C$DW$1382      .dwtag  DW_TAG_member
   11256                      .dwattr $C$DW$1382, DW_AT_type(*$C$DW$T$34)
   11257                      .dwattr $C$DW$1382, DW_AT_name("OST6")
   11258                      .dwattr $C$DW$1382, DW_AT_TI_symbol_name("_OST6")
   11259                      .dwattr $C$DW$1382, DW_AT_bit_offset(0x0a), DW_AT_bit_size(0x01)
   11260                      .dwattr $C$DW$1382, DW_AT_data_member_location[DW_OP_plus_uconst 0x0]
   11261                      .dwattr $C$DW$1382, DW_AT_accessibility(DW_ACCESS_public)
   11262              $C$DW$1383      .dwtag  DW_TAG_member
   11263                      .dwattr $C$DW$1383, DW_AT_type(*$C$DW$T$34)
   11264                      .dwattr $C$DW$1383, DW_AT_name("DCAEVT1")
   11265                      .dwattr $C$DW$1383, DW_AT_TI_symbol_name("_DCAEVT1")
   11266                      .dwattr $C$DW$1383, DW_AT_bit_offset(0x09), DW_AT_bit_size(0x01)
   11267                      .dwattr $C$DW$1383, DW_AT_data_member_location[DW_OP_plus_uconst 0x0]
   11268                      .dwattr $C$DW$1383, DW_AT_accessibility(DW_ACCESS_public)
   11269              $C$DW$1384      .dwtag  DW_TAG_member
   11270                      .dwattr $C$DW$1384, DW_AT_type(*$C$DW$T$34)
   11271                      .dwattr $C$DW$1384, DW_AT_name("DCBEVT1")
   11272                      .dwattr $C$DW$1384, DW_AT_TI_symbol_name("_DCBEVT1")
   11273                      .dwattr $C$DW$1384, DW_AT_bit_offset(0x08), DW_AT_bit_size(0x01)
   11274                      .dwattr $C$DW$1384, DW_AT_data_member_location[DW_OP_plus_uconst 0x0]
   11275                      .dwattr $C$DW$1384, DW_AT_accessibility(DW_ACCESS_public)
   11276              $C$DW$1385      .dwtag  DW_TAG_member
   11277                      .dwattr $C$DW$1385, DW_AT_type(*$C$DW$T$34)
   11278                      .dwattr $C$DW$1385, DW_AT_name("rsvd1")
   11279                      .dwattr $C$DW$1385, DW_AT_TI_symbol_name("_rsvd1")
   11280                      .dwattr $C$DW$1385, DW_AT_bit_offset(0x00), DW_AT_bit_size(0x08)
   11281                      .dwattr $C$DW$1385, DW_AT_data_member_location[DW_OP_plus_uconst 0x0]
   11282                      .dwattr $C$DW$1385, DW_AT_accessibility(DW_ACCESS_public)
   11283                      .dwendtag $C$DW$T$274
   11284              
   11285              
   11286              $C$DW$T$275     .dwtag  DW_TAG_union_type
   11287                      .dwattr $C$DW$T$275, DW_AT_name("TZOSTCLR_REG")
   11288                      .dwattr $C$DW$T$275, DW_AT_byte_size(0x01)
   11289              $C$DW$1386      .dwtag  DW_TAG_member
   11290                      .dwattr $C$DW$1386, DW_AT_type(*$C$DW$T$34)
   11291                      .dwattr $C$DW$1386, DW_AT_name("all")
   11292                      .dwattr $C$DW$1386, DW_AT_TI_symbol_name("_all")
   11293                      .dwattr $C$DW$1386, DW_AT_data_member_location[DW_OP_plus_uconst 0x0]
   11294                      .dwattr $C$DW$1386, DW_AT_accessibility(DW_ACCESS_public)
   11295              $C$DW$1387      .dwtag  DW_TAG_member
   11296                      .dwattr $C$DW$1387, DW_AT_type(*$C$DW$T$274)
   11297                      .dwattr $C$DW$1387, DW_AT_name("bit")
   11298                      .dwattr $C$DW$1387, DW_AT_TI_symbol_name("_bit")
   11299                      .dwattr $C$DW$1387, DW_AT_data_member_location[DW_OP_plus_uconst 0x0]
   11300                      .dwattr $C$DW$1387, DW_AT_accessibility(DW_ACCESS_public)
   11301                      .dwendtag $C$DW$T$275
   11302              
   11303              
   11304              $C$DW$T$276     .dwtag  DW_TAG_structure_type
   11305                      .dwattr $C$DW$T$276, DW_AT_name("TZOSTFLG_BITS")
   11306                      .dwattr $C$DW$T$276, DW_AT_byte_size(0x01)
   11307              $C$DW$1388      .dwtag  DW_TAG_member
   11308                      .dwattr $C$DW$1388, DW_AT_type(*$C$DW$T$34)
   11309                      .dwattr $C$DW$1388, DW_AT_name("OST1")
TMS320C2000 Assembler PC v6.4.2 Thu Dec 14 15:27:05 2017

Tools Copyright (c) 1996-2015 Texas Instruments Incorporated
fsm_main.asm                                                         PAGE  209

   11310                      .dwattr $C$DW$1388, DW_AT_TI_symbol_name("_OST1")
   11311                      .dwattr $C$DW$1388, DW_AT_bit_offset(0x0f), DW_AT_bit_size(0x01)
   11312                      .dwattr $C$DW$1388, DW_AT_data_member_location[DW_OP_plus_uconst 0x0]
   11313                      .dwattr $C$DW$1388, DW_AT_accessibility(DW_ACCESS_public)
   11314              $C$DW$1389      .dwtag  DW_TAG_member
   11315                      .dwattr $C$DW$1389, DW_AT_type(*$C$DW$T$34)
   11316                      .dwattr $C$DW$1389, DW_AT_name("OST2")
   11317                      .dwattr $C$DW$1389, DW_AT_TI_symbol_name("_OST2")
   11318                      .dwattr $C$DW$1389, DW_AT_bit_offset(0x0e), DW_AT_bit_size(0x01)
   11319                      .dwattr $C$DW$1389, DW_AT_data_member_location[DW_OP_plus_uconst 0x0]
   11320                      .dwattr $C$DW$1389, DW_AT_accessibility(DW_ACCESS_public)
   11321              $C$DW$1390      .dwtag  DW_TAG_member
   11322                      .dwattr $C$DW$1390, DW_AT_type(*$C$DW$T$34)
   11323                      .dwattr $C$DW$1390, DW_AT_name("OST3")
   11324                      .dwattr $C$DW$1390, DW_AT_TI_symbol_name("_OST3")
   11325                      .dwattr $C$DW$1390, DW_AT_bit_offset(0x0d), DW_AT_bit_size(0x01)
   11326                      .dwattr $C$DW$1390, DW_AT_data_member_location[DW_OP_plus_uconst 0x0]
   11327                      .dwattr $C$DW$1390, DW_AT_accessibility(DW_ACCESS_public)
   11328              $C$DW$1391      .dwtag  DW_TAG_member
   11329                      .dwattr $C$DW$1391, DW_AT_type(*$C$DW$T$34)
   11330                      .dwattr $C$DW$1391, DW_AT_name("OST4")
   11331                      .dwattr $C$DW$1391, DW_AT_TI_symbol_name("_OST4")
   11332                      .dwattr $C$DW$1391, DW_AT_bit_offset(0x0c), DW_AT_bit_size(0x01)
   11333                      .dwattr $C$DW$1391, DW_AT_data_member_location[DW_OP_plus_uconst 0x0]
   11334                      .dwattr $C$DW$1391, DW_AT_accessibility(DW_ACCESS_public)
   11335              $C$DW$1392      .dwtag  DW_TAG_member
   11336                      .dwattr $C$DW$1392, DW_AT_type(*$C$DW$T$34)
   11337                      .dwattr $C$DW$1392, DW_AT_name("OST5")
   11338                      .dwattr $C$DW$1392, DW_AT_TI_symbol_name("_OST5")
   11339                      .dwattr $C$DW$1392, DW_AT_bit_offset(0x0b), DW_AT_bit_size(0x01)
   11340                      .dwattr $C$DW$1392, DW_AT_data_member_location[DW_OP_plus_uconst 0x0]
   11341                      .dwattr $C$DW$1392, DW_AT_accessibility(DW_ACCESS_public)
   11342              $C$DW$1393      .dwtag  DW_TAG_member
   11343                      .dwattr $C$DW$1393, DW_AT_type(*$C$DW$T$34)
   11344                      .dwattr $C$DW$1393, DW_AT_name("OST6")
   11345                      .dwattr $C$DW$1393, DW_AT_TI_symbol_name("_OST6")
   11346                      .dwattr $C$DW$1393, DW_AT_bit_offset(0x0a), DW_AT_bit_size(0x01)
   11347                      .dwattr $C$DW$1393, DW_AT_data_member_location[DW_OP_plus_uconst 0x0]
   11348                      .dwattr $C$DW$1393, DW_AT_accessibility(DW_ACCESS_public)
   11349              $C$DW$1394      .dwtag  DW_TAG_member
   11350                      .dwattr $C$DW$1394, DW_AT_type(*$C$DW$T$34)
   11351                      .dwattr $C$DW$1394, DW_AT_name("DCAEVT1")
   11352                      .dwattr $C$DW$1394, DW_AT_TI_symbol_name("_DCAEVT1")
   11353                      .dwattr $C$DW$1394, DW_AT_bit_offset(0x09), DW_AT_bit_size(0x01)
   11354                      .dwattr $C$DW$1394, DW_AT_data_member_location[DW_OP_plus_uconst 0x0]
   11355                      .dwattr $C$DW$1394, DW_AT_accessibility(DW_ACCESS_public)
   11356              $C$DW$1395      .dwtag  DW_TAG_member
   11357                      .dwattr $C$DW$1395, DW_AT_type(*$C$DW$T$34)
   11358                      .dwattr $C$DW$1395, DW_AT_name("DCBEVT1")
   11359                      .dwattr $C$DW$1395, DW_AT_TI_symbol_name("_DCBEVT1")
   11360                      .dwattr $C$DW$1395, DW_AT_bit_offset(0x08), DW_AT_bit_size(0x01)
   11361                      .dwattr $C$DW$1395, DW_AT_data_member_location[DW_OP_plus_uconst 0x0]
   11362                      .dwattr $C$DW$1395, DW_AT_accessibility(DW_ACCESS_public)
   11363              $C$DW$1396      .dwtag  DW_TAG_member
   11364                      .dwattr $C$DW$1396, DW_AT_type(*$C$DW$T$34)
TMS320C2000 Assembler PC v6.4.2 Thu Dec 14 15:27:05 2017

Tools Copyright (c) 1996-2015 Texas Instruments Incorporated
fsm_main.asm                                                         PAGE  210

   11365                      .dwattr $C$DW$1396, DW_AT_name("rsvd1")
   11366                      .dwattr $C$DW$1396, DW_AT_TI_symbol_name("_rsvd1")
   11367                      .dwattr $C$DW$1396, DW_AT_bit_offset(0x00), DW_AT_bit_size(0x08)
   11368                      .dwattr $C$DW$1396, DW_AT_data_member_location[DW_OP_plus_uconst 0x0]
   11369                      .dwattr $C$DW$1396, DW_AT_accessibility(DW_ACCESS_public)
   11370                      .dwendtag $C$DW$T$276
   11371              
   11372              
   11373              $C$DW$T$277     .dwtag  DW_TAG_union_type
   11374                      .dwattr $C$DW$T$277, DW_AT_name("TZOSTFLG_REG")
   11375                      .dwattr $C$DW$T$277, DW_AT_byte_size(0x01)
   11376              $C$DW$1397      .dwtag  DW_TAG_member
   11377                      .dwattr $C$DW$1397, DW_AT_type(*$C$DW$T$34)
   11378                      .dwattr $C$DW$1397, DW_AT_name("all")
   11379                      .dwattr $C$DW$1397, DW_AT_TI_symbol_name("_all")
   11380                      .dwattr $C$DW$1397, DW_AT_data_member_location[DW_OP_plus_uconst 0x0]
   11381                      .dwattr $C$DW$1397, DW_AT_accessibility(DW_ACCESS_public)
   11382              $C$DW$1398      .dwtag  DW_TAG_member
   11383                      .dwattr $C$DW$1398, DW_AT_type(*$C$DW$T$276)
   11384                      .dwattr $C$DW$1398, DW_AT_name("bit")
   11385                      .dwattr $C$DW$1398, DW_AT_TI_symbol_name("_bit")
   11386                      .dwattr $C$DW$1398, DW_AT_data_member_location[DW_OP_plus_uconst 0x0]
   11387                      .dwattr $C$DW$1398, DW_AT_accessibility(DW_ACCESS_public)
   11388                      .dwendtag $C$DW$T$277
   11389              
   11390              
   11391              $C$DW$T$278     .dwtag  DW_TAG_structure_type
   11392                      .dwattr $C$DW$T$278, DW_AT_name("TZSEL_BITS")
   11393                      .dwattr $C$DW$T$278, DW_AT_byte_size(0x01)
   11394              $C$DW$1399      .dwtag  DW_TAG_member
   11395                      .dwattr $C$DW$1399, DW_AT_type(*$C$DW$T$34)
   11396                      .dwattr $C$DW$1399, DW_AT_name("CBC1")
   11397                      .dwattr $C$DW$1399, DW_AT_TI_symbol_name("_CBC1")
   11398                      .dwattr $C$DW$1399, DW_AT_bit_offset(0x0f), DW_AT_bit_size(0x01)
   11399                      .dwattr $C$DW$1399, DW_AT_data_member_location[DW_OP_plus_uconst 0x0]
   11400                      .dwattr $C$DW$1399, DW_AT_accessibility(DW_ACCESS_public)
   11401              $C$DW$1400      .dwtag  DW_TAG_member
   11402                      .dwattr $C$DW$1400, DW_AT_type(*$C$DW$T$34)
   11403                      .dwattr $C$DW$1400, DW_AT_name("CBC2")
   11404                      .dwattr $C$DW$1400, DW_AT_TI_symbol_name("_CBC2")
   11405                      .dwattr $C$DW$1400, DW_AT_bit_offset(0x0e), DW_AT_bit_size(0x01)
   11406                      .dwattr $C$DW$1400, DW_AT_data_member_location[DW_OP_plus_uconst 0x0]
   11407                      .dwattr $C$DW$1400, DW_AT_accessibility(DW_ACCESS_public)
   11408              $C$DW$1401      .dwtag  DW_TAG_member
   11409                      .dwattr $C$DW$1401, DW_AT_type(*$C$DW$T$34)
   11410                      .dwattr $C$DW$1401, DW_AT_name("CBC3")
   11411                      .dwattr $C$DW$1401, DW_AT_TI_symbol_name("_CBC3")
   11412                      .dwattr $C$DW$1401, DW_AT_bit_offset(0x0d), DW_AT_bit_size(0x01)
   11413                      .dwattr $C$DW$1401, DW_AT_data_member_location[DW_OP_plus_uconst 0x0]
   11414                      .dwattr $C$DW$1401, DW_AT_accessibility(DW_ACCESS_public)
   11415              $C$DW$1402      .dwtag  DW_TAG_member
   11416                      .dwattr $C$DW$1402, DW_AT_type(*$C$DW$T$34)
   11417                      .dwattr $C$DW$1402, DW_AT_name("CBC4")
   11418                      .dwattr $C$DW$1402, DW_AT_TI_symbol_name("_CBC4")
   11419                      .dwattr $C$DW$1402, DW_AT_bit_offset(0x0c), DW_AT_bit_size(0x01)
TMS320C2000 Assembler PC v6.4.2 Thu Dec 14 15:27:05 2017

Tools Copyright (c) 1996-2015 Texas Instruments Incorporated
fsm_main.asm                                                         PAGE  211

   11420                      .dwattr $C$DW$1402, DW_AT_data_member_location[DW_OP_plus_uconst 0x0]
   11421                      .dwattr $C$DW$1402, DW_AT_accessibility(DW_ACCESS_public)
   11422              $C$DW$1403      .dwtag  DW_TAG_member
   11423                      .dwattr $C$DW$1403, DW_AT_type(*$C$DW$T$34)
   11424                      .dwattr $C$DW$1403, DW_AT_name("CBC5")
   11425                      .dwattr $C$DW$1403, DW_AT_TI_symbol_name("_CBC5")
   11426                      .dwattr $C$DW$1403, DW_AT_bit_offset(0x0b), DW_AT_bit_size(0x01)
   11427                      .dwattr $C$DW$1403, DW_AT_data_member_location[DW_OP_plus_uconst 0x0]
   11428                      .dwattr $C$DW$1403, DW_AT_accessibility(DW_ACCESS_public)
   11429              $C$DW$1404      .dwtag  DW_TAG_member
   11430                      .dwattr $C$DW$1404, DW_AT_type(*$C$DW$T$34)
   11431                      .dwattr $C$DW$1404, DW_AT_name("CBC6")
   11432                      .dwattr $C$DW$1404, DW_AT_TI_symbol_name("_CBC6")
   11433                      .dwattr $C$DW$1404, DW_AT_bit_offset(0x0a), DW_AT_bit_size(0x01)
   11434                      .dwattr $C$DW$1404, DW_AT_data_member_location[DW_OP_plus_uconst 0x0]
   11435                      .dwattr $C$DW$1404, DW_AT_accessibility(DW_ACCESS_public)
   11436              $C$DW$1405      .dwtag  DW_TAG_member
   11437                      .dwattr $C$DW$1405, DW_AT_type(*$C$DW$T$34)
   11438                      .dwattr $C$DW$1405, DW_AT_name("DCAEVT2")
   11439                      .dwattr $C$DW$1405, DW_AT_TI_symbol_name("_DCAEVT2")
   11440                      .dwattr $C$DW$1405, DW_AT_bit_offset(0x09), DW_AT_bit_size(0x01)
   11441                      .dwattr $C$DW$1405, DW_AT_data_member_location[DW_OP_plus_uconst 0x0]
   11442                      .dwattr $C$DW$1405, DW_AT_accessibility(DW_ACCESS_public)
   11443              $C$DW$1406      .dwtag  DW_TAG_member
   11444                      .dwattr $C$DW$1406, DW_AT_type(*$C$DW$T$34)
   11445                      .dwattr $C$DW$1406, DW_AT_name("DCBEVT2")
   11446                      .dwattr $C$DW$1406, DW_AT_TI_symbol_name("_DCBEVT2")
   11447                      .dwattr $C$DW$1406, DW_AT_bit_offset(0x08), DW_AT_bit_size(0x01)
   11448                      .dwattr $C$DW$1406, DW_AT_data_member_location[DW_OP_plus_uconst 0x0]
   11449                      .dwattr $C$DW$1406, DW_AT_accessibility(DW_ACCESS_public)
   11450              $C$DW$1407      .dwtag  DW_TAG_member
   11451                      .dwattr $C$DW$1407, DW_AT_type(*$C$DW$T$34)
   11452                      .dwattr $C$DW$1407, DW_AT_name("OSHT1")
   11453                      .dwattr $C$DW$1407, DW_AT_TI_symbol_name("_OSHT1")
   11454                      .dwattr $C$DW$1407, DW_AT_bit_offset(0x07), DW_AT_bit_size(0x01)
   11455                      .dwattr $C$DW$1407, DW_AT_data_member_location[DW_OP_plus_uconst 0x0]
   11456                      .dwattr $C$DW$1407, DW_AT_accessibility(DW_ACCESS_public)
   11457              $C$DW$1408      .dwtag  DW_TAG_member
   11458                      .dwattr $C$DW$1408, DW_AT_type(*$C$DW$T$34)
   11459                      .dwattr $C$DW$1408, DW_AT_name("OSHT2")
   11460                      .dwattr $C$DW$1408, DW_AT_TI_symbol_name("_OSHT2")
   11461                      .dwattr $C$DW$1408, DW_AT_bit_offset(0x06), DW_AT_bit_size(0x01)
   11462                      .dwattr $C$DW$1408, DW_AT_data_member_location[DW_OP_plus_uconst 0x0]
   11463                      .dwattr $C$DW$1408, DW_AT_accessibility(DW_ACCESS_public)
   11464              $C$DW$1409      .dwtag  DW_TAG_member
   11465                      .dwattr $C$DW$1409, DW_AT_type(*$C$DW$T$34)
   11466                      .dwattr $C$DW$1409, DW_AT_name("OSHT3")
   11467                      .dwattr $C$DW$1409, DW_AT_TI_symbol_name("_OSHT3")
   11468                      .dwattr $C$DW$1409, DW_AT_bit_offset(0x05), DW_AT_bit_size(0x01)
   11469                      .dwattr $C$DW$1409, DW_AT_data_member_location[DW_OP_plus_uconst 0x0]
   11470                      .dwattr $C$DW$1409, DW_AT_accessibility(DW_ACCESS_public)
   11471              $C$DW$1410      .dwtag  DW_TAG_member
   11472                      .dwattr $C$DW$1410, DW_AT_type(*$C$DW$T$34)
   11473                      .dwattr $C$DW$1410, DW_AT_name("OSHT4")
   11474                      .dwattr $C$DW$1410, DW_AT_TI_symbol_name("_OSHT4")
TMS320C2000 Assembler PC v6.4.2 Thu Dec 14 15:27:05 2017

Tools Copyright (c) 1996-2015 Texas Instruments Incorporated
fsm_main.asm                                                         PAGE  212

   11475                      .dwattr $C$DW$1410, DW_AT_bit_offset(0x04), DW_AT_bit_size(0x01)
   11476                      .dwattr $C$DW$1410, DW_AT_data_member_location[DW_OP_plus_uconst 0x0]
   11477                      .dwattr $C$DW$1410, DW_AT_accessibility(DW_ACCESS_public)
   11478              $C$DW$1411      .dwtag  DW_TAG_member
   11479                      .dwattr $C$DW$1411, DW_AT_type(*$C$DW$T$34)
   11480                      .dwattr $C$DW$1411, DW_AT_name("OSHT5")
   11481                      .dwattr $C$DW$1411, DW_AT_TI_symbol_name("_OSHT5")
   11482                      .dwattr $C$DW$1411, DW_AT_bit_offset(0x03), DW_AT_bit_size(0x01)
   11483                      .dwattr $C$DW$1411, DW_AT_data_member_location[DW_OP_plus_uconst 0x0]
   11484                      .dwattr $C$DW$1411, DW_AT_accessibility(DW_ACCESS_public)
   11485              $C$DW$1412      .dwtag  DW_TAG_member
   11486                      .dwattr $C$DW$1412, DW_AT_type(*$C$DW$T$34)
   11487                      .dwattr $C$DW$1412, DW_AT_name("OSHT6")
   11488                      .dwattr $C$DW$1412, DW_AT_TI_symbol_name("_OSHT6")
   11489                      .dwattr $C$DW$1412, DW_AT_bit_offset(0x02), DW_AT_bit_size(0x01)
   11490                      .dwattr $C$DW$1412, DW_AT_data_member_location[DW_OP_plus_uconst 0x0]
   11491                      .dwattr $C$DW$1412, DW_AT_accessibility(DW_ACCESS_public)
   11492              $C$DW$1413      .dwtag  DW_TAG_member
   11493                      .dwattr $C$DW$1413, DW_AT_type(*$C$DW$T$34)
   11494                      .dwattr $C$DW$1413, DW_AT_name("DCAEVT1")
   11495                      .dwattr $C$DW$1413, DW_AT_TI_symbol_name("_DCAEVT1")
   11496                      .dwattr $C$DW$1413, DW_AT_bit_offset(0x01), DW_AT_bit_size(0x01)
   11497                      .dwattr $C$DW$1413, DW_AT_data_member_location[DW_OP_plus_uconst 0x0]
   11498                      .dwattr $C$DW$1413, DW_AT_accessibility(DW_ACCESS_public)
   11499              $C$DW$1414      .dwtag  DW_TAG_member
   11500                      .dwattr $C$DW$1414, DW_AT_type(*$C$DW$T$34)
   11501                      .dwattr $C$DW$1414, DW_AT_name("DCBEVT1")
   11502                      .dwattr $C$DW$1414, DW_AT_TI_symbol_name("_DCBEVT1")
   11503                      .dwattr $C$DW$1414, DW_AT_bit_offset(0x00), DW_AT_bit_size(0x01)
   11504                      .dwattr $C$DW$1414, DW_AT_data_member_location[DW_OP_plus_uconst 0x0]
   11505                      .dwattr $C$DW$1414, DW_AT_accessibility(DW_ACCESS_public)
   11506                      .dwendtag $C$DW$T$278
   11507              
   11508              
   11509              $C$DW$T$279     .dwtag  DW_TAG_union_type
   11510                      .dwattr $C$DW$T$279, DW_AT_name("TZSEL_REG")
   11511                      .dwattr $C$DW$T$279, DW_AT_byte_size(0x01)
   11512              $C$DW$1415      .dwtag  DW_TAG_member
   11513                      .dwattr $C$DW$1415, DW_AT_type(*$C$DW$T$34)
   11514                      .dwattr $C$DW$1415, DW_AT_name("all")
   11515                      .dwattr $C$DW$1415, DW_AT_TI_symbol_name("_all")
   11516                      .dwattr $C$DW$1415, DW_AT_data_member_location[DW_OP_plus_uconst 0x0]
   11517                      .dwattr $C$DW$1415, DW_AT_accessibility(DW_ACCESS_public)
   11518              $C$DW$1416      .dwtag  DW_TAG_member
   11519                      .dwattr $C$DW$1416, DW_AT_type(*$C$DW$T$278)
   11520                      .dwattr $C$DW$1416, DW_AT_name("bit")
   11521                      .dwattr $C$DW$1416, DW_AT_TI_symbol_name("_bit")
   11522                      .dwattr $C$DW$1416, DW_AT_data_member_location[DW_OP_plus_uconst 0x0]
   11523                      .dwattr $C$DW$1416, DW_AT_accessibility(DW_ACCESS_public)
   11524                      .dwendtag $C$DW$T$279
   11525              
   11526              $C$DW$T$2       .dwtag  DW_TAG_unspecified_type
   11527                      .dwattr $C$DW$T$2, DW_AT_name("void")
   11528              $C$DW$T$4       .dwtag  DW_TAG_base_type
   11529                      .dwattr $C$DW$T$4, DW_AT_encoding(DW_ATE_boolean)
TMS320C2000 Assembler PC v6.4.2 Thu Dec 14 15:27:05 2017

Tools Copyright (c) 1996-2015 Texas Instruments Incorporated
fsm_main.asm                                                         PAGE  213

   11530                      .dwattr $C$DW$T$4, DW_AT_name("bool")
   11531                      .dwattr $C$DW$T$4, DW_AT_byte_size(0x01)
   11532              $C$DW$T$5       .dwtag  DW_TAG_base_type
   11533                      .dwattr $C$DW$T$5, DW_AT_encoding(DW_ATE_signed_char)
   11534                      .dwattr $C$DW$T$5, DW_AT_name("signed char")
   11535                      .dwattr $C$DW$T$5, DW_AT_byte_size(0x01)
   11536              $C$DW$T$6       .dwtag  DW_TAG_base_type
   11537                      .dwattr $C$DW$T$6, DW_AT_encoding(DW_ATE_unsigned_char)
   11538                      .dwattr $C$DW$T$6, DW_AT_name("unsigned char")
   11539                      .dwattr $C$DW$T$6, DW_AT_byte_size(0x01)
   11540              $C$DW$T$7       .dwtag  DW_TAG_base_type
   11541                      .dwattr $C$DW$T$7, DW_AT_encoding(DW_ATE_signed_char)
   11542                      .dwattr $C$DW$T$7, DW_AT_name("wchar_t")
   11543                      .dwattr $C$DW$T$7, DW_AT_byte_size(0x01)
   11544              $C$DW$T$8       .dwtag  DW_TAG_base_type
   11545                      .dwattr $C$DW$T$8, DW_AT_encoding(DW_ATE_signed)
   11546                      .dwattr $C$DW$T$8, DW_AT_name("short")
   11547                      .dwattr $C$DW$T$8, DW_AT_byte_size(0x01)
   11548              $C$DW$T$9       .dwtag  DW_TAG_base_type
   11549                      .dwattr $C$DW$T$9, DW_AT_encoding(DW_ATE_unsigned)
   11550                      .dwattr $C$DW$T$9, DW_AT_name("unsigned short")
   11551                      .dwattr $C$DW$T$9, DW_AT_byte_size(0x01)
   11552              $C$DW$T$10      .dwtag  DW_TAG_base_type
   11553                      .dwattr $C$DW$T$10, DW_AT_encoding(DW_ATE_signed)
   11554                      .dwattr $C$DW$T$10, DW_AT_name("int")
   11555                      .dwattr $C$DW$T$10, DW_AT_byte_size(0x01)
   11556              $C$DW$T$11      .dwtag  DW_TAG_base_type
   11557                      .dwattr $C$DW$T$11, DW_AT_encoding(DW_ATE_unsigned)
   11558                      .dwattr $C$DW$T$11, DW_AT_name("unsigned int")
   11559                      .dwattr $C$DW$T$11, DW_AT_byte_size(0x01)
   11560              $C$DW$T$34      .dwtag  DW_TAG_typedef, DW_AT_name("Uint16")
   11561                      .dwattr $C$DW$T$34, DW_AT_type(*$C$DW$T$11)
   11562                      .dwattr $C$DW$T$34, DW_AT_language(DW_LANG_C)
   11563              
   11564              $C$DW$T$162     .dwtag  DW_TAG_array_type
   11565                      .dwattr $C$DW$T$162, DW_AT_type(*$C$DW$T$34)
   11566                      .dwattr $C$DW$T$162, DW_AT_language(DW_LANG_C)
   11567                      .dwattr $C$DW$T$162, DW_AT_byte_size(0x02)
   11568              $C$DW$1417      .dwtag  DW_TAG_subrange_type
   11569                      .dwattr $C$DW$1417, DW_AT_upper_bound(0x01)
   11570                      .dwendtag $C$DW$T$162
   11571              
   11572              
   11573              $C$DW$T$163     .dwtag  DW_TAG_array_type
   11574                      .dwattr $C$DW$T$163, DW_AT_type(*$C$DW$T$34)
   11575                      .dwattr $C$DW$T$163, DW_AT_language(DW_LANG_C)
   11576                      .dwattr $C$DW$T$163, DW_AT_byte_size(0x0b)
   11577              $C$DW$1418      .dwtag  DW_TAG_subrange_type
   11578                      .dwattr $C$DW$1418, DW_AT_upper_bound(0x0a)
   11579                      .dwendtag $C$DW$T$163
   11580              
   11581              
   11582              $C$DW$T$164     .dwtag  DW_TAG_array_type
   11583                      .dwattr $C$DW$T$164, DW_AT_type(*$C$DW$T$34)
   11584                      .dwattr $C$DW$T$164, DW_AT_language(DW_LANG_C)
TMS320C2000 Assembler PC v6.4.2 Thu Dec 14 15:27:05 2017

Tools Copyright (c) 1996-2015 Texas Instruments Incorporated
fsm_main.asm                                                         PAGE  214

   11585                      .dwattr $C$DW$T$164, DW_AT_byte_size(0x04)
   11586              $C$DW$1419      .dwtag  DW_TAG_subrange_type
   11587                      .dwattr $C$DW$1419, DW_AT_upper_bound(0x03)
   11588                      .dwendtag $C$DW$T$164
   11589              
   11590              
   11591              $C$DW$T$165     .dwtag  DW_TAG_array_type
   11592                      .dwattr $C$DW$T$165, DW_AT_type(*$C$DW$T$34)
   11593                      .dwattr $C$DW$T$165, DW_AT_language(DW_LANG_C)
   11594                      .dwattr $C$DW$T$165, DW_AT_byte_size(0x05)
   11595              $C$DW$1420      .dwtag  DW_TAG_subrange_type
   11596                      .dwattr $C$DW$1420, DW_AT_upper_bound(0x04)
   11597                      .dwendtag $C$DW$T$165
   11598              
   11599              
   11600              $C$DW$T$166     .dwtag  DW_TAG_array_type
   11601                      .dwattr $C$DW$T$166, DW_AT_type(*$C$DW$T$34)
   11602                      .dwattr $C$DW$T$166, DW_AT_language(DW_LANG_C)
   11603                      .dwattr $C$DW$T$166, DW_AT_byte_size(0x06)
   11604              $C$DW$1421      .dwtag  DW_TAG_subrange_type
   11605                      .dwattr $C$DW$1421, DW_AT_upper_bound(0x05)
   11606                      .dwendtag $C$DW$T$166
   11607              
   11608              
   11609              $C$DW$T$167     .dwtag  DW_TAG_array_type
   11610                      .dwattr $C$DW$T$167, DW_AT_type(*$C$DW$T$34)
   11611                      .dwattr $C$DW$T$167, DW_AT_language(DW_LANG_C)
   11612                      .dwattr $C$DW$T$167, DW_AT_byte_size(0x03)
   11613              $C$DW$1422      .dwtag  DW_TAG_subrange_type
   11614                      .dwattr $C$DW$1422, DW_AT_upper_bound(0x02)
   11615                      .dwendtag $C$DW$T$167
   11616              
   11617              
   11618              $C$DW$T$168     .dwtag  DW_TAG_array_type
   11619                      .dwattr $C$DW$T$168, DW_AT_type(*$C$DW$T$34)
   11620                      .dwattr $C$DW$T$168, DW_AT_language(DW_LANG_C)
   11621                      .dwattr $C$DW$T$168, DW_AT_byte_size(0x0c)
   11622              $C$DW$1423      .dwtag  DW_TAG_subrange_type
   11623                      .dwattr $C$DW$1423, DW_AT_upper_bound(0x0b)
   11624                      .dwendtag $C$DW$T$168
   11625              
   11626              
   11627              $C$DW$T$169     .dwtag  DW_TAG_array_type
   11628                      .dwattr $C$DW$T$169, DW_AT_type(*$C$DW$T$34)
   11629                      .dwattr $C$DW$T$169, DW_AT_language(DW_LANG_C)
   11630                      .dwattr $C$DW$T$169, DW_AT_byte_size(0x08)
   11631              $C$DW$1424      .dwtag  DW_TAG_subrange_type
   11632                      .dwattr $C$DW$1424, DW_AT_upper_bound(0x07)
   11633                      .dwendtag $C$DW$T$169
   11634              
   11635              
   11636              $C$DW$T$170     .dwtag  DW_TAG_array_type
   11637                      .dwattr $C$DW$T$170, DW_AT_type(*$C$DW$T$34)
   11638                      .dwattr $C$DW$T$170, DW_AT_language(DW_LANG_C)
   11639                      .dwattr $C$DW$T$170, DW_AT_byte_size(0x2a)
TMS320C2000 Assembler PC v6.4.2 Thu Dec 14 15:27:05 2017

Tools Copyright (c) 1996-2015 Texas Instruments Incorporated
fsm_main.asm                                                         PAGE  215

   11640              $C$DW$1425      .dwtag  DW_TAG_subrange_type
   11641                      .dwattr $C$DW$1425, DW_AT_upper_bound(0x29)
   11642                      .dwendtag $C$DW$T$170
   11643              
   11644              $C$DW$T$305     .dwtag  DW_TAG_typedef, DW_AT_name("uint16_t")
   11645                      .dwattr $C$DW$T$305, DW_AT_type(*$C$DW$T$11)
   11646                      .dwattr $C$DW$T$305, DW_AT_language(DW_LANG_C)
   11647              $C$DW$T$308     .dwtag  DW_TAG_pointer_type
   11648                      .dwattr $C$DW$T$308, DW_AT_type(*$C$DW$T$305)
   11649                      .dwattr $C$DW$T$308, DW_AT_address_class(0x20)
   11650              $C$DW$T$12      .dwtag  DW_TAG_base_type
   11651                      .dwattr $C$DW$T$12, DW_AT_encoding(DW_ATE_signed)
   11652                      .dwattr $C$DW$T$12, DW_AT_name("long")
   11653                      .dwattr $C$DW$T$12, DW_AT_byte_size(0x02)
   11654              $C$DW$T$40      .dwtag  DW_TAG_typedef, DW_AT_name("int32")
   11655                      .dwattr $C$DW$T$40, DW_AT_type(*$C$DW$T$12)
   11656                      .dwattr $C$DW$T$40, DW_AT_language(DW_LANG_C)
   11657              $C$DW$T$13      .dwtag  DW_TAG_base_type
   11658                      .dwattr $C$DW$T$13, DW_AT_encoding(DW_ATE_unsigned)
   11659                      .dwattr $C$DW$T$13, DW_AT_name("unsigned long")
   11660                      .dwattr $C$DW$T$13, DW_AT_byte_size(0x02)
   11661              $C$DW$T$20      .dwtag  DW_TAG_typedef, DW_AT_name("Uint32")
   11662                      .dwattr $C$DW$T$20, DW_AT_type(*$C$DW$T$13)
   11663                      .dwattr $C$DW$T$20, DW_AT_language(DW_LANG_C)
   11664              $C$DW$T$326     .dwtag  DW_TAG_typedef, DW_AT_name("uint32_t")
   11665                      .dwattr $C$DW$T$326, DW_AT_type(*$C$DW$T$13)
   11666                      .dwattr $C$DW$T$326, DW_AT_language(DW_LANG_C)
   11667              $C$DW$1426      .dwtag  DW_TAG_TI_far_type
   11668                      .dwattr $C$DW$1426, DW_AT_type(*$C$DW$T$326)
   11669              $C$DW$T$327     .dwtag  DW_TAG_const_type
   11670                      .dwattr $C$DW$T$327, DW_AT_type(*$C$DW$1426)
   11671              $C$DW$T$14      .dwtag  DW_TAG_base_type
   11672                      .dwattr $C$DW$T$14, DW_AT_encoding(DW_ATE_signed)
   11673                      .dwattr $C$DW$T$14, DW_AT_name("long long")
   11674                      .dwattr $C$DW$T$14, DW_AT_byte_size(0x04)
   11675              $C$DW$T$15      .dwtag  DW_TAG_base_type
   11676                      .dwattr $C$DW$T$15, DW_AT_encoding(DW_ATE_unsigned)
   11677                      .dwattr $C$DW$T$15, DW_AT_name("unsigned long long")
   11678                      .dwattr $C$DW$T$15, DW_AT_byte_size(0x04)
   11679              $C$DW$T$16      .dwtag  DW_TAG_base_type
   11680                      .dwattr $C$DW$T$16, DW_AT_encoding(DW_ATE_float)
   11681                      .dwattr $C$DW$T$16, DW_AT_name("float")
   11682                      .dwattr $C$DW$T$16, DW_AT_byte_size(0x02)
   11683              $C$DW$T$321     .dwtag  DW_TAG_pointer_type
   11684                      .dwattr $C$DW$T$321, DW_AT_type(*$C$DW$T$16)
   11685                      .dwattr $C$DW$T$321, DW_AT_address_class(0x20)
   11686              $C$DW$T$22      .dwtag  DW_TAG_typedef, DW_AT_name("_iq")
   11687                      .dwattr $C$DW$T$22, DW_AT_type(*$C$DW$T$16)
   11688                      .dwattr $C$DW$T$22, DW_AT_language(DW_LANG_C)
   11689              $C$DW$T$39      .dwtag  DW_TAG_typedef, DW_AT_name("_iq21")
   11690                      .dwattr $C$DW$T$39, DW_AT_type(*$C$DW$T$16)
   11691                      .dwattr $C$DW$T$39, DW_AT_language(DW_LANG_C)
   11692              $C$DW$T$19      .dwtag  DW_TAG_typedef, DW_AT_name("float32")
   11693                      .dwattr $C$DW$T$19, DW_AT_type(*$C$DW$T$16)
   11694                      .dwattr $C$DW$T$19, DW_AT_language(DW_LANG_C)
TMS320C2000 Assembler PC v6.4.2 Thu Dec 14 15:27:05 2017

Tools Copyright (c) 1996-2015 Texas Instruments Incorporated
fsm_main.asm                                                         PAGE  216

   11695              $C$DW$T$17      .dwtag  DW_TAG_base_type
   11696                      .dwattr $C$DW$T$17, DW_AT_encoding(DW_ATE_float)
   11697                      .dwattr $C$DW$T$17, DW_AT_name("double")
   11698                      .dwattr $C$DW$T$17, DW_AT_byte_size(0x02)
   11699              $C$DW$T$18      .dwtag  DW_TAG_base_type
   11700                      .dwattr $C$DW$T$18, DW_AT_encoding(DW_ATE_float)
   11701                      .dwattr $C$DW$T$18, DW_AT_name("long double")
   11702                      .dwattr $C$DW$T$18, DW_AT_byte_size(0x04)
   11703              $C$DW$T$287     .dwtag  DW_TAG_pointer_type
   11704                      .dwattr $C$DW$T$287, DW_AT_type(*$C$DW$T$5)
   11705                      .dwattr $C$DW$T$287, DW_AT_address_class(0x20)
   11706              
   11707              $C$DW$T$328     .dwtag  DW_TAG_array_type
   11708                      .dwattr $C$DW$T$328, DW_AT_type(*$C$DW$T$5)
   11709                      .dwattr $C$DW$T$328, DW_AT_language(DW_LANG_C)
   11710                      .dwattr $C$DW$T$328, DW_AT_byte_size(0x64)
   11711              $C$DW$1427      .dwtag  DW_TAG_subrange_type
   11712                      .dwattr $C$DW$1427, DW_AT_upper_bound(0x63)
   11713                      .dwendtag $C$DW$T$328
   11714              
   11715              
   11716              $C$DW$T$280     .dwtag  DW_TAG_structure_type
   11717                      .dwattr $C$DW$T$280, DW_AT_name("piCtrl_t")
   11718                      .dwattr $C$DW$T$280, DW_AT_byte_size(0x14)
   11719              $C$DW$1428      .dwtag  DW_TAG_member
   11720                      .dwattr $C$DW$1428, DW_AT_type(*$C$DW$T$16)
   11721                      .dwattr $C$DW$1428, DW_AT_name("ref")
   11722                      .dwattr $C$DW$1428, DW_AT_TI_symbol_name("_ref")
   11723                      .dwattr $C$DW$1428, DW_AT_data_member_location[DW_OP_plus_uconst 0x0]
   11724                      .dwattr $C$DW$1428, DW_AT_accessibility(DW_ACCESS_public)
   11725              $C$DW$1429      .dwtag  DW_TAG_member
   11726                      .dwattr $C$DW$1429, DW_AT_type(*$C$DW$T$16)
   11727                      .dwattr $C$DW$1429, DW_AT_name("fbk")
   11728                      .dwattr $C$DW$1429, DW_AT_TI_symbol_name("_fbk")
   11729                      .dwattr $C$DW$1429, DW_AT_data_member_location[DW_OP_plus_uconst 0x2]
   11730                      .dwattr $C$DW$1429, DW_AT_accessibility(DW_ACCESS_public)
   11731              $C$DW$1430      .dwtag  DW_TAG_member
   11732                      .dwattr $C$DW$1430, DW_AT_type(*$C$DW$T$16)
   11733                      .dwattr $C$DW$1430, DW_AT_name("e")
   11734                      .dwattr $C$DW$1430, DW_AT_TI_symbol_name("_e")
   11735                      .dwattr $C$DW$1430, DW_AT_data_member_location[DW_OP_plus_uconst 0x4]
   11736                      .dwattr $C$DW$1430, DW_AT_accessibility(DW_ACCESS_public)
   11737              $C$DW$1431      .dwtag  DW_TAG_member
   11738                      .dwattr $C$DW$1431, DW_AT_type(*$C$DW$T$16)
   11739                      .dwattr $C$DW$1431, DW_AT_name("e0")
   11740                      .dwattr $C$DW$1431, DW_AT_TI_symbol_name("_e0")
   11741                      .dwattr $C$DW$1431, DW_AT_data_member_location[DW_OP_plus_uconst 0x6]
   11742                      .dwattr $C$DW$1431, DW_AT_accessibility(DW_ACCESS_public)
   11743              $C$DW$1432      .dwtag  DW_TAG_member
   11744                      .dwattr $C$DW$1432, DW_AT_type(*$C$DW$T$16)
   11745                      .dwattr $C$DW$1432, DW_AT_name("u")
   11746                      .dwattr $C$DW$1432, DW_AT_TI_symbol_name("_u")
   11747                      .dwattr $C$DW$1432, DW_AT_data_member_location[DW_OP_plus_uconst 0x8]
   11748                      .dwattr $C$DW$1432, DW_AT_accessibility(DW_ACCESS_public)
   11749              $C$DW$1433      .dwtag  DW_TAG_member
TMS320C2000 Assembler PC v6.4.2 Thu Dec 14 15:27:05 2017

Tools Copyright (c) 1996-2015 Texas Instruments Incorporated
fsm_main.asm                                                         PAGE  217

   11750                      .dwattr $C$DW$1433, DW_AT_type(*$C$DW$T$16)
   11751                      .dwattr $C$DW$1433, DW_AT_name("u0")
   11752                      .dwattr $C$DW$1433, DW_AT_TI_symbol_name("_u0")
   11753                      .dwattr $C$DW$1433, DW_AT_data_member_location[DW_OP_plus_uconst 0xa]
   11754                      .dwattr $C$DW$1433, DW_AT_accessibility(DW_ACCESS_public)
   11755              $C$DW$1434      .dwtag  DW_TAG_member
   11756                      .dwattr $C$DW$1434, DW_AT_type(*$C$DW$T$16)
   11757                      .dwattr $C$DW$1434, DW_AT_name("uMin")
   11758                      .dwattr $C$DW$1434, DW_AT_TI_symbol_name("_uMin")
   11759                      .dwattr $C$DW$1434, DW_AT_data_member_location[DW_OP_plus_uconst 0xc]
   11760                      .dwattr $C$DW$1434, DW_AT_accessibility(DW_ACCESS_public)
   11761              $C$DW$1435      .dwtag  DW_TAG_member
   11762                      .dwattr $C$DW$1435, DW_AT_type(*$C$DW$T$16)
   11763                      .dwattr $C$DW$1435, DW_AT_name("uMax")
   11764                      .dwattr $C$DW$1435, DW_AT_TI_symbol_name("_uMax")
   11765                      .dwattr $C$DW$1435, DW_AT_data_member_location[DW_OP_plus_uconst 0xe]
   11766                      .dwattr $C$DW$1435, DW_AT_accessibility(DW_ACCESS_public)
   11767              $C$DW$1436      .dwtag  DW_TAG_member
   11768                      .dwattr $C$DW$1436, DW_AT_type(*$C$DW$T$16)
   11769                      .dwattr $C$DW$1436, DW_AT_name("c0")
   11770                      .dwattr $C$DW$1436, DW_AT_TI_symbol_name("_c0")
   11771                      .dwattr $C$DW$1436, DW_AT_data_member_location[DW_OP_plus_uconst 0x10]
   11772                      .dwattr $C$DW$1436, DW_AT_accessibility(DW_ACCESS_public)
   11773              $C$DW$1437      .dwtag  DW_TAG_member
   11774                      .dwattr $C$DW$1437, DW_AT_type(*$C$DW$T$16)
   11775                      .dwattr $C$DW$1437, DW_AT_name("c1")
   11776                      .dwattr $C$DW$1437, DW_AT_TI_symbol_name("_c1")
   11777                      .dwattr $C$DW$1437, DW_AT_data_member_location[DW_OP_plus_uconst 0x12]
   11778                      .dwattr $C$DW$1437, DW_AT_accessibility(DW_ACCESS_public)
   11779                      .dwendtag $C$DW$T$280
   11780              
   11781                      .dwattr $C$DW$CU, DW_AT_language(DW_LANG_C)
   11782              
   11783              ;***************************************************************
   11784              ;* DWARF CIE ENTRIES                                           *
   11785              ;***************************************************************
   11786              
   11787              $C$DW$CIE       .dwcie 26
   11788                      .dwcfi  cfa_register, 20
   11789                      .dwcfi  cfa_offset, 0
   11790                      .dwcfi  undefined, 0
   11791                      .dwcfi  undefined, 1
   11792                      .dwcfi  undefined, 2
   11793                      .dwcfi  undefined, 3
   11794                      .dwcfi  undefined, 20
   11795                      .dwcfi  undefined, 21
   11796                      .dwcfi  undefined, 22
   11797                      .dwcfi  undefined, 23
   11798                      .dwcfi  undefined, 24
   11799                      .dwcfi  undefined, 25
   11800                      .dwcfi  undefined, 26
   11801                      .dwcfi  same_value, 28
   11802                      .dwcfi  undefined, 29
   11803                      .dwcfi  undefined, 30
   11804                      .dwcfi  undefined, 31
TMS320C2000 Assembler PC v6.4.2 Thu Dec 14 15:27:05 2017

Tools Copyright (c) 1996-2015 Texas Instruments Incorporated
fsm_main.asm                                                         PAGE  218

   11805                      .dwcfi  undefined, 32
   11806                      .dwcfi  undefined, 33
   11807                      .dwcfi  undefined, 34
   11808                      .dwcfi  undefined, 35
   11809                      .dwcfi  undefined, 36
   11810                      .dwcfi  undefined, 37
   11811                      .dwcfi  undefined, 38
   11812                      .dwcfi  undefined, 75
   11813                      .dwcfi  undefined, 76
   11814                      .dwcfi  undefined, 77
   11815                      .dwcfi  undefined, 4
   11816                      .dwcfi  undefined, 5
   11817                      .dwcfi  same_value, 6
   11818                      .dwcfi  same_value, 7
   11819                      .dwcfi  same_value, 8
   11820                      .dwcfi  same_value, 9
   11821                      .dwcfi  same_value, 10
   11822                      .dwcfi  same_value, 11
   11823                      .dwcfi  undefined, 12
   11824                      .dwcfi  undefined, 13
   11825                      .dwcfi  undefined, 14
   11826                      .dwcfi  undefined, 15
   11827                      .dwcfi  undefined, 16
   11828                      .dwcfi  undefined, 17
   11829                      .dwcfi  undefined, 18
   11830                      .dwcfi  undefined, 19
   11831                      .dwcfi  undefined, 43
   11832                      .dwcfi  undefined, 44
   11833                      .dwcfi  undefined, 47
   11834                      .dwcfi  undefined, 48
   11835                      .dwcfi  undefined, 51
   11836                      .dwcfi  undefined, 52
   11837                      .dwcfi  undefined, 55
   11838                      .dwcfi  undefined, 56
   11839                      .dwcfi  same_value, 59
   11840                      .dwcfi  same_value, 60
   11841                      .dwcfi  same_value, 63
   11842                      .dwcfi  same_value, 64
   11843                      .dwcfi  same_value, 67
   11844                      .dwcfi  same_value, 68
   11845                      .dwcfi  same_value, 71
   11846                      .dwcfi  same_value, 72
   11847                      .dwcfi  undefined, 73
   11848                      .dwcfi  undefined, 74
   11849                      .dwcfi  undefined, 39
   11850                      .dwcfi  undefined, 40
   11851                      .dwcfi  undefined, 27
   11852                      .dwendentry
   11853              
   11854              ;***************************************************************
   11855              ;* DWARF REGISTER MAP                                          *
   11856              ;***************************************************************
   11857              
   11858              $C$DW$1438      .dwtag  DW_TAG_TI_assign_register, DW_AT_name("AL")
   11859                      .dwattr $C$DW$1438, DW_AT_location[DW_OP_reg0]
TMS320C2000 Assembler PC v6.4.2 Thu Dec 14 15:27:05 2017

Tools Copyright (c) 1996-2015 Texas Instruments Incorporated
fsm_main.asm                                                         PAGE  219

   11860              $C$DW$1439      .dwtag  DW_TAG_TI_assign_register, DW_AT_name("AH")
   11861                      .dwattr $C$DW$1439, DW_AT_location[DW_OP_reg1]
   11862              $C$DW$1440      .dwtag  DW_TAG_TI_assign_register, DW_AT_name("PL")
   11863                      .dwattr $C$DW$1440, DW_AT_location[DW_OP_reg2]
   11864              $C$DW$1441      .dwtag  DW_TAG_TI_assign_register, DW_AT_name("PH")
   11865                      .dwattr $C$DW$1441, DW_AT_location[DW_OP_reg3]
   11866              $C$DW$1442      .dwtag  DW_TAG_TI_assign_register, DW_AT_name("SP")
   11867                      .dwattr $C$DW$1442, DW_AT_location[DW_OP_reg20]
   11868              $C$DW$1443      .dwtag  DW_TAG_TI_assign_register, DW_AT_name("XT")
   11869                      .dwattr $C$DW$1443, DW_AT_location[DW_OP_reg21]
   11870              $C$DW$1444      .dwtag  DW_TAG_TI_assign_register, DW_AT_name("T")
   11871                      .dwattr $C$DW$1444, DW_AT_location[DW_OP_reg22]
   11872              $C$DW$1445      .dwtag  DW_TAG_TI_assign_register, DW_AT_name("ST0")
   11873                      .dwattr $C$DW$1445, DW_AT_location[DW_OP_reg23]
   11874              $C$DW$1446      .dwtag  DW_TAG_TI_assign_register, DW_AT_name("ST1")
   11875                      .dwattr $C$DW$1446, DW_AT_location[DW_OP_reg24]
   11876              $C$DW$1447      .dwtag  DW_TAG_TI_assign_register, DW_AT_name("PC")
   11877                      .dwattr $C$DW$1447, DW_AT_location[DW_OP_reg25]
   11878              $C$DW$1448      .dwtag  DW_TAG_TI_assign_register, DW_AT_name("RPC")
   11879                      .dwattr $C$DW$1448, DW_AT_location[DW_OP_reg26]
   11880              $C$DW$1449      .dwtag  DW_TAG_TI_assign_register, DW_AT_name("FP")
   11881                      .dwattr $C$DW$1449, DW_AT_location[DW_OP_reg28]
   11882              $C$DW$1450      .dwtag  DW_TAG_TI_assign_register, DW_AT_name("DP")
   11883                      .dwattr $C$DW$1450, DW_AT_location[DW_OP_reg29]
   11884              $C$DW$1451      .dwtag  DW_TAG_TI_assign_register, DW_AT_name("SXM")
   11885                      .dwattr $C$DW$1451, DW_AT_location[DW_OP_reg30]
   11886              $C$DW$1452      .dwtag  DW_TAG_TI_assign_register, DW_AT_name("PM")
   11887                      .dwattr $C$DW$1452, DW_AT_location[DW_OP_reg31]
   11888              $C$DW$1453      .dwtag  DW_TAG_TI_assign_register, DW_AT_name("OVM")
   11889                      .dwattr $C$DW$1453, DW_AT_location[DW_OP_regx 0x20]
   11890              $C$DW$1454      .dwtag  DW_TAG_TI_assign_register, DW_AT_name("PAGE0")
   11891                      .dwattr $C$DW$1454, DW_AT_location[DW_OP_regx 0x21]
   11892              $C$DW$1455      .dwtag  DW_TAG_TI_assign_register, DW_AT_name("AMODE")
   11893                      .dwattr $C$DW$1455, DW_AT_location[DW_OP_regx 0x22]
   11894              $C$DW$1456      .dwtag  DW_TAG_TI_assign_register, DW_AT_name("INTM")
   11895                      .dwattr $C$DW$1456, DW_AT_location[DW_OP_regx 0x23]
   11896              $C$DW$1457      .dwtag  DW_TAG_TI_assign_register, DW_AT_name("IFR")
   11897                      .dwattr $C$DW$1457, DW_AT_location[DW_OP_regx 0x24]
   11898              $C$DW$1458      .dwtag  DW_TAG_TI_assign_register, DW_AT_name("IER")
   11899                      .dwattr $C$DW$1458, DW_AT_location[DW_OP_regx 0x25]
   11900              $C$DW$1459      .dwtag  DW_TAG_TI_assign_register, DW_AT_name("V")
   11901                      .dwattr $C$DW$1459, DW_AT_location[DW_OP_regx 0x26]
   11902              $C$DW$1460      .dwtag  DW_TAG_TI_assign_register, DW_AT_name("PSEUDOH")
   11903                      .dwattr $C$DW$1460, DW_AT_location[DW_OP_regx 0x4c]
   11904              $C$DW$1461      .dwtag  DW_TAG_TI_assign_register, DW_AT_name("VOL")
   11905                      .dwattr $C$DW$1461, DW_AT_location[DW_OP_regx 0x4d]
   11906              $C$DW$1462      .dwtag  DW_TAG_TI_assign_register, DW_AT_name("AR0")
   11907                      .dwattr $C$DW$1462, DW_AT_location[DW_OP_reg4]
   11908              $C$DW$1463      .dwtag  DW_TAG_TI_assign_register, DW_AT_name("XAR0")
   11909                      .dwattr $C$DW$1463, DW_AT_location[DW_OP_reg5]
   11910              $C$DW$1464      .dwtag  DW_TAG_TI_assign_register, DW_AT_name("AR1")
   11911                      .dwattr $C$DW$1464, DW_AT_location[DW_OP_reg6]
   11912              $C$DW$1465      .dwtag  DW_TAG_TI_assign_register, DW_AT_name("XAR1")
   11913                      .dwattr $C$DW$1465, DW_AT_location[DW_OP_reg7]
   11914              $C$DW$1466      .dwtag  DW_TAG_TI_assign_register, DW_AT_name("AR2")
TMS320C2000 Assembler PC v6.4.2 Thu Dec 14 15:27:05 2017

Tools Copyright (c) 1996-2015 Texas Instruments Incorporated
fsm_main.asm                                                         PAGE  220

   11915                      .dwattr $C$DW$1466, DW_AT_location[DW_OP_reg8]
   11916              $C$DW$1467      .dwtag  DW_TAG_TI_assign_register, DW_AT_name("XAR2")
   11917                      .dwattr $C$DW$1467, DW_AT_location[DW_OP_reg9]
   11918              $C$DW$1468      .dwtag  DW_TAG_TI_assign_register, DW_AT_name("AR3")
   11919                      .dwattr $C$DW$1468, DW_AT_location[DW_OP_reg10]
   11920              $C$DW$1469      .dwtag  DW_TAG_TI_assign_register, DW_AT_name("XAR3")
   11921                      .dwattr $C$DW$1469, DW_AT_location[DW_OP_reg11]
   11922              $C$DW$1470      .dwtag  DW_TAG_TI_assign_register, DW_AT_name("AR4")
   11923                      .dwattr $C$DW$1470, DW_AT_location[DW_OP_reg12]
   11924              $C$DW$1471      .dwtag  DW_TAG_TI_assign_register, DW_AT_name("XAR4")
   11925                      .dwattr $C$DW$1471, DW_AT_location[DW_OP_reg13]
   11926              $C$DW$1472      .dwtag  DW_TAG_TI_assign_register, DW_AT_name("AR5")
   11927                      .dwattr $C$DW$1472, DW_AT_location[DW_OP_reg14]
   11928              $C$DW$1473      .dwtag  DW_TAG_TI_assign_register, DW_AT_name("XAR5")
   11929                      .dwattr $C$DW$1473, DW_AT_location[DW_OP_reg15]
   11930              $C$DW$1474      .dwtag  DW_TAG_TI_assign_register, DW_AT_name("AR6")
   11931                      .dwattr $C$DW$1474, DW_AT_location[DW_OP_reg16]
   11932              $C$DW$1475      .dwtag  DW_TAG_TI_assign_register, DW_AT_name("XAR6")
   11933                      .dwattr $C$DW$1475, DW_AT_location[DW_OP_reg17]
   11934              $C$DW$1476      .dwtag  DW_TAG_TI_assign_register, DW_AT_name("AR7")
   11935                      .dwattr $C$DW$1476, DW_AT_location[DW_OP_reg18]
   11936              $C$DW$1477      .dwtag  DW_TAG_TI_assign_register, DW_AT_name("XAR7")
   11937                      .dwattr $C$DW$1477, DW_AT_location[DW_OP_reg19]
   11938              $C$DW$1478      .dwtag  DW_TAG_TI_assign_register, DW_AT_name("R0HL")
   11939                      .dwattr $C$DW$1478, DW_AT_location[DW_OP_regx 0x2b]
   11940              $C$DW$1479      .dwtag  DW_TAG_TI_assign_register, DW_AT_name("R0H")
   11941                      .dwattr $C$DW$1479, DW_AT_location[DW_OP_regx 0x2c]
   11942              $C$DW$1480      .dwtag  DW_TAG_TI_assign_register, DW_AT_name("R1HL")
   11943                      .dwattr $C$DW$1480, DW_AT_location[DW_OP_regx 0x2f]
   11944              $C$DW$1481      .dwtag  DW_TAG_TI_assign_register, DW_AT_name("R1H")
   11945                      .dwattr $C$DW$1481, DW_AT_location[DW_OP_regx 0x30]
   11946              $C$DW$1482      .dwtag  DW_TAG_TI_assign_register, DW_AT_name("R2HL")
   11947                      .dwattr $C$DW$1482, DW_AT_location[DW_OP_regx 0x33]
   11948              $C$DW$1483      .dwtag  DW_TAG_TI_assign_register, DW_AT_name("R2H")
   11949                      .dwattr $C$DW$1483, DW_AT_location[DW_OP_regx 0x34]
   11950              $C$DW$1484      .dwtag  DW_TAG_TI_assign_register, DW_AT_name("R3HL")
   11951                      .dwattr $C$DW$1484, DW_AT_location[DW_OP_regx 0x37]
   11952              $C$DW$1485      .dwtag  DW_TAG_TI_assign_register, DW_AT_name("R3H")
   11953                      .dwattr $C$DW$1485, DW_AT_location[DW_OP_regx 0x38]
   11954              $C$DW$1486      .dwtag  DW_TAG_TI_assign_register, DW_AT_name("R4HL")
   11955                      .dwattr $C$DW$1486, DW_AT_location[DW_OP_regx 0x3b]
   11956              $C$DW$1487      .dwtag  DW_TAG_TI_assign_register, DW_AT_name("R4H")
   11957                      .dwattr $C$DW$1487, DW_AT_location[DW_OP_regx 0x3c]
   11958              $C$DW$1488      .dwtag  DW_TAG_TI_assign_register, DW_AT_name("R5HL")
   11959                      .dwattr $C$DW$1488, DW_AT_location[DW_OP_regx 0x3f]
   11960              $C$DW$1489      .dwtag  DW_TAG_TI_assign_register, DW_AT_name("R5H")
   11961                      .dwattr $C$DW$1489, DW_AT_location[DW_OP_regx 0x40]
   11962              $C$DW$1490      .dwtag  DW_TAG_TI_assign_register, DW_AT_name("R6HL")
   11963                      .dwattr $C$DW$1490, DW_AT_location[DW_OP_regx 0x43]
   11964              $C$DW$1491      .dwtag  DW_TAG_TI_assign_register, DW_AT_name("R6H")
   11965                      .dwattr $C$DW$1491, DW_AT_location[DW_OP_regx 0x44]
   11966              $C$DW$1492      .dwtag  DW_TAG_TI_assign_register, DW_AT_name("R7HL")
   11967                      .dwattr $C$DW$1492, DW_AT_location[DW_OP_regx 0x47]
   11968              $C$DW$1493      .dwtag  DW_TAG_TI_assign_register, DW_AT_name("R7H")
   11969                      .dwattr $C$DW$1493, DW_AT_location[DW_OP_regx 0x48]
TMS320C2000 Assembler PC v6.4.2 Thu Dec 14 15:27:05 2017

Tools Copyright (c) 1996-2015 Texas Instruments Incorporated
fsm_main.asm                                                         PAGE  221

   11970              $C$DW$1494      .dwtag  DW_TAG_TI_assign_register, DW_AT_name("RBL")
   11971                      .dwattr $C$DW$1494, DW_AT_location[DW_OP_regx 0x49]
   11972              $C$DW$1495      .dwtag  DW_TAG_TI_assign_register, DW_AT_name("RB")
   11973                      .dwattr $C$DW$1495, DW_AT_location[DW_OP_regx 0x4a]
   11974              $C$DW$1496      .dwtag  DW_TAG_TI_assign_register, DW_AT_name("STFL")
   11975                      .dwattr $C$DW$1496, DW_AT_location[DW_OP_regx 0x27]
   11976              $C$DW$1497      .dwtag  DW_TAG_TI_assign_register, DW_AT_name("STF")
   11977                      .dwattr $C$DW$1497, DW_AT_location[DW_OP_regx 0x28]
   11978              $C$DW$1498      .dwtag  DW_TAG_TI_assign_register, DW_AT_name("FPUHAZ")
   11979                      .dwattr $C$DW$1498, DW_AT_location[DW_OP_reg27]
   11980                      .dwendtag $C$DW$CU
   11981              

No Assembly Errors, No Assembly Warnings
