TMS320C2000 Assembler PC v6.4.2 Thu Dec 14 13:37:55 2017

Tools Copyright (c) 1996-2015 Texas Instruments Incorporated
fsm_main.asm                                                         PAGE    1

       1              ;***************************************************************
       2              ;* TMS320C2000 C/C++ Codegen                         PC v6.4.2 *
       3              ;* Date/Time created: Thu Dec 14 13:37:54 2017                 *
       4              ;***************************************************************
       5                      .compiler_opts --cla_support=cla0 --float_support=fpu32 --hll_source=on --mem_model:code=flat --mem_m
       6        0002  FP      .set    XAR2
       7              
       8              $C$DW$CU        .dwtag  DW_TAG_compile_unit
       9                      .dwattr $C$DW$CU, DW_AT_name("../Source/App/fsm_main.c")
      10                      .dwattr $C$DW$CU, DW_AT_producer("TI TMS320C2000 C/C++ Codegen PC v6.4.2 Copyright (c) 1996-2015 Texa
      11                      .dwattr $C$DW$CU, DW_AT_TI_version(0x01)
      12                      .dwattr $C$DW$CU, DW_AT_comp_dir("U:\02_MSE\MT\07_Software\CCS_workspace\DiffDrive_v0.93\F2837x_FLASH
      13              
      14              $C$DW$1 .dwtag  DW_TAG_subprogram, DW_AT_name("send_state_change_command")
      15                      .dwattr $C$DW$1, DW_AT_TI_symbol_name("_send_state_change_command")
      16                      .dwattr $C$DW$1, DW_AT_declaration
      17                      .dwattr $C$DW$1, DW_AT_external
      18              $C$DW$2 .dwtag  DW_TAG_formal_parameter
      19                      .dwattr $C$DW$2, DW_AT_type(*$C$DW$T$290)
      20                      .dwendtag $C$DW$1
      21              
      22              
      23              $C$DW$3 .dwtag  DW_TAG_subprogram, DW_AT_name("put_calibration_data_to_string")
      24                      .dwattr $C$DW$3, DW_AT_TI_symbol_name("_put_calibration_data_to_string")
      25                      .dwattr $C$DW$3, DW_AT_declaration
      26                      .dwattr $C$DW$3, DW_AT_external
      27              $C$DW$4 .dwtag  DW_TAG_formal_parameter
      28                      .dwattr $C$DW$4, DW_AT_type(*$C$DW$T$286)
      29              $C$DW$5 .dwtag  DW_TAG_formal_parameter
      30                      .dwattr $C$DW$5, DW_AT_type(*$C$DW$T$309)
      31                      .dwendtag $C$DW$3
      32              
      33              
      34              $C$DW$6 .dwtag  DW_TAG_subprogram, DW_AT_name("send_Command")
      35                      .dwattr $C$DW$6, DW_AT_TI_symbol_name("_send_Command")
      36                      .dwattr $C$DW$6, DW_AT_declaration
      37                      .dwattr $C$DW$6, DW_AT_external
      38              $C$DW$7 .dwtag  DW_TAG_formal_parameter
      39                      .dwattr $C$DW$7, DW_AT_type(*$C$DW$T$286)
      40              $C$DW$8 .dwtag  DW_TAG_formal_parameter
      41                      .dwattr $C$DW$8, DW_AT_type(*$C$DW$T$306)
      42                      .dwendtag $C$DW$6
      43              
      44              
      45              $C$DW$9 .dwtag  DW_TAG_subprogram, DW_AT_name("hal_led_on_all")
      46                      .dwattr $C$DW$9, DW_AT_TI_symbol_name("_hal_led_on_all")
      47                      .dwattr $C$DW$9, DW_AT_declaration
      48                      .dwattr $C$DW$9, DW_AT_external
      49              
      50              $C$DW$10        .dwtag  DW_TAG_subprogram, DW_AT_name("hal_led_on")
      51                      .dwattr $C$DW$10, DW_AT_TI_symbol_name("_hal_led_on")
      52                      .dwattr $C$DW$10, DW_AT_declaration
      53                      .dwattr $C$DW$10, DW_AT_external
      54              $C$DW$11        .dwtag  DW_TAG_formal_parameter
      55                      .dwattr $C$DW$11, DW_AT_type(*$C$DW$T$34)
TMS320C2000 Assembler PC v6.4.2 Thu Dec 14 13:37:55 2017

Tools Copyright (c) 1996-2015 Texas Instruments Incorporated
fsm_main.asm                                                         PAGE    2

      56                      .dwendtag $C$DW$10
      57              
      58              
      59              $C$DW$12        .dwtag  DW_TAG_subprogram, DW_AT_name("hal_led_off_all")
      60                      .dwattr $C$DW$12, DW_AT_TI_symbol_name("_hal_led_off_all")
      61                      .dwattr $C$DW$12, DW_AT_declaration
      62                      .dwattr $C$DW$12, DW_AT_external
      63              
      64              $C$DW$13        .dwtag  DW_TAG_subprogram, DW_AT_name("hal_led_off")
      65                      .dwattr $C$DW$13, DW_AT_TI_symbol_name("_hal_led_off")
      66                      .dwattr $C$DW$13, DW_AT_declaration
      67                      .dwattr $C$DW$13, DW_AT_external
      68              $C$DW$14        .dwtag  DW_TAG_formal_parameter
      69                      .dwattr $C$DW$14, DW_AT_type(*$C$DW$T$34)
      70                      .dwendtag $C$DW$13
      71              
      72              
      73              $C$DW$15        .dwtag  DW_TAG_subprogram, DW_AT_name("set_servo_angle_ref")
      74                      .dwattr $C$DW$15, DW_AT_TI_symbol_name("_set_servo_angle_ref")
      75                      .dwattr $C$DW$15, DW_AT_declaration
      76                      .dwattr $C$DW$15, DW_AT_external
      77              $C$DW$16        .dwtag  DW_TAG_formal_parameter
      78                      .dwattr $C$DW$16, DW_AT_type(*$C$DW$T$16)
      79                      .dwendtag $C$DW$15
      80              
      81              
      82              $C$DW$17        .dwtag  DW_TAG_subprogram, DW_AT_name("init_steering_control")
      83                      .dwattr $C$DW$17, DW_AT_TI_symbol_name("_init_steering_control")
      84                      .dwattr $C$DW$17, DW_AT_declaration
      85                      .dwattr $C$DW$17, DW_AT_external
      86              $C$DW$18        .dwtag  DW_TAG_formal_parameter
      87                      .dwattr $C$DW$18, DW_AT_type(*$C$DW$T$294)
      88              $C$DW$19        .dwtag  DW_TAG_formal_parameter
      89                      .dwattr $C$DW$19, DW_AT_type(*$C$DW$T$20)
      90                      .dwendtag $C$DW$17
      91              
      92 00000000       _connected:     .usect  ".ebss",1,1,0
      93              $C$DW$20        .dwtag  DW_TAG_variable, DW_AT_name("connected")
      94                      .dwattr $C$DW$20, DW_AT_TI_symbol_name("_connected")
      95                      .dwattr $C$DW$20, DW_AT_type(*$C$DW$T$306)
      96                      .dwattr $C$DW$20, DW_AT_location[DW_OP_addr _connected]
      97              
      98              $C$DW$21        .dwtag  DW_TAG_subprogram, DW_AT_name("open_tcp_connection")
      99                      .dwattr $C$DW$21, DW_AT_TI_symbol_name("_open_tcp_connection")
     100                      .dwattr $C$DW$21, DW_AT_type(*$C$DW$T$306)
     101                      .dwattr $C$DW$21, DW_AT_declaration
     102                      .dwattr $C$DW$21, DW_AT_external
     103              
     104              $C$DW$22        .dwtag  DW_TAG_subprogram, DW_AT_name("exit_command_mode")
     105                      .dwattr $C$DW$22, DW_AT_TI_symbol_name("_exit_command_mode")
     106                      .dwattr $C$DW$22, DW_AT_type(*$C$DW$T$306)
     107                      .dwattr $C$DW$22, DW_AT_declaration
     108                      .dwattr $C$DW$22, DW_AT_external
     109              
     110              $C$DW$23        .dwtag  DW_TAG_subprogram, DW_AT_name("read_Command")
TMS320C2000 Assembler PC v6.4.2 Thu Dec 14 13:37:55 2017

Tools Copyright (c) 1996-2015 Texas Instruments Incorporated
fsm_main.asm                                                         PAGE    3

     111                      .dwattr $C$DW$23, DW_AT_TI_symbol_name("_read_Command")
     112                      .dwattr $C$DW$23, DW_AT_type(*$C$DW$T$284)
     113                      .dwattr $C$DW$23, DW_AT_declaration
     114                      .dwattr $C$DW$23, DW_AT_external
     115              $C$DW$24        .dwtag  DW_TAG_formal_parameter
     116                      .dwattr $C$DW$24, DW_AT_type(*$C$DW$T$286)
     117                      .dwendtag $C$DW$23
     118              
     119              
     120              $C$DW$25        .dwtag  DW_TAG_subprogram, DW_AT_name("close_tcp_connection")
     121                      .dwattr $C$DW$25, DW_AT_TI_symbol_name("_close_tcp_connection")
     122                      .dwattr $C$DW$25, DW_AT_type(*$C$DW$T$306)
     123                      .dwattr $C$DW$25, DW_AT_declaration
     124                      .dwattr $C$DW$25, DW_AT_external
     125              
     126              $C$DW$26        .dwtag  DW_TAG_subprogram, DW_AT_name("hal_button_read")
     127                      .dwattr $C$DW$26, DW_AT_TI_symbol_name("_hal_button_read")
     128                      .dwattr $C$DW$26, DW_AT_type(*$C$DW$T$34)
     129                      .dwattr $C$DW$26, DW_AT_declaration
     130                      .dwattr $C$DW$26, DW_AT_external
     131              $C$DW$27        .dwtag  DW_TAG_formal_parameter
     132                      .dwattr $C$DW$27, DW_AT_type(*$C$DW$T$34)
     133                      .dwendtag $C$DW$26
     134              
     135              
     136              $C$DW$28        .dwtag  DW_TAG_subprogram, DW_AT_name("GPIO_ReadPin")
     137                      .dwattr $C$DW$28, DW_AT_TI_symbol_name("_GPIO_ReadPin")
     138                      .dwattr $C$DW$28, DW_AT_type(*$C$DW$T$34)
     139                      .dwattr $C$DW$28, DW_AT_declaration
     140                      .dwattr $C$DW$28, DW_AT_external
     141              $C$DW$29        .dwtag  DW_TAG_formal_parameter
     142                      .dwattr $C$DW$29, DW_AT_type(*$C$DW$T$34)
     143                      .dwendtag $C$DW$28
     144              
     145              
     146              $C$DW$30        .dwtag  DW_TAG_subprogram, DW_AT_name("enter_command_mode")
     147                      .dwattr $C$DW$30, DW_AT_TI_symbol_name("_enter_command_mode")
     148                      .dwattr $C$DW$30, DW_AT_type(*$C$DW$T$306)
     149                      .dwattr $C$DW$30, DW_AT_declaration
     150                      .dwattr $C$DW$30, DW_AT_external
     151              
     152              $C$DW$31        .dwtag  DW_TAG_subprogram, DW_AT_name("execute_config_mode_cmd")
     153                      .dwattr $C$DW$31, DW_AT_TI_symbol_name("_execute_config_mode_cmd")
     154                      .dwattr $C$DW$31, DW_AT_type(*$C$DW$T$306)
     155                      .dwattr $C$DW$31, DW_AT_declaration
     156                      .dwattr $C$DW$31, DW_AT_external
     157              $C$DW$32        .dwtag  DW_TAG_formal_parameter
     158                      .dwattr $C$DW$32, DW_AT_type(*$C$DW$T$281)
     159                      .dwendtag $C$DW$31
     160              
     161              
     162              $C$DW$33        .dwtag  DW_TAG_subprogram, DW_AT_name("write_Flash")
     163                      .dwattr $C$DW$33, DW_AT_TI_symbol_name("_write_Flash")
     164                      .dwattr $C$DW$33, DW_AT_type(*$C$DW$T$306)
     165                      .dwattr $C$DW$33, DW_AT_declaration
TMS320C2000 Assembler PC v6.4.2 Thu Dec 14 13:37:55 2017

Tools Copyright (c) 1996-2015 Texas Instruments Incorporated
fsm_main.asm                                                         PAGE    4

     166                      .dwattr $C$DW$33, DW_AT_external
     167              $C$DW$34        .dwtag  DW_TAG_formal_parameter
     168                      .dwattr $C$DW$34, DW_AT_type(*$C$DW$T$286)
     169                      .dwendtag $C$DW$33
     170              
     171              
     172              $C$DW$35        .dwtag  DW_TAG_subprogram, DW_AT_name("erase_bank_0_sector_h")
     173                      .dwattr $C$DW$35, DW_AT_TI_symbol_name("_erase_bank_0_sector_h")
     174                      .dwattr $C$DW$35, DW_AT_type(*$C$DW$T$306)
     175                      .dwattr $C$DW$35, DW_AT_declaration
     176                      .dwattr $C$DW$35, DW_AT_external
     177 00000001       _state: .usect  ".ebss",1,1,0
     178              $C$DW$36        .dwtag  DW_TAG_variable, DW_AT_name("state")
     179                      .dwattr $C$DW$36, DW_AT_TI_symbol_name("_state")
     180                      .dwattr $C$DW$36, DW_AT_type(*$C$DW$T$290)
     181                      .dwattr $C$DW$36, DW_AT_location[DW_OP_addr _state]
     182              
     183              $C$DW$37        .dwtag  DW_TAG_subprogram, DW_AT_name("extract_config_mode_command")
     184                      .dwattr $C$DW$37, DW_AT_TI_symbol_name("_extract_config_mode_command")
     185                      .dwattr $C$DW$37, DW_AT_type(*$C$DW$T$306)
     186                      .dwattr $C$DW$37, DW_AT_declaration
     187                      .dwattr $C$DW$37, DW_AT_external
     188              $C$DW$38        .dwtag  DW_TAG_formal_parameter
     189                      .dwattr $C$DW$38, DW_AT_type(*$C$DW$T$286)
     190              $C$DW$39        .dwtag  DW_TAG_formal_parameter
     191                      .dwattr $C$DW$39, DW_AT_type(*$C$DW$T$282)
     192                      .dwendtag $C$DW$37
     193              
     194              
     195              $C$DW$40        .dwtag  DW_TAG_subprogram, DW_AT_name("extract_state_change_command")
     196                      .dwattr $C$DW$40, DW_AT_TI_symbol_name("_extract_state_change_command")
     197                      .dwattr $C$DW$40, DW_AT_type(*$C$DW$T$306)
     198                      .dwattr $C$DW$40, DW_AT_declaration
     199                      .dwattr $C$DW$40, DW_AT_external
     200              $C$DW$41        .dwtag  DW_TAG_formal_parameter
     201                      .dwattr $C$DW$41, DW_AT_type(*$C$DW$T$286)
     202              $C$DW$42        .dwtag  DW_TAG_formal_parameter
     203                      .dwattr $C$DW$42, DW_AT_type(*$C$DW$T$291)
     204                      .dwendtag $C$DW$40
     205              
     206              
     207              $C$DW$43        .dwtag  DW_TAG_subprogram, DW_AT_name("extract_drive_command")
     208                      .dwattr $C$DW$43, DW_AT_TI_symbol_name("_extract_drive_command")
     209                      .dwattr $C$DW$43, DW_AT_type(*$C$DW$T$306)
     210                      .dwattr $C$DW$43, DW_AT_declaration
     211                      .dwattr $C$DW$43, DW_AT_external
     212              $C$DW$44        .dwtag  DW_TAG_formal_parameter
     213                      .dwattr $C$DW$44, DW_AT_type(*$C$DW$T$286)
     214              $C$DW$45        .dwtag  DW_TAG_formal_parameter
     215                      .dwattr $C$DW$45, DW_AT_type(*$C$DW$T$322)
     216              $C$DW$46        .dwtag  DW_TAG_formal_parameter
     217                      .dwattr $C$DW$46, DW_AT_type(*$C$DW$T$322)
     218                      .dwendtag $C$DW$43
     219              
     220              
TMS320C2000 Assembler PC v6.4.2 Thu Dec 14 13:37:55 2017

Tools Copyright (c) 1996-2015 Texas Instruments Incorporated
fsm_main.asm                                                         PAGE    5

     221              $C$DW$47        .dwtag  DW_TAG_subprogram, DW_AT_name("check_if_changed")
     222                      .dwattr $C$DW$47, DW_AT_TI_symbol_name("_check_if_changed")
     223                      .dwattr $C$DW$47, DW_AT_type(*$C$DW$T$306)
     224                      .dwattr $C$DW$47, DW_AT_declaration
     225                      .dwattr $C$DW$47, DW_AT_external
     226 00000000               .sect   ".econst"
     227                      .align  2
     228 00000000       _TIMEOVERFLOW:
     229 00000000 03E8          .bits   1000,32                 ; _TIMEOVERFLOW @ 0
         00000001 0000 
     230              
     231              $C$DW$48        .dwtag  DW_TAG_variable, DW_AT_name("TIMEOVERFLOW")
     232                      .dwattr $C$DW$48, DW_AT_TI_symbol_name("_TIMEOVERFLOW")
     233                      .dwattr $C$DW$48, DW_AT_type(*$C$DW$T$328)
     234                      .dwattr $C$DW$48, DW_AT_location[DW_OP_addr _TIMEOVERFLOW]
     235              $C$DW$49        .dwtag  DW_TAG_variable, DW_AT_name("steeringContr")
     236                      .dwattr $C$DW$49, DW_AT_TI_symbol_name("_steeringContr")
     237                      .dwattr $C$DW$49, DW_AT_type(*$C$DW$T$293)
     238                      .dwattr $C$DW$49, DW_AT_declaration
     239                      .dwattr $C$DW$49, DW_AT_external
     240              $C$DW$50        .dwtag  DW_TAG_variable, DW_AT_name("motor1")
     241                      .dwattr $C$DW$50, DW_AT_TI_symbol_name("_motor1")
     242                      .dwattr $C$DW$50, DW_AT_type(*$C$DW$T$295)
     243                      .dwattr $C$DW$50, DW_AT_declaration
     244                      .dwattr $C$DW$50, DW_AT_external
     245              $C$DW$51        .dwtag  DW_TAG_variable, DW_AT_name("motor2")
     246                      .dwattr $C$DW$51, DW_AT_TI_symbol_name("_motor2")
     247                      .dwattr $C$DW$51, DW_AT_type(*$C$DW$T$295)
     248                      .dwattr $C$DW$51, DW_AT_declaration
     249                      .dwattr $C$DW$51, DW_AT_external
     250              ;       C:\ti\ccsv6\tools\compiler\ti-cgt-c2000_6.4.2\bin\ac2000.exe -@C:\\Users\\ficm\\AppData\\Local\\Temp\
     251 00000000               .sect   ".text"
     252                      .clink
     253                      .global _fsm_main_init
     254              
     255              $C$DW$52        .dwtag  DW_TAG_subprogram, DW_AT_name("fsm_main_init")
     256                      .dwattr $C$DW$52, DW_AT_low_pc(_fsm_main_init)
     257                      .dwattr $C$DW$52, DW_AT_high_pc(0x00)
     258                      .dwattr $C$DW$52, DW_AT_TI_symbol_name("_fsm_main_init")
     259                      .dwattr $C$DW$52, DW_AT_external
     260                      .dwattr $C$DW$52, DW_AT_type(*$C$DW$T$290)
     261                      .dwattr $C$DW$52, DW_AT_TI_begin_file("../Source/App/fsm_main.c")
     262                      .dwattr $C$DW$52, DW_AT_TI_begin_line(0x3e)
     263                      .dwattr $C$DW$52, DW_AT_TI_begin_column(0x12)
     264                      .dwattr $C$DW$52, DW_AT_TI_max_frame_size(-2)
     265                      .dwpsn  file "../Source/App/fsm_main.c",line 63,column 1,is_stmt,address _fsm_main_init,isa 0
     266              
     267                      .dwfde $C$DW$CIE, _fsm_main_init
     268              
     269              ;***************************************************************
     270              ;* FNAME: _fsm_main_init                FR SIZE:   0           *
     271              ;*                                                             *
     272              ;* FUNCTION ENVIRONMENT                                        *
     273              ;*                                                             *
     274              ;* FUNCTION PROPERTIES                                         *
TMS320C2000 Assembler PC v6.4.2 Thu Dec 14 13:37:55 2017

Tools Copyright (c) 1996-2015 Texas Instruments Incorporated
fsm_main.asm                                                         PAGE    6

     275              ;*                            0 Parameter,  0 Auto,  0 SOE     *
     276              ;***************************************************************
     277              
     278 00000000       _fsm_main_init:
     279                      .dwcfi  cfa_offset, -2
     280                      .dwcfi  save_reg_to_mem, 26, 0
     281                      .dwpsn  file "../Source/App/fsm_main.c",line 64,column 2,is_stmt,isa 0
     282 00000000 761F-         MOVW      DP,#_connected        ; [CPU_U] 
         00000001 0000 
     283 00000002 2B00-         MOV       @_connected,#0        ; [CPU_] |64| 
     284                      .dwpsn  file "../Source/App/fsm_main.c",line 65,column 2,is_stmt,isa 0
     285              $C$DW$53        .dwtag  DW_TAG_TI_branch
     286                      .dwattr $C$DW$53, DW_AT_low_pc(0x00)
     287                      .dwattr $C$DW$53, DW_AT_name("_fsm_init_stop")
     288                      .dwattr $C$DW$53, DW_AT_TI_call
     289 00000003 7640'         LCR       #_fsm_init_stop       ; [CPU_] |65| 
         00000004 011F 
     290                      ; call occurs [#_fsm_init_stop] ; [] |65| 
     291                      .dwpsn  file "../Source/App/fsm_main.c",line 66,column 5,is_stmt,isa 0
     292 00000005 761F-         MOVW      DP,#_state            ; [CPU_U] 
         00000006 0000 
     293 00000007 9201-         MOV       AL,@_state            ; [CPU_] |66| 
     294                      .dwpsn  file "../Source/App/fsm_main.c",line 67,column 1,is_stmt,isa 0
     295              $C$DW$54        .dwtag  DW_TAG_TI_branch
     296                      .dwattr $C$DW$54, DW_AT_low_pc(0x00)
     297                      .dwattr $C$DW$54, DW_AT_TI_return
     298 00000008 0006          LRETR     ; [CPU_] 
     299                      ; return occurs ; [] 
     300                      .dwattr $C$DW$52, DW_AT_TI_end_file("../Source/App/fsm_main.c")
     301                      .dwattr $C$DW$52, DW_AT_TI_end_line(0x43)
     302                      .dwattr $C$DW$52, DW_AT_TI_end_column(0x01)
     303                      .dwendentry
     304                      .dwendtag $C$DW$52
     305              
     306 00000009               .sect   ".text"
     307                      .clink
     308                      .global _fsm_main_set_state
     309              
     310              $C$DW$55        .dwtag  DW_TAG_subprogram, DW_AT_name("fsm_main_set_state")
     311                      .dwattr $C$DW$55, DW_AT_low_pc(_fsm_main_set_state)
     312                      .dwattr $C$DW$55, DW_AT_high_pc(0x00)
     313                      .dwattr $C$DW$55, DW_AT_TI_symbol_name("_fsm_main_set_state")
     314                      .dwattr $C$DW$55, DW_AT_external
     315                      .dwattr $C$DW$55, DW_AT_TI_begin_file("../Source/App/fsm_main.c")
     316                      .dwattr $C$DW$55, DW_AT_TI_begin_line(0x46)
     317                      .dwattr $C$DW$55, DW_AT_TI_begin_column(0x06)
     318                      .dwattr $C$DW$55, DW_AT_TI_max_frame_size(-4)
     319                      .dwpsn  file "../Source/App/fsm_main.c",line 71,column 1,is_stmt,address _fsm_main_set_state,isa 0
     320              
     321                      .dwfde $C$DW$CIE, _fsm_main_set_state
     322              $C$DW$56        .dwtag  DW_TAG_formal_parameter, DW_AT_name("new_state")
     323                      .dwattr $C$DW$56, DW_AT_TI_symbol_name("_new_state")
     324                      .dwattr $C$DW$56, DW_AT_type(*$C$DW$T$290)
     325                      .dwattr $C$DW$56, DW_AT_location[DW_OP_reg0]
     326              
TMS320C2000 Assembler PC v6.4.2 Thu Dec 14 13:37:55 2017

Tools Copyright (c) 1996-2015 Texas Instruments Incorporated
fsm_main.asm                                                         PAGE    7

     327              ;***************************************************************
     328              ;* FNAME: _fsm_main_set_state           FR SIZE:   2           *
     329              ;*                                                             *
     330              ;* FUNCTION ENVIRONMENT                                        *
     331              ;*                                                             *
     332              ;* FUNCTION PROPERTIES                                         *
     333              ;*                            0 Parameter,  1 Auto,  0 SOE     *
     334              ;***************************************************************
     335              
     336 00000009       _fsm_main_set_state:
     337                      .dwcfi  cfa_offset, -2
     338                      .dwcfi  save_reg_to_mem, 26, 0
     339 00000009 FE02          ADDB      SP,#2                 ; [CPU_U] 
     340                      .dwcfi  cfa_offset, -4
     341              $C$DW$57        .dwtag  DW_TAG_variable, DW_AT_name("new_state")
     342                      .dwattr $C$DW$57, DW_AT_TI_symbol_name("_new_state")
     343                      .dwattr $C$DW$57, DW_AT_type(*$C$DW$T$290)
     344                      .dwattr $C$DW$57, DW_AT_location[DW_OP_breg20 -1]
     345 0000000a 9641          MOV       *-SP[1],AL            ; [CPU_] |71| 
     346                      .dwpsn  file "../Source/App/fsm_main.c",line 72,column 2,is_stmt,isa 0
     347 0000000b 761F-         MOVW      DP,#_state            ; [CPU_U] 
         0000000c 0000 
     348 0000000d 8801-         MOVZ      AR6,@_state           ; [CPU_] |72| 
     349 0000000e 0E41          MOVU      ACC,*-SP[1]           ; [CPU_] |72| 
     350 0000000f 0FA6          CMPL      ACC,XAR6              ; [CPU_] |72| 
     351 00000010 EC29          BF        $C$L10,EQ             ; [CPU_] |72| 
     352                      ; branchcc occurs ; [] |72| 
     353                      .dwpsn  file "../Source/App/fsm_main.c",line 74,column 3,is_stmt,isa 0
     354 00000011 6F0A          B         $C$L4,UNC             ; [CPU_] |74| 
     355                      ; branch occurs ; [] |74| 
     356 00000012       $C$L1:    
     357                      .dwpsn  file "../Source/App/fsm_main.c",line 76,column 5,is_stmt,isa 0
     358              $C$DW$58        .dwtag  DW_TAG_TI_branch
     359                      .dwattr $C$DW$58, DW_AT_low_pc(0x00)
     360                      .dwattr $C$DW$58, DW_AT_name("_fsm_exit_stop")
     361                      .dwattr $C$DW$58, DW_AT_TI_call
     362 00000012 7640'         LCR       #_fsm_exit_stop       ; [CPU_] |76| 
         00000013 01FC 
     363                      ; call occurs [#_fsm_exit_stop] ; [] |76| 
     364                      .dwpsn  file "../Source/App/fsm_main.c",line 77,column 5,is_stmt,isa 0
     365 00000014 6F1C          B         $C$L9,UNC             ; [CPU_] |77| 
     366                      ; branch occurs ; [] |77| 
     367 00000015       $C$L2:    
     368                      .dwpsn  file "../Source/App/fsm_main.c",line 79,column 5,is_stmt,isa 0
     369              $C$DW$59        .dwtag  DW_TAG_TI_branch
     370                      .dwattr $C$DW$59, DW_AT_low_pc(0x00)
     371                      .dwattr $C$DW$59, DW_AT_name("_fsm_exit_config")
     372                      .dwattr $C$DW$59, DW_AT_TI_call
     373 00000015 7640'         LCR       #_fsm_exit_config     ; [CPU_] |79| 
         00000016 022F 
     374                      ; call occurs [#_fsm_exit_config] ; [] |79| 
     375                      .dwpsn  file "../Source/App/fsm_main.c",line 80,column 5,is_stmt,isa 0
     376 00000017 6F19          B         $C$L9,UNC             ; [CPU_] |80| 
     377                      ; branch occurs ; [] |80| 
     378 00000018       $C$L3:    
TMS320C2000 Assembler PC v6.4.2 Thu Dec 14 13:37:55 2017

Tools Copyright (c) 1996-2015 Texas Instruments Incorporated
fsm_main.asm                                                         PAGE    8

     379                      .dwpsn  file "../Source/App/fsm_main.c",line 82,column 5,is_stmt,isa 0
     380              $C$DW$60        .dwtag  DW_TAG_TI_branch
     381                      .dwattr $C$DW$60, DW_AT_low_pc(0x00)
     382                      .dwattr $C$DW$60, DW_AT_name("_fsm_exit_run")
     383                      .dwattr $C$DW$60, DW_AT_TI_call
     384 00000018 7640'         LCR       #_fsm_exit_run        ; [CPU_] |82| 
         00000019 024F 
     385                      ; call occurs [#_fsm_exit_run] ; [] |82| 
     386                      .dwpsn  file "../Source/App/fsm_main.c",line 83,column 5,is_stmt,isa 0
     387 0000001a 6F16          B         $C$L9,UNC             ; [CPU_] |83| 
     388                      ; branch occurs ; [] |83| 
     389 0000001b       $C$L4:    
     390                      .dwpsn  file "../Source/App/fsm_main.c",line 74,column 3,is_stmt,isa 0
     391 0000001b 9201-         MOV       AL,@_state            ; [CPU_] |74| 
     392 0000001c ECF6          BF        $C$L1,EQ              ; [CPU_] |74| 
     393                      ; branchcc occurs ; [] |74| 
     394 0000001d 5201          CMPB      AL,#1                 ; [CPU_] |74| 
     395 0000001e ECF7          BF        $C$L2,EQ              ; [CPU_] |74| 
     396                      ; branchcc occurs ; [] |74| 
     397 0000001f 5202          CMPB      AL,#2                 ; [CPU_] |74| 
     398 00000020 ECF8          BF        $C$L3,EQ              ; [CPU_] |74| 
     399                      ; branchcc occurs ; [] |74| 
     400 00000021 5203          CMPB      AL,#3                 ; [CPU_] |74| 
     401 00000022 EC1B          BF        $C$L11,EQ             ; [CPU_] |74| 
     402                      ; branchcc occurs ; [] |74| 
     403 00000023 6F0D          B         $C$L9,UNC             ; [CPU_] |74| 
     404                      ; branch occurs ; [] |74| 
     405 00000024       $C$L5:    
     406                      .dwpsn  file "../Source/App/fsm_main.c",line 90,column 5,is_stmt,isa 0
     407              $C$DW$61        .dwtag  DW_TAG_TI_branch
     408                      .dwattr $C$DW$61, DW_AT_low_pc(0x00)
     409                      .dwattr $C$DW$61, DW_AT_name("_fsm_init_stop")
     410                      .dwattr $C$DW$61, DW_AT_TI_call
     411 00000024 7640'         LCR       #_fsm_init_stop       ; [CPU_] |90| 
         00000025 011F 
     412                      ; call occurs [#_fsm_init_stop] ; [] |90| 
     413                      .dwpsn  file "../Source/App/fsm_main.c",line 91,column 5,is_stmt,isa 0
     414 00000026 6F17          B         $C$L11,UNC            ; [CPU_] |91| 
     415                      ; branch occurs ; [] |91| 
     416 00000027       $C$L6:    
     417                      .dwpsn  file "../Source/App/fsm_main.c",line 93,column 5,is_stmt,isa 0
     418              $C$DW$62        .dwtag  DW_TAG_TI_branch
     419                      .dwattr $C$DW$62, DW_AT_low_pc(0x00)
     420                      .dwattr $C$DW$62, DW_AT_name("_fsm_init_config")
     421                      .dwattr $C$DW$62, DW_AT_TI_call
     422 00000027 7640'         LCR       #_fsm_init_config     ; [CPU_] |93| 
         00000028 0176 
     423                      ; call occurs [#_fsm_init_config] ; [] |93| 
     424                      .dwpsn  file "../Source/App/fsm_main.c",line 94,column 5,is_stmt,isa 0
     425 00000029 6F14          B         $C$L11,UNC            ; [CPU_] |94| 
     426                      ; branch occurs ; [] |94| 
     427 0000002a       $C$L7:    
     428                      .dwpsn  file "../Source/App/fsm_main.c",line 96,column 5,is_stmt,isa 0
     429              $C$DW$63        .dwtag  DW_TAG_TI_branch
     430                      .dwattr $C$DW$63, DW_AT_low_pc(0x00)
TMS320C2000 Assembler PC v6.4.2 Thu Dec 14 13:37:55 2017

Tools Copyright (c) 1996-2015 Texas Instruments Incorporated
fsm_main.asm                                                         PAGE    9

     431                      .dwattr $C$DW$63, DW_AT_name("_fsm_init_run")
     432                      .dwattr $C$DW$63, DW_AT_TI_call
     433 0000002a 7640'         LCR       #_fsm_init_run        ; [CPU_] |96| 
         0000002b 0186 
     434                      ; call occurs [#_fsm_init_run] ; [] |96| 
     435                      .dwpsn  file "../Source/App/fsm_main.c",line 97,column 5,is_stmt,isa 0
     436 0000002c 6F11          B         $C$L11,UNC            ; [CPU_] |97| 
     437                      ; branch occurs ; [] |97| 
     438 0000002d       $C$L8:    
     439                      .dwpsn  file "../Source/App/fsm_main.c",line 99,column 5,is_stmt,isa 0
     440              $C$DW$64        .dwtag  DW_TAG_TI_branch
     441                      .dwattr $C$DW$64, DW_AT_low_pc(0x00)
     442                      .dwattr $C$DW$64, DW_AT_name("_fsm_init_error")
     443                      .dwattr $C$DW$64, DW_AT_TI_call
     444 0000002d 7640'         LCR       #_fsm_init_error      ; [CPU_] |99| 
         0000002e 01A7 
     445                      ; call occurs [#_fsm_init_error] ; [] |99| 
     446                      .dwpsn  file "../Source/App/fsm_main.c",line 100,column 5,is_stmt,isa 0
     447 0000002f 6F0E          B         $C$L11,UNC            ; [CPU_] |100| 
     448                      ; branch occurs ; [] |100| 
     449 00000030       $C$L9:    
     450                      .dwpsn  file "../Source/App/fsm_main.c",line 88,column 3,is_stmt,isa 0
     451 00000030 9241          MOV       AL,*-SP[1]            ; [CPU_] |88| 
     452 00000031 ECF3          BF        $C$L5,EQ              ; [CPU_] |88| 
     453                      ; branchcc occurs ; [] |88| 
     454 00000032 5201          CMPB      AL,#1                 ; [CPU_] |88| 
     455 00000033 ECF4          BF        $C$L6,EQ              ; [CPU_] |88| 
     456                      ; branchcc occurs ; [] |88| 
     457 00000034 5202          CMPB      AL,#2                 ; [CPU_] |88| 
     458 00000035 ECF5          BF        $C$L7,EQ              ; [CPU_] |88| 
     459                      ; branchcc occurs ; [] |88| 
     460 00000036 5203          CMPB      AL,#3                 ; [CPU_] |88| 
     461 00000037 ECF6          BF        $C$L8,EQ              ; [CPU_] |88| 
     462                      ; branchcc occurs ; [] |88| 
     463 00000038 6F05          B         $C$L11,UNC            ; [CPU_] |88| 
     464                      ; branch occurs ; [] |88| 
     465 00000039       $C$L10:    
     466                      .dwpsn  file "../Source/App/fsm_main.c",line 102,column 9,is_stmt,isa 0
     467 00000039 9201-         MOV       AL,@_state            ; [CPU_] |102| 
     468 0000003a EC03          BF        $C$L11,EQ             ; [CPU_] |102| 
     469                      ; branchcc occurs ; [] |102| 
     470                      .dwpsn  file "../Source/App/fsm_main.c",line 103,column 3,is_stmt,isa 0
     471              $C$DW$65        .dwtag  DW_TAG_TI_branch
     472                      .dwattr $C$DW$65, DW_AT_low_pc(0x00)
     473                      .dwattr $C$DW$65, DW_AT_name("_send_state_change_command")
     474                      .dwattr $C$DW$65, DW_AT_TI_call
     475 0000003b 7640!         LCR       #_send_state_change_command ; [CPU_] |103| 
         0000003c 0000 
     476                      ; call occurs [#_send_state_change_command] ; [] |103| 
     477                      .dwpsn  file "../Source/App/fsm_main.c",line 105,column 1,is_stmt,isa 0
     478 0000003d       $C$L11:    
     479 0000003d FE82          SUBB      SP,#2                 ; [CPU_U] 
     480                      .dwcfi  cfa_offset, -2
     481              $C$DW$66        .dwtag  DW_TAG_TI_branch
     482                      .dwattr $C$DW$66, DW_AT_low_pc(0x00)
TMS320C2000 Assembler PC v6.4.2 Thu Dec 14 13:37:55 2017

Tools Copyright (c) 1996-2015 Texas Instruments Incorporated
fsm_main.asm                                                         PAGE   10

     483                      .dwattr $C$DW$66, DW_AT_TI_return
     484 0000003e 0006          LRETR     ; [CPU_] 
     485                      ; return occurs ; [] 
     486                      .dwattr $C$DW$55, DW_AT_TI_end_file("../Source/App/fsm_main.c")
     487                      .dwattr $C$DW$55, DW_AT_TI_end_line(0x69)
     488                      .dwattr $C$DW$55, DW_AT_TI_end_column(0x01)
     489                      .dwendentry
     490                      .dwendtag $C$DW$55
     491              
     492 0000003f               .sect   ".text"
     493                      .clink
     494                      .global _fsm_main_get_state
     495              
     496              $C$DW$67        .dwtag  DW_TAG_subprogram, DW_AT_name("fsm_main_get_state")
     497                      .dwattr $C$DW$67, DW_AT_low_pc(_fsm_main_get_state)
     498                      .dwattr $C$DW$67, DW_AT_high_pc(0x00)
     499                      .dwattr $C$DW$67, DW_AT_TI_symbol_name("_fsm_main_get_state")
     500                      .dwattr $C$DW$67, DW_AT_external
     501                      .dwattr $C$DW$67, DW_AT_type(*$C$DW$T$290)
     502                      .dwattr $C$DW$67, DW_AT_TI_begin_file("../Source/App/fsm_main.c")
     503                      .dwattr $C$DW$67, DW_AT_TI_begin_line(0x6c)
     504                      .dwattr $C$DW$67, DW_AT_TI_begin_column(0x12)
     505                      .dwattr $C$DW$67, DW_AT_TI_max_frame_size(-2)
     506                      .dwpsn  file "../Source/App/fsm_main.c",line 108,column 42,is_stmt,address _fsm_main_get_state,isa 0
     507              
     508                      .dwfde $C$DW$CIE, _fsm_main_get_state
     509              
     510              ;***************************************************************
     511              ;* FNAME: _fsm_main_get_state           FR SIZE:   0           *
     512              ;*                                                             *
     513              ;* FUNCTION ENVIRONMENT                                        *
     514              ;*                                                             *
     515              ;* FUNCTION PROPERTIES                                         *
     516              ;*                            0 Parameter,  0 Auto,  0 SOE     *
     517              ;***************************************************************
     518              
     519 0000003f       _fsm_main_get_state:
     520                      .dwcfi  cfa_offset, -2
     521                      .dwcfi  save_reg_to_mem, 26, 0
     522                      .dwpsn  file "../Source/App/fsm_main.c",line 109,column 2,is_stmt,isa 0
     523 0000003f 761F-         MOVW      DP,#_state            ; [CPU_U] 
         00000040 0000 
     524 00000041 9201-         MOV       AL,@_state            ; [CPU_] |109| 
     525                      .dwpsn  file "../Source/App/fsm_main.c",line 110,column 1,is_stmt,isa 0
     526              $C$DW$68        .dwtag  DW_TAG_TI_branch
     527                      .dwattr $C$DW$68, DW_AT_low_pc(0x00)
     528                      .dwattr $C$DW$68, DW_AT_TI_return
     529 00000042 0006          LRETR     ; [CPU_] 
     530                      ; return occurs ; [] 
     531                      .dwattr $C$DW$67, DW_AT_TI_end_file("../Source/App/fsm_main.c")
     532                      .dwattr $C$DW$67, DW_AT_TI_end_line(0x6e)
     533                      .dwattr $C$DW$67, DW_AT_TI_end_column(0x01)
     534                      .dwendentry
     535                      .dwendtag $C$DW$67
     536              
TMS320C2000 Assembler PC v6.4.2 Thu Dec 14 13:37:55 2017

Tools Copyright (c) 1996-2015 Texas Instruments Incorporated
fsm_main.asm                                                         PAGE   11

     537 00000043               .sect   ".text"
     538                      .clink
     539                      .global _fsm_main_run
     540              
     541              $C$DW$69        .dwtag  DW_TAG_subprogram, DW_AT_name("fsm_main_run")
     542                      .dwattr $C$DW$69, DW_AT_low_pc(_fsm_main_run)
     543                      .dwattr $C$DW$69, DW_AT_high_pc(0x00)
     544                      .dwattr $C$DW$69, DW_AT_TI_symbol_name("_fsm_main_run")
     545                      .dwattr $C$DW$69, DW_AT_external
     546                      .dwattr $C$DW$69, DW_AT_TI_begin_file("../Source/App/fsm_main.c")
     547                      .dwattr $C$DW$69, DW_AT_TI_begin_line(0x71)
     548                      .dwattr $C$DW$69, DW_AT_TI_begin_column(0x06)
     549                      .dwattr $C$DW$69, DW_AT_TI_max_frame_size(-2)
     550                      .dwpsn  file "../Source/App/fsm_main.c",line 114,column 1,is_stmt,address _fsm_main_run,isa 0
     551              
     552                      .dwfde $C$DW$CIE, _fsm_main_run
     553              
     554              ;***************************************************************
     555              ;* FNAME: _fsm_main_run                 FR SIZE:   0           *
     556              ;*                                                             *
     557              ;* FUNCTION ENVIRONMENT                                        *
     558              ;*                                                             *
     559              ;* FUNCTION PROPERTIES                                         *
     560              ;*                            0 Parameter,  0 Auto,  0 SOE     *
     561              ;***************************************************************
     562              
     563 00000043       _fsm_main_run:
     564                      .dwcfi  cfa_offset, -2
     565                      .dwcfi  save_reg_to_mem, 26, 0
     566                      .dwpsn  file "../Source/App/fsm_main.c",line 115,column 2,is_stmt,isa 0
     567 00000043 6F0D          B         $C$L16,UNC            ; [CPU_] |115| 
     568                      ; branch occurs ; [] |115| 
     569 00000044       $C$L12:    
     570                      .dwpsn  file "../Source/App/fsm_main.c",line 117,column 4,is_stmt,isa 0
     571              $C$DW$70        .dwtag  DW_TAG_TI_branch
     572                      .dwattr $C$DW$70, DW_AT_low_pc(0x00)
     573                      .dwattr $C$DW$70, DW_AT_name("_fsm_cyclic_stop")
     574                      .dwattr $C$DW$70, DW_AT_TI_call
     575 00000044 7640'         LCR       #_fsm_cyclic_stop     ; [CPU_] |117| 
         00000045 005C 
     576                      ; call occurs [#_fsm_cyclic_stop] ; [] |117| 
     577                      .dwpsn  file "../Source/App/fsm_main.c",line 118,column 4,is_stmt,isa 0
     578 00000046 6F15          B         $C$L17,UNC            ; [CPU_] |118| 
     579                      ; branch occurs ; [] |118| 
     580 00000047       $C$L13:    
     581                      .dwpsn  file "../Source/App/fsm_main.c",line 120,column 4,is_stmt,isa 0
     582              $C$DW$71        .dwtag  DW_TAG_TI_branch
     583                      .dwattr $C$DW$71, DW_AT_low_pc(0x00)
     584                      .dwattr $C$DW$71, DW_AT_name("_fsm_cyclic_config")
     585                      .dwattr $C$DW$71, DW_AT_TI_call
     586 00000047 7640'         LCR       #_fsm_cyclic_config   ; [CPU_] |120| 
         00000048 0065 
     587                      ; call occurs [#_fsm_cyclic_config] ; [] |120| 
     588                      .dwpsn  file "../Source/App/fsm_main.c",line 121,column 4,is_stmt,isa 0
     589 00000049 6F12          B         $C$L17,UNC            ; [CPU_] |121| 
TMS320C2000 Assembler PC v6.4.2 Thu Dec 14 13:37:55 2017

Tools Copyright (c) 1996-2015 Texas Instruments Incorporated
fsm_main.asm                                                         PAGE   12

     590                      ; branch occurs ; [] |121| 
     591 0000004a       $C$L14:    
     592                      .dwpsn  file "../Source/App/fsm_main.c",line 123,column 4,is_stmt,isa 0
     593              $C$DW$72        .dwtag  DW_TAG_TI_branch
     594                      .dwattr $C$DW$72, DW_AT_low_pc(0x00)
     595                      .dwattr $C$DW$72, DW_AT_name("_fsm_cyclic_run")
     596                      .dwattr $C$DW$72, DW_AT_TI_call
     597 0000004a 7640'         LCR       #_fsm_cyclic_run      ; [CPU_] |123| 
         0000004b 00A0 
     598                      ; call occurs [#_fsm_cyclic_run] ; [] |123| 
     599                      .dwpsn  file "../Source/App/fsm_main.c",line 124,column 4,is_stmt,isa 0
     600 0000004c 6F0F          B         $C$L17,UNC            ; [CPU_] |124| 
     601                      ; branch occurs ; [] |124| 
     602 0000004d       $C$L15:    
     603                      .dwpsn  file "../Source/App/fsm_main.c",line 126,column 4,is_stmt,isa 0
     604              $C$DW$73        .dwtag  DW_TAG_TI_branch
     605                      .dwattr $C$DW$73, DW_AT_low_pc(0x00)
     606                      .dwattr $C$DW$73, DW_AT_name("_fsm_cyclic_error")
     607                      .dwattr $C$DW$73, DW_AT_TI_call
     608 0000004d 7640'         LCR       #_fsm_cyclic_error    ; [CPU_] |126| 
         0000004e 00F5 
     609                      ; call occurs [#_fsm_cyclic_error] ; [] |126| 
     610                      .dwpsn  file "../Source/App/fsm_main.c",line 127,column 4,is_stmt,isa 0
     611 0000004f 6F0C          B         $C$L17,UNC            ; [CPU_] |127| 
     612                      ; branch occurs ; [] |127| 
     613 00000050       $C$L16:    
     614                      .dwpsn  file "../Source/App/fsm_main.c",line 115,column 2,is_stmt,isa 0
     615 00000050 761F-         MOVW      DP,#_state            ; [CPU_U] 
         00000051 0000 
     616 00000052 9201-         MOV       AL,@_state            ; [CPU_] |115| 
     617 00000053 ECF1          BF        $C$L12,EQ             ; [CPU_] |115| 
     618                      ; branchcc occurs ; [] |115| 
     619 00000054 5201          CMPB      AL,#1                 ; [CPU_] |115| 
     620 00000055 ECF2          BF        $C$L13,EQ             ; [CPU_] |115| 
     621                      ; branchcc occurs ; [] |115| 
     622 00000056 5202          CMPB      AL,#2                 ; [CPU_] |115| 
     623 00000057 ECF3          BF        $C$L14,EQ             ; [CPU_] |115| 
     624                      ; branchcc occurs ; [] |115| 
     625 00000058 5203          CMPB      AL,#3                 ; [CPU_] |115| 
     626 00000059 ECF4          BF        $C$L15,EQ             ; [CPU_] |115| 
     627                      ; branchcc occurs ; [] |115| 
     628 0000005a 6F01          B         $C$L17,UNC            ; [CPU_] |115| 
     629                      ; branch occurs ; [] |115| 
     630              $C$L17:    
     631              $C$DW$74        .dwtag  DW_TAG_TI_branch
     632                      .dwattr $C$DW$74, DW_AT_low_pc(0x00)
     633                      .dwattr $C$DW$74, DW_AT_TI_return
     634 0000005b 0006          LRETR     ; [CPU_] 
     635                      ; return occurs ; [] 
     636                      .dwattr $C$DW$69, DW_AT_TI_end_file("../Source/App/fsm_main.c")
     637                      .dwattr $C$DW$69, DW_AT_TI_end_line(0x83)
     638                      .dwattr $C$DW$69, DW_AT_TI_end_column(0x01)
     639                      .dwendentry
     640                      .dwendtag $C$DW$69
     641              
TMS320C2000 Assembler PC v6.4.2 Thu Dec 14 13:37:55 2017

Tools Copyright (c) 1996-2015 Texas Instruments Incorporated
fsm_main.asm                                                         PAGE   13

     642 0000005c               .sect   ".text"
     643                      .clink
     644                      .global _fsm_cyclic_stop
     645              
     646              $C$DW$75        .dwtag  DW_TAG_subprogram, DW_AT_name("fsm_cyclic_stop")
     647                      .dwattr $C$DW$75, DW_AT_low_pc(_fsm_cyclic_stop)
     648                      .dwattr $C$DW$75, DW_AT_high_pc(0x00)
     649                      .dwattr $C$DW$75, DW_AT_TI_symbol_name("_fsm_cyclic_stop")
     650                      .dwattr $C$DW$75, DW_AT_external
     651                      .dwattr $C$DW$75, DW_AT_TI_begin_file("../Source/App/fsm_main.c")
     652                      .dwattr $C$DW$75, DW_AT_TI_begin_line(0x87)
     653                      .dwattr $C$DW$75, DW_AT_TI_begin_column(0x06)
     654                      .dwattr $C$DW$75, DW_AT_TI_max_frame_size(-2)
     655                      .dwpsn  file "../Source/App/fsm_main.c",line 135,column 27,is_stmt,address _fsm_cyclic_stop,isa 0
     656              
     657                      .dwfde $C$DW$CIE, _fsm_cyclic_stop
     658              
     659              ;***************************************************************
     660              ;* FNAME: _fsm_cyclic_stop              FR SIZE:   0           *
     661              ;*                                                             *
     662              ;* FUNCTION ENVIRONMENT                                        *
     663              ;*                                                             *
     664              ;* FUNCTION PROPERTIES                                         *
     665              ;*                            0 Parameter,  0 Auto,  0 SOE     *
     666              ;***************************************************************
     667              
     668 0000005c       _fsm_cyclic_stop:
     669                      .dwcfi  cfa_offset, -2
     670                      .dwcfi  save_reg_to_mem, 26, 0
     671                      .dwpsn  file "../Source/App/fsm_main.c",line 136,column 2,is_stmt,isa 0
     672 0000005c 9A42          MOVB      AL,#66                ; [CPU_] |136| 
     673              $C$DW$76        .dwtag  DW_TAG_TI_branch
     674                      .dwattr $C$DW$76, DW_AT_low_pc(0x00)
     675                      .dwattr $C$DW$76, DW_AT_name("_hal_button_read")
     676                      .dwattr $C$DW$76, DW_AT_TI_call
     677 0000005d 7640!         LCR       #_hal_button_read     ; [CPU_] |136| 
         0000005e 0000 
     678                      ; call occurs [#_hal_button_read] ; [] |136| 
     679 0000005f 5200          CMPB      AL,#0                 ; [CPU_] |136| 
     680 00000060 EC04          BF        $C$L18,EQ             ; [CPU_] |136| 
     681                      ; branchcc occurs ; [] |136| 
     682                      .dwpsn  file "../Source/App/fsm_main.c",line 137,column 3,is_stmt,isa 0
     683 00000061 9A01          MOVB      AL,#1                 ; [CPU_] |137| 
     684              $C$DW$77        .dwtag  DW_TAG_TI_branch
     685                      .dwattr $C$DW$77, DW_AT_low_pc(0x00)
     686                      .dwattr $C$DW$77, DW_AT_name("_fsm_main_set_state")
     687                      .dwattr $C$DW$77, DW_AT_TI_call
     688 00000062 7640'         LCR       #_fsm_main_set_state  ; [CPU_] |137| 
         00000063 0009 
     689                      ; call occurs [#_fsm_main_set_state] ; [] |137| 
     690                      .dwpsn  file "../Source/App/fsm_main.c",line 139,column 1,is_stmt,isa 0
     691              $C$L18:    
     692              $C$DW$78        .dwtag  DW_TAG_TI_branch
     693                      .dwattr $C$DW$78, DW_AT_low_pc(0x00)
     694                      .dwattr $C$DW$78, DW_AT_TI_return
TMS320C2000 Assembler PC v6.4.2 Thu Dec 14 13:37:55 2017

Tools Copyright (c) 1996-2015 Texas Instruments Incorporated
fsm_main.asm                                                         PAGE   14

     695 00000064 0006          LRETR     ; [CPU_] 
     696                      ; return occurs ; [] 
     697                      .dwattr $C$DW$75, DW_AT_TI_end_file("../Source/App/fsm_main.c")
     698                      .dwattr $C$DW$75, DW_AT_TI_end_line(0x8b)
     699                      .dwattr $C$DW$75, DW_AT_TI_end_column(0x01)
     700                      .dwendentry
     701                      .dwendtag $C$DW$75
     702              
     703 00000065               .sect   ".text"
     704                      .clink
     705                      .global _fsm_cyclic_config
     706              
     707              $C$DW$79        .dwtag  DW_TAG_subprogram, DW_AT_name("fsm_cyclic_config")
     708                      .dwattr $C$DW$79, DW_AT_low_pc(_fsm_cyclic_config)
     709                      .dwattr $C$DW$79, DW_AT_high_pc(0x00)
     710                      .dwattr $C$DW$79, DW_AT_TI_symbol_name("_fsm_cyclic_config")
     711                      .dwattr $C$DW$79, DW_AT_external
     712                      .dwattr $C$DW$79, DW_AT_TI_begin_file("../Source/App/fsm_main.c")
     713                      .dwattr $C$DW$79, DW_AT_TI_begin_line(0x8e)
     714                      .dwattr $C$DW$79, DW_AT_TI_begin_column(0x06)
     715                      .dwattr $C$DW$79, DW_AT_TI_max_frame_size(-108)
     716                      .dwpsn  file "../Source/App/fsm_main.c",line 142,column 29,is_stmt,address _fsm_cyclic_config,isa 0
     717              
     718                      .dwfde $C$DW$CIE, _fsm_cyclic_config
     719              
     720              ;***************************************************************
     721              ;* FNAME: _fsm_cyclic_config            FR SIZE: 106           *
     722              ;*                                                             *
     723              ;* FUNCTION ENVIRONMENT                                        *
     724              ;*                                                             *
     725              ;* FUNCTION PROPERTIES                                         *
     726              ;*                            0 Parameter, 103 Auto,  2 SOE     *
     727              ;***************************************************************
     728              
     729 00000065       _fsm_cyclic_config:
     730                      .dwcfi  cfa_offset, -2
     731                      .dwcfi  save_reg_to_mem, 26, 0
     732 00000065 AABD          MOVL      *SP++,XAR2            ; [CPU_] 
     733                      .dwcfi  save_reg_to_mem, 9, 2
     734                      .dwcfi  cfa_offset, -4
     735 00000066 5AAD          MOVZ      AR2,SP                ; [CPU_] 
     736 00000067 DA84          SUBB      FP,#4                 ; [CPU_U] 
     737 00000068 FE68          ADDB      SP,#104               ; [CPU_U] 
     738                      .dwcfi  cfa_offset, -108
     739              $C$DW$80        .dwtag  DW_TAG_variable, DW_AT_name("commandbuffer")
     740                      .dwattr $C$DW$80, DW_AT_TI_symbol_name("_commandbuffer")
     741                      .dwattr $C$DW$80, DW_AT_type(*$C$DW$T$329)
     742                      .dwattr $C$DW$80, DW_AT_location[DW_OP_breg20 -100]
     743              $C$DW$81        .dwtag  DW_TAG_variable, DW_AT_name("commandType")
     744                      .dwattr $C$DW$81, DW_AT_TI_symbol_name("_commandType")
     745                      .dwattr $C$DW$81, DW_AT_type(*$C$DW$T$284)
     746                      .dwattr $C$DW$81, DW_AT_location[DW_OP_breg20 -101]
     747              $C$DW$82        .dwtag  DW_TAG_variable, DW_AT_name("received_state")
     748                      .dwattr $C$DW$82, DW_AT_TI_symbol_name("_received_state")
     749                      .dwattr $C$DW$82, DW_AT_type(*$C$DW$T$290)
TMS320C2000 Assembler PC v6.4.2 Thu Dec 14 13:37:55 2017

Tools Copyright (c) 1996-2015 Texas Instruments Incorporated
fsm_main.asm                                                         PAGE   15

     750                      .dwattr $C$DW$82, DW_AT_location[DW_OP_breg20 -102]
     751              $C$DW$83        .dwtag  DW_TAG_variable, DW_AT_name("received_config_mode_cmd")
     752                      .dwattr $C$DW$83, DW_AT_TI_symbol_name("_received_config_mode_cmd")
     753                      .dwattr $C$DW$83, DW_AT_type(*$C$DW$T$281)
     754                      .dwattr $C$DW$83, DW_AT_location[DW_OP_breg20 -103]
     755                      .dwpsn  file "../Source/App/fsm_main.c",line 148,column 2,is_stmt,isa 0
     756 00000069 9A3D          MOVB      AL,#61                ; [CPU_] |148| 
     757              $C$DW$84        .dwtag  DW_TAG_TI_branch
     758                      .dwattr $C$DW$84, DW_AT_low_pc(0x00)
     759                      .dwattr $C$DW$84, DW_AT_name("_GPIO_ReadPin")
     760                      .dwattr $C$DW$84, DW_AT_TI_call
     761 0000006a 7640!         LCR       #_GPIO_ReadPin        ; [CPU_] |148| 
         0000006b 0000 
     762                      ; call occurs [#_GPIO_ReadPin] ; [] |148| 
     763 0000006c 5200          CMPB      AL,#0                 ; [CPU_] |148| 
     764 0000006d ED07          BF        $C$L19,NEQ            ; [CPU_] |148| 
     765                      ; branchcc occurs ; [] |148| 
     766                      .dwpsn  file "../Source/App/fsm_main.c",line 149,column 3,is_stmt,isa 0
     767 0000006e 761F-         MOVW      DP,#_connected        ; [CPU_U] 
         0000006f 0000 
     768 00000070 2B00-         MOV       @_connected,#0        ; [CPU_] |149| 
     769                      .dwpsn  file "../Source/App/fsm_main.c",line 150,column 3,is_stmt,isa 0
     770 00000071 9A00          MOVB      AL,#0                 ; [CPU_] |150| 
     771              $C$DW$85        .dwtag  DW_TAG_TI_branch
     772                      .dwattr $C$DW$85, DW_AT_low_pc(0x00)
     773                      .dwattr $C$DW$85, DW_AT_name("_fsm_main_set_state")
     774                      .dwattr $C$DW$85, DW_AT_TI_call
     775 00000072 7640'         LCR       #_fsm_main_set_state  ; [CPU_] |150| 
         00000073 0009 
     776                      ; call occurs [#_fsm_main_set_state] ; [] |150| 
     777 00000074       $C$L19:    
     778                      .dwpsn  file "../Source/App/fsm_main.c",line 153,column 2,is_stmt,isa 0
     779 00000074 5CAD          MOVZ      AR4,SP                ; [CPU_] |153| 
     780 00000075 DCE4          SUBB      XAR4,#100             ; [CPU_U] |153| 
     781 00000076 5CA4          MOVZ      AR4,AR4               ; [CPU_] |153| 
     782              $C$DW$86        .dwtag  DW_TAG_TI_branch
     783                      .dwattr $C$DW$86, DW_AT_low_pc(0x00)
     784                      .dwattr $C$DW$86, DW_AT_name("_read_Command")
     785                      .dwattr $C$DW$86, DW_AT_TI_call
     786 00000077 7640!         LCR       #_read_Command        ; [CPU_] |153| 
         00000078 0000 
     787                      ; call occurs [#_read_Command] ; [] |153| 
     788 00000079 96FA          MOV       *+FP[7],AL            ; [CPU_] |153| 
     789                      .dwpsn  file "../Source/App/fsm_main.c",line 154,column 2,is_stmt,isa 0
     790 0000007a 6F1D          B         $C$L22,UNC            ; [CPU_] |154| 
     791                      ; branch occurs ; [] |154| 
     792 0000007b       $C$L20:    
     793                      .dwpsn  file "../Source/App/fsm_main.c",line 156,column 4,is_stmt,isa 0
     794 0000007b 5CAD          MOVZ      AR4,SP                ; [CPU_] |156| 
     795 0000007c 5DAD          MOVZ      AR5,SP                ; [CPU_] |156| 
     796 0000007d DCE4          SUBB      XAR4,#100             ; [CPU_U] |156| 
     797 0000007e DDE6          SUBB      XAR5,#102             ; [CPU_U] |156| 
     798 0000007f 5CA4          MOVZ      AR4,AR4               ; [CPU_] |156| 
     799 00000080 5DA5          MOVZ      AR5,AR5               ; [CPU_] |156| 
     800              $C$DW$87        .dwtag  DW_TAG_TI_branch
TMS320C2000 Assembler PC v6.4.2 Thu Dec 14 13:37:55 2017

Tools Copyright (c) 1996-2015 Texas Instruments Incorporated
fsm_main.asm                                                         PAGE   16

     801                      .dwattr $C$DW$87, DW_AT_low_pc(0x00)
     802                      .dwattr $C$DW$87, DW_AT_name("_extract_state_change_command")
     803                      .dwattr $C$DW$87, DW_AT_TI_call
     804 00000081 7640!         LCR       #_extract_state_change_command ; [CPU_] |156| 
         00000082 0000 
     805                      ; call occurs [#_extract_state_change_command] ; [] |156| 
     806 00000083 5200          CMPB      AL,#0                 ; [CPU_] |156| 
     807 00000084 ED19          BF        $C$L23,NEQ            ; [CPU_] |156| 
     808                      ; branchcc occurs ; [] |156| 
     809                      .dwpsn  file "../Source/App/fsm_main.c",line 157,column 5,is_stmt,isa 0
     810 00000085 92F2          MOV       AL,*+FP[6]            ; [CPU_] |157| 
     811              $C$DW$88        .dwtag  DW_TAG_TI_branch
     812                      .dwattr $C$DW$88, DW_AT_low_pc(0x00)
     813                      .dwattr $C$DW$88, DW_AT_name("_fsm_main_set_state")
     814                      .dwattr $C$DW$88, DW_AT_TI_call
     815 00000086 7640'         LCR       #_fsm_main_set_state  ; [CPU_] |157| 
         00000087 0009 
     816                      ; call occurs [#_fsm_main_set_state] ; [] |157| 
     817                      .dwpsn  file "../Source/App/fsm_main.c",line 159,column 4,is_stmt,isa 0
     818 00000088 6F15          B         $C$L23,UNC            ; [CPU_] |159| 
     819                      ; branch occurs ; [] |159| 
     820 00000089       $C$L21:    
     821                      .dwpsn  file "../Source/App/fsm_main.c",line 161,column 4,is_stmt,isa 0
     822 00000089 5CAD          MOVZ      AR4,SP                ; [CPU_] |161| 
     823 0000008a 5DAD          MOVZ      AR5,SP                ; [CPU_] |161| 
     824 0000008b DCE4          SUBB      XAR4,#100             ; [CPU_U] |161| 
     825 0000008c DDE7          SUBB      XAR5,#103             ; [CPU_U] |161| 
     826 0000008d 5CA4          MOVZ      AR4,AR4               ; [CPU_] |161| 
     827 0000008e 5DA5          MOVZ      AR5,AR5               ; [CPU_] |161| 
     828              $C$DW$89        .dwtag  DW_TAG_TI_branch
     829                      .dwattr $C$DW$89, DW_AT_low_pc(0x00)
     830                      .dwattr $C$DW$89, DW_AT_name("_extract_config_mode_command")
     831                      .dwattr $C$DW$89, DW_AT_TI_call
     832 0000008f 7640!         LCR       #_extract_config_mode_command ; [CPU_] |161| 
         00000090 0000 
     833                      ; call occurs [#_extract_config_mode_command] ; [] |161| 
     834 00000091 5200          CMPB      AL,#0                 ; [CPU_] |161| 
     835 00000092 ED0B          BF        $C$L23,NEQ            ; [CPU_] |161| 
     836                      ; branchcc occurs ; [] |161| 
     837                      .dwpsn  file "../Source/App/fsm_main.c",line 162,column 5,is_stmt,isa 0
     838 00000093 92EA          MOV       AL,*+FP[5]            ; [CPU_] |162| 
     839              $C$DW$90        .dwtag  DW_TAG_TI_branch
     840                      .dwattr $C$DW$90, DW_AT_low_pc(0x00)
     841                      .dwattr $C$DW$90, DW_AT_name("_execute_config_mode_cmd")
     842                      .dwattr $C$DW$90, DW_AT_TI_call
     843 00000094 7640!         LCR       #_execute_config_mode_cmd ; [CPU_] |162| 
         00000095 0000 
     844                      ; call occurs [#_execute_config_mode_cmd] ; [] |162| 
     845                      .dwpsn  file "../Source/App/fsm_main.c",line 164,column 4,is_stmt,isa 0
     846 00000096 6F07          B         $C$L23,UNC            ; [CPU_] |164| 
     847                      ; branch occurs ; [] |164| 
     848 00000097       $C$L22:    
     849                      .dwpsn  file "../Source/App/fsm_main.c",line 154,column 2,is_stmt,isa 0
     850 00000097 92FA          MOV       AL,*+FP[7]            ; [CPU_] |154| 
     851 00000098 5201          CMPB      AL,#1                 ; [CPU_] |154| 
TMS320C2000 Assembler PC v6.4.2 Thu Dec 14 13:37:55 2017

Tools Copyright (c) 1996-2015 Texas Instruments Incorporated
fsm_main.asm                                                         PAGE   17

     852 00000099 ECE2          BF        $C$L20,EQ             ; [CPU_] |154| 
     853                      ; branchcc occurs ; [] |154| 
     854 0000009a 5202          CMPB      AL,#2                 ; [CPU_] |154| 
     855 0000009b ECEE          BF        $C$L21,EQ             ; [CPU_] |154| 
     856                      ; branchcc occurs ; [] |154| 
     857 0000009c 6F01          B         $C$L23,UNC            ; [CPU_] |154| 
     858                      ; branch occurs ; [] |154| 
     859 0000009d       $C$L23:    
     860 0000009d FEE8          SUBB      SP,#104               ; [CPU_U] 
     861                      .dwcfi  cfa_offset, -4
     862 0000009e 86BE          MOVL      XAR2,*--SP            ; [CPU_] 
     863                      .dwcfi  cfa_offset, -2
     864                      .dwcfi  restore_reg, 9
     865              $C$DW$91        .dwtag  DW_TAG_TI_branch
     866                      .dwattr $C$DW$91, DW_AT_low_pc(0x00)
     867                      .dwattr $C$DW$91, DW_AT_TI_return
     868 0000009f 0006          LRETR     ; [CPU_] 
     869                      ; return occurs ; [] 
     870                      .dwattr $C$DW$79, DW_AT_TI_end_file("../Source/App/fsm_main.c")
     871                      .dwattr $C$DW$79, DW_AT_TI_end_line(0xa8)
     872                      .dwattr $C$DW$79, DW_AT_TI_end_column(0x01)
     873                      .dwendentry
     874                      .dwendtag $C$DW$79
     875              
     876 000000a0               .sect   ".text"
     877                      .clink
     878                      .global _fsm_cyclic_run
     879              
     880              $C$DW$92        .dwtag  DW_TAG_subprogram, DW_AT_name("fsm_cyclic_run")
     881                      .dwattr $C$DW$92, DW_AT_low_pc(_fsm_cyclic_run)
     882                      .dwattr $C$DW$92, DW_AT_high_pc(0x00)
     883                      .dwattr $C$DW$92, DW_AT_TI_symbol_name("_fsm_cyclic_run")
     884                      .dwattr $C$DW$92, DW_AT_external
     885                      .dwattr $C$DW$92, DW_AT_TI_begin_file("../Source/App/fsm_main.c")
     886                      .dwattr $C$DW$92, DW_AT_TI_begin_line(0xab)
     887                      .dwattr $C$DW$92, DW_AT_TI_begin_column(0x06)
     888                      .dwattr $C$DW$92, DW_AT_TI_max_frame_size(-112)
     889                      .dwpsn  file "../Source/App/fsm_main.c",line 171,column 26,is_stmt,address _fsm_cyclic_run,isa 0
     890              
     891                      .dwfde $C$DW$CIE, _fsm_cyclic_run
     892              
     893              ;***************************************************************
     894              ;* FNAME: _fsm_cyclic_run               FR SIZE: 110           *
     895              ;*                                                             *
     896              ;* FUNCTION ENVIRONMENT                                        *
     897              ;*                                                             *
     898              ;* FUNCTION PROPERTIES                                         *
     899              ;*                            2 Parameter, 106 Auto,  2 SOE     *
     900              ;***************************************************************
     901              
     902 000000a0       _fsm_cyclic_run:
     903                      .dwcfi  cfa_offset, -2
     904                      .dwcfi  save_reg_to_mem, 26, 0
     905 000000a0 AABD          MOVL      *SP++,XAR2            ; [CPU_] 
     906                      .dwcfi  save_reg_to_mem, 9, 2
TMS320C2000 Assembler PC v6.4.2 Thu Dec 14 13:37:55 2017

Tools Copyright (c) 1996-2015 Texas Instruments Incorporated
fsm_main.asm                                                         PAGE   18

     907                      .dwcfi  cfa_offset, -4
     908 000000a1 5AAD          MOVZ      AR2,SP                ; [CPU_] 
     909 000000a2 DA84          SUBB      FP,#4                 ; [CPU_U] 
     910 000000a3 FE6C          ADDB      SP,#108               ; [CPU_U] 
     911                      .dwcfi  cfa_offset, -112
     912              $C$DW$93        .dwtag  DW_TAG_variable, DW_AT_name("commandbuffer")
     913                      .dwattr $C$DW$93, DW_AT_TI_symbol_name("_commandbuffer")
     914                      .dwattr $C$DW$93, DW_AT_type(*$C$DW$T$329)
     915                      .dwattr $C$DW$93, DW_AT_location[DW_OP_breg20 -102]
     916              $C$DW$94        .dwtag  DW_TAG_variable, DW_AT_name("commandType")
     917                      .dwattr $C$DW$94, DW_AT_TI_symbol_name("_commandType")
     918                      .dwattr $C$DW$94, DW_AT_type(*$C$DW$T$284)
     919                      .dwattr $C$DW$94, DW_AT_location[DW_OP_breg20 -103]
     920              $C$DW$95        .dwtag  DW_TAG_variable, DW_AT_name("received_state")
     921                      .dwattr $C$DW$95, DW_AT_TI_symbol_name("_received_state")
     922                      .dwattr $C$DW$95, DW_AT_type(*$C$DW$T$290)
     923                      .dwattr $C$DW$95, DW_AT_location[DW_OP_breg20 -104]
     924              $C$DW$96        .dwtag  DW_TAG_variable, DW_AT_name("received_angle")
     925                      .dwattr $C$DW$96, DW_AT_TI_symbol_name("_received_angle")
     926                      .dwattr $C$DW$96, DW_AT_type(*$C$DW$T$16)
     927                      .dwattr $C$DW$96, DW_AT_location[DW_OP_breg20 -106]
     928              $C$DW$97        .dwtag  DW_TAG_variable, DW_AT_name("received_speed")
     929                      .dwattr $C$DW$97, DW_AT_TI_symbol_name("_received_speed")
     930                      .dwattr $C$DW$97, DW_AT_type(*$C$DW$T$16)
     931                      .dwattr $C$DW$97, DW_AT_location[DW_OP_breg20 -108]
     932                      .dwpsn  file "../Source/App/fsm_main.c",line 177,column 2,is_stmt,isa 0
     933 000000a4 9A3D          MOVB      AL,#61                ; [CPU_] |177| 
     934              $C$DW$98        .dwtag  DW_TAG_TI_branch
     935                      .dwattr $C$DW$98, DW_AT_low_pc(0x00)
     936                      .dwattr $C$DW$98, DW_AT_name("_GPIO_ReadPin")
     937                      .dwattr $C$DW$98, DW_AT_TI_call
     938 000000a5 7640!         LCR       #_GPIO_ReadPin        ; [CPU_] |177| 
         000000a6 0000 
     939                      ; call occurs [#_GPIO_ReadPin] ; [] |177| 
     940 000000a7 5200          CMPB      AL,#0                 ; [CPU_] |177| 
     941 000000a8 ED07          BF        $C$L24,NEQ            ; [CPU_] |177| 
     942                      ; branchcc occurs ; [] |177| 
     943                      .dwpsn  file "../Source/App/fsm_main.c",line 178,column 3,is_stmt,isa 0
     944 000000a9 761F-         MOVW      DP,#_connected        ; [CPU_U] 
         000000aa 0000 
     945 000000ab 2B00-         MOV       @_connected,#0        ; [CPU_] |178| 
     946                      .dwpsn  file "../Source/App/fsm_main.c",line 179,column 3,is_stmt,isa 0
     947 000000ac 9A00          MOVB      AL,#0                 ; [CPU_] |179| 
     948              $C$DW$99        .dwtag  DW_TAG_TI_branch
     949                      .dwattr $C$DW$99, DW_AT_low_pc(0x00)
     950                      .dwattr $C$DW$99, DW_AT_name("_fsm_main_set_state")
     951                      .dwattr $C$DW$99, DW_AT_TI_call
     952 000000ad 7640'         LCR       #_fsm_main_set_state  ; [CPU_] |179| 
         000000ae 0009 
     953                      ; call occurs [#_fsm_main_set_state] ; [] |179| 
     954 000000af       $C$L24:    
     955                      .dwpsn  file "../Source/App/fsm_main.c",line 182,column 2,is_stmt,isa 0
     956 000000af 761F!         MOVW      DP,#_motor1+43        ; [CPU_U] 
         000000b0 0000 
     957 000000b1 922B!         MOV       AL,@_motor1+43        ; [CPU_] |182| 
TMS320C2000 Assembler PC v6.4.2 Thu Dec 14 13:37:55 2017

Tools Copyright (c) 1996-2015 Texas Instruments Incorporated
fsm_main.asm                                                         PAGE   19

     958 000000b2 5201          CMPB      AL,#1                 ; [CPU_] |182| 
     959 000000b3 ED03          BF        $C$L25,NEQ            ; [CPU_] |182| 
     960                      ; branchcc occurs ; [] |182| 
     961                      .dwpsn  file "../Source/App/fsm_main.c",line 183,column 3,is_stmt,isa 0
     962 000000b4 56BF!         MOVB      @_motor1+44,#1,UNC    ; [CPU_] |183| 
         000000b5 012C 
     963 000000b6       $C$L25:    
     964                      .dwpsn  file "../Source/App/fsm_main.c",line 185,column 2,is_stmt,isa 0
     965 000000b6 761F!         MOVW      DP,#_motor2+43        ; [CPU_U] 
         000000b7 0000 
     966 000000b8 922B!         MOV       AL,@_motor2+43        ; [CPU_] |185| 
     967 000000b9 5201          CMPB      AL,#1                 ; [CPU_] |185| 
     968 000000ba ED03          BF        $C$L26,NEQ            ; [CPU_] |185| 
     969                      ; branchcc occurs ; [] |185| 
     970                      .dwpsn  file "../Source/App/fsm_main.c",line 186,column 3,is_stmt,isa 0
     971 000000bb 56BF!         MOVB      @_motor2+44,#1,UNC    ; [CPU_] |186| 
         000000bc 012C 
     972 000000bd       $C$L26:    
     973                      .dwpsn  file "../Source/App/fsm_main.c",line 189,column 2,is_stmt,isa 0
     974 000000bd 5CAD          MOVZ      AR4,SP                ; [CPU_] |189| 
     975 000000be DCE6          SUBB      XAR4,#102             ; [CPU_U] |189| 
     976 000000bf 5CA4          MOVZ      AR4,AR4               ; [CPU_] |189| 
     977              $C$DW$100       .dwtag  DW_TAG_TI_branch
     978                      .dwattr $C$DW$100, DW_AT_low_pc(0x00)
     979                      .dwattr $C$DW$100, DW_AT_name("_read_Command")
     980                      .dwattr $C$DW$100, DW_AT_TI_call
     981 000000c0 7640!         LCR       #_read_Command        ; [CPU_] |189| 
         000000c1 0000 
     982                      ; call occurs [#_read_Command] ; [] |189| 
     983 000000c2 D009          MOVL      XAR0,#9               ; [CPU_] |189| 
     984 000000c3 9692          MOV       *+FP[AR0],AL          ; [CPU_] |189| 
     985                      .dwpsn  file "../Source/App/fsm_main.c",line 190,column 2,is_stmt,isa 0
     986 000000c4 6F27          B         $C$L29,UNC            ; [CPU_] |190| 
     987                      ; branch occurs ; [] |190| 
     988 000000c5       $C$L27:    
     989                      .dwpsn  file "../Source/App/fsm_main.c",line 192,column 4,is_stmt,isa 0
     990 000000c5 5CAD          MOVZ      AR4,SP                ; [CPU_] |192| 
     991 000000c6 5DAD          MOVZ      AR5,SP                ; [CPU_] |192| 
     992 000000c7 DCE6          SUBB      XAR4,#102             ; [CPU_U] |192| 
     993 000000c8 DDE8          SUBB      XAR5,#104             ; [CPU_U] |192| 
     994 000000c9 5CA4          MOVZ      AR4,AR4               ; [CPU_] |192| 
     995 000000ca 5DA5          MOVZ      AR5,AR5               ; [CPU_] |192| 
     996              $C$DW$101       .dwtag  DW_TAG_TI_branch
     997                      .dwattr $C$DW$101, DW_AT_low_pc(0x00)
     998                      .dwattr $C$DW$101, DW_AT_name("_extract_state_change_command")
     999                      .dwattr $C$DW$101, DW_AT_TI_call
    1000 000000cb 7640!         LCR       #_extract_state_change_command ; [CPU_] |192| 
         000000cc 0000 
    1001                      ; call occurs [#_extract_state_change_command] ; [] |192| 
    1002 000000cd 5200          CMPB      AL,#0                 ; [CPU_] |192| 
    1003 000000ce ED24          BF        $C$L30,NEQ            ; [CPU_] |192| 
    1004                      ; branchcc occurs ; [] |192| 
    1005                      .dwpsn  file "../Source/App/fsm_main.c",line 193,column 5,is_stmt,isa 0
    1006 000000cf D008          MOVL      XAR0,#8               ; [CPU_] |193| 
    1007 000000d0 9292          MOV       AL,*+FP[AR0]          ; [CPU_] |193| 
TMS320C2000 Assembler PC v6.4.2 Thu Dec 14 13:37:55 2017

Tools Copyright (c) 1996-2015 Texas Instruments Incorporated
fsm_main.asm                                                         PAGE   20

    1008              $C$DW$102       .dwtag  DW_TAG_TI_branch
    1009                      .dwattr $C$DW$102, DW_AT_low_pc(0x00)
    1010                      .dwattr $C$DW$102, DW_AT_name("_fsm_main_set_state")
    1011                      .dwattr $C$DW$102, DW_AT_TI_call
    1012 000000d1 7640'         LCR       #_fsm_main_set_state  ; [CPU_] |193| 
         000000d2 0009 
    1013                      ; call occurs [#_fsm_main_set_state] ; [] |193| 
    1014                      .dwpsn  file "../Source/App/fsm_main.c",line 195,column 4,is_stmt,isa 0
    1015 000000d3 6F1F          B         $C$L30,UNC            ; [CPU_] |195| 
    1016                      ; branch occurs ; [] |195| 
    1017 000000d4       $C$L28:    
    1018                      .dwpsn  file "../Source/App/fsm_main.c",line 197,column 4,is_stmt,isa 0
    1019 000000d4 5CAD          MOVZ      AR4,SP                ; [CPU_] |197| 
    1020 000000d5 5DAD          MOVZ      AR5,SP                ; [CPU_] |197| 
    1021 000000d6 DCEA          SUBB      XAR4,#106             ; [CPU_U] |197| 
    1022 000000d7 0EA4          MOVU      ACC,AR4               ; [CPU_] |197| 
    1023 000000d8 5CAD          MOVZ      AR4,SP                ; [CPU_] |197| 
    1024 000000d9 DDEC          SUBB      XAR5,#108             ; [CPU_U] |197| 
    1025 000000da 1E42          MOVL      *-SP[2],ACC           ; [CPU_] |197| 
    1026 000000db 5DA5          MOVZ      AR5,AR5               ; [CPU_] |197| 
    1027 000000dc DCE6          SUBB      XAR4,#102             ; [CPU_U] |197| 
    1028 000000dd 5CA4          MOVZ      AR4,AR4               ; [CPU_] |197| 
    1029              $C$DW$103       .dwtag  DW_TAG_TI_branch
    1030                      .dwattr $C$DW$103, DW_AT_low_pc(0x00)
    1031                      .dwattr $C$DW$103, DW_AT_name("_extract_drive_command")
    1032                      .dwattr $C$DW$103, DW_AT_TI_call
    1033 000000de 7640!         LCR       #_extract_drive_command ; [CPU_] |197| 
         000000df 0000 
    1034                      ; call occurs [#_extract_drive_command] ; [] |197| 
    1035 000000e0 5200          CMPB      AL,#0                 ; [CPU_] |197| 
    1036 000000e1 ED11          BF        $C$L30,NEQ            ; [CPU_] |197| 
    1037                      ; branchcc occurs ; [] |197| 
    1038                      .dwpsn  file "../Source/App/fsm_main.c",line 198,column 5,is_stmt,isa 0
    1039 000000e2 06E2          MOVL      ACC,*+FP[4]           ; [CPU_] |198| 
    1040 000000e3 761F!         MOVW      DP,#_steeringContr    ; [CPU_U] 
         000000e4 0000 
    1041 000000e5 1E00!         MOVL      @_steeringContr,ACC   ; [CPU_] |198| 
    1042                      .dwpsn  file "../Source/App/fsm_main.c",line 199,column 5,is_stmt,isa 0
    1043 000000e6 E2AF          MOV32     R0H,*+FP[6]           ; [CPU_] |199| 
         000000e7 00F2 
    1044              $C$DW$104       .dwtag  DW_TAG_TI_branch
    1045                      .dwattr $C$DW$104, DW_AT_low_pc(0x00)
    1046                      .dwattr $C$DW$104, DW_AT_name("_set_servo_angle_ref")
    1047                      .dwattr $C$DW$104, DW_AT_TI_call
    1048 000000e8 7640!         LCR       #_set_servo_angle_ref ; [CPU_] |199| 
         000000e9 0000 
    1049                      ; call occurs [#_set_servo_angle_ref] ; [] |199| 
    1050                      .dwpsn  file "../Source/App/fsm_main.c",line 201,column 4,is_stmt,isa 0
    1051 000000ea 6F08          B         $C$L30,UNC            ; [CPU_] |201| 
    1052                      ; branch occurs ; [] |201| 
    1053 000000eb       $C$L29:    
    1054                      .dwpsn  file "../Source/App/fsm_main.c",line 190,column 2,is_stmt,isa 0
    1055 000000eb D009          MOVL      XAR0,#9               ; [CPU_] |190| 
    1056 000000ec 9292          MOV       AL,*+FP[AR0]          ; [CPU_] |190| 
    1057 000000ed 5201          CMPB      AL,#1                 ; [CPU_] |190| 
TMS320C2000 Assembler PC v6.4.2 Thu Dec 14 13:37:55 2017

Tools Copyright (c) 1996-2015 Texas Instruments Incorporated
fsm_main.asm                                                         PAGE   21

    1058 000000ee ECD7          BF        $C$L27,EQ             ; [CPU_] |190| 
    1059                      ; branchcc occurs ; [] |190| 
    1060 000000ef 5203          CMPB      AL,#3                 ; [CPU_] |190| 
    1061 000000f0 ECE4          BF        $C$L28,EQ             ; [CPU_] |190| 
    1062                      ; branchcc occurs ; [] |190| 
    1063 000000f1 6F01          B         $C$L30,UNC            ; [CPU_] |190| 
    1064                      ; branch occurs ; [] |190| 
    1065 000000f2       $C$L30:    
    1066 000000f2 FEEC          SUBB      SP,#108               ; [CPU_U] 
    1067                      .dwcfi  cfa_offset, -4
    1068 000000f3 86BE          MOVL      XAR2,*--SP            ; [CPU_] 
    1069                      .dwcfi  cfa_offset, -2
    1070                      .dwcfi  restore_reg, 9
    1071              $C$DW$105       .dwtag  DW_TAG_TI_branch
    1072                      .dwattr $C$DW$105, DW_AT_low_pc(0x00)
    1073                      .dwattr $C$DW$105, DW_AT_TI_return
    1074 000000f4 0006          LRETR     ; [CPU_] 
    1075                      ; return occurs ; [] 
    1076                      .dwattr $C$DW$92, DW_AT_TI_end_file("../Source/App/fsm_main.c")
    1077                      .dwattr $C$DW$92, DW_AT_TI_end_line(0xcd)
    1078                      .dwattr $C$DW$92, DW_AT_TI_end_column(0x01)
    1079                      .dwendentry
    1080                      .dwendtag $C$DW$92
    1081              
    1082 000000f5               .sect   ".text"
    1083                      .clink
    1084                      .global _fsm_cyclic_error
    1085              
    1086              $C$DW$106       .dwtag  DW_TAG_subprogram, DW_AT_name("fsm_cyclic_error")
    1087                      .dwattr $C$DW$106, DW_AT_low_pc(_fsm_cyclic_error)
    1088                      .dwattr $C$DW$106, DW_AT_high_pc(0x00)
    1089                      .dwattr $C$DW$106, DW_AT_TI_symbol_name("_fsm_cyclic_error")
    1090                      .dwattr $C$DW$106, DW_AT_external
    1091                      .dwattr $C$DW$106, DW_AT_TI_begin_file("../Source/App/fsm_main.c")
    1092                      .dwattr $C$DW$106, DW_AT_TI_begin_line(0xd0)
    1093                      .dwattr $C$DW$106, DW_AT_TI_begin_column(0x06)
    1094                      .dwattr $C$DW$106, DW_AT_TI_max_frame_size(-6)
    1095                      .dwpsn  file "../Source/App/fsm_main.c",line 208,column 29,is_stmt,address _fsm_cyclic_error,isa 0
    1096              
    1097                      .dwfde $C$DW$CIE, _fsm_cyclic_error
    1098              
    1099              ;***************************************************************
    1100              ;* FNAME: _fsm_cyclic_error             FR SIZE:   4           *
    1101              ;*                                                             *
    1102              ;* FUNCTION ENVIRONMENT                                        *
    1103              ;*                                                             *
    1104              ;* FUNCTION PROPERTIES                                         *
    1105              ;*                            0 Parameter,  4 Auto,  0 SOE     *
    1106              ;***************************************************************
    1107              
    1108 000000f5       _fsm_cyclic_error:
    1109                      .dwcfi  cfa_offset, -2
    1110                      .dwcfi  save_reg_to_mem, 26, 0
    1111 000000f5 FE04          ADDB      SP,#4                 ; [CPU_U] 
    1112                      .dwcfi  cfa_offset, -6
TMS320C2000 Assembler PC v6.4.2 Thu Dec 14 13:37:55 2017

Tools Copyright (c) 1996-2015 Texas Instruments Incorporated
fsm_main.asm                                                         PAGE   22

    1113              $C$DW$107       .dwtag  DW_TAG_variable, DW_AT_name("BLINK_COUNTER")
    1114                      .dwattr $C$DW$107, DW_AT_TI_symbol_name("_BLINK_COUNTER")
    1115                      .dwattr $C$DW$107, DW_AT_type(*$C$DW$T$328)
    1116                      .dwattr $C$DW$107, DW_AT_location[DW_OP_breg20 -2]
    1117              $C$DW$108       .dwtag  DW_TAG_variable, DW_AT_name("i")
    1118                      .dwattr $C$DW$108, DW_AT_TI_symbol_name("_i")
    1119                      .dwattr $C$DW$108, DW_AT_type(*$C$DW$T$327)
    1120                      .dwattr $C$DW$108, DW_AT_location[DW_OP_breg20 -4]
    1121                      .dwpsn  file "../Source/App/fsm_main.c",line 209,column 31,is_stmt,isa 0
    1122 000000f6 8F1E          MOVL      XAR4,#2000000         ; [CPU_U] |209| 
         000000f7 8480 
    1123 000000f8 A842          MOVL      *-SP[2],XAR4          ; [CPU_] |209| 
    1124                      .dwpsn  file "../Source/App/fsm_main.c",line 211,column 2,is_stmt,isa 0
    1125 000000f9 9A47          MOVB      AL,#71                ; [CPU_] |211| 
    1126              $C$DW$109       .dwtag  DW_TAG_TI_branch
    1127                      .dwattr $C$DW$109, DW_AT_low_pc(0x00)
    1128                      .dwattr $C$DW$109, DW_AT_name("_hal_led_on")
    1129                      .dwattr $C$DW$109, DW_AT_TI_call
    1130 000000fa 7640!         LCR       #_hal_led_on          ; [CPU_] |211| 
         000000fb 0000 
    1131                      ; call occurs [#_hal_led_on] ; [] |211| 
    1132                      .dwpsn  file "../Source/App/fsm_main.c",line 212,column 7,is_stmt,isa 0
    1133 000000fc 0200          MOVB      ACC,#0                ; [CPU_] |212| 
    1134 000000fd 1E44          MOVL      *-SP[4],ACC           ; [CPU_] |212| 
    1135                      .dwpsn  file "../Source/App/fsm_main.c",line 212,column 12,is_stmt,isa 0
    1136 000000fe 0642          MOVL      ACC,*-SP[2]           ; [CPU_] |212| 
    1137 000000ff 0F44          CMPL      ACC,*-SP[4]           ; [CPU_] |212| 
    1138 00000100 56C9          BF        $C$L32,LOS            ; [CPU_] |212| 
         00000101 000A 
    1139                      ; branchcc occurs ; [] |212| 
    1140 00000102       $C$L31:    
    1141                      .dwpsn  file "../Source/App/fsm_main.c",line 213,column 3,is_stmt,isa 0
    1142 00000102 7700   nop
    1143                      .dwpsn  file "../Source/App/fsm_main.c",line 212,column 29,is_stmt,isa 0
    1144 00000103 0201          MOVB      ACC,#1                ; [CPU_] |212| 
    1145 00000104 0744          ADDL      ACC,*-SP[4]           ; [CPU_] |212| 
    1146 00000105 1E44          MOVL      *-SP[4],ACC           ; [CPU_] |212| 
    1147                      .dwpsn  file "../Source/App/fsm_main.c",line 212,column 12,is_stmt,isa 0
    1148 00000106 0642          MOVL      ACC,*-SP[2]           ; [CPU_] |212| 
    1149 00000107 0F44          CMPL      ACC,*-SP[4]           ; [CPU_] |212| 
    1150 00000108 56C6          BF        $C$L31,HI             ; [CPU_] |212| 
         00000109 FFFA 
    1151                      ; branchcc occurs ; [] |212| 
    1152 0000010a       $C$L32:    
    1153                      .dwpsn  file "../Source/App/fsm_main.c",line 215,column 2,is_stmt,isa 0
    1154 0000010a 9A47          MOVB      AL,#71                ; [CPU_] |215| 
    1155 0000010b FF69          SPM       #0                    ; [CPU_] 
    1156              $C$DW$110       .dwtag  DW_TAG_TI_branch
    1157                      .dwattr $C$DW$110, DW_AT_low_pc(0x00)
    1158                      .dwattr $C$DW$110, DW_AT_name("_hal_led_off")
    1159                      .dwattr $C$DW$110, DW_AT_TI_call
    1160 0000010c 7640!         LCR       #_hal_led_off         ; [CPU_] |215| 
         0000010d 0000 
    1161                      ; call occurs [#_hal_led_off] ; [] |215| 
    1162                      .dwpsn  file "../Source/App/fsm_main.c",line 216,column 7,is_stmt,isa 0
TMS320C2000 Assembler PC v6.4.2 Thu Dec 14 13:37:55 2017

Tools Copyright (c) 1996-2015 Texas Instruments Incorporated
fsm_main.asm                                                         PAGE   23

    1163 0000010e 0200          MOVB      ACC,#0                ; [CPU_] |216| 
    1164 0000010f 1E44          MOVL      *-SP[4],ACC           ; [CPU_] |216| 
    1165                      .dwpsn  file "../Source/App/fsm_main.c",line 216,column 12,is_stmt,isa 0
    1166 00000110 0642          MOVL      ACC,*-SP[2]           ; [CPU_] |216| 
    1167 00000111 0F44          CMPL      ACC,*-SP[4]           ; [CPU_] |216| 
    1168 00000112 56C9          BF        $C$L34,LOS            ; [CPU_] |216| 
         00000113 000A 
    1169                      ; branchcc occurs ; [] |216| 
    1170 00000114       $C$L33:    
    1171                      .dwpsn  file "../Source/App/fsm_main.c",line 217,column 3,is_stmt,isa 0
    1172 00000114 7700   nop
    1173                      .dwpsn  file "../Source/App/fsm_main.c",line 216,column 29,is_stmt,isa 0
    1174 00000115 0201          MOVB      ACC,#1                ; [CPU_] |216| 
    1175 00000116 0744          ADDL      ACC,*-SP[4]           ; [CPU_] |216| 
    1176 00000117 1E44          MOVL      *-SP[4],ACC           ; [CPU_] |216| 
    1177                      .dwpsn  file "../Source/App/fsm_main.c",line 216,column 12,is_stmt,isa 0
    1178 00000118 0642          MOVL      ACC,*-SP[2]           ; [CPU_] |216| 
    1179 00000119 0F44          CMPL      ACC,*-SP[4]           ; [CPU_] |216| 
    1180 0000011a 56C6          BF        $C$L33,HI             ; [CPU_] |216| 
         0000011b FFFA 
    1181                      ; branchcc occurs ; [] |216| 
    1182                      .dwpsn  file "../Source/App/fsm_main.c",line 219,column 1,is_stmt,isa 0
    1183 0000011c       $C$L34:    
    1184 0000011c FE84          SUBB      SP,#4                 ; [CPU_U] 
    1185                      .dwcfi  cfa_offset, -2
    1186 0000011d FF69          SPM       #0                    ; [CPU_] 
    1187              $C$DW$111       .dwtag  DW_TAG_TI_branch
    1188                      .dwattr $C$DW$111, DW_AT_low_pc(0x00)
    1189                      .dwattr $C$DW$111, DW_AT_TI_return
    1190 0000011e 0006          LRETR     ; [CPU_] 
    1191                      ; return occurs ; [] 
    1192                      .dwattr $C$DW$106, DW_AT_TI_end_file("../Source/App/fsm_main.c")
    1193                      .dwattr $C$DW$106, DW_AT_TI_end_line(0xdb)
    1194                      .dwattr $C$DW$106, DW_AT_TI_end_column(0x01)
    1195                      .dwendentry
    1196                      .dwendtag $C$DW$106
    1197              
    1198 0000011f               .sect   ".text"
    1199                      .clink
    1200                      .global _fsm_init_stop
    1201              
    1202              $C$DW$112       .dwtag  DW_TAG_subprogram, DW_AT_name("fsm_init_stop")
    1203                      .dwattr $C$DW$112, DW_AT_low_pc(_fsm_init_stop)
    1204                      .dwattr $C$DW$112, DW_AT_high_pc(0x00)
    1205                      .dwattr $C$DW$112, DW_AT_TI_symbol_name("_fsm_init_stop")
    1206                      .dwattr $C$DW$112, DW_AT_external
    1207                      .dwattr $C$DW$112, DW_AT_TI_begin_file("../Source/App/fsm_main.c")
    1208                      .dwattr $C$DW$112, DW_AT_TI_begin_line(0xde)
    1209                      .dwattr $C$DW$112, DW_AT_TI_begin_column(0x06)
    1210                      .dwattr $C$DW$112, DW_AT_TI_max_frame_size(-4)
    1211                      .dwpsn  file "../Source/App/fsm_main.c",line 222,column 25,is_stmt,address _fsm_init_stop,isa 0
    1212              
    1213                      .dwfde $C$DW$CIE, _fsm_init_stop
    1214              
    1215              ;***************************************************************
TMS320C2000 Assembler PC v6.4.2 Thu Dec 14 13:37:55 2017

Tools Copyright (c) 1996-2015 Texas Instruments Incorporated
fsm_main.asm                                                         PAGE   24

    1216              ;* FNAME: _fsm_init_stop                FR SIZE:   2           *
    1217              ;*                                                             *
    1218              ;* FUNCTION ENVIRONMENT                                        *
    1219              ;*                                                             *
    1220              ;* FUNCTION PROPERTIES                                         *
    1221              ;*                            0 Parameter,  2 Auto,  0 SOE     *
    1222              ;***************************************************************
    1223              
    1224 0000011f       _fsm_init_stop:
    1225                      .dwcfi  cfa_offset, -2
    1226                      .dwcfi  save_reg_to_mem, 26, 0
    1227 0000011f FE02          ADDB      SP,#2                 ; [CPU_U] 
    1228                      .dwcfi  cfa_offset, -4
    1229              $C$DW$113       .dwtag  DW_TAG_variable, DW_AT_name("i")
    1230                      .dwattr $C$DW$113, DW_AT_TI_symbol_name("_i")
    1231                      .dwattr $C$DW$113, DW_AT_type(*$C$DW$T$327)
    1232                      .dwattr $C$DW$113, DW_AT_location[DW_OP_breg20 -2]
    1233                      .dwpsn  file "../Source/App/fsm_main.c",line 224,column 2,is_stmt,isa 0
    1234 00000120 761F!         MOVW      DP,#_motor1+45        ; [CPU_U] 
         00000121 0000 
    1235 00000122 2B2D!         MOV       @_motor1+45,#0        ; [CPU_] |224| 
    1236                      .dwpsn  file "../Source/App/fsm_main.c",line 225,column 2,is_stmt,isa 0
    1237 00000123 761F!         MOVW      DP,#_motor2+45        ; [CPU_U] 
         00000124 0000 
    1238 00000125 2B2D!         MOV       @_motor2+45,#0        ; [CPU_] |225| 
    1239                      .dwpsn  file "../Source/App/fsm_main.c",line 227,column 2,is_stmt,isa 0
    1240 00000126 761F-         MOVW      DP,#_connected        ; [CPU_U] 
         00000127 0000 
    1241 00000128 9200-         MOV       AL,@_connected        ; [CPU_] |227| 
    1242 00000129 EC43          BF        $C$L41,EQ             ; [CPU_] |227| 
    1243                      ; branchcc occurs ; [] |227| 
    1244                      .dwpsn  file "../Source/App/fsm_main.c",line 228,column 3,is_stmt,isa 0
    1245 0000012a 9A00          MOVB      AL,#0                 ; [CPU_] |228| 
    1246              $C$DW$114       .dwtag  DW_TAG_TI_branch
    1247                      .dwattr $C$DW$114, DW_AT_low_pc(0x00)
    1248                      .dwattr $C$DW$114, DW_AT_name("_send_state_change_command")
    1249                      .dwattr $C$DW$114, DW_AT_TI_call
    1250 0000012b 7640!         LCR       #_send_state_change_command ; [CPU_] |228| 
         0000012c 0000 
    1251                      ; call occurs [#_send_state_change_command] ; [] |228| 
    1252                      .dwpsn  file "../Source/App/fsm_main.c",line 229,column 8,is_stmt,isa 0
    1253 0000012d 0200          MOVB      ACC,#0                ; [CPU_] |229| 
    1254 0000012e 1E42          MOVL      *-SP[2],ACC           ; [CPU_] |229| 
    1255                      .dwpsn  file "../Source/App/fsm_main.c",line 229,column 12,is_stmt,isa 0
    1256 0000012f 0204          MOVB      ACC,#4                ; [CPU_] |229| 
    1257 00000130 0F42          CMPL      ACC,*-SP[2]           ; [CPU_] |229| 
    1258 00000131 56C9          BF        $C$L36,LOS            ; [CPU_] |229| 
         00000132 000D 
    1259                      ; branchcc occurs ; [] |229| 
    1260 00000133       $C$L35:    
    1261                      .dwpsn  file "../Source/App/fsm_main.c",line 230,column 4,is_stmt,isa 0
    1262              $C$DW$115       .dwtag  DW_TAG_TI_branch
    1263                      .dwattr $C$DW$115, DW_AT_low_pc(0x00)
    1264                      .dwattr $C$DW$115, DW_AT_name("_enter_command_mode")
    1265                      .dwattr $C$DW$115, DW_AT_TI_call
TMS320C2000 Assembler PC v6.4.2 Thu Dec 14 13:37:55 2017

Tools Copyright (c) 1996-2015 Texas Instruments Incorporated
fsm_main.asm                                                         PAGE   25

    1266 00000133 7640!         LCR       #_enter_command_mode  ; [CPU_] |230| 
         00000134 0000 
    1267                      ; call occurs [#_enter_command_mode] ; [] |230| 
    1268 00000135 5200          CMPB      AL,#0                 ; [CPU_] |230| 
    1269 00000136 EC08          BF        $C$L36,EQ             ; [CPU_] |230| 
    1270                      ; branchcc occurs ; [] |230| 
    1271                      .dwpsn  file "../Source/App/fsm_main.c",line 231,column 5,is_stmt,isa 0
    1272                      .dwpsn  file "../Source/App/fsm_main.c",line 229,column 16,is_stmt,isa 0
    1273 00000137 0201          MOVB      ACC,#1                ; [CPU_] |229| 
    1274 00000138 0742          ADDL      ACC,*-SP[2]           ; [CPU_] |229| 
    1275 00000139 1E42          MOVL      *-SP[2],ACC           ; [CPU_] |229| 
    1276                      .dwpsn  file "../Source/App/fsm_main.c",line 229,column 12,is_stmt,isa 0
    1277 0000013a 0204          MOVB      ACC,#4                ; [CPU_] |229| 
    1278 0000013b 0F42          CMPL      ACC,*-SP[2]           ; [CPU_] |229| 
    1279 0000013c 56C6          BF        $C$L35,HI             ; [CPU_] |229| 
         0000013d FFF7 
    1280                      ; branchcc occurs ; [] |229| 
    1281 0000013e       $C$L36:    
    1282                      .dwpsn  file "../Source/App/fsm_main.c",line 235,column 8,is_stmt,isa 0
    1283 0000013e 0200          MOVB      ACC,#0                ; [CPU_] |235| 
    1284 0000013f 1E42          MOVL      *-SP[2],ACC           ; [CPU_] |235| 
    1285                      .dwpsn  file "../Source/App/fsm_main.c",line 235,column 12,is_stmt,isa 0
    1286 00000140 761F+         MOVW      DP,#_TIMEOVERFLOW     ; [CPU_U] 
         00000141 0000 
    1287 00000142 0600+         MOVL      ACC,@_TIMEOVERFLOW    ; [CPU_] |235| 
    1288 00000143 0F42          CMPL      ACC,*-SP[2]           ; [CPU_] |235| 
    1289 00000144 56C9          BF        $C$L39,LOS            ; [CPU_] |235| 
         00000145 0013 
    1290                      ; branchcc occurs ; [] |235| 
    1291 00000146       $C$L37:    
    1292                      .dwpsn  file "../Source/App/fsm_main.c",line 236,column 4,is_stmt,isa 0
    1293              $C$DW$116       .dwtag  DW_TAG_TI_branch
    1294                      .dwattr $C$DW$116, DW_AT_low_pc(0x00)
    1295                      .dwattr $C$DW$116, DW_AT_name("_close_tcp_connection")
    1296                      .dwattr $C$DW$116, DW_AT_TI_call
    1297 00000146 7640!         LCR       #_close_tcp_connection ; [CPU_] |236| 
         00000147 0000 
    1298                      ; call occurs [#_close_tcp_connection] ; [] |236| 
    1299 00000148 5200          CMPB      AL,#0                 ; [CPU_] |236| 
    1300 00000149 ED05          BF        $C$L38,NEQ            ; [CPU_] |236| 
    1301                      ; branchcc occurs ; [] |236| 
    1302                      .dwpsn  file "../Source/App/fsm_main.c",line 237,column 5,is_stmt,isa 0
    1303 0000014a 761F-         MOVW      DP,#_connected        ; [CPU_U] 
         0000014b 0000 
    1304 0000014c 2B00-         MOV       @_connected,#0        ; [CPU_] |237| 
    1305                      .dwpsn  file "../Source/App/fsm_main.c",line 238,column 5,is_stmt,isa 0
    1306 0000014d 6F0A          B         $C$L39,UNC            ; [CPU_] |238| 
    1307                      ; branch occurs ; [] |238| 
    1308 0000014e       $C$L38:    
    1309                      .dwpsn  file "../Source/App/fsm_main.c",line 235,column 27,is_stmt,isa 0
    1310 0000014e 0201          MOVB      ACC,#1                ; [CPU_] |235| 
    1311 0000014f 0742          ADDL      ACC,*-SP[2]           ; [CPU_] |235| 
    1312 00000150 1E42          MOVL      *-SP[2],ACC           ; [CPU_] |235| 
    1313                      .dwpsn  file "../Source/App/fsm_main.c",line 235,column 12,is_stmt,isa 0
    1314 00000151 761F+         MOVW      DP,#_TIMEOVERFLOW     ; [CPU_U] 
TMS320C2000 Assembler PC v6.4.2 Thu Dec 14 13:37:55 2017

Tools Copyright (c) 1996-2015 Texas Instruments Incorporated
fsm_main.asm                                                         PAGE   26

         00000152 0000 
    1315 00000153 0600+         MOVL      ACC,@_TIMEOVERFLOW    ; [CPU_] |235| 
    1316 00000154 0F42          CMPL      ACC,*-SP[2]           ; [CPU_] |235| 
    1317 00000155 56C6          BF        $C$L37,HI             ; [CPU_] |235| 
         00000156 FFF1 
    1318                      ; branchcc occurs ; [] |235| 
    1319 00000157       $C$L39:    
    1320                      .dwpsn  file "../Source/App/fsm_main.c",line 242,column 8,is_stmt,isa 0
    1321 00000157 0200          MOVB      ACC,#0                ; [CPU_] |242| 
    1322 00000158 1E42          MOVL      *-SP[2],ACC           ; [CPU_] |242| 
    1323                      .dwpsn  file "../Source/App/fsm_main.c",line 242,column 12,is_stmt,isa 0
    1324 00000159 761F+         MOVW      DP,#_TIMEOVERFLOW     ; [CPU_U] 
         0000015a 0000 
    1325 0000015b 0600+         MOVL      ACC,@_TIMEOVERFLOW    ; [CPU_] |242| 
    1326 0000015c 0F42          CMPL      ACC,*-SP[2]           ; [CPU_] |242| 
    1327 0000015d 56C9          BF        $C$L41,LOS            ; [CPU_] |242| 
         0000015e 000F 
    1328                      ; branchcc occurs ; [] |242| 
    1329 0000015f       $C$L40:    
    1330                      .dwpsn  file "../Source/App/fsm_main.c",line 243,column 4,is_stmt,isa 0
    1331              $C$DW$117       .dwtag  DW_TAG_TI_branch
    1332                      .dwattr $C$DW$117, DW_AT_low_pc(0x00)
    1333                      .dwattr $C$DW$117, DW_AT_name("_exit_command_mode")
    1334                      .dwattr $C$DW$117, DW_AT_TI_call
    1335 0000015f 7640!         LCR       #_exit_command_mode   ; [CPU_] |243| 
         00000160 0000 
    1336                      ; call occurs [#_exit_command_mode] ; [] |243| 
    1337 00000161 5200          CMPB      AL,#0                 ; [CPU_] |243| 
    1338 00000162 EC0A          BF        $C$L41,EQ             ; [CPU_] |243| 
    1339                      ; branchcc occurs ; [] |243| 
    1340                      .dwpsn  file "../Source/App/fsm_main.c",line 244,column 5,is_stmt,isa 0
    1341                      .dwpsn  file "../Source/App/fsm_main.c",line 242,column 27,is_stmt,isa 0
    1342 00000163 0201          MOVB      ACC,#1                ; [CPU_] |242| 
    1343 00000164 0742          ADDL      ACC,*-SP[2]           ; [CPU_] |242| 
    1344 00000165 1E42          MOVL      *-SP[2],ACC           ; [CPU_] |242| 
    1345                      .dwpsn  file "../Source/App/fsm_main.c",line 242,column 12,is_stmt,isa 0
    1346 00000166 761F+         MOVW      DP,#_TIMEOVERFLOW     ; [CPU_U] 
         00000167 0000 
    1347 00000168 0600+         MOVL      ACC,@_TIMEOVERFLOW    ; [CPU_] |242| 
    1348 00000169 0F42          CMPL      ACC,*-SP[2]           ; [CPU_] |242| 
    1349 0000016a 56C6          BF        $C$L40,HI             ; [CPU_] |242| 
         0000016b FFF5 
    1350                      ; branchcc occurs ; [] |242| 
    1351 0000016c       $C$L41:    
    1352                      .dwpsn  file "../Source/App/fsm_main.c",line 249,column 2,is_stmt,isa 0
    1353              $C$DW$118       .dwtag  DW_TAG_TI_branch
    1354                      .dwattr $C$DW$118, DW_AT_low_pc(0x00)
    1355                      .dwattr $C$DW$118, DW_AT_name("_hal_led_off_all")
    1356                      .dwattr $C$DW$118, DW_AT_TI_call
    1357 0000016c 7640!         LCR       #_hal_led_off_all     ; [CPU_] |249| 
         0000016d 0000 
    1358                      ; call occurs [#_hal_led_off_all] ; [] |249| 
    1359                      .dwpsn  file "../Source/App/fsm_main.c",line 250,column 2,is_stmt,isa 0
    1360 0000016e 9A47          MOVB      AL,#71                ; [CPU_] |250| 
    1361              $C$DW$119       .dwtag  DW_TAG_TI_branch
TMS320C2000 Assembler PC v6.4.2 Thu Dec 14 13:37:55 2017

Tools Copyright (c) 1996-2015 Texas Instruments Incorporated
fsm_main.asm                                                         PAGE   27

    1362                      .dwattr $C$DW$119, DW_AT_low_pc(0x00)
    1363                      .dwattr $C$DW$119, DW_AT_name("_hal_led_on")
    1364                      .dwattr $C$DW$119, DW_AT_TI_call
    1365 0000016f 7640!         LCR       #_hal_led_on          ; [CPU_] |250| 
         00000170 0000 
    1366                      ; call occurs [#_hal_led_on] ; [] |250| 
    1367                      .dwpsn  file "../Source/App/fsm_main.c",line 251,column 2,is_stmt,isa 0
    1368 00000171 761F-         MOVW      DP,#_state            ; [CPU_U] 
         00000172 0000 
    1369 00000173 2B01-         MOV       @_state,#0            ; [CPU_] |251| 
    1370                      .dwpsn  file "../Source/App/fsm_main.c",line 252,column 1,is_stmt,isa 0
    1371 00000174 FE82          SUBB      SP,#2                 ; [CPU_U] 
    1372                      .dwcfi  cfa_offset, -2
    1373              $C$DW$120       .dwtag  DW_TAG_TI_branch
    1374                      .dwattr $C$DW$120, DW_AT_low_pc(0x00)
    1375                      .dwattr $C$DW$120, DW_AT_TI_return
    1376 00000175 0006          LRETR     ; [CPU_] 
    1377                      ; return occurs ; [] 
    1378                      .dwattr $C$DW$112, DW_AT_TI_end_file("../Source/App/fsm_main.c")
    1379                      .dwattr $C$DW$112, DW_AT_TI_end_line(0xfc)
    1380                      .dwattr $C$DW$112, DW_AT_TI_end_column(0x01)
    1381                      .dwendentry
    1382                      .dwendtag $C$DW$112
    1383              
    1384 00000176               .sect   ".text"
    1385                      .clink
    1386                      .global _fsm_init_config
    1387              
    1388              $C$DW$121       .dwtag  DW_TAG_subprogram, DW_AT_name("fsm_init_config")
    1389                      .dwattr $C$DW$121, DW_AT_low_pc(_fsm_init_config)
    1390                      .dwattr $C$DW$121, DW_AT_high_pc(0x00)
    1391                      .dwattr $C$DW$121, DW_AT_TI_symbol_name("_fsm_init_config")
    1392                      .dwattr $C$DW$121, DW_AT_external
    1393                      .dwattr $C$DW$121, DW_AT_TI_begin_file("../Source/App/fsm_main.c")
    1394                      .dwattr $C$DW$121, DW_AT_TI_begin_line(0xff)
    1395                      .dwattr $C$DW$121, DW_AT_TI_begin_column(0x06)
    1396                      .dwattr $C$DW$121, DW_AT_TI_max_frame_size(-2)
    1397                      .dwpsn  file "../Source/App/fsm_main.c",line 255,column 27,is_stmt,address _fsm_init_config,isa 0
    1398              
    1399                      .dwfde $C$DW$CIE, _fsm_init_config
    1400              
    1401              ;***************************************************************
    1402              ;* FNAME: _fsm_init_config              FR SIZE:   0           *
    1403              ;*                                                             *
    1404              ;* FUNCTION ENVIRONMENT                                        *
    1405              ;*                                                             *
    1406              ;* FUNCTION PROPERTIES                                         *
    1407              ;*                            0 Parameter,  0 Auto,  0 SOE     *
    1408              ;***************************************************************
    1409              
    1410 00000176       _fsm_init_config:
    1411                      .dwcfi  cfa_offset, -2
    1412                      .dwcfi  save_reg_to_mem, 26, 0
    1413                      .dwpsn  file "../Source/App/fsm_main.c",line 256,column 2,is_stmt,isa 0
    1414 00000176 761F!         MOVW      DP,#_motor1+45        ; [CPU_U] 
TMS320C2000 Assembler PC v6.4.2 Thu Dec 14 13:37:55 2017

Tools Copyright (c) 1996-2015 Texas Instruments Incorporated
fsm_main.asm                                                         PAGE   28

         00000177 0000 
    1415 00000178 2B2D!         MOV       @_motor1+45,#0        ; [CPU_] |256| 
    1416                      .dwpsn  file "../Source/App/fsm_main.c",line 257,column 2,is_stmt,isa 0
    1417 00000179 761F!         MOVW      DP,#_motor2+45        ; [CPU_U] 
         0000017a 0000 
    1418 0000017b 2B2D!         MOV       @_motor2+45,#0        ; [CPU_] |257| 
    1419                      .dwpsn  file "../Source/App/fsm_main.c",line 258,column 2,is_stmt,isa 0
    1420 0000017c 9A01          MOVB      AL,#1                 ; [CPU_] |258| 
    1421              $C$DW$122       .dwtag  DW_TAG_TI_branch
    1422                      .dwattr $C$DW$122, DW_AT_low_pc(0x00)
    1423                      .dwattr $C$DW$122, DW_AT_name("_send_state_change_command")
    1424                      .dwattr $C$DW$122, DW_AT_TI_call
    1425 0000017d 7640!         LCR       #_send_state_change_command ; [CPU_] |258| 
         0000017e 0000 
    1426                      ; call occurs [#_send_state_change_command] ; [] |258| 
    1427                      .dwpsn  file "../Source/App/fsm_main.c",line 259,column 2,is_stmt,isa 0
    1428              $C$DW$123       .dwtag  DW_TAG_TI_branch
    1429                      .dwattr $C$DW$123, DW_AT_low_pc(0x00)
    1430                      .dwattr $C$DW$123, DW_AT_name("_hal_led_on_all")
    1431                      .dwattr $C$DW$123, DW_AT_TI_call
    1432 0000017f 7640!         LCR       #_hal_led_on_all      ; [CPU_] |259| 
         00000180 0000 
    1433                      ; call occurs [#_hal_led_on_all] ; [] |259| 
    1434                      .dwpsn  file "../Source/App/fsm_main.c",line 260,column 2,is_stmt,isa 0
    1435 00000181 761F-         MOVW      DP,#_state            ; [CPU_U] 
         00000182 0000 
    1436 00000183 56BF-         MOVB      @_state,#1,UNC        ; [CPU_] |260| 
         00000184 0101 
    1437                      .dwpsn  file "../Source/App/fsm_main.c",line 261,column 1,is_stmt,isa 0
    1438              $C$DW$124       .dwtag  DW_TAG_TI_branch
    1439                      .dwattr $C$DW$124, DW_AT_low_pc(0x00)
    1440                      .dwattr $C$DW$124, DW_AT_TI_return
    1441 00000185 0006          LRETR     ; [CPU_] 
    1442                      ; return occurs ; [] 
    1443                      .dwattr $C$DW$121, DW_AT_TI_end_file("../Source/App/fsm_main.c")
    1444                      .dwattr $C$DW$121, DW_AT_TI_end_line(0x105)
    1445                      .dwattr $C$DW$121, DW_AT_TI_end_column(0x01)
    1446                      .dwendentry
    1447                      .dwendtag $C$DW$121
    1448              
    1449 00000186               .sect   ".text"
    1450                      .clink
    1451                      .global _fsm_init_run
    1452              
    1453              $C$DW$125       .dwtag  DW_TAG_subprogram, DW_AT_name("fsm_init_run")
    1454                      .dwattr $C$DW$125, DW_AT_low_pc(_fsm_init_run)
    1455                      .dwattr $C$DW$125, DW_AT_high_pc(0x00)
    1456                      .dwattr $C$DW$125, DW_AT_TI_symbol_name("_fsm_init_run")
    1457                      .dwattr $C$DW$125, DW_AT_external
    1458                      .dwattr $C$DW$125, DW_AT_TI_begin_file("../Source/App/fsm_main.c")
    1459                      .dwattr $C$DW$125, DW_AT_TI_begin_line(0x108)
    1460                      .dwattr $C$DW$125, DW_AT_TI_begin_column(0x06)
    1461                      .dwattr $C$DW$125, DW_AT_TI_max_frame_size(-2)
    1462                      .dwpsn  file "../Source/App/fsm_main.c",line 264,column 24,is_stmt,address _fsm_init_run,isa 0
    1463              
TMS320C2000 Assembler PC v6.4.2 Thu Dec 14 13:37:55 2017

Tools Copyright (c) 1996-2015 Texas Instruments Incorporated
fsm_main.asm                                                         PAGE   29

    1464                      .dwfde $C$DW$CIE, _fsm_init_run
    1465              
    1466              ;***************************************************************
    1467              ;* FNAME: _fsm_init_run                 FR SIZE:   0           *
    1468              ;*                                                             *
    1469              ;* FUNCTION ENVIRONMENT                                        *
    1470              ;*                                                             *
    1471              ;* FUNCTION PROPERTIES                                         *
    1472              ;*                            0 Parameter,  0 Auto,  0 SOE     *
    1473              ;***************************************************************
    1474              
    1475 00000186       _fsm_init_run:
    1476                      .dwcfi  cfa_offset, -2
    1477                      .dwcfi  save_reg_to_mem, 26, 0
    1478                      .dwpsn  file "../Source/App/fsm_main.c",line 265,column 2,is_stmt,isa 0
    1479 00000186 761F!         MOVW      DP,#_motor1+278       ; [CPU_U] 
         00000187 0004 
    1480 00000188 8F00!         MOVL      XAR4,#_steeringContr  ; [CPU_U] |265| 
         00000189 0000 
    1481 0000018a 0616!         MOVL      ACC,@_motor1+278      ; [CPU_] |265| 
    1482              $C$DW$126       .dwtag  DW_TAG_TI_branch
    1483                      .dwattr $C$DW$126, DW_AT_low_pc(0x00)
    1484                      .dwattr $C$DW$126, DW_AT_name("_init_steering_control")
    1485                      .dwattr $C$DW$126, DW_AT_TI_call
    1486 0000018b 7640!         LCR       #_init_steering_control ; [CPU_] |265| 
         0000018c 0000 
    1487                      ; call occurs [#_init_steering_control] ; [] |265| 
    1488                      .dwpsn  file "../Source/App/fsm_main.c",line 266,column 2,is_stmt,isa 0
    1489 0000018d 761F!         MOVW      DP,#_motor1+45        ; [CPU_U] 
         0000018e 0000 
    1490 0000018f 56BF!         MOVB      @_motor1+45,#1,UNC    ; [CPU_] |266| 
         00000190 012D 
    1491                      .dwpsn  file "../Source/App/fsm_main.c",line 267,column 2,is_stmt,isa 0
    1492 00000191 761F!         MOVW      DP,#_motor2+45        ; [CPU_U] 
         00000192 0000 
    1493 00000193 56BF!         MOVB      @_motor2+45,#1,UNC    ; [CPU_] |267| 
         00000194 012D 
    1494                      .dwpsn  file "../Source/App/fsm_main.c",line 268,column 2,is_stmt,isa 0
    1495 00000195 761F!         MOVW      DP,#_steeringContr    ; [CPU_U] 
         00000196 0000 
    1496 00000197 E590          ZERO      R0H                   ; [CPU_] |268| 
    1497 00000198 E203!         MOV32     @_steeringContr,R0H   ; [CPU_] |268| 
         00000199 0000 
    1498                      .dwpsn  file "../Source/App/fsm_main.c",line 269,column 2,is_stmt,isa 0
    1499 0000019a 9A02          MOVB      AL,#2                 ; [CPU_] |269| 
    1500              $C$DW$127       .dwtag  DW_TAG_TI_branch
    1501                      .dwattr $C$DW$127, DW_AT_low_pc(0x00)
    1502                      .dwattr $C$DW$127, DW_AT_name("_send_state_change_command")
    1503                      .dwattr $C$DW$127, DW_AT_TI_call
    1504 0000019b 7640!         LCR       #_send_state_change_command ; [CPU_] |269| 
         0000019c 0000 
    1505                      ; call occurs [#_send_state_change_command] ; [] |269| 
    1506                      .dwpsn  file "../Source/App/fsm_main.c",line 270,column 2,is_stmt,isa 0
    1507              $C$DW$128       .dwtag  DW_TAG_TI_branch
    1508                      .dwattr $C$DW$128, DW_AT_low_pc(0x00)
TMS320C2000 Assembler PC v6.4.2 Thu Dec 14 13:37:55 2017

Tools Copyright (c) 1996-2015 Texas Instruments Incorporated
fsm_main.asm                                                         PAGE   30

    1509                      .dwattr $C$DW$128, DW_AT_name("_hal_led_off_all")
    1510                      .dwattr $C$DW$128, DW_AT_TI_call
    1511 0000019d 7640!         LCR       #_hal_led_off_all     ; [CPU_] |270| 
         0000019e 0000 
    1512                      ; call occurs [#_hal_led_off_all] ; [] |270| 
    1513                      .dwpsn  file "../Source/App/fsm_main.c",line 271,column 2,is_stmt,isa 0
    1514 0000019f 9A40          MOVB      AL,#64                ; [CPU_] |271| 
    1515              $C$DW$129       .dwtag  DW_TAG_TI_branch
    1516                      .dwattr $C$DW$129, DW_AT_low_pc(0x00)
    1517                      .dwattr $C$DW$129, DW_AT_name("_hal_led_on")
    1518                      .dwattr $C$DW$129, DW_AT_TI_call
    1519 000001a0 7640!         LCR       #_hal_led_on          ; [CPU_] |271| 
         000001a1 0000 
    1520                      ; call occurs [#_hal_led_on] ; [] |271| 
    1521                      .dwpsn  file "../Source/App/fsm_main.c",line 272,column 2,is_stmt,isa 0
    1522 000001a2 761F-         MOVW      DP,#_state            ; [CPU_U] 
         000001a3 0000 
    1523 000001a4 56BF-         MOVB      @_state,#2,UNC        ; [CPU_] |272| 
         000001a5 0201 
    1524                      .dwpsn  file "../Source/App/fsm_main.c",line 273,column 1,is_stmt,isa 0
    1525              $C$DW$130       .dwtag  DW_TAG_TI_branch
    1526                      .dwattr $C$DW$130, DW_AT_low_pc(0x00)
    1527                      .dwattr $C$DW$130, DW_AT_TI_return
    1528 000001a6 0006          LRETR     ; [CPU_] 
    1529                      ; return occurs ; [] 
    1530                      .dwattr $C$DW$125, DW_AT_TI_end_file("../Source/App/fsm_main.c")
    1531                      .dwattr $C$DW$125, DW_AT_TI_end_line(0x111)
    1532                      .dwattr $C$DW$125, DW_AT_TI_end_column(0x01)
    1533                      .dwendentry
    1534                      .dwendtag $C$DW$125
    1535              
    1536 000001a7               .sect   ".text"
    1537                      .clink
    1538                      .global _fsm_init_error
    1539              
    1540              $C$DW$131       .dwtag  DW_TAG_subprogram, DW_AT_name("fsm_init_error")
    1541                      .dwattr $C$DW$131, DW_AT_low_pc(_fsm_init_error)
    1542                      .dwattr $C$DW$131, DW_AT_high_pc(0x00)
    1543                      .dwattr $C$DW$131, DW_AT_TI_symbol_name("_fsm_init_error")
    1544                      .dwattr $C$DW$131, DW_AT_external
    1545                      .dwattr $C$DW$131, DW_AT_TI_begin_file("../Source/App/fsm_main.c")
    1546                      .dwattr $C$DW$131, DW_AT_TI_begin_line(0x114)
    1547                      .dwattr $C$DW$131, DW_AT_TI_begin_column(0x06)
    1548                      .dwattr $C$DW$131, DW_AT_TI_max_frame_size(-4)
    1549                      .dwpsn  file "../Source/App/fsm_main.c",line 276,column 27,is_stmt,address _fsm_init_error,isa 0
    1550              
    1551                      .dwfde $C$DW$CIE, _fsm_init_error
    1552              
    1553              ;***************************************************************
    1554              ;* FNAME: _fsm_init_error               FR SIZE:   2           *
    1555              ;*                                                             *
    1556              ;* FUNCTION ENVIRONMENT                                        *
    1557              ;*                                                             *
    1558              ;* FUNCTION PROPERTIES                                         *
    1559              ;*                            0 Parameter,  2 Auto,  0 SOE     *
TMS320C2000 Assembler PC v6.4.2 Thu Dec 14 13:37:55 2017

Tools Copyright (c) 1996-2015 Texas Instruments Incorporated
fsm_main.asm                                                         PAGE   31

    1560              ;***************************************************************
    1561              
    1562 000001a7       _fsm_init_error:
    1563                      .dwcfi  cfa_offset, -2
    1564                      .dwcfi  save_reg_to_mem, 26, 0
    1565 000001a7 FE02          ADDB      SP,#2                 ; [CPU_U] 
    1566                      .dwcfi  cfa_offset, -4
    1567              $C$DW$132       .dwtag  DW_TAG_variable, DW_AT_name("i")
    1568                      .dwattr $C$DW$132, DW_AT_TI_symbol_name("_i")
    1569                      .dwattr $C$DW$132, DW_AT_type(*$C$DW$T$327)
    1570                      .dwattr $C$DW$132, DW_AT_location[DW_OP_breg20 -2]
    1571                      .dwpsn  file "../Source/App/fsm_main.c",line 278,column 2,is_stmt,isa 0
    1572 000001a8 761F!         MOVW      DP,#_motor1+45        ; [CPU_U] 
         000001a9 0000 
    1573 000001aa 2B2D!         MOV       @_motor1+45,#0        ; [CPU_] |278| 
    1574                      .dwpsn  file "../Source/App/fsm_main.c",line 279,column 2,is_stmt,isa 0
    1575 000001ab 761F!         MOVW      DP,#_motor2+45        ; [CPU_U] 
         000001ac 0000 
    1576 000001ad 2B2D!         MOV       @_motor2+45,#0        ; [CPU_] |279| 
    1577                      .dwpsn  file "../Source/App/fsm_main.c",line 281,column 2,is_stmt,isa 0
    1578 000001ae 761F-         MOVW      DP,#_connected        ; [CPU_U] 
         000001af 0000 
    1579 000001b0 9200-         MOV       AL,@_connected        ; [CPU_] |281| 
    1580 000001b1 EC43          BF        $C$L48,EQ             ; [CPU_] |281| 
    1581                      ; branchcc occurs ; [] |281| 
    1582                      .dwpsn  file "../Source/App/fsm_main.c",line 282,column 3,is_stmt,isa 0
    1583 000001b2 9A00          MOVB      AL,#0                 ; [CPU_] |282| 
    1584              $C$DW$133       .dwtag  DW_TAG_TI_branch
    1585                      .dwattr $C$DW$133, DW_AT_low_pc(0x00)
    1586                      .dwattr $C$DW$133, DW_AT_name("_send_state_change_command")
    1587                      .dwattr $C$DW$133, DW_AT_TI_call
    1588 000001b3 7640!         LCR       #_send_state_change_command ; [CPU_] |282| 
         000001b4 0000 
    1589                      ; call occurs [#_send_state_change_command] ; [] |282| 
    1590                      .dwpsn  file "../Source/App/fsm_main.c",line 283,column 8,is_stmt,isa 0
    1591 000001b5 0200          MOVB      ACC,#0                ; [CPU_] |283| 
    1592 000001b6 1E42          MOVL      *-SP[2],ACC           ; [CPU_] |283| 
    1593                      .dwpsn  file "../Source/App/fsm_main.c",line 283,column 12,is_stmt,isa 0
    1594 000001b7 0204          MOVB      ACC,#4                ; [CPU_] |283| 
    1595 000001b8 0F42          CMPL      ACC,*-SP[2]           ; [CPU_] |283| 
    1596 000001b9 56C9          BF        $C$L43,LOS            ; [CPU_] |283| 
         000001ba 000D 
    1597                      ; branchcc occurs ; [] |283| 
    1598 000001bb       $C$L42:    
    1599                      .dwpsn  file "../Source/App/fsm_main.c",line 284,column 4,is_stmt,isa 0
    1600              $C$DW$134       .dwtag  DW_TAG_TI_branch
    1601                      .dwattr $C$DW$134, DW_AT_low_pc(0x00)
    1602                      .dwattr $C$DW$134, DW_AT_name("_enter_command_mode")
    1603                      .dwattr $C$DW$134, DW_AT_TI_call
    1604 000001bb 7640!         LCR       #_enter_command_mode  ; [CPU_] |284| 
         000001bc 0000 
    1605                      ; call occurs [#_enter_command_mode] ; [] |284| 
    1606 000001bd 5200          CMPB      AL,#0                 ; [CPU_] |284| 
    1607 000001be EC08          BF        $C$L43,EQ             ; [CPU_] |284| 
    1608                      ; branchcc occurs ; [] |284| 
TMS320C2000 Assembler PC v6.4.2 Thu Dec 14 13:37:55 2017

Tools Copyright (c) 1996-2015 Texas Instruments Incorporated
fsm_main.asm                                                         PAGE   32

    1609                      .dwpsn  file "../Source/App/fsm_main.c",line 285,column 5,is_stmt,isa 0
    1610                      .dwpsn  file "../Source/App/fsm_main.c",line 283,column 16,is_stmt,isa 0
    1611 000001bf 0201          MOVB      ACC,#1                ; [CPU_] |283| 
    1612 000001c0 0742          ADDL      ACC,*-SP[2]           ; [CPU_] |283| 
    1613 000001c1 1E42          MOVL      *-SP[2],ACC           ; [CPU_] |283| 
    1614                      .dwpsn  file "../Source/App/fsm_main.c",line 283,column 12,is_stmt,isa 0
    1615 000001c2 0204          MOVB      ACC,#4                ; [CPU_] |283| 
    1616 000001c3 0F42          CMPL      ACC,*-SP[2]           ; [CPU_] |283| 
    1617 000001c4 56C6          BF        $C$L42,HI             ; [CPU_] |283| 
         000001c5 FFF7 
    1618                      ; branchcc occurs ; [] |283| 
    1619 000001c6       $C$L43:    
    1620                      .dwpsn  file "../Source/App/fsm_main.c",line 289,column 8,is_stmt,isa 0
    1621 000001c6 0200          MOVB      ACC,#0                ; [CPU_] |289| 
    1622 000001c7 1E42          MOVL      *-SP[2],ACC           ; [CPU_] |289| 
    1623                      .dwpsn  file "../Source/App/fsm_main.c",line 289,column 12,is_stmt,isa 0
    1624 000001c8 761F+         MOVW      DP,#_TIMEOVERFLOW     ; [CPU_U] 
         000001c9 0000 
    1625 000001ca 0600+         MOVL      ACC,@_TIMEOVERFLOW    ; [CPU_] |289| 
    1626 000001cb 0F42          CMPL      ACC,*-SP[2]           ; [CPU_] |289| 
    1627 000001cc 56C9          BF        $C$L46,LOS            ; [CPU_] |289| 
         000001cd 0013 
    1628                      ; branchcc occurs ; [] |289| 
    1629 000001ce       $C$L44:    
    1630                      .dwpsn  file "../Source/App/fsm_main.c",line 290,column 4,is_stmt,isa 0
    1631              $C$DW$135       .dwtag  DW_TAG_TI_branch
    1632                      .dwattr $C$DW$135, DW_AT_low_pc(0x00)
    1633                      .dwattr $C$DW$135, DW_AT_name("_close_tcp_connection")
    1634                      .dwattr $C$DW$135, DW_AT_TI_call
    1635 000001ce 7640!         LCR       #_close_tcp_connection ; [CPU_] |290| 
         000001cf 0000 
    1636                      ; call occurs [#_close_tcp_connection] ; [] |290| 
    1637 000001d0 5200          CMPB      AL,#0                 ; [CPU_] |290| 
    1638 000001d1 ED05          BF        $C$L45,NEQ            ; [CPU_] |290| 
    1639                      ; branchcc occurs ; [] |290| 
    1640                      .dwpsn  file "../Source/App/fsm_main.c",line 291,column 5,is_stmt,isa 0
    1641 000001d2 761F-         MOVW      DP,#_connected        ; [CPU_U] 
         000001d3 0000 
    1642 000001d4 2B00-         MOV       @_connected,#0        ; [CPU_] |291| 
    1643                      .dwpsn  file "../Source/App/fsm_main.c",line 292,column 5,is_stmt,isa 0
    1644 000001d5 6F0A          B         $C$L46,UNC            ; [CPU_] |292| 
    1645                      ; branch occurs ; [] |292| 
    1646 000001d6       $C$L45:    
    1647                      .dwpsn  file "../Source/App/fsm_main.c",line 289,column 27,is_stmt,isa 0
    1648 000001d6 0201          MOVB      ACC,#1                ; [CPU_] |289| 
    1649 000001d7 0742          ADDL      ACC,*-SP[2]           ; [CPU_] |289| 
    1650 000001d8 1E42          MOVL      *-SP[2],ACC           ; [CPU_] |289| 
    1651                      .dwpsn  file "../Source/App/fsm_main.c",line 289,column 12,is_stmt,isa 0
    1652 000001d9 761F+         MOVW      DP,#_TIMEOVERFLOW     ; [CPU_U] 
         000001da 0000 
    1653 000001db 0600+         MOVL      ACC,@_TIMEOVERFLOW    ; [CPU_] |289| 
    1654 000001dc 0F42          CMPL      ACC,*-SP[2]           ; [CPU_] |289| 
    1655 000001dd 56C6          BF        $C$L44,HI             ; [CPU_] |289| 
         000001de FFF1 
    1656                      ; branchcc occurs ; [] |289| 
TMS320C2000 Assembler PC v6.4.2 Thu Dec 14 13:37:55 2017

Tools Copyright (c) 1996-2015 Texas Instruments Incorporated
fsm_main.asm                                                         PAGE   33

    1657 000001df       $C$L46:    
    1658                      .dwpsn  file "../Source/App/fsm_main.c",line 296,column 8,is_stmt,isa 0
    1659 000001df 0200          MOVB      ACC,#0                ; [CPU_] |296| 
    1660 000001e0 1E42          MOVL      *-SP[2],ACC           ; [CPU_] |296| 
    1661                      .dwpsn  file "../Source/App/fsm_main.c",line 296,column 12,is_stmt,isa 0
    1662 000001e1 761F+         MOVW      DP,#_TIMEOVERFLOW     ; [CPU_U] 
         000001e2 0000 
    1663 000001e3 0600+         MOVL      ACC,@_TIMEOVERFLOW    ; [CPU_] |296| 
    1664 000001e4 0F42          CMPL      ACC,*-SP[2]           ; [CPU_] |296| 
    1665 000001e5 56C9          BF        $C$L48,LOS            ; [CPU_] |296| 
         000001e6 000F 
    1666                      ; branchcc occurs ; [] |296| 
    1667 000001e7       $C$L47:    
    1668                      .dwpsn  file "../Source/App/fsm_main.c",line 297,column 4,is_stmt,isa 0
    1669              $C$DW$136       .dwtag  DW_TAG_TI_branch
    1670                      .dwattr $C$DW$136, DW_AT_low_pc(0x00)
    1671                      .dwattr $C$DW$136, DW_AT_name("_exit_command_mode")
    1672                      .dwattr $C$DW$136, DW_AT_TI_call
    1673 000001e7 7640!         LCR       #_exit_command_mode   ; [CPU_] |297| 
         000001e8 0000 
    1674                      ; call occurs [#_exit_command_mode] ; [] |297| 
    1675 000001e9 5200          CMPB      AL,#0                 ; [CPU_] |297| 
    1676 000001ea EC0A          BF        $C$L48,EQ             ; [CPU_] |297| 
    1677                      ; branchcc occurs ; [] |297| 
    1678                      .dwpsn  file "../Source/App/fsm_main.c",line 298,column 5,is_stmt,isa 0
    1679                      .dwpsn  file "../Source/App/fsm_main.c",line 296,column 27,is_stmt,isa 0
    1680 000001eb 0201          MOVB      ACC,#1                ; [CPU_] |296| 
    1681 000001ec 0742          ADDL      ACC,*-SP[2]           ; [CPU_] |296| 
    1682 000001ed 1E42          MOVL      *-SP[2],ACC           ; [CPU_] |296| 
    1683                      .dwpsn  file "../Source/App/fsm_main.c",line 296,column 12,is_stmt,isa 0
    1684 000001ee 761F+         MOVW      DP,#_TIMEOVERFLOW     ; [CPU_U] 
         000001ef 0000 
    1685 000001f0 0600+         MOVL      ACC,@_TIMEOVERFLOW    ; [CPU_] |296| 
    1686 000001f1 0F42          CMPL      ACC,*-SP[2]           ; [CPU_] |296| 
    1687 000001f2 56C6          BF        $C$L47,HI             ; [CPU_] |296| 
         000001f3 FFF5 
    1688                      ; branchcc occurs ; [] |296| 
    1689 000001f4       $C$L48:    
    1690                      .dwpsn  file "../Source/App/fsm_main.c",line 303,column 2,is_stmt,isa 0
    1691              $C$DW$137       .dwtag  DW_TAG_TI_branch
    1692                      .dwattr $C$DW$137, DW_AT_low_pc(0x00)
    1693                      .dwattr $C$DW$137, DW_AT_name("_hal_led_off_all")
    1694                      .dwattr $C$DW$137, DW_AT_TI_call
    1695 000001f4 7640!         LCR       #_hal_led_off_all     ; [CPU_] |303| 
         000001f5 0000 
    1696                      ; call occurs [#_hal_led_off_all] ; [] |303| 
    1697                      .dwpsn  file "../Source/App/fsm_main.c",line 304,column 2,is_stmt,isa 0
    1698 000001f6 761F-         MOVW      DP,#_state            ; [CPU_U] 
         000001f7 0000 
    1699 000001f8 56BF-         MOVB      @_state,#3,UNC        ; [CPU_] |304| 
         000001f9 0301 
    1700                      .dwpsn  file "../Source/App/fsm_main.c",line 305,column 1,is_stmt,isa 0
    1701 000001fa FE82          SUBB      SP,#2                 ; [CPU_U] 
    1702                      .dwcfi  cfa_offset, -2
    1703              $C$DW$138       .dwtag  DW_TAG_TI_branch
TMS320C2000 Assembler PC v6.4.2 Thu Dec 14 13:37:55 2017

Tools Copyright (c) 1996-2015 Texas Instruments Incorporated
fsm_main.asm                                                         PAGE   34

    1704                      .dwattr $C$DW$138, DW_AT_low_pc(0x00)
    1705                      .dwattr $C$DW$138, DW_AT_TI_return
    1706 000001fb 0006          LRETR     ; [CPU_] 
    1707                      ; return occurs ; [] 
    1708                      .dwattr $C$DW$131, DW_AT_TI_end_file("../Source/App/fsm_main.c")
    1709                      .dwattr $C$DW$131, DW_AT_TI_end_line(0x131)
    1710                      .dwattr $C$DW$131, DW_AT_TI_end_column(0x01)
    1711                      .dwendentry
    1712                      .dwendtag $C$DW$131
    1713              
    1714 000001fc               .sect   ".text"
    1715                      .clink
    1716                      .global _fsm_exit_stop
    1717              
    1718              $C$DW$139       .dwtag  DW_TAG_subprogram, DW_AT_name("fsm_exit_stop")
    1719                      .dwattr $C$DW$139, DW_AT_low_pc(_fsm_exit_stop)
    1720                      .dwattr $C$DW$139, DW_AT_high_pc(0x00)
    1721                      .dwattr $C$DW$139, DW_AT_TI_symbol_name("_fsm_exit_stop")
    1722                      .dwattr $C$DW$139, DW_AT_external
    1723                      .dwattr $C$DW$139, DW_AT_TI_begin_file("../Source/App/fsm_main.c")
    1724                      .dwattr $C$DW$139, DW_AT_TI_begin_line(0x134)
    1725                      .dwattr $C$DW$139, DW_AT_TI_begin_column(0x06)
    1726                      .dwattr $C$DW$139, DW_AT_TI_max_frame_size(-4)
    1727                      .dwpsn  file "../Source/App/fsm_main.c",line 308,column 25,is_stmt,address _fsm_exit_stop,isa 0
    1728              
    1729                      .dwfde $C$DW$CIE, _fsm_exit_stop
    1730              
    1731              ;***************************************************************
    1732              ;* FNAME: _fsm_exit_stop                FR SIZE:   2           *
    1733              ;*                                                             *
    1734              ;* FUNCTION ENVIRONMENT                                        *
    1735              ;*                                                             *
    1736              ;* FUNCTION PROPERTIES                                         *
    1737              ;*                            0 Parameter,  2 Auto,  0 SOE     *
    1738              ;***************************************************************
    1739              
    1740 000001fc       _fsm_exit_stop:
    1741                      .dwcfi  cfa_offset, -2
    1742                      .dwcfi  save_reg_to_mem, 26, 0
    1743 000001fc FE02          ADDB      SP,#2                 ; [CPU_U] 
    1744                      .dwcfi  cfa_offset, -4
    1745              $C$DW$140       .dwtag  DW_TAG_variable, DW_AT_name("i")
    1746                      .dwattr $C$DW$140, DW_AT_TI_symbol_name("_i")
    1747                      .dwattr $C$DW$140, DW_AT_type(*$C$DW$T$327)
    1748                      .dwattr $C$DW$140, DW_AT_location[DW_OP_breg20 -2]
    1749                      .dwpsn  file "../Source/App/fsm_main.c",line 310,column 7,is_stmt,isa 0
    1750 000001fd 0200          MOVB      ACC,#0                ; [CPU_] |310| 
    1751 000001fe 1E42          MOVL      *-SP[2],ACC           ; [CPU_] |310| 
    1752                      .dwpsn  file "../Source/App/fsm_main.c",line 310,column 11,is_stmt,isa 0
    1753 000001ff 0204          MOVB      ACC,#4                ; [CPU_] |310| 
    1754 00000200 0F42          CMPL      ACC,*-SP[2]           ; [CPU_] |310| 
    1755 00000201 56C9          BF        $C$L50,LOS            ; [CPU_] |310| 
         00000202 000D 
    1756                      ; branchcc occurs ; [] |310| 
    1757 00000203       $C$L49:    
TMS320C2000 Assembler PC v6.4.2 Thu Dec 14 13:37:55 2017

Tools Copyright (c) 1996-2015 Texas Instruments Incorporated
fsm_main.asm                                                         PAGE   35

    1758                      .dwpsn  file "../Source/App/fsm_main.c",line 311,column 3,is_stmt,isa 0
    1759              $C$DW$141       .dwtag  DW_TAG_TI_branch
    1760                      .dwattr $C$DW$141, DW_AT_low_pc(0x00)
    1761                      .dwattr $C$DW$141, DW_AT_name("_enter_command_mode")
    1762                      .dwattr $C$DW$141, DW_AT_TI_call
    1763 00000203 7640!         LCR       #_enter_command_mode  ; [CPU_] |311| 
         00000204 0000 
    1764                      ; call occurs [#_enter_command_mode] ; [] |311| 
    1765 00000205 5200          CMPB      AL,#0                 ; [CPU_] |311| 
    1766 00000206 EC08          BF        $C$L50,EQ             ; [CPU_] |311| 
    1767                      ; branchcc occurs ; [] |311| 
    1768                      .dwpsn  file "../Source/App/fsm_main.c",line 312,column 4,is_stmt,isa 0
    1769                      .dwpsn  file "../Source/App/fsm_main.c",line 310,column 15,is_stmt,isa 0
    1770 00000207 0201          MOVB      ACC,#1                ; [CPU_] |310| 
    1771 00000208 0742          ADDL      ACC,*-SP[2]           ; [CPU_] |310| 
    1772 00000209 1E42          MOVL      *-SP[2],ACC           ; [CPU_] |310| 
    1773                      .dwpsn  file "../Source/App/fsm_main.c",line 310,column 11,is_stmt,isa 0
    1774 0000020a 0204          MOVB      ACC,#4                ; [CPU_] |310| 
    1775 0000020b 0F42          CMPL      ACC,*-SP[2]           ; [CPU_] |310| 
    1776 0000020c 56C6          BF        $C$L49,HI             ; [CPU_] |310| 
         0000020d FFF7 
    1777                      ; branchcc occurs ; [] |310| 
    1778 0000020e       $C$L50:    
    1779                      .dwpsn  file "../Source/App/fsm_main.c",line 316,column 7,is_stmt,isa 0
    1780 0000020e 0200          MOVB      ACC,#0                ; [CPU_] |316| 
    1781 0000020f 1E42          MOVL      *-SP[2],ACC           ; [CPU_] |316| 
    1782                      .dwpsn  file "../Source/App/fsm_main.c",line 316,column 11,is_stmt,isa 0
    1783 00000210 761F+         MOVW      DP,#_TIMEOVERFLOW     ; [CPU_U] 
         00000211 0000 
    1784 00000212 0600+         MOVL      ACC,@_TIMEOVERFLOW    ; [CPU_] |316| 
    1785 00000213 0F42          CMPL      ACC,*-SP[2]           ; [CPU_] |316| 
    1786 00000214 56C9          BF        $C$L53,LOS            ; [CPU_] |316| 
         00000215 0014 
    1787                      ; branchcc occurs ; [] |316| 
    1788 00000216       $C$L51:    
    1789                      .dwpsn  file "../Source/App/fsm_main.c",line 317,column 3,is_stmt,isa 0
    1790              $C$DW$142       .dwtag  DW_TAG_TI_branch
    1791                      .dwattr $C$DW$142, DW_AT_low_pc(0x00)
    1792                      .dwattr $C$DW$142, DW_AT_name("_open_tcp_connection")
    1793                      .dwattr $C$DW$142, DW_AT_TI_call
    1794 00000216 7640!         LCR       #_open_tcp_connection ; [CPU_] |317| 
         00000217 0000 
    1795                      ; call occurs [#_open_tcp_connection] ; [] |317| 
    1796 00000218 5200          CMPB      AL,#0                 ; [CPU_] |317| 
    1797 00000219 ED06          BF        $C$L52,NEQ            ; [CPU_] |317| 
    1798                      ; branchcc occurs ; [] |317| 
    1799                      .dwpsn  file "../Source/App/fsm_main.c",line 318,column 4,is_stmt,isa 0
    1800 0000021a 761F-         MOVW      DP,#_connected        ; [CPU_U] 
         0000021b 0000 
    1801 0000021c 56BF-         MOVB      @_connected,#1,UNC    ; [CPU_] |318| 
         0000021d 0100 
    1802                      .dwpsn  file "../Source/App/fsm_main.c",line 319,column 4,is_stmt,isa 0
    1803 0000021e 6F0F          B         $C$L54,UNC            ; [CPU_] |319| 
    1804                      ; branch occurs ; [] |319| 
    1805 0000021f       $C$L52:    
TMS320C2000 Assembler PC v6.4.2 Thu Dec 14 13:37:55 2017

Tools Copyright (c) 1996-2015 Texas Instruments Incorporated
fsm_main.asm                                                         PAGE   36

    1806                      .dwpsn  file "../Source/App/fsm_main.c",line 316,column 26,is_stmt,isa 0
    1807 0000021f 0201          MOVB      ACC,#1                ; [CPU_] |316| 
    1808 00000220 0742          ADDL      ACC,*-SP[2]           ; [CPU_] |316| 
    1809 00000221 1E42          MOVL      *-SP[2],ACC           ; [CPU_] |316| 
    1810                      .dwpsn  file "../Source/App/fsm_main.c",line 316,column 11,is_stmt,isa 0
    1811 00000222 761F+         MOVW      DP,#_TIMEOVERFLOW     ; [CPU_U] 
         00000223 0000 
    1812 00000224 0600+         MOVL      ACC,@_TIMEOVERFLOW    ; [CPU_] |316| 
    1813 00000225 0F42          CMPL      ACC,*-SP[2]           ; [CPU_] |316| 
    1814 00000226 56C6          BF        $C$L51,HI             ; [CPU_] |316| 
         00000227 FFF0 
    1815                      ; branchcc occurs ; [] |316| 
    1816 00000228       $C$L53:    
    1817                      .dwpsn  file "../Source/App/fsm_main.c",line 322,column 2,is_stmt,isa 0
    1818              $C$DW$143       .dwtag  DW_TAG_TI_branch
    1819                      .dwattr $C$DW$143, DW_AT_low_pc(0x00)
    1820                      .dwattr $C$DW$143, DW_AT_name("_exit_command_mode")
    1821                      .dwattr $C$DW$143, DW_AT_TI_call
    1822 00000228 7640!         LCR       #_exit_command_mode   ; [CPU_] |322| 
         00000229 0000 
    1823                      ; call occurs [#_exit_command_mode] ; [] |322| 
    1824                      .dwpsn  file "../Source/App/fsm_main.c",line 323,column 2,is_stmt,isa 0
    1825 0000022a 761F-         MOVW      DP,#_connected        ; [CPU_U] 
         0000022b 0000 
    1826 0000022c 2B00-         MOV       @_connected,#0        ; [CPU_] |323| 
    1827                      .dwpsn  file "../Source/App/fsm_main.c",line 324,column 1,is_stmt,isa 0
    1828 0000022d       $C$L54:    
    1829 0000022d FE82          SUBB      SP,#2                 ; [CPU_U] 
    1830                      .dwcfi  cfa_offset, -2
    1831              $C$DW$144       .dwtag  DW_TAG_TI_branch
    1832                      .dwattr $C$DW$144, DW_AT_low_pc(0x00)
    1833                      .dwattr $C$DW$144, DW_AT_TI_return
    1834 0000022e 0006          LRETR     ; [CPU_] 
    1835                      ; return occurs ; [] 
    1836                      .dwattr $C$DW$139, DW_AT_TI_end_file("../Source/App/fsm_main.c")
    1837                      .dwattr $C$DW$139, DW_AT_TI_end_line(0x144)
    1838                      .dwattr $C$DW$139, DW_AT_TI_end_column(0x01)
    1839                      .dwendentry
    1840                      .dwendtag $C$DW$139
    1841              
    1842 0000022f               .sect   ".text"
    1843                      .clink
    1844                      .global _fsm_exit_config
    1845              
    1846              $C$DW$145       .dwtag  DW_TAG_subprogram, DW_AT_name("fsm_exit_config")
    1847                      .dwattr $C$DW$145, DW_AT_low_pc(_fsm_exit_config)
    1848                      .dwattr $C$DW$145, DW_AT_high_pc(0x00)
    1849                      .dwattr $C$DW$145, DW_AT_TI_symbol_name("_fsm_exit_config")
    1850                      .dwattr $C$DW$145, DW_AT_external
    1851                      .dwattr $C$DW$145, DW_AT_TI_begin_file("../Source/App/fsm_main.c")
    1852                      .dwattr $C$DW$145, DW_AT_TI_begin_line(0x147)
    1853                      .dwattr $C$DW$145, DW_AT_TI_begin_column(0x06)
    1854                      .dwattr $C$DW$145, DW_AT_TI_max_frame_size(-106)
    1855                      .dwpsn  file "../Source/App/fsm_main.c",line 327,column 27,is_stmt,address _fsm_exit_config,isa 0
    1856              
TMS320C2000 Assembler PC v6.4.2 Thu Dec 14 13:37:55 2017

Tools Copyright (c) 1996-2015 Texas Instruments Incorporated
fsm_main.asm                                                         PAGE   37

    1857                      .dwfde $C$DW$CIE, _fsm_exit_config
    1858              
    1859              ;***************************************************************
    1860              ;* FNAME: _fsm_exit_config              FR SIZE: 104           *
    1861              ;*                                                             *
    1862              ;* FUNCTION ENVIRONMENT                                        *
    1863              ;*                                                             *
    1864              ;* FUNCTION PROPERTIES                                         *
    1865              ;*                            0 Parameter, 101 Auto,  2 SOE     *
    1866              ;***************************************************************
    1867              
    1868 0000022f       _fsm_exit_config:
    1869                      .dwcfi  cfa_offset, -2
    1870                      .dwcfi  save_reg_to_mem, 26, 0
    1871 0000022f AABD          MOVL      *SP++,XAR2            ; [CPU_] 
    1872                      .dwcfi  save_reg_to_mem, 9, 2
    1873                      .dwcfi  cfa_offset, -4
    1874 00000230 5AAD          MOVZ      AR2,SP                ; [CPU_] 
    1875 00000231 DA84          SUBB      FP,#4                 ; [CPU_U] 
    1876 00000232 FE66          ADDB      SP,#102               ; [CPU_U] 
    1877                      .dwcfi  cfa_offset, -106
    1878              $C$DW$146       .dwtag  DW_TAG_variable, DW_AT_name("buffer")
    1879                      .dwattr $C$DW$146, DW_AT_TI_symbol_name("_buffer")
    1880                      .dwattr $C$DW$146, DW_AT_type(*$C$DW$T$329)
    1881                      .dwattr $C$DW$146, DW_AT_location[DW_OP_breg20 -100]
    1882              $C$DW$147       .dwtag  DW_TAG_variable, DW_AT_name("length")
    1883                      .dwattr $C$DW$147, DW_AT_TI_symbol_name("_length")
    1884                      .dwattr $C$DW$147, DW_AT_type(*$C$DW$T$306)
    1885                      .dwattr $C$DW$147, DW_AT_location[DW_OP_breg20 -101]
    1886                      .dwpsn  file "../Source/App/fsm_main.c",line 332,column 2,is_stmt,isa 0
    1887 00000233 5CAD          MOVZ      AR4,SP                ; [CPU_] |332| 
    1888 00000234 5DAD          MOVZ      AR5,SP                ; [CPU_] |332| 
    1889 00000235 DCE4          SUBB      XAR4,#100             ; [CPU_U] |332| 
    1890 00000236 DDE5          SUBB      XAR5,#101             ; [CPU_U] |332| 
    1891 00000237 5CA4          MOVZ      AR4,AR4               ; [CPU_] |332| 
    1892 00000238 5DA5          MOVZ      AR5,AR5               ; [CPU_] |332| 
    1893              $C$DW$148       .dwtag  DW_TAG_TI_branch
    1894                      .dwattr $C$DW$148, DW_AT_low_pc(0x00)
    1895                      .dwattr $C$DW$148, DW_AT_name("_put_calibration_data_to_string")
    1896                      .dwattr $C$DW$148, DW_AT_TI_call
    1897 00000239 7640!         LCR       #_put_calibration_data_to_string ; [CPU_] |332| 
         0000023a 0000 
    1898                      ; call occurs [#_put_calibration_data_to_string] ; [] |332| 
    1899                      .dwpsn  file "../Source/App/fsm_main.c",line 334,column 2,is_stmt,isa 0
    1900 0000023b 5CAD          MOVZ      AR4,SP                ; [CPU_] |334| 
    1901 0000023c 92EA          MOV       AL,*+FP[5]            ; [CPU_] |334| 
    1902 0000023d DCE4          SUBB      XAR4,#100             ; [CPU_U] |334| 
    1903 0000023e 5CA4          MOVZ      AR4,AR4               ; [CPU_] |334| 
    1904              $C$DW$149       .dwtag  DW_TAG_TI_branch
    1905                      .dwattr $C$DW$149, DW_AT_low_pc(0x00)
    1906                      .dwattr $C$DW$149, DW_AT_name("_send_Command")
    1907                      .dwattr $C$DW$149, DW_AT_TI_call
    1908 0000023f 7640!         LCR       #_send_Command        ; [CPU_] |334| 
         00000240 0000 
    1909                      ; call occurs [#_send_Command] ; [] |334| 
TMS320C2000 Assembler PC v6.4.2 Thu Dec 14 13:37:55 2017

Tools Copyright (c) 1996-2015 Texas Instruments Incorporated
fsm_main.asm                                                         PAGE   38

    1910                      .dwpsn  file "../Source/App/fsm_main.c",line 336,column 2,is_stmt,isa 0
    1911              $C$DW$150       .dwtag  DW_TAG_TI_branch
    1912                      .dwattr $C$DW$150, DW_AT_low_pc(0x00)
    1913                      .dwattr $C$DW$150, DW_AT_name("_check_if_changed")
    1914                      .dwattr $C$DW$150, DW_AT_TI_call
    1915 00000241 7640!         LCR       #_check_if_changed    ; [CPU_] |336| 
         00000242 0000 
    1916                      ; call occurs [#_check_if_changed] ; [] |336| 
    1917 00000243 5200          CMPB      AL,#0                 ; [CPU_] |336| 
    1918 00000244 EC08          BF        $C$L55,EQ             ; [CPU_] |336| 
    1919                      ; branchcc occurs ; [] |336| 
    1920                      .dwpsn  file "../Source/App/fsm_main.c",line 339,column 3,is_stmt,isa 0
    1921              $C$DW$151       .dwtag  DW_TAG_TI_branch
    1922                      .dwattr $C$DW$151, DW_AT_low_pc(0x00)
    1923                      .dwattr $C$DW$151, DW_AT_name("_erase_bank_0_sector_h")
    1924                      .dwattr $C$DW$151, DW_AT_TI_call
    1925 00000245 7640!         LCR       #_erase_bank_0_sector_h ; [CPU_] |339| 
         00000246 0000 
    1926                      ; call occurs [#_erase_bank_0_sector_h] ; [] |339| 
    1927                      .dwpsn  file "../Source/App/fsm_main.c",line 340,column 3,is_stmt,isa 0
    1928 00000247 5CAD          MOVZ      AR4,SP                ; [CPU_] |340| 
    1929 00000248 DCE4          SUBB      XAR4,#100             ; [CPU_U] |340| 
    1930 00000249 5CA4          MOVZ      AR4,AR4               ; [CPU_] |340| 
    1931              $C$DW$152       .dwtag  DW_TAG_TI_branch
    1932                      .dwattr $C$DW$152, DW_AT_low_pc(0x00)
    1933                      .dwattr $C$DW$152, DW_AT_name("_write_Flash")
    1934                      .dwattr $C$DW$152, DW_AT_TI_call
    1935 0000024a 7640!         LCR       #_write_Flash         ; [CPU_] |340| 
         0000024b 0000 
    1936                      ; call occurs [#_write_Flash] ; [] |340| 
    1937                      .dwpsn  file "../Source/App/fsm_main.c",line 343,column 1,is_stmt,isa 0
    1938 0000024c       $C$L55:    
    1939 0000024c FEE6          SUBB      SP,#102               ; [CPU_U] 
    1940                      .dwcfi  cfa_offset, -4
    1941 0000024d 86BE          MOVL      XAR2,*--SP            ; [CPU_] 
    1942                      .dwcfi  cfa_offset, -2
    1943                      .dwcfi  restore_reg, 9
    1944              $C$DW$153       .dwtag  DW_TAG_TI_branch
    1945                      .dwattr $C$DW$153, DW_AT_low_pc(0x00)
    1946                      .dwattr $C$DW$153, DW_AT_TI_return
    1947 0000024e 0006          LRETR     ; [CPU_] 
    1948                      ; return occurs ; [] 
    1949                      .dwattr $C$DW$145, DW_AT_TI_end_file("../Source/App/fsm_main.c")
    1950                      .dwattr $C$DW$145, DW_AT_TI_end_line(0x157)
    1951                      .dwattr $C$DW$145, DW_AT_TI_end_column(0x01)
    1952                      .dwendentry
    1953                      .dwendtag $C$DW$145
    1954              
    1955 0000024f               .sect   ".text"
    1956                      .clink
    1957                      .global _fsm_exit_run
    1958              
    1959              $C$DW$154       .dwtag  DW_TAG_subprogram, DW_AT_name("fsm_exit_run")
    1960                      .dwattr $C$DW$154, DW_AT_low_pc(_fsm_exit_run)
    1961                      .dwattr $C$DW$154, DW_AT_high_pc(0x00)
TMS320C2000 Assembler PC v6.4.2 Thu Dec 14 13:37:55 2017

Tools Copyright (c) 1996-2015 Texas Instruments Incorporated
fsm_main.asm                                                         PAGE   39

    1962                      .dwattr $C$DW$154, DW_AT_TI_symbol_name("_fsm_exit_run")
    1963                      .dwattr $C$DW$154, DW_AT_external
    1964                      .dwattr $C$DW$154, DW_AT_TI_begin_file("../Source/App/fsm_main.c")
    1965                      .dwattr $C$DW$154, DW_AT_TI_begin_line(0x15a)
    1966                      .dwattr $C$DW$154, DW_AT_TI_begin_column(0x06)
    1967                      .dwattr $C$DW$154, DW_AT_TI_max_frame_size(-2)
    1968                      .dwpsn  file "../Source/App/fsm_main.c",line 346,column 24,is_stmt,address _fsm_exit_run,isa 0
    1969              
    1970                      .dwfde $C$DW$CIE, _fsm_exit_run
    1971              
    1972              ;***************************************************************
    1973              ;* FNAME: _fsm_exit_run                 FR SIZE:   0           *
    1974              ;*                                                             *
    1975              ;* FUNCTION ENVIRONMENT                                        *
    1976              ;*                                                             *
    1977              ;* FUNCTION PROPERTIES                                         *
    1978              ;*                            0 Parameter,  0 Auto,  0 SOE     *
    1979              ;***************************************************************
    1980              
    1981 0000024f       _fsm_exit_run:
    1982                      .dwcfi  cfa_offset, -2
    1983                      .dwcfi  save_reg_to_mem, 26, 0
    1984                      .dwpsn  file "../Source/App/fsm_main.c",line 347,column 2,is_stmt,isa 0
    1985 0000024f 761F!         MOVW      DP,#_motor1+45        ; [CPU_U] 
         00000250 0000 
    1986 00000251 2B2D!         MOV       @_motor1+45,#0        ; [CPU_] |347| 
    1987                      .dwpsn  file "../Source/App/fsm_main.c",line 348,column 2,is_stmt,isa 0
    1988 00000252 761F!         MOVW      DP,#_motor2+45        ; [CPU_U] 
         00000253 0000 
    1989 00000254 2B2D!         MOV       @_motor2+45,#0        ; [CPU_] |348| 
    1990                      .dwpsn  file "../Source/App/fsm_main.c",line 349,column 2,is_stmt,isa 0
    1991 00000255 E590          ZERO      R0H                   ; [CPU_] |349| 
    1992 00000256 761F!         MOVW      DP,#_steeringContr    ; [CPU_U] 
         00000257 0000 
    1993 00000258 E203!         MOV32     @_steeringContr,R0H   ; [CPU_] |349| 
         00000259 0000 
    1994                      .dwpsn  file "../Source/App/fsm_main.c",line 350,column 1,is_stmt,isa 0
    1995              $C$DW$155       .dwtag  DW_TAG_TI_branch
    1996                      .dwattr $C$DW$155, DW_AT_low_pc(0x00)
    1997                      .dwattr $C$DW$155, DW_AT_TI_return
    1998 0000025a 0006          LRETR     ; [CPU_] 
    1999                      ; return occurs ; [] 
    2000                      .dwattr $C$DW$154, DW_AT_TI_end_file("../Source/App/fsm_main.c")
    2001                      .dwattr $C$DW$154, DW_AT_TI_end_line(0x15e)
    2002                      .dwattr $C$DW$154, DW_AT_TI_end_column(0x01)
    2003                      .dwendentry
    2004                      .dwendtag $C$DW$154
    2005              
    2006              ;**************************************************************
    2007              ;* UNDEFINED EXTERNAL REFERENCES                              *
    2008              ;**************************************************************
    2009                      .global _send_state_change_command
    2010                      .global _put_calibration_data_to_string
    2011                      .global _send_Command
    2012                      .global _hal_led_on_all
TMS320C2000 Assembler PC v6.4.2 Thu Dec 14 13:37:55 2017

Tools Copyright (c) 1996-2015 Texas Instruments Incorporated
fsm_main.asm                                                         PAGE   40

    2013                      .global _hal_led_on
    2014                      .global _hal_led_off_all
    2015                      .global _hal_led_off
    2016                      .global _set_servo_angle_ref
    2017                      .global _init_steering_control
    2018                      .global _open_tcp_connection
    2019                      .global _exit_command_mode
    2020                      .global _read_Command
    2021                      .global _close_tcp_connection
    2022                      .global _hal_button_read
    2023                      .global _GPIO_ReadPin
    2024                      .global _enter_command_mode
    2025                      .global _execute_config_mode_cmd
    2026                      .global _write_Flash
    2027                      .global _erase_bank_0_sector_h
    2028                      .global _extract_config_mode_command
    2029                      .global _extract_state_change_command
    2030                      .global _extract_drive_command
    2031                      .global _check_if_changed
    2032                      .global _steeringContr
    2033                      .global _motor1
    2034                      .global _motor2
    2035              
    2036              ;***************************************************************
    2037              ;* TYPE INFORMATION                                            *
    2038              ;***************************************************************
    2039              
    2040              $C$DW$T$280     .dwtag  DW_TAG_enumeration_type
    2041                      .dwattr $C$DW$T$280, DW_AT_byte_size(0x01)
    2042              $C$DW$156       .dwtag  DW_TAG_enumerator, DW_AT_name("COMBINED"), DW_AT_const_value(0x00)
    2043              $C$DW$157       .dwtag  DW_TAG_enumerator, DW_AT_name("ARTICULATED_STEERING"), DW_AT_const_value(0x01)
    2044              $C$DW$158       .dwtag  DW_TAG_enumerator, DW_AT_name("TURNTABLE_STEERING"), DW_AT_const_value(0x02)
    2045              $C$DW$159       .dwtag  DW_TAG_enumerator, DW_AT_name("SET_POTENTIOMETER_LEFT"), DW_AT_const_value(0x03)
    2046              $C$DW$160       .dwtag  DW_TAG_enumerator, DW_AT_name("SET_POTENTIOMETER_RIGHT"), DW_AT_const_value(0x04)
    2047              $C$DW$161       .dwtag  DW_TAG_enumerator, DW_AT_name("SET_SERVO_LEFT"), DW_AT_const_value(0x05)
    2048              $C$DW$162       .dwtag  DW_TAG_enumerator, DW_AT_name("SET_SERVO_MIDDLE"), DW_AT_const_value(0x06)
    2049              $C$DW$163       .dwtag  DW_TAG_enumerator, DW_AT_name("INCREMENT_SERVO"), DW_AT_const_value(0x07)
    2050              $C$DW$164       .dwtag  DW_TAG_enumerator, DW_AT_name("DECREMENT_SERVO"), DW_AT_const_value(0x08)
    2051              $C$DW$165       .dwtag  DW_TAG_enumerator, DW_AT_name("SET_STEERING_POINT_0"), DW_AT_const_value(0x09)
    2052              $C$DW$166       .dwtag  DW_TAG_enumerator, DW_AT_name("SET_STEERING_POINT_1"), DW_AT_const_value(0x0a)
    2053              $C$DW$167       .dwtag  DW_TAG_enumerator, DW_AT_name("SET_STEERING_POINT_2"), DW_AT_const_value(0x0b)
    2054              $C$DW$168       .dwtag  DW_TAG_enumerator, DW_AT_name("SET_STEERING_POINT_3"), DW_AT_const_value(0x0c)
    2055              $C$DW$169       .dwtag  DW_TAG_enumerator, DW_AT_name("SET_STEERING_POINT_4"), DW_AT_const_value(0x0d)
    2056              $C$DW$170       .dwtag  DW_TAG_enumerator, DW_AT_name("SET_STEERING_POINT_5"), DW_AT_const_value(0x0e)
    2057              $C$DW$171       .dwtag  DW_TAG_enumerator, DW_AT_name("SET_STEERING_POINT_6"), DW_AT_const_value(0x0f)
    2058              $C$DW$172       .dwtag  DW_TAG_enumerator, DW_AT_name("SET_AXIS_POINT_0"), DW_AT_const_value(0x10)
    2059              $C$DW$173       .dwtag  DW_TAG_enumerator, DW_AT_name("SET_AXIS_POINT_1"), DW_AT_const_value(0x11)
    2060              $C$DW$174       .dwtag  DW_TAG_enumerator, DW_AT_name("SET_AXIS_POINT_2"), DW_AT_const_value(0x12)
    2061                      .dwendtag $C$DW$T$280
    2062              
    2063              $C$DW$T$281     .dwtag  DW_TAG_typedef, DW_AT_name("config_mode_cmd_t")
    2064                      .dwattr $C$DW$T$281, DW_AT_type(*$C$DW$T$280)
    2065                      .dwattr $C$DW$T$281, DW_AT_language(DW_LANG_C)
    2066              $C$DW$T$282     .dwtag  DW_TAG_pointer_type
    2067                      .dwattr $C$DW$T$282, DW_AT_type(*$C$DW$T$281)
TMS320C2000 Assembler PC v6.4.2 Thu Dec 14 13:37:55 2017

Tools Copyright (c) 1996-2015 Texas Instruments Incorporated
fsm_main.asm                                                         PAGE   41

    2068                      .dwattr $C$DW$T$282, DW_AT_address_class(0x20)
    2069              
    2070              $C$DW$T$283     .dwtag  DW_TAG_enumeration_type
    2071                      .dwattr $C$DW$T$283, DW_AT_byte_size(0x01)
    2072              $C$DW$175       .dwtag  DW_TAG_enumerator, DW_AT_name("NO_CMD"), DW_AT_const_value(0x00)
    2073              $C$DW$176       .dwtag  DW_TAG_enumerator, DW_AT_name("STATE_CHANGE_CMD"), DW_AT_const_value(0x01)
    2074              $C$DW$177       .dwtag  DW_TAG_enumerator, DW_AT_name("CONFIG_MODE_CMD"), DW_AT_const_value(0x02)
    2075              $C$DW$178       .dwtag  DW_TAG_enumerator, DW_AT_name("DRIVE_CMD"), DW_AT_const_value(0x03)
    2076                      .dwendtag $C$DW$T$283
    2077              
    2078              $C$DW$T$284     .dwtag  DW_TAG_typedef, DW_AT_name("wyflyCommands_t")
    2079                      .dwattr $C$DW$T$284, DW_AT_type(*$C$DW$T$283)
    2080                      .dwattr $C$DW$T$284, DW_AT_language(DW_LANG_C)
    2081              
    2082              $C$DW$T$289     .dwtag  DW_TAG_enumeration_type
    2083                      .dwattr $C$DW$T$289, DW_AT_byte_size(0x01)
    2084              $C$DW$179       .dwtag  DW_TAG_enumerator, DW_AT_name("FSM_STOP"), DW_AT_const_value(0x00)
    2085              $C$DW$180       .dwtag  DW_TAG_enumerator, DW_AT_name("FSM_CONFIG"), DW_AT_const_value(0x01)
    2086              $C$DW$181       .dwtag  DW_TAG_enumerator, DW_AT_name("FSM_RUN"), DW_AT_const_value(0x02)
    2087              $C$DW$182       .dwtag  DW_TAG_enumerator, DW_AT_name("FSM_ERROR"), DW_AT_const_value(0x03)
    2088                      .dwendtag $C$DW$T$289
    2089              
    2090              $C$DW$T$290     .dwtag  DW_TAG_typedef, DW_AT_name("fsm_main_state_t")
    2091                      .dwattr $C$DW$T$290, DW_AT_type(*$C$DW$T$289)
    2092                      .dwattr $C$DW$T$290, DW_AT_language(DW_LANG_C)
    2093              $C$DW$T$291     .dwtag  DW_TAG_pointer_type
    2094                      .dwattr $C$DW$T$291, DW_AT_type(*$C$DW$T$290)
    2095                      .dwattr $C$DW$T$291, DW_AT_address_class(0x20)
    2096              
    2097              $C$DW$T$21      .dwtag  DW_TAG_structure_type
    2098                      .dwattr $C$DW$T$21, DW_AT_byte_size(0x18)
    2099              $C$DW$183       .dwtag  DW_TAG_member
    2100                      .dwattr $C$DW$183, DW_AT_type(*$C$DW$T$19)
    2101                      .dwattr $C$DW$183, DW_AT_name("speed_ref")
    2102                      .dwattr $C$DW$183, DW_AT_TI_symbol_name("_speed_ref")
    2103                      .dwattr $C$DW$183, DW_AT_data_member_location[DW_OP_plus_uconst 0x0]
    2104                      .dwattr $C$DW$183, DW_AT_accessibility(DW_ACCESS_public)
    2105              $C$DW$184       .dwtag  DW_TAG_member
    2106                      .dwattr $C$DW$184, DW_AT_type(*$C$DW$T$19)
    2107                      .dwattr $C$DW$184, DW_AT_name("angle_ref")
    2108                      .dwattr $C$DW$184, DW_AT_TI_symbol_name("_angle_ref")
    2109                      .dwattr $C$DW$184, DW_AT_data_member_location[DW_OP_plus_uconst 0x2]
    2110                      .dwattr $C$DW$184, DW_AT_accessibility(DW_ACCESS_public)
    2111              $C$DW$185       .dwtag  DW_TAG_member
    2112                      .dwattr $C$DW$185, DW_AT_type(*$C$DW$T$20)
    2113                      .dwattr $C$DW$185, DW_AT_name("steering_feedback")
    2114                      .dwattr $C$DW$185, DW_AT_TI_symbol_name("_steering_feedback")
    2115                      .dwattr $C$DW$185, DW_AT_data_member_location[DW_OP_plus_uconst 0x4]
    2116                      .dwattr $C$DW$185, DW_AT_accessibility(DW_ACCESS_public)
    2117              $C$DW$186       .dwtag  DW_TAG_member
    2118                      .dwattr $C$DW$186, DW_AT_type(*$C$DW$T$19)
    2119                      .dwattr $C$DW$186, DW_AT_name("speed_scaling_ms_to_mot")
    2120                      .dwattr $C$DW$186, DW_AT_TI_symbol_name("_speed_scaling_ms_to_mot")
    2121                      .dwattr $C$DW$186, DW_AT_data_member_location[DW_OP_plus_uconst 0x6]
    2122                      .dwattr $C$DW$186, DW_AT_accessibility(DW_ACCESS_public)
TMS320C2000 Assembler PC v6.4.2 Thu Dec 14 13:37:55 2017

Tools Copyright (c) 1996-2015 Texas Instruments Incorporated
fsm_main.asm                                                         PAGE   42

    2123              $C$DW$187       .dwtag  DW_TAG_member
    2124                      .dwattr $C$DW$187, DW_AT_type(*$C$DW$T$19)
    2125                      .dwattr $C$DW$187, DW_AT_name("kp")
    2126                      .dwattr $C$DW$187, DW_AT_TI_symbol_name("_kp")
    2127                      .dwattr $C$DW$187, DW_AT_data_member_location[DW_OP_plus_uconst 0x8]
    2128                      .dwattr $C$DW$187, DW_AT_accessibility(DW_ACCESS_public)
    2129              $C$DW$188       .dwtag  DW_TAG_member
    2130                      .dwattr $C$DW$188, DW_AT_type(*$C$DW$T$19)
    2131                      .dwattr $C$DW$188, DW_AT_name("ki")
    2132                      .dwattr $C$DW$188, DW_AT_TI_symbol_name("_ki")
    2133                      .dwattr $C$DW$188, DW_AT_data_member_location[DW_OP_plus_uconst 0xa]
    2134                      .dwattr $C$DW$188, DW_AT_accessibility(DW_ACCESS_public)
    2135              $C$DW$189       .dwtag  DW_TAG_member
    2136                      .dwattr $C$DW$189, DW_AT_type(*$C$DW$T$19)
    2137                      .dwattr $C$DW$189, DW_AT_name("dt")
    2138                      .dwattr $C$DW$189, DW_AT_TI_symbol_name("_dt")
    2139                      .dwattr $C$DW$189, DW_AT_data_member_location[DW_OP_plus_uconst 0xc]
    2140                      .dwattr $C$DW$189, DW_AT_accessibility(DW_ACCESS_public)
    2141              $C$DW$190       .dwtag  DW_TAG_member
    2142                      .dwattr $C$DW$190, DW_AT_type(*$C$DW$T$20)
    2143                      .dwattr $C$DW$190, DW_AT_name("steering_loop_count")
    2144                      .dwattr $C$DW$190, DW_AT_TI_symbol_name("_steering_loop_count")
    2145                      .dwattr $C$DW$190, DW_AT_data_member_location[DW_OP_plus_uconst 0xe]
    2146                      .dwattr $C$DW$190, DW_AT_accessibility(DW_ACCESS_public)
    2147              $C$DW$191       .dwtag  DW_TAG_member
    2148                      .dwattr $C$DW$191, DW_AT_type(*$C$DW$T$19)
    2149                      .dwattr $C$DW$191, DW_AT_name("motor_speed_1")
    2150                      .dwattr $C$DW$191, DW_AT_TI_symbol_name("_motor_speed_1")
    2151                      .dwattr $C$DW$191, DW_AT_data_member_location[DW_OP_plus_uconst 0x10]
    2152                      .dwattr $C$DW$191, DW_AT_accessibility(DW_ACCESS_public)
    2153              $C$DW$192       .dwtag  DW_TAG_member
    2154                      .dwattr $C$DW$192, DW_AT_type(*$C$DW$T$19)
    2155                      .dwattr $C$DW$192, DW_AT_name("motor_speed_2")
    2156                      .dwattr $C$DW$192, DW_AT_TI_symbol_name("_motor_speed_2")
    2157                      .dwattr $C$DW$192, DW_AT_data_member_location[DW_OP_plus_uconst 0x12]
    2158                      .dwattr $C$DW$192, DW_AT_accessibility(DW_ACCESS_public)
    2159              $C$DW$193       .dwtag  DW_TAG_member
    2160                      .dwattr $C$DW$193, DW_AT_type(*$C$DW$T$19)
    2161                      .dwattr $C$DW$193, DW_AT_name("scale_1")
    2162                      .dwattr $C$DW$193, DW_AT_TI_symbol_name("_scale_1")
    2163                      .dwattr $C$DW$193, DW_AT_data_member_location[DW_OP_plus_uconst 0x14]
    2164                      .dwattr $C$DW$193, DW_AT_accessibility(DW_ACCESS_public)
    2165              $C$DW$194       .dwtag  DW_TAG_member
    2166                      .dwattr $C$DW$194, DW_AT_type(*$C$DW$T$19)
    2167                      .dwattr $C$DW$194, DW_AT_name("scale_2")
    2168                      .dwattr $C$DW$194, DW_AT_TI_symbol_name("_scale_2")
    2169                      .dwattr $C$DW$194, DW_AT_data_member_location[DW_OP_plus_uconst 0x16]
    2170                      .dwattr $C$DW$194, DW_AT_accessibility(DW_ACCESS_public)
    2171                      .dwendtag $C$DW$T$21
    2172              
    2173              $C$DW$T$293     .dwtag  DW_TAG_typedef, DW_AT_name("steering_control_t")
    2174                      .dwattr $C$DW$T$293, DW_AT_type(*$C$DW$T$21)
    2175                      .dwattr $C$DW$T$293, DW_AT_language(DW_LANG_C)
    2176              $C$DW$T$294     .dwtag  DW_TAG_pointer_type
    2177                      .dwattr $C$DW$T$294, DW_AT_type(*$C$DW$T$293)
TMS320C2000 Assembler PC v6.4.2 Thu Dec 14 13:37:55 2017

Tools Copyright (c) 1996-2015 Texas Instruments Incorporated
fsm_main.asm                                                         PAGE   43

    2178                      .dwattr $C$DW$T$294, DW_AT_address_class(0x20)
    2179              
    2180              $C$DW$T$23      .dwtag  DW_TAG_structure_type
    2181                      .dwattr $C$DW$T$23, DW_AT_byte_size(0x0a)
    2182              $C$DW$195       .dwtag  DW_TAG_member
    2183                      .dwattr $C$DW$195, DW_AT_type(*$C$DW$T$22)
    2184                      .dwattr $C$DW$195, DW_AT_name("As")
    2185                      .dwattr $C$DW$195, DW_AT_TI_symbol_name("_As")
    2186                      .dwattr $C$DW$195, DW_AT_data_member_location[DW_OP_plus_uconst 0x0]
    2187                      .dwattr $C$DW$195, DW_AT_accessibility(DW_ACCESS_public)
    2188              $C$DW$196       .dwtag  DW_TAG_member
    2189                      .dwattr $C$DW$196, DW_AT_type(*$C$DW$T$22)
    2190                      .dwattr $C$DW$196, DW_AT_name("Bs")
    2191                      .dwattr $C$DW$196, DW_AT_TI_symbol_name("_Bs")
    2192                      .dwattr $C$DW$196, DW_AT_data_member_location[DW_OP_plus_uconst 0x2]
    2193                      .dwattr $C$DW$196, DW_AT_accessibility(DW_ACCESS_public)
    2194              $C$DW$197       .dwtag  DW_TAG_member
    2195                      .dwattr $C$DW$197, DW_AT_type(*$C$DW$T$22)
    2196                      .dwattr $C$DW$197, DW_AT_name("Cs")
    2197                      .dwattr $C$DW$197, DW_AT_TI_symbol_name("_Cs")
    2198                      .dwattr $C$DW$197, DW_AT_data_member_location[DW_OP_plus_uconst 0x4]
    2199                      .dwattr $C$DW$197, DW_AT_accessibility(DW_ACCESS_public)
    2200              $C$DW$198       .dwtag  DW_TAG_member
    2201                      .dwattr $C$DW$198, DW_AT_type(*$C$DW$T$22)
    2202                      .dwattr $C$DW$198, DW_AT_name("Alpha")
    2203                      .dwattr $C$DW$198, DW_AT_TI_symbol_name("_Alpha")
    2204                      .dwattr $C$DW$198, DW_AT_data_member_location[DW_OP_plus_uconst 0x6]
    2205                      .dwattr $C$DW$198, DW_AT_accessibility(DW_ACCESS_public)
    2206              $C$DW$199       .dwtag  DW_TAG_member
    2207                      .dwattr $C$DW$199, DW_AT_type(*$C$DW$T$22)
    2208                      .dwattr $C$DW$199, DW_AT_name("Beta")
    2209                      .dwattr $C$DW$199, DW_AT_TI_symbol_name("_Beta")
    2210                      .dwattr $C$DW$199, DW_AT_data_member_location[DW_OP_plus_uconst 0x8]
    2211                      .dwattr $C$DW$199, DW_AT_accessibility(DW_ACCESS_public)
    2212                      .dwendtag $C$DW$T$23
    2213              
    2214              $C$DW$T$66      .dwtag  DW_TAG_typedef, DW_AT_name("CLARKE")
    2215                      .dwattr $C$DW$T$66, DW_AT_type(*$C$DW$T$23)
    2216                      .dwattr $C$DW$T$66, DW_AT_language(DW_LANG_C)
    2217              
    2218              $C$DW$T$24      .dwtag  DW_TAG_structure_type
    2219                      .dwattr $C$DW$T$24, DW_AT_byte_size(0x0e)
    2220              $C$DW$200       .dwtag  DW_TAG_member
    2221                      .dwattr $C$DW$200, DW_AT_type(*$C$DW$T$22)
    2222                      .dwattr $C$DW$200, DW_AT_name("Alpha")
    2223                      .dwattr $C$DW$200, DW_AT_TI_symbol_name("_Alpha")
    2224                      .dwattr $C$DW$200, DW_AT_data_member_location[DW_OP_plus_uconst 0x0]
    2225                      .dwattr $C$DW$200, DW_AT_accessibility(DW_ACCESS_public)
    2226              $C$DW$201       .dwtag  DW_TAG_member
    2227                      .dwattr $C$DW$201, DW_AT_type(*$C$DW$T$22)
    2228                      .dwattr $C$DW$201, DW_AT_name("Beta")
    2229                      .dwattr $C$DW$201, DW_AT_TI_symbol_name("_Beta")
    2230                      .dwattr $C$DW$201, DW_AT_data_member_location[DW_OP_plus_uconst 0x2]
    2231                      .dwattr $C$DW$201, DW_AT_accessibility(DW_ACCESS_public)
    2232              $C$DW$202       .dwtag  DW_TAG_member
TMS320C2000 Assembler PC v6.4.2 Thu Dec 14 13:37:55 2017

Tools Copyright (c) 1996-2015 Texas Instruments Incorporated
fsm_main.asm                                                         PAGE   44

    2233                      .dwattr $C$DW$202, DW_AT_type(*$C$DW$T$22)
    2234                      .dwattr $C$DW$202, DW_AT_name("Angle")
    2235                      .dwattr $C$DW$202, DW_AT_TI_symbol_name("_Angle")
    2236                      .dwattr $C$DW$202, DW_AT_data_member_location[DW_OP_plus_uconst 0x4]
    2237                      .dwattr $C$DW$202, DW_AT_accessibility(DW_ACCESS_public)
    2238              $C$DW$203       .dwtag  DW_TAG_member
    2239                      .dwattr $C$DW$203, DW_AT_type(*$C$DW$T$22)
    2240                      .dwattr $C$DW$203, DW_AT_name("Ds")
    2241                      .dwattr $C$DW$203, DW_AT_TI_symbol_name("_Ds")
    2242                      .dwattr $C$DW$203, DW_AT_data_member_location[DW_OP_plus_uconst 0x6]
    2243                      .dwattr $C$DW$203, DW_AT_accessibility(DW_ACCESS_public)
    2244              $C$DW$204       .dwtag  DW_TAG_member
    2245                      .dwattr $C$DW$204, DW_AT_type(*$C$DW$T$22)
    2246                      .dwattr $C$DW$204, DW_AT_name("Qs")
    2247                      .dwattr $C$DW$204, DW_AT_TI_symbol_name("_Qs")
    2248                      .dwattr $C$DW$204, DW_AT_data_member_location[DW_OP_plus_uconst 0x8]
    2249                      .dwattr $C$DW$204, DW_AT_accessibility(DW_ACCESS_public)
    2250              $C$DW$205       .dwtag  DW_TAG_member
    2251                      .dwattr $C$DW$205, DW_AT_type(*$C$DW$T$22)
    2252                      .dwattr $C$DW$205, DW_AT_name("Sine")
    2253                      .dwattr $C$DW$205, DW_AT_TI_symbol_name("_Sine")
    2254                      .dwattr $C$DW$205, DW_AT_data_member_location[DW_OP_plus_uconst 0xa]
    2255                      .dwattr $C$DW$205, DW_AT_accessibility(DW_ACCESS_public)
    2256              $C$DW$206       .dwtag  DW_TAG_member
    2257                      .dwattr $C$DW$206, DW_AT_type(*$C$DW$T$22)
    2258                      .dwattr $C$DW$206, DW_AT_name("Cosine")
    2259                      .dwattr $C$DW$206, DW_AT_TI_symbol_name("_Cosine")
    2260                      .dwattr $C$DW$206, DW_AT_data_member_location[DW_OP_plus_uconst 0xc]
    2261                      .dwattr $C$DW$206, DW_AT_accessibility(DW_ACCESS_public)
    2262                      .dwendtag $C$DW$T$24
    2263              
    2264              $C$DW$T$67      .dwtag  DW_TAG_typedef, DW_AT_name("PARK")
    2265                      .dwattr $C$DW$T$67, DW_AT_type(*$C$DW$T$24)
    2266                      .dwattr $C$DW$T$67, DW_AT_language(DW_LANG_C)
    2267              
    2268              $C$DW$T$25      .dwtag  DW_TAG_structure_type
    2269                      .dwattr $C$DW$T$25, DW_AT_byte_size(0x0e)
    2270              $C$DW$207       .dwtag  DW_TAG_member
    2271                      .dwattr $C$DW$207, DW_AT_type(*$C$DW$T$22)
    2272                      .dwattr $C$DW$207, DW_AT_name("Alpha")
    2273                      .dwattr $C$DW$207, DW_AT_TI_symbol_name("_Alpha")
    2274                      .dwattr $C$DW$207, DW_AT_data_member_location[DW_OP_plus_uconst 0x0]
    2275                      .dwattr $C$DW$207, DW_AT_accessibility(DW_ACCESS_public)
    2276              $C$DW$208       .dwtag  DW_TAG_member
    2277                      .dwattr $C$DW$208, DW_AT_type(*$C$DW$T$22)
    2278                      .dwattr $C$DW$208, DW_AT_name("Beta")
    2279                      .dwattr $C$DW$208, DW_AT_TI_symbol_name("_Beta")
    2280                      .dwattr $C$DW$208, DW_AT_data_member_location[DW_OP_plus_uconst 0x2]
    2281                      .dwattr $C$DW$208, DW_AT_accessibility(DW_ACCESS_public)
    2282              $C$DW$209       .dwtag  DW_TAG_member
    2283                      .dwattr $C$DW$209, DW_AT_type(*$C$DW$T$22)
    2284                      .dwattr $C$DW$209, DW_AT_name("Angle")
    2285                      .dwattr $C$DW$209, DW_AT_TI_symbol_name("_Angle")
    2286                      .dwattr $C$DW$209, DW_AT_data_member_location[DW_OP_plus_uconst 0x4]
    2287                      .dwattr $C$DW$209, DW_AT_accessibility(DW_ACCESS_public)
TMS320C2000 Assembler PC v6.4.2 Thu Dec 14 13:37:55 2017

Tools Copyright (c) 1996-2015 Texas Instruments Incorporated
fsm_main.asm                                                         PAGE   45

    2288              $C$DW$210       .dwtag  DW_TAG_member
    2289                      .dwattr $C$DW$210, DW_AT_type(*$C$DW$T$22)
    2290                      .dwattr $C$DW$210, DW_AT_name("Ds")
    2291                      .dwattr $C$DW$210, DW_AT_TI_symbol_name("_Ds")
    2292                      .dwattr $C$DW$210, DW_AT_data_member_location[DW_OP_plus_uconst 0x6]
    2293                      .dwattr $C$DW$210, DW_AT_accessibility(DW_ACCESS_public)
    2294              $C$DW$211       .dwtag  DW_TAG_member
    2295                      .dwattr $C$DW$211, DW_AT_type(*$C$DW$T$22)
    2296                      .dwattr $C$DW$211, DW_AT_name("Qs")
    2297                      .dwattr $C$DW$211, DW_AT_TI_symbol_name("_Qs")
    2298                      .dwattr $C$DW$211, DW_AT_data_member_location[DW_OP_plus_uconst 0x8]
    2299                      .dwattr $C$DW$211, DW_AT_accessibility(DW_ACCESS_public)
    2300              $C$DW$212       .dwtag  DW_TAG_member
    2301                      .dwattr $C$DW$212, DW_AT_type(*$C$DW$T$22)
    2302                      .dwattr $C$DW$212, DW_AT_name("Sine")
    2303                      .dwattr $C$DW$212, DW_AT_TI_symbol_name("_Sine")
    2304                      .dwattr $C$DW$212, DW_AT_data_member_location[DW_OP_plus_uconst 0xa]
    2305                      .dwattr $C$DW$212, DW_AT_accessibility(DW_ACCESS_public)
    2306              $C$DW$213       .dwtag  DW_TAG_member
    2307                      .dwattr $C$DW$213, DW_AT_type(*$C$DW$T$22)
    2308                      .dwattr $C$DW$213, DW_AT_name("Cosine")
    2309                      .dwattr $C$DW$213, DW_AT_TI_symbol_name("_Cosine")
    2310                      .dwattr $C$DW$213, DW_AT_data_member_location[DW_OP_plus_uconst 0xc]
    2311                      .dwattr $C$DW$213, DW_AT_accessibility(DW_ACCESS_public)
    2312                      .dwendtag $C$DW$T$25
    2313              
    2314              $C$DW$T$68      .dwtag  DW_TAG_typedef, DW_AT_name("IPARK")
    2315                      .dwattr $C$DW$T$68, DW_AT_type(*$C$DW$T$25)
    2316                      .dwattr $C$DW$T$68, DW_AT_language(DW_LANG_C)
    2317              
    2318              $C$DW$T$26      .dwtag  DW_TAG_structure_type
    2319                      .dwattr $C$DW$T$26, DW_AT_byte_size(0x18)
    2320              $C$DW$214       .dwtag  DW_TAG_member
    2321                      .dwattr $C$DW$214, DW_AT_type(*$C$DW$T$22)
    2322                      .dwattr $C$DW$214, DW_AT_name("Ref")
    2323                      .dwattr $C$DW$214, DW_AT_TI_symbol_name("_Ref")
    2324                      .dwattr $C$DW$214, DW_AT_data_member_location[DW_OP_plus_uconst 0x0]
    2325                      .dwattr $C$DW$214, DW_AT_accessibility(DW_ACCESS_public)
    2326              $C$DW$215       .dwtag  DW_TAG_member
    2327                      .dwattr $C$DW$215, DW_AT_type(*$C$DW$T$22)
    2328                      .dwattr $C$DW$215, DW_AT_name("Fbk")
    2329                      .dwattr $C$DW$215, DW_AT_TI_symbol_name("_Fbk")
    2330                      .dwattr $C$DW$215, DW_AT_data_member_location[DW_OP_plus_uconst 0x2]
    2331                      .dwattr $C$DW$215, DW_AT_accessibility(DW_ACCESS_public)
    2332              $C$DW$216       .dwtag  DW_TAG_member
    2333                      .dwattr $C$DW$216, DW_AT_type(*$C$DW$T$22)
    2334                      .dwattr $C$DW$216, DW_AT_name("Out")
    2335                      .dwattr $C$DW$216, DW_AT_TI_symbol_name("_Out")
    2336                      .dwattr $C$DW$216, DW_AT_data_member_location[DW_OP_plus_uconst 0x4]
    2337                      .dwattr $C$DW$216, DW_AT_accessibility(DW_ACCESS_public)
    2338              $C$DW$217       .dwtag  DW_TAG_member
    2339                      .dwattr $C$DW$217, DW_AT_type(*$C$DW$T$22)
    2340                      .dwattr $C$DW$217, DW_AT_name("Kp")
    2341                      .dwattr $C$DW$217, DW_AT_TI_symbol_name("_Kp")
    2342                      .dwattr $C$DW$217, DW_AT_data_member_location[DW_OP_plus_uconst 0x6]
TMS320C2000 Assembler PC v6.4.2 Thu Dec 14 13:37:55 2017

Tools Copyright (c) 1996-2015 Texas Instruments Incorporated
fsm_main.asm                                                         PAGE   46

    2343                      .dwattr $C$DW$217, DW_AT_accessibility(DW_ACCESS_public)
    2344              $C$DW$218       .dwtag  DW_TAG_member
    2345                      .dwattr $C$DW$218, DW_AT_type(*$C$DW$T$22)
    2346                      .dwattr $C$DW$218, DW_AT_name("Ki")
    2347                      .dwattr $C$DW$218, DW_AT_TI_symbol_name("_Ki")
    2348                      .dwattr $C$DW$218, DW_AT_data_member_location[DW_OP_plus_uconst 0x8]
    2349                      .dwattr $C$DW$218, DW_AT_accessibility(DW_ACCESS_public)
    2350              $C$DW$219       .dwtag  DW_TAG_member
    2351                      .dwattr $C$DW$219, DW_AT_type(*$C$DW$T$22)
    2352                      .dwattr $C$DW$219, DW_AT_name("Umax")
    2353                      .dwattr $C$DW$219, DW_AT_TI_symbol_name("_Umax")
    2354                      .dwattr $C$DW$219, DW_AT_data_member_location[DW_OP_plus_uconst 0xa]
    2355                      .dwattr $C$DW$219, DW_AT_accessibility(DW_ACCESS_public)
    2356              $C$DW$220       .dwtag  DW_TAG_member
    2357                      .dwattr $C$DW$220, DW_AT_type(*$C$DW$T$22)
    2358                      .dwattr $C$DW$220, DW_AT_name("Umin")
    2359                      .dwattr $C$DW$220, DW_AT_TI_symbol_name("_Umin")
    2360                      .dwattr $C$DW$220, DW_AT_data_member_location[DW_OP_plus_uconst 0xc]
    2361                      .dwattr $C$DW$220, DW_AT_accessibility(DW_ACCESS_public)
    2362              $C$DW$221       .dwtag  DW_TAG_member
    2363                      .dwattr $C$DW$221, DW_AT_type(*$C$DW$T$22)
    2364                      .dwattr $C$DW$221, DW_AT_name("up")
    2365                      .dwattr $C$DW$221, DW_AT_TI_symbol_name("_up")
    2366                      .dwattr $C$DW$221, DW_AT_data_member_location[DW_OP_plus_uconst 0xe]
    2367                      .dwattr $C$DW$221, DW_AT_accessibility(DW_ACCESS_public)
    2368              $C$DW$222       .dwtag  DW_TAG_member
    2369                      .dwattr $C$DW$222, DW_AT_type(*$C$DW$T$22)
    2370                      .dwattr $C$DW$222, DW_AT_name("ui")
    2371                      .dwattr $C$DW$222, DW_AT_TI_symbol_name("_ui")
    2372                      .dwattr $C$DW$222, DW_AT_data_member_location[DW_OP_plus_uconst 0x10]
    2373                      .dwattr $C$DW$222, DW_AT_accessibility(DW_ACCESS_public)
    2374              $C$DW$223       .dwtag  DW_TAG_member
    2375                      .dwattr $C$DW$223, DW_AT_type(*$C$DW$T$22)
    2376                      .dwattr $C$DW$223, DW_AT_name("v1")
    2377                      .dwattr $C$DW$223, DW_AT_TI_symbol_name("_v1")
    2378                      .dwattr $C$DW$223, DW_AT_data_member_location[DW_OP_plus_uconst 0x12]
    2379                      .dwattr $C$DW$223, DW_AT_accessibility(DW_ACCESS_public)
    2380              $C$DW$224       .dwtag  DW_TAG_member
    2381                      .dwattr $C$DW$224, DW_AT_type(*$C$DW$T$22)
    2382                      .dwattr $C$DW$224, DW_AT_name("i1")
    2383                      .dwattr $C$DW$224, DW_AT_TI_symbol_name("_i1")
    2384                      .dwattr $C$DW$224, DW_AT_data_member_location[DW_OP_plus_uconst 0x14]
    2385                      .dwattr $C$DW$224, DW_AT_accessibility(DW_ACCESS_public)
    2386              $C$DW$225       .dwtag  DW_TAG_member
    2387                      .dwattr $C$DW$225, DW_AT_type(*$C$DW$T$22)
    2388                      .dwattr $C$DW$225, DW_AT_name("w1")
    2389                      .dwattr $C$DW$225, DW_AT_TI_symbol_name("_w1")
    2390                      .dwattr $C$DW$225, DW_AT_data_member_location[DW_OP_plus_uconst 0x16]
    2391                      .dwattr $C$DW$225, DW_AT_accessibility(DW_ACCESS_public)
    2392                      .dwendtag $C$DW$T$26
    2393              
    2394              $C$DW$T$69      .dwtag  DW_TAG_typedef, DW_AT_name("PI_CONTROLLER")
    2395                      .dwattr $C$DW$T$69, DW_AT_type(*$C$DW$T$26)
    2396                      .dwattr $C$DW$T$69, DW_AT_language(DW_LANG_C)
    2397              
TMS320C2000 Assembler PC v6.4.2 Thu Dec 14 13:37:55 2017

Tools Copyright (c) 1996-2015 Texas Instruments Incorporated
fsm_main.asm                                                         PAGE   47

    2398              $C$DW$T$27      .dwtag  DW_TAG_structure_type
    2399                      .dwattr $C$DW$T$27, DW_AT_byte_size(0x0a)
    2400              $C$DW$226       .dwtag  DW_TAG_member
    2401                      .dwattr $C$DW$226, DW_AT_type(*$C$DW$T$22)
    2402                      .dwattr $C$DW$226, DW_AT_name("Ref")
    2403                      .dwattr $C$DW$226, DW_AT_TI_symbol_name("_Ref")
    2404                      .dwattr $C$DW$226, DW_AT_data_member_location[DW_OP_plus_uconst 0x0]
    2405                      .dwattr $C$DW$226, DW_AT_accessibility(DW_ACCESS_public)
    2406              $C$DW$227       .dwtag  DW_TAG_member
    2407                      .dwattr $C$DW$227, DW_AT_type(*$C$DW$T$22)
    2408                      .dwattr $C$DW$227, DW_AT_name("Fbk")
    2409                      .dwattr $C$DW$227, DW_AT_TI_symbol_name("_Fbk")
    2410                      .dwattr $C$DW$227, DW_AT_data_member_location[DW_OP_plus_uconst 0x2]
    2411                      .dwattr $C$DW$227, DW_AT_accessibility(DW_ACCESS_public)
    2412              $C$DW$228       .dwtag  DW_TAG_member
    2413                      .dwattr $C$DW$228, DW_AT_type(*$C$DW$T$22)
    2414                      .dwattr $C$DW$228, DW_AT_name("Out")
    2415                      .dwattr $C$DW$228, DW_AT_TI_symbol_name("_Out")
    2416                      .dwattr $C$DW$228, DW_AT_data_member_location[DW_OP_plus_uconst 0x4]
    2417                      .dwattr $C$DW$228, DW_AT_accessibility(DW_ACCESS_public)
    2418              $C$DW$229       .dwtag  DW_TAG_member
    2419                      .dwattr $C$DW$229, DW_AT_type(*$C$DW$T$22)
    2420                      .dwattr $C$DW$229, DW_AT_name("c1")
    2421                      .dwattr $C$DW$229, DW_AT_TI_symbol_name("_c1")
    2422                      .dwattr $C$DW$229, DW_AT_data_member_location[DW_OP_plus_uconst 0x6]
    2423                      .dwattr $C$DW$229, DW_AT_accessibility(DW_ACCESS_public)
    2424              $C$DW$230       .dwtag  DW_TAG_member
    2425                      .dwattr $C$DW$230, DW_AT_type(*$C$DW$T$22)
    2426                      .dwattr $C$DW$230, DW_AT_name("c2")
    2427                      .dwattr $C$DW$230, DW_AT_TI_symbol_name("_c2")
    2428                      .dwattr $C$DW$230, DW_AT_data_member_location[DW_OP_plus_uconst 0x8]
    2429                      .dwattr $C$DW$230, DW_AT_accessibility(DW_ACCESS_public)
    2430                      .dwendtag $C$DW$T$27
    2431              
    2432              $C$DW$T$30      .dwtag  DW_TAG_typedef, DW_AT_name("PID_TERMINALS")
    2433                      .dwattr $C$DW$T$30, DW_AT_type(*$C$DW$T$27)
    2434                      .dwattr $C$DW$T$30, DW_AT_language(DW_LANG_C)
    2435              
    2436              $C$DW$T$28      .dwtag  DW_TAG_structure_type
    2437                      .dwattr $C$DW$T$28, DW_AT_byte_size(0x0e)
    2438              $C$DW$231       .dwtag  DW_TAG_member
    2439                      .dwattr $C$DW$231, DW_AT_type(*$C$DW$T$22)
    2440                      .dwattr $C$DW$231, DW_AT_name("Kr")
    2441                      .dwattr $C$DW$231, DW_AT_TI_symbol_name("_Kr")
    2442                      .dwattr $C$DW$231, DW_AT_data_member_location[DW_OP_plus_uconst 0x0]
    2443                      .dwattr $C$DW$231, DW_AT_accessibility(DW_ACCESS_public)
    2444              $C$DW$232       .dwtag  DW_TAG_member
    2445                      .dwattr $C$DW$232, DW_AT_type(*$C$DW$T$22)
    2446                      .dwattr $C$DW$232, DW_AT_name("Kp")
    2447                      .dwattr $C$DW$232, DW_AT_TI_symbol_name("_Kp")
    2448                      .dwattr $C$DW$232, DW_AT_data_member_location[DW_OP_plus_uconst 0x2]
    2449                      .dwattr $C$DW$232, DW_AT_accessibility(DW_ACCESS_public)
    2450              $C$DW$233       .dwtag  DW_TAG_member
    2451                      .dwattr $C$DW$233, DW_AT_type(*$C$DW$T$22)
    2452                      .dwattr $C$DW$233, DW_AT_name("Ki")
TMS320C2000 Assembler PC v6.4.2 Thu Dec 14 13:37:55 2017

Tools Copyright (c) 1996-2015 Texas Instruments Incorporated
fsm_main.asm                                                         PAGE   48

    2453                      .dwattr $C$DW$233, DW_AT_TI_symbol_name("_Ki")
    2454                      .dwattr $C$DW$233, DW_AT_data_member_location[DW_OP_plus_uconst 0x4]
    2455                      .dwattr $C$DW$233, DW_AT_accessibility(DW_ACCESS_public)
    2456              $C$DW$234       .dwtag  DW_TAG_member
    2457                      .dwattr $C$DW$234, DW_AT_type(*$C$DW$T$22)
    2458                      .dwattr $C$DW$234, DW_AT_name("Kd")
    2459                      .dwattr $C$DW$234, DW_AT_TI_symbol_name("_Kd")
    2460                      .dwattr $C$DW$234, DW_AT_data_member_location[DW_OP_plus_uconst 0x6]
    2461                      .dwattr $C$DW$234, DW_AT_accessibility(DW_ACCESS_public)
    2462              $C$DW$235       .dwtag  DW_TAG_member
    2463                      .dwattr $C$DW$235, DW_AT_type(*$C$DW$T$22)
    2464                      .dwattr $C$DW$235, DW_AT_name("Km")
    2465                      .dwattr $C$DW$235, DW_AT_TI_symbol_name("_Km")
    2466                      .dwattr $C$DW$235, DW_AT_data_member_location[DW_OP_plus_uconst 0x8]
    2467                      .dwattr $C$DW$235, DW_AT_accessibility(DW_ACCESS_public)
    2468              $C$DW$236       .dwtag  DW_TAG_member
    2469                      .dwattr $C$DW$236, DW_AT_type(*$C$DW$T$22)
    2470                      .dwattr $C$DW$236, DW_AT_name("Umax")
    2471                      .dwattr $C$DW$236, DW_AT_TI_symbol_name("_Umax")
    2472                      .dwattr $C$DW$236, DW_AT_data_member_location[DW_OP_plus_uconst 0xa]
    2473                      .dwattr $C$DW$236, DW_AT_accessibility(DW_ACCESS_public)
    2474              $C$DW$237       .dwtag  DW_TAG_member
    2475                      .dwattr $C$DW$237, DW_AT_type(*$C$DW$T$22)
    2476                      .dwattr $C$DW$237, DW_AT_name("Umin")
    2477                      .dwattr $C$DW$237, DW_AT_TI_symbol_name("_Umin")
    2478                      .dwattr $C$DW$237, DW_AT_data_member_location[DW_OP_plus_uconst 0xc]
    2479                      .dwattr $C$DW$237, DW_AT_accessibility(DW_ACCESS_public)
    2480                      .dwendtag $C$DW$T$28
    2481              
    2482              $C$DW$T$31      .dwtag  DW_TAG_typedef, DW_AT_name("PID_PARAMETERS")
    2483                      .dwattr $C$DW$T$31, DW_AT_type(*$C$DW$T$28)
    2484                      .dwattr $C$DW$T$31, DW_AT_language(DW_LANG_C)
    2485              
    2486              $C$DW$T$29      .dwtag  DW_TAG_structure_type
    2487                      .dwattr $C$DW$T$29, DW_AT_byte_size(0x10)
    2488              $C$DW$238       .dwtag  DW_TAG_member
    2489                      .dwattr $C$DW$238, DW_AT_type(*$C$DW$T$22)
    2490                      .dwattr $C$DW$238, DW_AT_name("up")
    2491                      .dwattr $C$DW$238, DW_AT_TI_symbol_name("_up")
    2492                      .dwattr $C$DW$238, DW_AT_data_member_location[DW_OP_plus_uconst 0x0]
    2493                      .dwattr $C$DW$238, DW_AT_accessibility(DW_ACCESS_public)
    2494              $C$DW$239       .dwtag  DW_TAG_member
    2495                      .dwattr $C$DW$239, DW_AT_type(*$C$DW$T$22)
    2496                      .dwattr $C$DW$239, DW_AT_name("ui")
    2497                      .dwattr $C$DW$239, DW_AT_TI_symbol_name("_ui")
    2498                      .dwattr $C$DW$239, DW_AT_data_member_location[DW_OP_plus_uconst 0x2]
    2499                      .dwattr $C$DW$239, DW_AT_accessibility(DW_ACCESS_public)
    2500              $C$DW$240       .dwtag  DW_TAG_member
    2501                      .dwattr $C$DW$240, DW_AT_type(*$C$DW$T$22)
    2502                      .dwattr $C$DW$240, DW_AT_name("ud")
    2503                      .dwattr $C$DW$240, DW_AT_TI_symbol_name("_ud")
    2504                      .dwattr $C$DW$240, DW_AT_data_member_location[DW_OP_plus_uconst 0x4]
    2505                      .dwattr $C$DW$240, DW_AT_accessibility(DW_ACCESS_public)
    2506              $C$DW$241       .dwtag  DW_TAG_member
    2507                      .dwattr $C$DW$241, DW_AT_type(*$C$DW$T$22)
TMS320C2000 Assembler PC v6.4.2 Thu Dec 14 13:37:55 2017

Tools Copyright (c) 1996-2015 Texas Instruments Incorporated
fsm_main.asm                                                         PAGE   49

    2508                      .dwattr $C$DW$241, DW_AT_name("v1")
    2509                      .dwattr $C$DW$241, DW_AT_TI_symbol_name("_v1")
    2510                      .dwattr $C$DW$241, DW_AT_data_member_location[DW_OP_plus_uconst 0x6]
    2511                      .dwattr $C$DW$241, DW_AT_accessibility(DW_ACCESS_public)
    2512              $C$DW$242       .dwtag  DW_TAG_member
    2513                      .dwattr $C$DW$242, DW_AT_type(*$C$DW$T$22)
    2514                      .dwattr $C$DW$242, DW_AT_name("i1")
    2515                      .dwattr $C$DW$242, DW_AT_TI_symbol_name("_i1")
    2516                      .dwattr $C$DW$242, DW_AT_data_member_location[DW_OP_plus_uconst 0x8]
    2517                      .dwattr $C$DW$242, DW_AT_accessibility(DW_ACCESS_public)
    2518              $C$DW$243       .dwtag  DW_TAG_member
    2519                      .dwattr $C$DW$243, DW_AT_type(*$C$DW$T$22)
    2520                      .dwattr $C$DW$243, DW_AT_name("d1")
    2521                      .dwattr $C$DW$243, DW_AT_TI_symbol_name("_d1")
    2522                      .dwattr $C$DW$243, DW_AT_data_member_location[DW_OP_plus_uconst 0xa]
    2523                      .dwattr $C$DW$243, DW_AT_accessibility(DW_ACCESS_public)
    2524              $C$DW$244       .dwtag  DW_TAG_member
    2525                      .dwattr $C$DW$244, DW_AT_type(*$C$DW$T$22)
    2526                      .dwattr $C$DW$244, DW_AT_name("d2")
    2527                      .dwattr $C$DW$244, DW_AT_TI_symbol_name("_d2")
    2528                      .dwattr $C$DW$244, DW_AT_data_member_location[DW_OP_plus_uconst 0xc]
    2529                      .dwattr $C$DW$244, DW_AT_accessibility(DW_ACCESS_public)
    2530              $C$DW$245       .dwtag  DW_TAG_member
    2531                      .dwattr $C$DW$245, DW_AT_type(*$C$DW$T$22)
    2532                      .dwattr $C$DW$245, DW_AT_name("w1")
    2533                      .dwattr $C$DW$245, DW_AT_TI_symbol_name("_w1")
    2534                      .dwattr $C$DW$245, DW_AT_data_member_location[DW_OP_plus_uconst 0xe]
    2535                      .dwattr $C$DW$245, DW_AT_accessibility(DW_ACCESS_public)
    2536                      .dwendtag $C$DW$T$29
    2537              
    2538              $C$DW$T$32      .dwtag  DW_TAG_typedef, DW_AT_name("PID_DATA")
    2539                      .dwattr $C$DW$T$32, DW_AT_type(*$C$DW$T$29)
    2540                      .dwattr $C$DW$T$32, DW_AT_language(DW_LANG_C)
    2541              
    2542              $C$DW$T$33      .dwtag  DW_TAG_structure_type
    2543                      .dwattr $C$DW$T$33, DW_AT_byte_size(0x28)
    2544              $C$DW$246       .dwtag  DW_TAG_member
    2545                      .dwattr $C$DW$246, DW_AT_type(*$C$DW$T$30)
    2546                      .dwattr $C$DW$246, DW_AT_name("term")
    2547                      .dwattr $C$DW$246, DW_AT_TI_symbol_name("_term")
    2548                      .dwattr $C$DW$246, DW_AT_data_member_location[DW_OP_plus_uconst 0x0]
    2549                      .dwattr $C$DW$246, DW_AT_accessibility(DW_ACCESS_public)
    2550              $C$DW$247       .dwtag  DW_TAG_member
    2551                      .dwattr $C$DW$247, DW_AT_type(*$C$DW$T$31)
    2552                      .dwattr $C$DW$247, DW_AT_name("param")
    2553                      .dwattr $C$DW$247, DW_AT_TI_symbol_name("_param")
    2554                      .dwattr $C$DW$247, DW_AT_data_member_location[DW_OP_plus_uconst 0xa]
    2555                      .dwattr $C$DW$247, DW_AT_accessibility(DW_ACCESS_public)
    2556              $C$DW$248       .dwtag  DW_TAG_member
    2557                      .dwattr $C$DW$248, DW_AT_type(*$C$DW$T$32)
    2558                      .dwattr $C$DW$248, DW_AT_name("data")
    2559                      .dwattr $C$DW$248, DW_AT_TI_symbol_name("_data")
    2560                      .dwattr $C$DW$248, DW_AT_data_member_location[DW_OP_plus_uconst 0x18]
    2561                      .dwattr $C$DW$248, DW_AT_accessibility(DW_ACCESS_public)
    2562                      .dwendtag $C$DW$T$33
TMS320C2000 Assembler PC v6.4.2 Thu Dec 14 13:37:55 2017

Tools Copyright (c) 1996-2015 Texas Instruments Incorporated
fsm_main.asm                                                         PAGE   50

    2563              
    2564              $C$DW$T$70      .dwtag  DW_TAG_typedef, DW_AT_name("PID_CONTROLLER")
    2565                      .dwattr $C$DW$T$70, DW_AT_type(*$C$DW$T$33)
    2566                      .dwattr $C$DW$T$70, DW_AT_language(DW_LANG_C)
    2567              
    2568              $C$DW$T$35      .dwtag  DW_TAG_structure_type
    2569                      .dwattr $C$DW$T$35, DW_AT_byte_size(0x12)
    2570              $C$DW$249       .dwtag  DW_TAG_member
    2571                      .dwattr $C$DW$249, DW_AT_type(*$C$DW$T$22)
    2572                      .dwattr $C$DW$249, DW_AT_name("Ualpha")
    2573                      .dwattr $C$DW$249, DW_AT_TI_symbol_name("_Ualpha")
    2574                      .dwattr $C$DW$249, DW_AT_data_member_location[DW_OP_plus_uconst 0x0]
    2575                      .dwattr $C$DW$249, DW_AT_accessibility(DW_ACCESS_public)
    2576              $C$DW$250       .dwtag  DW_TAG_member
    2577                      .dwattr $C$DW$250, DW_AT_type(*$C$DW$T$22)
    2578                      .dwattr $C$DW$250, DW_AT_name("Ubeta")
    2579                      .dwattr $C$DW$250, DW_AT_TI_symbol_name("_Ubeta")
    2580                      .dwattr $C$DW$250, DW_AT_data_member_location[DW_OP_plus_uconst 0x2]
    2581                      .dwattr $C$DW$250, DW_AT_accessibility(DW_ACCESS_public)
    2582              $C$DW$251       .dwtag  DW_TAG_member
    2583                      .dwattr $C$DW$251, DW_AT_type(*$C$DW$T$22)
    2584                      .dwattr $C$DW$251, DW_AT_name("Ta")
    2585                      .dwattr $C$DW$251, DW_AT_TI_symbol_name("_Ta")
    2586                      .dwattr $C$DW$251, DW_AT_data_member_location[DW_OP_plus_uconst 0x4]
    2587                      .dwattr $C$DW$251, DW_AT_accessibility(DW_ACCESS_public)
    2588              $C$DW$252       .dwtag  DW_TAG_member
    2589                      .dwattr $C$DW$252, DW_AT_type(*$C$DW$T$22)
    2590                      .dwattr $C$DW$252, DW_AT_name("Tb")
    2591                      .dwattr $C$DW$252, DW_AT_TI_symbol_name("_Tb")
    2592                      .dwattr $C$DW$252, DW_AT_data_member_location[DW_OP_plus_uconst 0x6]
    2593                      .dwattr $C$DW$252, DW_AT_accessibility(DW_ACCESS_public)
    2594              $C$DW$253       .dwtag  DW_TAG_member
    2595                      .dwattr $C$DW$253, DW_AT_type(*$C$DW$T$22)
    2596                      .dwattr $C$DW$253, DW_AT_name("Tc")
    2597                      .dwattr $C$DW$253, DW_AT_TI_symbol_name("_Tc")
    2598                      .dwattr $C$DW$253, DW_AT_data_member_location[DW_OP_plus_uconst 0x8]
    2599                      .dwattr $C$DW$253, DW_AT_accessibility(DW_ACCESS_public)
    2600              $C$DW$254       .dwtag  DW_TAG_member
    2601                      .dwattr $C$DW$254, DW_AT_type(*$C$DW$T$22)
    2602                      .dwattr $C$DW$254, DW_AT_name("tmp1")
    2603                      .dwattr $C$DW$254, DW_AT_TI_symbol_name("_tmp1")
    2604                      .dwattr $C$DW$254, DW_AT_data_member_location[DW_OP_plus_uconst 0xa]
    2605                      .dwattr $C$DW$254, DW_AT_accessibility(DW_ACCESS_public)
    2606              $C$DW$255       .dwtag  DW_TAG_member
    2607                      .dwattr $C$DW$255, DW_AT_type(*$C$DW$T$22)
    2608                      .dwattr $C$DW$255, DW_AT_name("tmp2")
    2609                      .dwattr $C$DW$255, DW_AT_TI_symbol_name("_tmp2")
    2610                      .dwattr $C$DW$255, DW_AT_data_member_location[DW_OP_plus_uconst 0xc]
    2611                      .dwattr $C$DW$255, DW_AT_accessibility(DW_ACCESS_public)
    2612              $C$DW$256       .dwtag  DW_TAG_member
    2613                      .dwattr $C$DW$256, DW_AT_type(*$C$DW$T$22)
    2614                      .dwattr $C$DW$256, DW_AT_name("tmp3")
    2615                      .dwattr $C$DW$256, DW_AT_TI_symbol_name("_tmp3")
    2616                      .dwattr $C$DW$256, DW_AT_data_member_location[DW_OP_plus_uconst 0xe]
    2617                      .dwattr $C$DW$256, DW_AT_accessibility(DW_ACCESS_public)
TMS320C2000 Assembler PC v6.4.2 Thu Dec 14 13:37:55 2017

Tools Copyright (c) 1996-2015 Texas Instruments Incorporated
fsm_main.asm                                                         PAGE   51

    2618              $C$DW$257       .dwtag  DW_TAG_member
    2619                      .dwattr $C$DW$257, DW_AT_type(*$C$DW$T$34)
    2620                      .dwattr $C$DW$257, DW_AT_name("VecSector")
    2621                      .dwattr $C$DW$257, DW_AT_TI_symbol_name("_VecSector")
    2622                      .dwattr $C$DW$257, DW_AT_data_member_location[DW_OP_plus_uconst 0x10]
    2623                      .dwattr $C$DW$257, DW_AT_accessibility(DW_ACCESS_public)
    2624                      .dwendtag $C$DW$T$35
    2625              
    2626              $C$DW$T$71      .dwtag  DW_TAG_typedef, DW_AT_name("SVGEN")
    2627                      .dwattr $C$DW$T$71, DW_AT_type(*$C$DW$T$35)
    2628                      .dwattr $C$DW$T$71, DW_AT_language(DW_LANG_C)
    2629              
    2630              $C$DW$T$36      .dwtag  DW_TAG_structure_type
    2631                      .dwattr $C$DW$T$36, DW_AT_byte_size(0x10)
    2632              $C$DW$258       .dwtag  DW_TAG_member
    2633                      .dwattr $C$DW$258, DW_AT_type(*$C$DW$T$22)
    2634                      .dwattr $C$DW$258, DW_AT_name("TargetValue")
    2635                      .dwattr $C$DW$258, DW_AT_TI_symbol_name("_TargetValue")
    2636                      .dwattr $C$DW$258, DW_AT_data_member_location[DW_OP_plus_uconst 0x0]
    2637                      .dwattr $C$DW$258, DW_AT_accessibility(DW_ACCESS_public)
    2638              $C$DW$259       .dwtag  DW_TAG_member
    2639                      .dwattr $C$DW$259, DW_AT_type(*$C$DW$T$20)
    2640                      .dwattr $C$DW$259, DW_AT_name("RampDelayMax")
    2641                      .dwattr $C$DW$259, DW_AT_TI_symbol_name("_RampDelayMax")
    2642                      .dwattr $C$DW$259, DW_AT_data_member_location[DW_OP_plus_uconst 0x2]
    2643                      .dwattr $C$DW$259, DW_AT_accessibility(DW_ACCESS_public)
    2644              $C$DW$260       .dwtag  DW_TAG_member
    2645                      .dwattr $C$DW$260, DW_AT_type(*$C$DW$T$22)
    2646                      .dwattr $C$DW$260, DW_AT_name("RampLowLimit")
    2647                      .dwattr $C$DW$260, DW_AT_TI_symbol_name("_RampLowLimit")
    2648                      .dwattr $C$DW$260, DW_AT_data_member_location[DW_OP_plus_uconst 0x4]
    2649                      .dwattr $C$DW$260, DW_AT_accessibility(DW_ACCESS_public)
    2650              $C$DW$261       .dwtag  DW_TAG_member
    2651                      .dwattr $C$DW$261, DW_AT_type(*$C$DW$T$22)
    2652                      .dwattr $C$DW$261, DW_AT_name("RampHighLimit")
    2653                      .dwattr $C$DW$261, DW_AT_TI_symbol_name("_RampHighLimit")
    2654                      .dwattr $C$DW$261, DW_AT_data_member_location[DW_OP_plus_uconst 0x6]
    2655                      .dwattr $C$DW$261, DW_AT_accessibility(DW_ACCESS_public)
    2656              $C$DW$262       .dwtag  DW_TAG_member
    2657                      .dwattr $C$DW$262, DW_AT_type(*$C$DW$T$20)
    2658                      .dwattr $C$DW$262, DW_AT_name("RampDelayCount")
    2659                      .dwattr $C$DW$262, DW_AT_TI_symbol_name("_RampDelayCount")
    2660                      .dwattr $C$DW$262, DW_AT_data_member_location[DW_OP_plus_uconst 0x8]
    2661                      .dwattr $C$DW$262, DW_AT_accessibility(DW_ACCESS_public)
    2662              $C$DW$263       .dwtag  DW_TAG_member
    2663                      .dwattr $C$DW$263, DW_AT_type(*$C$DW$T$22)
    2664                      .dwattr $C$DW$263, DW_AT_name("SetpointValue")
    2665                      .dwattr $C$DW$263, DW_AT_TI_symbol_name("_SetpointValue")
    2666                      .dwattr $C$DW$263, DW_AT_data_member_location[DW_OP_plus_uconst 0xa]
    2667                      .dwattr $C$DW$263, DW_AT_accessibility(DW_ACCESS_public)
    2668              $C$DW$264       .dwtag  DW_TAG_member
    2669                      .dwattr $C$DW$264, DW_AT_type(*$C$DW$T$20)
    2670                      .dwattr $C$DW$264, DW_AT_name("EqualFlag")
    2671                      .dwattr $C$DW$264, DW_AT_TI_symbol_name("_EqualFlag")
    2672                      .dwattr $C$DW$264, DW_AT_data_member_location[DW_OP_plus_uconst 0xc]
TMS320C2000 Assembler PC v6.4.2 Thu Dec 14 13:37:55 2017

Tools Copyright (c) 1996-2015 Texas Instruments Incorporated
fsm_main.asm                                                         PAGE   52

    2673                      .dwattr $C$DW$264, DW_AT_accessibility(DW_ACCESS_public)
    2674              $C$DW$265       .dwtag  DW_TAG_member
    2675                      .dwattr $C$DW$265, DW_AT_type(*$C$DW$T$22)
    2676                      .dwattr $C$DW$265, DW_AT_name("Tmp")
    2677                      .dwattr $C$DW$265, DW_AT_TI_symbol_name("_Tmp")
    2678                      .dwattr $C$DW$265, DW_AT_data_member_location[DW_OP_plus_uconst 0xe]
    2679                      .dwattr $C$DW$265, DW_AT_accessibility(DW_ACCESS_public)
    2680                      .dwendtag $C$DW$T$36
    2681              
    2682              $C$DW$T$72      .dwtag  DW_TAG_typedef, DW_AT_name("RMPCNTL")
    2683                      .dwattr $C$DW$T$72, DW_AT_type(*$C$DW$T$36)
    2684                      .dwattr $C$DW$T$72, DW_AT_language(DW_LANG_C)
    2685              
    2686              $C$DW$T$37      .dwtag  DW_TAG_structure_type
    2687                      .dwattr $C$DW$T$37, DW_AT_byte_size(0x0c)
    2688              $C$DW$266       .dwtag  DW_TAG_member
    2689                      .dwattr $C$DW$266, DW_AT_type(*$C$DW$T$22)
    2690                      .dwattr $C$DW$266, DW_AT_name("Freq")
    2691                      .dwattr $C$DW$266, DW_AT_TI_symbol_name("_Freq")
    2692                      .dwattr $C$DW$266, DW_AT_data_member_location[DW_OP_plus_uconst 0x0]
    2693                      .dwattr $C$DW$266, DW_AT_accessibility(DW_ACCESS_public)
    2694              $C$DW$267       .dwtag  DW_TAG_member
    2695                      .dwattr $C$DW$267, DW_AT_type(*$C$DW$T$22)
    2696                      .dwattr $C$DW$267, DW_AT_name("StepAngleMax")
    2697                      .dwattr $C$DW$267, DW_AT_TI_symbol_name("_StepAngleMax")
    2698                      .dwattr $C$DW$267, DW_AT_data_member_location[DW_OP_plus_uconst 0x2]
    2699                      .dwattr $C$DW$267, DW_AT_accessibility(DW_ACCESS_public)
    2700              $C$DW$268       .dwtag  DW_TAG_member
    2701                      .dwattr $C$DW$268, DW_AT_type(*$C$DW$T$22)
    2702                      .dwattr $C$DW$268, DW_AT_name("Angle")
    2703                      .dwattr $C$DW$268, DW_AT_TI_symbol_name("_Angle")
    2704                      .dwattr $C$DW$268, DW_AT_data_member_location[DW_OP_plus_uconst 0x4]
    2705                      .dwattr $C$DW$268, DW_AT_accessibility(DW_ACCESS_public)
    2706              $C$DW$269       .dwtag  DW_TAG_member
    2707                      .dwattr $C$DW$269, DW_AT_type(*$C$DW$T$22)
    2708                      .dwattr $C$DW$269, DW_AT_name("Gain")
    2709                      .dwattr $C$DW$269, DW_AT_TI_symbol_name("_Gain")
    2710                      .dwattr $C$DW$269, DW_AT_data_member_location[DW_OP_plus_uconst 0x6]
    2711                      .dwattr $C$DW$269, DW_AT_accessibility(DW_ACCESS_public)
    2712              $C$DW$270       .dwtag  DW_TAG_member
    2713                      .dwattr $C$DW$270, DW_AT_type(*$C$DW$T$22)
    2714                      .dwattr $C$DW$270, DW_AT_name("Out")
    2715                      .dwattr $C$DW$270, DW_AT_TI_symbol_name("_Out")
    2716                      .dwattr $C$DW$270, DW_AT_data_member_location[DW_OP_plus_uconst 0x8]
    2717                      .dwattr $C$DW$270, DW_AT_accessibility(DW_ACCESS_public)
    2718              $C$DW$271       .dwtag  DW_TAG_member
    2719                      .dwattr $C$DW$271, DW_AT_type(*$C$DW$T$22)
    2720                      .dwattr $C$DW$271, DW_AT_name("Offset")
    2721                      .dwattr $C$DW$271, DW_AT_TI_symbol_name("_Offset")
    2722                      .dwattr $C$DW$271, DW_AT_data_member_location[DW_OP_plus_uconst 0xa]
    2723                      .dwattr $C$DW$271, DW_AT_accessibility(DW_ACCESS_public)
    2724                      .dwendtag $C$DW$T$37
    2725              
    2726              $C$DW$T$73      .dwtag  DW_TAG_typedef, DW_AT_name("RAMPGEN")
    2727                      .dwattr $C$DW$T$73, DW_AT_type(*$C$DW$T$37)
TMS320C2000 Assembler PC v6.4.2 Thu Dec 14 13:37:55 2017

Tools Copyright (c) 1996-2015 Texas Instruments Incorporated
fsm_main.asm                                                         PAGE   53

    2728                      .dwattr $C$DW$T$73, DW_AT_language(DW_LANG_C)
    2729              
    2730              $C$DW$T$38      .dwtag  DW_TAG_structure_type
    2731                      .dwattr $C$DW$T$38, DW_AT_byte_size(0x16)
    2732              $C$DW$272       .dwtag  DW_TAG_member
    2733                      .dwattr $C$DW$272, DW_AT_type(*$C$DW$T$22)
    2734                      .dwattr $C$DW$272, DW_AT_name("DcBusVolt")
    2735                      .dwattr $C$DW$272, DW_AT_TI_symbol_name("_DcBusVolt")
    2736                      .dwattr $C$DW$272, DW_AT_data_member_location[DW_OP_plus_uconst 0x0]
    2737                      .dwattr $C$DW$272, DW_AT_accessibility(DW_ACCESS_public)
    2738              $C$DW$273       .dwtag  DW_TAG_member
    2739                      .dwattr $C$DW$273, DW_AT_type(*$C$DW$T$22)
    2740                      .dwattr $C$DW$273, DW_AT_name("MfuncV1")
    2741                      .dwattr $C$DW$273, DW_AT_TI_symbol_name("_MfuncV1")
    2742                      .dwattr $C$DW$273, DW_AT_data_member_location[DW_OP_plus_uconst 0x2]
    2743                      .dwattr $C$DW$273, DW_AT_accessibility(DW_ACCESS_public)
    2744              $C$DW$274       .dwtag  DW_TAG_member
    2745                      .dwattr $C$DW$274, DW_AT_type(*$C$DW$T$22)
    2746                      .dwattr $C$DW$274, DW_AT_name("MfuncV2")
    2747                      .dwattr $C$DW$274, DW_AT_TI_symbol_name("_MfuncV2")
    2748                      .dwattr $C$DW$274, DW_AT_data_member_location[DW_OP_plus_uconst 0x4]
    2749                      .dwattr $C$DW$274, DW_AT_accessibility(DW_ACCESS_public)
    2750              $C$DW$275       .dwtag  DW_TAG_member
    2751                      .dwattr $C$DW$275, DW_AT_type(*$C$DW$T$22)
    2752                      .dwattr $C$DW$275, DW_AT_name("MfuncV3")
    2753                      .dwattr $C$DW$275, DW_AT_TI_symbol_name("_MfuncV3")
    2754                      .dwattr $C$DW$275, DW_AT_data_member_location[DW_OP_plus_uconst 0x6]
    2755                      .dwattr $C$DW$275, DW_AT_accessibility(DW_ACCESS_public)
    2756              $C$DW$276       .dwtag  DW_TAG_member
    2757                      .dwattr $C$DW$276, DW_AT_type(*$C$DW$T$34)
    2758                      .dwattr $C$DW$276, DW_AT_name("OutOfPhase")
    2759                      .dwattr $C$DW$276, DW_AT_TI_symbol_name("_OutOfPhase")
    2760                      .dwattr $C$DW$276, DW_AT_data_member_location[DW_OP_plus_uconst 0x8]
    2761                      .dwattr $C$DW$276, DW_AT_accessibility(DW_ACCESS_public)
    2762              $C$DW$277       .dwtag  DW_TAG_member
    2763                      .dwattr $C$DW$277, DW_AT_type(*$C$DW$T$22)
    2764                      .dwattr $C$DW$277, DW_AT_name("VphaseA")
    2765                      .dwattr $C$DW$277, DW_AT_TI_symbol_name("_VphaseA")
    2766                      .dwattr $C$DW$277, DW_AT_data_member_location[DW_OP_plus_uconst 0xa]
    2767                      .dwattr $C$DW$277, DW_AT_accessibility(DW_ACCESS_public)
    2768              $C$DW$278       .dwtag  DW_TAG_member
    2769                      .dwattr $C$DW$278, DW_AT_type(*$C$DW$T$22)
    2770                      .dwattr $C$DW$278, DW_AT_name("VphaseB")
    2771                      .dwattr $C$DW$278, DW_AT_TI_symbol_name("_VphaseB")
    2772                      .dwattr $C$DW$278, DW_AT_data_member_location[DW_OP_plus_uconst 0xc]
    2773                      .dwattr $C$DW$278, DW_AT_accessibility(DW_ACCESS_public)
    2774              $C$DW$279       .dwtag  DW_TAG_member
    2775                      .dwattr $C$DW$279, DW_AT_type(*$C$DW$T$22)
    2776                      .dwattr $C$DW$279, DW_AT_name("VphaseC")
    2777                      .dwattr $C$DW$279, DW_AT_TI_symbol_name("_VphaseC")
    2778                      .dwattr $C$DW$279, DW_AT_data_member_location[DW_OP_plus_uconst 0xe]
    2779                      .dwattr $C$DW$279, DW_AT_accessibility(DW_ACCESS_public)
    2780              $C$DW$280       .dwtag  DW_TAG_member
    2781                      .dwattr $C$DW$280, DW_AT_type(*$C$DW$T$22)
    2782                      .dwattr $C$DW$280, DW_AT_name("Valpha")
TMS320C2000 Assembler PC v6.4.2 Thu Dec 14 13:37:55 2017

Tools Copyright (c) 1996-2015 Texas Instruments Incorporated
fsm_main.asm                                                         PAGE   54

    2783                      .dwattr $C$DW$280, DW_AT_TI_symbol_name("_Valpha")
    2784                      .dwattr $C$DW$280, DW_AT_data_member_location[DW_OP_plus_uconst 0x10]
    2785                      .dwattr $C$DW$280, DW_AT_accessibility(DW_ACCESS_public)
    2786              $C$DW$281       .dwtag  DW_TAG_member
    2787                      .dwattr $C$DW$281, DW_AT_type(*$C$DW$T$22)
    2788                      .dwattr $C$DW$281, DW_AT_name("Vbeta")
    2789                      .dwattr $C$DW$281, DW_AT_TI_symbol_name("_Vbeta")
    2790                      .dwattr $C$DW$281, DW_AT_data_member_location[DW_OP_plus_uconst 0x12]
    2791                      .dwattr $C$DW$281, DW_AT_accessibility(DW_ACCESS_public)
    2792              $C$DW$282       .dwtag  DW_TAG_member
    2793                      .dwattr $C$DW$282, DW_AT_type(*$C$DW$T$22)
    2794                      .dwattr $C$DW$282, DW_AT_name("temp")
    2795                      .dwattr $C$DW$282, DW_AT_TI_symbol_name("_temp")
    2796                      .dwattr $C$DW$282, DW_AT_data_member_location[DW_OP_plus_uconst 0x14]
    2797                      .dwattr $C$DW$282, DW_AT_accessibility(DW_ACCESS_public)
    2798                      .dwendtag $C$DW$T$38
    2799              
    2800              $C$DW$T$74      .dwtag  DW_TAG_typedef, DW_AT_name("PHASEVOLTAGE")
    2801                      .dwattr $C$DW$T$74, DW_AT_type(*$C$DW$T$38)
    2802                      .dwattr $C$DW$T$74, DW_AT_language(DW_LANG_C)
    2803              
    2804              $C$DW$T$41      .dwtag  DW_TAG_structure_type
    2805                      .dwattr $C$DW$T$41, DW_AT_byte_size(0x14)
    2806              $C$DW$283       .dwtag  DW_TAG_member
    2807                      .dwattr $C$DW$283, DW_AT_type(*$C$DW$T$22)
    2808                      .dwattr $C$DW$283, DW_AT_name("ElecTheta")
    2809                      .dwattr $C$DW$283, DW_AT_TI_symbol_name("_ElecTheta")
    2810                      .dwattr $C$DW$283, DW_AT_data_member_location[DW_OP_plus_uconst 0x0]
    2811                      .dwattr $C$DW$283, DW_AT_accessibility(DW_ACCESS_public)
    2812              $C$DW$284       .dwtag  DW_TAG_member
    2813                      .dwattr $C$DW$284, DW_AT_type(*$C$DW$T$20)
    2814                      .dwattr $C$DW$284, DW_AT_name("DirectionQep")
    2815                      .dwattr $C$DW$284, DW_AT_TI_symbol_name("_DirectionQep")
    2816                      .dwattr $C$DW$284, DW_AT_data_member_location[DW_OP_plus_uconst 0x2]
    2817                      .dwattr $C$DW$284, DW_AT_accessibility(DW_ACCESS_public)
    2818              $C$DW$285       .dwtag  DW_TAG_member
    2819                      .dwattr $C$DW$285, DW_AT_type(*$C$DW$T$22)
    2820                      .dwattr $C$DW$285, DW_AT_name("OldElecTheta")
    2821                      .dwattr $C$DW$285, DW_AT_TI_symbol_name("_OldElecTheta")
    2822                      .dwattr $C$DW$285, DW_AT_data_member_location[DW_OP_plus_uconst 0x4]
    2823                      .dwattr $C$DW$285, DW_AT_accessibility(DW_ACCESS_public)
    2824              $C$DW$286       .dwtag  DW_TAG_member
    2825                      .dwattr $C$DW$286, DW_AT_type(*$C$DW$T$22)
    2826                      .dwattr $C$DW$286, DW_AT_name("Speed")
    2827                      .dwattr $C$DW$286, DW_AT_TI_symbol_name("_Speed")
    2828                      .dwattr $C$DW$286, DW_AT_data_member_location[DW_OP_plus_uconst 0x6]
    2829                      .dwattr $C$DW$286, DW_AT_accessibility(DW_ACCESS_public)
    2830              $C$DW$287       .dwtag  DW_TAG_member
    2831                      .dwattr $C$DW$287, DW_AT_type(*$C$DW$T$20)
    2832                      .dwattr $C$DW$287, DW_AT_name("BaseRpm")
    2833                      .dwattr $C$DW$287, DW_AT_TI_symbol_name("_BaseRpm")
    2834                      .dwattr $C$DW$287, DW_AT_data_member_location[DW_OP_plus_uconst 0x8]
    2835                      .dwattr $C$DW$287, DW_AT_accessibility(DW_ACCESS_public)
    2836              $C$DW$288       .dwtag  DW_TAG_member
    2837                      .dwattr $C$DW$288, DW_AT_type(*$C$DW$T$39)
TMS320C2000 Assembler PC v6.4.2 Thu Dec 14 13:37:55 2017

Tools Copyright (c) 1996-2015 Texas Instruments Incorporated
fsm_main.asm                                                         PAGE   55

    2838                      .dwattr $C$DW$288, DW_AT_name("K1")
    2839                      .dwattr $C$DW$288, DW_AT_TI_symbol_name("_K1")
    2840                      .dwattr $C$DW$288, DW_AT_data_member_location[DW_OP_plus_uconst 0xa]
    2841                      .dwattr $C$DW$288, DW_AT_accessibility(DW_ACCESS_public)
    2842              $C$DW$289       .dwtag  DW_TAG_member
    2843                      .dwattr $C$DW$289, DW_AT_type(*$C$DW$T$22)
    2844                      .dwattr $C$DW$289, DW_AT_name("K2")
    2845                      .dwattr $C$DW$289, DW_AT_TI_symbol_name("_K2")
    2846                      .dwattr $C$DW$289, DW_AT_data_member_location[DW_OP_plus_uconst 0xc]
    2847                      .dwattr $C$DW$289, DW_AT_accessibility(DW_ACCESS_public)
    2848              $C$DW$290       .dwtag  DW_TAG_member
    2849                      .dwattr $C$DW$290, DW_AT_type(*$C$DW$T$22)
    2850                      .dwattr $C$DW$290, DW_AT_name("K3")
    2851                      .dwattr $C$DW$290, DW_AT_TI_symbol_name("_K3")
    2852                      .dwattr $C$DW$290, DW_AT_data_member_location[DW_OP_plus_uconst 0xe]
    2853                      .dwattr $C$DW$290, DW_AT_accessibility(DW_ACCESS_public)
    2854              $C$DW$291       .dwtag  DW_TAG_member
    2855                      .dwattr $C$DW$291, DW_AT_type(*$C$DW$T$40)
    2856                      .dwattr $C$DW$291, DW_AT_name("SpeedRpm")
    2857                      .dwattr $C$DW$291, DW_AT_TI_symbol_name("_SpeedRpm")
    2858                      .dwattr $C$DW$291, DW_AT_data_member_location[DW_OP_plus_uconst 0x10]
    2859                      .dwattr $C$DW$291, DW_AT_accessibility(DW_ACCESS_public)
    2860              $C$DW$292       .dwtag  DW_TAG_member
    2861                      .dwattr $C$DW$292, DW_AT_type(*$C$DW$T$22)
    2862                      .dwattr $C$DW$292, DW_AT_name("Tmp")
    2863                      .dwattr $C$DW$292, DW_AT_TI_symbol_name("_Tmp")
    2864                      .dwattr $C$DW$292, DW_AT_data_member_location[DW_OP_plus_uconst 0x12]
    2865                      .dwattr $C$DW$292, DW_AT_accessibility(DW_ACCESS_public)
    2866                      .dwendtag $C$DW$T$41
    2867              
    2868              $C$DW$T$75      .dwtag  DW_TAG_typedef, DW_AT_name("SPEED_MEAS_QEP")
    2869                      .dwattr $C$DW$T$75, DW_AT_type(*$C$DW$T$41)
    2870                      .dwattr $C$DW$T$75, DW_AT_language(DW_LANG_C)
    2871              
    2872              $C$DW$T$42      .dwtag  DW_TAG_structure_type
    2873                      .dwattr $C$DW$T$42, DW_AT_byte_size(0x12)
    2874              $C$DW$293       .dwtag  DW_TAG_member
    2875                      .dwattr $C$DW$293, DW_AT_type(*$C$DW$T$19)
    2876                      .dwattr $C$DW$293, DW_AT_name("ElecTheta")
    2877                      .dwattr $C$DW$293, DW_AT_TI_symbol_name("_ElecTheta")
    2878                      .dwattr $C$DW$293, DW_AT_data_member_location[DW_OP_plus_uconst 0x0]
    2879                      .dwattr $C$DW$293, DW_AT_accessibility(DW_ACCESS_public)
    2880              $C$DW$294       .dwtag  DW_TAG_member
    2881                      .dwattr $C$DW$294, DW_AT_type(*$C$DW$T$19)
    2882                      .dwattr $C$DW$294, DW_AT_name("MechTheta")
    2883                      .dwattr $C$DW$294, DW_AT_TI_symbol_name("_MechTheta")
    2884                      .dwattr $C$DW$294, DW_AT_data_member_location[DW_OP_plus_uconst 0x2]
    2885                      .dwattr $C$DW$294, DW_AT_accessibility(DW_ACCESS_public)
    2886              $C$DW$295       .dwtag  DW_TAG_member
    2887                      .dwattr $C$DW$295, DW_AT_type(*$C$DW$T$34)
    2888                      .dwattr $C$DW$295, DW_AT_name("DirectionQep")
    2889                      .dwattr $C$DW$295, DW_AT_TI_symbol_name("_DirectionQep")
    2890                      .dwattr $C$DW$295, DW_AT_data_member_location[DW_OP_plus_uconst 0x4]
    2891                      .dwattr $C$DW$295, DW_AT_accessibility(DW_ACCESS_public)
    2892              $C$DW$296       .dwtag  DW_TAG_member
TMS320C2000 Assembler PC v6.4.2 Thu Dec 14 13:37:55 2017

Tools Copyright (c) 1996-2015 Texas Instruments Incorporated
fsm_main.asm                                                         PAGE   56

    2893                      .dwattr $C$DW$296, DW_AT_type(*$C$DW$T$34)
    2894                      .dwattr $C$DW$296, DW_AT_name("QepPeriod")
    2895                      .dwattr $C$DW$296, DW_AT_TI_symbol_name("_QepPeriod")
    2896                      .dwattr $C$DW$296, DW_AT_data_member_location[DW_OP_plus_uconst 0x5]
    2897                      .dwattr $C$DW$296, DW_AT_accessibility(DW_ACCESS_public)
    2898              $C$DW$297       .dwtag  DW_TAG_member
    2899                      .dwattr $C$DW$297, DW_AT_type(*$C$DW$T$20)
    2900                      .dwattr $C$DW$297, DW_AT_name("QepCountIndex")
    2901                      .dwattr $C$DW$297, DW_AT_TI_symbol_name("_QepCountIndex")
    2902                      .dwattr $C$DW$297, DW_AT_data_member_location[DW_OP_plus_uconst 0x6]
    2903                      .dwattr $C$DW$297, DW_AT_accessibility(DW_ACCESS_public)
    2904              $C$DW$298       .dwtag  DW_TAG_member
    2905                      .dwattr $C$DW$298, DW_AT_type(*$C$DW$T$40)
    2906                      .dwattr $C$DW$298, DW_AT_name("RawTheta")
    2907                      .dwattr $C$DW$298, DW_AT_TI_symbol_name("_RawTheta")
    2908                      .dwattr $C$DW$298, DW_AT_data_member_location[DW_OP_plus_uconst 0x8]
    2909                      .dwattr $C$DW$298, DW_AT_accessibility(DW_ACCESS_public)
    2910              $C$DW$299       .dwtag  DW_TAG_member
    2911                      .dwattr $C$DW$299, DW_AT_type(*$C$DW$T$19)
    2912                      .dwattr $C$DW$299, DW_AT_name("MechScaler")
    2913                      .dwattr $C$DW$299, DW_AT_TI_symbol_name("_MechScaler")
    2914                      .dwattr $C$DW$299, DW_AT_data_member_location[DW_OP_plus_uconst 0xa]
    2915                      .dwattr $C$DW$299, DW_AT_accessibility(DW_ACCESS_public)
    2916              $C$DW$300       .dwtag  DW_TAG_member
    2917                      .dwattr $C$DW$300, DW_AT_type(*$C$DW$T$34)
    2918                      .dwattr $C$DW$300, DW_AT_name("LineEncoder")
    2919                      .dwattr $C$DW$300, DW_AT_TI_symbol_name("_LineEncoder")
    2920                      .dwattr $C$DW$300, DW_AT_data_member_location[DW_OP_plus_uconst 0xc]
    2921                      .dwattr $C$DW$300, DW_AT_accessibility(DW_ACCESS_public)
    2922              $C$DW$301       .dwtag  DW_TAG_member
    2923                      .dwattr $C$DW$301, DW_AT_type(*$C$DW$T$34)
    2924                      .dwattr $C$DW$301, DW_AT_name("PolePairs")
    2925                      .dwattr $C$DW$301, DW_AT_TI_symbol_name("_PolePairs")
    2926                      .dwattr $C$DW$301, DW_AT_data_member_location[DW_OP_plus_uconst 0xd]
    2927                      .dwattr $C$DW$301, DW_AT_accessibility(DW_ACCESS_public)
    2928              $C$DW$302       .dwtag  DW_TAG_member
    2929                      .dwattr $C$DW$302, DW_AT_type(*$C$DW$T$40)
    2930                      .dwattr $C$DW$302, DW_AT_name("CalibratedAngle")
    2931                      .dwattr $C$DW$302, DW_AT_TI_symbol_name("_CalibratedAngle")
    2932                      .dwattr $C$DW$302, DW_AT_data_member_location[DW_OP_plus_uconst 0xe]
    2933                      .dwattr $C$DW$302, DW_AT_accessibility(DW_ACCESS_public)
    2934              $C$DW$303       .dwtag  DW_TAG_member
    2935                      .dwattr $C$DW$303, DW_AT_type(*$C$DW$T$34)
    2936                      .dwattr $C$DW$303, DW_AT_name("IndexSyncFlag")
    2937                      .dwattr $C$DW$303, DW_AT_TI_symbol_name("_IndexSyncFlag")
    2938                      .dwattr $C$DW$303, DW_AT_data_member_location[DW_OP_plus_uconst 0x10]
    2939                      .dwattr $C$DW$303, DW_AT_accessibility(DW_ACCESS_public)
    2940                      .dwendtag $C$DW$T$42
    2941              
    2942              $C$DW$T$76      .dwtag  DW_TAG_typedef, DW_AT_name("QEP")
    2943                      .dwattr $C$DW$T$76, DW_AT_type(*$C$DW$T$42)
    2944                      .dwattr $C$DW$T$76, DW_AT_language(DW_LANG_C)
    2945              
    2946              $C$DW$T$47      .dwtag  DW_TAG_structure_type
    2947                      .dwattr $C$DW$T$47, DW_AT_byte_size(0x07)
TMS320C2000 Assembler PC v6.4.2 Thu Dec 14 13:37:55 2017

Tools Copyright (c) 1996-2015 Texas Instruments Incorporated
fsm_main.asm                                                         PAGE   57

    2948              $C$DW$304       .dwtag  DW_TAG_member
    2949                      .dwattr $C$DW$304, DW_AT_type(*$C$DW$T$43)
    2950                      .dwattr $C$DW$304, DW_AT_name("stat_reg1")
    2951                      .dwattr $C$DW$304, DW_AT_TI_symbol_name("_stat_reg1")
    2952                      .dwattr $C$DW$304, DW_AT_data_member_location[DW_OP_plus_uconst 0x0]
    2953                      .dwattr $C$DW$304, DW_AT_accessibility(DW_ACCESS_public)
    2954              $C$DW$305       .dwtag  DW_TAG_member
    2955                      .dwattr $C$DW$305, DW_AT_type(*$C$DW$T$44)
    2956                      .dwattr $C$DW$305, DW_AT_name("stat_reg2")
    2957                      .dwattr $C$DW$305, DW_AT_TI_symbol_name("_stat_reg2")
    2958                      .dwattr $C$DW$305, DW_AT_data_member_location[DW_OP_plus_uconst 0x1]
    2959                      .dwattr $C$DW$305, DW_AT_accessibility(DW_ACCESS_public)
    2960              $C$DW$306       .dwtag  DW_TAG_member
    2961                      .dwattr $C$DW$306, DW_AT_type(*$C$DW$T$45)
    2962                      .dwattr $C$DW$306, DW_AT_name("cntrl_reg1")
    2963                      .dwattr $C$DW$306, DW_AT_TI_symbol_name("_cntrl_reg1")
    2964                      .dwattr $C$DW$306, DW_AT_data_member_location[DW_OP_plus_uconst 0x2]
    2965                      .dwattr $C$DW$306, DW_AT_accessibility(DW_ACCESS_public)
    2966              $C$DW$307       .dwtag  DW_TAG_member
    2967                      .dwattr $C$DW$307, DW_AT_type(*$C$DW$T$46)
    2968                      .dwattr $C$DW$307, DW_AT_name("cntrl_reg2")
    2969                      .dwattr $C$DW$307, DW_AT_TI_symbol_name("_cntrl_reg2")
    2970                      .dwattr $C$DW$307, DW_AT_data_member_location[DW_OP_plus_uconst 0x3]
    2971                      .dwattr $C$DW$307, DW_AT_accessibility(DW_ACCESS_public)
    2972              $C$DW$308       .dwtag  DW_TAG_member
    2973                      .dwattr $C$DW$308, DW_AT_type(*$C$DW$T$34)
    2974                      .dwattr $C$DW$308, DW_AT_name("readCntrl1")
    2975                      .dwattr $C$DW$308, DW_AT_TI_symbol_name("_readCntrl1")
    2976                      .dwattr $C$DW$308, DW_AT_data_member_location[DW_OP_plus_uconst 0x4]
    2977                      .dwattr $C$DW$308, DW_AT_accessibility(DW_ACCESS_public)
    2978              $C$DW$309       .dwtag  DW_TAG_member
    2979                      .dwattr $C$DW$309, DW_AT_type(*$C$DW$T$34)
    2980                      .dwattr $C$DW$309, DW_AT_name("readCntrl2")
    2981                      .dwattr $C$DW$309, DW_AT_TI_symbol_name("_readCntrl2")
    2982                      .dwattr $C$DW$309, DW_AT_data_member_location[DW_OP_plus_uconst 0x5]
    2983                      .dwattr $C$DW$309, DW_AT_accessibility(DW_ACCESS_public)
    2984              $C$DW$310       .dwtag  DW_TAG_member
    2985                      .dwattr $C$DW$310, DW_AT_type(*$C$DW$T$34)
    2986                      .dwattr $C$DW$310, DW_AT_name("DRV_fault")
    2987                      .dwattr $C$DW$310, DW_AT_TI_symbol_name("_DRV_fault")
    2988                      .dwattr $C$DW$310, DW_AT_data_member_location[DW_OP_plus_uconst 0x6]
    2989                      .dwattr $C$DW$310, DW_AT_accessibility(DW_ACCESS_public)
    2990                      .dwendtag $C$DW$T$47
    2991              
    2992              $C$DW$T$77      .dwtag  DW_TAG_typedef, DW_AT_name("DRV8301_Vars")
    2993                      .dwattr $C$DW$T$77, DW_AT_type(*$C$DW$T$47)
    2994                      .dwattr $C$DW$T$77, DW_AT_language(DW_LANG_C)
    2995              
    2996              $C$DW$T$59      .dwtag  DW_TAG_structure_type
    2997                      .dwattr $C$DW$T$59, DW_AT_byte_size(0x15)
    2998              $C$DW$311       .dwtag  DW_TAG_member
    2999                      .dwattr $C$DW$311, DW_AT_type(*$C$DW$T$34)
    3000                      .dwattr $C$DW$311, DW_AT_name("Rsvd0")
    3001                      .dwattr $C$DW$311, DW_AT_TI_symbol_name("_Rsvd0")
    3002                      .dwattr $C$DW$311, DW_AT_data_member_location[DW_OP_plus_uconst 0x0]
TMS320C2000 Assembler PC v6.4.2 Thu Dec 14 13:37:55 2017

Tools Copyright (c) 1996-2015 Texas Instruments Incorporated
fsm_main.asm                                                         PAGE   58

    3003                      .dwattr $C$DW$311, DW_AT_accessibility(DW_ACCESS_public)
    3004              $C$DW$312       .dwtag  DW_TAG_member
    3005                      .dwattr $C$DW$312, DW_AT_type(*$C$DW$T$48)
    3006                      .dwattr $C$DW$312, DW_AT_name("status1_wwd")
    3007                      .dwattr $C$DW$312, DW_AT_TI_symbol_name("_status1_wwd")
    3008                      .dwattr $C$DW$312, DW_AT_data_member_location[DW_OP_plus_uconst 0x1]
    3009                      .dwattr $C$DW$312, DW_AT_accessibility(DW_ACCESS_public)
    3010              $C$DW$313       .dwtag  DW_TAG_member
    3011                      .dwattr $C$DW$313, DW_AT_type(*$C$DW$T$49)
    3012                      .dwattr $C$DW$313, DW_AT_name("status2_ov_vds")
    3013                      .dwattr $C$DW$313, DW_AT_TI_symbol_name("_status2_ov_vds")
    3014                      .dwattr $C$DW$313, DW_AT_data_member_location[DW_OP_plus_uconst 0x2]
    3015                      .dwattr $C$DW$313, DW_AT_accessibility(DW_ACCESS_public)
    3016              $C$DW$314       .dwtag  DW_TAG_member
    3017                      .dwattr $C$DW$314, DW_AT_type(*$C$DW$T$50)
    3018                      .dwattr $C$DW$314, DW_AT_name("status3_IC")
    3019                      .dwattr $C$DW$314, DW_AT_TI_symbol_name("_status3_IC")
    3020                      .dwattr $C$DW$314, DW_AT_data_member_location[DW_OP_plus_uconst 0x3]
    3021                      .dwattr $C$DW$314, DW_AT_accessibility(DW_ACCESS_public)
    3022              $C$DW$315       .dwtag  DW_TAG_member
    3023                      .dwattr $C$DW$315, DW_AT_type(*$C$DW$T$51)
    3024                      .dwattr $C$DW$315, DW_AT_name("status4_gd_Vgs")
    3025                      .dwattr $C$DW$315, DW_AT_TI_symbol_name("_status4_gd_Vgs")
    3026                      .dwattr $C$DW$315, DW_AT_data_member_location[DW_OP_plus_uconst 0x4]
    3027                      .dwattr $C$DW$315, DW_AT_accessibility(DW_ACCESS_public)
    3028              $C$DW$316       .dwtag  DW_TAG_member
    3029                      .dwattr $C$DW$316, DW_AT_type(*$C$DW$T$52)
    3030                      .dwattr $C$DW$316, DW_AT_name("cntrl5_hs_gd")
    3031                      .dwattr $C$DW$316, DW_AT_TI_symbol_name("_cntrl5_hs_gd")
    3032                      .dwattr $C$DW$316, DW_AT_data_member_location[DW_OP_plus_uconst 0x5]
    3033                      .dwattr $C$DW$316, DW_AT_accessibility(DW_ACCESS_public)
    3034              $C$DW$317       .dwtag  DW_TAG_member
    3035                      .dwattr $C$DW$317, DW_AT_type(*$C$DW$T$53)
    3036                      .dwattr $C$DW$317, DW_AT_name("cntrl6_ls_gd")
    3037                      .dwattr $C$DW$317, DW_AT_TI_symbol_name("_cntrl6_ls_gd")
    3038                      .dwattr $C$DW$317, DW_AT_data_member_location[DW_OP_plus_uconst 0x6]
    3039                      .dwattr $C$DW$317, DW_AT_accessibility(DW_ACCESS_public)
    3040              $C$DW$318       .dwtag  DW_TAG_member
    3041                      .dwattr $C$DW$318, DW_AT_type(*$C$DW$T$54)
    3042                      .dwattr $C$DW$318, DW_AT_name("cntrl7_gd")
    3043                      .dwattr $C$DW$318, DW_AT_TI_symbol_name("_cntrl7_gd")
    3044                      .dwattr $C$DW$318, DW_AT_data_member_location[DW_OP_plus_uconst 0x7]
    3045                      .dwattr $C$DW$318, DW_AT_accessibility(DW_ACCESS_public)
    3046              $C$DW$319       .dwtag  DW_TAG_member
    3047                      .dwattr $C$DW$319, DW_AT_type(*$C$DW$T$34)
    3048                      .dwattr $C$DW$319, DW_AT_name("Rsvd8")
    3049                      .dwattr $C$DW$319, DW_AT_TI_symbol_name("_Rsvd8")
    3050                      .dwattr $C$DW$319, DW_AT_data_member_location[DW_OP_plus_uconst 0x8]
    3051                      .dwattr $C$DW$319, DW_AT_accessibility(DW_ACCESS_public)
    3052              $C$DW$320       .dwtag  DW_TAG_member
    3053                      .dwattr $C$DW$320, DW_AT_type(*$C$DW$T$55)
    3054                      .dwattr $C$DW$320, DW_AT_name("cntrl9_IC_ops")
    3055                      .dwattr $C$DW$320, DW_AT_TI_symbol_name("_cntrl9_IC_ops")
    3056                      .dwattr $C$DW$320, DW_AT_data_member_location[DW_OP_plus_uconst 0x9]
    3057                      .dwattr $C$DW$320, DW_AT_accessibility(DW_ACCESS_public)
TMS320C2000 Assembler PC v6.4.2 Thu Dec 14 13:37:55 2017

Tools Copyright (c) 1996-2015 Texas Instruments Incorporated
fsm_main.asm                                                         PAGE   59

    3058              $C$DW$321       .dwtag  DW_TAG_member
    3059                      .dwattr $C$DW$321, DW_AT_type(*$C$DW$T$56)
    3060                      .dwattr $C$DW$321, DW_AT_name("cntrlA_shunt_amp")
    3061                      .dwattr $C$DW$321, DW_AT_TI_symbol_name("_cntrlA_shunt_amp")
    3062                      .dwattr $C$DW$321, DW_AT_data_member_location[DW_OP_plus_uconst 0xa]
    3063                      .dwattr $C$DW$321, DW_AT_accessibility(DW_ACCESS_public)
    3064              $C$DW$322       .dwtag  DW_TAG_member
    3065                      .dwattr $C$DW$322, DW_AT_type(*$C$DW$T$57)
    3066                      .dwattr $C$DW$322, DW_AT_name("cntrlB_Vreg")
    3067                      .dwattr $C$DW$322, DW_AT_TI_symbol_name("_cntrlB_Vreg")
    3068                      .dwattr $C$DW$322, DW_AT_data_member_location[DW_OP_plus_uconst 0xb]
    3069                      .dwattr $C$DW$322, DW_AT_accessibility(DW_ACCESS_public)
    3070              $C$DW$323       .dwtag  DW_TAG_member
    3071                      .dwattr $C$DW$323, DW_AT_type(*$C$DW$T$58)
    3072                      .dwattr $C$DW$323, DW_AT_name("cntrlC_Vds_SNS")
    3073                      .dwattr $C$DW$323, DW_AT_TI_symbol_name("_cntrlC_Vds_SNS")
    3074                      .dwattr $C$DW$323, DW_AT_data_member_location[DW_OP_plus_uconst 0xc]
    3075                      .dwattr $C$DW$323, DW_AT_accessibility(DW_ACCESS_public)
    3076              $C$DW$324       .dwtag  DW_TAG_member
    3077                      .dwattr $C$DW$324, DW_AT_type(*$C$DW$T$34)
    3078                      .dwattr $C$DW$324, DW_AT_name("readCntrl5")
    3079                      .dwattr $C$DW$324, DW_AT_TI_symbol_name("_readCntrl5")
    3080                      .dwattr $C$DW$324, DW_AT_data_member_location[DW_OP_plus_uconst 0xd]
    3081                      .dwattr $C$DW$324, DW_AT_accessibility(DW_ACCESS_public)
    3082              $C$DW$325       .dwtag  DW_TAG_member
    3083                      .dwattr $C$DW$325, DW_AT_type(*$C$DW$T$34)
    3084                      .dwattr $C$DW$325, DW_AT_name("readCntrl6")
    3085                      .dwattr $C$DW$325, DW_AT_TI_symbol_name("_readCntrl6")
    3086                      .dwattr $C$DW$325, DW_AT_data_member_location[DW_OP_plus_uconst 0xe]
    3087                      .dwattr $C$DW$325, DW_AT_accessibility(DW_ACCESS_public)
    3088              $C$DW$326       .dwtag  DW_TAG_member
    3089                      .dwattr $C$DW$326, DW_AT_type(*$C$DW$T$34)
    3090                      .dwattr $C$DW$326, DW_AT_name("readCntrl7")
    3091                      .dwattr $C$DW$326, DW_AT_TI_symbol_name("_readCntrl7")
    3092                      .dwattr $C$DW$326, DW_AT_data_member_location[DW_OP_plus_uconst 0xf]
    3093                      .dwattr $C$DW$326, DW_AT_accessibility(DW_ACCESS_public)
    3094              $C$DW$327       .dwtag  DW_TAG_member
    3095                      .dwattr $C$DW$327, DW_AT_type(*$C$DW$T$34)
    3096                      .dwattr $C$DW$327, DW_AT_name("readCntrl9")
    3097                      .dwattr $C$DW$327, DW_AT_TI_symbol_name("_readCntrl9")
    3098                      .dwattr $C$DW$327, DW_AT_data_member_location[DW_OP_plus_uconst 0x10]
    3099                      .dwattr $C$DW$327, DW_AT_accessibility(DW_ACCESS_public)
    3100              $C$DW$328       .dwtag  DW_TAG_member
    3101                      .dwattr $C$DW$328, DW_AT_type(*$C$DW$T$34)
    3102                      .dwattr $C$DW$328, DW_AT_name("readCntrlA")
    3103                      .dwattr $C$DW$328, DW_AT_TI_symbol_name("_readCntrlA")
    3104                      .dwattr $C$DW$328, DW_AT_data_member_location[DW_OP_plus_uconst 0x11]
    3105                      .dwattr $C$DW$328, DW_AT_accessibility(DW_ACCESS_public)
    3106              $C$DW$329       .dwtag  DW_TAG_member
    3107                      .dwattr $C$DW$329, DW_AT_type(*$C$DW$T$34)
    3108                      .dwattr $C$DW$329, DW_AT_name("readCntrlB")
    3109                      .dwattr $C$DW$329, DW_AT_TI_symbol_name("_readCntrlB")
    3110                      .dwattr $C$DW$329, DW_AT_data_member_location[DW_OP_plus_uconst 0x12]
    3111                      .dwattr $C$DW$329, DW_AT_accessibility(DW_ACCESS_public)
    3112              $C$DW$330       .dwtag  DW_TAG_member
TMS320C2000 Assembler PC v6.4.2 Thu Dec 14 13:37:55 2017

Tools Copyright (c) 1996-2015 Texas Instruments Incorporated
fsm_main.asm                                                         PAGE   60

    3113                      .dwattr $C$DW$330, DW_AT_type(*$C$DW$T$34)
    3114                      .dwattr $C$DW$330, DW_AT_name("readCntrlC")
    3115                      .dwattr $C$DW$330, DW_AT_TI_symbol_name("_readCntrlC")
    3116                      .dwattr $C$DW$330, DW_AT_data_member_location[DW_OP_plus_uconst 0x13]
    3117                      .dwattr $C$DW$330, DW_AT_accessibility(DW_ACCESS_public)
    3118              $C$DW$331       .dwtag  DW_TAG_member
    3119                      .dwattr $C$DW$331, DW_AT_type(*$C$DW$T$34)
    3120                      .dwattr $C$DW$331, DW_AT_name("DRV_fault")
    3121                      .dwattr $C$DW$331, DW_AT_TI_symbol_name("_DRV_fault")
    3122                      .dwattr $C$DW$331, DW_AT_data_member_location[DW_OP_plus_uconst 0x14]
    3123                      .dwattr $C$DW$331, DW_AT_accessibility(DW_ACCESS_public)
    3124                      .dwendtag $C$DW$T$59
    3125              
    3126              $C$DW$T$78      .dwtag  DW_TAG_typedef, DW_AT_name("DRV8305_Vars")
    3127                      .dwattr $C$DW$T$78, DW_AT_type(*$C$DW$T$59)
    3128                      .dwattr $C$DW$T$78, DW_AT_language(DW_LANG_C)
    3129              
    3130              $C$DW$T$79      .dwtag  DW_TAG_structure_type
    3131                      .dwattr $C$DW$T$79, DW_AT_byte_size(0x150)
    3132              $C$DW$332       .dwtag  DW_TAG_member
    3133                      .dwattr $C$DW$332, DW_AT_type(*$C$DW$T$61)
    3134                      .dwattr $C$DW$332, DW_AT_name("PwmARegs")
    3135                      .dwattr $C$DW$332, DW_AT_TI_symbol_name("_PwmARegs")
    3136                      .dwattr $C$DW$332, DW_AT_data_member_location[DW_OP_plus_uconst 0x0]
    3137                      .dwattr $C$DW$332, DW_AT_accessibility(DW_ACCESS_public)
    3138              $C$DW$333       .dwtag  DW_TAG_member
    3139                      .dwattr $C$DW$333, DW_AT_type(*$C$DW$T$61)
    3140                      .dwattr $C$DW$333, DW_AT_name("PwmBRegs")
    3141                      .dwattr $C$DW$333, DW_AT_TI_symbol_name("_PwmBRegs")
    3142                      .dwattr $C$DW$333, DW_AT_data_member_location[DW_OP_plus_uconst 0x2]
    3143                      .dwattr $C$DW$333, DW_AT_accessibility(DW_ACCESS_public)
    3144              $C$DW$334       .dwtag  DW_TAG_member
    3145                      .dwattr $C$DW$334, DW_AT_type(*$C$DW$T$61)
    3146                      .dwattr $C$DW$334, DW_AT_name("PwmCRegs")
    3147                      .dwattr $C$DW$334, DW_AT_TI_symbol_name("_PwmCRegs")
    3148                      .dwattr $C$DW$334, DW_AT_data_member_location[DW_OP_plus_uconst 0x4]
    3149                      .dwattr $C$DW$334, DW_AT_accessibility(DW_ACCESS_public)
    3150              $C$DW$335       .dwtag  DW_TAG_member
    3151                      .dwattr $C$DW$335, DW_AT_type(*$C$DW$T$63)
    3152                      .dwattr $C$DW$335, DW_AT_name("QepRegs")
    3153                      .dwattr $C$DW$335, DW_AT_TI_symbol_name("_QepRegs")
    3154                      .dwattr $C$DW$335, DW_AT_data_member_location[DW_OP_plus_uconst 0x6]
    3155                      .dwattr $C$DW$335, DW_AT_accessibility(DW_ACCESS_public)
    3156              $C$DW$336       .dwtag  DW_TAG_member
    3157                      .dwattr $C$DW$336, DW_AT_type(*$C$DW$T$65)
    3158                      .dwattr $C$DW$336, DW_AT_name("SpiRegs")
    3159                      .dwattr $C$DW$336, DW_AT_TI_symbol_name("_SpiRegs")
    3160                      .dwattr $C$DW$336, DW_AT_data_member_location[DW_OP_plus_uconst 0x8]
    3161                      .dwattr $C$DW$336, DW_AT_accessibility(DW_ACCESS_public)
    3162              $C$DW$337       .dwtag  DW_TAG_member
    3163                      .dwattr $C$DW$337, DW_AT_type(*$C$DW$T$34)
    3164                      .dwattr $C$DW$337, DW_AT_name("drvScsPin")
    3165                      .dwattr $C$DW$337, DW_AT_TI_symbol_name("_drvScsPin")
    3166                      .dwattr $C$DW$337, DW_AT_data_member_location[DW_OP_plus_uconst 0xa]
    3167                      .dwattr $C$DW$337, DW_AT_accessibility(DW_ACCESS_public)
TMS320C2000 Assembler PC v6.4.2 Thu Dec 14 13:37:55 2017

Tools Copyright (c) 1996-2015 Texas Instruments Incorporated
fsm_main.asm                                                         PAGE   61

    3168              $C$DW$338       .dwtag  DW_TAG_member
    3169                      .dwattr $C$DW$338, DW_AT_type(*$C$DW$T$22)
    3170                      .dwattr $C$DW$338, DW_AT_name("offset_shntA")
    3171                      .dwattr $C$DW$338, DW_AT_TI_symbol_name("_offset_shntA")
    3172                      .dwattr $C$DW$338, DW_AT_data_member_location[DW_OP_plus_uconst 0xc]
    3173                      .dwattr $C$DW$338, DW_AT_accessibility(DW_ACCESS_public)
    3174              $C$DW$339       .dwtag  DW_TAG_member
    3175                      .dwattr $C$DW$339, DW_AT_type(*$C$DW$T$22)
    3176                      .dwattr $C$DW$339, DW_AT_name("offset_shntB")
    3177                      .dwattr $C$DW$339, DW_AT_TI_symbol_name("_offset_shntB")
    3178                      .dwattr $C$DW$339, DW_AT_data_member_location[DW_OP_plus_uconst 0xe]
    3179                      .dwattr $C$DW$339, DW_AT_accessibility(DW_ACCESS_public)
    3180              $C$DW$340       .dwtag  DW_TAG_member
