TMS320C2000 Assembler PC v6.4.2 Thu Dec 14 13:37:58 2017

Tools Copyright (c) 1996-2015 Texas Instruments Incorporated
hal_led.asm                                                          PAGE    1

       1              ;***************************************************************
       2              ;* TMS320C2000 C/C++ Codegen                         PC v6.4.2 *
       3              ;* Date/Time created: Thu Dec 14 13:37:58 2017                 *
       4              ;***************************************************************
       5                      .compiler_opts --cla_support=cla0 --float_support=fpu32 --hll_source=on --mem_model:code=flat --mem_m
       6        0002  FP      .set    XAR2
       7              
       8              $C$DW$CU        .dwtag  DW_TAG_compile_unit
       9                      .dwattr $C$DW$CU, DW_AT_name("../Source/App/hal_led.c")
      10                      .dwattr $C$DW$CU, DW_AT_producer("TI TMS320C2000 C/C++ Codegen PC v6.4.2 Copyright (c) 1996-2015 Texa
      11                      .dwattr $C$DW$CU, DW_AT_TI_version(0x01)
      12                      .dwattr $C$DW$CU, DW_AT_comp_dir("U:\02_MSE\MT\07_Software\CCS_workspace\DiffDrive_v0.93\F2837x_FLASH
      13              
      14              $C$DW$1 .dwtag  DW_TAG_subprogram, DW_AT_name("GPIO_SetupPinOptions")
      15                      .dwattr $C$DW$1, DW_AT_TI_symbol_name("_GPIO_SetupPinOptions")
      16                      .dwattr $C$DW$1, DW_AT_declaration
      17                      .dwattr $C$DW$1, DW_AT_external
      18              $C$DW$2 .dwtag  DW_TAG_formal_parameter
      19                      .dwattr $C$DW$2, DW_AT_type(*$C$DW$T$19)
      20              $C$DW$3 .dwtag  DW_TAG_formal_parameter
      21                      .dwattr $C$DW$3, DW_AT_type(*$C$DW$T$19)
      22              $C$DW$4 .dwtag  DW_TAG_formal_parameter
      23                      .dwattr $C$DW$4, DW_AT_type(*$C$DW$T$19)
      24                      .dwendtag $C$DW$1
      25              
      26              
      27              $C$DW$5 .dwtag  DW_TAG_subprogram, DW_AT_name("GPIO_SetupPinMux")
      28                      .dwattr $C$DW$5, DW_AT_TI_symbol_name("_GPIO_SetupPinMux")
      29                      .dwattr $C$DW$5, DW_AT_declaration
      30                      .dwattr $C$DW$5, DW_AT_external
      31              $C$DW$6 .dwtag  DW_TAG_formal_parameter
      32                      .dwattr $C$DW$6, DW_AT_type(*$C$DW$T$19)
      33              $C$DW$7 .dwtag  DW_TAG_formal_parameter
      34                      .dwattr $C$DW$7, DW_AT_type(*$C$DW$T$19)
      35              $C$DW$8 .dwtag  DW_TAG_formal_parameter
      36                      .dwattr $C$DW$8, DW_AT_type(*$C$DW$T$19)
      37                      .dwendtag $C$DW$5
      38              
      39              
      40              $C$DW$9 .dwtag  DW_TAG_subprogram, DW_AT_name("GPIO_WritePin")
      41                      .dwattr $C$DW$9, DW_AT_TI_symbol_name("_GPIO_WritePin")
      42                      .dwattr $C$DW$9, DW_AT_declaration
      43                      .dwattr $C$DW$9, DW_AT_external
      44              $C$DW$10        .dwtag  DW_TAG_formal_parameter
      45                      .dwattr $C$DW$10, DW_AT_type(*$C$DW$T$19)
      46              $C$DW$11        .dwtag  DW_TAG_formal_parameter
      47                      .dwattr $C$DW$11, DW_AT_type(*$C$DW$T$19)
      48                      .dwendtag $C$DW$9
      49              
      50              ;       C:\ti\ccsv6\tools\compiler\ti-cgt-c2000_6.4.2\bin\ac2000.exe -@C:\\Users\\ficm\\AppData\\Local\\Temp\
      51 00000000               .sect   ".text"
      52                      .clink
      53                      .global _hal_led_init
      54              
      55              $C$DW$12        .dwtag  DW_TAG_subprogram, DW_AT_name("hal_led_init")
TMS320C2000 Assembler PC v6.4.2 Thu Dec 14 13:37:58 2017

Tools Copyright (c) 1996-2015 Texas Instruments Incorporated
hal_led.asm                                                          PAGE    2

      56                      .dwattr $C$DW$12, DW_AT_low_pc(_hal_led_init)
      57                      .dwattr $C$DW$12, DW_AT_high_pc(0x00)
      58                      .dwattr $C$DW$12, DW_AT_TI_symbol_name("_hal_led_init")
      59                      .dwattr $C$DW$12, DW_AT_external
      60                      .dwattr $C$DW$12, DW_AT_TI_begin_file("../Source/App/hal_led.c")
      61                      .dwattr $C$DW$12, DW_AT_TI_begin_line(0x12)
      62                      .dwattr $C$DW$12, DW_AT_TI_begin_column(0x06)
      63                      .dwattr $C$DW$12, DW_AT_TI_max_frame_size(-2)
      64                      .dwpsn  file "../Source/App/hal_led.c",line 19,column 1,is_stmt,address _hal_led_init,isa 0
      65              
      66                      .dwfde $C$DW$CIE, _hal_led_init
      67              
      68              ;***************************************************************
      69              ;* FNAME: _hal_led_init                 FR SIZE:   0           *
      70              ;*                                                             *
      71              ;* FUNCTION ENVIRONMENT                                        *
      72              ;*                                                             *
      73              ;* FUNCTION PROPERTIES                                         *
      74              ;*                            0 Parameter,  0 Auto,  0 SOE     *
      75              ;***************************************************************
      76              
      77 00000000       _hal_led_init:
      78                      .dwcfi  cfa_offset, -2
      79                      .dwcfi  save_reg_to_mem, 26, 0
      80                      .dwpsn  file "../Source/App/hal_led.c",line 20,column 2,is_stmt,isa 0
      81 00000000 9A40          MOVB      AL,#64                ; [CPU_] |20| 
      82 00000001 D400          MOVB      XAR4,#0               ; [CPU_] |20| 
      83 00000002 9B00          MOVB      AH,#0                 ; [CPU_] |20| 
      84              $C$DW$13        .dwtag  DW_TAG_TI_branch
      85                      .dwattr $C$DW$13, DW_AT_low_pc(0x00)
      86                      .dwattr $C$DW$13, DW_AT_name("_GPIO_SetupPinMux")
      87                      .dwattr $C$DW$13, DW_AT_TI_call
      88 00000003 7640!         LCR       #_GPIO_SetupPinMux    ; [CPU_] |20| 
         00000004 0000 
      89                      ; call occurs [#_GPIO_SetupPinMux] ; [] |20| 
      90                      .dwpsn  file "../Source/App/hal_led.c",line 21,column 2,is_stmt,isa 0
      91 00000005 9A40          MOVB      AL,#64                ; [CPU_] |21| 
      92 00000006 9B01          MOVB      AH,#1                 ; [CPU_] |21| 
      93 00000007 D400          MOVB      XAR4,#0               ; [CPU_] |21| 
      94              $C$DW$14        .dwtag  DW_TAG_TI_branch
      95                      .dwattr $C$DW$14, DW_AT_low_pc(0x00)
      96                      .dwattr $C$DW$14, DW_AT_name("_GPIO_SetupPinOptions")
      97                      .dwattr $C$DW$14, DW_AT_TI_call
      98 00000008 7640!         LCR       #_GPIO_SetupPinOptions ; [CPU_] |21| 
         00000009 0000 
      99                      ; call occurs [#_GPIO_SetupPinOptions] ; [] |21| 
     100                      .dwpsn  file "../Source/App/hal_led.c",line 22,column 2,is_stmt,isa 0
     101 0000000a 9A47          MOVB      AL,#71                ; [CPU_] |22| 
     102 0000000b D400          MOVB      XAR4,#0               ; [CPU_] |22| 
     103 0000000c 9B00          MOVB      AH,#0                 ; [CPU_] |22| 
     104              $C$DW$15        .dwtag  DW_TAG_TI_branch
     105                      .dwattr $C$DW$15, DW_AT_low_pc(0x00)
     106                      .dwattr $C$DW$15, DW_AT_name("_GPIO_SetupPinMux")
     107                      .dwattr $C$DW$15, DW_AT_TI_call
     108 0000000d 7640!         LCR       #_GPIO_SetupPinMux    ; [CPU_] |22| 
TMS320C2000 Assembler PC v6.4.2 Thu Dec 14 13:37:58 2017

Tools Copyright (c) 1996-2015 Texas Instruments Incorporated
hal_led.asm                                                          PAGE    3

         0000000e 0000 
     109                      ; call occurs [#_GPIO_SetupPinMux] ; [] |22| 
     110                      .dwpsn  file "../Source/App/hal_led.c",line 23,column 2,is_stmt,isa 0
     111 0000000f 9A47          MOVB      AL,#71                ; [CPU_] |23| 
     112 00000010 9B01          MOVB      AH,#1                 ; [CPU_] |23| 
     113 00000011 D400          MOVB      XAR4,#0               ; [CPU_] |23| 
     114              $C$DW$16        .dwtag  DW_TAG_TI_branch
     115                      .dwattr $C$DW$16, DW_AT_low_pc(0x00)
     116                      .dwattr $C$DW$16, DW_AT_name("_GPIO_SetupPinOptions")
     117                      .dwattr $C$DW$16, DW_AT_TI_call
     118 00000012 7640!         LCR       #_GPIO_SetupPinOptions ; [CPU_] |23| 
         00000013 0000 
     119                      ; call occurs [#_GPIO_SetupPinOptions] ; [] |23| 
     120                      .dwpsn  file "../Source/App/hal_led.c",line 24,column 1,is_stmt,isa 0
     121              $C$DW$17        .dwtag  DW_TAG_TI_branch
     122                      .dwattr $C$DW$17, DW_AT_low_pc(0x00)
     123                      .dwattr $C$DW$17, DW_AT_TI_return
     124 00000014 0006          LRETR     ; [CPU_] 
     125                      ; return occurs ; [] 
     126                      .dwattr $C$DW$12, DW_AT_TI_end_file("../Source/App/hal_led.c")
     127                      .dwattr $C$DW$12, DW_AT_TI_end_line(0x18)
     128                      .dwattr $C$DW$12, DW_AT_TI_end_column(0x01)
     129                      .dwendentry
     130                      .dwendtag $C$DW$12
     131              
     132 00000015               .sect   ".text"
     133                      .clink
     134                      .global _hal_led_off_all
     135              
     136              $C$DW$18        .dwtag  DW_TAG_subprogram, DW_AT_name("hal_led_off_all")
     137                      .dwattr $C$DW$18, DW_AT_low_pc(_hal_led_off_all)
     138                      .dwattr $C$DW$18, DW_AT_high_pc(0x00)
     139                      .dwattr $C$DW$18, DW_AT_TI_symbol_name("_hal_led_off_all")
     140                      .dwattr $C$DW$18, DW_AT_external
     141                      .dwattr $C$DW$18, DW_AT_TI_begin_file("../Source/App/hal_led.c")
     142                      .dwattr $C$DW$18, DW_AT_TI_begin_line(0x1b)
     143                      .dwattr $C$DW$18, DW_AT_TI_begin_column(0x06)
     144                      .dwattr $C$DW$18, DW_AT_TI_max_frame_size(-2)
     145                      .dwpsn  file "../Source/App/hal_led.c",line 28,column 1,is_stmt,address _hal_led_off_all,isa 0
     146              
     147                      .dwfde $C$DW$CIE, _hal_led_off_all
     148              
     149              ;***************************************************************
     150              ;* FNAME: _hal_led_off_all              FR SIZE:   0           *
     151              ;*                                                             *
     152              ;* FUNCTION ENVIRONMENT                                        *
     153              ;*                                                             *
     154              ;* FUNCTION PROPERTIES                                         *
     155              ;*                            0 Parameter,  0 Auto,  0 SOE     *
     156              ;***************************************************************
     157              
     158 00000015       _hal_led_off_all:
     159                      .dwcfi  cfa_offset, -2
     160                      .dwcfi  save_reg_to_mem, 26, 0
     161                      .dwpsn  file "../Source/App/hal_led.c",line 29,column 2,is_stmt,isa 0
TMS320C2000 Assembler PC v6.4.2 Thu Dec 14 13:37:58 2017

Tools Copyright (c) 1996-2015 Texas Instruments Incorporated
hal_led.asm                                                          PAGE    4

     162 00000015 9A40          MOVB      AL,#64                ; [CPU_] |29| 
     163 00000016 9B00          MOVB      AH,#0                 ; [CPU_] |29| 
     164              $C$DW$19        .dwtag  DW_TAG_TI_branch
     165                      .dwattr $C$DW$19, DW_AT_low_pc(0x00)
     166                      .dwattr $C$DW$19, DW_AT_name("_GPIO_WritePin")
     167                      .dwattr $C$DW$19, DW_AT_TI_call
     168 00000017 7640!         LCR       #_GPIO_WritePin       ; [CPU_] |29| 
         00000018 0000 
     169                      ; call occurs [#_GPIO_WritePin] ; [] |29| 
     170                      .dwpsn  file "../Source/App/hal_led.c",line 30,column 2,is_stmt,isa 0
     171 00000019 9A47          MOVB      AL,#71                ; [CPU_] |30| 
     172 0000001a 9B00          MOVB      AH,#0                 ; [CPU_] |30| 
     173              $C$DW$20        .dwtag  DW_TAG_TI_branch
     174                      .dwattr $C$DW$20, DW_AT_low_pc(0x00)
     175                      .dwattr $C$DW$20, DW_AT_name("_GPIO_WritePin")
     176                      .dwattr $C$DW$20, DW_AT_TI_call
     177 0000001b 7640!         LCR       #_GPIO_WritePin       ; [CPU_] |30| 
         0000001c 0000 
     178                      ; call occurs [#_GPIO_WritePin] ; [] |30| 
     179                      .dwpsn  file "../Source/App/hal_led.c",line 31,column 1,is_stmt,isa 0
     180              $C$DW$21        .dwtag  DW_TAG_TI_branch
     181                      .dwattr $C$DW$21, DW_AT_low_pc(0x00)
     182                      .dwattr $C$DW$21, DW_AT_TI_return
     183 0000001d 0006          LRETR     ; [CPU_] 
     184                      ; return occurs ; [] 
     185                      .dwattr $C$DW$18, DW_AT_TI_end_file("../Source/App/hal_led.c")
     186                      .dwattr $C$DW$18, DW_AT_TI_end_line(0x1f)
     187                      .dwattr $C$DW$18, DW_AT_TI_end_column(0x01)
     188                      .dwendentry
     189                      .dwendtag $C$DW$18
     190              
     191 0000001e               .sect   ".text"
     192                      .clink
     193                      .global _hal_led_off
     194              
     195              $C$DW$22        .dwtag  DW_TAG_subprogram, DW_AT_name("hal_led_off")
     196                      .dwattr $C$DW$22, DW_AT_low_pc(_hal_led_off)
     197                      .dwattr $C$DW$22, DW_AT_high_pc(0x00)
     198                      .dwattr $C$DW$22, DW_AT_TI_symbol_name("_hal_led_off")
     199                      .dwattr $C$DW$22, DW_AT_external
     200                      .dwattr $C$DW$22, DW_AT_TI_begin_file("../Source/App/hal_led.c")
     201                      .dwattr $C$DW$22, DW_AT_TI_begin_line(0x22)
     202                      .dwattr $C$DW$22, DW_AT_TI_begin_column(0x06)
     203                      .dwattr $C$DW$22, DW_AT_TI_max_frame_size(-4)
     204                      .dwpsn  file "../Source/App/hal_led.c",line 35,column 1,is_stmt,address _hal_led_off,isa 0
     205              
     206                      .dwfde $C$DW$CIE, _hal_led_off
     207              $C$DW$23        .dwtag  DW_TAG_formal_parameter, DW_AT_name("led")
     208                      .dwattr $C$DW$23, DW_AT_TI_symbol_name("_led")
     209                      .dwattr $C$DW$23, DW_AT_type(*$C$DW$T$19)
     210                      .dwattr $C$DW$23, DW_AT_location[DW_OP_reg0]
     211              
     212              ;***************************************************************
     213              ;* FNAME: _hal_led_off                  FR SIZE:   2           *
     214              ;*                                                             *
TMS320C2000 Assembler PC v6.4.2 Thu Dec 14 13:37:58 2017

Tools Copyright (c) 1996-2015 Texas Instruments Incorporated
hal_led.asm                                                          PAGE    5

     215              ;* FUNCTION ENVIRONMENT                                        *
     216              ;*                                                             *
     217              ;* FUNCTION PROPERTIES                                         *
     218              ;*                            0 Parameter,  1 Auto,  0 SOE     *
     219              ;***************************************************************
     220              
     221 0000001e       _hal_led_off:
     222                      .dwcfi  cfa_offset, -2
     223                      .dwcfi  save_reg_to_mem, 26, 0
     224 0000001e FE02          ADDB      SP,#2                 ; [CPU_U] 
     225                      .dwcfi  cfa_offset, -4
     226              $C$DW$24        .dwtag  DW_TAG_variable, DW_AT_name("led")
     227                      .dwattr $C$DW$24, DW_AT_TI_symbol_name("_led")
     228                      .dwattr $C$DW$24, DW_AT_type(*$C$DW$T$19)
     229                      .dwattr $C$DW$24, DW_AT_location[DW_OP_breg20 -1]
     230 0000001f 9641          MOV       *-SP[1],AL            ; [CPU_] |35| 
     231                      .dwpsn  file "../Source/App/hal_led.c",line 36,column 5,is_stmt,isa 0
     232 00000020 9B00          MOVB      AH,#0                 ; [CPU_] |36| 
     233              $C$DW$25        .dwtag  DW_TAG_TI_branch
     234                      .dwattr $C$DW$25, DW_AT_low_pc(0x00)
     235                      .dwattr $C$DW$25, DW_AT_name("_GPIO_WritePin")
     236                      .dwattr $C$DW$25, DW_AT_TI_call
     237 00000021 7640!         LCR       #_GPIO_WritePin       ; [CPU_] |36| 
         00000022 0000 
     238                      ; call occurs [#_GPIO_WritePin] ; [] |36| 
     239                      .dwpsn  file "../Source/App/hal_led.c",line 37,column 1,is_stmt,isa 0
     240 00000023 FE82          SUBB      SP,#2                 ; [CPU_U] 
     241                      .dwcfi  cfa_offset, -2
     242              $C$DW$26        .dwtag  DW_TAG_TI_branch
     243                      .dwattr $C$DW$26, DW_AT_low_pc(0x00)
     244                      .dwattr $C$DW$26, DW_AT_TI_return
     245 00000024 0006          LRETR     ; [CPU_] 
     246                      ; return occurs ; [] 
     247                      .dwattr $C$DW$22, DW_AT_TI_end_file("../Source/App/hal_led.c")
     248                      .dwattr $C$DW$22, DW_AT_TI_end_line(0x25)
     249                      .dwattr $C$DW$22, DW_AT_TI_end_column(0x01)
     250                      .dwendentry
     251                      .dwendtag $C$DW$22
     252              
     253 00000025               .sect   ".text"
     254                      .clink
     255                      .global _hal_led_on_all
     256              
     257              $C$DW$27        .dwtag  DW_TAG_subprogram, DW_AT_name("hal_led_on_all")
     258                      .dwattr $C$DW$27, DW_AT_low_pc(_hal_led_on_all)
     259                      .dwattr $C$DW$27, DW_AT_high_pc(0x00)
     260                      .dwattr $C$DW$27, DW_AT_TI_symbol_name("_hal_led_on_all")
     261                      .dwattr $C$DW$27, DW_AT_external
     262                      .dwattr $C$DW$27, DW_AT_TI_begin_file("../Source/App/hal_led.c")
     263                      .dwattr $C$DW$27, DW_AT_TI_begin_line(0x28)
     264                      .dwattr $C$DW$27, DW_AT_TI_begin_column(0x06)
     265                      .dwattr $C$DW$27, DW_AT_TI_max_frame_size(-2)
     266                      .dwpsn  file "../Source/App/hal_led.c",line 41,column 1,is_stmt,address _hal_led_on_all,isa 0
     267              
     268                      .dwfde $C$DW$CIE, _hal_led_on_all
TMS320C2000 Assembler PC v6.4.2 Thu Dec 14 13:37:58 2017

Tools Copyright (c) 1996-2015 Texas Instruments Incorporated
hal_led.asm                                                          PAGE    6

     269              
     270              ;***************************************************************
     271              ;* FNAME: _hal_led_on_all               FR SIZE:   0           *
     272              ;*                                                             *
     273              ;* FUNCTION ENVIRONMENT                                        *
     274              ;*                                                             *
     275              ;* FUNCTION PROPERTIES                                         *
     276              ;*                            0 Parameter,  0 Auto,  0 SOE     *
     277              ;***************************************************************
     278              
     279 00000025       _hal_led_on_all:
     280                      .dwcfi  cfa_offset, -2
     281                      .dwcfi  save_reg_to_mem, 26, 0
     282                      .dwpsn  file "../Source/App/hal_led.c",line 42,column 2,is_stmt,isa 0
     283 00000025 9A40          MOVB      AL,#64                ; [CPU_] |42| 
     284 00000026 9B01          MOVB      AH,#1                 ; [CPU_] |42| 
     285              $C$DW$28        .dwtag  DW_TAG_TI_branch
     286                      .dwattr $C$DW$28, DW_AT_low_pc(0x00)
     287                      .dwattr $C$DW$28, DW_AT_name("_GPIO_WritePin")
     288                      .dwattr $C$DW$28, DW_AT_TI_call
     289 00000027 7640!         LCR       #_GPIO_WritePin       ; [CPU_] |42| 
         00000028 0000 
     290                      ; call occurs [#_GPIO_WritePin] ; [] |42| 
     291                      .dwpsn  file "../Source/App/hal_led.c",line 43,column 2,is_stmt,isa 0
     292 00000029 9A47          MOVB      AL,#71                ; [CPU_] |43| 
     293 0000002a 9B01          MOVB      AH,#1                 ; [CPU_] |43| 
     294              $C$DW$29        .dwtag  DW_TAG_TI_branch
     295                      .dwattr $C$DW$29, DW_AT_low_pc(0x00)
     296                      .dwattr $C$DW$29, DW_AT_name("_GPIO_WritePin")
     297                      .dwattr $C$DW$29, DW_AT_TI_call
     298 0000002b 7640!         LCR       #_GPIO_WritePin       ; [CPU_] |43| 
         0000002c 0000 
     299                      ; call occurs [#_GPIO_WritePin] ; [] |43| 
     300                      .dwpsn  file "../Source/App/hal_led.c",line 44,column 1,is_stmt,isa 0
     301              $C$DW$30        .dwtag  DW_TAG_TI_branch
     302                      .dwattr $C$DW$30, DW_AT_low_pc(0x00)
     303                      .dwattr $C$DW$30, DW_AT_TI_return
     304 0000002d 0006          LRETR     ; [CPU_] 
     305                      ; return occurs ; [] 
     306                      .dwattr $C$DW$27, DW_AT_TI_end_file("../Source/App/hal_led.c")
     307                      .dwattr $C$DW$27, DW_AT_TI_end_line(0x2c)
     308                      .dwattr $C$DW$27, DW_AT_TI_end_column(0x01)
     309                      .dwendentry
     310                      .dwendtag $C$DW$27
     311              
     312 0000002e               .sect   ".text"
     313                      .clink
     314                      .global _hal_led_on
     315              
     316              $C$DW$31        .dwtag  DW_TAG_subprogram, DW_AT_name("hal_led_on")
     317                      .dwattr $C$DW$31, DW_AT_low_pc(_hal_led_on)
     318                      .dwattr $C$DW$31, DW_AT_high_pc(0x00)
     319                      .dwattr $C$DW$31, DW_AT_TI_symbol_name("_hal_led_on")
     320                      .dwattr $C$DW$31, DW_AT_external
     321                      .dwattr $C$DW$31, DW_AT_TI_begin_file("../Source/App/hal_led.c")
TMS320C2000 Assembler PC v6.4.2 Thu Dec 14 13:37:58 2017

Tools Copyright (c) 1996-2015 Texas Instruments Incorporated
hal_led.asm                                                          PAGE    7

     322                      .dwattr $C$DW$31, DW_AT_TI_begin_line(0x2f)
     323                      .dwattr $C$DW$31, DW_AT_TI_begin_column(0x06)
     324                      .dwattr $C$DW$31, DW_AT_TI_max_frame_size(-4)
     325                      .dwpsn  file "../Source/App/hal_led.c",line 48,column 1,is_stmt,address _hal_led_on,isa 0
     326              
     327                      .dwfde $C$DW$CIE, _hal_led_on
     328              $C$DW$32        .dwtag  DW_TAG_formal_parameter, DW_AT_name("led")
     329                      .dwattr $C$DW$32, DW_AT_TI_symbol_name("_led")
     330                      .dwattr $C$DW$32, DW_AT_type(*$C$DW$T$19)
     331                      .dwattr $C$DW$32, DW_AT_location[DW_OP_reg0]
     332              
     333              ;***************************************************************
     334              ;* FNAME: _hal_led_on                   FR SIZE:   2           *
     335              ;*                                                             *
     336              ;* FUNCTION ENVIRONMENT                                        *
     337              ;*                                                             *
     338              ;* FUNCTION PROPERTIES                                         *
     339              ;*                            0 Parameter,  1 Auto,  0 SOE     *
     340              ;***************************************************************
     341              
     342 0000002e       _hal_led_on:
     343                      .dwcfi  cfa_offset, -2
     344                      .dwcfi  save_reg_to_mem, 26, 0
     345 0000002e FE02          ADDB      SP,#2                 ; [CPU_U] 
     346                      .dwcfi  cfa_offset, -4
     347              $C$DW$33        .dwtag  DW_TAG_variable, DW_AT_name("led")
     348                      .dwattr $C$DW$33, DW_AT_TI_symbol_name("_led")
     349                      .dwattr $C$DW$33, DW_AT_type(*$C$DW$T$19)
     350                      .dwattr $C$DW$33, DW_AT_location[DW_OP_breg20 -1]
     351 0000002f 9641          MOV       *-SP[1],AL            ; [CPU_] |48| 
     352                      .dwpsn  file "../Source/App/hal_led.c",line 49,column 5,is_stmt,isa 0
     353 00000030 9B01          MOVB      AH,#1                 ; [CPU_] |49| 
     354              $C$DW$34        .dwtag  DW_TAG_TI_branch
     355                      .dwattr $C$DW$34, DW_AT_low_pc(0x00)
     356                      .dwattr $C$DW$34, DW_AT_name("_GPIO_WritePin")
     357                      .dwattr $C$DW$34, DW_AT_TI_call
     358 00000031 7640!         LCR       #_GPIO_WritePin       ; [CPU_] |49| 
         00000032 0000 
     359                      ; call occurs [#_GPIO_WritePin] ; [] |49| 
     360                      .dwpsn  file "../Source/App/hal_led.c",line 50,column 1,is_stmt,isa 0
     361 00000033 FE82          SUBB      SP,#2                 ; [CPU_U] 
     362                      .dwcfi  cfa_offset, -2
     363              $C$DW$35        .dwtag  DW_TAG_TI_branch
     364                      .dwattr $C$DW$35, DW_AT_low_pc(0x00)
     365                      .dwattr $C$DW$35, DW_AT_TI_return
     366 00000034 0006          LRETR     ; [CPU_] 
     367                      ; return occurs ; [] 
     368                      .dwattr $C$DW$31, DW_AT_TI_end_file("../Source/App/hal_led.c")
     369                      .dwattr $C$DW$31, DW_AT_TI_end_line(0x32)
     370                      .dwattr $C$DW$31, DW_AT_TI_end_column(0x01)
     371                      .dwendentry
     372                      .dwendtag $C$DW$31
     373              
     374              ;**************************************************************
     375              ;* UNDEFINED EXTERNAL REFERENCES                              *
TMS320C2000 Assembler PC v6.4.2 Thu Dec 14 13:37:58 2017

Tools Copyright (c) 1996-2015 Texas Instruments Incorporated
hal_led.asm                                                          PAGE    8

     376              ;**************************************************************
     377                      .global _GPIO_SetupPinOptions
     378                      .global _GPIO_SetupPinMux
     379                      .global _GPIO_WritePin
     380              
     381              ;***************************************************************
     382              ;* TYPE INFORMATION                                            *
     383              ;***************************************************************
     384              $C$DW$T$2       .dwtag  DW_TAG_unspecified_type
     385                      .dwattr $C$DW$T$2, DW_AT_name("void")
     386              $C$DW$T$4       .dwtag  DW_TAG_base_type
     387                      .dwattr $C$DW$T$4, DW_AT_encoding(DW_ATE_boolean)
     388                      .dwattr $C$DW$T$4, DW_AT_name("bool")
     389                      .dwattr $C$DW$T$4, DW_AT_byte_size(0x01)
     390              $C$DW$T$5       .dwtag  DW_TAG_base_type
     391                      .dwattr $C$DW$T$5, DW_AT_encoding(DW_ATE_signed_char)
     392                      .dwattr $C$DW$T$5, DW_AT_name("signed char")
     393                      .dwattr $C$DW$T$5, DW_AT_byte_size(0x01)
     394              $C$DW$T$6       .dwtag  DW_TAG_base_type
     395                      .dwattr $C$DW$T$6, DW_AT_encoding(DW_ATE_unsigned_char)
     396                      .dwattr $C$DW$T$6, DW_AT_name("unsigned char")
     397                      .dwattr $C$DW$T$6, DW_AT_byte_size(0x01)
     398              $C$DW$T$7       .dwtag  DW_TAG_base_type
     399                      .dwattr $C$DW$T$7, DW_AT_encoding(DW_ATE_signed_char)
     400                      .dwattr $C$DW$T$7, DW_AT_name("wchar_t")
     401                      .dwattr $C$DW$T$7, DW_AT_byte_size(0x01)
     402              $C$DW$T$8       .dwtag  DW_TAG_base_type
     403                      .dwattr $C$DW$T$8, DW_AT_encoding(DW_ATE_signed)
     404                      .dwattr $C$DW$T$8, DW_AT_name("short")
     405                      .dwattr $C$DW$T$8, DW_AT_byte_size(0x01)
     406              $C$DW$T$9       .dwtag  DW_TAG_base_type
     407                      .dwattr $C$DW$T$9, DW_AT_encoding(DW_ATE_unsigned)
     408                      .dwattr $C$DW$T$9, DW_AT_name("unsigned short")
     409                      .dwattr $C$DW$T$9, DW_AT_byte_size(0x01)
     410              $C$DW$T$10      .dwtag  DW_TAG_base_type
     411                      .dwattr $C$DW$T$10, DW_AT_encoding(DW_ATE_signed)
     412                      .dwattr $C$DW$T$10, DW_AT_name("int")
     413                      .dwattr $C$DW$T$10, DW_AT_byte_size(0x01)
     414              $C$DW$T$11      .dwtag  DW_TAG_base_type
     415                      .dwattr $C$DW$T$11, DW_AT_encoding(DW_ATE_unsigned)
     416                      .dwattr $C$DW$T$11, DW_AT_name("unsigned int")
     417                      .dwattr $C$DW$T$11, DW_AT_byte_size(0x01)
     418              $C$DW$T$19      .dwtag  DW_TAG_typedef, DW_AT_name("Uint16")
     419                      .dwattr $C$DW$T$19, DW_AT_type(*$C$DW$T$11)
     420                      .dwattr $C$DW$T$19, DW_AT_language(DW_LANG_C)
     421              $C$DW$T$12      .dwtag  DW_TAG_base_type
     422                      .dwattr $C$DW$T$12, DW_AT_encoding(DW_ATE_signed)
     423                      .dwattr $C$DW$T$12, DW_AT_name("long")
     424                      .dwattr $C$DW$T$12, DW_AT_byte_size(0x02)
     425              $C$DW$T$13      .dwtag  DW_TAG_base_type
     426                      .dwattr $C$DW$T$13, DW_AT_encoding(DW_ATE_unsigned)
     427                      .dwattr $C$DW$T$13, DW_AT_name("unsigned long")
     428                      .dwattr $C$DW$T$13, DW_AT_byte_size(0x02)
     429              $C$DW$T$14      .dwtag  DW_TAG_base_type
     430                      .dwattr $C$DW$T$14, DW_AT_encoding(DW_ATE_signed)
TMS320C2000 Assembler PC v6.4.2 Thu Dec 14 13:37:58 2017

Tools Copyright (c) 1996-2015 Texas Instruments Incorporated
hal_led.asm                                                          PAGE    9

     431                      .dwattr $C$DW$T$14, DW_AT_name("long long")
     432                      .dwattr $C$DW$T$14, DW_AT_byte_size(0x04)
     433              $C$DW$T$15      .dwtag  DW_TAG_base_type
     434                      .dwattr $C$DW$T$15, DW_AT_encoding(DW_ATE_unsigned)
     435                      .dwattr $C$DW$T$15, DW_AT_name("unsigned long long")
     436                      .dwattr $C$DW$T$15, DW_AT_byte_size(0x04)
     437              $C$DW$T$16      .dwtag  DW_TAG_base_type
     438                      .dwattr $C$DW$T$16, DW_AT_encoding(DW_ATE_float)
     439                      .dwattr $C$DW$T$16, DW_AT_name("float")
     440                      .dwattr $C$DW$T$16, DW_AT_byte_size(0x02)
     441              $C$DW$T$17      .dwtag  DW_TAG_base_type
     442                      .dwattr $C$DW$T$17, DW_AT_encoding(DW_ATE_float)
     443                      .dwattr $C$DW$T$17, DW_AT_name("double")
     444                      .dwattr $C$DW$T$17, DW_AT_byte_size(0x02)
     445              $C$DW$T$18      .dwtag  DW_TAG_base_type
     446                      .dwattr $C$DW$T$18, DW_AT_encoding(DW_ATE_float)
     447                      .dwattr $C$DW$T$18, DW_AT_name("long double")
     448                      .dwattr $C$DW$T$18, DW_AT_byte_size(0x04)
     449                      .dwattr $C$DW$CU, DW_AT_language(DW_LANG_C)
     450              
     451              ;***************************************************************
     452              ;* DWARF CIE ENTRIES                                           *
     453              ;***************************************************************
     454              
     455              $C$DW$CIE       .dwcie 26
     456                      .dwcfi  cfa_register, 20
     457                      .dwcfi  cfa_offset, 0
     458                      .dwcfi  undefined, 0
     459                      .dwcfi  undefined, 1
     460                      .dwcfi  undefined, 2
     461                      .dwcfi  undefined, 3
     462                      .dwcfi  undefined, 20
     463                      .dwcfi  undefined, 21
     464                      .dwcfi  undefined, 22
     465                      .dwcfi  undefined, 23
     466                      .dwcfi  undefined, 24
     467                      .dwcfi  undefined, 25
     468                      .dwcfi  undefined, 26
     469                      .dwcfi  same_value, 28
     470                      .dwcfi  undefined, 29
     471                      .dwcfi  undefined, 30
     472                      .dwcfi  undefined, 31
     473                      .dwcfi  undefined, 32
     474                      .dwcfi  undefined, 33
     475                      .dwcfi  undefined, 34
     476                      .dwcfi  undefined, 35
     477                      .dwcfi  undefined, 36
     478                      .dwcfi  undefined, 37
     479                      .dwcfi  undefined, 38
     480                      .dwcfi  undefined, 75
     481                      .dwcfi  undefined, 76
     482                      .dwcfi  undefined, 77
     483                      .dwcfi  undefined, 4
     484                      .dwcfi  undefined, 5
     485                      .dwcfi  same_value, 6
TMS320C2000 Assembler PC v6.4.2 Thu Dec 14 13:37:58 2017

Tools Copyright (c) 1996-2015 Texas Instruments Incorporated
hal_led.asm                                                          PAGE   10

     486                      .dwcfi  same_value, 7
     487                      .dwcfi  same_value, 8
     488                      .dwcfi  same_value, 9
     489                      .dwcfi  same_value, 10
     490                      .dwcfi  same_value, 11
     491                      .dwcfi  undefined, 12
     492                      .dwcfi  undefined, 13
     493                      .dwcfi  undefined, 14
     494                      .dwcfi  undefined, 15
     495                      .dwcfi  undefined, 16
     496                      .dwcfi  undefined, 17
     497                      .dwcfi  undefined, 18
     498                      .dwcfi  undefined, 19
     499                      .dwcfi  undefined, 43
     500                      .dwcfi  undefined, 44
     501                      .dwcfi  undefined, 47
     502                      .dwcfi  undefined, 48
     503                      .dwcfi  undefined, 51
     504                      .dwcfi  undefined, 52
     505                      .dwcfi  undefined, 55
     506                      .dwcfi  undefined, 56
     507                      .dwcfi  same_value, 59
     508                      .dwcfi  same_value, 60
     509                      .dwcfi  same_value, 63
     510                      .dwcfi  same_value, 64
     511                      .dwcfi  same_value, 67
     512                      .dwcfi  same_value, 68
     513                      .dwcfi  same_value, 71
     514                      .dwcfi  same_value, 72
     515                      .dwcfi  undefined, 73
     516                      .dwcfi  undefined, 74
     517                      .dwcfi  undefined, 39
     518                      .dwcfi  undefined, 40
     519                      .dwcfi  undefined, 27
     520                      .dwendentry
     521              
     522              ;***************************************************************
     523              ;* DWARF REGISTER MAP                                          *
     524              ;***************************************************************
     525              
     526              $C$DW$36        .dwtag  DW_TAG_TI_assign_register, DW_AT_name("AL")
     527                      .dwattr $C$DW$36, DW_AT_location[DW_OP_reg0]
     528              $C$DW$37        .dwtag  DW_TAG_TI_assign_register, DW_AT_name("AH")
     529                      .dwattr $C$DW$37, DW_AT_location[DW_OP_reg1]
     530              $C$DW$38        .dwtag  DW_TAG_TI_assign_register, DW_AT_name("PL")
     531                      .dwattr $C$DW$38, DW_AT_location[DW_OP_reg2]
     532              $C$DW$39        .dwtag  DW_TAG_TI_assign_register, DW_AT_name("PH")
     533                      .dwattr $C$DW$39, DW_AT_location[DW_OP_reg3]
     534              $C$DW$40        .dwtag  DW_TAG_TI_assign_register, DW_AT_name("SP")
     535                      .dwattr $C$DW$40, DW_AT_location[DW_OP_reg20]
     536              $C$DW$41        .dwtag  DW_TAG_TI_assign_register, DW_AT_name("XT")
     537                      .dwattr $C$DW$41, DW_AT_location[DW_OP_reg21]
     538              $C$DW$42        .dwtag  DW_TAG_TI_assign_register, DW_AT_name("T")
     539                      .dwattr $C$DW$42, DW_AT_location[DW_OP_reg22]
     540              $C$DW$43        .dwtag  DW_TAG_TI_assign_register, DW_AT_name("ST0")
TMS320C2000 Assembler PC v6.4.2 Thu Dec 14 13:37:58 2017

Tools Copyright (c) 1996-2015 Texas Instruments Incorporated
hal_led.asm                                                          PAGE   11

     541                      .dwattr $C$DW$43, DW_AT_location[DW_OP_reg23]
     542              $C$DW$44        .dwtag  DW_TAG_TI_assign_register, DW_AT_name("ST1")
     543                      .dwattr $C$DW$44, DW_AT_location[DW_OP_reg24]
     544              $C$DW$45        .dwtag  DW_TAG_TI_assign_register, DW_AT_name("PC")
     545                      .dwattr $C$DW$45, DW_AT_location[DW_OP_reg25]
     546              $C$DW$46        .dwtag  DW_TAG_TI_assign_register, DW_AT_name("RPC")
     547                      .dwattr $C$DW$46, DW_AT_location[DW_OP_reg26]
     548              $C$DW$47        .dwtag  DW_TAG_TI_assign_register, DW_AT_name("FP")
     549                      .dwattr $C$DW$47, DW_AT_location[DW_OP_reg28]
     550              $C$DW$48        .dwtag  DW_TAG_TI_assign_register, DW_AT_name("DP")
     551                      .dwattr $C$DW$48, DW_AT_location[DW_OP_reg29]
     552              $C$DW$49        .dwtag  DW_TAG_TI_assign_register, DW_AT_name("SXM")
     553                      .dwattr $C$DW$49, DW_AT_location[DW_OP_reg30]
     554              $C$DW$50        .dwtag  DW_TAG_TI_assign_register, DW_AT_name("PM")
     555                      .dwattr $C$DW$50, DW_AT_location[DW_OP_reg31]
     556              $C$DW$51        .dwtag  DW_TAG_TI_assign_register, DW_AT_name("OVM")
     557                      .dwattr $C$DW$51, DW_AT_location[DW_OP_regx 0x20]
     558              $C$DW$52        .dwtag  DW_TAG_TI_assign_register, DW_AT_name("PAGE0")
     559                      .dwattr $C$DW$52, DW_AT_location[DW_OP_regx 0x21]
     560              $C$DW$53        .dwtag  DW_TAG_TI_assign_register, DW_AT_name("AMODE")
     561                      .dwattr $C$DW$53, DW_AT_location[DW_OP_regx 0x22]
     562              $C$DW$54        .dwtag  DW_TAG_TI_assign_register, DW_AT_name("INTM")
     563                      .dwattr $C$DW$54, DW_AT_location[DW_OP_regx 0x23]
     564              $C$DW$55        .dwtag  DW_TAG_TI_assign_register, DW_AT_name("IFR")
     565                      .dwattr $C$DW$55, DW_AT_location[DW_OP_regx 0x24]
     566              $C$DW$56        .dwtag  DW_TAG_TI_assign_register, DW_AT_name("IER")
     567                      .dwattr $C$DW$56, DW_AT_location[DW_OP_regx 0x25]
     568              $C$DW$57        .dwtag  DW_TAG_TI_assign_register, DW_AT_name("V")
     569                      .dwattr $C$DW$57, DW_AT_location[DW_OP_regx 0x26]
     570              $C$DW$58        .dwtag  DW_TAG_TI_assign_register, DW_AT_name("PSEUDOH")
     571                      .dwattr $C$DW$58, DW_AT_location[DW_OP_regx 0x4c]
     572              $C$DW$59        .dwtag  DW_TAG_TI_assign_register, DW_AT_name("VOL")
     573                      .dwattr $C$DW$59, DW_AT_location[DW_OP_regx 0x4d]
     574              $C$DW$60        .dwtag  DW_TAG_TI_assign_register, DW_AT_name("AR0")
     575                      .dwattr $C$DW$60, DW_AT_location[DW_OP_reg4]
     576              $C$DW$61        .dwtag  DW_TAG_TI_assign_register, DW_AT_name("XAR0")
     577                      .dwattr $C$DW$61, DW_AT_location[DW_OP_reg5]
     578              $C$DW$62        .dwtag  DW_TAG_TI_assign_register, DW_AT_name("AR1")
     579                      .dwattr $C$DW$62, DW_AT_location[DW_OP_reg6]
     580              $C$DW$63        .dwtag  DW_TAG_TI_assign_register, DW_AT_name("XAR1")
     581                      .dwattr $C$DW$63, DW_AT_location[DW_OP_reg7]
     582              $C$DW$64        .dwtag  DW_TAG_TI_assign_register, DW_AT_name("AR2")
     583                      .dwattr $C$DW$64, DW_AT_location[DW_OP_reg8]
     584              $C$DW$65        .dwtag  DW_TAG_TI_assign_register, DW_AT_name("XAR2")
     585                      .dwattr $C$DW$65, DW_AT_location[DW_OP_reg9]
     586              $C$DW$66        .dwtag  DW_TAG_TI_assign_register, DW_AT_name("AR3")
     587                      .dwattr $C$DW$66, DW_AT_location[DW_OP_reg10]
     588              $C$DW$67        .dwtag  DW_TAG_TI_assign_register, DW_AT_name("XAR3")
     589                      .dwattr $C$DW$67, DW_AT_location[DW_OP_reg11]
     590              $C$DW$68        .dwtag  DW_TAG_TI_assign_register, DW_AT_name("AR4")
     591                      .dwattr $C$DW$68, DW_AT_location[DW_OP_reg12]
     592              $C$DW$69        .dwtag  DW_TAG_TI_assign_register, DW_AT_name("XAR4")
     593                      .dwattr $C$DW$69, DW_AT_location[DW_OP_reg13]
     594              $C$DW$70        .dwtag  DW_TAG_TI_assign_register, DW_AT_name("AR5")
     595                      .dwattr $C$DW$70, DW_AT_location[DW_OP_reg14]
TMS320C2000 Assembler PC v6.4.2 Thu Dec 14 13:37:58 2017

Tools Copyright (c) 1996-2015 Texas Instruments Incorporated
hal_led.asm                                                          PAGE   12

     596              $C$DW$71        .dwtag  DW_TAG_TI_assign_register, DW_AT_name("XAR5")
     597                      .dwattr $C$DW$71, DW_AT_location[DW_OP_reg15]
     598              $C$DW$72        .dwtag  DW_TAG_TI_assign_register, DW_AT_name("AR6")
     599                      .dwattr $C$DW$72, DW_AT_location[DW_OP_reg16]
     600              $C$DW$73        .dwtag  DW_TAG_TI_assign_register, DW_AT_name("XAR6")
     601                      .dwattr $C$DW$73, DW_AT_location[DW_OP_reg17]
     602              $C$DW$74        .dwtag  DW_TAG_TI_assign_register, DW_AT_name("AR7")
     603                      .dwattr $C$DW$74, DW_AT_location[DW_OP_reg18]
     604              $C$DW$75        .dwtag  DW_TAG_TI_assign_register, DW_AT_name("XAR7")
     605                      .dwattr $C$DW$75, DW_AT_location[DW_OP_reg19]
     606              $C$DW$76        .dwtag  DW_TAG_TI_assign_register, DW_AT_name("R0HL")
     607                      .dwattr $C$DW$76, DW_AT_location[DW_OP_regx 0x2b]
     608              $C$DW$77        .dwtag  DW_TAG_TI_assign_register, DW_AT_name("R0H")
     609                      .dwattr $C$DW$77, DW_AT_location[DW_OP_regx 0x2c]
     610              $C$DW$78        .dwtag  DW_TAG_TI_assign_register, DW_AT_name("R1HL")
     611                      .dwattr $C$DW$78, DW_AT_location[DW_OP_regx 0x2f]
     612              $C$DW$79        .dwtag  DW_TAG_TI_assign_register, DW_AT_name("R1H")
     613                      .dwattr $C$DW$79, DW_AT_location[DW_OP_regx 0x30]
     614              $C$DW$80        .dwtag  DW_TAG_TI_assign_register, DW_AT_name("R2HL")
     615                      .dwattr $C$DW$80, DW_AT_location[DW_OP_regx 0x33]
     616              $C$DW$81        .dwtag  DW_TAG_TI_assign_register, DW_AT_name("R2H")
     617                      .dwattr $C$DW$81, DW_AT_location[DW_OP_regx 0x34]
     618              $C$DW$82        .dwtag  DW_TAG_TI_assign_register, DW_AT_name("R3HL")
     619                      .dwattr $C$DW$82, DW_AT_location[DW_OP_regx 0x37]
     620              $C$DW$83        .dwtag  DW_TAG_TI_assign_register, DW_AT_name("R3H")
     621                      .dwattr $C$DW$83, DW_AT_location[DW_OP_regx 0x38]
     622              $C$DW$84        .dwtag  DW_TAG_TI_assign_register, DW_AT_name("R4HL")
     623                      .dwattr $C$DW$84, DW_AT_location[DW_OP_regx 0x3b]
     624              $C$DW$85        .dwtag  DW_TAG_TI_assign_register, DW_AT_name("R4H")
     625                      .dwattr $C$DW$85, DW_AT_location[DW_OP_regx 0x3c]
     626              $C$DW$86        .dwtag  DW_TAG_TI_assign_register, DW_AT_name("R5HL")
     627                      .dwattr $C$DW$86, DW_AT_location[DW_OP_regx 0x3f]
     628              $C$DW$87        .dwtag  DW_TAG_TI_assign_register, DW_AT_name("R5H")
     629                      .dwattr $C$DW$87, DW_AT_location[DW_OP_regx 0x40]
     630              $C$DW$88        .dwtag  DW_TAG_TI_assign_register, DW_AT_name("R6HL")
     631                      .dwattr $C$DW$88, DW_AT_location[DW_OP_regx 0x43]
     632              $C$DW$89        .dwtag  DW_TAG_TI_assign_register, DW_AT_name("R6H")
     633                      .dwattr $C$DW$89, DW_AT_location[DW_OP_regx 0x44]
     634              $C$DW$90        .dwtag  DW_TAG_TI_assign_register, DW_AT_name("R7HL")
     635                      .dwattr $C$DW$90, DW_AT_location[DW_OP_regx 0x47]
     636              $C$DW$91        .dwtag  DW_TAG_TI_assign_register, DW_AT_name("R7H")
     637                      .dwattr $C$DW$91, DW_AT_location[DW_OP_regx 0x48]
     638              $C$DW$92        .dwtag  DW_TAG_TI_assign_register, DW_AT_name("RBL")
     639                      .dwattr $C$DW$92, DW_AT_location[DW_OP_regx 0x49]
     640              $C$DW$93        .dwtag  DW_TAG_TI_assign_register, DW_AT_name("RB")
     641                      .dwattr $C$DW$93, DW_AT_location[DW_OP_regx 0x4a]
     642              $C$DW$94        .dwtag  DW_TAG_TI_assign_register, DW_AT_name("STFL")
     643                      .dwattr $C$DW$94, DW_AT_location[DW_OP_regx 0x27]
     644              $C$DW$95        .dwtag  DW_TAG_TI_assign_register, DW_AT_name("STF")
     645                      .dwattr $C$DW$95, DW_AT_location[DW_OP_regx 0x28]
     646              $C$DW$96        .dwtag  DW_TAG_TI_assign_register, DW_AT_name("FPUHAZ")
     647                      .dwattr $C$DW$96, DW_AT_location[DW_OP_reg27]
     648                      .dwendtag $C$DW$CU
     649              

No Assembly Errors, No Assembly Warnings
