TMS320C2000 Assembler PC v6.4.2 Thu Dec 14 15:26:49 2017

Tools Copyright (c) 1996-2015 Texas Instruments Incorporated
interrupt.asm                                                        PAGE    1

       1              ;***************************************************************
       2              ;* TMS320C2000 C/C++ Codegen                         PC v6.4.2 *
       3              ;* Date/Time created: Thu Dec 14 15:26:48 2017                 *
       4              ;***************************************************************
       5                      .compiler_opts --cla_support=cla0 --float_support=fpu32 --hll_source=on --mem_model:code=flat --mem_m
       6        0002  FP      .set    XAR2
       7              
       8              $C$DW$CU        .dwtag  DW_TAG_compile_unit
       9                      .dwattr $C$DW$CU, DW_AT_name("../TI/Drivers/interrupt.c")
      10                      .dwattr $C$DW$CU, DW_AT_producer("TI TMS320C2000 C/C++ Codegen PC v6.4.2 Copyright (c) 1996-2015 Texa
      11                      .dwattr $C$DW$CU, DW_AT_TI_version(0x01)
      12                      .dwattr $C$DW$CU, DW_AT_comp_dir("U:\02_MSE\MT\07_Software\CCS_workspace\DiffDrive_v0.93\F2837x_FLASH
      13              
      14              $C$DW$1 .dwtag  DW_TAG_subprogram, DW_AT_name("__disable_interrupts")
      15                      .dwattr $C$DW$1, DW_AT_TI_symbol_name("___disable_interrupts")
      16                      .dwattr $C$DW$1, DW_AT_type(*$C$DW$T$11)
      17                      .dwattr $C$DW$1, DW_AT_declaration
      18                      .dwattr $C$DW$1, DW_AT_external
      19              
      20              $C$DW$2 .dwtag  DW_TAG_subprogram, DW_AT_name("__enable_interrupts")
      21                      .dwattr $C$DW$2, DW_AT_TI_symbol_name("___enable_interrupts")
      22                      .dwattr $C$DW$2, DW_AT_type(*$C$DW$T$11)
      23                      .dwattr $C$DW$2, DW_AT_declaration
      24                      .dwattr $C$DW$2, DW_AT_external
      25              
      26              $C$DW$3 .dwtag  DW_TAG_subprogram, DW_AT_name("memcpy")
      27                      .dwattr $C$DW$3, DW_AT_TI_symbol_name("_memcpy")
      28                      .dwattr $C$DW$3, DW_AT_type(*$C$DW$T$3)
      29                      .dwattr $C$DW$3, DW_AT_declaration
      30                      .dwattr $C$DW$3, DW_AT_external
      31              $C$DW$4 .dwtag  DW_TAG_formal_parameter
      32                      .dwattr $C$DW$4, DW_AT_type(*$C$DW$T$3)
      33              $C$DW$5 .dwtag  DW_TAG_formal_parameter
      34                      .dwattr $C$DW$5, DW_AT_type(*$C$DW$T$85)
      35              $C$DW$6 .dwtag  DW_TAG_formal_parameter
      36                      .dwattr $C$DW$6, DW_AT_type(*$C$DW$T$13)
      37                      .dwendtag $C$DW$3
      38              
      39              $C$DW$7 .dwtag  DW_TAG_variable, DW_AT_name("PieCtrlRegs")
      40                      .dwattr $C$DW$7, DW_AT_TI_symbol_name("_PieCtrlRegs")
      41                      .dwattr $C$DW$7, DW_AT_type(*$C$DW$T$81)
      42                      .dwattr $C$DW$7, DW_AT_declaration
      43                      .dwattr $C$DW$7, DW_AT_external
      44              $C$DW$8 .dwtag  DW_TAG_variable, DW_AT_name("PieVectTable")
      45                      .dwattr $C$DW$8, DW_AT_TI_symbol_name("_PieVectTable")
      46                      .dwattr $C$DW$8, DW_AT_type(*$C$DW$T$82)
      47                      .dwattr $C$DW$8, DW_AT_declaration
      48                      .dwattr $C$DW$8, DW_AT_external
      49              ;       C:\ti\ccsv6\tools\compiler\ti-cgt-c2000_6.4.2\bin\ac2000.exe -@C:\\Users\\ficm\\AppData\\Local\\Temp\
      50 00000000               .sect   ".text:retain"
      51                      .retain
      52                      .retainrefs
      53                      .global _IntDefaultHandler
      54              
      55              $C$DW$9 .dwtag  DW_TAG_subprogram, DW_AT_name("IntDefaultHandler")
TMS320C2000 Assembler PC v6.4.2 Thu Dec 14 15:26:49 2017

Tools Copyright (c) 1996-2015 Texas Instruments Incorporated
interrupt.asm                                                        PAGE    2

      56                      .dwattr $C$DW$9, DW_AT_low_pc(_IntDefaultHandler)
      57                      .dwattr $C$DW$9, DW_AT_high_pc(0x00)
      58                      .dwattr $C$DW$9, DW_AT_TI_symbol_name("_IntDefaultHandler")
      59                      .dwattr $C$DW$9, DW_AT_external
      60                      .dwattr $C$DW$9, DW_AT_TI_begin_file("../TI/Drivers/interrupt.c")
      61                      .dwattr $C$DW$9, DW_AT_TI_begin_line(0x29)
      62                      .dwattr $C$DW$9, DW_AT_TI_begin_column(0x12)
      63                      .dwattr $C$DW$9, DW_AT_TI_interrupt
      64                      .dwattr $C$DW$9, DW_AT_TI_max_frame_size(-6)
      65                      .dwpsn  file "../TI/Drivers/interrupt.c",line 42,column 1,is_stmt,address _IntDefaultHandler,isa 0
      66              
      67                      .dwfde $C$DW$CIE, _IntDefaultHandler
      68              
      69              ;***************************************************************
      70              ;* FNAME: _IntDefaultHandler            FR SIZE:   4           *
      71              ;*                                                             *
      72              ;* FUNCTION ENVIRONMENT                                        *
      73              ;*                                                             *
      74              ;* FUNCTION PROPERTIES                                         *
      75              ;*                            0 Parameter,  0 Auto,  4 SOE     *
      76              ;***************************************************************
      77              
      78 00000000       _IntDefaultHandler:
      79                      .dwcfi  cfa_offset, -2
      80                      .dwcfi  save_reg_to_mem, 26, 0
      81 00000000 761B          ASP       ; [CPU_] 
      82 00000001 FFF0          PUSH      RB                    ; [CPU_] 
      83                      .dwcfi  save_reg_to_mem, 73, 2
      84                      .dwcfi  save_reg_to_mem, 74, 3
      85                      .dwcfi  cfa_offset, -4
      86 00000002 E200          MOV32     *SP++,STF             ; [CPU_] 
         00000003 00BD 
      87                      .dwcfi  save_reg_to_mem, 39, 4
      88                      .dwcfi  save_reg_to_mem, 40, 5
      89                      .dwcfi  cfa_offset, -6
      90 00000004 E630          SETFLG    RNDF32=1, RNDF64=1    ; [CPU_] 
         00000005 0600 
      91 00000006 2942          CLRC      PAGE0,OVM             ; [CPU_] 
      92 00000007 5616          CLRC      AMODE                 ; [CPU_] 
      93                      .dwpsn  file "../TI/Drivers/interrupt.c",line 43,column 5,is_stmt,isa 0
      94 00000008 7625   ESTOP0
      95                      .dwpsn  file "../TI/Drivers/interrupt.c",line 44,column 5,is_stmt,isa 0
      96                      .dwpsn  file "../TI/Drivers/interrupt.c",line 45,column 1,is_stmt,isa 0
      97 00000009 E280          MOV32     STF,*--SP             ; [CPU_] 
         0000000a 00BE 
      98                      .dwcfi  cfa_offset, -4
      99                      .dwcfi  restore_reg, 39
     100                      .dwcfi  restore_reg, 40
     101 0000000b FFF1          POP       RB                    ; [CPU_] 
     102                      .dwcfi  cfa_offset, -2
     103                      .dwcfi  restore_reg, 73
     104                      .dwcfi  restore_reg, 74
     105 0000000c 7617          NASP      ; [CPU_] 
     106              $C$DW$10        .dwtag  DW_TAG_TI_branch
     107                      .dwattr $C$DW$10, DW_AT_low_pc(0x00)
TMS320C2000 Assembler PC v6.4.2 Thu Dec 14 15:26:49 2017

Tools Copyright (c) 1996-2015 Texas Instruments Incorporated
interrupt.asm                                                        PAGE    3

     108                      .dwattr $C$DW$10, DW_AT_TI_return
     109 0000000d 7602          IRET      ; [CPU_] 
     110                      ; return occurs ; [] 
     111                      .dwattr $C$DW$9, DW_AT_TI_end_file("../TI/Drivers/interrupt.c")
     112                      .dwattr $C$DW$9, DW_AT_TI_end_line(0x2d)
     113                      .dwattr $C$DW$9, DW_AT_TI_end_column(0x01)
     114                      .dwendentry
     115                      .dwendtag $C$DW$9
     116              
     117 00000000               .sect   ".text"
     118                      .clink
     119                      .global _IntMasterEnable
     120              
     121              $C$DW$11        .dwtag  DW_TAG_subprogram, DW_AT_name("IntMasterEnable")
     122                      .dwattr $C$DW$11, DW_AT_low_pc(_IntMasterEnable)
     123                      .dwattr $C$DW$11, DW_AT_high_pc(0x00)
     124                      .dwattr $C$DW$11, DW_AT_TI_symbol_name("_IntMasterEnable")
     125                      .dwattr $C$DW$11, DW_AT_external
     126                      .dwattr $C$DW$11, DW_AT_type(*$C$DW$T$100)
     127                      .dwattr $C$DW$11, DW_AT_TI_begin_file("../TI/Drivers/interrupt.c")
     128                      .dwattr $C$DW$11, DW_AT_TI_begin_line(0x42)
     129                      .dwattr $C$DW$11, DW_AT_TI_begin_column(0x01)
     130                      .dwattr $C$DW$11, DW_AT_TI_max_frame_size(-2)
     131                      .dwpsn  file "../TI/Drivers/interrupt.c",line 67,column 1,is_stmt,address _IntMasterEnable,isa 0
     132              
     133                      .dwfde $C$DW$CIE, _IntMasterEnable
     134              
     135              ;***************************************************************
     136              ;* FNAME: _IntMasterEnable              FR SIZE:   0           *
     137              ;*                                                             *
     138              ;* FUNCTION ENVIRONMENT                                        *
     139              ;*                                                             *
     140              ;* FUNCTION PROPERTIES                                         *
     141              ;*                            0 Parameter,  0 Auto,  0 SOE     *
     142              ;***************************************************************
     143              
     144 00000000       _IntMasterEnable:
     145                      .dwcfi  cfa_offset, -2
     146                      .dwcfi  save_reg_to_mem, 26, 0
     147                      .dwpsn  file "../TI/Drivers/interrupt.c",line 71,column 5,is_stmt,isa 0
     148 00000000 9A00          MOVB      AL,#0                 ; [CPU_] |71| 
     149 00000001 7608          PUSH      ST1                   ; [CPU_] |71| 
     150 00000002 2930          CLRC      INTM, DBGM            ; [CPU_] |71| 
     151 00000003 93BE          MOV       AH,*--SP              ; [CPU_] |71| 
     152 00000004 40A8          TBIT      AH,#0                 ; [CPU_] |71| 
     153 00000005 EF02          BF        $C$L1,NTC             ; [CPU_] |71| 
     154                      ; branchcc occurs ; [] |71| 
     155 00000006 9A01          MOVB      AL,#1                 ; [CPU_] |71| 
     156 00000007       $C$L1:    
     157                      .dwpsn  file "../TI/Drivers/interrupt.c",line 72,column 1,is_stmt,isa 0
     158              $C$DW$12        .dwtag  DW_TAG_TI_branch
     159                      .dwattr $C$DW$12, DW_AT_low_pc(0x00)
     160                      .dwattr $C$DW$12, DW_AT_TI_return
     161 00000007 0006          LRETR     ; [CPU_] 
     162                      ; return occurs ; [] 
TMS320C2000 Assembler PC v6.4.2 Thu Dec 14 15:26:49 2017

Tools Copyright (c) 1996-2015 Texas Instruments Incorporated
interrupt.asm                                                        PAGE    4

     163                      .dwattr $C$DW$11, DW_AT_TI_end_file("../TI/Drivers/interrupt.c")
     164                      .dwattr $C$DW$11, DW_AT_TI_end_line(0x48)
     165                      .dwattr $C$DW$11, DW_AT_TI_end_column(0x01)
     166                      .dwendentry
     167                      .dwendtag $C$DW$11
     168              
     169 00000008               .sect   ".text"
     170                      .clink
     171                      .global _IntMasterDisable
     172              
     173              $C$DW$13        .dwtag  DW_TAG_subprogram, DW_AT_name("IntMasterDisable")
     174                      .dwattr $C$DW$13, DW_AT_low_pc(_IntMasterDisable)
     175                      .dwattr $C$DW$13, DW_AT_high_pc(0x00)
     176                      .dwattr $C$DW$13, DW_AT_TI_symbol_name("_IntMasterDisable")
     177                      .dwattr $C$DW$13, DW_AT_external
     178                      .dwattr $C$DW$13, DW_AT_type(*$C$DW$T$100)
     179                      .dwattr $C$DW$13, DW_AT_TI_begin_file("../TI/Drivers/interrupt.c")
     180                      .dwattr $C$DW$13, DW_AT_TI_begin_line(0x5d)
     181                      .dwattr $C$DW$13, DW_AT_TI_begin_column(0x01)
     182                      .dwattr $C$DW$13, DW_AT_TI_max_frame_size(-2)
     183                      .dwpsn  file "../TI/Drivers/interrupt.c",line 94,column 1,is_stmt,address _IntMasterDisable,isa 0
     184              
     185                      .dwfde $C$DW$CIE, _IntMasterDisable
     186              
     187              ;***************************************************************
     188              ;* FNAME: _IntMasterDisable             FR SIZE:   0           *
     189              ;*                                                             *
     190              ;* FUNCTION ENVIRONMENT                                        *
     191              ;*                                                             *
     192              ;* FUNCTION PROPERTIES                                         *
     193              ;*                            0 Parameter,  0 Auto,  0 SOE     *
     194              ;***************************************************************
     195              
     196 00000008       _IntMasterDisable:
     197                      .dwcfi  cfa_offset, -2
     198                      .dwcfi  save_reg_to_mem, 26, 0
     199                      .dwpsn  file "../TI/Drivers/interrupt.c",line 98,column 5,is_stmt,isa 0
     200 00000008 9A00          MOVB      AL,#0                 ; [CPU_] |98| 
     201 00000009 7608          PUSH      ST1                   ; [CPU_] |98| 
     202 0000000a 3B30          SETC      INTM, DBGM            ; [CPU_] |98| 
     203 0000000b 93BE          MOV       AH,*--SP              ; [CPU_] |98| 
     204 0000000c 40A8          TBIT      AH,#0                 ; [CPU_] |98| 
     205 0000000d EF02          BF        $C$L2,NTC             ; [CPU_] |98| 
     206                      ; branchcc occurs ; [] |98| 
     207 0000000e 9A01          MOVB      AL,#1                 ; [CPU_] |98| 
     208 0000000f       $C$L2:    
     209                      .dwpsn  file "../TI/Drivers/interrupt.c",line 99,column 1,is_stmt,isa 0
     210              $C$DW$14        .dwtag  DW_TAG_TI_branch
     211                      .dwattr $C$DW$14, DW_AT_low_pc(0x00)
     212                      .dwattr $C$DW$14, DW_AT_TI_return
     213 0000000f 0006          LRETR     ; [CPU_] 
     214                      ; return occurs ; [] 
     215                      .dwattr $C$DW$13, DW_AT_TI_end_file("../TI/Drivers/interrupt.c")
     216                      .dwattr $C$DW$13, DW_AT_TI_end_line(0x63)
     217                      .dwattr $C$DW$13, DW_AT_TI_end_column(0x01)
TMS320C2000 Assembler PC v6.4.2 Thu Dec 14 15:26:49 2017

Tools Copyright (c) 1996-2015 Texas Instruments Incorporated
interrupt.asm                                                        PAGE    5

     218                      .dwendentry
     219                      .dwendtag $C$DW$13
     220              
     221 00000010               .sect   ".text"
     222                      .clink
     223                      .global _IntRegister
     224              
     225              $C$DW$15        .dwtag  DW_TAG_subprogram, DW_AT_name("IntRegister")
     226                      .dwattr $C$DW$15, DW_AT_low_pc(_IntRegister)
     227                      .dwattr $C$DW$15, DW_AT_high_pc(0x00)
     228                      .dwattr $C$DW$15, DW_AT_TI_symbol_name("_IntRegister")
     229                      .dwattr $C$DW$15, DW_AT_external
     230                      .dwattr $C$DW$15, DW_AT_TI_begin_file("../TI/Drivers/interrupt.c")
     231                      .dwattr $C$DW$15, DW_AT_TI_begin_line(0x79)
     232                      .dwattr $C$DW$15, DW_AT_TI_begin_column(0x01)
     233                      .dwattr $C$DW$15, DW_AT_TI_max_frame_size(-6)
     234                      .dwpsn  file "../TI/Drivers/interrupt.c",line 122,column 1,is_stmt,address _IntRegister,isa 0
     235              
     236                      .dwfde $C$DW$CIE, _IntRegister
     237              $C$DW$16        .dwtag  DW_TAG_formal_parameter, DW_AT_name("ui32Interrupt")
     238                      .dwattr $C$DW$16, DW_AT_TI_symbol_name("_ui32Interrupt")
     239                      .dwattr $C$DW$16, DW_AT_type(*$C$DW$T$88)
     240                      .dwattr $C$DW$16, DW_AT_location[DW_OP_reg0]
     241              $C$DW$17        .dwtag  DW_TAG_formal_parameter, DW_AT_name("pfnHandler")
     242                      .dwattr $C$DW$17, DW_AT_TI_symbol_name("_pfnHandler")
     243                      .dwattr $C$DW$17, DW_AT_type(*$C$DW$T$74)
     244                      .dwattr $C$DW$17, DW_AT_location[DW_OP_reg12]
     245              
     246              ;***************************************************************
     247              ;* FNAME: _IntRegister                  FR SIZE:   4           *
     248              ;*                                                             *
     249              ;* FUNCTION ENVIRONMENT                                        *
     250              ;*                                                             *
     251              ;* FUNCTION PROPERTIES                                         *
     252              ;*                            0 Parameter,  4 Auto,  0 SOE     *
     253              ;***************************************************************
     254              
     255 00000010       _IntRegister:
     256                      .dwcfi  cfa_offset, -2
     257                      .dwcfi  save_reg_to_mem, 26, 0
     258 00000010 FE04          ADDB      SP,#4                 ; [CPU_U] 
     259                      .dwcfi  cfa_offset, -6
     260              $C$DW$18        .dwtag  DW_TAG_variable, DW_AT_name("ui32Interrupt")
     261                      .dwattr $C$DW$18, DW_AT_TI_symbol_name("_ui32Interrupt")
     262                      .dwattr $C$DW$18, DW_AT_type(*$C$DW$T$88)
     263                      .dwattr $C$DW$18, DW_AT_location[DW_OP_breg20 -2]
     264              $C$DW$19        .dwtag  DW_TAG_variable, DW_AT_name("pfnHandler")
     265                      .dwattr $C$DW$19, DW_AT_TI_symbol_name("_pfnHandler")
     266                      .dwattr $C$DW$19, DW_AT_type(*$C$DW$T$74)
     267                      .dwattr $C$DW$19, DW_AT_location[DW_OP_breg20 -4]
     268 00000011 A844          MOVL      *-SP[4],XAR4          ; [CPU_] |122| 
     269 00000012 1E42          MOVL      *-SP[2],ACC           ; [CPU_] |122| 
     270                      .dwpsn  file "../TI/Drivers/interrupt.c",line 123,column 5,is_stmt,isa 0
     271 00000013 7622   EALLOW
     272                      .dwpsn  file "../TI/Drivers/interrupt.c",line 125,column 5,is_stmt,isa 0
TMS320C2000 Assembler PC v6.4.2 Thu Dec 14 15:26:49 2017

Tools Copyright (c) 1996-2015 Texas Instruments Incorporated
interrupt.asm                                                        PAGE    6

     273 00000014 5DAD          MOVZ      AR5,SP                ; [CPU_] |125| 
     274 00000015 0EA8          MOVU      ACC,AH                ; [CPU_] |125| 
     275 00000016 DD84          SUBB      XAR5,#4               ; [CPU_U] |125| 
     276 00000017 80A5          MOVZ      AR7,AR5               ; [CPU_] |125| 
     277 00000018 8F00!         MOVL      XAR4,#_PieVectTable   ; [CPU_U] |125| 
         00000019 0000 
     278 0000001a FF30          LSL       ACC,1                 ; [CPU_] |125| 
     279 0000001b 5601          ADDL      XAR4,ACC              ; [CPU_] |125| 
         0000001c 00A4 
     280 0000001d F601          RPT       #1
     281 0000001e 2484  ||     PREAD     *XAR4++,*XAR7         ; [CPU_] |125| 
     282                      .dwpsn  file "../TI/Drivers/interrupt.c",line 126,column 5,is_stmt,isa 0
     283 0000001f 761A   EDIS
     284                      .dwpsn  file "../TI/Drivers/interrupt.c",line 127,column 1,is_stmt,isa 0
     285 00000020 FF69          SPM       #0                    ; [CPU_] 
     286 00000021 FE84          SUBB      SP,#4                 ; [CPU_U] 
     287                      .dwcfi  cfa_offset, -2
     288              $C$DW$20        .dwtag  DW_TAG_TI_branch
     289                      .dwattr $C$DW$20, DW_AT_low_pc(0x00)
     290                      .dwattr $C$DW$20, DW_AT_TI_return
     291 00000022 0006          LRETR     ; [CPU_] 
     292                      ; return occurs ; [] 
     293                      .dwattr $C$DW$15, DW_AT_TI_end_file("../TI/Drivers/interrupt.c")
     294                      .dwattr $C$DW$15, DW_AT_TI_end_line(0x7f)
     295                      .dwattr $C$DW$15, DW_AT_TI_end_column(0x01)
     296                      .dwendentry
     297                      .dwendtag $C$DW$15
     298              
     299 00000023               .sect   ".text"
     300                      .clink
     301                      .global _IntUnregister
     302              
     303              $C$DW$21        .dwtag  DW_TAG_subprogram, DW_AT_name("IntUnregister")
     304                      .dwattr $C$DW$21, DW_AT_low_pc(_IntUnregister)
     305                      .dwattr $C$DW$21, DW_AT_high_pc(0x00)
     306                      .dwattr $C$DW$21, DW_AT_TI_symbol_name("_IntUnregister")
     307                      .dwattr $C$DW$21, DW_AT_external
     308                      .dwattr $C$DW$21, DW_AT_TI_begin_file("../TI/Drivers/interrupt.c")
     309                      .dwattr $C$DW$21, DW_AT_TI_begin_line(0x92)
     310                      .dwattr $C$DW$21, DW_AT_TI_begin_column(0x01)
     311                      .dwattr $C$DW$21, DW_AT_TI_max_frame_size(-6)
     312                      .dwpsn  file "../TI/Drivers/interrupt.c",line 147,column 1,is_stmt,address _IntUnregister,isa 0
     313              
     314                      .dwfde $C$DW$CIE, _IntUnregister
     315              $C$DW$22        .dwtag  DW_TAG_formal_parameter, DW_AT_name("ui32Interrupt")
     316                      .dwattr $C$DW$22, DW_AT_TI_symbol_name("_ui32Interrupt")
     317                      .dwattr $C$DW$22, DW_AT_type(*$C$DW$T$88)
     318                      .dwattr $C$DW$22, DW_AT_location[DW_OP_reg0]
     319              
     320              ;***************************************************************
     321              ;* FNAME: _IntUnregister                FR SIZE:   4           *
     322              ;*                                                             *
     323              ;* FUNCTION ENVIRONMENT                                        *
     324              ;*                                                             *
     325              ;* FUNCTION PROPERTIES                                         *
TMS320C2000 Assembler PC v6.4.2 Thu Dec 14 15:26:49 2017

Tools Copyright (c) 1996-2015 Texas Instruments Incorporated
interrupt.asm                                                        PAGE    7

     326              ;*                            0 Parameter,  4 Auto,  0 SOE     *
     327              ;***************************************************************
     328              
     329 00000023       _IntUnregister:
     330                      .dwcfi  cfa_offset, -2
     331                      .dwcfi  save_reg_to_mem, 26, 0
     332 00000023 FE04          ADDB      SP,#4                 ; [CPU_U] 
     333                      .dwcfi  cfa_offset, -6
     334              $C$DW$23        .dwtag  DW_TAG_variable, DW_AT_name("ui32Interrupt")
     335                      .dwattr $C$DW$23, DW_AT_TI_symbol_name("_ui32Interrupt")
     336                      .dwattr $C$DW$23, DW_AT_type(*$C$DW$T$88)
     337                      .dwattr $C$DW$23, DW_AT_location[DW_OP_breg20 -2]
     338              $C$DW$24        .dwtag  DW_TAG_variable, DW_AT_name("temp")
     339                      .dwattr $C$DW$24, DW_AT_TI_symbol_name("_temp")
     340                      .dwattr $C$DW$24, DW_AT_type(*$C$DW$T$88)
     341                      .dwattr $C$DW$24, DW_AT_location[DW_OP_breg20 -4]
     342 00000024 1E42          MOVL      *-SP[2],ACC           ; [CPU_] |147| 
     343                      .dwpsn  file "../TI/Drivers/interrupt.c",line 150,column 5,is_stmt,isa 0
     344 00000025 8F00+         MOVL      XAR4,#_IntDefaultHandler ; [CPU_U] |150| 
         00000026 0000 
     345 00000027 A844          MOVL      *-SP[4],XAR4          ; [CPU_] |150| 
     346                      .dwpsn  file "../TI/Drivers/interrupt.c",line 152,column 5,is_stmt,isa 0
     347 00000028 7622   EALLOW
     348                      .dwpsn  file "../TI/Drivers/interrupt.c",line 154,column 5,is_stmt,isa 0
     349 00000029 5DAD          MOVZ      AR5,SP                ; [CPU_] |154| 
     350 0000002a 0EA8          MOVU      ACC,AH                ; [CPU_] |154| 
     351 0000002b DD84          SUBB      XAR5,#4               ; [CPU_U] |154| 
     352 0000002c 80A5          MOVZ      AR7,AR5               ; [CPU_] |154| 
     353 0000002d 8F00!         MOVL      XAR4,#_PieVectTable   ; [CPU_U] |154| 
         0000002e 0000 
     354 0000002f FF30          LSL       ACC,1                 ; [CPU_] |154| 
     355 00000030 5601          ADDL      XAR4,ACC              ; [CPU_] |154| 
         00000031 00A4 
     356 00000032 F601          RPT       #1
     357 00000033 2484  ||     PREAD     *XAR4++,*XAR7         ; [CPU_] |154| 
     358                      .dwpsn  file "../TI/Drivers/interrupt.c",line 155,column 5,is_stmt,isa 0
     359 00000034 761A   EDIS
     360                      .dwpsn  file "../TI/Drivers/interrupt.c",line 156,column 1,is_stmt,isa 0
     361 00000035 FF69          SPM       #0                    ; [CPU_] 
     362 00000036 FE84          SUBB      SP,#4                 ; [CPU_U] 
     363                      .dwcfi  cfa_offset, -2
     364              $C$DW$25        .dwtag  DW_TAG_TI_branch
     365                      .dwattr $C$DW$25, DW_AT_low_pc(0x00)
     366                      .dwattr $C$DW$25, DW_AT_TI_return
     367 00000037 0006          LRETR     ; [CPU_] 
     368                      ; return occurs ; [] 
     369                      .dwattr $C$DW$21, DW_AT_TI_end_file("../TI/Drivers/interrupt.c")
     370                      .dwattr $C$DW$21, DW_AT_TI_end_line(0x9c)
     371                      .dwattr $C$DW$21, DW_AT_TI_end_column(0x01)
     372                      .dwendentry
     373                      .dwendtag $C$DW$21
     374              
     375 00000038               .sect   ".text"
     376                      .clink
     377                      .global _IntEnable
TMS320C2000 Assembler PC v6.4.2 Thu Dec 14 15:26:49 2017

Tools Copyright (c) 1996-2015 Texas Instruments Incorporated
interrupt.asm                                                        PAGE    8

     378              
     379              $C$DW$26        .dwtag  DW_TAG_subprogram, DW_AT_name("IntEnable")
     380                      .dwattr $C$DW$26, DW_AT_low_pc(_IntEnable)
     381                      .dwattr $C$DW$26, DW_AT_high_pc(0x00)
     382                      .dwattr $C$DW$26, DW_AT_TI_symbol_name("_IntEnable")
     383                      .dwattr $C$DW$26, DW_AT_external
     384                      .dwattr $C$DW$26, DW_AT_TI_begin_file("../TI/Drivers/interrupt.c")
     385                      .dwattr $C$DW$26, DW_AT_TI_begin_line(0xac)
     386                      .dwattr $C$DW$26, DW_AT_TI_begin_column(0x01)
     387                      .dwattr $C$DW$26, DW_AT_TI_max_frame_size(-6)
     388                      .dwpsn  file "../TI/Drivers/interrupt.c",line 173,column 1,is_stmt,address _IntEnable,isa 0
     389              
     390                      .dwfde $C$DW$CIE, _IntEnable
     391              $C$DW$27        .dwtag  DW_TAG_formal_parameter, DW_AT_name("ui32Interrupt")
     392                      .dwattr $C$DW$27, DW_AT_TI_symbol_name("_ui32Interrupt")
     393                      .dwattr $C$DW$27, DW_AT_type(*$C$DW$T$88)
     394                      .dwattr $C$DW$27, DW_AT_location[DW_OP_reg0]
     395              
     396              ;***************************************************************
     397              ;* FNAME: _IntEnable                    FR SIZE:   4           *
     398              ;*                                                             *
     399              ;* FUNCTION ENVIRONMENT                                        *
     400              ;*                                                             *
     401              ;* FUNCTION PROPERTIES                                         *
     402              ;*                            0 Parameter,  3 Auto,  0 SOE     *
     403              ;***************************************************************
     404              
     405 00000038       _IntEnable:
     406                      .dwcfi  cfa_offset, -2
     407                      .dwcfi  save_reg_to_mem, 26, 0
     408 00000038 FE04          ADDB      SP,#4                 ; [CPU_U] 
     409                      .dwcfi  cfa_offset, -6
     410              $C$DW$28        .dwtag  DW_TAG_variable, DW_AT_name("ui32Interrupt")
     411                      .dwattr $C$DW$28, DW_AT_TI_symbol_name("_ui32Interrupt")
     412                      .dwattr $C$DW$28, DW_AT_type(*$C$DW$T$88)
     413                      .dwattr $C$DW$28, DW_AT_location[DW_OP_breg20 -2]
     414              $C$DW$29        .dwtag  DW_TAG_variable, DW_AT_name("ui16IntsEnabled")
     415                      .dwattr $C$DW$29, DW_AT_TI_symbol_name("_ui16IntsEnabled")
     416                      .dwattr $C$DW$29, DW_AT_type(*$C$DW$T$91)
     417                      .dwattr $C$DW$29, DW_AT_location[DW_OP_breg20 -3]
     418 00000039 1E42          MOVL      *-SP[2],ACC           ; [CPU_] |173| 
     419                      .dwpsn  file "../TI/Drivers/interrupt.c",line 176,column 5,is_stmt,isa 0
     420 0000003a 0EA8          MOVU      ACC,AH                ; [CPU_] |176| 
     421 0000003b 1E42          MOVL      *-SP[2],ACC           ; [CPU_] |176| 
     422                      .dwpsn  file "../TI/Drivers/interrupt.c",line 177,column 5,is_stmt,isa 0
     423 0000003c 7622   EALLOW
     424                      .dwpsn  file "../TI/Drivers/interrupt.c",line 179,column 5,is_stmt,isa 0
     425 0000003d 761F!         MOVW      DP,#_PieCtrlRegs      ; [CPU_U] 
         0000003e 0000 
     426 0000003f 1A00!         OR        @_PieCtrlRegs,#0x0001 ; [CPU_] |179| 
         00000040 0001 
     427                      .dwpsn  file "../TI/Drivers/interrupt.c",line 181,column 5,is_stmt,isa 0
     428 00000041 FF69          SPM       #0                    ; [CPU_] 
     429              $C$DW$30        .dwtag  DW_TAG_TI_branch
     430                      .dwattr $C$DW$30, DW_AT_low_pc(0x00)
TMS320C2000 Assembler PC v6.4.2 Thu Dec 14 15:26:49 2017

Tools Copyright (c) 1996-2015 Texas Instruments Incorporated
interrupt.asm                                                        PAGE    9

     431                      .dwattr $C$DW$30, DW_AT_name("_IntMasterDisable")
     432                      .dwattr $C$DW$30, DW_AT_TI_call
     433 00000042 7640'         LCR       #_IntMasterDisable    ; [CPU_] |181| 
         00000043 0008 
     434                      ; call occurs [#_IntMasterDisable] ; [] |181| 
     435 00000044 9643          MOV       *-SP[3],AL            ; [CPU_] |181| 
     436                      .dwpsn  file "../TI/Drivers/interrupt.c",line 183,column 5,is_stmt,isa 0
     437 00000045 0220          MOVB      ACC,#32               ; [CPU_] |183| 
     438 00000046 0F42          CMPL      ACC,*-SP[2]           ; [CPU_] |183| 
     439 00000047 56C6          BF        $C$L3,HI              ; [CPU_] |183| 
         00000048 0038 
     440                      ; branchcc occurs ; [] |183| 
     441 00000049 027F          MOVB      ACC,#127              ; [CPU_] |183| 
     442 0000004a 0F42          CMPL      ACC,*-SP[2]           ; [CPU_] |183| 
     443 0000004b 56C8          BF        $C$L3,LO              ; [CPU_] |183| 
         0000004c 0034 
     444                      ; branchcc occurs ; [] |183| 
     445                      .dwpsn  file "../TI/Drivers/interrupt.c",line 186,column 9,is_stmt,isa 0
     446 0000004d 0642          MOVL      ACC,*-SP[2]           ; [CPU_] |186| 
     447 0000004e 2901          CLRC      SXM                   ; [CPU_] 
     448 0000004f 8F00!         MOVL      XAR4,#_PieCtrlRegs+2  ; [CPU_U] |186| 
         00000050 0002 
     449 00000051 1920          SUBB      ACC,#32               ; [CPU_] |186| 
     450 00000052 FF42          SFR       ACC,3                 ; [CPU_] |186| 
     451 00000053 FF30          LSL       ACC,1                 ; [CPU_] |186| 
     452 00000054 5601          ADDL      XAR4,ACC              ; [CPU_] |186| 
         00000055 00A4 
     453 00000056 9242          MOV       AL,*-SP[2]            ; [CPU_] |186| 
     454 00000057 9B01          MOVB      AH,#1                 ; [CPU_] |186| 
     455 00000058 9CE0          ADDB      AL,#-32               ; [CPU_] |186| 
     456 00000059 9007          ANDB      AL,#0x07              ; [CPU_] |186| 
     457 0000005a 2DA9          MOV       T,AL                  ; [CPU_] |186| 
     458 0000005b FF67          LSL       AH,T                  ; [CPU_] |186| 
     459 0000005c 99C4          OR        *+XAR4[0],AH          ; [CPU_] |186| 
     460                      .dwpsn  file "../TI/Drivers/interrupt.c",line 189,column 9,is_stmt,isa 0
     461 0000005d 7700   nop
     462                      .dwpsn  file "../TI/Drivers/interrupt.c",line 190,column 9,is_stmt,isa 0
     463 0000005e 7700   nop
     464                      .dwpsn  file "../TI/Drivers/interrupt.c",line 191,column 9,is_stmt,isa 0
     465 0000005f 7700   nop
     466                      .dwpsn  file "../TI/Drivers/interrupt.c",line 192,column 9,is_stmt,isa 0
     467 00000060 7700   nop
     468                      .dwpsn  file "../TI/Drivers/interrupt.c",line 193,column 9,is_stmt,isa 0
     469 00000061 7700   nop
     470                      .dwpsn  file "../TI/Drivers/interrupt.c",line 196,column 9,is_stmt,isa 0
     471 00000062 FF69          SPM       #0                    ; [CPU_] 
     472 00000063 0642          MOVL      ACC,*-SP[2]           ; [CPU_] |196| 
     473 00000064 1920          SUBB      ACC,#32               ; [CPU_] |196| 
     474 00000065 FF42          SFR       ACC,3                 ; [CPU_] |196| 
     475 00000066 2DA9          MOV       T,AL                  ; [CPU_] |196| 
     476 00000067 9A01          MOVB      AL,#1                 ; [CPU_] |196| 
     477 00000068 FF66          LSL       AL,T                  ; [CPU_] |196| 
     478              $C$DW$31        .dwtag  DW_TAG_TI_branch
     479                      .dwattr $C$DW$31, DW_AT_low_pc(0x00)
     480                      .dwattr $C$DW$31, DW_AT_name("_IntIFRClear")
TMS320C2000 Assembler PC v6.4.2 Thu Dec 14 15:26:49 2017

Tools Copyright (c) 1996-2015 Texas Instruments Incorporated
interrupt.asm                                                        PAGE   10

     481                      .dwattr $C$DW$31, DW_AT_TI_call
     482 00000069 7640'         LCR       #_IntIFRClear         ; [CPU_] |196| 
         0000006a 0155 
     483                      ; call occurs [#_IntIFRClear] ; [] |196| 
     484                      .dwpsn  file "../TI/Drivers/interrupt.c",line 199,column 9,is_stmt,isa 0
     485 0000006b 2901          CLRC      SXM                   ; [CPU_] 
     486 0000006c 0642          MOVL      ACC,*-SP[2]           ; [CPU_] |199| 
     487 0000006d 761F!         MOVW      DP,#_PieCtrlRegs+1    ; [CPU_U] 
         0000006e 0000 
     488 0000006f 1920          SUBB      ACC,#32               ; [CPU_] |199| 
     489 00000070 FF42          SFR       ACC,3                 ; [CPU_] |199| 
     490 00000071 2DA9          MOV       T,AL                  ; [CPU_] |199| 
     491 00000072 9A01          MOVB      AL,#1                 ; [CPU_] |199| 
     492 00000073 FF66          LSL       AL,T                  ; [CPU_] |199| 
     493 00000074 9601!         MOV       @_PieCtrlRegs+1,AL    ; [CPU_] |199| 
     494                      .dwpsn  file "../TI/Drivers/interrupt.c",line 202,column 9,is_stmt,isa 0
     495 00000075 0642          MOVL      ACC,*-SP[2]           ; [CPU_] |202| 
     496 00000076 1920          SUBB      ACC,#32               ; [CPU_] |202| 
     497 00000077 FF42          SFR       ACC,3                 ; [CPU_] |202| 
     498 00000078 2DA9          MOV       T,AL                  ; [CPU_] |202| 
     499 00000079 9A01          MOVB      AL,#1                 ; [CPU_] |202| 
     500 0000007a FF66          LSL       AL,T                  ; [CPU_] |202| 
     501 0000007b 20A8          MOV       AH,IER                ; [CPU_] |202| 
     502 0000007c CAA8          OR        AL,AH                 ; [CPU_] |202| 
     503 0000007d 23A9          MOV       IER,AL                ; [CPU_] |202| 
     504                      .dwpsn  file "../TI/Drivers/interrupt.c",line 203,column 5,is_stmt,isa 0
     505 0000007e 6F49          B         $C$L5,UNC             ; [CPU_] |203| 
     506                      ; branch occurs ; [] |203| 
     507 0000007f       $C$L3:    
     508                      .dwpsn  file "../TI/Drivers/interrupt.c",line 204,column 10,is_stmt,isa 0
     509 0000007f 0280          MOVB      ACC,#128              ; [CPU_] |204| 
     510 00000080 0F42          CMPL      ACC,*-SP[2]           ; [CPU_] |204| 
     511 00000081 56C6          BF        $C$L4,HI              ; [CPU_] |204| 
         00000082 0036 
     512                      ; branchcc occurs ; [] |204| 
     513                      .dwpsn  file "../TI/Drivers/interrupt.c",line 207,column 9,is_stmt,isa 0
     514 00000083 0642          MOVL      ACC,*-SP[2]           ; [CPU_] |207| 
     515 00000084 2901          CLRC      SXM                   ; [CPU_] 
     516 00000085 8F00!         MOVL      XAR4,#_PieCtrlRegs+2  ; [CPU_U] |207| 
         00000086 0002 
     517 00000087 1980          SUBB      ACC,#128              ; [CPU_] |207| 
     518 00000088 FF42          SFR       ACC,3                 ; [CPU_] |207| 
     519 00000089 FF30          LSL       ACC,1                 ; [CPU_] |207| 
     520 0000008a 5601          ADDL      XAR4,ACC              ; [CPU_] |207| 
         0000008b 00A4 
     521 0000008c 9242          MOV       AL,*-SP[2]            ; [CPU_] |207| 
     522 0000008d 9B01          MOVB      AH,#1                 ; [CPU_] |207| 
     523 0000008e 08A9          SUB       AL,#128               ; [CPU_] |207| 
         0000008f FF80 
     524 00000090 9007          ANDB      AL,#0x07              ; [CPU_] |207| 
     525 00000091 9C08          ADDB      AL,#8                 ; [CPU_] |207| 
     526 00000092 2DA9          MOV       T,AL                  ; [CPU_] |207| 
     527 00000093 FF67          LSL       AH,T                  ; [CPU_] |207| 
     528 00000094 99C4          OR        *+XAR4[0],AH          ; [CPU_] |207| 
     529                      .dwpsn  file "../TI/Drivers/interrupt.c",line 210,column 9,is_stmt,isa 0
TMS320C2000 Assembler PC v6.4.2 Thu Dec 14 15:26:49 2017

Tools Copyright (c) 1996-2015 Texas Instruments Incorporated
interrupt.asm                                                        PAGE   11

     530 00000095 7700   nop
     531                      .dwpsn  file "../TI/Drivers/interrupt.c",line 211,column 9,is_stmt,isa 0
     532 00000096 7700   nop
     533                      .dwpsn  file "../TI/Drivers/interrupt.c",line 212,column 9,is_stmt,isa 0
     534 00000097 7700   nop
     535                      .dwpsn  file "../TI/Drivers/interrupt.c",line 213,column 9,is_stmt,isa 0
     536 00000098 7700   nop
     537                      .dwpsn  file "../TI/Drivers/interrupt.c",line 214,column 9,is_stmt,isa 0
     538 00000099 7700   nop
     539                      .dwpsn  file "../TI/Drivers/interrupt.c",line 217,column 9,is_stmt,isa 0
     540 0000009a FF69          SPM       #0                    ; [CPU_] 
     541 0000009b 0642          MOVL      ACC,*-SP[2]           ; [CPU_] |217| 
     542 0000009c 1980          SUBB      ACC,#128              ; [CPU_] |217| 
     543 0000009d FF42          SFR       ACC,3                 ; [CPU_] |217| 
     544 0000009e 2DA9          MOV       T,AL                  ; [CPU_] |217| 
     545 0000009f 9A01          MOVB      AL,#1                 ; [CPU_] |217| 
     546 000000a0 FF66          LSL       AL,T                  ; [CPU_] |217| 
     547              $C$DW$32        .dwtag  DW_TAG_TI_branch
     548                      .dwattr $C$DW$32, DW_AT_low_pc(0x00)
     549                      .dwattr $C$DW$32, DW_AT_name("_IntIFRClear")
     550                      .dwattr $C$DW$32, DW_AT_TI_call
     551 000000a1 7640'         LCR       #_IntIFRClear         ; [CPU_] |217| 
         000000a2 0155 
     552                      ; call occurs [#_IntIFRClear] ; [] |217| 
     553                      .dwpsn  file "../TI/Drivers/interrupt.c",line 220,column 9,is_stmt,isa 0
     554 000000a3 2901          CLRC      SXM                   ; [CPU_] 
     555 000000a4 0642          MOVL      ACC,*-SP[2]           ; [CPU_] |220| 
     556 000000a5 761F!         MOVW      DP,#_PieCtrlRegs+1    ; [CPU_U] 
         000000a6 0000 
     557 000000a7 1980          SUBB      ACC,#128              ; [CPU_] |220| 
     558 000000a8 FF42          SFR       ACC,3                 ; [CPU_] |220| 
     559 000000a9 2DA9          MOV       T,AL                  ; [CPU_] |220| 
     560 000000aa 9A01          MOVB      AL,#1                 ; [CPU_] |220| 
     561 000000ab FF66          LSL       AL,T                  ; [CPU_] |220| 
     562 000000ac 9601!         MOV       @_PieCtrlRegs+1,AL    ; [CPU_] |220| 
     563                      .dwpsn  file "../TI/Drivers/interrupt.c",line 223,column 9,is_stmt,isa 0
     564 000000ad 0642          MOVL      ACC,*-SP[2]           ; [CPU_] |223| 
     565 000000ae 1980          SUBB      ACC,#128              ; [CPU_] |223| 
     566 000000af FF42          SFR       ACC,3                 ; [CPU_] |223| 
     567 000000b0 2DA9          MOV       T,AL                  ; [CPU_] |223| 
     568 000000b1 9A01          MOVB      AL,#1                 ; [CPU_] |223| 
     569 000000b2 FF66          LSL       AL,T                  ; [CPU_] |223| 
     570 000000b3 20A8          MOV       AH,IER                ; [CPU_] |223| 
     571 000000b4 CAA8          OR        AL,AH                 ; [CPU_] |223| 
     572 000000b5 23A9          MOV       IER,AL                ; [CPU_] |223| 
     573                      .dwpsn  file "../TI/Drivers/interrupt.c",line 224,column 5,is_stmt,isa 0
     574 000000b6 6F11          B         $C$L5,UNC             ; [CPU_] |224| 
     575                      ; branch occurs ; [] |224| 
     576 000000b7       $C$L4:    
     577                      .dwpsn  file "../TI/Drivers/interrupt.c",line 225,column 10,is_stmt,isa 0
     578 000000b7 020D          MOVB      ACC,#13               ; [CPU_] |225| 
     579 000000b8 0F42          CMPL      ACC,*-SP[2]           ; [CPU_] |225| 
     580 000000b9 56C6          BF        $C$L5,HI              ; [CPU_] |225| 
         000000ba 000E 
     581                      ; branchcc occurs ; [] |225| 
TMS320C2000 Assembler PC v6.4.2 Thu Dec 14 15:26:49 2017

Tools Copyright (c) 1996-2015 Texas Instruments Incorporated
interrupt.asm                                                        PAGE   12

     582 000000bb 0210          MOVB      ACC,#16               ; [CPU_] |225| 
     583 000000bc 0F42          CMPL      ACC,*-SP[2]           ; [CPU_] |225| 
     584 000000bd 56C8          BF        $C$L5,LO              ; [CPU_] |225| 
         000000be 000A 
     585                      ; branchcc occurs ; [] |225| 
     586                      .dwpsn  file "../TI/Drivers/interrupt.c",line 228,column 9,is_stmt,isa 0
     587 000000bf 9242          MOV       AL,*-SP[2]            ; [CPU_] |228| 
     588 000000c0 9CFF          ADDB      AL,#-1                ; [CPU_] |228| 
     589 000000c1 2DA9          MOV       T,AL                  ; [CPU_] |228| 
     590 000000c2 9A01          MOVB      AL,#1                 ; [CPU_] |228| 
     591 000000c3 FF66          LSL       AL,T                  ; [CPU_] |228| 
     592 000000c4 20A8          MOV       AH,IER                ; [CPU_] |228| 
     593 000000c5 CAA8          OR        AL,AH                 ; [CPU_] |228| 
     594 000000c6 23A9          MOV       IER,AL                ; [CPU_] |228| 
     595                      .dwpsn  file "../TI/Drivers/interrupt.c",line 229,column 5,is_stmt,isa 0
     596 000000c7       $C$L5:    
     597                      .dwpsn  file "../TI/Drivers/interrupt.c",line 235,column 5,is_stmt,isa 0
     598 000000c7 761A   EDIS
     599                      .dwpsn  file "../TI/Drivers/interrupt.c",line 238,column 5,is_stmt,isa 0
     600 000000c8 9243          MOV       AL,*-SP[3]            ; [CPU_] |238| 
     601 000000c9 ED04          BF        $C$L6,NEQ             ; [CPU_] |238| 
     602                      ; branchcc occurs ; [] |238| 
     603                      .dwpsn  file "../TI/Drivers/interrupt.c",line 239,column 9,is_stmt,isa 0
     604 000000ca FF69          SPM       #0                    ; [CPU_] 
     605              $C$DW$33        .dwtag  DW_TAG_TI_branch
     606                      .dwattr $C$DW$33, DW_AT_low_pc(0x00)
     607                      .dwattr $C$DW$33, DW_AT_name("_IntMasterEnable")
     608                      .dwattr $C$DW$33, DW_AT_TI_call
     609 000000cb 7640'         LCR       #_IntMasterEnable     ; [CPU_] |239| 
         000000cc 0000 
     610                      ; call occurs [#_IntMasterEnable] ; [] |239| 
     611                      .dwpsn  file "../TI/Drivers/interrupt.c",line 241,column 1,is_stmt,isa 0
     612 000000cd       $C$L6:    
     613 000000cd FE84          SUBB      SP,#4                 ; [CPU_U] 
     614                      .dwcfi  cfa_offset, -2
     615 000000ce FF69          SPM       #0                    ; [CPU_] 
     616              $C$DW$34        .dwtag  DW_TAG_TI_branch
     617                      .dwattr $C$DW$34, DW_AT_low_pc(0x00)
     618                      .dwattr $C$DW$34, DW_AT_TI_return
     619 000000cf 0006          LRETR     ; [CPU_] 
     620                      ; return occurs ; [] 
     621                      .dwattr $C$DW$26, DW_AT_TI_end_file("../TI/Drivers/interrupt.c")
     622                      .dwattr $C$DW$26, DW_AT_TI_end_line(0xf1)
     623                      .dwattr $C$DW$26, DW_AT_TI_end_column(0x01)
     624                      .dwendentry
     625                      .dwendtag $C$DW$26
     626              
     627 000000d0               .sect   ".text"
     628                      .clink
     629                      .global _IntDisable
     630              
     631              $C$DW$35        .dwtag  DW_TAG_subprogram, DW_AT_name("IntDisable")
     632                      .dwattr $C$DW$35, DW_AT_low_pc(_IntDisable)
     633                      .dwattr $C$DW$35, DW_AT_high_pc(0x00)
     634                      .dwattr $C$DW$35, DW_AT_TI_symbol_name("_IntDisable")
TMS320C2000 Assembler PC v6.4.2 Thu Dec 14 15:26:49 2017

Tools Copyright (c) 1996-2015 Texas Instruments Incorporated
interrupt.asm                                                        PAGE   13

     635                      .dwattr $C$DW$35, DW_AT_external
     636                      .dwattr $C$DW$35, DW_AT_TI_begin_file("../TI/Drivers/interrupt.c")
     637                      .dwattr $C$DW$35, DW_AT_TI_begin_line(0x101)
     638                      .dwattr $C$DW$35, DW_AT_TI_begin_column(0x01)
     639                      .dwattr $C$DW$35, DW_AT_TI_max_frame_size(-6)
     640                      .dwpsn  file "../TI/Drivers/interrupt.c",line 258,column 1,is_stmt,address _IntDisable,isa 0
     641              
     642                      .dwfde $C$DW$CIE, _IntDisable
     643              $C$DW$36        .dwtag  DW_TAG_formal_parameter, DW_AT_name("ui32Interrupt")
     644                      .dwattr $C$DW$36, DW_AT_TI_symbol_name("_ui32Interrupt")
     645                      .dwattr $C$DW$36, DW_AT_type(*$C$DW$T$88)
     646                      .dwattr $C$DW$36, DW_AT_location[DW_OP_reg0]
     647              
     648              ;***************************************************************
     649              ;* FNAME: _IntDisable                   FR SIZE:   4           *
     650              ;*                                                             *
     651              ;* FUNCTION ENVIRONMENT                                        *
     652              ;*                                                             *
     653              ;* FUNCTION PROPERTIES                                         *
     654              ;*                            0 Parameter,  3 Auto,  0 SOE     *
     655              ;***************************************************************
     656              
     657 000000d0       _IntDisable:
     658                      .dwcfi  cfa_offset, -2
     659                      .dwcfi  save_reg_to_mem, 26, 0
     660 000000d0 FE04          ADDB      SP,#4                 ; [CPU_U] 
     661                      .dwcfi  cfa_offset, -6
     662              $C$DW$37        .dwtag  DW_TAG_variable, DW_AT_name("ui32Interrupt")
     663                      .dwattr $C$DW$37, DW_AT_TI_symbol_name("_ui32Interrupt")
     664                      .dwattr $C$DW$37, DW_AT_type(*$C$DW$T$88)
     665                      .dwattr $C$DW$37, DW_AT_location[DW_OP_breg20 -2]
     666              $C$DW$38        .dwtag  DW_TAG_variable, DW_AT_name("ui16IntsEnabled")
     667                      .dwattr $C$DW$38, DW_AT_TI_symbol_name("_ui16IntsEnabled")
     668                      .dwattr $C$DW$38, DW_AT_type(*$C$DW$T$91)
     669                      .dwattr $C$DW$38, DW_AT_location[DW_OP_breg20 -3]
     670 000000d1 1E42          MOVL      *-SP[2],ACC           ; [CPU_] |258| 
     671                      .dwpsn  file "../TI/Drivers/interrupt.c",line 261,column 5,is_stmt,isa 0
     672 000000d2 0EA8          MOVU      ACC,AH                ; [CPU_] |261| 
     673 000000d3 1E42          MOVL      *-SP[2],ACC           ; [CPU_] |261| 
     674                      .dwpsn  file "../TI/Drivers/interrupt.c",line 262,column 5,is_stmt,isa 0
     675 000000d4 7622   EALLOW
     676                      .dwpsn  file "../TI/Drivers/interrupt.c",line 264,column 5,is_stmt,isa 0
     677 000000d5 FF69          SPM       #0                    ; [CPU_] 
     678              $C$DW$39        .dwtag  DW_TAG_TI_branch
     679                      .dwattr $C$DW$39, DW_AT_low_pc(0x00)
     680                      .dwattr $C$DW$39, DW_AT_name("_IntMasterDisable")
     681                      .dwattr $C$DW$39, DW_AT_TI_call
     682 000000d6 7640'         LCR       #_IntMasterDisable    ; [CPU_] |264| 
         000000d7 0008 
     683                      ; call occurs [#_IntMasterDisable] ; [] |264| 
     684 000000d8 9643          MOV       *-SP[3],AL            ; [CPU_] |264| 
     685                      .dwpsn  file "../TI/Drivers/interrupt.c",line 266,column 5,is_stmt,isa 0
     686 000000d9 0220          MOVB      ACC,#32               ; [CPU_] |266| 
     687 000000da 0F42          CMPL      ACC,*-SP[2]           ; [CPU_] |266| 
     688 000000db 56C6          BF        $C$L7,HI              ; [CPU_] |266| 
TMS320C2000 Assembler PC v6.4.2 Thu Dec 14 15:26:49 2017

Tools Copyright (c) 1996-2015 Texas Instruments Incorporated
interrupt.asm                                                        PAGE   14

         000000dc 0030 
     689                      ; branchcc occurs ; [] |266| 
     690 000000dd 027F          MOVB      ACC,#127              ; [CPU_] |266| 
     691 000000de 0F42          CMPL      ACC,*-SP[2]           ; [CPU_] |266| 
     692 000000df 56C8          BF        $C$L7,LO              ; [CPU_] |266| 
         000000e0 002C 
     693                      ; branchcc occurs ; [] |266| 
     694                      .dwpsn  file "../TI/Drivers/interrupt.c",line 269,column 9,is_stmt,isa 0
     695 000000e1 0642          MOVL      ACC,*-SP[2]           ; [CPU_] |269| 
     696 000000e2 2901          CLRC      SXM                   ; [CPU_] 
     697 000000e3 8F00!         MOVL      XAR4,#_PieCtrlRegs+2  ; [CPU_U] |269| 
         000000e4 0002 
     698 000000e5 1920          SUBB      ACC,#32               ; [CPU_] |269| 
     699 000000e6 FF42          SFR       ACC,3                 ; [CPU_] |269| 
     700 000000e7 FF30          LSL       ACC,1                 ; [CPU_] |269| 
     701 000000e8 5601          ADDL      XAR4,ACC              ; [CPU_] |269| 
         000000e9 00A4 
     702 000000ea 9242          MOV       AL,*-SP[2]            ; [CPU_] |269| 
     703 000000eb 9B01          MOVB      AH,#1                 ; [CPU_] |269| 
     704 000000ec 9CE0          ADDB      AL,#-32               ; [CPU_] |269| 
     705 000000ed 9007          ANDB      AL,#0x07              ; [CPU_] |269| 
     706 000000ee 2DA9          MOV       T,AL                  ; [CPU_] |269| 
     707 000000ef FF67          LSL       AH,T                  ; [CPU_] |269| 
     708 000000f0 FF5F          NOT       AH                    ; [CPU_] |269| 
     709 000000f1 C1C4          AND       *+XAR4[0],AH          ; [CPU_] |269| 
     710                      .dwpsn  file "../TI/Drivers/interrupt.c",line 272,column 9,is_stmt,isa 0
     711 000000f2 7700   nop
     712                      .dwpsn  file "../TI/Drivers/interrupt.c",line 273,column 9,is_stmt,isa 0
     713 000000f3 7700   nop
     714                      .dwpsn  file "../TI/Drivers/interrupt.c",line 274,column 9,is_stmt,isa 0
     715 000000f4 7700   nop
     716                      .dwpsn  file "../TI/Drivers/interrupt.c",line 275,column 9,is_stmt,isa 0
     717 000000f5 7700   nop
     718                      .dwpsn  file "../TI/Drivers/interrupt.c",line 276,column 9,is_stmt,isa 0
     719 000000f6 7700   nop
     720                      .dwpsn  file "../TI/Drivers/interrupt.c",line 279,column 9,is_stmt,isa 0
     721 000000f7 FF69          SPM       #0                    ; [CPU_] 
     722 000000f8 0642          MOVL      ACC,*-SP[2]           ; [CPU_] |279| 
     723 000000f9 1920          SUBB      ACC,#32               ; [CPU_] |279| 
     724 000000fa FF42          SFR       ACC,3                 ; [CPU_] |279| 
     725 000000fb 2DA9          MOV       T,AL                  ; [CPU_] |279| 
     726 000000fc 9A01          MOVB      AL,#1                 ; [CPU_] |279| 
     727 000000fd FF66          LSL       AL,T                  ; [CPU_] |279| 
     728              $C$DW$40        .dwtag  DW_TAG_TI_branch
     729                      .dwattr $C$DW$40, DW_AT_low_pc(0x00)
     730                      .dwattr $C$DW$40, DW_AT_name("_IntIFRClear")
     731                      .dwattr $C$DW$40, DW_AT_TI_call
     732 000000fe 7640'         LCR       #_IntIFRClear         ; [CPU_] |279| 
         000000ff 0155 
     733                      ; call occurs [#_IntIFRClear] ; [] |279| 
     734                      .dwpsn  file "../TI/Drivers/interrupt.c",line 282,column 9,is_stmt,isa 0
     735 00000100 2901          CLRC      SXM                   ; [CPU_] 
     736 00000101 0642          MOVL      ACC,*-SP[2]           ; [CPU_] |282| 
     737 00000102 761F!         MOVW      DP,#_PieCtrlRegs+1    ; [CPU_U] 
         00000103 0000 
TMS320C2000 Assembler PC v6.4.2 Thu Dec 14 15:26:49 2017

Tools Copyright (c) 1996-2015 Texas Instruments Incorporated
interrupt.asm                                                        PAGE   15

     738 00000104 1920          SUBB      ACC,#32               ; [CPU_] |282| 
     739 00000105 FF42          SFR       ACC,3                 ; [CPU_] |282| 
     740 00000106 2DA9          MOV       T,AL                  ; [CPU_] |282| 
     741 00000107 9A01          MOVB      AL,#1                 ; [CPU_] |282| 
     742 00000108 FF66          LSL       AL,T                  ; [CPU_] |282| 
     743 00000109 9601!         MOV       @_PieCtrlRegs+1,AL    ; [CPU_] |282| 
     744                      .dwpsn  file "../TI/Drivers/interrupt.c",line 283,column 5,is_stmt,isa 0
     745 0000010a 6F42          B         $C$L9,UNC             ; [CPU_] |283| 
     746                      ; branch occurs ; [] |283| 
     747 0000010b       $C$L7:    
     748                      .dwpsn  file "../TI/Drivers/interrupt.c",line 284,column 10,is_stmt,isa 0
     749 0000010b 0280          MOVB      ACC,#128              ; [CPU_] |284| 
     750 0000010c 0F42          CMPL      ACC,*-SP[2]           ; [CPU_] |284| 
     751 0000010d 56C6          BF        $C$L8,HI              ; [CPU_] |284| 
         0000010e 002E 
     752                      ; branchcc occurs ; [] |284| 
     753                      .dwpsn  file "../TI/Drivers/interrupt.c",line 287,column 9,is_stmt,isa 0
     754 0000010f 0642          MOVL      ACC,*-SP[2]           ; [CPU_] |287| 
     755 00000110 2901          CLRC      SXM                   ; [CPU_] 
     756 00000111 8F00!         MOVL      XAR4,#_PieCtrlRegs+2  ; [CPU_U] |287| 
         00000112 0002 
     757 00000113 1980          SUBB      ACC,#128              ; [CPU_] |287| 
     758 00000114 FF42          SFR       ACC,3                 ; [CPU_] |287| 
     759 00000115 FF30          LSL       ACC,1                 ; [CPU_] |287| 
     760 00000116 5601          ADDL      XAR4,ACC              ; [CPU_] |287| 
         00000117 00A4 
     761 00000118 9242          MOV       AL,*-SP[2]            ; [CPU_] |287| 
     762 00000119 9B01          MOVB      AH,#1                 ; [CPU_] |287| 
     763 0000011a 08A9          SUB       AL,#128               ; [CPU_] |287| 
         0000011b FF80 
     764 0000011c 9007          ANDB      AL,#0x07              ; [CPU_] |287| 
     765 0000011d 9C08          ADDB      AL,#8                 ; [CPU_] |287| 
     766 0000011e 2DA9          MOV       T,AL                  ; [CPU_] |287| 
     767 0000011f FF67          LSL       AH,T                  ; [CPU_] |287| 
     768 00000120 FF5F          NOT       AH                    ; [CPU_] |287| 
     769 00000121 C1C4          AND       *+XAR4[0],AH          ; [CPU_] |287| 
     770                      .dwpsn  file "../TI/Drivers/interrupt.c",line 290,column 9,is_stmt,isa 0
     771 00000122 7700   nop
     772                      .dwpsn  file "../TI/Drivers/interrupt.c",line 291,column 9,is_stmt,isa 0
     773 00000123 7700   nop
     774                      .dwpsn  file "../TI/Drivers/interrupt.c",line 292,column 9,is_stmt,isa 0
     775 00000124 7700   nop
     776                      .dwpsn  file "../TI/Drivers/interrupt.c",line 293,column 9,is_stmt,isa 0
     777 00000125 7700   nop
     778                      .dwpsn  file "../TI/Drivers/interrupt.c",line 294,column 9,is_stmt,isa 0
     779 00000126 7700   nop
     780                      .dwpsn  file "../TI/Drivers/interrupt.c",line 297,column 9,is_stmt,isa 0
     781 00000127 FF69          SPM       #0                    ; [CPU_] 
     782 00000128 0642          MOVL      ACC,*-SP[2]           ; [CPU_] |297| 
     783 00000129 1980          SUBB      ACC,#128              ; [CPU_] |297| 
     784 0000012a FF42          SFR       ACC,3                 ; [CPU_] |297| 
     785 0000012b 2DA9          MOV       T,AL                  ; [CPU_] |297| 
     786 0000012c 9A01          MOVB      AL,#1                 ; [CPU_] |297| 
     787 0000012d FF66          LSL       AL,T                  ; [CPU_] |297| 
     788              $C$DW$41        .dwtag  DW_TAG_TI_branch
TMS320C2000 Assembler PC v6.4.2 Thu Dec 14 15:26:49 2017

Tools Copyright (c) 1996-2015 Texas Instruments Incorporated
interrupt.asm                                                        PAGE   16

     789                      .dwattr $C$DW$41, DW_AT_low_pc(0x00)
     790                      .dwattr $C$DW$41, DW_AT_name("_IntIFRClear")
     791                      .dwattr $C$DW$41, DW_AT_TI_call
     792 0000012e 7640'         LCR       #_IntIFRClear         ; [CPU_] |297| 
         0000012f 0155 
     793                      ; call occurs [#_IntIFRClear] ; [] |297| 
     794                      .dwpsn  file "../TI/Drivers/interrupt.c",line 300,column 9,is_stmt,isa 0
     795 00000130 2901          CLRC      SXM                   ; [CPU_] 
     796 00000131 0642          MOVL      ACC,*-SP[2]           ; [CPU_] |300| 
     797 00000132 761F!         MOVW      DP,#_PieCtrlRegs+1    ; [CPU_U] 
         00000133 0000 
     798 00000134 1980          SUBB      ACC,#128              ; [CPU_] |300| 
     799 00000135 FF42          SFR       ACC,3                 ; [CPU_] |300| 
     800 00000136 2DA9          MOV       T,AL                  ; [CPU_] |300| 
     801 00000137 9A01          MOVB      AL,#1                 ; [CPU_] |300| 
     802 00000138 FF66          LSL       AL,T                  ; [CPU_] |300| 
     803 00000139 9601!         MOV       @_PieCtrlRegs+1,AL    ; [CPU_] |300| 
     804                      .dwpsn  file "../TI/Drivers/interrupt.c",line 301,column 5,is_stmt,isa 0
     805 0000013a 6F12          B         $C$L9,UNC             ; [CPU_] |301| 
     806                      ; branch occurs ; [] |301| 
     807 0000013b       $C$L8:    
     808                      .dwpsn  file "../TI/Drivers/interrupt.c",line 302,column 10,is_stmt,isa 0
     809 0000013b 020D          MOVB      ACC,#13               ; [CPU_] |302| 
     810 0000013c 0F42          CMPL      ACC,*-SP[2]           ; [CPU_] |302| 
     811 0000013d 56C6          BF        $C$L9,HI              ; [CPU_] |302| 
         0000013e 000F 
     812                      ; branchcc occurs ; [] |302| 
     813 0000013f 0210          MOVB      ACC,#16               ; [CPU_] |302| 
     814 00000140 0F42          CMPL      ACC,*-SP[2]           ; [CPU_] |302| 
     815 00000141 56C8          BF        $C$L9,LO              ; [CPU_] |302| 
         00000142 000B 
     816                      ; branchcc occurs ; [] |302| 
     817                      .dwpsn  file "../TI/Drivers/interrupt.c",line 305,column 9,is_stmt,isa 0
     818 00000143 9242          MOV       AL,*-SP[2]            ; [CPU_] |305| 
     819 00000144 9CFF          ADDB      AL,#-1                ; [CPU_] |305| 
     820 00000145 2DA9          MOV       T,AL                  ; [CPU_] |305| 
     821 00000146 9A01          MOVB      AL,#1                 ; [CPU_] |305| 
     822 00000147 FF66          LSL       AL,T                  ; [CPU_] |305| 
     823 00000148 FF5E          NOT       AL                    ; [CPU_] |305| 
     824 00000149 20A8          MOV       AH,IER                ; [CPU_] |305| 
     825 0000014a CEA8          AND       AL,AH                 ; [CPU_] |305| 
     826 0000014b 23A9          MOV       IER,AL                ; [CPU_] |305| 
     827                      .dwpsn  file "../TI/Drivers/interrupt.c",line 306,column 5,is_stmt,isa 0
     828 0000014c       $C$L9:    
     829                      .dwpsn  file "../TI/Drivers/interrupt.c",line 311,column 5,is_stmt,isa 0
     830 0000014c 761A   EDIS
     831                      .dwpsn  file "../TI/Drivers/interrupt.c",line 314,column 5,is_stmt,isa 0
     832 0000014d 9243          MOV       AL,*-SP[3]            ; [CPU_] |314| 
     833 0000014e ED04          BF        $C$L10,NEQ            ; [CPU_] |314| 
     834                      ; branchcc occurs ; [] |314| 
     835                      .dwpsn  file "../TI/Drivers/interrupt.c",line 315,column 9,is_stmt,isa 0
     836 0000014f FF69          SPM       #0                    ; [CPU_] 
     837              $C$DW$42        .dwtag  DW_TAG_TI_branch
     838                      .dwattr $C$DW$42, DW_AT_low_pc(0x00)
     839                      .dwattr $C$DW$42, DW_AT_name("_IntMasterEnable")
TMS320C2000 Assembler PC v6.4.2 Thu Dec 14 15:26:49 2017

Tools Copyright (c) 1996-2015 Texas Instruments Incorporated
interrupt.asm                                                        PAGE   17

     840                      .dwattr $C$DW$42, DW_AT_TI_call
     841 00000150 7640'         LCR       #_IntMasterEnable     ; [CPU_] |315| 
         00000151 0000 
     842                      ; call occurs [#_IntMasterEnable] ; [] |315| 
     843                      .dwpsn  file "../TI/Drivers/interrupt.c",line 317,column 1,is_stmt,isa 0
     844 00000152       $C$L10:    
     845 00000152 FE84          SUBB      SP,#4                 ; [CPU_U] 
     846                      .dwcfi  cfa_offset, -2
     847 00000153 FF69          SPM       #0                    ; [CPU_] 
     848              $C$DW$43        .dwtag  DW_TAG_TI_branch
     849                      .dwattr $C$DW$43, DW_AT_low_pc(0x00)
     850                      .dwattr $C$DW$43, DW_AT_TI_return
     851 00000154 0006          LRETR     ; [CPU_] 
     852                      ; return occurs ; [] 
     853                      .dwattr $C$DW$35, DW_AT_TI_end_file("../TI/Drivers/interrupt.c")
     854                      .dwattr $C$DW$35, DW_AT_TI_end_line(0x13d)
     855                      .dwattr $C$DW$35, DW_AT_TI_end_column(0x01)
     856                      .dwendentry
     857                      .dwendtag $C$DW$35
     858              
     859 00000155               .sect   ".text"
     860                      .clink
     861                      .global _IntIFRClear
     862              
     863              $C$DW$44        .dwtag  DW_TAG_subprogram, DW_AT_name("IntIFRClear")
     864                      .dwattr $C$DW$44, DW_AT_low_pc(_IntIFRClear)
     865                      .dwattr $C$DW$44, DW_AT_high_pc(0x00)
     866                      .dwattr $C$DW$44, DW_AT_TI_symbol_name("_IntIFRClear")
     867                      .dwattr $C$DW$44, DW_AT_external
     868                      .dwattr $C$DW$44, DW_AT_TI_begin_file("../TI/Drivers/interrupt.c")
     869                      .dwattr $C$DW$44, DW_AT_TI_begin_line(0x13f)
     870                      .dwattr $C$DW$44, DW_AT_TI_begin_column(0x06)
     871                      .dwattr $C$DW$44, DW_AT_TI_max_frame_size(-4)
     872                      .dwpsn  file "../TI/Drivers/interrupt.c",line 320,column 1,is_stmt,address _IntIFRClear,isa 0
     873              
     874                      .dwfde $C$DW$CIE, _IntIFRClear
     875              $C$DW$45        .dwtag  DW_TAG_formal_parameter, DW_AT_name("ui16Interrupts")
     876                      .dwattr $C$DW$45, DW_AT_TI_symbol_name("_ui16Interrupts")
     877                      .dwattr $C$DW$45, DW_AT_type(*$C$DW$T$91)
     878                      .dwattr $C$DW$45, DW_AT_location[DW_OP_reg0]
     879              
     880              ;***************************************************************
     881              ;* FNAME: _IntIFRClear                  FR SIZE:   2           *
     882              ;*                                                             *
     883              ;* FUNCTION ENVIRONMENT                                        *
     884              ;*                                                             *
     885              ;* FUNCTION PROPERTIES                                         *
     886              ;*                            0 Parameter,  1 Auto,  0 SOE     *
     887              ;***************************************************************
     888              
     889 00000155       _IntIFRClear:
     890                      .dwcfi  cfa_offset, -2
     891                      .dwcfi  save_reg_to_mem, 26, 0
     892 00000155 FE02          ADDB      SP,#2                 ; [CPU_U] 
     893                      .dwcfi  cfa_offset, -4
TMS320C2000 Assembler PC v6.4.2 Thu Dec 14 15:26:49 2017

Tools Copyright (c) 1996-2015 Texas Instruments Incorporated
interrupt.asm                                                        PAGE   18

     894              $C$DW$46        .dwtag  DW_TAG_variable, DW_AT_name("ui16Interrupts")
     895                      .dwattr $C$DW$46, DW_AT_TI_symbol_name("_ui16Interrupts")
     896                      .dwattr $C$DW$46, DW_AT_type(*$C$DW$T$91)
     897                      .dwattr $C$DW$46, DW_AT_location[DW_OP_breg20 -1]
     898 00000156 9641          MOV       *-SP[1],AL            ; [CPU_] |320| 
     899                      .dwpsn  file "../TI/Drivers/interrupt.c",line 321,column 5,is_stmt,isa 0
     900 00000157 6F31          B         $C$L27,UNC            ; [CPU_] |321| 
     901                      ; branch occurs ; [] |321| 
     902 00000158       $C$L11:    
     903                      .dwpsn  file "../TI/Drivers/interrupt.c",line 323,column 9,is_stmt,isa 0
     904 00000158 762F          AND       IFR,#0xfffe           ; [CPU_] |323| 
         00000159 FFFE 
     905                      .dwpsn  file "../TI/Drivers/interrupt.c",line 324,column 9,is_stmt,isa 0
     906 0000015a 6F7B          B         $C$L31,UNC            ; [CPU_] |324| 
     907                      ; branch occurs ; [] |324| 
     908 0000015b       $C$L12:    
     909                      .dwpsn  file "../TI/Drivers/interrupt.c",line 326,column 9,is_stmt,isa 0
     910 0000015b 762F          AND       IFR,#0xfffd           ; [CPU_] |326| 
         0000015c FFFD 
     911                      .dwpsn  file "../TI/Drivers/interrupt.c",line 327,column 9,is_stmt,isa 0
     912 0000015d 6F78          B         $C$L31,UNC            ; [CPU_] |327| 
     913                      ; branch occurs ; [] |327| 
     914 0000015e       $C$L13:    
     915                      .dwpsn  file "../TI/Drivers/interrupt.c",line 329,column 9,is_stmt,isa 0
     916 0000015e 762F          AND       IFR,#0xfffb           ; [CPU_] |329| 
         0000015f FFFB 
     917                      .dwpsn  file "../TI/Drivers/interrupt.c",line 330,column 9,is_stmt,isa 0
     918 00000160 6F75          B         $C$L31,UNC            ; [CPU_] |330| 
     919                      ; branch occurs ; [] |330| 
     920 00000161       $C$L14:    
     921                      .dwpsn  file "../TI/Drivers/interrupt.c",line 332,column 9,is_stmt,isa 0
     922 00000161 762F          AND       IFR,#0xfff7           ; [CPU_] |332| 
         00000162 FFF7 
     923                      .dwpsn  file "../TI/Drivers/interrupt.c",line 333,column 9,is_stmt,isa 0
     924 00000163 6F72          B         $C$L31,UNC            ; [CPU_] |333| 
     925                      ; branch occurs ; [] |333| 
     926 00000164       $C$L15:    
     927                      .dwpsn  file "../TI/Drivers/interrupt.c",line 335,column 9,is_stmt,isa 0
     928 00000164 762F          AND       IFR,#0xffef           ; [CPU_] |335| 
         00000165 FFEF 
     929                      .dwpsn  file "../TI/Drivers/interrupt.c",line 336,column 9,is_stmt,isa 0
     930 00000166 6F6F          B         $C$L31,UNC            ; [CPU_] |336| 
     931                      ; branch occurs ; [] |336| 
     932 00000167       $C$L16:    
     933                      .dwpsn  file "../TI/Drivers/interrupt.c",line 338,column 9,is_stmt,isa 0
     934 00000167 762F          AND       IFR,#0xffdf           ; [CPU_] |338| 
         00000168 FFDF 
     935                      .dwpsn  file "../TI/Drivers/interrupt.c",line 339,column 9,is_stmt,isa 0
     936 00000169 6F6C          B         $C$L31,UNC            ; [CPU_] |339| 
     937                      ; branch occurs ; [] |339| 
     938 0000016a       $C$L17:    
     939                      .dwpsn  file "../TI/Drivers/interrupt.c",line 341,column 9,is_stmt,isa 0
     940 0000016a 762F          AND       IFR,#0xffbf           ; [CPU_] |341| 
         0000016b FFBF 
     941                      .dwpsn  file "../TI/Drivers/interrupt.c",line 342,column 9,is_stmt,isa 0
TMS320C2000 Assembler PC v6.4.2 Thu Dec 14 15:26:49 2017

Tools Copyright (c) 1996-2015 Texas Instruments Incorporated
interrupt.asm                                                        PAGE   19

     942 0000016c 6F69          B         $C$L31,UNC            ; [CPU_] |342| 
     943                      ; branch occurs ; [] |342| 
     944 0000016d       $C$L18:    
     945                      .dwpsn  file "../TI/Drivers/interrupt.c",line 344,column 9,is_stmt,isa 0
     946 0000016d 762F          AND       IFR,#0xff7f           ; [CPU_] |344| 
         0000016e FF7F 
     947                      .dwpsn  file "../TI/Drivers/interrupt.c",line 345,column 9,is_stmt,isa 0
     948 0000016f 6F66          B         $C$L31,UNC            ; [CPU_] |345| 
     949                      ; branch occurs ; [] |345| 
     950 00000170       $C$L19:    
     951                      .dwpsn  file "../TI/Drivers/interrupt.c",line 347,column 9,is_stmt,isa 0
     952 00000170 762F          AND       IFR,#0xfeff           ; [CPU_] |347| 
         00000171 FEFF 
     953                      .dwpsn  file "../TI/Drivers/interrupt.c",line 348,column 9,is_stmt,isa 0
     954 00000172 6F63          B         $C$L31,UNC            ; [CPU_] |348| 
     955                      ; branch occurs ; [] |348| 
     956 00000173       $C$L20:    
     957                      .dwpsn  file "../TI/Drivers/interrupt.c",line 350,column 9,is_stmt,isa 0
     958 00000173 762F          AND       IFR,#0xfdff           ; [CPU_] |350| 
         00000174 FDFF 
     959                      .dwpsn  file "../TI/Drivers/interrupt.c",line 351,column 9,is_stmt,isa 0
     960 00000175 6F60          B         $C$L31,UNC            ; [CPU_] |351| 
     961                      ; branch occurs ; [] |351| 
     962 00000176       $C$L21:    
     963                      .dwpsn  file "../TI/Drivers/interrupt.c",line 353,column 9,is_stmt,isa 0
     964 00000176 762F          AND       IFR,#0xfbff           ; [CPU_] |353| 
         00000177 FBFF 
     965                      .dwpsn  file "../TI/Drivers/interrupt.c",line 354,column 9,is_stmt,isa 0
     966 00000178 6F5D          B         $C$L31,UNC            ; [CPU_] |354| 
     967                      ; branch occurs ; [] |354| 
     968 00000179       $C$L22:    
     969                      .dwpsn  file "../TI/Drivers/interrupt.c",line 356,column 9,is_stmt,isa 0
     970 00000179 762F          AND       IFR,#0xf7ff           ; [CPU_] |356| 
         0000017a F7FF 
     971                      .dwpsn  file "../TI/Drivers/interrupt.c",line 357,column 9,is_stmt,isa 0
     972 0000017b 6F5A          B         $C$L31,UNC            ; [CPU_] |357| 
     973                      ; branch occurs ; [] |357| 
     974 0000017c       $C$L23:    
     975                      .dwpsn  file "../TI/Drivers/interrupt.c",line 359,column 9,is_stmt,isa 0
     976 0000017c 762F          AND       IFR,#0xefff           ; [CPU_] |359| 
         0000017d EFFF 
     977                      .dwpsn  file "../TI/Drivers/interrupt.c",line 360,column 9,is_stmt,isa 0
     978 0000017e 6F57          B         $C$L31,UNC            ; [CPU_] |360| 
     979                      ; branch occurs ; [] |360| 
     980 0000017f       $C$L24:    
     981                      .dwpsn  file "../TI/Drivers/interrupt.c",line 362,column 9,is_stmt,isa 0
     982 0000017f 762F          AND       IFR,#0xdfff           ; [CPU_] |362| 
         00000180 DFFF 
     983                      .dwpsn  file "../TI/Drivers/interrupt.c",line 363,column 9,is_stmt,isa 0
     984 00000181 6F54          B         $C$L31,UNC            ; [CPU_] |363| 
     985                      ; branch occurs ; [] |363| 
     986 00000182       $C$L25:    
     987                      .dwpsn  file "../TI/Drivers/interrupt.c",line 365,column 9,is_stmt,isa 0
     988 00000182 762F          AND       IFR,#0xbfff           ; [CPU_] |365| 
         00000183 BFFF 
TMS320C2000 Assembler PC v6.4.2 Thu Dec 14 15:26:49 2017

Tools Copyright (c) 1996-2015 Texas Instruments Incorporated
interrupt.asm                                                        PAGE   20

     989                      .dwpsn  file "../TI/Drivers/interrupt.c",line 366,column 9,is_stmt,isa 0
     990 00000184 6F51          B         $C$L31,UNC            ; [CPU_] |366| 
     991                      ; branch occurs ; [] |366| 
     992 00000185       $C$L26:    
     993                      .dwpsn  file "../TI/Drivers/interrupt.c",line 368,column 9,is_stmt,isa 0
     994 00000185 762F          AND       IFR,#0x7fff           ; [CPU_] |368| 
         00000186 7FFF 
     995                      .dwpsn  file "../TI/Drivers/interrupt.c",line 369,column 9,is_stmt,isa 0
     996 00000187 6F4E          B         $C$L31,UNC            ; [CPU_] |369| 
     997                      ; branch occurs ; [] |369| 
     998 00000188       $C$L27:    
     999                      .dwpsn  file "../TI/Drivers/interrupt.c",line 321,column 5,is_stmt,isa 0
    1000 00000188 5280          CMPB      AL,#128               ; [CPU_] |321| 
    1001 00000189 8841          MOVZ      AR6,*-SP[1]           ; [CPU_] |321| 
    1002 0000018a 56C2          BF        $C$L29,GT             ; [CPU_] |321| 
         0000018b 001E 
    1003                      ; branchcc occurs ; [] |321| 
    1004 0000018c 5280          CMPB      AL,#128               ; [CPU_] |321| 
    1005 0000018d ECE0          BF        $C$L18,EQ             ; [CPU_] |321| 
    1006                      ; branchcc occurs ; [] |321| 
    1007 0000018e 5208          CMPB      AL,#8                 ; [CPU_] |321| 
    1008 0000018f 56C2          BF        $C$L28,GT             ; [CPU_] |321| 
         00000190 0012 
    1009                      ; branchcc occurs ; [] |321| 
    1010 00000191 5208          CMPB      AL,#8                 ; [CPU_] |321| 
    1011 00000192 ECCF          BF        $C$L14,EQ             ; [CPU_] |321| 
    1012                      ; branchcc occurs ; [] |321| 
    1013 00000193 80A6          MOVZ      AR7,AR6               ; [CPU_] |321| 
    1014 00000194 8F00          MOVL      XAR4,#32768           ; [CPU_U] |321| 
         00000195 8000 
    1015 00000196 A8A9          MOVL      ACC,XAR4              ; [CPU_] |321| 
    1016 00000197 0FA7          CMPL      ACC,XAR7              ; [CPU_] |321| 
    1017 00000198 ECED          BF        $C$L26,EQ             ; [CPU_] |321| 
    1018                      ; branchcc occurs ; [] |321| 
    1019 00000199 92A6          MOV       AL,AR6                ; [CPU_] 
    1020 0000019a 5201          CMPB      AL,#1                 ; [CPU_] |321| 
    1021 0000019b ECBD          BF        $C$L11,EQ             ; [CPU_] |321| 
    1022                      ; branchcc occurs ; [] |321| 
    1023 0000019c 5202          CMPB      AL,#2                 ; [CPU_] |321| 
    1024 0000019d ECBE          BF        $C$L12,EQ             ; [CPU_] |321| 
    1025                      ; branchcc occurs ; [] |321| 
    1026 0000019e 5204          CMPB      AL,#4                 ; [CPU_] |321| 
    1027 0000019f ECBF          BF        $C$L13,EQ             ; [CPU_] |321| 
    1028                      ; branchcc occurs ; [] |321| 
    1029 000001a0 6F35          B         $C$L31,UNC            ; [CPU_] |321| 
    1030                      ; branch occurs ; [] |321| 
    1031 000001a1       $C$L28:    
    1032 000001a1 5210          CMPB      AL,#16                ; [CPU_] |321| 
    1033 000001a2 ECC2          BF        $C$L15,EQ             ; [CPU_] |321| 
    1034                      ; branchcc occurs ; [] |321| 
    1035 000001a3 5220          CMPB      AL,#32                ; [CPU_] |321| 
    1036 000001a4 ECC3          BF        $C$L16,EQ             ; [CPU_] |321| 
    1037                      ; branchcc occurs ; [] |321| 
    1038 000001a5 5240          CMPB      AL,#64                ; [CPU_] |321| 
    1039 000001a6 ECC4          BF        $C$L17,EQ             ; [CPU_] |321| 
TMS320C2000 Assembler PC v6.4.2 Thu Dec 14 15:26:49 2017

Tools Copyright (c) 1996-2015 Texas Instruments Incorporated
interrupt.asm                                                        PAGE   21

    1040                      ; branchcc occurs ; [] |321| 
    1041 000001a7 6F2E          B         $C$L31,UNC            ; [CPU_] |321| 
    1042                      ; branch occurs ; [] |321| 
    1043 000001a8       $C$L29:    
    1044 000001a8 1BA6          CMP       AR6,#2048             ; [CPU_] |321| 
         000001a9 0800 
    1045 000001aa 56C2          BF        $C$L30,GT             ; [CPU_] |321| 
         000001ab 0018 
    1046                      ; branchcc occurs ; [] |321| 
    1047 000001ac 1BA6          CMP       AR6,#2048             ; [CPU_] |321| 
         000001ad 0800 
    1048 000001ae ECCB          BF        $C$L22,EQ             ; [CPU_] |321| 
    1049                      ; branchcc occurs ; [] |321| 
    1050 000001af 80A6          MOVZ      AR7,AR6               ; [CPU_] |321| 
    1051 000001b0 8F00          MOVL      XAR4,#256             ; [CPU_U] |321| 
         000001b1 0100 
    1052 000001b2 A8A9          MOVL      ACC,XAR4              ; [CPU_] |321| 
    1053 000001b3 0FA7          CMPL      ACC,XAR7              ; [CPU_] |321| 
    1054 000001b4 ECBC          BF        $C$L19,EQ             ; [CPU_] |321| 
    1055                      ; branchcc occurs ; [] |321| 
    1056 000001b5 80A6          MOVZ      AR7,AR6               ; [CPU_] |321| 
    1057 000001b6 8F00          MOVL      XAR4,#512             ; [CPU_U] |321| 
         000001b7 0200 
    1058 000001b8 A8A9          MOVL      ACC,XAR4              ; [CPU_] |321| 
    1059 000001b9 0FA7          CMPL      ACC,XAR7              ; [CPU_] |321| 
    1060 000001ba ECB9          BF        $C$L20,EQ             ; [CPU_] |321| 
    1061                      ; branchcc occurs ; [] |321| 
    1062 000001bb 88A6          MOVZ      AR6,AR6               ; [CPU_] |321| 
    1063 000001bc 8F00          MOVL      XAR4,#1024            ; [CPU_U] |321| 
         000001bd 0400 
    1064 000001be A8A9          MOVL      ACC,XAR4              ; [CPU_] |321| 
    1065 000001bf 0FA6          CMPL      ACC,XAR6              ; [CPU_] |321| 
    1066 000001c0 ECB6          BF        $C$L21,EQ             ; [CPU_] |321| 
    1067                      ; branchcc occurs ; [] |321| 
    1068 000001c1 6F14          B         $C$L31,UNC            ; [CPU_] |321| 
    1069                      ; branch occurs ; [] |321| 
    1070 000001c2       $C$L30:    
    1071 000001c2 80A6          MOVZ      AR7,AR6               ; [CPU_] |321| 
    1072 000001c3 8F00          MOVL      XAR4,#4096            ; [CPU_U] |321| 
         000001c4 1000 
    1073 000001c5 A8A9          MOVL      ACC,XAR4              ; [CPU_] |321| 
    1074 000001c6 0FA7          CMPL      ACC,XAR7              ; [CPU_] |321| 
    1075 000001c7 ECB5          BF        $C$L23,EQ             ; [CPU_] |321| 
    1076                      ; branchcc occurs ; [] |321| 
    1077 000001c8 80A6          MOVZ      AR7,AR6               ; [CPU_] |321| 
    1078 000001c9 8F00          MOVL      XAR4,#8192            ; [CPU_U] |321| 
         000001ca 2000 
    1079 000001cb A8A9          MOVL      ACC,XAR4              ; [CPU_] |321| 
    1080 000001cc 0FA7          CMPL      ACC,XAR7              ; [CPU_] |321| 
    1081 000001cd ECB2          BF        $C$L24,EQ             ; [CPU_] |321| 
    1082                      ; branchcc occurs ; [] |321| 
    1083 000001ce 88A6          MOVZ      AR6,AR6               ; [CPU_] |321| 
    1084 000001cf 8F00          MOVL      XAR4,#16384           ; [CPU_U] |321| 
         000001d0 4000 
    1085 000001d1 A8A9          MOVL      ACC,XAR4              ; [CPU_] |321| 
TMS320C2000 Assembler PC v6.4.2 Thu Dec 14 15:26:49 2017

Tools Copyright (c) 1996-2015 Texas Instruments Incorporated
interrupt.asm                                                        PAGE   22

    1086 000001d2 0FA6          CMPL      ACC,XAR6              ; [CPU_] |321| 
    1087 000001d3 ECAF          BF        $C$L25,EQ             ; [CPU_] |321| 
    1088                      ; branchcc occurs ; [] |321| 
    1089 000001d4 6F01          B         $C$L31,UNC            ; [CPU_] |321| 
    1090                      ; branch occurs ; [] |321| 
    1091 000001d5       $C$L31:    
    1092 000001d5 FE82          SUBB      SP,#2                 ; [CPU_U] 
    1093                      .dwcfi  cfa_offset, -2
    1094              $C$DW$47        .dwtag  DW_TAG_TI_branch
    1095                      .dwattr $C$DW$47, DW_AT_low_pc(0x00)
    1096                      .dwattr $C$DW$47, DW_AT_TI_return
    1097 000001d6 0006          LRETR     ; [CPU_] 
    1098                      ; return occurs ; [] 
    1099                      .dwattr $C$DW$44, DW_AT_TI_end_file("../TI/Drivers/interrupt.c")
    1100                      .dwattr $C$DW$44, DW_AT_TI_end_line(0x175)
    1101                      .dwattr $C$DW$44, DW_AT_TI_end_column(0x01)
    1102                      .dwendentry
    1103                      .dwendtag $C$DW$44
    1104              
    1105              ;**************************************************************
    1106              ;* UNDEFINED EXTERNAL REFERENCES                              *
    1107              ;**************************************************************
    1108                      .global _PieCtrlRegs
    1109                      .global _PieVectTable
    1110              
    1111              ;***************************************************************
    1112              ;* TYPE INFORMATION                                            *
    1113              ;***************************************************************
    1114              
    1115              $C$DW$T$20      .dwtag  DW_TAG_structure_type
    1116                      .dwattr $C$DW$T$20, DW_AT_name("PIEACK_BITS")
    1117                      .dwattr $C$DW$T$20, DW_AT_byte_size(0x01)
    1118              $C$DW$48        .dwtag  DW_TAG_member
    1119                      .dwattr $C$DW$48, DW_AT_type(*$C$DW$T$19)
    1120                      .dwattr $C$DW$48, DW_AT_name("ACK1")
    1121                      .dwattr $C$DW$48, DW_AT_TI_symbol_name("_ACK1")
    1122                      .dwattr $C$DW$48, DW_AT_bit_offset(0x0f), DW_AT_bit_size(0x01)
    1123                      .dwattr $C$DW$48, DW_AT_data_member_location[DW_OP_plus_uconst 0x0]
    1124                      .dwattr $C$DW$48, DW_AT_accessibility(DW_ACCESS_public)
    1125              $C$DW$49        .dwtag  DW_TAG_member
    1126                      .dwattr $C$DW$49, DW_AT_type(*$C$DW$T$19)
    1127                      .dwattr $C$DW$49, DW_AT_name("ACK2")
    1128                      .dwattr $C$DW$49, DW_AT_TI_symbol_name("_ACK2")
    1129                      .dwattr $C$DW$49, DW_AT_bit_offset(0x0e), DW_AT_bit_size(0x01)
    1130                      .dwattr $C$DW$49, DW_AT_data_member_location[DW_OP_plus_uconst 0x0]
    1131                      .dwattr $C$DW$49, DW_AT_accessibility(DW_ACCESS_public)
    1132              $C$DW$50        .dwtag  DW_TAG_member
    1133                      .dwattr $C$DW$50, DW_AT_type(*$C$DW$T$19)
    1134                      .dwattr $C$DW$50, DW_AT_name("ACK3")
    1135                      .dwattr $C$DW$50, DW_AT_TI_symbol_name("_ACK3")
    1136                      .dwattr $C$DW$50, DW_AT_bit_offset(0x0d), DW_AT_bit_size(0x01)
    1137                      .dwattr $C$DW$50, DW_AT_data_member_location[DW_OP_plus_uconst 0x0]
    1138                      .dwattr $C$DW$50, DW_AT_accessibility(DW_ACCESS_public)
    1139              $C$DW$51        .dwtag  DW_TAG_member
    1140                      .dwattr $C$DW$51, DW_AT_type(*$C$DW$T$19)
TMS320C2000 Assembler PC v6.4.2 Thu Dec 14 15:26:49 2017

Tools Copyright (c) 1996-2015 Texas Instruments Incorporated
interrupt.asm                                                        PAGE   23

    1141                      .dwattr $C$DW$51, DW_AT_name("ACK4")
    1142                      .dwattr $C$DW$51, DW_AT_TI_symbol_name("_ACK4")
    1143                      .dwattr $C$DW$51, DW_AT_bit_offset(0x0c), DW_AT_bit_size(0x01)
    1144                      .dwattr $C$DW$51, DW_AT_data_member_location[DW_OP_plus_uconst 0x0]
    1145                      .dwattr $C$DW$51, DW_AT_accessibility(DW_ACCESS_public)
    1146              $C$DW$52        .dwtag  DW_TAG_member
    1147                      .dwattr $C$DW$52, DW_AT_type(*$C$DW$T$19)
    1148                      .dwattr $C$DW$52, DW_AT_name("ACK5")
    1149                      .dwattr $C$DW$52, DW_AT_TI_symbol_name("_ACK5")
    1150                      .dwattr $C$DW$52, DW_AT_bit_offset(0x0b), DW_AT_bit_size(0x01)
    1151                      .dwattr $C$DW$52, DW_AT_data_member_location[DW_OP_plus_uconst 0x0]
    1152                      .dwattr $C$DW$52, DW_AT_accessibility(DW_ACCESS_public)
    1153              $C$DW$53        .dwtag  DW_TAG_member
    1154                      .dwattr $C$DW$53, DW_AT_type(*$C$DW$T$19)
    1155                      .dwattr $C$DW$53, DW_AT_name("ACK6")
    1156                      .dwattr $C$DW$53, DW_AT_TI_symbol_name("_ACK6")
    1157                      .dwattr $C$DW$53, DW_AT_bit_offset(0x0a), DW_AT_bit_size(0x01)
    1158                      .dwattr $C$DW$53, DW_AT_data_member_location[DW_OP_plus_uconst 0x0]
    1159                      .dwattr $C$DW$53, DW_AT_accessibility(DW_ACCESS_public)
    1160              $C$DW$54        .dwtag  DW_TAG_member
    1161                      .dwattr $C$DW$54, DW_AT_type(*$C$DW$T$19)
    1162                      .dwattr $C$DW$54, DW_AT_name("ACK7")
    1163                      .dwattr $C$DW$54, DW_AT_TI_symbol_name("_ACK7")
    1164                      .dwattr $C$DW$54, DW_AT_bit_offset(0x09), DW_AT_bit_size(0x01)
    1165                      .dwattr $C$DW$54, DW_AT_data_member_location[DW_OP_plus_uconst 0x0]
    1166                      .dwattr $C$DW$54, DW_AT_accessibility(DW_ACCESS_public)
    1167              $C$DW$55        .dwtag  DW_TAG_member
    1168                      .dwattr $C$DW$55, DW_AT_type(*$C$DW$T$19)
    1169                      .dwattr $C$DW$55, DW_AT_name("ACK8")
    1170                      .dwattr $C$DW$55, DW_AT_TI_symbol_name("_ACK8")
    1171                      .dwattr $C$DW$55, DW_AT_bit_offset(0x08), DW_AT_bit_size(0x01)
    1172                      .dwattr $C$DW$55, DW_AT_data_member_location[DW_OP_plus_uconst 0x0]
    1173                      .dwattr $C$DW$55, DW_AT_accessibility(DW_ACCESS_public)
    1174              $C$DW$56        .dwtag  DW_TAG_member
    1175                      .dwattr $C$DW$56, DW_AT_type(*$C$DW$T$19)
    1176                      .dwattr $C$DW$56, DW_AT_name("ACK9")
    1177                      .dwattr $C$DW$56, DW_AT_TI_symbol_name("_ACK9")
    1178                      .dwattr $C$DW$56, DW_AT_bit_offset(0x07), DW_AT_bit_size(0x01)
    1179                      .dwattr $C$DW$56, DW_AT_data_member_location[DW_OP_plus_uconst 0x0]
    1180                      .dwattr $C$DW$56, DW_AT_accessibility(DW_ACCESS_public)
    1181              $C$DW$57        .dwtag  DW_TAG_member
    1182                      .dwattr $C$DW$57, DW_AT_type(*$C$DW$T$19)
    1183                      .dwattr $C$DW$57, DW_AT_name("ACK10")
    1184                      .dwattr $C$DW$57, DW_AT_TI_symbol_name("_ACK10")
    1185                      .dwattr $C$DW$57, DW_AT_bit_offset(0x06), DW_AT_bit_size(0x01)
    1186                      .dwattr $C$DW$57, DW_AT_data_member_location[DW_OP_plus_uconst 0x0]
    1187                      .dwattr $C$DW$57, DW_AT_accessibility(DW_ACCESS_public)
    1188              $C$DW$58        .dwtag  DW_TAG_member
    1189                      .dwattr $C$DW$58, DW_AT_type(*$C$DW$T$19)
    1190                      .dwattr $C$DW$58, DW_AT_name("ACK11")
    1191                      .dwattr $C$DW$58, DW_AT_TI_symbol_name("_ACK11")
    1192                      .dwattr $C$DW$58, DW_AT_bit_offset(0x05), DW_AT_bit_size(0x01)
    1193                      .dwattr $C$DW$58, DW_AT_data_member_location[DW_OP_plus_uconst 0x0]
    1194                      .dwattr $C$DW$58, DW_AT_accessibility(DW_ACCESS_public)
    1195              $C$DW$59        .dwtag  DW_TAG_member
TMS320C2000 Assembler PC v6.4.2 Thu Dec 14 15:26:49 2017

Tools Copyright (c) 1996-2015 Texas Instruments Incorporated
interrupt.asm                                                        PAGE   24

    1196                      .dwattr $C$DW$59, DW_AT_type(*$C$DW$T$19)
    1197                      .dwattr $C$DW$59, DW_AT_name("ACK12")
    1198                      .dwattr $C$DW$59, DW_AT_TI_symbol_name("_ACK12")
    1199                      .dwattr $C$DW$59, DW_AT_bit_offset(0x04), DW_AT_bit_size(0x01)
    1200                      .dwattr $C$DW$59, DW_AT_data_member_location[DW_OP_plus_uconst 0x0]
    1201                      .dwattr $C$DW$59, DW_AT_accessibility(DW_ACCESS_public)
    1202              $C$DW$60        .dwtag  DW_TAG_member
    1203                      .dwattr $C$DW$60, DW_AT_type(*$C$DW$T$19)
    1204                      .dwattr $C$DW$60, DW_AT_name("rsvd1")
    1205                      .dwattr $C$DW$60, DW_AT_TI_symbol_name("_rsvd1")
    1206                      .dwattr $C$DW$60, DW_AT_bit_offset(0x00), DW_AT_bit_size(0x04)
    1207                      .dwattr $C$DW$60, DW_AT_data_member_location[DW_OP_plus_uconst 0x0]
    1208                      .dwattr $C$DW$60, DW_AT_accessibility(DW_ACCESS_public)
    1209                      .dwendtag $C$DW$T$20
    1210              
    1211              
    1212              $C$DW$T$21      .dwtag  DW_TAG_union_type
    1213                      .dwattr $C$DW$T$21, DW_AT_name("PIEACK_REG")
    1214                      .dwattr $C$DW$T$21, DW_AT_byte_size(0x01)
    1215              $C$DW$61        .dwtag  DW_TAG_member
    1216                      .dwattr $C$DW$61, DW_AT_type(*$C$DW$T$19)
    1217                      .dwattr $C$DW$61, DW_AT_name("all")
    1218                      .dwattr $C$DW$61, DW_AT_TI_symbol_name("_all")
    1219                      .dwattr $C$DW$61, DW_AT_data_member_location[DW_OP_plus_uconst 0x0]
    1220                      .dwattr $C$DW$61, DW_AT_accessibility(DW_ACCESS_public)
    1221              $C$DW$62        .dwtag  DW_TAG_member
    1222                      .dwattr $C$DW$62, DW_AT_type(*$C$DW$T$20)
    1223                      .dwattr $C$DW$62, DW_AT_name("bit")
    1224                      .dwattr $C$DW$62, DW_AT_TI_symbol_name("_bit")
    1225                      .dwattr $C$DW$62, DW_AT_data_member_location[DW_OP_plus_uconst 0x0]
    1226                      .dwattr $C$DW$62, DW_AT_accessibility(DW_ACCESS_public)
    1227                      .dwendtag $C$DW$T$21
    1228              
    1229              
    1230              $C$DW$T$22      .dwtag  DW_TAG_structure_type
    1231                      .dwattr $C$DW$T$22, DW_AT_name("PIECTRL_BITS")
    1232                      .dwattr $C$DW$T$22, DW_AT_byte_size(0x01)
    1233              $C$DW$63        .dwtag  DW_TAG_member
    1234                      .dwattr $C$DW$63, DW_AT_type(*$C$DW$T$19)
    1235                      .dwattr $C$DW$63, DW_AT_name("ENPIE")
    1236                      .dwattr $C$DW$63, DW_AT_TI_symbol_name("_ENPIE")
    1237                      .dwattr $C$DW$63, DW_AT_bit_offset(0x0f), DW_AT_bit_size(0x01)
    1238                      .dwattr $C$DW$63, DW_AT_data_member_location[DW_OP_plus_uconst 0x0]
    1239                      .dwattr $C$DW$63, DW_AT_accessibility(DW_ACCESS_public)
    1240              $C$DW$64        .dwtag  DW_TAG_member
    1241                      .dwattr $C$DW$64, DW_AT_type(*$C$DW$T$19)
    1242                      .dwattr $C$DW$64, DW_AT_name("PIEVECT")
    1243                      .dwattr $C$DW$64, DW_AT_TI_symbol_name("_PIEVECT")
    1244                      .dwattr $C$DW$64, DW_AT_bit_offset(0x00), DW_AT_bit_size(0x0f)
    1245                      .dwattr $C$DW$64, DW_AT_data_member_location[DW_OP_plus_uconst 0x0]
    1246                      .dwattr $C$DW$64, DW_AT_accessibility(DW_ACCESS_public)
    1247                      .dwendtag $C$DW$T$22
    1248              
    1249              
    1250              $C$DW$T$23      .dwtag  DW_TAG_union_type
TMS320C2000 Assembler PC v6.4.2 Thu Dec 14 15:26:49 2017

Tools Copyright (c) 1996-2015 Texas Instruments Incorporated
interrupt.asm                                                        PAGE   25

    1251                      .dwattr $C$DW$T$23, DW_AT_name("PIECTRL_REG")
    1252                      .dwattr $C$DW$T$23, DW_AT_byte_size(0x01)
    1253              $C$DW$65        .dwtag  DW_TAG_member
    1254                      .dwattr $C$DW$65, DW_AT_type(*$C$DW$T$19)
    1255                      .dwattr $C$DW$65, DW_AT_name("all")
    1256                      .dwattr $C$DW$65, DW_AT_TI_symbol_name("_all")
    1257                      .dwattr $C$DW$65, DW_AT_data_member_location[DW_OP_plus_uconst 0x0]
    1258                      .dwattr $C$DW$65, DW_AT_accessibility(DW_ACCESS_public)
    1259              $C$DW$66        .dwtag  DW_TAG_member
    1260                      .dwattr $C$DW$66, DW_AT_type(*$C$DW$T$22)
    1261                      .dwattr $C$DW$66, DW_AT_name("bit")
    1262                      .dwattr $C$DW$66, DW_AT_TI_symbol_name("_bit")
    1263                      .dwattr $C$DW$66, DW_AT_data_member_location[DW_OP_plus_uconst 0x0]
    1264                      .dwattr $C$DW$66, DW_AT_accessibility(DW_ACCESS_public)
    1265                      .dwendtag $C$DW$T$23
    1266              
    1267              
    1268              $C$DW$T$24      .dwtag  DW_TAG_structure_type
    1269                      .dwattr $C$DW$T$24, DW_AT_name("PIEIER10_BITS")
    1270                      .dwattr $C$DW$T$24, DW_AT_byte_size(0x01)
    1271              $C$DW$67        .dwtag  DW_TAG_member
    1272                      .dwattr $C$DW$67, DW_AT_type(*$C$DW$T$19)
    1273                      .dwattr $C$DW$67, DW_AT_name("INTx1")
    1274                      .dwattr $C$DW$67, DW_AT_TI_symbol_name("_INTx1")
    1275                      .dwattr $C$DW$67, DW_AT_bit_offset(0x0f), DW_AT_bit_size(0x01)
    1276                      .dwattr $C$DW$67, DW_AT_data_member_location[DW_OP_plus_uconst 0x0]
    1277                      .dwattr $C$DW$67, DW_AT_accessibility(DW_ACCESS_public)
    1278              $C$DW$68        .dwtag  DW_TAG_member
    1279                      .dwattr $C$DW$68, DW_AT_type(*$C$DW$T$19)
    1280                      .dwattr $C$DW$68, DW_AT_name("INTx2")
    1281                      .dwattr $C$DW$68, DW_AT_TI_symbol_name("_INTx2")
    1282                      .dwattr $C$DW$68, DW_AT_bit_offset(0x0e), DW_AT_bit_size(0x01)
    1283                      .dwattr $C$DW$68, DW_AT_data_member_location[DW_OP_plus_uconst 0x0]
    1284                      .dwattr $C$DW$68, DW_AT_accessibility(DW_ACCESS_public)
    1285              $C$DW$69        .dwtag  DW_TAG_member
    1286                      .dwattr $C$DW$69, DW_AT_type(*$C$DW$T$19)
    1287                      .dwattr $C$DW$69, DW_AT_name("INTx3")
    1288                      .dwattr $C$DW$69, DW_AT_TI_symbol_name("_INTx3")
    1289                      .dwattr $C$DW$69, DW_AT_bit_offset(0x0d), DW_AT_bit_size(0x01)
    1290                      .dwattr $C$DW$69, DW_AT_data_member_location[DW_OP_plus_uconst 0x0]
    1291                      .dwattr $C$DW$69, DW_AT_accessibility(DW_ACCESS_public)
    1292              $C$DW$70        .dwtag  DW_TAG_member
    1293                      .dwattr $C$DW$70, DW_AT_type(*$C$DW$T$19)
    1294                      .dwattr $C$DW$70, DW_AT_name("INTx4")
    1295                      .dwattr $C$DW$70, DW_AT_TI_symbol_name("_INTx4")
    1296                      .dwattr $C$DW$70, DW_AT_bit_offset(0x0c), DW_AT_bit_size(0x01)
    1297                      .dwattr $C$DW$70, DW_AT_data_member_location[DW_OP_plus_uconst 0x0]
    1298                      .dwattr $C$DW$70, DW_AT_accessibility(DW_ACCESS_public)
    1299              $C$DW$71        .dwtag  DW_TAG_member
    1300                      .dwattr $C$DW$71, DW_AT_type(*$C$DW$T$19)
    1301                      .dwattr $C$DW$71, DW_AT_name("INTx5")
    1302                      .dwattr $C$DW$71, DW_AT_TI_symbol_name("_INTx5")
    1303                      .dwattr $C$DW$71, DW_AT_bit_offset(0x0b), DW_AT_bit_size(0x01)
    1304                      .dwattr $C$DW$71, DW_AT_data_member_location[DW_OP_plus_uconst 0x0]
    1305                      .dwattr $C$DW$71, DW_AT_accessibility(DW_ACCESS_public)
TMS320C2000 Assembler PC v6.4.2 Thu Dec 14 15:26:49 2017

Tools Copyright (c) 1996-2015 Texas Instruments Incorporated
interrupt.asm                                                        PAGE   26

    1306              $C$DW$72        .dwtag  DW_TAG_member
    1307                      .dwattr $C$DW$72, DW_AT_type(*$C$DW$T$19)
    1308                      .dwattr $C$DW$72, DW_AT_name("INTx6")
    1309                      .dwattr $C$DW$72, DW_AT_TI_symbol_name("_INTx6")
    1310                      .dwattr $C$DW$72, DW_AT_bit_offset(0x0a), DW_AT_bit_size(0x01)
    1311                      .dwattr $C$DW$72, DW_AT_data_member_location[DW_OP_plus_uconst 0x0]
    1312                      .dwattr $C$DW$72, DW_AT_accessibility(DW_ACCESS_public)
    1313              $C$DW$73        .dwtag  DW_TAG_member
    1314                      .dwattr $C$DW$73, DW_AT_type(*$C$DW$T$19)
    1315                      .dwattr $C$DW$73, DW_AT_name("INTx7")
    1316                      .dwattr $C$DW$73, DW_AT_TI_symbol_name("_INTx7")
    1317                      .dwattr $C$DW$73, DW_AT_bit_offset(0x09), DW_AT_bit_size(0x01)
    1318                      .dwattr $C$DW$73, DW_AT_data_member_location[DW_OP_plus_uconst 0x0]
    1319                      .dwattr $C$DW$73, DW_AT_accessibility(DW_ACCESS_public)
    1320              $C$DW$74        .dwtag  DW_TAG_member
    1321                      .dwattr $C$DW$74, DW_AT_type(*$C$DW$T$19)
    1322                      .dwattr $C$DW$74, DW_AT_name("INTx8")
    1323                      .dwattr $C$DW$74, DW_AT_TI_symbol_name("_INTx8")
    1324                      .dwattr $C$DW$74, DW_AT_bit_offset(0x08), DW_AT_bit_size(0x01)
    1325                      .dwattr $C$DW$74, DW_AT_data_member_location[DW_OP_plus_uconst 0x0]
    1326                      .dwattr $C$DW$74, DW_AT_accessibility(DW_ACCESS_public)
    1327              $C$DW$75        .dwtag  DW_TAG_member
    1328                      .dwattr $C$DW$75, DW_AT_type(*$C$DW$T$19)
    1329                      .dwattr $C$DW$75, DW_AT_name("INTx9")
    1330                      .dwattr $C$DW$75, DW_AT_TI_symbol_name("_INTx9")
    1331                      .dwattr $C$DW$75, DW_AT_bit_offset(0x07), DW_AT_bit_size(0x01)
    1332                      .dwattr $C$DW$75, DW_AT_data_member_location[DW_OP_plus_uconst 0x0]
    1333                      .dwattr $C$DW$75, DW_AT_accessibility(DW_ACCESS_public)
    1334              $C$DW$76        .dwtag  DW_TAG_member
    1335                      .dwattr $C$DW$76, DW_AT_type(*$C$DW$T$19)
    1336                      .dwattr $C$DW$76, DW_AT_name("INTx10")
    1337                      .dwattr $C$DW$76, DW_AT_TI_symbol_name("_INTx10")
    1338                      .dwattr $C$DW$76, DW_AT_bit_offset(0x06), DW_AT_bit_size(0x01)
    1339                      .dwattr $C$DW$76, DW_AT_data_member_location[DW_OP_plus_uconst 0x0]
    1340                      .dwattr $C$DW$76, DW_AT_accessibility(DW_ACCESS_public)
    1341              $C$DW$77        .dwtag  DW_TAG_member
    1342                      .dwattr $C$DW$77, DW_AT_type(*$C$DW$T$19)
    1343                      .dwattr $C$DW$77, DW_AT_name("INTx11")
    1344                      .dwattr $C$DW$77, DW_AT_TI_symbol_name("_INTx11")
    1345                      .dwattr $C$DW$77, DW_AT_bit_offset(0x05), DW_AT_bit_size(0x01)
    1346                      .dwattr $C$DW$77, DW_AT_data_member_location[DW_OP_plus_uconst 0x0]
    1347                      .dwattr $C$DW$77, DW_AT_accessibility(DW_ACCESS_public)
    1348              $C$DW$78        .dwtag  DW_TAG_member
    1349                      .dwattr $C$DW$78, DW_AT_type(*$C$DW$T$19)
    1350                      .dwattr $C$DW$78, DW_AT_name("INTx12")
    1351                      .dwattr $C$DW$78, DW_AT_TI_symbol_name("_INTx12")
    1352                      .dwattr $C$DW$78, DW_AT_bit_offset(0x04), DW_AT_bit_size(0x01)
    1353                      .dwattr $C$DW$78, DW_AT_data_member_location[DW_OP_plus_uconst 0x0]
    1354                      .dwattr $C$DW$78, DW_AT_accessibility(DW_ACCESS_public)
    1355              $C$DW$79        .dwtag  DW_TAG_member
    1356                      .dwattr $C$DW$79, DW_AT_type(*$C$DW$T$19)
    1357                      .dwattr $C$DW$79, DW_AT_name("INTx13")
    1358                      .dwattr $C$DW$79, DW_AT_TI_symbol_name("_INTx13")
    1359                      .dwattr $C$DW$79, DW_AT_bit_offset(0x03), DW_AT_bit_size(0x01)
    1360                      .dwattr $C$DW$79, DW_AT_data_member_location[DW_OP_plus_uconst 0x0]
TMS320C2000 Assembler PC v6.4.2 Thu Dec 14 15:26:49 2017

Tools Copyright (c) 1996-2015 Texas Instruments Incorporated
interrupt.asm                                                        PAGE   27

    1361                      .dwattr $C$DW$79, DW_AT_accessibility(DW_ACCESS_public)
    1362              $C$DW$80        .dwtag  DW_TAG_member
    1363                      .dwattr $C$DW$80, DW_AT_type(*$C$DW$T$19)
    1364                      .dwattr $C$DW$80, DW_AT_name("INTx14")
    1365                      .dwattr $C$DW$80, DW_AT_TI_symbol_name("_INTx14")
    1366                      .dwattr $C$DW$80, DW_AT_bit_offset(0x02), DW_AT_bit_size(0x01)
    1367                      .dwattr $C$DW$80, DW_AT_data_member_location[DW_OP_plus_uconst 0x0]
    1368                      .dwattr $C$DW$80, DW_AT_accessibility(DW_ACCESS_public)
    1369              $C$DW$81        .dwtag  DW_TAG_member
    1370                      .dwattr $C$DW$81, DW_AT_type(*$C$DW$T$19)
    1371                      .dwattr $C$DW$81, DW_AT_name("INTx15")
    1372                      .dwattr $C$DW$81, DW_AT_TI_symbol_name("_INTx15")
    1373                      .dwattr $C$DW$81, DW_AT_bit_offset(0x01), DW_AT_bit_size(0x01)
    1374                      .dwattr $C$DW$81, DW_AT_data_member_location[DW_OP_plus_uconst 0x0]
    1375                      .dwattr $C$DW$81, DW_AT_accessibility(DW_ACCESS_public)
    1376              $C$DW$82        .dwtag  DW_TAG_member
    1377                      .dwattr $C$DW$82, DW_AT_type(*$C$DW$T$19)
    1378                      .dwattr $C$DW$82, DW_AT_name("INTx16")
    1379                      .dwattr $C$DW$82, DW_AT_TI_symbol_name("_INTx16")
    1380                      .dwattr $C$DW$82, DW_AT_bit_offset(0x00), DW_AT_bit_size(0x01)
    1381                      .dwattr $C$DW$82, DW_AT_data_member_location[DW_OP_plus_uconst 0x0]
    1382                      .dwattr $C$DW$82, DW_AT_accessibility(DW_ACCESS_public)
    1383                      .dwendtag $C$DW$T$24
    1384              
    1385              
    1386              $C$DW$T$25      .dwtag  DW_TAG_union_type
    1387                      .dwattr $C$DW$T$25, DW_AT_name("PIEIER10_REG")
    1388                      .dwattr $C$DW$T$25, DW_AT_byte_size(0x01)
    1389              $C$DW$83        .dwtag  DW_TAG_member
    1390                      .dwattr $C$DW$83, DW_AT_type(*$C$DW$T$19)
    1391                      .dwattr $C$DW$83, DW_AT_name("all")
    1392                      .dwattr $C$DW$83, DW_AT_TI_symbol_name("_all")
    1393                      .dwattr $C$DW$83, DW_AT_data_member_location[DW_OP_plus_uconst 0x0]
    1394                      .dwattr $C$DW$83, DW_AT_accessibility(DW_ACCESS_public)
    1395              $C$DW$84        .dwtag  DW_TAG_member
    1396                      .dwattr $C$DW$84, DW_AT_type(*$C$DW$T$24)
    1397                      .dwattr $C$DW$84, DW_AT_name("bit")
    1398                      .dwattr $C$DW$84, DW_AT_TI_symbol_name("_bit")
    1399                      .dwattr $C$DW$84, DW_AT_data_member_location[DW_OP_plus_uconst 0x0]
    1400                      .dwattr $C$DW$84, DW_AT_accessibility(DW_ACCESS_public)
    1401                      .dwendtag $C$DW$T$25
    1402              
    1403              
    1404              $C$DW$T$26      .dwtag  DW_TAG_structure_type
    1405                      .dwattr $C$DW$T$26, DW_AT_name("PIEIER11_BITS")
    1406                      .dwattr $C$DW$T$26, DW_AT_byte_size(0x01)
    1407              $C$DW$85        .dwtag  DW_TAG_member
    1408                      .dwattr $C$DW$85, DW_AT_type(*$C$DW$T$19)
    1409                      .dwattr $C$DW$85, DW_AT_name("INTx1")
    1410                      .dwattr $C$DW$85, DW_AT_TI_symbol_name("_INTx1")
    1411                      .dwattr $C$DW$85, DW_AT_bit_offset(0x0f), DW_AT_bit_size(0x01)
    1412                      .dwattr $C$DW$85, DW_AT_data_member_location[DW_OP_plus_uconst 0x0]
    1413                      .dwattr $C$DW$85, DW_AT_accessibility(DW_ACCESS_public)
    1414              $C$DW$86        .dwtag  DW_TAG_member
    1415                      .dwattr $C$DW$86, DW_AT_type(*$C$DW$T$19)
TMS320C2000 Assembler PC v6.4.2 Thu Dec 14 15:26:49 2017

Tools Copyright (c) 1996-2015 Texas Instruments Incorporated
interrupt.asm                                                        PAGE   28

    1416                      .dwattr $C$DW$86, DW_AT_name("INTx2")
    1417                      .dwattr $C$DW$86, DW_AT_TI_symbol_name("_INTx2")
    1418                      .dwattr $C$DW$86, DW_AT_bit_offset(0x0e), DW_AT_bit_size(0x01)
    1419                      .dwattr $C$DW$86, DW_AT_data_member_location[DW_OP_plus_uconst 0x0]
    1420                      .dwattr $C$DW$86, DW_AT_accessibility(DW_ACCESS_public)
    1421              $C$DW$87        .dwtag  DW_TAG_member
    1422                      .dwattr $C$DW$87, DW_AT_type(*$C$DW$T$19)
    1423                      .dwattr $C$DW$87, DW_AT_name("INTx3")
    1424                      .dwattr $C$DW$87, DW_AT_TI_symbol_name("_INTx3")
    1425                      .dwattr $C$DW$87, DW_AT_bit_offset(0x0d), DW_AT_bit_size(0x01)
    1426                      .dwattr $C$DW$87, DW_AT_data_member_location[DW_OP_plus_uconst 0x0]
    1427                      .dwattr $C$DW$87, DW_AT_accessibility(DW_ACCESS_public)
    1428              $C$DW$88        .dwtag  DW_TAG_member
    1429                      .dwattr $C$DW$88, DW_AT_type(*$C$DW$T$19)
    1430                      .dwattr $C$DW$88, DW_AT_name("INTx4")
    1431                      .dwattr $C$DW$88, DW_AT_TI_symbol_name("_INTx4")
    1432                      .dwattr $C$DW$88, DW_AT_bit_offset(0x0c), DW_AT_bit_size(0x01)
    1433                      .dwattr $C$DW$88, DW_AT_data_member_location[DW_OP_plus_uconst 0x0]
    1434                      .dwattr $C$DW$88, DW_AT_accessibility(DW_ACCESS_public)
    1435              $C$DW$89        .dwtag  DW_TAG_member
    1436                      .dwattr $C$DW$89, DW_AT_type(*$C$DW$T$19)
    1437                      .dwattr $C$DW$89, DW_AT_name("INTx5")
    1438                      .dwattr $C$DW$89, DW_AT_TI_symbol_name("_INTx5")
    1439                      .dwattr $C$DW$89, DW_AT_bit_offset(0x0b), DW_AT_bit_size(0x01)
    1440                      .dwattr $C$DW$89, DW_AT_data_member_location[DW_OP_plus_uconst 0x0]
    1441                      .dwattr $C$DW$89, DW_AT_accessibility(DW_ACCESS_public)
    1442              $C$DW$90        .dwtag  DW_TAG_member
    1443                      .dwattr $C$DW$90, DW_AT_type(*$C$DW$T$19)
    1444                      .dwattr $C$DW$90, DW_AT_name("INTx6")
    1445                      .dwattr $C$DW$90, DW_AT_TI_symbol_name("_INTx6")
    1446                      .dwattr $C$DW$90, DW_AT_bit_offset(0x0a), DW_AT_bit_size(0x01)
    1447                      .dwattr $C$DW$90, DW_AT_data_member_location[DW_OP_plus_uconst 0x0]
    1448                      .dwattr $C$DW$90, DW_AT_accessibility(DW_ACCESS_public)
    1449              $C$DW$91        .dwtag  DW_TAG_member
    1450                      .dwattr $C$DW$91, DW_AT_type(*$C$DW$T$19)
    1451                      .dwattr $C$DW$91, DW_AT_name("INTx7")
    1452                      .dwattr $C$DW$91, DW_AT_TI_symbol_name("_INTx7")
    1453                      .dwattr $C$DW$91, DW_AT_bit_offset(0x09), DW_AT_bit_size(0x01)
    1454                      .dwattr $C$DW$91, DW_AT_data_member_location[DW_OP_plus_uconst 0x0]
    1455                      .dwattr $C$DW$91, DW_AT_accessibility(DW_ACCESS_public)
    1456              $C$DW$92        .dwtag  DW_TAG_member
    1457                      .dwattr $C$DW$92, DW_AT_type(*$C$DW$T$19)
    1458                      .dwattr $C$DW$92, DW_AT_name("INTx8")
    1459                      .dwattr $C$DW$92, DW_AT_TI_symbol_name("_INTx8")
    1460                      .dwattr $C$DW$92, DW_AT_bit_offset(0x08), DW_AT_bit_size(0x01)
    1461                      .dwattr $C$DW$92, DW_AT_data_member_location[DW_OP_plus_uconst 0x0]
    1462                      .dwattr $C$DW$92, DW_AT_accessibility(DW_ACCESS_public)
    1463              $C$DW$93        .dwtag  DW_TAG_member
    1464                      .dwattr $C$DW$93, DW_AT_type(*$C$DW$T$19)
    1465                      .dwattr $C$DW$93, DW_AT_name("INTx9")
    1466                      .dwattr $C$DW$93, DW_AT_TI_symbol_name("_INTx9")
    1467                      .dwattr $C$DW$93, DW_AT_bit_offset(0x07), DW_AT_bit_size(0x01)
    1468                      .dwattr $C$DW$93, DW_AT_data_member_location[DW_OP_plus_uconst 0x0]
    1469                      .dwattr $C$DW$93, DW_AT_accessibility(DW_ACCESS_public)
    1470              $C$DW$94        .dwtag  DW_TAG_member
TMS320C2000 Assembler PC v6.4.2 Thu Dec 14 15:26:49 2017

Tools Copyright (c) 1996-2015 Texas Instruments Incorporated
interrupt.asm                                                        PAGE   29

    1471                      .dwattr $C$DW$94, DW_AT_type(*$C$DW$T$19)
    1472                      .dwattr $C$DW$94, DW_AT_name("INTx10")
    1473                      .dwattr $C$DW$94, DW_AT_TI_symbol_name("_INTx10")
    1474                      .dwattr $C$DW$94, DW_AT_bit_offset(0x06), DW_AT_bit_size(0x01)
    1475                      .dwattr $C$DW$94, DW_AT_data_member_location[DW_OP_plus_uconst 0x0]
    1476                      .dwattr $C$DW$94, DW_AT_accessibility(DW_ACCESS_public)
    1477              $C$DW$95        .dwtag  DW_TAG_member
    1478                      .dwattr $C$DW$95, DW_AT_type(*$C$DW$T$19)
    1479                      .dwattr $C$DW$95, DW_AT_name("INTx11")
    1480                      .dwattr $C$DW$95, DW_AT_TI_symbol_name("_INTx11")
    1481                      .dwattr $C$DW$95, DW_AT_bit_offset(0x05), DW_AT_bit_size(0x01)
    1482                      .dwattr $C$DW$95, DW_AT_data_member_location[DW_OP_plus_uconst 0x0]
    1483                      .dwattr $C$DW$95, DW_AT_accessibility(DW_ACCESS_public)
    1484              $C$DW$96        .dwtag  DW_TAG_member
    1485                      .dwattr $C$DW$96, DW_AT_type(*$C$DW$T$19)
    1486                      .dwattr $C$DW$96, DW_AT_name("INTx12")
    1487                      .dwattr $C$DW$96, DW_AT_TI_symbol_name("_INTx12")
    1488                      .dwattr $C$DW$96, DW_AT_bit_offset(0x04), DW_AT_bit_size(0x01)
    1489                      .dwattr $C$DW$96, DW_AT_data_member_location[DW_OP_plus_uconst 0x0]
    1490                      .dwattr $C$DW$96, DW_AT_accessibility(DW_ACCESS_public)
    1491              $C$DW$97        .dwtag  DW_TAG_member
    1492                      .dwattr $C$DW$97, DW_AT_type(*$C$DW$T$19)
    1493                      .dwattr $C$DW$97, DW_AT_name("INTx13")
    1494                      .dwattr $C$DW$97, DW_AT_TI_symbol_name("_INTx13")
    1495                      .dwattr $C$DW$97, DW_AT_bit_offset(0x03), DW_AT_bit_size(0x01)
    1496                      .dwattr $C$DW$97, DW_AT_data_member_location[DW_OP_plus_uconst 0x0]
    1497                      .dwattr $C$DW$97, DW_AT_accessibility(DW_ACCESS_public)
    1498              $C$DW$98        .dwtag  DW_TAG_member
    1499                      .dwattr $C$DW$98, DW_AT_type(*$C$DW$T$19)
    1500                      .dwattr $C$DW$98, DW_AT_name("INTx14")
    1501                      .dwattr $C$DW$98, DW_AT_TI_symbol_name("_INTx14")
    1502                      .dwattr $C$DW$98, DW_AT_bit_offset(0x02), DW_AT_bit_size(0x01)
    1503                      .dwattr $C$DW$98, DW_AT_data_member_location[DW_OP_plus_uconst 0x0]
    1504                      .dwattr $C$DW$98, DW_AT_accessibility(DW_ACCESS_public)
    1505              $C$DW$99        .dwtag  DW_TAG_member
    1506                      .dwattr $C$DW$99, DW_AT_type(*$C$DW$T$19)
    1507                      .dwattr $C$DW$99, DW_AT_name("INTx15")
    1508                      .dwattr $C$DW$99, DW_AT_TI_symbol_name("_INTx15")
    1509                      .dwattr $C$DW$99, DW_AT_bit_offset(0x01), DW_AT_bit_size(0x01)
    1510                      .dwattr $C$DW$99, DW_AT_data_member_location[DW_OP_plus_uconst 0x0]
    1511                      .dwattr $C$DW$99, DW_AT_accessibility(DW_ACCESS_public)
    1512              $C$DW$100       .dwtag  DW_TAG_member
    1513                      .dwattr $C$DW$100, DW_AT_type(*$C$DW$T$19)
    1514                      .dwattr $C$DW$100, DW_AT_name("INTx16")
    1515                      .dwattr $C$DW$100, DW_AT_TI_symbol_name("_INTx16")
    1516                      .dwattr $C$DW$100, DW_AT_bit_offset(0x00), DW_AT_bit_size(0x01)
    1517                      .dwattr $C$DW$100, DW_AT_data_member_location[DW_OP_plus_uconst 0x0]
    1518                      .dwattr $C$DW$100, DW_AT_accessibility(DW_ACCESS_public)
    1519                      .dwendtag $C$DW$T$26
    1520              
    1521              
    1522              $C$DW$T$27      .dwtag  DW_TAG_union_type
    1523                      .dwattr $C$DW$T$27, DW_AT_name("PIEIER11_REG")
    1524                      .dwattr $C$DW$T$27, DW_AT_byte_size(0x01)
    1525              $C$DW$101       .dwtag  DW_TAG_member
TMS320C2000 Assembler PC v6.4.2 Thu Dec 14 15:26:49 2017

Tools Copyright (c) 1996-2015 Texas Instruments Incorporated
interrupt.asm                                                        PAGE   30

    1526                      .dwattr $C$DW$101, DW_AT_type(*$C$DW$T$19)
    1527                      .dwattr $C$DW$101, DW_AT_name("all")
    1528                      .dwattr $C$DW$101, DW_AT_TI_symbol_name("_all")
    1529                      .dwattr $C$DW$101, DW_AT_data_member_location[DW_OP_plus_uconst 0x0]
    1530                      .dwattr $C$DW$101, DW_AT_accessibility(DW_ACCESS_public)
    1531              $C$DW$102       .dwtag  DW_TAG_member
    1532                      .dwattr $C$DW$102, DW_AT_type(*$C$DW$T$26)
    1533                      .dwattr $C$DW$102, DW_AT_name("bit")
    1534                      .dwattr $C$DW$102, DW_AT_TI_symbol_name("_bit")
    1535                      .dwattr $C$DW$102, DW_AT_data_member_location[DW_OP_plus_uconst 0x0]
    1536                      .dwattr $C$DW$102, DW_AT_accessibility(DW_ACCESS_public)
    1537                      .dwendtag $C$DW$T$27
    1538              
    1539              
    1540              $C$DW$T$28      .dwtag  DW_TAG_structure_type
    1541                      .dwattr $C$DW$T$28, DW_AT_name("PIEIER12_BITS")
    1542                      .dwattr $C$DW$T$28, DW_AT_byte_size(0x01)
    1543              $C$DW$103       .dwtag  DW_TAG_member
    1544                      .dwattr $C$DW$103, DW_AT_type(*$C$DW$T$19)
    1545                      .dwattr $C$DW$103, DW_AT_name("INTx1")
    1546                      .dwattr $C$DW$103, DW_AT_TI_symbol_name("_INTx1")
    1547                      .dwattr $C$DW$103, DW_AT_bit_offset(0x0f), DW_AT_bit_size(0x01)
    1548                      .dwattr $C$DW$103, DW_AT_data_member_location[DW_OP_plus_uconst 0x0]
    1549                      .dwattr $C$DW$103, DW_AT_accessibility(DW_ACCESS_public)
    1550              $C$DW$104       .dwtag  DW_TAG_member
    1551                      .dwattr $C$DW$104, DW_AT_type(*$C$DW$T$19)
    1552                      .dwattr $C$DW$104, DW_AT_name("INTx2")
    1553                      .dwattr $C$DW$104, DW_AT_TI_symbol_name("_INTx2")
    1554                      .dwattr $C$DW$104, DW_AT_bit_offset(0x0e), DW_AT_bit_size(0x01)
    1555                      .dwattr $C$DW$104, DW_AT_data_member_location[DW_OP_plus_uconst 0x0]
    1556                      .dwattr $C$DW$104, DW_AT_accessibility(DW_ACCESS_public)
    1557              $C$DW$105       .dwtag  DW_TAG_member
    1558                      .dwattr $C$DW$105, DW_AT_type(*$C$DW$T$19)
    1559                      .dwattr $C$DW$105, DW_AT_name("INTx3")
    1560                      .dwattr $C$DW$105, DW_AT_TI_symbol_name("_INTx3")
    1561                      .dwattr $C$DW$105, DW_AT_bit_offset(0x0d), DW_AT_bit_size(0x01)
    1562                      .dwattr $C$DW$105, DW_AT_data_member_location[DW_OP_plus_uconst 0x0]
    1563                      .dwattr $C$DW$105, DW_AT_accessibility(DW_ACCESS_public)
    1564              $C$DW$106       .dwtag  DW_TAG_member
    1565                      .dwattr $C$DW$106, DW_AT_type(*$C$DW$T$19)
    1566                      .dwattr $C$DW$106, DW_AT_name("INTx4")
    1567                      .dwattr $C$DW$106, DW_AT_TI_symbol_name("_INTx4")
    1568                      .dwattr $C$DW$106, DW_AT_bit_offset(0x0c), DW_AT_bit_size(0x01)
    1569                      .dwattr $C$DW$106, DW_AT_data_member_location[DW_OP_plus_uconst 0x0]
    1570                      .dwattr $C$DW$106, DW_AT_accessibility(DW_ACCESS_public)
    1571              $C$DW$107       .dwtag  DW_TAG_member
    1572                      .dwattr $C$DW$107, DW_AT_type(*$C$DW$T$19)
    1573                      .dwattr $C$DW$107, DW_AT_name("INTx5")
    1574                      .dwattr $C$DW$107, DW_AT_TI_symbol_name("_INTx5")
    1575                      .dwattr $C$DW$107, DW_AT_bit_offset(0x0b), DW_AT_bit_size(0x01)
    1576                      .dwattr $C$DW$107, DW_AT_data_member_location[DW_OP_plus_uconst 0x0]
    1577                      .dwattr $C$DW$107, DW_AT_accessibility(DW_ACCESS_public)
    1578              $C$DW$108       .dwtag  DW_TAG_member
    1579                      .dwattr $C$DW$108, DW_AT_type(*$C$DW$T$19)
    1580                      .dwattr $C$DW$108, DW_AT_name("INTx6")
TMS320C2000 Assembler PC v6.4.2 Thu Dec 14 15:26:49 2017

Tools Copyright (c) 1996-2015 Texas Instruments Incorporated
interrupt.asm                                                        PAGE   31

    1581                      .dwattr $C$DW$108, DW_AT_TI_symbol_name("_INTx6")
    1582                      .dwattr $C$DW$108, DW_AT_bit_offset(0x0a), DW_AT_bit_size(0x01)
    1583                      .dwattr $C$DW$108, DW_AT_data_member_location[DW_OP_plus_uconst 0x0]
    1584                      .dwattr $C$DW$108, DW_AT_accessibility(DW_ACCESS_public)
    1585              $C$DW$109       .dwtag  DW_TAG_member
    1586                      .dwattr $C$DW$109, DW_AT_type(*$C$DW$T$19)
    1587                      .dwattr $C$DW$109, DW_AT_name("INTx7")
    1588                      .dwattr $C$DW$109, DW_AT_TI_symbol_name("_INTx7")
    1589                      .dwattr $C$DW$109, DW_AT_bit_offset(0x09), DW_AT_bit_size(0x01)
    1590                      .dwattr $C$DW$109, DW_AT_data_member_location[DW_OP_plus_uconst 0x0]
    1591                      .dwattr $C$DW$109, DW_AT_accessibility(DW_ACCESS_public)
    1592              $C$DW$110       .dwtag  DW_TAG_member
    1593                      .dwattr $C$DW$110, DW_AT_type(*$C$DW$T$19)
    1594                      .dwattr $C$DW$110, DW_AT_name("INTx8")
    1595                      .dwattr $C$DW$110, DW_AT_TI_symbol_name("_INTx8")
    1596                      .dwattr $C$DW$110, DW_AT_bit_offset(0x08), DW_AT_bit_size(0x01)
    1597                      .dwattr $C$DW$110, DW_AT_data_member_location[DW_OP_plus_uconst 0x0]
    1598                      .dwattr $C$DW$110, DW_AT_accessibility(DW_ACCESS_public)
    1599              $C$DW$111       .dwtag  DW_TAG_member
    1600                      .dwattr $C$DW$111, DW_AT_type(*$C$DW$T$19)
    1601                      .dwattr $C$DW$111, DW_AT_name("INTx9")
    1602                      .dwattr $C$DW$111, DW_AT_TI_symbol_name("_INTx9")
    1603                      .dwattr $C$DW$111, DW_AT_bit_offset(0x07), DW_AT_bit_size(0x01)
    1604                      .dwattr $C$DW$111, DW_AT_data_member_location[DW_OP_plus_uconst 0x0]
    1605                      .dwattr $C$DW$111, DW_AT_accessibility(DW_ACCESS_public)
    1606              $C$DW$112       .dwtag  DW_TAG_member
    1607                      .dwattr $C$DW$112, DW_AT_type(*$C$DW$T$19)
    1608                      .dwattr $C$DW$112, DW_AT_name("INTx10")
    1609                      .dwattr $C$DW$112, DW_AT_TI_symbol_name("_INTx10")
    1610                      .dwattr $C$DW$112, DW_AT_bit_offset(0x06), DW_AT_bit_size(0x01)
    1611                      .dwattr $C$DW$112, DW_AT_data_member_location[DW_OP_plus_uconst 0x0]
    1612                      .dwattr $C$DW$112, DW_AT_accessibility(DW_ACCESS_public)
    1613              $C$DW$113       .dwtag  DW_TAG_member
    1614                      .dwattr $C$DW$113, DW_AT_type(*$C$DW$T$19)
    1615                      .dwattr $C$DW$113, DW_AT_name("INTx11")
    1616                      .dwattr $C$DW$113, DW_AT_TI_symbol_name("_INTx11")
    1617                      .dwattr $C$DW$113, DW_AT_bit_offset(0x05), DW_AT_bit_size(0x01)
    1618                      .dwattr $C$DW$113, DW_AT_data_member_location[DW_OP_plus_uconst 0x0]
    1619                      .dwattr $C$DW$113, DW_AT_accessibility(DW_ACCESS_public)
    1620              $C$DW$114       .dwtag  DW_TAG_member
    1621                      .dwattr $C$DW$114, DW_AT_type(*$C$DW$T$19)
    1622                      .dwattr $C$DW$114, DW_AT_name("INTx12")
    1623                      .dwattr $C$DW$114, DW_AT_TI_symbol_name("_INTx12")
    1624                      .dwattr $C$DW$114, DW_AT_bit_offset(0x04), DW_AT_bit_size(0x01)
    1625                      .dwattr $C$DW$114, DW_AT_data_member_location[DW_OP_plus_uconst 0x0]
    1626                      .dwattr $C$DW$114, DW_AT_accessibility(DW_ACCESS_public)
    1627              $C$DW$115       .dwtag  DW_TAG_member
    1628                      .dwattr $C$DW$115, DW_AT_type(*$C$DW$T$19)
    1629                      .dwattr $C$DW$115, DW_AT_name("INTx13")
    1630                      .dwattr $C$DW$115, DW_AT_TI_symbol_name("_INTx13")
    1631                      .dwattr $C$DW$115, DW_AT_bit_offset(0x03), DW_AT_bit_size(0x01)
    1632                      .dwattr $C$DW$115, DW_AT_data_member_location[DW_OP_plus_uconst 0x0]
    1633                      .dwattr $C$DW$115, DW_AT_accessibility(DW_ACCESS_public)
    1634              $C$DW$116       .dwtag  DW_TAG_member
    1635                      .dwattr $C$DW$116, DW_AT_type(*$C$DW$T$19)
TMS320C2000 Assembler PC v6.4.2 Thu Dec 14 15:26:49 2017

Tools Copyright (c) 1996-2015 Texas Instruments Incorporated
interrupt.asm                                                        PAGE   32

    1636                      .dwattr $C$DW$116, DW_AT_name("INTx14")
    1637                      .dwattr $C$DW$116, DW_AT_TI_symbol_name("_INTx14")
    1638                      .dwattr $C$DW$116, DW_AT_bit_offset(0x02), DW_AT_bit_size(0x01)
    1639                      .dwattr $C$DW$116, DW_AT_data_member_location[DW_OP_plus_uconst 0x0]
    1640                      .dwattr $C$DW$116, DW_AT_accessibility(DW_ACCESS_public)
    1641              $C$DW$117       .dwtag  DW_TAG_member
    1642                      .dwattr $C$DW$117, DW_AT_type(*$C$DW$T$19)
    1643                      .dwattr $C$DW$117, DW_AT_name("INTx15")
    1644                      .dwattr $C$DW$117, DW_AT_TI_symbol_name("_INTx15")
    1645                      .dwattr $C$DW$117, DW_AT_bit_offset(0x01), DW_AT_bit_size(0x01)
    1646                      .dwattr $C$DW$117, DW_AT_data_member_location[DW_OP_plus_uconst 0x0]
    1647                      .dwattr $C$DW$117, DW_AT_accessibility(DW_ACCESS_public)
    1648              $C$DW$118       .dwtag  DW_TAG_member
    1649                      .dwattr $C$DW$118, DW_AT_type(*$C$DW$T$19)
    1650                      .dwattr $C$DW$118, DW_AT_name("INTx16")
    1651                      .dwattr $C$DW$118, DW_AT_TI_symbol_name("_INTx16")
    1652                      .dwattr $C$DW$118, DW_AT_bit_offset(0x00), DW_AT_bit_size(0x01)
    1653                      .dwattr $C$DW$118, DW_AT_data_member_location[DW_OP_plus_uconst 0x0]
    1654                      .dwattr $C$DW$118, DW_AT_accessibility(DW_ACCESS_public)
    1655                      .dwendtag $C$DW$T$28
    1656              
    1657              
    1658              $C$DW$T$29      .dwtag  DW_TAG_union_type
    1659                      .dwattr $C$DW$T$29, DW_AT_name("PIEIER12_REG")
    1660                      .dwattr $C$DW$T$29, DW_AT_byte_size(0x01)
    1661              $C$DW$119       .dwtag  DW_TAG_member
    1662                      .dwattr $C$DW$119, DW_AT_type(*$C$DW$T$19)
    1663                      .dwattr $C$DW$119, DW_AT_name("all")
    1664                      .dwattr $C$DW$119, DW_AT_TI_symbol_name("_all")
    1665                      .dwattr $C$DW$119, DW_AT_data_member_location[DW_OP_plus_uconst 0x0]
    1666                      .dwattr $C$DW$119, DW_AT_accessibility(DW_ACCESS_public)
    1667              $C$DW$120       .dwtag  DW_TAG_member
    1668                      .dwattr $C$DW$120, DW_AT_type(*$C$DW$T$28)
    1669                      .dwattr $C$DW$120, DW_AT_name("bit")
    1670                      .dwattr $C$DW$120, DW_AT_TI_symbol_name("_bit")
    1671                      .dwattr $C$DW$120, DW_AT_data_member_location[DW_OP_plus_uconst 0x0]
    1672                      .dwattr $C$DW$120, DW_AT_accessibility(DW_ACCESS_public)
    1673                      .dwendtag $C$DW$T$29
    1674              
    1675              
    1676              $C$DW$T$30      .dwtag  DW_TAG_structure_type
    1677                      .dwattr $C$DW$T$30, DW_AT_name("PIEIER1_BITS")
    1678                      .dwattr $C$DW$T$30, DW_AT_byte_size(0x01)
    1679              $C$DW$121       .dwtag  DW_TAG_member
    1680                      .dwattr $C$DW$121, DW_AT_type(*$C$DW$T$19)
    1681                      .dwattr $C$DW$121, DW_AT_name("INTx1")
    1682                      .dwattr $C$DW$121, DW_AT_TI_symbol_name("_INTx1")
    1683                      .dwattr $C$DW$121, DW_AT_bit_offset(0x0f), DW_AT_bit_size(0x01)
    1684                      .dwattr $C$DW$121, DW_AT_data_member_location[DW_OP_plus_uconst 0x0]
    1685                      .dwattr $C$DW$121, DW_AT_accessibility(DW_ACCESS_public)
    1686              $C$DW$122       .dwtag  DW_TAG_member
    1687                      .dwattr $C$DW$122, DW_AT_type(*$C$DW$T$19)
    1688                      .dwattr $C$DW$122, DW_AT_name("INTx2")
    1689                      .dwattr $C$DW$122, DW_AT_TI_symbol_name("_INTx2")
    1690                      .dwattr $C$DW$122, DW_AT_bit_offset(0x0e), DW_AT_bit_size(0x01)
TMS320C2000 Assembler PC v6.4.2 Thu Dec 14 15:26:49 2017

Tools Copyright (c) 1996-2015 Texas Instruments Incorporated
interrupt.asm                                                        PAGE   33

    1691                      .dwattr $C$DW$122, DW_AT_data_member_location[DW_OP_plus_uconst 0x0]
    1692                      .dwattr $C$DW$122, DW_AT_accessibility(DW_ACCESS_public)
    1693              $C$DW$123       .dwtag  DW_TAG_member
    1694                      .dwattr $C$DW$123, DW_AT_type(*$C$DW$T$19)
    1695                      .dwattr $C$DW$123, DW_AT_name("INTx3")
    1696                      .dwattr $C$DW$123, DW_AT_TI_symbol_name("_INTx3")
    1697                      .dwattr $C$DW$123, DW_AT_bit_offset(0x0d), DW_AT_bit_size(0x01)
    1698                      .dwattr $C$DW$123, DW_AT_data_member_location[DW_OP_plus_uconst 0x0]
    1699                      .dwattr $C$DW$123, DW_AT_accessibility(DW_ACCESS_public)
    1700              $C$DW$124       .dwtag  DW_TAG_member
    1701                      .dwattr $C$DW$124, DW_AT_type(*$C$DW$T$19)
    1702                      .dwattr $C$DW$124, DW_AT_name("INTx4")
    1703                      .dwattr $C$DW$124, DW_AT_TI_symbol_name("_INTx4")
    1704                      .dwattr $C$DW$124, DW_AT_bit_offset(0x0c), DW_AT_bit_size(0x01)
    1705                      .dwattr $C$DW$124, DW_AT_data_member_location[DW_OP_plus_uconst 0x0]
    1706                      .dwattr $C$DW$124, DW_AT_accessibility(DW_ACCESS_public)
    1707              $C$DW$125       .dwtag  DW_TAG_member
    1708                      .dwattr $C$DW$125, DW_AT_type(*$C$DW$T$19)
    1709                      .dwattr $C$DW$125, DW_AT_name("INTx5")
    1710                      .dwattr $C$DW$125, DW_AT_TI_symbol_name("_INTx5")
    1711                      .dwattr $C$DW$125, DW_AT_bit_offset(0x0b), DW_AT_bit_size(0x01)
    1712                      .dwattr $C$DW$125, DW_AT_data_member_location[DW_OP_plus_uconst 0x0]
    1713                      .dwattr $C$DW$125, DW_AT_accessibility(DW_ACCESS_public)
    1714              $C$DW$126       .dwtag  DW_TAG_member
    1715                      .dwattr $C$DW$126, DW_AT_type(*$C$DW$T$19)
    1716                      .dwattr $C$DW$126, DW_AT_name("INTx6")
    1717                      .dwattr $C$DW$126, DW_AT_TI_symbol_name("_INTx6")
    1718                      .dwattr $C$DW$126, DW_AT_bit_offset(0x0a), DW_AT_bit_size(0x01)
    1719                      .dwattr $C$DW$126, DW_AT_data_member_location[DW_OP_plus_uconst 0x0]
    1720                      .dwattr $C$DW$126, DW_AT_accessibility(DW_ACCESS_public)
    1721              $C$DW$127       .dwtag  DW_TAG_member
    1722                      .dwattr $C$DW$127, DW_AT_type(*$C$DW$T$19)
    1723                      .dwattr $C$DW$127, DW_AT_name("INTx7")
    1724                      .dwattr $C$DW$127, DW_AT_TI_symbol_name("_INTx7")
    1725                      .dwattr $C$DW$127, DW_AT_bit_offset(0x09), DW_AT_bit_size(0x01)
    1726                      .dwattr $C$DW$127, DW_AT_data_member_location[DW_OP_plus_uconst 0x0]
    1727                      .dwattr $C$DW$127, DW_AT_accessibility(DW_ACCESS_public)
    1728              $C$DW$128       .dwtag  DW_TAG_member
    1729                      .dwattr $C$DW$128, DW_AT_type(*$C$DW$T$19)
    1730                      .dwattr $C$DW$128, DW_AT_name("INTx8")
    1731                      .dwattr $C$DW$128, DW_AT_TI_symbol_name("_INTx8")
    1732                      .dwattr $C$DW$128, DW_AT_bit_offset(0x08), DW_AT_bit_size(0x01)
    1733                      .dwattr $C$DW$128, DW_AT_data_member_location[DW_OP_plus_uconst 0x0]
    1734                      .dwattr $C$DW$128, DW_AT_accessibility(DW_ACCESS_public)
    1735              $C$DW$129       .dwtag  DW_TAG_member
    1736                      .dwattr $C$DW$129, DW_AT_type(*$C$DW$T$19)
    1737                      .dwattr $C$DW$129, DW_AT_name("INTx9")
    1738                      .dwattr $C$DW$129, DW_AT_TI_symbol_name("_INTx9")
    1739                      .dwattr $C$DW$129, DW_AT_bit_offset(0x07), DW_AT_bit_size(0x01)
    1740                      .dwattr $C$DW$129, DW_AT_data_member_location[DW_OP_plus_uconst 0x0]
    1741                      .dwattr $C$DW$129, DW_AT_accessibility(DW_ACCESS_public)
    1742              $C$DW$130       .dwtag  DW_TAG_member
    1743                      .dwattr $C$DW$130, DW_AT_type(*$C$DW$T$19)
    1744                      .dwattr $C$DW$130, DW_AT_name("INTx10")
    1745                      .dwattr $C$DW$130, DW_AT_TI_symbol_name("_INTx10")
TMS320C2000 Assembler PC v6.4.2 Thu Dec 14 15:26:49 2017

Tools Copyright (c) 1996-2015 Texas Instruments Incorporated
interrupt.asm                                                        PAGE   34

    1746                      .dwattr $C$DW$130, DW_AT_bit_offset(0x06), DW_AT_bit_size(0x01)
    1747                      .dwattr $C$DW$130, DW_AT_data_member_location[DW_OP_plus_uconst 0x0]
    1748                      .dwattr $C$DW$130, DW_AT_accessibility(DW_ACCESS_public)
    1749              $C$DW$131       .dwtag  DW_TAG_member
    1750                      .dwattr $C$DW$131, DW_AT_type(*$C$DW$T$19)
    1751                      .dwattr $C$DW$131, DW_AT_name("INTx11")
    1752                      .dwattr $C$DW$131, DW_AT_TI_symbol_name("_INTx11")
    1753                      .dwattr $C$DW$131, DW_AT_bit_offset(0x05), DW_AT_bit_size(0x01)
    1754                      .dwattr $C$DW$131, DW_AT_data_member_location[DW_OP_plus_uconst 0x0]
    1755                      .dwattr $C$DW$131, DW_AT_accessibility(DW_ACCESS_public)
    1756              $C$DW$132       .dwtag  DW_TAG_member
    1757                      .dwattr $C$DW$132, DW_AT_type(*$C$DW$T$19)
    1758                      .dwattr $C$DW$132, DW_AT_name("INTx12")
    1759                      .dwattr $C$DW$132, DW_AT_TI_symbol_name("_INTx12")
    1760                      .dwattr $C$DW$132, DW_AT_bit_offset(0x04), DW_AT_bit_size(0x01)
    1761                      .dwattr $C$DW$132, DW_AT_data_member_location[DW_OP_plus_uconst 0x0]
    1762                      .dwattr $C$DW$132, DW_AT_accessibility(DW_ACCESS_public)
    1763              $C$DW$133       .dwtag  DW_TAG_member
    1764                      .dwattr $C$DW$133, DW_AT_type(*$C$DW$T$19)
    1765                      .dwattr $C$DW$133, DW_AT_name("INTx13")
    1766                      .dwattr $C$DW$133, DW_AT_TI_symbol_name("_INTx13")
    1767                      .dwattr $C$DW$133, DW_AT_bit_offset(0x03), DW_AT_bit_size(0x01)
    1768                      .dwattr $C$DW$133, DW_AT_data_member_location[DW_OP_plus_uconst 0x0]
    1769                      .dwattr $C$DW$133, DW_AT_accessibility(DW_ACCESS_public)
    1770              $C$DW$134       .dwtag  DW_TAG_member
    1771                      .dwattr $C$DW$134, DW_AT_type(*$C$DW$T$19)
    1772                      .dwattr $C$DW$134, DW_AT_name("INTx14")
    1773                      .dwattr $C$DW$134, DW_AT_TI_symbol_name("_INTx14")
    1774                      .dwattr $C$DW$134, DW_AT_bit_offset(0x02), DW_AT_bit_size(0x01)
    1775                      .dwattr $C$DW$134, DW_AT_data_member_location[DW_OP_plus_uconst 0x0]
    1776                      .dwattr $C$DW$134, DW_AT_accessibility(DW_ACCESS_public)
    1777              $C$DW$135       .dwtag  DW_TAG_member
    1778                      .dwattr $C$DW$135, DW_AT_type(*$C$DW$T$19)
    1779                      .dwattr $C$DW$135, DW_AT_name("INTx15")
    1780                      .dwattr $C$DW$135, DW_AT_TI_symbol_name("_INTx15")
    1781                      .dwattr $C$DW$135, DW_AT_bit_offset(0x01), DW_AT_bit_size(0x01)
    1782                      .dwattr $C$DW$135, DW_AT_data_member_location[DW_OP_plus_uconst 0x0]
    1783                      .dwattr $C$DW$135, DW_AT_accessibility(DW_ACCESS_public)
    1784              $C$DW$136       .dwtag  DW_TAG_member
    1785                      .dwattr $C$DW$136, DW_AT_type(*$C$DW$T$19)
    1786                      .dwattr $C$DW$136, DW_AT_name("INTx16")
    1787                      .dwattr $C$DW$136, DW_AT_TI_symbol_name("_INTx16")
    1788                      .dwattr $C$DW$136, DW_AT_bit_offset(0x00), DW_AT_bit_size(0x01)
    1789                      .dwattr $C$DW$136, DW_AT_data_member_location[DW_OP_plus_uconst 0x0]
    1790                      .dwattr $C$DW$136, DW_AT_accessibility(DW_ACCESS_public)
    1791                      .dwendtag $C$DW$T$30
    1792              
    1793              
    1794              $C$DW$T$31      .dwtag  DW_TAG_union_type
    1795                      .dwattr $C$DW$T$31, DW_AT_name("PIEIER1_REG")
    1796                      .dwattr $C$DW$T$31, DW_AT_byte_size(0x01)
    1797              $C$DW$137       .dwtag  DW_TAG_member
    1798                      .dwattr $C$DW$137, DW_AT_type(*$C$DW$T$19)
    1799                      .dwattr $C$DW$137, DW_AT_name("all")
    1800                      .dwattr $C$DW$137, DW_AT_TI_symbol_name("_all")
TMS320C2000 Assembler PC v6.4.2 Thu Dec 14 15:26:49 2017

Tools Copyright (c) 1996-2015 Texas Instruments Incorporated
interrupt.asm                                                        PAGE   35

    1801                      .dwattr $C$DW$137, DW_AT_data_member_location[DW_OP_plus_uconst 0x0]
    1802                      .dwattr $C$DW$137, DW_AT_accessibility(DW_ACCESS_public)
    1803              $C$DW$138       .dwtag  DW_TAG_member
    1804                      .dwattr $C$DW$138, DW_AT_type(*$C$DW$T$30)
    1805                      .dwattr $C$DW$138, DW_AT_name("bit")
    1806                      .dwattr $C$DW$138, DW_AT_TI_symbol_name("_bit")
    1807                      .dwattr $C$DW$138, DW_AT_data_member_location[DW_OP_plus_uconst 0x0]
    1808                      .dwattr $C$DW$138, DW_AT_accessibility(DW_ACCESS_public)
    1809                      .dwendtag $C$DW$T$31
    1810              
    1811              
    1812              $C$DW$T$32      .dwtag  DW_TAG_structure_type
    1813                      .dwattr $C$DW$T$32, DW_AT_name("PIEIER2_BITS")
    1814                      .dwattr $C$DW$T$32, DW_AT_byte_size(0x01)
    1815              $C$DW$139       .dwtag  DW_TAG_member
    1816                      .dwattr $C$DW$139, DW_AT_type(*$C$DW$T$19)
    1817                      .dwattr $C$DW$139, DW_AT_name("INTx1")
    1818                      .dwattr $C$DW$139, DW_AT_TI_symbol_name("_INTx1")
    1819                      .dwattr $C$DW$139, DW_AT_bit_offset(0x0f), DW_AT_bit_size(0x01)
    1820                      .dwattr $C$DW$139, DW_AT_data_member_location[DW_OP_plus_uconst 0x0]
    1821                      .dwattr $C$DW$139, DW_AT_accessibility(DW_ACCESS_public)
    1822              $C$DW$140       .dwtag  DW_TAG_member
    1823                      .dwattr $C$DW$140, DW_AT_type(*$C$DW$T$19)
    1824                      .dwattr $C$DW$140, DW_AT_name("INTx2")
    1825                      .dwattr $C$DW$140, DW_AT_TI_symbol_name("_INTx2")
    1826                      .dwattr $C$DW$140, DW_AT_bit_offset(0x0e), DW_AT_bit_size(0x01)
    1827                      .dwattr $C$DW$140, DW_AT_data_member_location[DW_OP_plus_uconst 0x0]
    1828                      .dwattr $C$DW$140, DW_AT_accessibility(DW_ACCESS_public)
    1829              $C$DW$141       .dwtag  DW_TAG_member
    1830                      .dwattr $C$DW$141, DW_AT_type(*$C$DW$T$19)
    1831                      .dwattr $C$DW$141, DW_AT_name("INTx3")
    1832                      .dwattr $C$DW$141, DW_AT_TI_symbol_name("_INTx3")
    1833                      .dwattr $C$DW$141, DW_AT_bit_offset(0x0d), DW_AT_bit_size(0x01)
    1834                      .dwattr $C$DW$141, DW_AT_data_member_location[DW_OP_plus_uconst 0x0]
    1835                      .dwattr $C$DW$141, DW_AT_accessibility(DW_ACCESS_public)
    1836              $C$DW$142       .dwtag  DW_TAG_member
    1837                      .dwattr $C$DW$142, DW_AT_type(*$C$DW$T$19)
    1838                      .dwattr $C$DW$142, DW_AT_name("INTx4")
    1839                      .dwattr $C$DW$142, DW_AT_TI_symbol_name("_INTx4")
    1840                      .dwattr $C$DW$142, DW_AT_bit_offset(0x0c), DW_AT_bit_size(0x01)
    1841                      .dwattr $C$DW$142, DW_AT_data_member_location[DW_OP_plus_uconst 0x0]
    1842                      .dwattr $C$DW$142, DW_AT_accessibility(DW_ACCESS_public)
    1843              $C$DW$143       .dwtag  DW_TAG_member
    1844                      .dwattr $C$DW$143, DW_AT_type(*$C$DW$T$19)
    1845                      .dwattr $C$DW$143, DW_AT_name("INTx5")
    1846                      .dwattr $C$DW$143, DW_AT_TI_symbol_name("_INTx5")
    1847                      .dwattr $C$DW$143, DW_AT_bit_offset(0x0b), DW_AT_bit_size(0x01)
    1848                      .dwattr $C$DW$143, DW_AT_data_member_location[DW_OP_plus_uconst 0x0]
    1849                      .dwattr $C$DW$143, DW_AT_accessibility(DW_ACCESS_public)
    1850              $C$DW$144       .dwtag  DW_TAG_member
    1851                      .dwattr $C$DW$144, DW_AT_type(*$C$DW$T$19)
    1852                      .dwattr $C$DW$144, DW_AT_name("INTx6")
    1853                      .dwattr $C$DW$144, DW_AT_TI_symbol_name("_INTx6")
    1854                      .dwattr $C$DW$144, DW_AT_bit_offset(0x0a), DW_AT_bit_size(0x01)
    1855                      .dwattr $C$DW$144, DW_AT_data_member_location[DW_OP_plus_uconst 0x0]
TMS320C2000 Assembler PC v6.4.2 Thu Dec 14 15:26:49 2017

Tools Copyright (c) 1996-2015 Texas Instruments Incorporated
interrupt.asm                                                        PAGE   36

    1856                      .dwattr $C$DW$144, DW_AT_accessibility(DW_ACCESS_public)
    1857              $C$DW$145       .dwtag  DW_TAG_member
    1858                      .dwattr $C$DW$145, DW_AT_type(*$C$DW$T$19)
    1859                      .dwattr $C$DW$145, DW_AT_name("INTx7")
    1860                      .dwattr $C$DW$145, DW_AT_TI_symbol_name("_INTx7")
    1861                      .dwattr $C$DW$145, DW_AT_bit_offset(0x09), DW_AT_bit_size(0x01)
    1862                      .dwattr $C$DW$145, DW_AT_data_member_location[DW_OP_plus_uconst 0x0]
    1863                      .dwattr $C$DW$145, DW_AT_accessibility(DW_ACCESS_public)
    1864              $C$DW$146       .dwtag  DW_TAG_member
    1865                      .dwattr $C$DW$146, DW_AT_type(*$C$DW$T$19)
    1866                      .dwattr $C$DW$146, DW_AT_name("INTx8")
    1867                      .dwattr $C$DW$146, DW_AT_TI_symbol_name("_INTx8")
    1868                      .dwattr $C$DW$146, DW_AT_bit_offset(0x08), DW_AT_bit_size(0x01)
    1869                      .dwattr $C$DW$146, DW_AT_data_member_location[DW_OP_plus_uconst 0x0]
    1870                      .dwattr $C$DW$146, DW_AT_accessibility(DW_ACCESS_public)
    1871              $C$DW$147       .dwtag  DW_TAG_member
    1872                      .dwattr $C$DW$147, DW_AT_type(*$C$DW$T$19)
    1873                      .dwattr $C$DW$147, DW_AT_name("INTx9")
    1874                      .dwattr $C$DW$147, DW_AT_TI_symbol_name("_INTx9")
    1875                      .dwattr $C$DW$147, DW_AT_bit_offset(0x07), DW_AT_bit_size(0x01)
    1876                      .dwattr $C$DW$147, DW_AT_data_member_location[DW_OP_plus_uconst 0x0]
    1877                      .dwattr $C$DW$147, DW_AT_accessibility(DW_ACCESS_public)
    1878              $C$DW$148       .dwtag  DW_TAG_member
    1879                      .dwattr $C$DW$148, DW_AT_type(*$C$DW$T$19)
    1880                      .dwattr $C$DW$148, DW_AT_name("INTx10")
    1881                      .dwattr $C$DW$148, DW_AT_TI_symbol_name("_INTx10")
    1882                      .dwattr $C$DW$148, DW_AT_bit_offset(0x06), DW_AT_bit_size(0x01)
    1883                      .dwattr $C$DW$148, DW_AT_data_member_location[DW_OP_plus_uconst 0x0]
    1884                      .dwattr $C$DW$148, DW_AT_accessibility(DW_ACCESS_public)
    1885              $C$DW$149       .dwtag  DW_TAG_member
    1886                      .dwattr $C$DW$149, DW_AT_type(*$C$DW$T$19)
    1887                      .dwattr $C$DW$149, DW_AT_name("INTx11")
    1888                      .dwattr $C$DW$149, DW_AT_TI_symbol_name("_INTx11")
    1889                      .dwattr $C$DW$149, DW_AT_bit_offset(0x05), DW_AT_bit_size(0x01)
    1890                      .dwattr $C$DW$149, DW_AT_data_member_location[DW_OP_plus_uconst 0x0]
    1891                      .dwattr $C$DW$149, DW_AT_accessibility(DW_ACCESS_public)
    1892              $C$DW$150       .dwtag  DW_TAG_member
    1893                      .dwattr $C$DW$150, DW_AT_type(*$C$DW$T$19)
    1894                      .dwattr $C$DW$150, DW_AT_name("INTx12")
    1895                      .dwattr $C$DW$150, DW_AT_TI_symbol_name("_INTx12")
    1896                      .dwattr $C$DW$150, DW_AT_bit_offset(0x04), DW_AT_bit_size(0x01)
    1897                      .dwattr $C$DW$150, DW_AT_data_member_location[DW_OP_plus_uconst 0x0]
    1898                      .dwattr $C$DW$150, DW_AT_accessibility(DW_ACCESS_public)
    1899              $C$DW$151       .dwtag  DW_TAG_member
    1900                      .dwattr $C$DW$151, DW_AT_type(*$C$DW$T$19)
    1901                      .dwattr $C$DW$151, DW_AT_name("INTx13")
    1902                      .dwattr $C$DW$151, DW_AT_TI_symbol_name("_INTx13")
    1903                      .dwattr $C$DW$151, DW_AT_bit_offset(0x03), DW_AT_bit_size(0x01)
    1904                      .dwattr $C$DW$151, DW_AT_data_member_location[DW_OP_plus_uconst 0x0]
    1905                      .dwattr $C$DW$151, DW_AT_accessibility(DW_ACCESS_public)
    1906              $C$DW$152       .dwtag  DW_TAG_member
    1907                      .dwattr $C$DW$152, DW_AT_type(*$C$DW$T$19)
    1908                      .dwattr $C$DW$152, DW_AT_name("INTx14")
    1909                      .dwattr $C$DW$152, DW_AT_TI_symbol_name("_INTx14")
    1910                      .dwattr $C$DW$152, DW_AT_bit_offset(0x02), DW_AT_bit_size(0x01)
TMS320C2000 Assembler PC v6.4.2 Thu Dec 14 15:26:49 2017

Tools Copyright (c) 1996-2015 Texas Instruments Incorporated
interrupt.asm                                                        PAGE   37

    1911                      .dwattr $C$DW$152, DW_AT_data_member_location[DW_OP_plus_uconst 0x0]
    1912                      .dwattr $C$DW$152, DW_AT_accessibility(DW_ACCESS_public)
    1913              $C$DW$153       .dwtag  DW_TAG_member
    1914                      .dwattr $C$DW$153, DW_AT_type(*$C$DW$T$19)
    1915                      .dwattr $C$DW$153, DW_AT_name("INTx15")
    1916                      .dwattr $C$DW$153, DW_AT_TI_symbol_name("_INTx15")
    1917                      .dwattr $C$DW$153, DW_AT_bit_offset(0x01), DW_AT_bit_size(0x01)
    1918                      .dwattr $C$DW$153, DW_AT_data_member_location[DW_OP_plus_uconst 0x0]
    1919                      .dwattr $C$DW$153, DW_AT_accessibility(DW_ACCESS_public)
    1920              $C$DW$154       .dwtag  DW_TAG_member
    1921                      .dwattr $C$DW$154, DW_AT_type(*$C$DW$T$19)
    1922                      .dwattr $C$DW$154, DW_AT_name("INTx16")
    1923                      .dwattr $C$DW$154, DW_AT_TI_symbol_name("_INTx16")
    1924                      .dwattr $C$DW$154, DW_AT_bit_offset(0x00), DW_AT_bit_size(0x01)
    1925                      .dwattr $C$DW$154, DW_AT_data_member_location[DW_OP_plus_uconst 0x0]
    1926                      .dwattr $C$DW$154, DW_AT_accessibility(DW_ACCESS_public)
    1927                      .dwendtag $C$DW$T$32
    1928              
    1929              
    1930              $C$DW$T$33      .dwtag  DW_TAG_union_type
    1931                      .dwattr $C$DW$T$33, DW_AT_name("PIEIER2_REG")
    1932                      .dwattr $C$DW$T$33, DW_AT_byte_size(0x01)
    1933              $C$DW$155       .dwtag  DW_TAG_member
    1934                      .dwattr $C$DW$155, DW_AT_type(*$C$DW$T$19)
    1935                      .dwattr $C$DW$155, DW_AT_name("all")
    1936                      .dwattr $C$DW$155, DW_AT_TI_symbol_name("_all")
    1937                      .dwattr $C$DW$155, DW_AT_data_member_location[DW_OP_plus_uconst 0x0]
    1938                      .dwattr $C$DW$155, DW_AT_accessibility(DW_ACCESS_public)
    1939              $C$DW$156       .dwtag  DW_TAG_member
    1940                      .dwattr $C$DW$156, DW_AT_type(*$C$DW$T$32)
    1941                      .dwattr $C$DW$156, DW_AT_name("bit")
    1942                      .dwattr $C$DW$156, DW_AT_TI_symbol_name("_bit")
    1943                      .dwattr $C$DW$156, DW_AT_data_member_location[DW_OP_plus_uconst 0x0]
    1944                      .dwattr $C$DW$156, DW_AT_accessibility(DW_ACCESS_public)
    1945                      .dwendtag $C$DW$T$33
    1946              
    1947              
    1948              $C$DW$T$34      .dwtag  DW_TAG_structure_type
    1949                      .dwattr $C$DW$T$34, DW_AT_name("PIEIER3_BITS")
    1950                      .dwattr $C$DW$T$34, DW_AT_byte_size(0x01)
    1951              $C$DW$157       .dwtag  DW_TAG_member
    1952                      .dwattr $C$DW$157, DW_AT_type(*$C$DW$T$19)
    1953                      .dwattr $C$DW$157, DW_AT_name("INTx1")
    1954                      .dwattr $C$DW$157, DW_AT_TI_symbol_name("_INTx1")
    1955                      .dwattr $C$DW$157, DW_AT_bit_offset(0x0f), DW_AT_bit_size(0x01)
    1956                      .dwattr $C$DW$157, DW_AT_data_member_location[DW_OP_plus_uconst 0x0]
    1957                      .dwattr $C$DW$157, DW_AT_accessibility(DW_ACCESS_public)
    1958              $C$DW$158       .dwtag  DW_TAG_member
    1959                      .dwattr $C$DW$158, DW_AT_type(*$C$DW$T$19)
    1960                      .dwattr $C$DW$158, DW_AT_name("INTx2")
    1961                      .dwattr $C$DW$158, DW_AT_TI_symbol_name("_INTx2")
    1962                      .dwattr $C$DW$158, DW_AT_bit_offset(0x0e), DW_AT_bit_size(0x01)
    1963                      .dwattr $C$DW$158, DW_AT_data_member_location[DW_OP_plus_uconst 0x0]
    1964                      .dwattr $C$DW$158, DW_AT_accessibility(DW_ACCESS_public)
    1965              $C$DW$159       .dwtag  DW_TAG_member
TMS320C2000 Assembler PC v6.4.2 Thu Dec 14 15:26:49 2017

Tools Copyright (c) 1996-2015 Texas Instruments Incorporated
interrupt.asm                                                        PAGE   38

    1966                      .dwattr $C$DW$159, DW_AT_type(*$C$DW$T$19)
    1967                      .dwattr $C$DW$159, DW_AT_name("INTx3")
    1968                      .dwattr $C$DW$159, DW_AT_TI_symbol_name("_INTx3")
    1969                      .dwattr $C$DW$159, DW_AT_bit_offset(0x0d), DW_AT_bit_size(0x01)
    1970                      .dwattr $C$DW$159, DW_AT_data_member_location[DW_OP_plus_uconst 0x0]
    1971                      .dwattr $C$DW$159, DW_AT_accessibility(DW_ACCESS_public)
    1972              $C$DW$160       .dwtag  DW_TAG_member
    1973                      .dwattr $C$DW$160, DW_AT_type(*$C$DW$T$19)
    1974                      .dwattr $C$DW$160, DW_AT_name("INTx4")
    1975                      .dwattr $C$DW$160, DW_AT_TI_symbol_name("_INTx4")
    1976                      .dwattr $C$DW$160, DW_AT_bit_offset(0x0c), DW_AT_bit_size(0x01)
    1977                      .dwattr $C$DW$160, DW_AT_data_member_location[DW_OP_plus_uconst 0x0]
    1978                      .dwattr $C$DW$160, DW_AT_accessibility(DW_ACCESS_public)
    1979              $C$DW$161       .dwtag  DW_TAG_member
    1980                      .dwattr $C$DW$161, DW_AT_type(*$C$DW$T$19)
    1981                      .dwattr $C$DW$161, DW_AT_name("INTx5")
    1982                      .dwattr $C$DW$161, DW_AT_TI_symbol_name("_INTx5")
    1983                      .dwattr $C$DW$161, DW_AT_bit_offset(0x0b), DW_AT_bit_size(0x01)
    1984                      .dwattr $C$DW$161, DW_AT_data_member_location[DW_OP_plus_uconst 0x0]
    1985                      .dwattr $C$DW$161, DW_AT_accessibility(DW_ACCESS_public)
    1986              $C$DW$162       .dwtag  DW_TAG_member
    1987                      .dwattr $C$DW$162, DW_AT_type(*$C$DW$T$19)
    1988                      .dwattr $C$DW$162, DW_AT_name("INTx6")
    1989                      .dwattr $C$DW$162, DW_AT_TI_symbol_name("_INTx6")
    1990                      .dwattr $C$DW$162, DW_AT_bit_offset(0x0a), DW_AT_bit_size(0x01)
    1991                      .dwattr $C$DW$162, DW_AT_data_member_location[DW_OP_plus_uconst 0x0]
    1992                      .dwattr $C$DW$162, DW_AT_accessibility(DW_ACCESS_public)
    1993              $C$DW$163       .dwtag  DW_TAG_member
    1994                      .dwattr $C$DW$163, DW_AT_type(*$C$DW$T$19)
    1995                      .dwattr $C$DW$163, DW_AT_name("INTx7")
    1996                      .dwattr $C$DW$163, DW_AT_TI_symbol_name("_INTx7")
    1997                      .dwattr $C$DW$163, DW_AT_bit_offset(0x09), DW_AT_bit_size(0x01)
    1998                      .dwattr $C$DW$163, DW_AT_data_member_location[DW_OP_plus_uconst 0x0]
    1999                      .dwattr $C$DW$163, DW_AT_accessibility(DW_ACCESS_public)
    2000              $C$DW$164       .dwtag  DW_TAG_member
    2001                      .dwattr $C$DW$164, DW_AT_type(*$C$DW$T$19)
    2002                      .dwattr $C$DW$164, DW_AT_name("INTx8")
    2003                      .dwattr $C$DW$164, DW_AT_TI_symbol_name("_INTx8")
    2004                      .dwattr $C$DW$164, DW_AT_bit_offset(0x08), DW_AT_bit_size(0x01)
    2005                      .dwattr $C$DW$164, DW_AT_data_member_location[DW_OP_plus_uconst 0x0]
    2006                      .dwattr $C$DW$164, DW_AT_accessibility(DW_ACCESS_public)
    2007              $C$DW$165       .dwtag  DW_TAG_member
    2008                      .dwattr $C$DW$165, DW_AT_type(*$C$DW$T$19)
    2009                      .dwattr $C$DW$165, DW_AT_name("INTx9")
    2010                      .dwattr $C$DW$165, DW_AT_TI_symbol_name("_INTx9")
    2011                      .dwattr $C$DW$165, DW_AT_bit_offset(0x07), DW_AT_bit_size(0x01)
    2012                      .dwattr $C$DW$165, DW_AT_data_member_location[DW_OP_plus_uconst 0x0]
    2013                      .dwattr $C$DW$165, DW_AT_accessibility(DW_ACCESS_public)
    2014              $C$DW$166       .dwtag  DW_TAG_member
    2015                      .dwattr $C$DW$166, DW_AT_type(*$C$DW$T$19)
    2016                      .dwattr $C$DW$166, DW_AT_name("INTx10")
    2017                      .dwattr $C$DW$166, DW_AT_TI_symbol_name("_INTx10")
    2018                      .dwattr $C$DW$166, DW_AT_bit_offset(0x06), DW_AT_bit_size(0x01)
    2019                      .dwattr $C$DW$166, DW_AT_data_member_location[DW_OP_plus_uconst 0x0]
    2020                      .dwattr $C$DW$166, DW_AT_accessibility(DW_ACCESS_public)
TMS320C2000 Assembler PC v6.4.2 Thu Dec 14 15:26:49 2017

Tools Copyright (c) 1996-2015 Texas Instruments Incorporated
interrupt.asm                                                        PAGE   39

    2021              $C$DW$167       .dwtag  DW_TAG_member
    2022                      .dwattr $C$DW$167, DW_AT_type(*$C$DW$T$19)
    2023                      .dwattr $C$DW$167, DW_AT_name("INTx11")
    2024                      .dwattr $C$DW$167, DW_AT_TI_symbol_name("_INTx11")
    2025                      .dwattr $C$DW$167, DW_AT_bit_offset(0x05), DW_AT_bit_size(0x01)
    2026                      .dwattr $C$DW$167, DW_AT_data_member_location[DW_OP_plus_uconst 0x0]
    2027                      .dwattr $C$DW$167, DW_AT_accessibility(DW_ACCESS_public)
    2028              $C$DW$168       .dwtag  DW_TAG_member
    2029                      .dwattr $C$DW$168, DW_AT_type(*$C$DW$T$19)
    2030                      .dwattr $C$DW$168, DW_AT_name("INTx12")
    2031                      .dwattr $C$DW$168, DW_AT_TI_symbol_name("_INTx12")
    2032                      .dwattr $C$DW$168, DW_AT_bit_offset(0x04), DW_AT_bit_size(0x01)
    2033                      .dwattr $C$DW$168, DW_AT_data_member_location[DW_OP_plus_uconst 0x0]
    2034                      .dwattr $C$DW$168, DW_AT_accessibility(DW_ACCESS_public)
    2035              $C$DW$169       .dwtag  DW_TAG_member
    2036                      .dwattr $C$DW$169, DW_AT_type(*$C$DW$T$19)
    2037                      .dwattr $C$DW$169, DW_AT_name("INTx13")
    2038                      .dwattr $C$DW$169, DW_AT_TI_symbol_name("_INTx13")
    2039                      .dwattr $C$DW$169, DW_AT_bit_offset(0x03), DW_AT_bit_size(0x01)
    2040                      .dwattr $C$DW$169, DW_AT_data_member_location[DW_OP_plus_uconst 0x0]
    2041                      .dwattr $C$DW$169, DW_AT_accessibility(DW_ACCESS_public)
    2042              $C$DW$170       .dwtag  DW_TAG_member
    2043                      .dwattr $C$DW$170, DW_AT_type(*$C$DW$T$19)
    2044                      .dwattr $C$DW$170, DW_AT_name("INTx14")
    2045                      .dwattr $C$DW$170, DW_AT_TI_symbol_name("_INTx14")
    2046                      .dwattr $C$DW$170, DW_AT_bit_offset(0x02), DW_AT_bit_size(0x01)
    2047                      .dwattr $C$DW$170, DW_AT_data_member_location[DW_OP_plus_uconst 0x0]
    2048                      .dwattr $C$DW$170, DW_AT_accessibility(DW_ACCESS_public)
    2049              $C$DW$171       .dwtag  DW_TAG_member
    2050                      .dwattr $C$DW$171, DW_AT_type(*$C$DW$T$19)
    2051                      .dwattr $C$DW$171, DW_AT_name("INTx15")
    2052                      .dwattr $C$DW$171, DW_AT_TI_symbol_name("_INTx15")
    2053                      .dwattr $C$DW$171, DW_AT_bit_offset(0x01), DW_AT_bit_size(0x01)
    2054                      .dwattr $C$DW$171, DW_AT_data_member_location[DW_OP_plus_uconst 0x0]
    2055                      .dwattr $C$DW$171, DW_AT_accessibility(DW_ACCESS_public)
    2056              $C$DW$172       .dwtag  DW_TAG_member
    2057                      .dwattr $C$DW$172, DW_AT_type(*$C$DW$T$19)
    2058                      .dwattr $C$DW$172, DW_AT_name("INTx16")
    2059                      .dwattr $C$DW$172, DW_AT_TI_symbol_name("_INTx16")
    2060                      .dwattr $C$DW$172, DW_AT_bit_offset(0x00), DW_AT_bit_size(0x01)
    2061                      .dwattr $C$DW$172, DW_AT_data_member_location[DW_OP_plus_uconst 0x0]
    2062                      .dwattr $C$DW$172, DW_AT_accessibility(DW_ACCESS_public)
    2063                      .dwendtag $C$DW$T$34
    2064              
    2065              
    2066              $C$DW$T$35      .dwtag  DW_TAG_union_type
    2067                      .dwattr $C$DW$T$35, DW_AT_name("PIEIER3_REG")
    2068                      .dwattr $C$DW$T$35, DW_AT_byte_size(0x01)
    2069              $C$DW$173       .dwtag  DW_TAG_member
    2070                      .dwattr $C$DW$173, DW_AT_type(*$C$DW$T$19)
    2071                      .dwattr $C$DW$173, DW_AT_name("all")
    2072                      .dwattr $C$DW$173, DW_AT_TI_symbol_name("_all")
    2073                      .dwattr $C$DW$173, DW_AT_data_member_location[DW_OP_plus_uconst 0x0]
    2074                      .dwattr $C$DW$173, DW_AT_accessibility(DW_ACCESS_public)
    2075              $C$DW$174       .dwtag  DW_TAG_member
TMS320C2000 Assembler PC v6.4.2 Thu Dec 14 15:26:49 2017

Tools Copyright (c) 1996-2015 Texas Instruments Incorporated
interrupt.asm                                                        PAGE   40

    2076                      .dwattr $C$DW$174, DW_AT_type(*$C$DW$T$34)
    2077                      .dwattr $C$DW$174, DW_AT_name("bit")
    2078                      .dwattr $C$DW$174, DW_AT_TI_symbol_name("_bit")
    2079                      .dwattr $C$DW$174, DW_AT_data_member_location[DW_OP_plus_uconst 0x0]
    2080                      .dwattr $C$DW$174, DW_AT_accessibility(DW_ACCESS_public)
    2081                      .dwendtag $C$DW$T$35
    2082              
    2083              
    2084              $C$DW$T$36      .dwtag  DW_TAG_structure_type
    2085                      .dwattr $C$DW$T$36, DW_AT_name("PIEIER4_BITS")
    2086                      .dwattr $C$DW$T$36, DW_AT_byte_size(0x01)
    2087              $C$DW$175       .dwtag  DW_TAG_member
    2088                      .dwattr $C$DW$175, DW_AT_type(*$C$DW$T$19)
    2089                      .dwattr $C$DW$175, DW_AT_name("INTx1")
    2090                      .dwattr $C$DW$175, DW_AT_TI_symbol_name("_INTx1")
    2091                      .dwattr $C$DW$175, DW_AT_bit_offset(0x0f), DW_AT_bit_size(0x01)
    2092                      .dwattr $C$DW$175, DW_AT_data_member_location[DW_OP_plus_uconst 0x0]
    2093                      .dwattr $C$DW$175, DW_AT_accessibility(DW_ACCESS_public)
    2094              $C$DW$176       .dwtag  DW_TAG_member
    2095                      .dwattr $C$DW$176, DW_AT_type(*$C$DW$T$19)
    2096                      .dwattr $C$DW$176, DW_AT_name("INTx2")
    2097                      .dwattr $C$DW$176, DW_AT_TI_symbol_name("_INTx2")
    2098                      .dwattr $C$DW$176, DW_AT_bit_offset(0x0e), DW_AT_bit_size(0x01)
    2099                      .dwattr $C$DW$176, DW_AT_data_member_location[DW_OP_plus_uconst 0x0]
    2100                      .dwattr $C$DW$176, DW_AT_accessibility(DW_ACCESS_public)
    2101              $C$DW$177       .dwtag  DW_TAG_member
    2102                      .dwattr $C$DW$177, DW_AT_type(*$C$DW$T$19)
    2103                      .dwattr $C$DW$177, DW_AT_name("INTx3")
    2104                      .dwattr $C$DW$177, DW_AT_TI_symbol_name("_INTx3")
    2105                      .dwattr $C$DW$177, DW_AT_bit_offset(0x0d), DW_AT_bit_size(0x01)
    2106                      .dwattr $C$DW$177, DW_AT_data_member_location[DW_OP_plus_uconst 0x0]
    2107                      .dwattr $C$DW$177, DW_AT_accessibility(DW_ACCESS_public)
    2108              $C$DW$178       .dwtag  DW_TAG_member
    2109                      .dwattr $C$DW$178, DW_AT_type(*$C$DW$T$19)
    2110                      .dwattr $C$DW$178, DW_AT_name("INTx4")
    2111                      .dwattr $C$DW$178, DW_AT_TI_symbol_name("_INTx4")
    2112                      .dwattr $C$DW$178, DW_AT_bit_offset(0x0c), DW_AT_bit_size(0x01)
    2113                      .dwattr $C$DW$178, DW_AT_data_member_location[DW_OP_plus_uconst 0x0]
    2114                      .dwattr $C$DW$178, DW_AT_accessibility(DW_ACCESS_public)
    2115              $C$DW$179       .dwtag  DW_TAG_member
    2116                      .dwattr $C$DW$179, DW_AT_type(*$C$DW$T$19)
    2117                      .dwattr $C$DW$179, DW_AT_name("INTx5")
    2118                      .dwattr $C$DW$179, DW_AT_TI_symbol_name("_INTx5")
    2119                      .dwattr $C$DW$179, DW_AT_bit_offset(0x0b), DW_AT_bit_size(0x01)
    2120                      .dwattr $C$DW$179, DW_AT_data_member_location[DW_OP_plus_uconst 0x0]
    2121                      .dwattr $C$DW$179, DW_AT_accessibility(DW_ACCESS_public)
    2122              $C$DW$180       .dwtag  DW_TAG_member
    2123                      .dwattr $C$DW$180, DW_AT_type(*$C$DW$T$19)
    2124                      .dwattr $C$DW$180, DW_AT_name("INTx6")
    2125                      .dwattr $C$DW$180, DW_AT_TI_symbol_name("_INTx6")
    2126                      .dwattr $C$DW$180, DW_AT_bit_offset(0x0a), DW_AT_bit_size(0x01)
    2127                      .dwattr $C$DW$180, DW_AT_data_member_location[DW_OP_plus_uconst 0x0]
    2128                      .dwattr $C$DW$180, DW_AT_accessibility(DW_ACCESS_public)
    2129              $C$DW$181       .dwtag  DW_TAG_member
    2130                      .dwattr $C$DW$181, DW_AT_type(*$C$DW$T$19)
TMS320C2000 Assembler PC v6.4.2 Thu Dec 14 15:26:49 2017

Tools Copyright (c) 1996-2015 Texas Instruments Incorporated
interrupt.asm                                                        PAGE   41

    2131                      .dwattr $C$DW$181, DW_AT_name("INTx7")
    2132                      .dwattr $C$DW$181, DW_AT_TI_symbol_name("_INTx7")
    2133                      .dwattr $C$DW$181, DW_AT_bit_offset(0x09), DW_AT_bit_size(0x01)
    2134                      .dwattr $C$DW$181, DW_AT_data_member_location[DW_OP_plus_uconst 0x0]
    2135                      .dwattr $C$DW$181, DW_AT_accessibility(DW_ACCESS_public)
    2136              $C$DW$182       .dwtag  DW_TAG_member
    2137                      .dwattr $C$DW$182, DW_AT_type(*$C$DW$T$19)
    2138                      .dwattr $C$DW$182, DW_AT_name("INTx8")
    2139                      .dwattr $C$DW$182, DW_AT_TI_symbol_name("_INTx8")
    2140                      .dwattr $C$DW$182, DW_AT_bit_offset(0x08), DW_AT_bit_size(0x01)
    2141                      .dwattr $C$DW$182, DW_AT_data_member_location[DW_OP_plus_uconst 0x0]
    2142                      .dwattr $C$DW$182, DW_AT_accessibility(DW_ACCESS_public)
    2143              $C$DW$183       .dwtag  DW_TAG_member
    2144                      .dwattr $C$DW$183, DW_AT_type(*$C$DW$T$19)
    2145                      .dwattr $C$DW$183, DW_AT_name("INTx9")
    2146                      .dwattr $C$DW$183, DW_AT_TI_symbol_name("_INTx9")
    2147                      .dwattr $C$DW$183, DW_AT_bit_offset(0x07), DW_AT_bit_size(0x01)
    2148                      .dwattr $C$DW$183, DW_AT_data_member_location[DW_OP_plus_uconst 0x0]
    2149                      .dwattr $C$DW$183, DW_AT_accessibility(DW_ACCESS_public)
    2150              $C$DW$184       .dwtag  DW_TAG_member
    2151                      .dwattr $C$DW$184, DW_AT_type(*$C$DW$T$19)
    2152                      .dwattr $C$DW$184, DW_AT_name("INTx10")
    2153                      .dwattr $C$DW$184, DW_AT_TI_symbol_name("_INTx10")
    2154                      .dwattr $C$DW$184, DW_AT_bit_offset(0x06), DW_AT_bit_size(0x01)
    2155                      .dwattr $C$DW$184, DW_AT_data_member_location[DW_OP_plus_uconst 0x0]
    2156                      .dwattr $C$DW$184, DW_AT_accessibility(DW_ACCESS_public)
    2157              $C$DW$185       .dwtag  DW_TAG_member
    2158                      .dwattr $C$DW$185, DW_AT_type(*$C$DW$T$19)
    2159                      .dwattr $C$DW$185, DW_AT_name("INTx11")
    2160                      .dwattr $C$DW$185, DW_AT_TI_symbol_name("_INTx11")
    2161                      .dwattr $C$DW$185, DW_AT_bit_offset(0x05), DW_AT_bit_size(0x01)
    2162                      .dwattr $C$DW$185, DW_AT_data_member_location[DW_OP_plus_uconst 0x0]
    2163                      .dwattr $C$DW$185, DW_AT_accessibility(DW_ACCESS_public)
    2164              $C$DW$186       .dwtag  DW_TAG_member
    2165                      .dwattr $C$DW$186, DW_AT_type(*$C$DW$T$19)
    2166                      .dwattr $C$DW$186, DW_AT_name("INTx12")
    2167                      .dwattr $C$DW$186, DW_AT_TI_symbol_name("_INTx12")
    2168                      .dwattr $C$DW$186, DW_AT_bit_offset(0x04), DW_AT_bit_size(0x01)
    2169                      .dwattr $C$DW$186, DW_AT_data_member_location[DW_OP_plus_uconst 0x0]
    2170                      .dwattr $C$DW$186, DW_AT_accessibility(DW_ACCESS_public)
    2171              $C$DW$187       .dwtag  DW_TAG_member
    2172                      .dwattr $C$DW$187, DW_AT_type(*$C$DW$T$19)
    2173                      .dwattr $C$DW$187, DW_AT_name("INTx13")
    2174                      .dwattr $C$DW$187, DW_AT_TI_symbol_name("_INTx13")
    2175                      .dwattr $C$DW$187, DW_AT_bit_offset(0x03), DW_AT_bit_size(0x01)
    2176                      .dwattr $C$DW$187, DW_AT_data_member_location[DW_OP_plus_uconst 0x0]
    2177                      .dwattr $C$DW$187, DW_AT_accessibility(DW_ACCESS_public)
    2178              $C$DW$188       .dwtag  DW_TAG_member
    2179                      .dwattr $C$DW$188, DW_AT_type(*$C$DW$T$19)
    2180                      .dwattr $C$DW$188, DW_AT_name("INTx14")
    2181                      .dwattr $C$DW$188, DW_AT_TI_symbol_name("_INTx14")
    2182                      .dwattr $C$DW$188, DW_AT_bit_offset(0x02), DW_AT_bit_size(0x01)
    2183                      .dwattr $C$DW$188, DW_AT_data_member_location[DW_OP_plus_uconst 0x0]
    2184                      .dwattr $C$DW$188, DW_AT_accessibility(DW_ACCESS_public)
    2185              $C$DW$189       .dwtag  DW_TAG_member
TMS320C2000 Assembler PC v6.4.2 Thu Dec 14 15:26:49 2017

Tools Copyright (c) 1996-2015 Texas Instruments Incorporated
interrupt.asm                                                        PAGE   42

    2186                      .dwattr $C$DW$189, DW_AT_type(*$C$DW$T$19)
    2187                      .dwattr $C$DW$189, DW_AT_name("INTx15")
    2188                      .dwattr $C$DW$189, DW_AT_TI_symbol_name("_INTx15")
    2189                      .dwattr $C$DW$189, DW_AT_bit_offset(0x01), DW_AT_bit_size(0x01)
    2190                      .dwattr $C$DW$189, DW_AT_data_member_location[DW_OP_plus_uconst 0x0]
    2191                      .dwattr $C$DW$189, DW_AT_accessibility(DW_ACCESS_public)
    2192              $C$DW$190       .dwtag  DW_TAG_member
    2193                      .dwattr $C$DW$190, DW_AT_type(*$C$DW$T$19)
    2194                      .dwattr $C$DW$190, DW_AT_name("INTx16")
    2195                      .dwattr $C$DW$190, DW_AT_TI_symbol_name("_INTx16")
    2196                      .dwattr $C$DW$190, DW_AT_bit_offset(0x00), DW_AT_bit_size(0x01)
    2197                      .dwattr $C$DW$190, DW_AT_data_member_location[DW_OP_plus_uconst 0x0]
    2198                      .dwattr $C$DW$190, DW_AT_accessibility(DW_ACCESS_public)
    2199                      .dwendtag $C$DW$T$36
    2200              
    2201              
    2202              $C$DW$T$37      .dwtag  DW_TAG_union_type
    2203                      .dwattr $C$DW$T$37, DW_AT_name("PIEIER4_REG")
    2204                      .dwattr $C$DW$T$37, DW_AT_byte_size(0x01)
    2205              $C$DW$191       .dwtag  DW_TAG_member
    2206                      .dwattr $C$DW$191, DW_AT_type(*$C$DW$T$19)
    2207                      .dwattr $C$DW$191, DW_AT_name("all")
    2208                      .dwattr $C$DW$191, DW_AT_TI_symbol_name("_all")
    2209                      .dwattr $C$DW$191, DW_AT_data_member_location[DW_OP_plus_uconst 0x0]
    2210                      .dwattr $C$DW$191, DW_AT_accessibility(DW_ACCESS_public)
    2211              $C$DW$192       .dwtag  DW_TAG_member
    2212                      .dwattr $C$DW$192, DW_AT_type(*$C$DW$T$36)
    2213                      .dwattr $C$DW$192, DW_AT_name("bit")
    2214                      .dwattr $C$DW$192, DW_AT_TI_symbol_name("_bit")
    2215                      .dwattr $C$DW$192, DW_AT_data_member_location[DW_OP_plus_uconst 0x0]
    2216                      .dwattr $C$DW$192, DW_AT_accessibility(DW_ACCESS_public)
    2217                      .dwendtag $C$DW$T$37
    2218              
    2219              
    2220              $C$DW$T$38      .dwtag  DW_TAG_structure_type
    2221                      .dwattr $C$DW$T$38, DW_AT_name("PIEIER5_BITS")
    2222                      .dwattr $C$DW$T$38, DW_AT_byte_size(0x01)
    2223              $C$DW$193       .dwtag  DW_TAG_member
    2224                      .dwattr $C$DW$193, DW_AT_type(*$C$DW$T$19)
    2225                      .dwattr $C$DW$193, DW_AT_name("INTx1")
    2226                      .dwattr $C$DW$193, DW_AT_TI_symbol_name("_INTx1")
    2227                      .dwattr $C$DW$193, DW_AT_bit_offset(0x0f), DW_AT_bit_size(0x01)
    2228                      .dwattr $C$DW$193, DW_AT_data_member_location[DW_OP_plus_uconst 0x0]
    2229                      .dwattr $C$DW$193, DW_AT_accessibility(DW_ACCESS_public)
    2230              $C$DW$194       .dwtag  DW_TAG_member
    2231                      .dwattr $C$DW$194, DW_AT_type(*$C$DW$T$19)
    2232                      .dwattr $C$DW$194, DW_AT_name("INTx2")
    2233                      .dwattr $C$DW$194, DW_AT_TI_symbol_name("_INTx2")
    2234                      .dwattr $C$DW$194, DW_AT_bit_offset(0x0e), DW_AT_bit_size(0x01)
    2235                      .dwattr $C$DW$194, DW_AT_data_member_location[DW_OP_plus_uconst 0x0]
    2236                      .dwattr $C$DW$194, DW_AT_accessibility(DW_ACCESS_public)
    2237              $C$DW$195       .dwtag  DW_TAG_member
    2238                      .dwattr $C$DW$195, DW_AT_type(*$C$DW$T$19)
    2239                      .dwattr $C$DW$195, DW_AT_name("INTx3")
    2240                      .dwattr $C$DW$195, DW_AT_TI_symbol_name("_INTx3")
TMS320C2000 Assembler PC v6.4.2 Thu Dec 14 15:26:49 2017

Tools Copyright (c) 1996-2015 Texas Instruments Incorporated
interrupt.asm                                                        PAGE   43

    2241                      .dwattr $C$DW$195, DW_AT_bit_offset(0x0d), DW_AT_bit_size(0x01)
    2242                      .dwattr $C$DW$195, DW_AT_data_member_location[DW_OP_plus_uconst 0x0]
    2243                      .dwattr $C$DW$195, DW_AT_accessibility(DW_ACCESS_public)
    2244              $C$DW$196       .dwtag  DW_TAG_member
    2245                      .dwattr $C$DW$196, DW_AT_type(*$C$DW$T$19)
    2246                      .dwattr $C$DW$196, DW_AT_name("INTx4")
    2247                      .dwattr $C$DW$196, DW_AT_TI_symbol_name("_INTx4")
    2248                      .dwattr $C$DW$196, DW_AT_bit_offset(0x0c), DW_AT_bit_size(0x01)
    2249                      .dwattr $C$DW$196, DW_AT_data_member_location[DW_OP_plus_uconst 0x0]
    2250                      .dwattr $C$DW$196, DW_AT_accessibility(DW_ACCESS_public)
    2251              $C$DW$197       .dwtag  DW_TAG_member
    2252                      .dwattr $C$DW$197, DW_AT_type(*$C$DW$T$19)
    2253                      .dwattr $C$DW$197, DW_AT_name("INTx5")
    2254                      .dwattr $C$DW$197, DW_AT_TI_symbol_name("_INTx5")
    2255                      .dwattr $C$DW$197, DW_AT_bit_offset(0x0b), DW_AT_bit_size(0x01)
    2256                      .dwattr $C$DW$197, DW_AT_data_member_location[DW_OP_plus_uconst 0x0]
    2257                      .dwattr $C$DW$197, DW_AT_accessibility(DW_ACCESS_public)
    2258              $C$DW$198       .dwtag  DW_TAG_member
    2259                      .dwattr $C$DW$198, DW_AT_type(*$C$DW$T$19)
    2260                      .dwattr $C$DW$198, DW_AT_name("INTx6")
    2261                      .dwattr $C$DW$198, DW_AT_TI_symbol_name("_INTx6")
    2262                      .dwattr $C$DW$198, DW_AT_bit_offset(0x0a), DW_AT_bit_size(0x01)
    2263                      .dwattr $C$DW$198, DW_AT_data_member_location[DW_OP_plus_uconst 0x0]
    2264                      .dwattr $C$DW$198, DW_AT_accessibility(DW_ACCESS_public)
    2265              $C$DW$199       .dwtag  DW_TAG_member
    2266                      .dwattr $C$DW$199, DW_AT_type(*$C$DW$T$19)
    2267                      .dwattr $C$DW$199, DW_AT_name("INTx7")
    2268                      .dwattr $C$DW$199, DW_AT_TI_symbol_name("_INTx7")
    2269                      .dwattr $C$DW$199, DW_AT_bit_offset(0x09), DW_AT_bit_size(0x01)
    2270                      .dwattr $C$DW$199, DW_AT_data_member_location[DW_OP_plus_uconst 0x0]
    2271                      .dwattr $C$DW$199, DW_AT_accessibility(DW_ACCESS_public)
    2272              $C$DW$200       .dwtag  DW_TAG_member
    2273                      .dwattr $C$DW$200, DW_AT_type(*$C$DW$T$19)
    2274                      .dwattr $C$DW$200, DW_AT_name("INTx8")
    2275                      .dwattr $C$DW$200, DW_AT_TI_symbol_name("_INTx8")
    2276                      .dwattr $C$DW$200, DW_AT_bit_offset(0x08), DW_AT_bit_size(0x01)
    2277                      .dwattr $C$DW$200, DW_AT_data_member_location[DW_OP_plus_uconst 0x0]
    2278                      .dwattr $C$DW$200, DW_AT_accessibility(DW_ACCESS_public)
    2279              $C$DW$201       .dwtag  DW_TAG_member
    2280                      .dwattr $C$DW$201, DW_AT_type(*$C$DW$T$19)
    2281                      .dwattr $C$DW$201, DW_AT_name("INTx9")
    2282                      .dwattr $C$DW$201, DW_AT_TI_symbol_name("_INTx9")
    2283                      .dwattr $C$DW$201, DW_AT_bit_offset(0x07), DW_AT_bit_size(0x01)
    2284                      .dwattr $C$DW$201, DW_AT_data_member_location[DW_OP_plus_uconst 0x0]
    2285                      .dwattr $C$DW$201, DW_AT_accessibility(DW_ACCESS_public)
    2286              $C$DW$202       .dwtag  DW_TAG_member
    2287                      .dwattr $C$DW$202, DW_AT_type(*$C$DW$T$19)
    2288                      .dwattr $C$DW$202, DW_AT_name("INTx10")
    2289                      .dwattr $C$DW$202, DW_AT_TI_symbol_name("_INTx10")
    2290                      .dwattr $C$DW$202, DW_AT_bit_offset(0x06), DW_AT_bit_size(0x01)
    2291                      .dwattr $C$DW$202, DW_AT_data_member_location[DW_OP_plus_uconst 0x0]
    2292                      .dwattr $C$DW$202, DW_AT_accessibility(DW_ACCESS_public)
    2293              $C$DW$203       .dwtag  DW_TAG_member
    2294                      .dwattr $C$DW$203, DW_AT_type(*$C$DW$T$19)
    2295                      .dwattr $C$DW$203, DW_AT_name("INTx11")
TMS320C2000 Assembler PC v6.4.2 Thu Dec 14 15:26:49 2017

Tools Copyright (c) 1996-2015 Texas Instruments Incorporated
interrupt.asm                                                        PAGE   44

    2296                      .dwattr $C$DW$203, DW_AT_TI_symbol_name("_INTx11")
    2297                      .dwattr $C$DW$203, DW_AT_bit_offset(0x05), DW_AT_bit_size(0x01)
    2298                      .dwattr $C$DW$203, DW_AT_data_member_location[DW_OP_plus_uconst 0x0]
    2299                      .dwattr $C$DW$203, DW_AT_accessibility(DW_ACCESS_public)
    2300              $C$DW$204       .dwtag  DW_TAG_member
    2301                      .dwattr $C$DW$204, DW_AT_type(*$C$DW$T$19)
    2302                      .dwattr $C$DW$204, DW_AT_name("INTx12")
    2303                      .dwattr $C$DW$204, DW_AT_TI_symbol_name("_INTx12")
    2304                      .dwattr $C$DW$204, DW_AT_bit_offset(0x04), DW_AT_bit_size(0x01)
    2305                      .dwattr $C$DW$204, DW_AT_data_member_location[DW_OP_plus_uconst 0x0]
    2306                      .dwattr $C$DW$204, DW_AT_accessibility(DW_ACCESS_public)
    2307              $C$DW$205       .dwtag  DW_TAG_member
    2308                      .dwattr $C$DW$205, DW_AT_type(*$C$DW$T$19)
    2309                      .dwattr $C$DW$205, DW_AT_name("INTx13")
    2310                      .dwattr $C$DW$205, DW_AT_TI_symbol_name("_INTx13")
    2311                      .dwattr $C$DW$205, DW_AT_bit_offset(0x03), DW_AT_bit_size(0x01)
    2312                      .dwattr $C$DW$205, DW_AT_data_member_location[DW_OP_plus_uconst 0x0]
    2313                      .dwattr $C$DW$205, DW_AT_accessibility(DW_ACCESS_public)
    2314              $C$DW$206       .dwtag  DW_TAG_member
    2315                      .dwattr $C$DW$206, DW_AT_type(*$C$DW$T$19)
    2316                      .dwattr $C$DW$206, DW_AT_name("INTx14")
    2317                      .dwattr $C$DW$206, DW_AT_TI_symbol_name("_INTx14")
    2318                      .dwattr $C$DW$206, DW_AT_bit_offset(0x02), DW_AT_bit_size(0x01)
    2319                      .dwattr $C$DW$206, DW_AT_data_member_location[DW_OP_plus_uconst 0x0]
    2320                      .dwattr $C$DW$206, DW_AT_accessibility(DW_ACCESS_public)
    2321              $C$DW$207       .dwtag  DW_TAG_member
    2322                      .dwattr $C$DW$207, DW_AT_type(*$C$DW$T$19)
    2323                      .dwattr $C$DW$207, DW_AT_name("INTx15")
    2324                      .dwattr $C$DW$207, DW_AT_TI_symbol_name("_INTx15")
    2325                      .dwattr $C$DW$207, DW_AT_bit_offset(0x01), DW_AT_bit_size(0x01)
    2326                      .dwattr $C$DW$207, DW_AT_data_member_location[DW_OP_plus_uconst 0x0]
    2327                      .dwattr $C$DW$207, DW_AT_accessibility(DW_ACCESS_public)
    2328              $C$DW$208       .dwtag  DW_TAG_member
    2329                      .dwattr $C$DW$208, DW_AT_type(*$C$DW$T$19)
    2330                      .dwattr $C$DW$208, DW_AT_name("INTx16")
    2331                      .dwattr $C$DW$208, DW_AT_TI_symbol_name("_INTx16")
    2332                      .dwattr $C$DW$208, DW_AT_bit_offset(0x00), DW_AT_bit_size(0x01)
    2333                      .dwattr $C$DW$208, DW_AT_data_member_location[DW_OP_plus_uconst 0x0]
    2334                      .dwattr $C$DW$208, DW_AT_accessibility(DW_ACCESS_public)
    2335                      .dwendtag $C$DW$T$38
    2336              
    2337              
    2338              $C$DW$T$39      .dwtag  DW_TAG_union_type
    2339                      .dwattr $C$DW$T$39, DW_AT_name("PIEIER5_REG")
    2340                      .dwattr $C$DW$T$39, DW_AT_byte_size(0x01)
    2341              $C$DW$209       .dwtag  DW_TAG_member
    2342                      .dwattr $C$DW$209, DW_AT_type(*$C$DW$T$19)
    2343                      .dwattr $C$DW$209, DW_AT_name("all")
    2344                      .dwattr $C$DW$209, DW_AT_TI_symbol_name("_all")
    2345                      .dwattr $C$DW$209, DW_AT_data_member_location[DW_OP_plus_uconst 0x0]
    2346                      .dwattr $C$DW$209, DW_AT_accessibility(DW_ACCESS_public)
    2347              $C$DW$210       .dwtag  DW_TAG_member
    2348                      .dwattr $C$DW$210, DW_AT_type(*$C$DW$T$38)
    2349                      .dwattr $C$DW$210, DW_AT_name("bit")
    2350                      .dwattr $C$DW$210, DW_AT_TI_symbol_name("_bit")
TMS320C2000 Assembler PC v6.4.2 Thu Dec 14 15:26:49 2017

Tools Copyright (c) 1996-2015 Texas Instruments Incorporated
interrupt.asm                                                        PAGE   45

    2351                      .dwattr $C$DW$210, DW_AT_data_member_location[DW_OP_plus_uconst 0x0]
    2352                      .dwattr $C$DW$210, DW_AT_accessibility(DW_ACCESS_public)
    2353                      .dwendtag $C$DW$T$39
    2354              
    2355              
    2356              $C$DW$T$40      .dwtag  DW_TAG_structure_type
    2357                      .dwattr $C$DW$T$40, DW_AT_name("PIEIER6_BITS")
    2358                      .dwattr $C$DW$T$40, DW_AT_byte_size(0x01)
    2359              $C$DW$211       .dwtag  DW_TAG_member
    2360                      .dwattr $C$DW$211, DW_AT_type(*$C$DW$T$19)
    2361                      .dwattr $C$DW$211, DW_AT_name("INTx1")
    2362                      .dwattr $C$DW$211, DW_AT_TI_symbol_name("_INTx1")
    2363                      .dwattr $C$DW$211, DW_AT_bit_offset(0x0f), DW_AT_bit_size(0x01)
    2364                      .dwattr $C$DW$211, DW_AT_data_member_location[DW_OP_plus_uconst 0x0]
    2365                      .dwattr $C$DW$211, DW_AT_accessibility(DW_ACCESS_public)
    2366              $C$DW$212       .dwtag  DW_TAG_member
    2367                      .dwattr $C$DW$212, DW_AT_type(*$C$DW$T$19)
    2368                      .dwattr $C$DW$212, DW_AT_name("INTx2")
    2369                      .dwattr $C$DW$212, DW_AT_TI_symbol_name("_INTx2")
    2370                      .dwattr $C$DW$212, DW_AT_bit_offset(0x0e), DW_AT_bit_size(0x01)
    2371                      .dwattr $C$DW$212, DW_AT_data_member_location[DW_OP_plus_uconst 0x0]
    2372                      .dwattr $C$DW$212, DW_AT_accessibility(DW_ACCESS_public)
    2373              $C$DW$213       .dwtag  DW_TAG_member
    2374                      .dwattr $C$DW$213, DW_AT_type(*$C$DW$T$19)
    2375                      .dwattr $C$DW$213, DW_AT_name("INTx3")
    2376                      .dwattr $C$DW$213, DW_AT_TI_symbol_name("_INTx3")
    2377                      .dwattr $C$DW$213, DW_AT_bit_offset(0x0d), DW_AT_bit_size(0x01)
    2378                      .dwattr $C$DW$213, DW_AT_data_member_location[DW_OP_plus_uconst 0x0]
    2379                      .dwattr $C$DW$213, DW_AT_accessibility(DW_ACCESS_public)
    2380              $C$DW$214       .dwtag  DW_TAG_member
    2381                      .dwattr $C$DW$214, DW_AT_type(*$C$DW$T$19)
    2382                      .dwattr $C$DW$214, DW_AT_name("INTx4")
    2383                      .dwattr $C$DW$214, DW_AT_TI_symbol_name("_INTx4")
    2384                      .dwattr $C$DW$214, DW_AT_bit_offset(0x0c), DW_AT_bit_size(0x01)
    2385                      .dwattr $C$DW$214, DW_AT_data_member_location[DW_OP_plus_uconst 0x0]
    2386                      .dwattr $C$DW$214, DW_AT_accessibility(DW_ACCESS_public)
    2387              $C$DW$215       .dwtag  DW_TAG_member
    2388                      .dwattr $C$DW$215, DW_AT_type(*$C$DW$T$19)
    2389                      .dwattr $C$DW$215, DW_AT_name("INTx5")
    2390                      .dwattr $C$DW$215, DW_AT_TI_symbol_name("_INTx5")
    2391                      .dwattr $C$DW$215, DW_AT_bit_offset(0x0b), DW_AT_bit_size(0x01)
    2392                      .dwattr $C$DW$215, DW_AT_data_member_location[DW_OP_plus_uconst 0x0]
    2393                      .dwattr $C$DW$215, DW_AT_accessibility(DW_ACCESS_public)
    2394              $C$DW$216       .dwtag  DW_TAG_member
    2395                      .dwattr $C$DW$216, DW_AT_type(*$C$DW$T$19)
    2396                      .dwattr $C$DW$216, DW_AT_name("INTx6")
    2397                      .dwattr $C$DW$216, DW_AT_TI_symbol_name("_INTx6")
    2398                      .dwattr $C$DW$216, DW_AT_bit_offset(0x0a), DW_AT_bit_size(0x01)
    2399                      .dwattr $C$DW$216, DW_AT_data_member_location[DW_OP_plus_uconst 0x0]
    2400                      .dwattr $C$DW$216, DW_AT_accessibility(DW_ACCESS_public)
    2401              $C$DW$217       .dwtag  DW_TAG_member
    2402                      .dwattr $C$DW$217, DW_AT_type(*$C$DW$T$19)
    2403                      .dwattr $C$DW$217, DW_AT_name("INTx7")
    2404                      .dwattr $C$DW$217, DW_AT_TI_symbol_name("_INTx7")
    2405                      .dwattr $C$DW$217, DW_AT_bit_offset(0x09), DW_AT_bit_size(0x01)
TMS320C2000 Assembler PC v6.4.2 Thu Dec 14 15:26:49 2017

Tools Copyright (c) 1996-2015 Texas Instruments Incorporated
interrupt.asm                                                        PAGE   46

    2406                      .dwattr $C$DW$217, DW_AT_data_member_location[DW_OP_plus_uconst 0x0]
    2407                      .dwattr $C$DW$217, DW_AT_accessibility(DW_ACCESS_public)
    2408              $C$DW$218       .dwtag  DW_TAG_member
    2409                      .dwattr $C$DW$218, DW_AT_type(*$C$DW$T$19)
    2410                      .dwattr $C$DW$218, DW_AT_name("INTx8")
    2411                      .dwattr $C$DW$218, DW_AT_TI_symbol_name("_INTx8")
    2412                      .dwattr $C$DW$218, DW_AT_bit_offset(0x08), DW_AT_bit_size(0x01)
    2413                      .dwattr $C$DW$218, DW_AT_data_member_location[DW_OP_plus_uconst 0x0]
    2414                      .dwattr $C$DW$218, DW_AT_accessibility(DW_ACCESS_public)
    2415              $C$DW$219       .dwtag  DW_TAG_member
    2416                      .dwattr $C$DW$219, DW_AT_type(*$C$DW$T$19)
    2417                      .dwattr $C$DW$219, DW_AT_name("INTx9")
    2418                      .dwattr $C$DW$219, DW_AT_TI_symbol_name("_INTx9")
    2419                      .dwattr $C$DW$219, DW_AT_bit_offset(0x07), DW_AT_bit_size(0x01)
    2420                      .dwattr $C$DW$219, DW_AT_data_member_location[DW_OP_plus_uconst 0x0]
    2421                      .dwattr $C$DW$219, DW_AT_accessibility(DW_ACCESS_public)
    2422              $C$DW$220       .dwtag  DW_TAG_member
    2423                      .dwattr $C$DW$220, DW_AT_type(*$C$DW$T$19)
    2424                      .dwattr $C$DW$220, DW_AT_name("INTx10")
    2425                      .dwattr $C$DW$220, DW_AT_TI_symbol_name("_INTx10")
    2426                      .dwattr $C$DW$220, DW_AT_bit_offset(0x06), DW_AT_bit_size(0x01)
    2427                      .dwattr $C$DW$220, DW_AT_data_member_location[DW_OP_plus_uconst 0x0]
    2428                      .dwattr $C$DW$220, DW_AT_accessibility(DW_ACCESS_public)
    2429              $C$DW$221       .dwtag  DW_TAG_member
    2430                      .dwattr $C$DW$221, DW_AT_type(*$C$DW$T$19)
    2431                      .dwattr $C$DW$221, DW_AT_name("INTx11")
    2432                      .dwattr $C$DW$221, DW_AT_TI_symbol_name("_INTx11")
    2433                      .dwattr $C$DW$221, DW_AT_bit_offset(0x05), DW_AT_bit_size(0x01)
    2434                      .dwattr $C$DW$221, DW_AT_data_member_location[DW_OP_plus_uconst 0x0]
    2435                      .dwattr $C$DW$221, DW_AT_accessibility(DW_ACCESS_public)
    2436              $C$DW$222       .dwtag  DW_TAG_member
    2437                      .dwattr $C$DW$222, DW_AT_type(*$C$DW$T$19)
    2438                      .dwattr $C$DW$222, DW_AT_name("INTx12")
    2439                      .dwattr $C$DW$222, DW_AT_TI_symbol_name("_INTx12")
    2440                      .dwattr $C$DW$222, DW_AT_bit_offset(0x04), DW_AT_bit_size(0x01)
    2441                      .dwattr $C$DW$222, DW_AT_data_member_location[DW_OP_plus_uconst 0x0]
    2442                      .dwattr $C$DW$222, DW_AT_accessibility(DW_ACCESS_public)
    2443              $C$DW$223       .dwtag  DW_TAG_member
    2444                      .dwattr $C$DW$223, DW_AT_type(*$C$DW$T$19)
    2445                      .dwattr $C$DW$223, DW_AT_name("INTx13")
    2446                      .dwattr $C$DW$223, DW_AT_TI_symbol_name("_INTx13")
    2447                      .dwattr $C$DW$223, DW_AT_bit_offset(0x03), DW_AT_bit_size(0x01)
    2448                      .dwattr $C$DW$223, DW_AT_data_member_location[DW_OP_plus_uconst 0x0]
    2449                      .dwattr $C$DW$223, DW_AT_accessibility(DW_ACCESS_public)
    2450              $C$DW$224       .dwtag  DW_TAG_member
    2451                      .dwattr $C$DW$224, DW_AT_type(*$C$DW$T$19)
    2452                      .dwattr $C$DW$224, DW_AT_name("INTx14")
    2453                      .dwattr $C$DW$224, DW_AT_TI_symbol_name("_INTx14")
    2454                      .dwattr $C$DW$224, DW_AT_bit_offset(0x02), DW_AT_bit_size(0x01)
    2455                      .dwattr $C$DW$224, DW_AT_data_member_location[DW_OP_plus_uconst 0x0]
    2456                      .dwattr $C$DW$224, DW_AT_accessibility(DW_ACCESS_public)
    2457              $C$DW$225       .dwtag  DW_TAG_member
    2458                      .dwattr $C$DW$225, DW_AT_type(*$C$DW$T$19)
    2459                      .dwattr $C$DW$225, DW_AT_name("INTx15")
    2460                      .dwattr $C$DW$225, DW_AT_TI_symbol_name("_INTx15")
TMS320C2000 Assembler PC v6.4.2 Thu Dec 14 15:26:49 2017

Tools Copyright (c) 1996-2015 Texas Instruments Incorporated
interrupt.asm                                                        PAGE   47

    2461                      .dwattr $C$DW$225, DW_AT_bit_offset(0x01), DW_AT_bit_size(0x01)
    2462                      .dwattr $C$DW$225, DW_AT_data_member_location[DW_OP_plus_uconst 0x0]
    2463                      .dwattr $C$DW$225, DW_AT_accessibility(DW_ACCESS_public)
    2464              $C$DW$226       .dwtag  DW_TAG_member
    2465                      .dwattr $C$DW$226, DW_AT_type(*$C$DW$T$19)
    2466                      .dwattr $C$DW$226, DW_AT_name("INTx16")
    2467                      .dwattr $C$DW$226, DW_AT_TI_symbol_name("_INTx16")
    2468                      .dwattr $C$DW$226, DW_AT_bit_offset(0x00), DW_AT_bit_size(0x01)
    2469                      .dwattr $C$DW$226, DW_AT_data_member_location[DW_OP_plus_uconst 0x0]
    2470                      .dwattr $C$DW$226, DW_AT_accessibility(DW_ACCESS_public)
    2471                      .dwendtag $C$DW$T$40
    2472              
    2473              
    2474              $C$DW$T$41      .dwtag  DW_TAG_union_type
    2475                      .dwattr $C$DW$T$41, DW_AT_name("PIEIER6_REG")
    2476                      .dwattr $C$DW$T$41, DW_AT_byte_size(0x01)
    2477              $C$DW$227       .dwtag  DW_TAG_member
    2478                      .dwattr $C$DW$227, DW_AT_type(*$C$DW$T$19)
    2479                      .dwattr $C$DW$227, DW_AT_name("all")
    2480                      .dwattr $C$DW$227, DW_AT_TI_symbol_name("_all")
    2481                      .dwattr $C$DW$227, DW_AT_data_member_location[DW_OP_plus_uconst 0x0]
    2482                      .dwattr $C$DW$227, DW_AT_accessibility(DW_ACCESS_public)
    2483              $C$DW$228       .dwtag  DW_TAG_member
    2484                      .dwattr $C$DW$228, DW_AT_type(*$C$DW$T$40)
    2485                      .dwattr $C$DW$228, DW_AT_name("bit")
    2486                      .dwattr $C$DW$228, DW_AT_TI_symbol_name("_bit")
    2487                      .dwattr $C$DW$228, DW_AT_data_member_location[DW_OP_plus_uconst 0x0]
    2488                      .dwattr $C$DW$228, DW_AT_accessibility(DW_ACCESS_public)
    2489                      .dwendtag $C$DW$T$41
    2490              
    2491              
    2492              $C$DW$T$42      .dwtag  DW_TAG_structure_type
    2493                      .dwattr $C$DW$T$42, DW_AT_name("PIEIER7_BITS")
    2494                      .dwattr $C$DW$T$42, DW_AT_byte_size(0x01)
    2495              $C$DW$229       .dwtag  DW_TAG_member
    2496                      .dwattr $C$DW$229, DW_AT_type(*$C$DW$T$19)
    2497                      .dwattr $C$DW$229, DW_AT_name("INTx1")
    2498                      .dwattr $C$DW$229, DW_AT_TI_symbol_name("_INTx1")
    2499                      .dwattr $C$DW$229, DW_AT_bit_offset(0x0f), DW_AT_bit_size(0x01)
    2500                      .dwattr $C$DW$229, DW_AT_data_member_location[DW_OP_plus_uconst 0x0]
    2501                      .dwattr $C$DW$229, DW_AT_accessibility(DW_ACCESS_public)
    2502              $C$DW$230       .dwtag  DW_TAG_member
    2503                      .dwattr $C$DW$230, DW_AT_type(*$C$DW$T$19)
    2504                      .dwattr $C$DW$230, DW_AT_name("INTx2")
    2505                      .dwattr $C$DW$230, DW_AT_TI_symbol_name("_INTx2")
    2506                      .dwattr $C$DW$230, DW_AT_bit_offset(0x0e), DW_AT_bit_size(0x01)
    2507                      .dwattr $C$DW$230, DW_AT_data_member_location[DW_OP_plus_uconst 0x0]
    2508                      .dwattr $C$DW$230, DW_AT_accessibility(DW_ACCESS_public)
    2509              $C$DW$231       .dwtag  DW_TAG_member
    2510                      .dwattr $C$DW$231, DW_AT_type(*$C$DW$T$19)
    2511                      .dwattr $C$DW$231, DW_AT_name("INTx3")
    2512                      .dwattr $C$DW$231, DW_AT_TI_symbol_name("_INTx3")
    2513                      .dwattr $C$DW$231, DW_AT_bit_offset(0x0d), DW_AT_bit_size(0x01)
    2514                      .dwattr $C$DW$231, DW_AT_data_member_location[DW_OP_plus_uconst 0x0]
    2515                      .dwattr $C$DW$231, DW_AT_accessibility(DW_ACCESS_public)
TMS320C2000 Assembler PC v6.4.2 Thu Dec 14 15:26:49 2017

Tools Copyright (c) 1996-2015 Texas Instruments Incorporated
interrupt.asm                                                        PAGE   48

    2516              $C$DW$232       .dwtag  DW_TAG_member
    2517                      .dwattr $C$DW$232, DW_AT_type(*$C$DW$T$19)
    2518                      .dwattr $C$DW$232, DW_AT_name("INTx4")
    2519                      .dwattr $C$DW$232, DW_AT_TI_symbol_name("_INTx4")
    2520                      .dwattr $C$DW$232, DW_AT_bit_offset(0x0c), DW_AT_bit_size(0x01)
    2521                      .dwattr $C$DW$232, DW_AT_data_member_location[DW_OP_plus_uconst 0x0]
    2522                      .dwattr $C$DW$232, DW_AT_accessibility(DW_ACCESS_public)
    2523              $C$DW$233       .dwtag  DW_TAG_member
    2524                      .dwattr $C$DW$233, DW_AT_type(*$C$DW$T$19)
    2525                      .dwattr $C$DW$233, DW_AT_name("INTx5")
    2526                      .dwattr $C$DW$233, DW_AT_TI_symbol_name("_INTx5")
    2527                      .dwattr $C$DW$233, DW_AT_bit_offset(0x0b), DW_AT_bit_size(0x01)
    2528                      .dwattr $C$DW$233, DW_AT_data_member_location[DW_OP_plus_uconst 0x0]
    2529                      .dwattr $C$DW$233, DW_AT_accessibility(DW_ACCESS_public)
    2530              $C$DW$234       .dwtag  DW_TAG_member
    2531                      .dwattr $C$DW$234, DW_AT_type(*$C$DW$T$19)
    2532                      .dwattr $C$DW$234, DW_AT_name("INTx6")
    2533                      .dwattr $C$DW$234, DW_AT_TI_symbol_name("_INTx6")
    2534                      .dwattr $C$DW$234, DW_AT_bit_offset(0x0a), DW_AT_bit_size(0x01)
    2535                      .dwattr $C$DW$234, DW_AT_data_member_location[DW_OP_plus_uconst 0x0]
    2536                      .dwattr $C$DW$234, DW_AT_accessibility(DW_ACCESS_public)
    2537              $C$DW$235       .dwtag  DW_TAG_member
    2538                      .dwattr $C$DW$235, DW_AT_type(*$C$DW$T$19)
    2539                      .dwattr $C$DW$235, DW_AT_name("INTx7")
    2540                      .dwattr $C$DW$235, DW_AT_TI_symbol_name("_INTx7")
    2541                      .dwattr $C$DW$235, DW_AT_bit_offset(0x09), DW_AT_bit_size(0x01)
    2542                      .dwattr $C$DW$235, DW_AT_data_member_location[DW_OP_plus_uconst 0x0]
    2543                      .dwattr $C$DW$235, DW_AT_accessibility(DW_ACCESS_public)
    2544              $C$DW$236       .dwtag  DW_TAG_member
    2545                      .dwattr $C$DW$236, DW_AT_type(*$C$DW$T$19)
    2546                      .dwattr $C$DW$236, DW_AT_name("INTx8")
    2547                      .dwattr $C$DW$236, DW_AT_TI_symbol_name("_INTx8")
    2548                      .dwattr $C$DW$236, DW_AT_bit_offset(0x08), DW_AT_bit_size(0x01)
    2549                      .dwattr $C$DW$236, DW_AT_data_member_location[DW_OP_plus_uconst 0x0]
    2550                      .dwattr $C$DW$236, DW_AT_accessibility(DW_ACCESS_public)
    2551              $C$DW$237       .dwtag  DW_TAG_member
    2552                      .dwattr $C$DW$237, DW_AT_type(*$C$DW$T$19)
    2553                      .dwattr $C$DW$237, DW_AT_name("INTx9")
    2554                      .dwattr $C$DW$237, DW_AT_TI_symbol_name("_INTx9")
    2555                      .dwattr $C$DW$237, DW_AT_bit_offset(0x07), DW_AT_bit_size(0x01)
    2556                      .dwattr $C$DW$237, DW_AT_data_member_location[DW_OP_plus_uconst 0x0]
    2557                      .dwattr $C$DW$237, DW_AT_accessibility(DW_ACCESS_public)
    2558              $C$DW$238       .dwtag  DW_TAG_member
    2559                      .dwattr $C$DW$238, DW_AT_type(*$C$DW$T$19)
    2560                      .dwattr $C$DW$238, DW_AT_name("INTx10")
    2561                      .dwattr $C$DW$238, DW_AT_TI_symbol_name("_INTx10")
    2562                      .dwattr $C$DW$238, DW_AT_bit_offset(0x06), DW_AT_bit_size(0x01)
    2563                      .dwattr $C$DW$238, DW_AT_data_member_location[DW_OP_plus_uconst 0x0]
    2564                      .dwattr $C$DW$238, DW_AT_accessibility(DW_ACCESS_public)
    2565              $C$DW$239       .dwtag  DW_TAG_member
    2566                      .dwattr $C$DW$239, DW_AT_type(*$C$DW$T$19)
    2567                      .dwattr $C$DW$239, DW_AT_name("INTx11")
    2568                      .dwattr $C$DW$239, DW_AT_TI_symbol_name("_INTx11")
    2569                      .dwattr $C$DW$239, DW_AT_bit_offset(0x05), DW_AT_bit_size(0x01)
    2570                      .dwattr $C$DW$239, DW_AT_data_member_location[DW_OP_plus_uconst 0x0]
TMS320C2000 Assembler PC v6.4.2 Thu Dec 14 15:26:49 2017

Tools Copyright (c) 1996-2015 Texas Instruments Incorporated
interrupt.asm                                                        PAGE   49

    2571                      .dwattr $C$DW$239, DW_AT_accessibility(DW_ACCESS_public)
    2572              $C$DW$240       .dwtag  DW_TAG_member
    2573                      .dwattr $C$DW$240, DW_AT_type(*$C$DW$T$19)
    2574                      .dwattr $C$DW$240, DW_AT_name("INTx12")
    2575                      .dwattr $C$DW$240, DW_AT_TI_symbol_name("_INTx12")
    2576                      .dwattr $C$DW$240, DW_AT_bit_offset(0x04), DW_AT_bit_size(0x01)
    2577                      .dwattr $C$DW$240, DW_AT_data_member_location[DW_OP_plus_uconst 0x0]
    2578                      .dwattr $C$DW$240, DW_AT_accessibility(DW_ACCESS_public)
    2579              $C$DW$241       .dwtag  DW_TAG_member
    2580                      .dwattr $C$DW$241, DW_AT_type(*$C$DW$T$19)
    2581                      .dwattr $C$DW$241, DW_AT_name("INTx13")
    2582                      .dwattr $C$DW$241, DW_AT_TI_symbol_name("_INTx13")
    2583                      .dwattr $C$DW$241, DW_AT_bit_offset(0x03), DW_AT_bit_size(0x01)
    2584                      .dwattr $C$DW$241, DW_AT_data_member_location[DW_OP_plus_uconst 0x0]
    2585                      .dwattr $C$DW$241, DW_AT_accessibility(DW_ACCESS_public)
    2586              $C$DW$242       .dwtag  DW_TAG_member
    2587                      .dwattr $C$DW$242, DW_AT_type(*$C$DW$T$19)
    2588                      .dwattr $C$DW$242, DW_AT_name("INTx14")
    2589                      .dwattr $C$DW$242, DW_AT_TI_symbol_name("_INTx14")
    2590                      .dwattr $C$DW$242, DW_AT_bit_offset(0x02), DW_AT_bit_size(0x01)
    2591                      .dwattr $C$DW$242, DW_AT_data_member_location[DW_OP_plus_uconst 0x0]
    2592                      .dwattr $C$DW$242, DW_AT_accessibility(DW_ACCESS_public)
    2593              $C$DW$243       .dwtag  DW_TAG_member
    2594                      .dwattr $C$DW$243, DW_AT_type(*$C$DW$T$19)
    2595                      .dwattr $C$DW$243, DW_AT_name("INTx15")
    2596                      .dwattr $C$DW$243, DW_AT_TI_symbol_name("_INTx15")
    2597                      .dwattr $C$DW$243, DW_AT_bit_offset(0x01), DW_AT_bit_size(0x01)
    2598                      .dwattr $C$DW$243, DW_AT_data_member_location[DW_OP_plus_uconst 0x0]
    2599                      .dwattr $C$DW$243, DW_AT_accessibility(DW_ACCESS_public)
    2600              $C$DW$244       .dwtag  DW_TAG_member
    2601                      .dwattr $C$DW$244, DW_AT_type(*$C$DW$T$19)
    2602                      .dwattr $C$DW$244, DW_AT_name("INTx16")
    2603                      .dwattr $C$DW$244, DW_AT_TI_symbol_name("_INTx16")
    2604                      .dwattr $C$DW$244, DW_AT_bit_offset(0x00), DW_AT_bit_size(0x01)
    2605                      .dwattr $C$DW$244, DW_AT_data_member_location[DW_OP_plus_uconst 0x0]
    2606                      .dwattr $C$DW$244, DW_AT_accessibility(DW_ACCESS_public)
    2607                      .dwendtag $C$DW$T$42
    2608              
    2609              
    2610              $C$DW$T$43      .dwtag  DW_TAG_union_type
    2611                      .dwattr $C$DW$T$43, DW_AT_name("PIEIER7_REG")
    2612                      .dwattr $C$DW$T$43, DW_AT_byte_size(0x01)
    2613              $C$DW$245       .dwtag  DW_TAG_member
    2614                      .dwattr $C$DW$245, DW_AT_type(*$C$DW$T$19)
    2615                      .dwattr $C$DW$245, DW_AT_name("all")
    2616                      .dwattr $C$DW$245, DW_AT_TI_symbol_name("_all")
    2617                      .dwattr $C$DW$245, DW_AT_data_member_location[DW_OP_plus_uconst 0x0]
    2618                      .dwattr $C$DW$245, DW_AT_accessibility(DW_ACCESS_public)
    2619              $C$DW$246       .dwtag  DW_TAG_member
    2620                      .dwattr $C$DW$246, DW_AT_type(*$C$DW$T$42)
    2621                      .dwattr $C$DW$246, DW_AT_name("bit")
    2622                      .dwattr $C$DW$246, DW_AT_TI_symbol_name("_bit")
    2623                      .dwattr $C$DW$246, DW_AT_data_member_location[DW_OP_plus_uconst 0x0]
    2624                      .dwattr $C$DW$246, DW_AT_accessibility(DW_ACCESS_public)
    2625                      .dwendtag $C$DW$T$43
TMS320C2000 Assembler PC v6.4.2 Thu Dec 14 15:26:49 2017

Tools Copyright (c) 1996-2015 Texas Instruments Incorporated
interrupt.asm                                                        PAGE   50

    2626              
    2627              
    2628              $C$DW$T$44      .dwtag  DW_TAG_structure_type
    2629                      .dwattr $C$DW$T$44, DW_AT_name("PIEIER8_BITS")
    2630                      .dwattr $C$DW$T$44, DW_AT_byte_size(0x01)
    2631              $C$DW$247       .dwtag  DW_TAG_member
    2632                      .dwattr $C$DW$247, DW_AT_type(*$C$DW$T$19)
    2633                      .dwattr $C$DW$247, DW_AT_name("INTx1")
    2634                      .dwattr $C$DW$247, DW_AT_TI_symbol_name("_INTx1")
    2635                      .dwattr $C$DW$247, DW_AT_bit_offset(0x0f), DW_AT_bit_size(0x01)
    2636                      .dwattr $C$DW$247, DW_AT_data_member_location[DW_OP_plus_uconst 0x0]
    2637                      .dwattr $C$DW$247, DW_AT_accessibility(DW_ACCESS_public)
    2638              $C$DW$248       .dwtag  DW_TAG_member
    2639                      .dwattr $C$DW$248, DW_AT_type(*$C$DW$T$19)
    2640                      .dwattr $C$DW$248, DW_AT_name("INTx2")
    2641                      .dwattr $C$DW$248, DW_AT_TI_symbol_name("_INTx2")
    2642                      .dwattr $C$DW$248, DW_AT_bit_offset(0x0e), DW_AT_bit_size(0x01)
    2643                      .dwattr $C$DW$248, DW_AT_data_member_location[DW_OP_plus_uconst 0x0]
    2644                      .dwattr $C$DW$248, DW_AT_accessibility(DW_ACCESS_public)
    2645              $C$DW$249       .dwtag  DW_TAG_member
    2646                      .dwattr $C$DW$249, DW_AT_type(*$C$DW$T$19)
    2647                      .dwattr $C$DW$249, DW_AT_name("INTx3")
    2648                      .dwattr $C$DW$249, DW_AT_TI_symbol_name("_INTx3")
    2649                      .dwattr $C$DW$249, DW_AT_bit_offset(0x0d), DW_AT_bit_size(0x01)
    2650                      .dwattr $C$DW$249, DW_AT_data_member_location[DW_OP_plus_uconst 0x0]
    2651                      .dwattr $C$DW$249, DW_AT_accessibility(DW_ACCESS_public)
    2652              $C$DW$250       .dwtag  DW_TAG_member
    2653                      .dwattr $C$DW$250, DW_AT_type(*$C$DW$T$19)
    2654                      .dwattr $C$DW$250, DW_AT_name("INTx4")
    2655                      .dwattr $C$DW$250, DW_AT_TI_symbol_name("_INTx4")
    2656                      .dwattr $C$DW$250, DW_AT_bit_offset(0x0c), DW_AT_bit_size(0x01)
    2657                      .dwattr $C$DW$250, DW_AT_data_member_location[DW_OP_plus_uconst 0x0]
    2658                      .dwattr $C$DW$250, DW_AT_accessibility(DW_ACCESS_public)
    2659              $C$DW$251       .dwtag  DW_TAG_member
    2660                      .dwattr $C$DW$251, DW_AT_type(*$C$DW$T$19)
    2661                      .dwattr $C$DW$251, DW_AT_name("INTx5")
    2662                      .dwattr $C$DW$251, DW_AT_TI_symbol_name("_INTx5")
    2663                      .dwattr $C$DW$251, DW_AT_bit_offset(0x0b), DW_AT_bit_size(0x01)
    2664                      .dwattr $C$DW$251, DW_AT_data_member_location[DW_OP_plus_uconst 0x0]
    2665                      .dwattr $C$DW$251, DW_AT_accessibility(DW_ACCESS_public)
    2666              $C$DW$252       .dwtag  DW_TAG_member
    2667                      .dwattr $C$DW$252, DW_AT_type(*$C$DW$T$19)
    2668                      .dwattr $C$DW$252, DW_AT_name("INTx6")
    2669                      .dwattr $C$DW$252, DW_AT_TI_symbol_name("_INTx6")
    2670                      .dwattr $C$DW$252, DW_AT_bit_offset(0x0a), DW_AT_bit_size(0x01)
    2671                      .dwattr $C$DW$252, DW_AT_data_member_location[DW_OP_plus_uconst 0x0]
    2672                      .dwattr $C$DW$252, DW_AT_accessibility(DW_ACCESS_public)
    2673              $C$DW$253       .dwtag  DW_TAG_member
    2674                      .dwattr $C$DW$253, DW_AT_type(*$C$DW$T$19)
    2675                      .dwattr $C$DW$253, DW_AT_name("INTx7")
    2676                      .dwattr $C$DW$253, DW_AT_TI_symbol_name("_INTx7")
    2677                      .dwattr $C$DW$253, DW_AT_bit_offset(0x09), DW_AT_bit_size(0x01)
    2678                      .dwattr $C$DW$253, DW_AT_data_member_location[DW_OP_plus_uconst 0x0]
    2679                      .dwattr $C$DW$253, DW_AT_accessibility(DW_ACCESS_public)
    2680              $C$DW$254       .dwtag  DW_TAG_member
TMS320C2000 Assembler PC v6.4.2 Thu Dec 14 15:26:49 2017

Tools Copyright (c) 1996-2015 Texas Instruments Incorporated
interrupt.asm                                                        PAGE   51

    2681                      .dwattr $C$DW$254, DW_AT_type(*$C$DW$T$19)
    2682                      .dwattr $C$DW$254, DW_AT_name("INTx8")
    2683                      .dwattr $C$DW$254, DW_AT_TI_symbol_name("_INTx8")
    2684                      .dwattr $C$DW$254, DW_AT_bit_offset(0x08), DW_AT_bit_size(0x01)
    2685                      .dwattr $C$DW$254, DW_AT_data_member_location[DW_OP_plus_uconst 0x0]
    2686                      .dwattr $C$DW$254, DW_AT_accessibility(DW_ACCESS_public)
    2687              $C$DW$255       .dwtag  DW_TAG_member
    2688                      .dwattr $C$DW$255, DW_AT_type(*$C$DW$T$19)
    2689                      .dwattr $C$DW$255, DW_AT_name("INTx9")
    2690                      .dwattr $C$DW$255, DW_AT_TI_symbol_name("_INTx9")
    2691                      .dwattr $C$DW$255, DW_AT_bit_offset(0x07), DW_AT_bit_size(0x01)
    2692                      .dwattr $C$DW$255, DW_AT_data_member_location[DW_OP_plus_uconst 0x0]
    2693                      .dwattr $C$DW$255, DW_AT_accessibility(DW_ACCESS_public)
    2694              $C$DW$256       .dwtag  DW_TAG_member
    2695                      .dwattr $C$DW$256, DW_AT_type(*$C$DW$T$19)
    2696                      .dwattr $C$DW$256, DW_AT_name("INTx10")
    2697                      .dwattr $C$DW$256, DW_AT_TI_symbol_name("_INTx10")
    2698                      .dwattr $C$DW$256, DW_AT_bit_offset(0x06), DW_AT_bit_size(0x01)
    2699                      .dwattr $C$DW$256, DW_AT_data_member_location[DW_OP_plus_uconst 0x0]
    2700                      .dwattr $C$DW$256, DW_AT_accessibility(DW_ACCESS_public)
    2701              $C$DW$257       .dwtag  DW_TAG_member
    2702                      .dwattr $C$DW$257, DW_AT_type(*$C$DW$T$19)
    2703                      .dwattr $C$DW$257, DW_AT_name("INTx11")
    2704                      .dwattr $C$DW$257, DW_AT_TI_symbol_name("_INTx11")
    2705                      .dwattr $C$DW$257, DW_AT_bit_offset(0x05), DW_AT_bit_size(0x01)
    2706                      .dwattr $C$DW$257, DW_AT_data_member_location[DW_OP_plus_uconst 0x0]
    2707                      .dwattr $C$DW$257, DW_AT_accessibility(DW_ACCESS_public)
    2708              $C$DW$258       .dwtag  DW_TAG_member
    2709                      .dwattr $C$DW$258, DW_AT_type(*$C$DW$T$19)
    2710                      .dwattr $C$DW$258, DW_AT_name("INTx12")
    2711                      .dwattr $C$DW$258, DW_AT_TI_symbol_name("_INTx12")
    2712                      .dwattr $C$DW$258, DW_AT_bit_offset(0x04), DW_AT_bit_size(0x01)
    2713                      .dwattr $C$DW$258, DW_AT_data_member_location[DW_OP_plus_uconst 0x0]
    2714                      .dwattr $C$DW$258, DW_AT_accessibility(DW_ACCESS_public)
    2715              $C$DW$259       .dwtag  DW_TAG_member
    2716                      .dwattr $C$DW$259, DW_AT_type(*$C$DW$T$19)
    2717                      .dwattr $C$DW$259, DW_AT_name("INTx13")
    2718                      .dwattr $C$DW$259, DW_AT_TI_symbol_name("_INTx13")
    2719                      .dwattr $C$DW$259, DW_AT_bit_offset(0x03), DW_AT_bit_size(0x01)
    2720                      .dwattr $C$DW$259, DW_AT_data_member_location[DW_OP_plus_uconst 0x0]
    2721                      .dwattr $C$DW$259, DW_AT_accessibility(DW_ACCESS_public)
    2722              $C$DW$260       .dwtag  DW_TAG_member
    2723                      .dwattr $C$DW$260, DW_AT_type(*$C$DW$T$19)
    2724                      .dwattr $C$DW$260, DW_AT_name("INTx14")
    2725                      .dwattr $C$DW$260, DW_AT_TI_symbol_name("_INTx14")
    2726                      .dwattr $C$DW$260, DW_AT_bit_offset(0x02), DW_AT_bit_size(0x01)
    2727                      .dwattr $C$DW$260, DW_AT_data_member_location[DW_OP_plus_uconst 0x0]
    2728                      .dwattr $C$DW$260, DW_AT_accessibility(DW_ACCESS_public)
    2729              $C$DW$261       .dwtag  DW_TAG_member
    2730                      .dwattr $C$DW$261, DW_AT_type(*$C$DW$T$19)
    2731                      .dwattr $C$DW$261, DW_AT_name("INTx15")
    2732                      .dwattr $C$DW$261, DW_AT_TI_symbol_name("_INTx15")
    2733                      .dwattr $C$DW$261, DW_AT_bit_offset(0x01), DW_AT_bit_size(0x01)
    2734                      .dwattr $C$DW$261, DW_AT_data_member_location[DW_OP_plus_uconst 0x0]
    2735                      .dwattr $C$DW$261, DW_AT_accessibility(DW_ACCESS_public)
TMS320C2000 Assembler PC v6.4.2 Thu Dec 14 15:26:49 2017

Tools Copyright (c) 1996-2015 Texas Instruments Incorporated
interrupt.asm                                                        PAGE   52

    2736              $C$DW$262       .dwtag  DW_TAG_member
    2737                      .dwattr $C$DW$262, DW_AT_type(*$C$DW$T$19)
    2738                      .dwattr $C$DW$262, DW_AT_name("INTx16")
    2739                      .dwattr $C$DW$262, DW_AT_TI_symbol_name("_INTx16")
    2740                      .dwattr $C$DW$262, DW_AT_bit_offset(0x00), DW_AT_bit_size(0x01)
    2741                      .dwattr $C$DW$262, DW_AT_data_member_location[DW_OP_plus_uconst 0x0]
    2742                      .dwattr $C$DW$262, DW_AT_accessibility(DW_ACCESS_public)
    2743                      .dwendtag $C$DW$T$44
    2744              
    2745              
    2746              $C$DW$T$45      .dwtag  DW_TAG_union_type
    2747                      .dwattr $C$DW$T$45, DW_AT_name("PIEIER8_REG")
    2748                      .dwattr $C$DW$T$45, DW_AT_byte_size(0x01)
    2749              $C$DW$263       .dwtag  DW_TAG_member
    2750                      .dwattr $C$DW$263, DW_AT_type(*$C$DW$T$19)
    2751                      .dwattr $C$DW$263, DW_AT_name("all")
    2752                      .dwattr $C$DW$263, DW_AT_TI_symbol_name("_all")
    2753                      .dwattr $C$DW$263, DW_AT_data_member_location[DW_OP_plus_uconst 0x0]
    2754                      .dwattr $C$DW$263, DW_AT_accessibility(DW_ACCESS_public)
    2755              $C$DW$264       .dwtag  DW_TAG_member
    2756                      .dwattr $C$DW$264, DW_AT_type(*$C$DW$T$44)
    2757                      .dwattr $C$DW$264, DW_AT_name("bit")
    2758                      .dwattr $C$DW$264, DW_AT_TI_symbol_name("_bit")
    2759                      .dwattr $C$DW$264, DW_AT_data_member_location[DW_OP_plus_uconst 0x0]
    2760                      .dwattr $C$DW$264, DW_AT_accessibility(DW_ACCESS_public)
    2761                      .dwendtag $C$DW$T$45
    2762              
    2763              
    2764              $C$DW$T$46      .dwtag  DW_TAG_structure_type
    2765                      .dwattr $C$DW$T$46, DW_AT_name("PIEIER9_BITS")
    2766                      .dwattr $C$DW$T$46, DW_AT_byte_size(0x01)
    2767              $C$DW$265       .dwtag  DW_TAG_member
    2768                      .dwattr $C$DW$265, DW_AT_type(*$C$DW$T$19)
    2769                      .dwattr $C$DW$265, DW_AT_name("INTx1")
    2770                      .dwattr $C$DW$265, DW_AT_TI_symbol_name("_INTx1")
    2771                      .dwattr $C$DW$265, DW_AT_bit_offset(0x0f), DW_AT_bit_size(0x01)
    2772                      .dwattr $C$DW$265, DW_AT_data_member_location[DW_OP_plus_uconst 0x0]
    2773                      .dwattr $C$DW$265, DW_AT_accessibility(DW_ACCESS_public)
    2774              $C$DW$266       .dwtag  DW_TAG_member
    2775                      .dwattr $C$DW$266, DW_AT_type(*$C$DW$T$19)
    2776                      .dwattr $C$DW$266, DW_AT_name("INTx2")
    2777                      .dwattr $C$DW$266, DW_AT_TI_symbol_name("_INTx2")
    2778                      .dwattr $C$DW$266, DW_AT_bit_offset(0x0e), DW_AT_bit_size(0x01)
    2779                      .dwattr $C$DW$266, DW_AT_data_member_location[DW_OP_plus_uconst 0x0]
    2780                      .dwattr $C$DW$266, DW_AT_accessibility(DW_ACCESS_public)
    2781              $C$DW$267       .dwtag  DW_TAG_member
    2782                      .dwattr $C$DW$267, DW_AT_type(*$C$DW$T$19)
    2783                      .dwattr $C$DW$267, DW_AT_name("INTx3")
    2784                      .dwattr $C$DW$267, DW_AT_TI_symbol_name("_INTx3")
    2785                      .dwattr $C$DW$267, DW_AT_bit_offset(0x0d), DW_AT_bit_size(0x01)
    2786                      .dwattr $C$DW$267, DW_AT_data_member_location[DW_OP_plus_uconst 0x0]
    2787                      .dwattr $C$DW$267, DW_AT_accessibility(DW_ACCESS_public)
    2788              $C$DW$268       .dwtag  DW_TAG_member
    2789                      .dwattr $C$DW$268, DW_AT_type(*$C$DW$T$19)
    2790                      .dwattr $C$DW$268, DW_AT_name("INTx4")
TMS320C2000 Assembler PC v6.4.2 Thu Dec 14 15:26:49 2017

Tools Copyright (c) 1996-2015 Texas Instruments Incorporated
interrupt.asm                                                        PAGE   53

    2791                      .dwattr $C$DW$268, DW_AT_TI_symbol_name("_INTx4")
    2792                      .dwattr $C$DW$268, DW_AT_bit_offset(0x0c), DW_AT_bit_size(0x01)
    2793                      .dwattr $C$DW$268, DW_AT_data_member_location[DW_OP_plus_uconst 0x0]
    2794                      .dwattr $C$DW$268, DW_AT_accessibility(DW_ACCESS_public)
    2795              $C$DW$269       .dwtag  DW_TAG_member
    2796                      .dwattr $C$DW$269, DW_AT_type(*$C$DW$T$19)
    2797                      .dwattr $C$DW$269, DW_AT_name("INTx5")
    2798                      .dwattr $C$DW$269, DW_AT_TI_symbol_name("_INTx5")
    2799                      .dwattr $C$DW$269, DW_AT_bit_offset(0x0b), DW_AT_bit_size(0x01)
    2800                      .dwattr $C$DW$269, DW_AT_data_member_location[DW_OP_plus_uconst 0x0]
    2801                      .dwattr $C$DW$269, DW_AT_accessibility(DW_ACCESS_public)
    2802              $C$DW$270       .dwtag  DW_TAG_member
    2803                      .dwattr $C$DW$270, DW_AT_type(*$C$DW$T$19)
    2804                      .dwattr $C$DW$270, DW_AT_name("INTx6")
    2805                      .dwattr $C$DW$270, DW_AT_TI_symbol_name("_INTx6")
    2806                      .dwattr $C$DW$270, DW_AT_bit_offset(0x0a), DW_AT_bit_size(0x01)
    2807                      .dwattr $C$DW$270, DW_AT_data_member_location[DW_OP_plus_uconst 0x0]
    2808                      .dwattr $C$DW$270, DW_AT_accessibility(DW_ACCESS_public)
    2809              $C$DW$271       .dwtag  DW_TAG_member
    2810                      .dwattr $C$DW$271, DW_AT_type(*$C$DW$T$19)
    2811                      .dwattr $C$DW$271, DW_AT_name("INTx7")
    2812                      .dwattr $C$DW$271, DW_AT_TI_symbol_name("_INTx7")
    2813                      .dwattr $C$DW$271, DW_AT_bit_offset(0x09), DW_AT_bit_size(0x01)
    2814                      .dwattr $C$DW$271, DW_AT_data_member_location[DW_OP_plus_uconst 0x0]
    2815                      .dwattr $C$DW$271, DW_AT_accessibility(DW_ACCESS_public)
    2816              $C$DW$272       .dwtag  DW_TAG_member
    2817                      .dwattr $C$DW$272, DW_AT_type(*$C$DW$T$19)
    2818                      .dwattr $C$DW$272, DW_AT_name("INTx8")
    2819                      .dwattr $C$DW$272, DW_AT_TI_symbol_name("_INTx8")
    2820                      .dwattr $C$DW$272, DW_AT_bit_offset(0x08), DW_AT_bit_size(0x01)
    2821                      .dwattr $C$DW$272, DW_AT_data_member_location[DW_OP_plus_uconst 0x0]
    2822                      .dwattr $C$DW$272, DW_AT_accessibility(DW_ACCESS_public)
    2823              $C$DW$273       .dwtag  DW_TAG_member
    2824                      .dwattr $C$DW$273, DW_AT_type(*$C$DW$T$19)
    2825                      .dwattr $C$DW$273, DW_AT_name("INTx9")
    2826                      .dwattr $C$DW$273, DW_AT_TI_symbol_name("_INTx9")
    2827                      .dwattr $C$DW$273, DW_AT_bit_offset(0x07), DW_AT_bit_size(0x01)
    2828                      .dwattr $C$DW$273, DW_AT_data_member_location[DW_OP_plus_uconst 0x0]
    2829                      .dwattr $C$DW$273, DW_AT_accessibility(DW_ACCESS_public)
    2830              $C$DW$274       .dwtag  DW_TAG_member
    2831                      .dwattr $C$DW$274, DW_AT_type(*$C$DW$T$19)
    2832                      .dwattr $C$DW$274, DW_AT_name("INTx10")
    2833                      .dwattr $C$DW$274, DW_AT_TI_symbol_name("_INTx10")
    2834                      .dwattr $C$DW$274, DW_AT_bit_offset(0x06), DW_AT_bit_size(0x01)
    2835                      .dwattr $C$DW$274, DW_AT_data_member_location[DW_OP_plus_uconst 0x0]
    2836                      .dwattr $C$DW$274, DW_AT_accessibility(DW_ACCESS_public)
    2837              $C$DW$275       .dwtag  DW_TAG_member
    2838                      .dwattr $C$DW$275, DW_AT_type(*$C$DW$T$19)
    2839                      .dwattr $C$DW$275, DW_AT_name("INTx11")
    2840                      .dwattr $C$DW$275, DW_AT_TI_symbol_name("_INTx11")
    2841                      .dwattr $C$DW$275, DW_AT_bit_offset(0x05), DW_AT_bit_size(0x01)
    2842                      .dwattr $C$DW$275, DW_AT_data_member_location[DW_OP_plus_uconst 0x0]
    2843                      .dwattr $C$DW$275, DW_AT_accessibility(DW_ACCESS_public)
    2844              $C$DW$276       .dwtag  DW_TAG_member
    2845                      .dwattr $C$DW$276, DW_AT_type(*$C$DW$T$19)
TMS320C2000 Assembler PC v6.4.2 Thu Dec 14 15:26:49 2017

Tools Copyright (c) 1996-2015 Texas Instruments Incorporated
interrupt.asm                                                        PAGE   54

    2846                      .dwattr $C$DW$276, DW_AT_name("INTx12")
    2847                      .dwattr $C$DW$276, DW_AT_TI_symbol_name("_INTx12")
    2848                      .dwattr $C$DW$276, DW_AT_bit_offset(0x04), DW_AT_bit_size(0x01)
    2849                      .dwattr $C$DW$276, DW_AT_data_member_location[DW_OP_plus_uconst 0x0]
    2850                      .dwattr $C$DW$276, DW_AT_accessibility(DW_ACCESS_public)
    2851              $C$DW$277       .dwtag  DW_TAG_member
    2852                      .dwattr $C$DW$277, DW_AT_type(*$C$DW$T$19)
    2853                      .dwattr $C$DW$277, DW_AT_name("INTx13")
    2854                      .dwattr $C$DW$277, DW_AT_TI_symbol_name("_INTx13")
    2855                      .dwattr $C$DW$277, DW_AT_bit_offset(0x03), DW_AT_bit_size(0x01)
    2856                      .dwattr $C$DW$277, DW_AT_data_member_location[DW_OP_plus_uconst 0x0]
    2857                      .dwattr $C$DW$277, DW_AT_accessibility(DW_ACCESS_public)
    2858              $C$DW$278       .dwtag  DW_TAG_member
    2859                      .dwattr $C$DW$278, DW_AT_type(*$C$DW$T$19)
    2860                      .dwattr $C$DW$278, DW_AT_name("INTx14")
    2861                      .dwattr $C$DW$278, DW_AT_TI_symbol_name("_INTx14")
    2862                      .dwattr $C$DW$278, DW_AT_bit_offset(0x02), DW_AT_bit_size(0x01)
    2863                      .dwattr $C$DW$278, DW_AT_data_member_location[DW_OP_plus_uconst 0x0]
    2864                      .dwattr $C$DW$278, DW_AT_accessibility(DW_ACCESS_public)
    2865              $C$DW$279       .dwtag  DW_TAG_member
    2866                      .dwattr $C$DW$279, DW_AT_type(*$C$DW$T$19)
    2867                      .dwattr $C$DW$279, DW_AT_name("INTx15")
    2868                      .dwattr $C$DW$279, DW_AT_TI_symbol_name("_INTx15")
    2869                      .dwattr $C$DW$279, DW_AT_bit_offset(0x01), DW_AT_bit_size(0x01)
    2870                      .dwattr $C$DW$279, DW_AT_data_member_location[DW_OP_plus_uconst 0x0]
    2871                      .dwattr $C$DW$279, DW_AT_accessibility(DW_ACCESS_public)
    2872              $C$DW$280       .dwtag  DW_TAG_member
    2873                      .dwattr $C$DW$280, DW_AT_type(*$C$DW$T$19)
    2874                      .dwattr $C$DW$280, DW_AT_name("INTx16")
    2875                      .dwattr $C$DW$280, DW_AT_TI_symbol_name("_INTx16")
    2876                      .dwattr $C$DW$280, DW_AT_bit_offset(0x00), DW_AT_bit_size(0x01)
    2877                      .dwattr $C$DW$280, DW_AT_data_member_location[DW_OP_plus_uconst 0x0]
    2878                      .dwattr $C$DW$280, DW_AT_accessibility(DW_ACCESS_public)
    2879                      .dwendtag $C$DW$T$46
    2880              
    2881              
    2882              $C$DW$T$47      .dwtag  DW_TAG_union_type
    2883                      .dwattr $C$DW$T$47, DW_AT_name("PIEIER9_REG")
    2884                      .dwattr $C$DW$T$47, DW_AT_byte_size(0x01)
    2885              $C$DW$281       .dwtag  DW_TAG_member
    2886                      .dwattr $C$DW$281, DW_AT_type(*$C$DW$T$19)
    2887                      .dwattr $C$DW$281, DW_AT_name("all")
    2888                      .dwattr $C$DW$281, DW_AT_TI_symbol_name("_all")
    2889                      .dwattr $C$DW$281, DW_AT_data_member_location[DW_OP_plus_uconst 0x0]
    2890                      .dwattr $C$DW$281, DW_AT_accessibility(DW_ACCESS_public)
    2891              $C$DW$282       .dwtag  DW_TAG_member
    2892                      .dwattr $C$DW$282, DW_AT_type(*$C$DW$T$46)
    2893                      .dwattr $C$DW$282, DW_AT_name("bit")
    2894                      .dwattr $C$DW$282, DW_AT_TI_symbol_name("_bit")
    2895                      .dwattr $C$DW$282, DW_AT_data_member_location[DW_OP_plus_uconst 0x0]
    2896                      .dwattr $C$DW$282, DW_AT_accessibility(DW_ACCESS_public)
    2897                      .dwendtag $C$DW$T$47
    2898              
    2899              
    2900              $C$DW$T$48      .dwtag  DW_TAG_structure_type
TMS320C2000 Assembler PC v6.4.2 Thu Dec 14 15:26:49 2017

Tools Copyright (c) 1996-2015 Texas Instruments Incorporated
interrupt.asm                                                        PAGE   55

    2901                      .dwattr $C$DW$T$48, DW_AT_name("PIEIFR10_BITS")
    2902                      .dwattr $C$DW$T$48, DW_AT_byte_size(0x01)
    2903              $C$DW$283       .dwtag  DW_TAG_member
    2904                      .dwattr $C$DW$283, DW_AT_type(*$C$DW$T$19)
    2905                      .dwattr $C$DW$283, DW_AT_name("INTx1")
    2906                      .dwattr $C$DW$283, DW_AT_TI_symbol_name("_INTx1")
    2907                      .dwattr $C$DW$283, DW_AT_bit_offset(0x0f), DW_AT_bit_size(0x01)
    2908                      .dwattr $C$DW$283, DW_AT_data_member_location[DW_OP_plus_uconst 0x0]
    2909                      .dwattr $C$DW$283, DW_AT_accessibility(DW_ACCESS_public)
    2910              $C$DW$284       .dwtag  DW_TAG_member
    2911                      .dwattr $C$DW$284, DW_AT_type(*$C$DW$T$19)
    2912                      .dwattr $C$DW$284, DW_AT_name("INTx2")
    2913                      .dwattr $C$DW$284, DW_AT_TI_symbol_name("_INTx2")
    2914                      .dwattr $C$DW$284, DW_AT_bit_offset(0x0e), DW_AT_bit_size(0x01)
    2915                      .dwattr $C$DW$284, DW_AT_data_member_location[DW_OP_plus_uconst 0x0]
    2916                      .dwattr $C$DW$284, DW_AT_accessibility(DW_ACCESS_public)
    2917              $C$DW$285       .dwtag  DW_TAG_member
    2918                      .dwattr $C$DW$285, DW_AT_type(*$C$DW$T$19)
    2919                      .dwattr $C$DW$285, DW_AT_name("INTx3")
    2920                      .dwattr $C$DW$285, DW_AT_TI_symbol_name("_INTx3")
    2921                      .dwattr $C$DW$285, DW_AT_bit_offset(0x0d), DW_AT_bit_size(0x01)
    2922                      .dwattr $C$DW$285, DW_AT_data_member_location[DW_OP_plus_uconst 0x0]
    2923                      .dwattr $C$DW$285, DW_AT_accessibility(DW_ACCESS_public)
    2924              $C$DW$286       .dwtag  DW_TAG_member
    2925                      .dwattr $C$DW$286, DW_AT_type(*$C$DW$T$19)
    2926                      .dwattr $C$DW$286, DW_AT_name("INTx4")
    2927                      .dwattr $C$DW$286, DW_AT_TI_symbol_name("_INTx4")
    2928                      .dwattr $C$DW$286, DW_AT_bit_offset(0x0c), DW_AT_bit_size(0x01)
    2929                      .dwattr $C$DW$286, DW_AT_data_member_location[DW_OP_plus_uconst 0x0]
    2930                      .dwattr $C$DW$286, DW_AT_accessibility(DW_ACCESS_public)
    2931              $C$DW$287       .dwtag  DW_TAG_member
    2932                      .dwattr $C$DW$287, DW_AT_type(*$C$DW$T$19)
    2933                      .dwattr $C$DW$287, DW_AT_name("INTx5")
    2934                      .dwattr $C$DW$287, DW_AT_TI_symbol_name("_INTx5")
    2935                      .dwattr $C$DW$287, DW_AT_bit_offset(0x0b), DW_AT_bit_size(0x01)
    2936                      .dwattr $C$DW$287, DW_AT_data_member_location[DW_OP_plus_uconst 0x0]
    2937                      .dwattr $C$DW$287, DW_AT_accessibility(DW_ACCESS_public)
    2938              $C$DW$288       .dwtag  DW_TAG_member
    2939                      .dwattr $C$DW$288, DW_AT_type(*$C$DW$T$19)
    2940                      .dwattr $C$DW$288, DW_AT_name("INTx6")
    2941                      .dwattr $C$DW$288, DW_AT_TI_symbol_name("_INTx6")
    2942                      .dwattr $C$DW$288, DW_AT_bit_offset(0x0a), DW_AT_bit_size(0x01)
    2943                      .dwattr $C$DW$288, DW_AT_data_member_location[DW_OP_plus_uconst 0x0]
    2944                      .dwattr $C$DW$288, DW_AT_accessibility(DW_ACCESS_public)
    2945              $C$DW$289       .dwtag  DW_TAG_member
    2946                      .dwattr $C$DW$289, DW_AT_type(*$C$DW$T$19)
    2947                      .dwattr $C$DW$289, DW_AT_name("INTx7")
    2948                      .dwattr $C$DW$289, DW_AT_TI_symbol_name("_INTx7")
    2949                      .dwattr $C$DW$289, DW_AT_bit_offset(0x09), DW_AT_bit_size(0x01)
    2950                      .dwattr $C$DW$289, DW_AT_data_member_location[DW_OP_plus_uconst 0x0]
    2951                      .dwattr $C$DW$289, DW_AT_accessibility(DW_ACCESS_public)
    2952              $C$DW$290       .dwtag  DW_TAG_member
    2953                      .dwattr $C$DW$290, DW_AT_type(*$C$DW$T$19)
    2954                      .dwattr $C$DW$290, DW_AT_name("INTx8")
    2955                      .dwattr $C$DW$290, DW_AT_TI_symbol_name("_INTx8")
TMS320C2000 Assembler PC v6.4.2 Thu Dec 14 15:26:49 2017

Tools Copyright (c) 1996-2015 Texas Instruments Incorporated
interrupt.asm                                                        PAGE   56

    2956                      .dwattr $C$DW$290, DW_AT_bit_offset(0x08), DW_AT_bit_size(0x01)
    2957                      .dwattr $C$DW$290, DW_AT_data_member_location[DW_OP_plus_uconst 0x0]
    2958                      .dwattr $C$DW$290, DW_AT_accessibility(DW_ACCESS_public)
    2959              $C$DW$291       .dwtag  DW_TAG_member
    2960                      .dwattr $C$DW$291, DW_AT_type(*$C$DW$T$19)
    2961                      .dwattr $C$DW$291, DW_AT_name("INTx9")
    2962                      .dwattr $C$DW$291, DW_AT_TI_symbol_name("_INTx9")
    2963                      .dwattr $C$DW$291, DW_AT_bit_offset(0x07), DW_AT_bit_size(0x01)
    2964                      .dwattr $C$DW$291, DW_AT_data_member_location[DW_OP_plus_uconst 0x0]
    2965                      .dwattr $C$DW$291, DW_AT_accessibility(DW_ACCESS_public)
    2966              $C$DW$292       .dwtag  DW_TAG_member
    2967                      .dwattr $C$DW$292, DW_AT_type(*$C$DW$T$19)
    2968                      .dwattr $C$DW$292, DW_AT_name("INTx10")
    2969                      .dwattr $C$DW$292, DW_AT_TI_symbol_name("_INTx10")
    2970                      .dwattr $C$DW$292, DW_AT_bit_offset(0x06), DW_AT_bit_size(0x01)
    2971                      .dwattr $C$DW$292, DW_AT_data_member_location[DW_OP_plus_uconst 0x0]
    2972                      .dwattr $C$DW$292, DW_AT_accessibility(DW_ACCESS_public)
    2973              $C$DW$293       .dwtag  DW_TAG_member
    2974                      .dwattr $C$DW$293, DW_AT_type(*$C$DW$T$19)
    2975                      .dwattr $C$DW$293, DW_AT_name("INTx11")
    2976                      .dwattr $C$DW$293, DW_AT_TI_symbol_name("_INTx11")
    2977                      .dwattr $C$DW$293, DW_AT_bit_offset(0x05), DW_AT_bit_size(0x01)
    2978                      .dwattr $C$DW$293, DW_AT_data_member_location[DW_OP_plus_uconst 0x0]
    2979                      .dwattr $C$DW$293, DW_AT_accessibility(DW_ACCESS_public)
    2980              $C$DW$294       .dwtag  DW_TAG_member
    2981                      .dwattr $C$DW$294, DW_AT_type(*$C$DW$T$19)
    2982                      .dwattr $C$DW$294, DW_AT_name("INTx12")
    2983                      .dwattr $C$DW$294, DW_AT_TI_symbol_name("_INTx12")
    2984                      .dwattr $C$DW$294, DW_AT_bit_offset(0x04), DW_AT_bit_size(0x01)
    2985                      .dwattr $C$DW$294, DW_AT_data_member_location[DW_OP_plus_uconst 0x0]
    2986                      .dwattr $C$DW$294, DW_AT_accessibility(DW_ACCESS_public)
    2987              $C$DW$295       .dwtag  DW_TAG_member
    2988                      .dwattr $C$DW$295, DW_AT_type(*$C$DW$T$19)
    2989                      .dwattr $C$DW$295, DW_AT_name("INTx13")
    2990                      .dwattr $C$DW$295, DW_AT_TI_symbol_name("_INTx13")
    2991                      .dwattr $C$DW$295, DW_AT_bit_offset(0x03), DW_AT_bit_size(0x01)
    2992                      .dwattr $C$DW$295, DW_AT_data_member_location[DW_OP_plus_uconst 0x0]
    2993                      .dwattr $C$DW$295, DW_AT_accessibility(DW_ACCESS_public)
    2994              $C$DW$296       .dwtag  DW_TAG_member
    2995                      .dwattr $C$DW$296, DW_AT_type(*$C$DW$T$19)
    2996                      .dwattr $C$DW$296, DW_AT_name("INTx14")
    2997                      .dwattr $C$DW$296, DW_AT_TI_symbol_name("_INTx14")
    2998                      .dwattr $C$DW$296, DW_AT_bit_offset(0x02), DW_AT_bit_size(0x01)
    2999                      .dwattr $C$DW$296, DW_AT_data_member_location[DW_OP_plus_uconst 0x0]
    3000                      .dwattr $C$DW$296, DW_AT_accessibility(DW_ACCESS_public)
    3001              $C$DW$297       .dwtag  DW_TAG_member
    3002                      .dwattr $C$DW$297, DW_AT_type(*$C$DW$T$19)
    3003                      .dwattr $C$DW$297, DW_AT_name("INTx15")
    3004                      .dwattr $C$DW$297, DW_AT_TI_symbol_name("_INTx15")
    3005                      .dwattr $C$DW$297, DW_AT_bit_offset(0x01), DW_AT_bit_size(0x01)
    3006                      .dwattr $C$DW$297, DW_AT_data_member_location[DW_OP_plus_uconst 0x0]
    3007                      .dwattr $C$DW$297, DW_AT_accessibility(DW_ACCESS_public)
    3008              $C$DW$298       .dwtag  DW_TAG_member
    3009                      .dwattr $C$DW$298, DW_AT_type(*$C$DW$T$19)
    3010                      .dwattr $C$DW$298, DW_AT_name("INTx16")
TMS320C2000 Assembler PC v6.4.2 Thu Dec 14 15:26:49 2017

Tools Copyright (c) 1996-2015 Texas Instruments Incorporated
interrupt.asm                                                        PAGE   57

    3011                      .dwattr $C$DW$298, DW_AT_TI_symbol_name("_INTx16")
    3012                      .dwattr $C$DW$298, DW_AT_bit_offset(0x00), DW_AT_bit_size(0x01)
    3013                      .dwattr $C$DW$298, DW_AT_data_member_location[DW_OP_plus_uconst 0x0]
    3014                      .dwattr $C$DW$298, DW_AT_accessibility(DW_ACCESS_public)
    3015                      .dwendtag $C$DW$T$48
    3016              
    3017              
    3018              $C$DW$T$49      .dwtag  DW_TAG_union_type
    3019                      .dwattr $C$DW$T$49, DW_AT_name("PIEIFR10_REG")
    3020                      .dwattr $C$DW$T$49, DW_AT_byte_size(0x01)
    3021              $C$DW$299       .dwtag  DW_TAG_member
    3022                      .dwattr $C$DW$299, DW_AT_type(*$C$DW$T$19)
    3023                      .dwattr $C$DW$299, DW_AT_name("all")
    3024                      .dwattr $C$DW$299, DW_AT_TI_symbol_name("_all")
    3025                      .dwattr $C$DW$299, DW_AT_data_member_location[DW_OP_plus_uconst 0x0]
    3026                      .dwattr $C$DW$299, DW_AT_accessibility(DW_ACCESS_public)
    3027              $C$DW$300       .dwtag  DW_TAG_member
    3028                      .dwattr $C$DW$300, DW_AT_type(*$C$DW$T$48)
    3029                      .dwattr $C$DW$300, DW_AT_name("bit")
    3030                      .dwattr $C$DW$300, DW_AT_TI_symbol_name("_bit")
    3031                      .dwattr $C$DW$300, DW_AT_data_member_location[DW_OP_plus_uconst 0x0]
    3032                      .dwattr $C$DW$300, DW_AT_accessibility(DW_ACCESS_public)
    3033                      .dwendtag $C$DW$T$49
    3034              
    3035              
    3036              $C$DW$T$50      .dwtag  DW_TAG_structure_type
    3037                      .dwattr $C$DW$T$50, DW_AT_name("PIEIFR11_BITS")
    3038                      .dwattr $C$DW$T$50, DW_AT_byte_size(0x01)
    3039              $C$DW$301       .dwtag  DW_TAG_member
    3040                      .dwattr $C$DW$301, DW_AT_type(*$C$DW$T$19)
    3041                      .dwattr $C$DW$301, DW_AT_name("INTx1")
    3042                      .dwattr $C$DW$301, DW_AT_TI_symbol_name("_INTx1")
    3043                      .dwattr $C$DW$301, DW_AT_bit_offset(0x0f), DW_AT_bit_size(0x01)
    3044                      .dwattr $C$DW$301, DW_AT_data_member_location[DW_OP_plus_uconst 0x0]
    3045                      .dwattr $C$DW$301, DW_AT_accessibility(DW_ACCESS_public)
    3046              $C$DW$302       .dwtag  DW_TAG_member
    3047                      .dwattr $C$DW$302, DW_AT_type(*$C$DW$T$19)
    3048                      .dwattr $C$DW$302, DW_AT_name("INTx2")
    3049                      .dwattr $C$DW$302, DW_AT_TI_symbol_name("_INTx2")
    3050                      .dwattr $C$DW$302, DW_AT_bit_offset(0x0e), DW_AT_bit_size(0x01)
    3051                      .dwattr $C$DW$302, DW_AT_data_member_location[DW_OP_plus_uconst 0x0]
    3052                      .dwattr $C$DW$302, DW_AT_accessibility(DW_ACCESS_public)
    3053              $C$DW$303       .dwtag  DW_TAG_member
    3054                      .dwattr $C$DW$303, DW_AT_type(*$C$DW$T$19)
    3055                      .dwattr $C$DW$303, DW_AT_name("INTx3")
    3056                      .dwattr $C$DW$303, DW_AT_TI_symbol_name("_INTx3")
    3057                      .dwattr $C$DW$303, DW_AT_bit_offset(0x0d), DW_AT_bit_size(0x01)
    3058                      .dwattr $C$DW$303, DW_AT_data_member_location[DW_OP_plus_uconst 0x0]
    3059                      .dwattr $C$DW$303, DW_AT_accessibility(DW_ACCESS_public)
    3060              $C$DW$304       .dwtag  DW_TAG_member
    3061                      .dwattr $C$DW$304, DW_AT_type(*$C$DW$T$19)
    3062                      .dwattr $C$DW$304, DW_AT_name("INTx4")
    3063                      .dwattr $C$DW$304, DW_AT_TI_symbol_name("_INTx4")
    3064                      .dwattr $C$DW$304, DW_AT_bit_offset(0x0c), DW_AT_bit_size(0x01)
    3065                      .dwattr $C$DW$304, DW_AT_data_member_location[DW_OP_plus_uconst 0x0]
TMS320C2000 Assembler PC v6.4.2 Thu Dec 14 15:26:49 2017

Tools Copyright (c) 1996-2015 Texas Instruments Incorporated
interrupt.asm                                                        PAGE   58

    3066                      .dwattr $C$DW$304, DW_AT_accessibility(DW_ACCESS_public)
    3067              $C$DW$305       .dwtag  DW_TAG_member
    3068                      .dwattr $C$DW$305, DW_AT_type(*$C$DW$T$19)
    3069                      .dwattr $C$DW$305, DW_AT_name("INTx5")
    3070                      .dwattr $C$DW$305, DW_AT_TI_symbol_name("_INTx5")
    3071                      .dwattr $C$DW$305, DW_AT_bit_offset(0x0b), DW_AT_bit_size(0x01)
    3072                      .dwattr $C$DW$305, DW_AT_data_member_location[DW_OP_plus_uconst 0x0]
    3073                      .dwattr $C$DW$305, DW_AT_accessibility(DW_ACCESS_public)
    3074              $C$DW$306       .dwtag  DW_TAG_member
    3075                      .dwattr $C$DW$306, DW_AT_type(*$C$DW$T$19)
    3076                      .dwattr $C$DW$306, DW_AT_name("INTx6")
    3077                      .dwattr $C$DW$306, DW_AT_TI_symbol_name("_INTx6")
    3078                      .dwattr $C$DW$306, DW_AT_bit_offset(0x0a), DW_AT_bit_size(0x01)
    3079                      .dwattr $C$DW$306, DW_AT_data_member_location[DW_OP_plus_uconst 0x0]
    3080                      .dwattr $C$DW$306, DW_AT_accessibility(DW_ACCESS_public)
    3081              $C$DW$307       .dwtag  DW_TAG_member
    3082                      .dwattr $C$DW$307, DW_AT_type(*$C$DW$T$19)
    3083                      .dwattr $C$DW$307, DW_AT_name("INTx7")
    3084                      .dwattr $C$DW$307, DW_AT_TI_symbol_name("_INTx7")
    3085                      .dwattr $C$DW$307, DW_AT_bit_offset(0x09), DW_AT_bit_size(0x01)
    3086                      .dwattr $C$DW$307, DW_AT_data_member_location[DW_OP_plus_uconst 0x0]
    3087                      .dwattr $C$DW$307, DW_AT_accessibility(DW_ACCESS_public)
    3088              $C$DW$308       .dwtag  DW_TAG_member
    3089                      .dwattr $C$DW$308, DW_AT_type(*$C$DW$T$19)
    3090                      .dwattr $C$DW$308, DW_AT_name("INTx8")
    3091                      .dwattr $C$DW$308, DW_AT_TI_symbol_name("_INTx8")
    3092                      .dwattr $C$DW$308, DW_AT_bit_offset(0x08), DW_AT_bit_size(0x01)
    3093                      .dwattr $C$DW$308, DW_AT_data_member_location[DW_OP_plus_uconst 0x0]
    3094                      .dwattr $C$DW$308, DW_AT_accessibility(DW_ACCESS_public)
    3095              $C$DW$309       .dwtag  DW_TAG_member
    3096                      .dwattr $C$DW$309, DW_AT_type(*$C$DW$T$19)
    3097                      .dwattr $C$DW$309, DW_AT_name("INTx9")
    3098                      .dwattr $C$DW$309, DW_AT_TI_symbol_name("_INTx9")
    3099                      .dwattr $C$DW$309, DW_AT_bit_offset(0x07), DW_AT_bit_size(0x01)
    3100                      .dwattr $C$DW$309, DW_AT_data_member_location[DW_OP_plus_uconst 0x0]
    3101                      .dwattr $C$DW$309, DW_AT_accessibility(DW_ACCESS_public)
    3102              $C$DW$310       .dwtag  DW_TAG_member
    3103                      .dwattr $C$DW$310, DW_AT_type(*$C$DW$T$19)
    3104                      .dwattr $C$DW$310, DW_AT_name("INTx10")
    3105                      .dwattr $C$DW$310, DW_AT_TI_symbol_name("_INTx10")
    3106                      .dwattr $C$DW$310, DW_AT_bit_offset(0x06), DW_AT_bit_size(0x01)
    3107                      .dwattr $C$DW$310, DW_AT_data_member_location[DW_OP_plus_uconst 0x0]
    3108                      .dwattr $C$DW$310, DW_AT_accessibility(DW_ACCESS_public)
    3109              $C$DW$311       .dwtag  DW_TAG_member
    3110                      .dwattr $C$DW$311, DW_AT_type(*$C$DW$T$19)
    3111                      .dwattr $C$DW$311, DW_AT_name("INTx11")
    3112                      .dwattr $C$DW$311, DW_AT_TI_symbol_name("_INTx11")
    3113                      .dwattr $C$DW$311, DW_AT_bit_offset(0x05), DW_AT_bit_size(0x01)
    3114                      .dwattr $C$DW$311, DW_AT_data_member_location[DW_OP_plus_uconst 0x0]
    3115                      .dwattr $C$DW$311, DW_AT_accessibility(DW_ACCESS_public)
    3116              $C$DW$312       .dwtag  DW_TAG_member
    3117                      .dwattr $C$DW$312, DW_AT_type(*$C$DW$T$19)
    3118                      .dwattr $C$DW$312, DW_AT_name("INTx12")
    3119                      .dwattr $C$DW$312, DW_AT_TI_symbol_name("_INTx12")
    3120                      .dwattr $C$DW$312, DW_AT_bit_offset(0x04), DW_AT_bit_size(0x01)
TMS320C2000 Assembler PC v6.4.2 Thu Dec 14 15:26:49 2017

Tools Copyright (c) 1996-2015 Texas Instruments Incorporated
