TMS320C2000 Assembler PC v6.4.2 Thu Dec 14 15:26:49 2017

Tools Copyright (c) 1996-2015 Texas Instruments Incorporated
interrupt.asm                                                        PAGE    1

       1              ;***************************************************************
       2              ;* TMS320C2000 C/C++ Codegen                         PC v6.4.2 *
       3              ;* Date/Time created: Thu Dec 14 15:26:48 2017                 *
       4              ;***************************************************************
       5                      .compiler_opts --cla_support=cla0 --float_support=fpu32 --hll_source=on --mem_model:code=flat --mem_m
       6        0002  FP      .set    XAR2
       7              
       8              $C$DW$CU        .dwtag  DW_TAG_compile_unit
       9                      .dwattr $C$DW$CU, DW_AT_name("../TI/Drivers/interrupt.c")
      10                      .dwattr $C$DW$CU, DW_AT_producer("TI TMS320C2000 C/C++ Codegen PC v6.4.2 Copyright (c) 1996-2015 Texa
      11                      .dwattr $C$DW$CU, DW_AT_TI_version(0x01)
      12                      .dwattr $C$DW$CU, DW_AT_comp_dir("U:\02_MSE\MT\07_Software\CCS_workspace\DiffDrive_v0.93\F2837x_FLASH
      13              
      14              $C$DW$1 .dwtag  DW_TAG_subprogram, DW_AT_name("__disable_interrupts")
      15                      .dwattr $C$DW$1, DW_AT_TI_symbol_name("___disable_interrupts")
      16                      .dwattr $C$DW$1, DW_AT_type(*$C$DW$T$11)
      17                      .dwattr $C$DW$1, DW_AT_declaration
      18                      .dwattr $C$DW$1, DW_AT_external
      19              
      20              $C$DW$2 .dwtag  DW_TAG_subprogram, DW_AT_name("__enable_interrupts")
      21                      .dwattr $C$DW$2, DW_AT_TI_symbol_name("___enable_interrupts")
      22                      .dwattr $C$DW$2, DW_AT_type(*$C$DW$T$11)
      23                      .dwattr $C$DW$2, DW_AT_declaration
      24                      .dwattr $C$DW$2, DW_AT_external
      25              
      26              $C$DW$3 .dwtag  DW_TAG_subprogram, DW_AT_name("memcpy")
      27                      .dwattr $C$DW$3, DW_AT_TI_symbol_name("_memcpy")
      28                      .dwattr $C$DW$3, DW_AT_type(*$C$DW$T$3)
      29                      .dwattr $C$DW$3, DW_AT_declaration
      30                      .dwattr $C$DW$3, DW_AT_external
      31              $C$DW$4 .dwtag  DW_TAG_formal_parameter
      32                      .dwattr $C$DW$4, DW_AT_type(*$C$DW$T$3)
      33              $C$DW$5 .dwtag  DW_TAG_formal_parameter
      34                      .dwattr $C$DW$5, DW_AT_type(*$C$DW$T$85)
      35              $C$DW$6 .dwtag  DW_TAG_formal_parameter
      36                      .dwattr $C$DW$6, DW_AT_type(*$C$DW$T$13)
      37                      .dwendtag $C$DW$3
      38              
      39              $C$DW$7 .dwtag  DW_TAG_variable, DW_AT_name("PieCtrlRegs")
      40                      .dwattr $C$DW$7, DW_AT_TI_symbol_name("_PieCtrlRegs")
      41                      .dwattr $C$DW$7, DW_AT_type(*$C$DW$T$81)
      42                      .dwattr $C$DW$7, DW_AT_declaration
      43                      .dwattr $C$DW$7, DW_AT_external
      44              $C$DW$8 .dwtag  DW_TAG_variable, DW_AT_name("PieVectTable")
      45                      .dwattr $C$DW$8, DW_AT_TI_symbol_name("_PieVectTable")
      46                      .dwattr $C$DW$8, DW_AT_type(*$C$DW$T$82)
      47                      .dwattr $C$DW$8, DW_AT_declaration
      48                      .dwattr $C$DW$8, DW_AT_external
      49              ;       C:\ti\ccsv6\tools\compiler\ti-cgt-c2000_6.4.2\bin\ac2000.exe -@C:\\Users\\ficm\\AppData\\Local\\Temp\
      50 00000000               .sect   ".text:retain"
      51                      .retain
      52                      .retainrefs
      53                      .global _IntDefaultHandler
      54              
      55              $C$DW$9 .dwtag  DW_TAG_subprogram, DW_AT_name("IntDefaultHandler")
TMS320C2000 Assembler PC v6.4.2 Thu Dec 14 15:26:49 2017

Tools Copyright (c) 1996-2015 Texas Instruments Incorporated
interrupt.asm                                                        PAGE    2

      56                      .dwattr $C$DW$9, DW_AT_low_pc(_IntDefaultHandler)
      57                      .dwattr $C$DW$9, DW_AT_high_pc(0x00)
      58                      .dwattr $C$DW$9, DW_AT_TI_symbol_name("_IntDefaultHandler")
      59                      .dwattr $C$DW$9, DW_AT_external
      60                      .dwattr $C$DW$9, DW_AT_TI_begin_file("../TI/Drivers/interrupt.c")
      61                      .dwattr $C$DW$9, DW_AT_TI_begin_line(0x29)
      62                      .dwattr $C$DW$9, DW_AT_TI_begin_column(0x12)
      63                      .dwattr $C$DW$9, DW_AT_TI_interrupt
      64                      .dwattr $C$DW$9, DW_AT_TI_max_frame_size(-6)
      65                      .dwpsn  file "../TI/Drivers/interrupt.c",line 42,column 1,is_stmt,address _IntDefaultHandler,isa 0
      66              
      67                      .dwfde $C$DW$CIE, _IntDefaultHandler
      68              
      69              ;***************************************************************
      70              ;* FNAME: _IntDefaultHandler            FR SIZE:   4           *
      71              ;*                                                             *
      72              ;* FUNCTION ENVIRONMENT                                        *
      73              ;*                                                             *
      74              ;* FUNCTION PROPERTIES                                         *
      75              ;*                            0 Parameter,  0 Auto,  4 SOE     *
      76              ;***************************************************************
      77              
      78 00000000       _IntDefaultHandler:
      79                      .dwcfi  cfa_offset, -2
      80                      .dwcfi  save_reg_to_mem, 26, 0
      81 00000000 761B          ASP       ; [CPU_] 
      82 00000001 FFF0          PUSH      RB                    ; [CPU_] 
      83                      .dwcfi  save_reg_to_mem, 73, 2
      84                      .dwcfi  save_reg_to_mem, 74, 3
      85                      .dwcfi  cfa_offset, -4
      86 00000002 E200          MOV32     *SP++,STF             ; [CPU_] 
         00000003 00BD 
      87                      .dwcfi  save_reg_to_mem, 39, 4
      88                      .dwcfi  save_reg_to_mem, 40, 5
      89                      .dwcfi  cfa_offset, -6
      90 00000004 E630          SETFLG    RNDF32=1, RNDF64=1    ; [CPU_] 
         00000005 0600 
      91 00000006 2942          CLRC      PAGE0,OVM             ; [CPU_] 
      92 00000007 5616          CLRC      AMODE                 ; [CPU_] 
      93                      .dwpsn  file "../TI/Drivers/interrupt.c",line 43,column 5,is_stmt,isa 0
      94 00000008 7625   ESTOP0
      95                      .dwpsn  file "../TI/Drivers/interrupt.c",line 44,column 5,is_stmt,isa 0
      96                      .dwpsn  file "../TI/Drivers/interrupt.c",line 45,column 1,is_stmt,isa 0
      97 00000009 E280          MOV32     STF,*--SP             ; [CPU_] 
         0000000a 00BE 
      98                      .dwcfi  cfa_offset, -4
      99                      .dwcfi  restore_reg, 39
     100                      .dwcfi  restore_reg, 40
     101 0000000b FFF1          POP       RB                    ; [CPU_] 
     102                      .dwcfi  cfa_offset, -2
     103                      .dwcfi  restore_reg, 73
     104                      .dwcfi  restore_reg, 74
     105 0000000c 7617          NASP      ; [CPU_] 
     106              $C$DW$10        .dwtag  DW_TAG_TI_branch
     107                      .dwattr $C$DW$10, DW_AT_low_pc(0x00)
TMS320C2000 Assembler PC v6.4.2 Thu Dec 14 15:26:49 2017

Tools Copyright (c) 1996-2015 Texas Instruments Incorporated
interrupt.asm                                                        PAGE    3

     108                      .dwattr $C$DW$10, DW_AT_TI_return
     109 0000000d 7602          IRET      ; [CPU_] 
     110                      ; return occurs ; [] 
     111                      .dwattr $C$DW$9, DW_AT_TI_end_file("../TI/Drivers/interrupt.c")
     112                      .dwattr $C$DW$9, DW_AT_TI_end_line(0x2d)
     113                      .dwattr $C$DW$9, DW_AT_TI_end_column(0x01)
     114                      .dwendentry
     115                      .dwendtag $C$DW$9
     116              
     117 00000000               .sect   ".text"
     118                      .clink
     119                      .global _IntMasterEnable
     120              
     121              $C$DW$11        .dwtag  DW_TAG_subprogram, DW_AT_name("IntMasterEnable")
     122                      .dwattr $C$DW$11, DW_AT_low_pc(_IntMasterEnable)
     123                      .dwattr $C$DW$11, DW_AT_high_pc(0x00)
     124                      .dwattr $C$DW$11, DW_AT_TI_symbol_name("_IntMasterEnable")
     125                      .dwattr $C$DW$11, DW_AT_external
     126                      .dwattr $C$DW$11, DW_AT_type(*$C$DW$T$100)
     127                      .dwattr $C$DW$11, DW_AT_TI_begin_file("../TI/Drivers/interrupt.c")
     128                      .dwattr $C$DW$11, DW_AT_TI_begin_line(0x42)
     129                      .dwattr $C$DW$11, DW_AT_TI_begin_column(0x01)
     130                      .dwattr $C$DW$11, DW_AT_TI_max_frame_size(-2)
     131                      .dwpsn  file "../TI/Drivers/interrupt.c",line 67,column 1,is_stmt,address _IntMasterEnable,isa 0
     132              
     133                      .dwfde $C$DW$CIE, _IntMasterEnable
     134              
     135              ;***************************************************************
     136              ;* FNAME: _IntMasterEnable              FR SIZE:   0           *
     137              ;*                                                             *
     138              ;* FUNCTION ENVIRONMENT                                        *
     139              ;*                                                             *
     140              ;* FUNCTION PROPERTIES                                         *
     141              ;*                            0 Parameter,  0 Auto,  0 SOE     *
     142              ;***************************************************************
     143              
     144 00000000       _IntMasterEnable:
     145                      .dwcfi  cfa_offset, -2
     146                      .dwcfi  save_reg_to_mem, 26, 0
     147                      .dwpsn  file "../TI/Drivers/interrupt.c",line 71,column 5,is_stmt,isa 0
     148 00000000 9A00          MOVB      AL,#0                 ; [CPU_] |71| 
     149 00000001 7608          PUSH      ST1                   ; [CPU_] |71| 
     150 00000002 2930          CLRC      INTM, DBGM            ; [CPU_] |71| 
     151 00000003 93BE          MOV       AH,*--SP              ; [CPU_] |71| 
     152 00000004 40A8          TBIT      AH,#0                 ; [CPU_] |71| 
     153 00000005 EF02          BF        $C$L1,NTC             ; [CPU_] |71| 
     154                      ; branchcc occurs ; [] |71| 
     155 00000006 9A01          MOVB      AL,#1                 ; [CPU_] |71| 
     156 00000007       $C$L1:    
     157                      .dwpsn  file "../TI/Drivers/interrupt.c",line 72,column 1,is_stmt,isa 0
     158              $C$DW$12        .dwtag  DW_TAG_TI_branch
     159                      .dwattr $C$DW$12, DW_AT_low_pc(0x00)
     160                      .dwattr $C$DW$12, DW_AT_TI_return
     161 00000007 0006          LRETR     ; [CPU_] 
     162                      ; return occurs ; [] 
TMS320C2000 Assembler PC v6.4.2 Thu Dec 14 15:26:49 2017

Tools Copyright (c) 1996-2015 Texas Instruments Incorporated
interrupt.asm                                                        PAGE    4

     163                      .dwattr $C$DW$11, DW_AT_TI_end_file("../TI/Drivers/interrupt.c")
     164                      .dwattr $C$DW$11, DW_AT_TI_end_line(0x48)
     165                      .dwattr $C$DW$11, DW_AT_TI_end_column(0x01)
     166                      .dwendentry
     167                      .dwendtag $C$DW$11
     168              
     169 00000008               .sect   ".text"
     170                      .clink
     171                      .global _IntMasterDisable
     172              
     173              $C$DW$13        .dwtag  DW_TAG_subprogram, DW_AT_name("IntMasterDisable")
     174                      .dwattr $C$DW$13, DW_AT_low_pc(_IntMasterDisable)
     175                      .dwattr $C$DW$13, DW_AT_high_pc(0x00)
     176                      .dwattr $C$DW$13, DW_AT_TI_symbol_name("_IntMasterDisable")
     177                      .dwattr $C$DW$13, DW_AT_external
     178                      .dwattr $C$DW$13, DW_AT_type(*$C$DW$T$100)
     179                      .dwattr $C$DW$13, DW_AT_TI_begin_file("../TI/Drivers/interrupt.c")
     180                      .dwattr $C$DW$13, DW_AT_TI_begin_line(0x5d)
     181                      .dwattr $C$DW$13, DW_AT_TI_begin_column(0x01)
     182                      .dwattr $C$DW$13, DW_AT_TI_max_frame_size(-2)
     183                      .dwpsn  file "../TI/Drivers/interrupt.c",line 94,column 1,is_stmt,address _IntMasterDisable,isa 0
     184              
     185                      .dwfde $C$DW$CIE, _IntMasterDisable
     186              
     187              ;***************************************************************
     188              ;* FNAME: _IntMasterDisable             FR SIZE:   0           *
     189              ;*                                                             *
     190              ;* FUNCTION ENVIRONMENT                                        *
     191              ;*                                                             *
     192              ;* FUNCTION PROPERTIES                                         *
     193              ;*                            0 Parameter,  0 Auto,  0 SOE     *
     194              ;***************************************************************
     195              
     196 00000008       _IntMasterDisable:
     197                      .dwcfi  cfa_offset, -2
     198                      .dwcfi  save_reg_to_mem, 26, 0
     199                      .dwpsn  file "../TI/Drivers/interrupt.c",line 98,column 5,is_stmt,isa 0
     200 00000008 9A00          MOVB      AL,#0                 ; [CPU_] |98| 
     201 00000009 7608          PUSH      ST1                   ; [CPU_] |98| 
     202 0000000a 3B30          SETC      INTM, DBGM            ; [CPU_] |98| 
     203 0000000b 93BE          MOV       AH,*--SP              ; [CPU_] |98| 
     204 0000000c 40A8          TBIT      AH,#0                 ; [CPU_] |98| 
     205 0000000d EF02          BF        $C$L2,NTC             ; [CPU_] |98| 
     206                      ; branchcc occurs ; [] |98| 
     207 0000000e 9A01          MOVB      AL,#1                 ; [CPU_] |98| 
     208 0000000f       $C$L2:    
     209                      .dwpsn  file "../TI/Drivers/interrupt.c",line 99,column 1,is_stmt,isa 0
     210              $C$DW$14        .dwtag  DW_TAG_TI_branch
     211                      .dwattr $C$DW$14, DW_AT_low_pc(0x00)
     212                      .dwattr $C$DW$14, DW_AT_TI_return
     213 0000000f 0006          LRETR     ; [CPU_] 
     214                      ; return occurs ; [] 
     215                      .dwattr $C$DW$13, DW_AT_TI_end_file("../TI/Drivers/interrupt.c")
     216                      .dwattr $C$DW$13, DW_AT_TI_end_line(0x63)
     217                      .dwattr $C$DW$13, DW_AT_TI_end_column(0x01)
TMS320C2000 Assembler PC v6.4.2 Thu Dec 14 15:26:49 2017

Tools Copyright (c) 1996-2015 Texas Instruments Incorporated
interrupt.asm                                                        PAGE    5

     218                      .dwendentry
     219                      .dwendtag $C$DW$13
     220              
     221 00000010               .sect   ".text"
     222                      .clink
     223                      .global _IntRegister
     224              
     225              $C$DW$15        .dwtag  DW_TAG_subprogram, DW_AT_name("IntRegister")
     226                      .dwattr $C$DW$15, DW_AT_low_pc(_IntRegister)
     227                      .dwattr $C$DW$15, DW_AT_high_pc(0x00)
     228                      .dwattr $C$DW$15, DW_AT_TI_symbol_name("_IntRegister")
     229                      .dwattr $C$DW$15, DW_AT_external
     230                      .dwattr $C$DW$15, DW_AT_TI_begin_file("../TI/Drivers/interrupt.c")
     231                      .dwattr $C$DW$15, DW_AT_TI_begin_line(0x79)
     232                      .dwattr $C$DW$15, DW_AT_TI_begin_column(0x01)
     233                      .dwattr $C$DW$15, DW_AT_TI_max_frame_size(-6)
     234                      .dwpsn  file "../TI/Drivers/interrupt.c",line 122,column 1,is_stmt,address _IntRegister,isa 0
     235              
     236                      .dwfde $C$DW$CIE, _IntRegister
     237              $C$DW$16        .dwtag  DW_TAG_formal_parameter, DW_AT_name("ui32Interrupt")
     238                      .dwattr $C$DW$16, DW_AT_TI_symbol_name("_ui32Interrupt")
     239                      .dwattr $C$DW$16, DW_AT_type(*$C$DW$T$88)
     240                      .dwattr $C$DW$16, DW_AT_location[DW_OP_reg0]
     241              $C$DW$17        .dwtag  DW_TAG_formal_parameter, DW_AT_name("pfnHandler")
     242                      .dwattr $C$DW$17, DW_AT_TI_symbol_name("_pfnHandler")
     243                      .dwattr $C$DW$17, DW_AT_type(*$C$DW$T$74)
     244                      .dwattr $C$DW$17, DW_AT_location[DW_OP_reg12]
     245              
     246              ;***************************************************************
     247              ;* FNAME: _IntRegister                  FR SIZE:   4           *
     248              ;*                                                             *
     249              ;* FUNCTION ENVIRONMENT                                        *
     250              ;*                                                             *
     251              ;* FUNCTION PROPERTIES                                         *
     252              ;*                            0 Parameter,  4 Auto,  0 SOE     *
     253              ;***************************************************************
     254              
     255 00000010       _IntRegister:
     256                      .dwcfi  cfa_offset, -2
     257                      .dwcfi  save_reg_to_mem, 26, 0
     258 00000010 FE04          ADDB      SP,#4                 ; [CPU_U] 
     259                      .dwcfi  cfa_offset, -6
     260              $C$DW$18        .dwtag  DW_TAG_variable, DW_AT_name("ui32Interrupt")
     261                      .dwattr $C$DW$18, DW_AT_TI_symbol_name("_ui32Interrupt")
     262                      .dwattr $C$DW$18, DW_AT_type(*$C$DW$T$88)
     263                      .dwattr $C$DW$18, DW_AT_location[DW_OP_breg20 -2]
     264              $C$DW$19        .dwtag  DW_TAG_variable, DW_AT_name("pfnHandler")
     265                      .dwattr $C$DW$19, DW_AT_TI_symbol_name("_pfnHandler")
     266                      .dwattr $C$DW$19, DW_AT_type(*$C$DW$T$74)
     267                      .dwattr $C$DW$19, DW_AT_location[DW_OP_breg20 -4]
     268 00000011 A844          MOVL      *-SP[4],XAR4          ; [CPU_] |122| 
     269 00000012 1E42          MOVL      *-SP[2],ACC           ; [CPU_] |122| 
     270                      .dwpsn  file "../TI/Drivers/interrupt.c",line 123,column 5,is_stmt,isa 0
     271 00000013 7622   EALLOW
     272                      .dwpsn  file "../TI/Drivers/interrupt.c",line 125,column 5,is_stmt,isa 0
TMS320C2000 Assembler PC v6.4.2 Thu Dec 14 15:26:49 2017

Tools Copyright (c) 1996-2015 Texas Instruments Incorporated
interrupt.asm                                                        PAGE    6

     273 00000014 5DAD          MOVZ      AR5,SP                ; [CPU_] |125| 
     274 00000015 0EA8          MOVU      ACC,AH                ; [CPU_] |125| 
     275 00000016 DD84          SUBB      XAR5,#4               ; [CPU_U] |125| 
     276 00000017 80A5          MOVZ      AR7,AR5               ; [CPU_] |125| 
     277 00000018 8F00!         MOVL      XAR4,#_PieVectTable   ; [CPU_U] |125| 
         00000019 0000 
     278 0000001a FF30          LSL       ACC,1                 ; [CPU_] |125| 
     279 0000001b 5601          ADDL      XAR4,ACC              ; [CPU_] |125| 
         0000001c 00A4 
     280 0000001d F601          RPT       #1
     281 0000001e 2484  ||     PREAD     *XAR4++,*XAR7         ; [CPU_] |125| 
     282                      .dwpsn  file "../TI/Drivers/interrupt.c",line 126,column 5,is_stmt,isa 0
     283 0000001f 761A   EDIS
     284                      .dwpsn  file "../TI/Drivers/interrupt.c",line 127,column 1,is_stmt,isa 0
     285 00000020 FF69          SPM       #0                    ; [CPU_] 
     286 00000021 FE84          SUBB      SP,#4                 ; [CPU_U] 
     287                      .dwcfi  cfa_offset, -2
     288              $C$DW$20        .dwtag  DW_TAG_TI_branch
     289                      .dwattr $C$DW$20, DW_AT_low_pc(0x00)
     290                      .dwattr $C$DW$20, DW_AT_TI_return
     291 00000022 0006          LRETR     ; [CPU_] 
     292                      ; return occurs ; [] 
     293                      .dwattr $C$DW$15, DW_AT_TI_end_file("../TI/Drivers/interrupt.c")
     294                      .dwattr $C$DW$15, DW_AT_TI_end_line(0x7f)
     295                      .dwattr $C$DW$15, DW_AT_TI_end_column(0x01)
     296                      .dwendentry
     297                      .dwendtag $C$DW$15
     298              
     299 00000023               .sect   ".text"
     300                      .clink
     301                      .global _IntUnregister
     302              
     303              $C$DW$21        .dwtag  DW_TAG_subprogram, DW_AT_name("IntUnregister")
     304                      .dwattr $C$DW$21, DW_AT_low_pc(_IntUnregister)
     305                      .dwattr $C$DW$21, DW_AT_high_pc(0x00)
     306                      .dwattr $C$DW$21, DW_AT_TI_symbol_name("_IntUnregister")
     307                      .dwattr $C$DW$21, DW_AT_external
     308                      .dwattr $C$DW$21, DW_AT_TI_begin_file("../TI/Drivers/interrupt.c")
     309                      .dwattr $C$DW$21, DW_AT_TI_begin_line(0x92)
     310                      .dwattr $C$DW$21, DW_AT_TI_begin_column(0x01)
     311                      .dwattr $C$DW$21, DW_AT_TI_max_frame_size(-6)
     312                      .dwpsn  file "../TI/Drivers/interrupt.c",line 147,column 1,is_stmt,address _IntUnregister,isa 0
     313              
     314                      .dwfde $C$DW$CIE, _IntUnregister
     315              $C$DW$22        .dwtag  DW_TAG_formal_parameter, DW_AT_name("ui32Interrupt")
     316                      .dwattr $C$DW$22, DW_AT_TI_symbol_name("_ui32Interrupt")
     317                      .dwattr $C$DW$22, DW_AT_type(*$C$DW$T$88)
     318                      .dwattr $C$DW$22, DW_AT_location[DW_OP_reg0]
     319              
     320              ;***************************************************************
     321              ;* FNAME: _IntUnregister                FR SIZE:   4           *
     322              ;*                                                             *
     323              ;* FUNCTION ENVIRONMENT                                        *
     324              ;*                                                             *
     325              ;* FUNCTION PROPERTIES                                         *
TMS320C2000 Assembler PC v6.4.2 Thu Dec 14 15:26:49 2017

Tools Copyright (c) 1996-2015 Texas Instruments Incorporated
interrupt.asm                                                        PAGE    7

     326              ;*                            0 Parameter,  4 Auto,  0 SOE     *
     327              ;***************************************************************
     328              
     329 00000023       _IntUnregister:
     330                      .dwcfi  cfa_offset, -2
     331                      .dwcfi  save_reg_to_mem, 26, 0
     332 00000023 FE04          ADDB      SP,#4                 ; [CPU_U] 
     333                      .dwcfi  cfa_offset, -6
     334              $C$DW$23        .dwtag  DW_TAG_variable, DW_AT_name("ui32Interrupt")
     335                      .dwattr $C$DW$23, DW_AT_TI_symbol_name("_ui32Interrupt")
     336                      .dwattr $C$DW$23, DW_AT_type(*$C$DW$T$88)
     337                      .dwattr $C$DW$23, DW_AT_location[DW_OP_breg20 -2]
     338              $C$DW$24        .dwtag  DW_TAG_variable, DW_AT_name("temp")
     339                      .dwattr $C$DW$24, DW_AT_TI_symbol_name("_temp")
     340                      .dwattr $C$DW$24, DW_AT_type(*$C$DW$T$88)
     341                      .dwattr $C$DW$24, DW_AT_location[DW_OP_breg20 -4]
     342 00000024 1E42          MOVL      *-SP[2],ACC           ; [CPU_] |147| 
     343                      .dwpsn  file "../TI/Drivers/interrupt.c",line 150,column 5,is_stmt,isa 0
     344 00000025 8F00+         MOVL      XAR4,#_IntDefaultHandler ; [CPU_U] |150| 
         00000026 0000 
     345 00000027 A844          MOVL      *-SP[4],XAR4          ; [CPU_] |150| 
     346                      .dwpsn  file "../TI/Drivers/interrupt.c",line 152,column 5,is_stmt,isa 0
     347 00000028 7622   EALLOW
     348                      .dwpsn  file "../TI/Drivers/interrupt.c",line 154,column 5,is_stmt,isa 0
     349 00000029 5DAD          MOVZ      AR5,SP                ; [CPU_] |154| 
     350 0000002a 0EA8          MOVU      ACC,AH                ; [CPU_] |154| 
     351 0000002b DD84          SUBB      XAR5,#4               ; [CPU_U] |154| 
     352 0000002c 80A5          MOVZ      AR7,AR5               ; [CPU_] |154| 
     353 0000002d 8F00!         MOVL      XAR4,#_PieVectTable   ; [CPU_U] |154| 
         0000002e 0000 
     354 0000002f FF30          LSL       ACC,1                 ; [CPU_] |154| 
     355 00000030 5601          ADDL      XAR4,ACC              ; [CPU_] |154| 
         00000031 00A4 
     356 00000032 F601          RPT       #1
     357 00000033 2484  ||     PREAD     *XAR4++,*XAR7         ; [CPU_] |154| 
     358                      .dwpsn  file "../TI/Drivers/interrupt.c",line 155,column 5,is_stmt,isa 0
     359 00000034 761A   EDIS
     360                      .dwpsn  file "../TI/Drivers/interrupt.c",line 156,column 1,is_stmt,isa 0
     361 00000035 FF69          SPM       #0                    ; [CPU_] 
     362 00000036 FE84          SUBB      SP,#4                 ; [CPU_U] 
     363                      .dwcfi  cfa_offset, -2
     364              $C$DW$25        .dwtag  DW_TAG_TI_branch
     365                      .dwattr $C$DW$25, DW_AT_low_pc(0x00)
     366                      .dwattr $C$DW$25, DW_AT_TI_return
     367 00000037 0006          LRETR     ; [CPU_] 
     368                      ; return occurs ; [] 
     369                      .dwattr $C$DW$21, DW_AT_TI_end_file("../TI/Drivers/interrupt.c")
     370                      .dwattr $C$DW$21, DW_AT_TI_end_line(0x9c)
     371                      .dwattr $C$DW$21, DW_AT_TI_end_column(0x01)
     372                      .dwendentry
     373                      .dwendtag $C$DW$21
     374              
     375 00000038               .sect   ".text"
     376                      .clink
     377                      .global _IntEnable
TMS320C2000 Assembler PC v6.4.2 Thu Dec 14 15:26:49 2017

Tools Copyright (c) 1996-2015 Texas Instruments Incorporated
interrupt.asm                                                        PAGE    8

     378              
     379              $C$DW$26        .dwtag  DW_TAG_subprogram, DW_AT_name("IntEnable")
     380                      .dwattr $C$DW$26, DW_AT_low_pc(_IntEnable)
     381                      .dwattr $C$DW$26, DW_AT_high_pc(0x00)
     382                      .dwattr $C$DW$26, DW_AT_TI_symbol_name("_IntEnable")
     383                      .dwattr $C$DW$26, DW_AT_external
     384                      .dwattr $C$DW$26, DW_AT_TI_begin_file("../TI/Drivers/interrupt.c")
     385                      .dwattr $C$DW$26, DW_AT_TI_begin_line(0xac)
     386                      .dwattr $C$DW$26, DW_AT_TI_begin_column(0x01)
     387                      .dwattr $C$DW$26, DW_AT_TI_max_frame_size(-6)
     388                      .dwpsn  file "../TI/Drivers/interrupt.c",line 173,column 1,is_stmt,address _IntEnable,isa 0
     389              
     390                      .dwfde $C$DW$CIE, _IntEnable
     391              $C$DW$27        .dwtag  DW_TAG_formal_parameter, DW_AT_name("ui32Interrupt")
     392                      .dwattr $C$DW$27, DW_AT_TI_symbol_name("_ui32Interrupt")
     393                      .dwattr $C$DW$27, DW_AT_type(*$C$DW$T$88)
     394                      .dwattr $C$DW$27, DW_AT_location[DW_OP_reg0]
     395              
     396              ;***************************************************************
     397              ;* FNAME: _IntEnable                    FR SIZE:   4           *
     398              ;*                                                             *
     399              ;* FUNCTION ENVIRONMENT                                        *
     400              ;*                                                             *
     401              ;* FUNCTION PROPERTIES                                         *
     402              ;*                            0 Parameter,  3 Auto,  0 SOE     *
     403              ;***************************************************************
     404              
     405 00000038       _IntEnable:
     406                      .dwcfi  cfa_offset, -2
     407                      .dwcfi  save_reg_to_mem, 26, 0
     408 00000038 FE04          ADDB      SP,#4                 ; [CPU_U] 
     409                      .dwcfi  cfa_offset, -6
     410              $C$DW$28        .dwtag  DW_TAG_variable, DW_AT_name("ui32Interrupt")
     411                      .dwattr $C$DW$28, DW_AT_TI_symbol_name("_ui32Interrupt")
     412                      .dwattr $C$DW$28, DW_AT_type(*$C$DW$T$88)
     413                      .dwattr $C$DW$28, DW_AT_location[DW_OP_breg20 -2]
     414              $C$DW$29        .dwtag  DW_TAG_variable, DW_AT_name("ui16IntsEnabled")
     415                      .dwattr $C$DW$29, DW_AT_TI_symbol_name("_ui16IntsEnabled")
     416                      .dwattr $C$DW$29, DW_AT_type(*$C$DW$T$91)
     417                      .dwattr $C$DW$29, DW_AT_location[DW_OP_breg20 -3]
     418 00000039 1E42          MOVL      *-SP[2],ACC           ; [CPU_] |173| 
     419                      .dwpsn  file "../TI/Drivers/interrupt.c",line 176,column 5,is_stmt,isa 0
     420 0000003a 0EA8          MOVU      ACC,AH                ; [CPU_] |176| 
     421 0000003b 1E42          MOVL      *-SP[2],ACC           ; [CPU_] |176| 
     422                      .dwpsn  file "../TI/Drivers/interrupt.c",line 177,column 5,is_stmt,isa 0
     423 0000003c 7622   EALLOW
     424                      .dwpsn  file "../TI/Drivers/interrupt.c",line 179,column 5,is_stmt,isa 0
     425 0000003d 761F!         MOVW      DP,#_PieCtrlRegs      ; [CPU_U] 
         0000003e 0000 
     426 0000003f 1A00!         OR        @_PieCtrlRegs,#0x0001 ; [CPU_] |179| 
         00000040 0001 
     427                      .dwpsn  file "../TI/Drivers/interrupt.c",line 181,column 5,is_stmt,isa 0
     428 00000041 FF69          SPM       #0                    ; [CPU_] 
     429              $C$DW$30        .dwtag  DW_TAG_TI_branch
     430                      .dwattr $C$DW$30, DW_AT_low_pc(0x00)
TMS320C2000 Assembler PC v6.4.2 Thu Dec 14 15:26:49 2017

Tools Copyright (c) 1996-2015 Texas Instruments Incorporated
interrupt.asm                                                        PAGE    9

     431                      .dwattr $C$DW$30, DW_AT_name("_IntMasterDisable")
     432                      .dwattr $C$DW$30, DW_AT_TI_call
     433 00000042 7640'         LCR       #_IntMasterDisable    ; [CPU_] |181| 
         00000043 0008 
     434                      ; call occurs [#_IntMasterDisable] ; [] |181| 
     435 00000044 9643          MOV       *-SP[3],AL            ; [CPU_] |181| 
     436                      .dwpsn  file "../TI/Drivers/interrupt.c",line 183,column 5,is_stmt,isa 0
     437 00000045 0220          MOVB      ACC,#32               ; [CPU_] |183| 
     438 00000046 0F42          CMPL      ACC,*-SP[2]           ; [CPU_] |183| 
     439 00000047 56C6          BF        $C$L3,HI              ; [CPU_] |183| 
         00000048 0038 
     440                      ; branchcc occurs ; [] |183| 
     441 00000049 027F          MOVB      ACC,#127              ; [CPU_] |183| 
     442 0000004a 0F42          CMPL      ACC,*-SP[2]           ; [CPU_] |183| 
     443 0000004b 56C8          BF        $C$L3,LO              ; [CPU_] |183| 
         0000004c 0034 
     444                      ; branchcc occurs ; [] |183| 
     445                      .dwpsn  file "../TI/Drivers/interrupt.c",line 186,column 9,is_stmt,isa 0
     446 0000004d 0642          MOVL      ACC,*-SP[2]           ; [CPU_] |186| 
     447 0000004e 2901          CLRC      SXM                   ; [CPU_] 
     448 0000004f 8F00!         MOVL      XAR4,#_PieCtrlRegs+2  ; [CPU_U] |186| 
         00000050 0002 
     449 00000051 1920          SUBB      ACC,#32               ; [CPU_] |186| 
     450 00000052 FF42          SFR       ACC,3                 ; [CPU_] |186| 
     451 00000053 FF30          LSL       ACC,1                 ; [CPU_] |186| 
     452 00000054 5601          ADDL      XAR4,ACC              ; [CPU_] |186| 
         00000055 00A4 
     453 00000056 9242          MOV       AL,*-SP[2]            ; [CPU_] |186| 
     454 00000057 9B01          MOVB      AH,#1                 ; [CPU_] |186| 
     455 00000058 9CE0          ADDB      AL,#-32               ; [CPU_] |186| 
     456 00000059 9007          ANDB      AL,#0x07              ; [CPU_] |186| 
     457 0000005a 2DA9          MOV       T,AL                  ; [CPU_] |186| 
     458 0000005b FF67          LSL       AH,T                  ; [CPU_] |186| 
     459 0000005c 99C4          OR        *+XAR4[0],AH          ; [CPU_] |186| 
     460                      .dwpsn  file "../TI/Drivers/interrupt.c",line 189,column 9,is_stmt,isa 0
     461 0000005d 7700   nop
     462                      .dwpsn  file "../TI/Drivers/interrupt.c",line 190,column 9,is_stmt,isa 0
     463 0000005e 7700   nop
     464                      .dwpsn  file "../TI/Drivers/interrupt.c",line 191,column 9,is_stmt,isa 0
     465 0000005f 7700   nop
     466                      .dwpsn  file "../TI/Drivers/interrupt.c",line 192,column 9,is_stmt,isa 0
     467 00000060 7700   nop
     468                      .dwpsn  file "../TI/Drivers/interrupt.c",line 193,column 9,is_stmt,isa 0
     469 00000061 7700   nop
     470                      .dwpsn  file "../TI/Drivers/interrupt.c",line 196,column 9,is_stmt,isa 0
     471 00000062 FF69          SPM       #0                    ; [CPU_] 
     472 00000063 0642          MOVL      ACC,*-SP[2]           ; [CPU_] |196| 
     473 00000064 1920          SUBB      ACC,#32               ; [CPU_] |196| 
     474 00000065 FF42          SFR       ACC,3                 ; [CPU_] |196| 
     475 00000066 2DA9          MOV       T,AL                  ; [CPU_] |196| 
     476 00000067 9A01          MOVB      AL,#1                 ; [CPU_] |196| 
     477 00000068 FF66          LSL       AL,T                  ; [CPU_] |196| 
     478              $C$DW$31        .dwtag  DW_TAG_TI_branch
     479                      .dwattr $C$DW$31, DW_AT_low_pc(0x00)
     480                      .dwattr $C$DW$31, DW_AT_name("_IntIFRClear")
TMS320C2000 Assembler PC v6.4.2 Thu Dec 14 15:26:49 2017

Tools Copyright (c) 1996-2015 Texas Instruments Incorporated
interrupt.asm                                                        PAGE   10

     481                      .dwattr $C$DW$31, DW_AT_TI_call
     482 00000069 7640'         LCR       #_IntIFRClear         ; [CPU_] |196| 
         0000006a 0155 
     483                      ; call occurs [#_IntIFRClear] ; [] |196| 
     484                      .dwpsn  file "../TI/Drivers/interrupt.c",line 199,column 9,is_stmt,isa 0
     485 0000006b 2901          CLRC      SXM                   ; [CPU_] 
     486 0000006c 0642          MOVL      ACC,*-SP[2]           ; [CPU_] |199| 
     487 0000006d 761F!         MOVW      DP,#_PieCtrlRegs+1    ; [CPU_U] 
         0000006e 0000 
     488 0000006f 1920          SUBB      ACC,#32               ; [CPU_] |199| 
     489 00000070 FF42          SFR       ACC,3                 ; [CPU_] |199| 
     490 00000071 2DA9          MOV       T,AL                  ; [CPU_] |199| 
     491 00000072 9A01          MOVB      AL,#1                 ; [CPU_] |199| 
     492 00000073 FF66          LSL       AL,T                  ; [CPU_] |199| 
     493 00000074 9601!         MOV       @_PieCtrlRegs+1,AL    ; [CPU_] |199| 
     494                      .dwpsn  file "../TI/Drivers/interrupt.c",line 202,column 9,is_stmt,isa 0
     495 00000075 0642          MOVL      ACC,*-SP[2]           ; [CPU_] |202| 
     496 00000076 1920          SUBB      ACC,#32               ; [CPU_] |202| 
     497 00000077 FF42          SFR       ACC,3                 ; [CPU_] |202| 
     498 00000078 2DA9          MOV       T,AL                  ; [CPU_] |202| 
     499 00000079 9A01          MOVB      AL,#1                 ; [CPU_] |202| 
     500 0000007a FF66          LSL       AL,T                  ; [CPU_] |202| 
     501 0000007b 20A8          MOV       AH,IER                ; [CPU_] |202| 
     502 0000007c CAA8          OR        AL,AH                 ; [CPU_] |202| 
     503 0000007d 23A9          MOV       IER,AL                ; [CPU_] |202| 
     504                      .dwpsn  file "../TI/Drivers/interrupt.c",line 203,column 5,is_stmt,isa 0
     505 0000007e 6F49          B         $C$L5,UNC             ; [CPU_] |203| 
     506                      ; branch occurs ; [] |203| 
     507 0000007f       $C$L3:    
     508                      .dwpsn  file "../TI/Drivers/interrupt.c",line 204,column 10,is_stmt,isa 0
     509 0000007f 0280          MOVB      ACC,#128              ; [CPU_] |204| 
     510 00000080 0F42          CMPL      ACC,*-SP[2]           ; [CPU_] |204| 
     511 00000081 56C6          BF        $C$L4,HI              ; [CPU_] |204| 
         00000082 0036 
     512                      ; branchcc occurs ; [] |204| 
     513                      .dwpsn  file "../TI/Drivers/interrupt.c",line 207,column 9,is_stmt,isa 0
     514 00000083 0642          MOVL      ACC,*-SP[2]           ; [CPU_] |207| 
     515 00000084 2901          CLRC      SXM                   ; [CPU_] 
     516 00000085 8F00!         MOVL      XAR4,#_PieCtrlRegs+2  ; [CPU_U] |207| 
         00000086 0002 
     517 00000087 1980          SUBB      ACC,#128              ; [CPU_] |207| 
     518 00000088 FF42          SFR       ACC,3                 ; [CPU_] |207| 
     519 00000089 FF30          LSL       ACC,1                 ; [CPU_] |207| 
     520 0000008a 5601          ADDL      XAR4,ACC              ; [CPU_] |207| 
         0000008b 00A4 
     521 0000008c 9242          MOV       AL,*-SP[2]            ; [CPU_] |207| 
     522 0000008d 9B01          MOVB      AH,#1                 ; [CPU_] |207| 
     523 0000008e 08A9          SUB       AL,#128               ; [CPU_] |207| 
         0000008f FF80 
     524 00000090 9007          ANDB      AL,#0x07              ; [CPU_] |207| 
     525 00000091 9C08          ADDB      AL,#8                 ; [CPU_] |207| 
     526 00000092 2DA9          MOV       T,AL                  ; [CPU_] |207| 
     527 00000093 FF67          LSL       AH,T                  ; [CPU_] |207| 
     528 00000094 99C4          OR        *+XAR4[0],AH          ; [CPU_] |207| 
     529                      .dwpsn  file "../TI/Drivers/interrupt.c",line 210,column 9,is_stmt,isa 0
TMS320C2000 Assembler PC v6.4.2 Thu Dec 14 15:26:49 2017

Tools Copyright (c) 1996-2015 Texas Instruments Incorporated
interrupt.asm                                                        PAGE   11

     530 00000095 7700   nop
     531                      .dwpsn  file "../TI/Drivers/interrupt.c",line 211,column 9,is_stmt,isa 0
     532 00000096 7700   nop
     533                      .dwpsn  file "../TI/Drivers/interrupt.c",line 212,column 9,is_stmt,isa 0
     534 00000097 7700   nop
     535                      .dwpsn  file "../TI/Drivers/interrupt.c",line 213,column 9,is_stmt,isa 0
     536 00000098 7700   nop
     537                      .dwpsn  file "../TI/Drivers/interrupt.c",line 214,column 9,is_stmt,isa 0
     538 00000099 7700   nop
     539                      .dwpsn  file "../TI/Drivers/interrupt.c",line 217,column 9,is_stmt,isa 0
     540 0000009a FF69          SPM       #0                    ; [CPU_] 
     541 0000009b 0642          MOVL      ACC,*-SP[2]           ; [CPU_] |217| 
     542 0000009c 1980          SUBB      ACC,#128              ; [CPU_] |217| 
     543 0000009d FF42          SFR       ACC,3                 ; [CPU_] |217| 
     544 0000009e 2DA9          MOV       T,AL                  ; [CPU_] |217| 
     545 0000009f 9A01          MOVB      AL,#1                 ; [CPU_] |217| 
     546 000000a0 FF66          LSL       AL,T                  ; [CPU_] |217| 
     547              $C$DW$32        .dwtag  DW_TAG_TI_branch
     548                      .dwattr $C$DW$32, DW_AT_low_pc(0x00)
     549                      .dwattr $C$DW$32, DW_AT_name("_IntIFRClear")
     550                      .dwattr $C$DW$32, DW_AT_TI_call
     551 000000a1 7640'         LCR       #_IntIFRClear         ; [CPU_] |217| 
         000000a2 0155 
     552                      ; call occurs [#_IntIFRClear] ; [] |217| 
     553                      .dwpsn  file "../TI/Drivers/interrupt.c",line 220,column 9,is_stmt,isa 0
     554 000000a3 2901          CLRC      SXM                   ; [CPU_] 
     555 000000a4 0642          MOVL      ACC,*-SP[2]           ; [CPU_] |220| 
     556 000000a5 761F!         MOVW      DP,#_PieCtrlRegs+1    ; [CPU_U] 
         000000a6 0000 
     557 000000a7 1980          SUBB      ACC,#128              ; [CPU_] |220| 
     558 000000a8 FF42          SFR       ACC,3                 ; [CPU_] |220| 
     559 000000a9 2DA9          MOV       T,AL                  ; [CPU_] |220| 
     560 000000aa 9A01          MOVB      AL,#1                 ; [CPU_] |220| 
     561 000000ab FF66          LSL       AL,T                  ; [CPU_] |220| 
     562 000000ac 9601!         MOV       @_PieCtrlRegs+1,AL    ; [CPU_] |220| 
     563                      .dwpsn  file "../TI/Drivers/interrupt.c",line 223,column 9,is_stmt,isa 0
     564 000000ad 0642          MOVL      ACC,*-SP[2]           ; [CPU_] |223| 
     565 000000ae 1980          SUBB      ACC,#128              ; [CPU_] |223| 
     566 000000af FF42          SFR       ACC,3                 ; [CPU_] |223| 
     567 000000b0 2DA9          MOV       T,AL                  ; [CPU_] |223| 
     568 000000b1 9A01          MOVB      AL,#1                 ; [CPU_] |223| 
     569 000000b2 FF66          LSL       AL,T                  ; [CPU_] |223| 
     570 000000b3 20A8          MOV       AH,IER                ; [CPU_] |223| 
     571 000000b4 CAA8          OR        AL,AH                 ; [CPU_] |223| 
     572 000000b5 23A9          MOV       IER,AL                ; [CPU_] |223| 
     573                      .dwpsn  file "../TI/Drivers/interrupt.c",line 224,column 5,is_stmt,isa 0
     574 000000b6 6F11          B         $C$L5,UNC             ; [CPU_] |224| 
     575                      ; branch occurs ; [] |224| 
     576 000000b7       $C$L4:    
     577                      .dwpsn  file "../TI/Drivers/interrupt.c",line 225,column 10,is_stmt,isa 0
     578 000000b7 020D          MOVB      ACC,#13               ; [CPU_] |225| 
     579 000000b8 0F42          CMPL      ACC,*-SP[2]           ; [CPU_] |225| 
     580 000000b9 56C6          BF        $C$L5,HI              ; [CPU_] |225| 
         000000ba 000E 
     581                      ; branchcc occurs ; [] |225| 
TMS320C2000 Assembler PC v6.4.2 Thu Dec 14 15:26:49 2017

Tools Copyright (c) 1996-2015 Texas Instruments Incorporated
interrupt.asm                                                        PAGE   12

     582 000000bb 0210          MOVB      ACC,#16               ; [CPU_] |225| 
     583 000000bc 0F42          CMPL      ACC,*-SP[2]           ; [CPU_] |225| 
     584 000000bd 56C8          BF        $C$L5,LO              ; [CPU_] |225| 
         000000be 000A 
     585                      ; branchcc occurs ; [] |225| 
     586                      .dwpsn  file "../TI/Drivers/interrupt.c",line 228,column 9,is_stmt,isa 0
     587 000000bf 9242          MOV       AL,*-SP[2]            ; [CPU_] |228| 
     588 000000c0 9CFF          ADDB      AL,#-1                ; [CPU_] |228| 
     589 000000c1 2DA9          MOV       T,AL                  ; [CPU_] |228| 
     590 000000c2 9A01          MOVB      AL,#1                 ; [CPU_] |228| 
     591 000000c3 FF66          LSL       AL,T                  ; [CPU_] |228| 
     592 000000c4 20A8          MOV       AH,IER                ; [CPU_] |228| 
     593 000000c5 CAA8          OR        AL,AH                 ; [CPU_] |228| 
     594 000000c6 23A9          MOV       IER,AL                ; [CPU_] |228| 
     595                      .dwpsn  file "../TI/Drivers/interrupt.c",line 229,column 5,is_stmt,isa 0
     596 000000c7       $C$L5:    
     597                      .dwpsn  file "../TI/Drivers/interrupt.c",line 235,column 5,is_stmt,isa 0
     598 000000c7 761A   EDIS
     599                      .dwpsn  file "../TI/Drivers/interrupt.c",line 238,column 5,is_stmt,isa 0
     600 000000c8 9243          MOV       AL,*-SP[3]            ; [CPU_] |238| 
     601 000000c9 ED04          BF        $C$L6,NEQ             ; [CPU_] |238| 
     602                      ; branchcc occurs ; [] |238| 
     603                      .dwpsn  file "../TI/Drivers/interrupt.c",line 239,column 9,is_stmt,isa 0
     604 000000ca FF69          SPM       #0                    ; [CPU_] 
     605              $C$DW$33        .dwtag  DW_TAG_TI_branch
     606                      .dwattr $C$DW$33, DW_AT_low_pc(0x00)
     607                      .dwattr $C$DW$33, DW_AT_name("_IntMasterEnable")
     608                      .dwattr $C$DW$33, DW_AT_TI_call
     609 000000cb 7640'         LCR       #_IntMasterEnable     ; [CPU_] |239| 
         000000cc 0000 
     610                      ; call occurs [#_IntMasterEnable] ; [] |239| 
     611                      .dwpsn  file "../TI/Drivers/interrupt.c",line 241,column 1,is_stmt,isa 0
     612 000000cd       $C$L6:    
     613 000000cd FE84          SUBB      SP,#4                 ; [CPU_U] 
     614                      .dwcfi  cfa_offset, -2
     615 000000ce FF69          SPM       #0                    ; [CPU_] 
     616              $C$DW$34        .dwtag  DW_TAG_TI_branch
     617                      .dwattr $C$DW$34, DW_AT_low_pc(0x00)
     618                      .dwattr $C$DW$34, DW_AT_TI_return
     619 000000cf 0006          LRETR     ; [CPU_] 
     620                      ; return occurs ; [] 
     621                      .dwattr $C$DW$26, DW_AT_TI_end_file("../TI/Drivers/interrupt.c")
     622                      .dwattr $C$DW$26, DW_AT_TI_end_line(0xf1)
     623                      .dwattr $C$DW$26, DW_AT_TI_end_column(0x01)
     624                      .dwendentry
     625                      .dwendtag $C$DW$26
     626              
     627 000000d0               .sect   ".text"
     628                      .clink
     629                      .global _IntDisable
     630              
     631              $C$DW$35        .dwtag  DW_TAG_subprogram, DW_AT_name("IntDisable")
     632                      .dwattr $C$DW$35, DW_AT_low_pc(_IntDisable)
     633                      .dwattr $C$DW$35, DW_AT_high_pc(0x00)
     634                      .dwattr $C$DW$35, DW_AT_TI_symbol_name("_IntDisable")
TMS320C2000 Assembler PC v6.4.2 Thu Dec 14 15:26:49 2017

Tools Copyright (c) 1996-2015 Texas Instruments Incorporated
interrupt.asm                                                        PAGE   13

     635                      .dwattr $C$DW$35, DW_AT_external
     636                      .dwattr $C$DW$35, DW_AT_TI_begin_file("../TI/Drivers/interrupt.c")
     637                      .dwattr $C$DW$35, DW_AT_TI_begin_line(0x101)
     638                      .dwattr $C$DW$35, DW_AT_TI_begin_column(0x01)
     639                      .dwattr $C$DW$35, DW_AT_TI_max_frame_size(-6)
     640                      .dwpsn  file "../TI/Drivers/interrupt.c",line 258,column 1,is_stmt,address _IntDisable,isa 0
     641              
     642                      .dwfde $C$DW$CIE, _IntDisable
     643              $C$DW$36        .dwtag  DW_TAG_formal_parameter, DW_AT_name("ui32Interrupt")
     644                      .dwattr $C$DW$36, DW_AT_TI_symbol_name("_ui32Interrupt")
     645                      .dwattr $C$DW$36, DW_AT_type(*$C$DW$T$88)
     646                      .dwattr $C$DW$36, DW_AT_location[DW_OP_reg0]
     647              
     648              ;***************************************************************
     649              ;* FNAME: _IntDisable                   FR SIZE:   4           *
     650              ;*                                                             *
     651              ;* FUNCTION ENVIRONMENT                                        *
     652              ;*                                                             *
     653              ;* FUNCTION PROPERTIES                                         *
     654              ;*                            0 Parameter,  3 Auto,  0 SOE     *
     655              ;***************************************************************
     656              
     657 000000d0       _IntDisable:
     658                      .dwcfi  cfa_offset, -2
     659                      .dwcfi  save_reg_to_mem, 26, 0
     660 000000d0 FE04          ADDB      SP,#4                 ; [CPU_U] 
     661                      .dwcfi  cfa_offset, -6
     662              $C$DW$37        .dwtag  DW_TAG_variable, DW_AT_name("ui32Interrupt")
     663                      .dwattr $C$DW$37, DW_AT_TI_symbol_name("_ui32Interrupt")
     664                      .dwattr $C$DW$37, DW_AT_type(*$C$DW$T$88)
     665                      .dwattr $C$DW$37, DW_AT_location[DW_OP_breg20 -2]
     666              $C$DW$38        .dwtag  DW_TAG_variable, DW_AT_name("ui16IntsEnabled")
     667                      .dwattr $C$DW$38, DW_AT_TI_symbol_name("_ui16IntsEnabled")
     668                      .dwattr $C$DW$38, DW_AT_type(*$C$DW$T$91)
     669                      .dwattr $C$DW$38, DW_AT_location[DW_OP_breg20 -3]
     670 000000d1 1E42          MOVL      *-SP[2],ACC           ; [CPU_] |258| 
     671                      .dwpsn  file "../TI/Drivers/interrupt.c",line 261,column 5,is_stmt,isa 0
     672 000000d2 0EA8          MOVU      ACC,AH                ; [CPU_] |261| 
     673 000000d3 1E42          MOVL      *-SP[2],ACC           ; [CPU_] |261| 
     674                      .dwpsn  file "../TI/Drivers/interrupt.c",line 262,column 5,is_stmt,isa 0
     675 000000d4 7622   EALLOW
     676                      .dwpsn  file "../TI/Drivers/interrupt.c",line 264,column 5,is_stmt,isa 0
     677 000000d5 FF69          SPM       #0                    ; [CPU_] 
     678              $C$DW$39        .dwtag  DW_TAG_TI_branch
     679                      .dwattr $C$DW$39, DW_AT_low_pc(0x00)
     680                      .dwattr $C$DW$39, DW_AT_name("_IntMasterDisable")
     681                      .dwattr $C$DW$39, DW_AT_TI_call
     682 000000d6 7640'         LCR       #_IntMasterDisable    ; [CPU_] |264| 
         000000d7 0008 
     683                      ; call occurs [#_IntMasterDisable] ; [] |264| 
     684 000000d8 9643          MOV       *-SP[3],AL            ; [CPU_] |264| 
     685                      .dwpsn  file "../TI/Drivers/interrupt.c",line 266,column 5,is_stmt,isa 0
     686 000000d9 0220          MOVB      ACC,#32               ; [CPU_] |266| 
     687 000000da 0F42          CMPL      ACC,*-SP[2]           ; [CPU_] |266| 
     688 000000db 56C6          BF        $C$L7,HI              ; [CPU_] |266| 
TMS320C2000 Assembler PC v6.4.2 Thu Dec 14 15:26:49 2017

Tools Copyright (c) 1996-2015 Texas Instruments Incorporated
interrupt.asm                                                        PAGE   14

         000000dc 0030 
     689                      ; branchcc occurs ; [] |266| 
     690 000000dd 027F          MOVB      ACC,#127              ; [CPU_] |266| 
     691 000000de 0F42          CMPL      ACC,*-SP[2]           ; [CPU_] |266| 
     692 000000df 56C8          BF        $C$L7,LO              ; [CPU_] |266| 
         000000e0 002C 
     693                      ; branchcc occurs ; [] |266| 
     694                      .dwpsn  file "../TI/Drivers/interrupt.c",line 269,column 9,is_stmt,isa 0
     695 000000e1 0642          MOVL      ACC,*-SP[2]           ; [CPU_] |269| 
     696 000000e2 2901          CLRC      SXM                   ; [CPU_] 
     697 000000e3 8F00!         MOVL      XAR4,#_PieCtrlRegs+2  ; [CPU_U] |269| 
         000000e4 0002 
     698 000000e5 1920          SUBB      ACC,#32               ; [CPU_] |269| 
     699 000000e6 FF42          SFR       ACC,3                 ; [CPU_] |269| 
     700 000000e7 FF30          LSL       ACC,1                 ; [CPU_] |269| 
     701 000000e8 5601          ADDL      XAR4,ACC              ; [CPU_] |269| 
         000000e9 00A4 
     702 000000ea 9242          MOV       AL,*-SP[2]            ; [CPU_] |269| 
     703 000000eb 9B01          MOVB      AH,#1                 ; [CPU_] |269| 
     704 000000ec 9CE0          ADDB      AL,#-32               ; [CPU_] |269| 
     705 000000ed 9007          ANDB      AL,#0x07              ; [CPU_] |269| 
     706 000000ee 2DA9          MOV       T,AL                  ; [CPU_] |269| 
     707 000000ef FF67          LSL       AH,T                  ; [CPU_] |269| 
     708 000000f0 FF5F          NOT       AH                    ; [CPU_] |269| 
     709 000000f1 C1C4          AND       *+XAR4[0],AH          ; [CPU_] |269| 
     710                      .dwpsn  file "../TI/Drivers/interrupt.c",line 272,column 9,is_stmt,isa 0
     711 000000f2 7700   nop
     712                      .dwpsn  file "../TI/Drivers/interrupt.c",line 273,column 9,is_stmt,isa 0
     713 000000f3 7700   nop
     714                      .dwpsn  file "../TI/Drivers/interrupt.c",line 274,column 9,is_stmt,isa 0
     715 000000f4 7700   nop
     716                      .dwpsn  file "../TI/Drivers/interrupt.c",line 275,column 9,is_stmt,isa 0
     717 000000f5 7700   nop
     718                      .dwpsn  file "../TI/Drivers/interrupt.c",line 276,column 9,is_stmt,isa 0
     719 000000f6 7700   nop
     720                      .dwpsn  file "../TI/Drivers/interrupt.c",line 279,column 9,is_stmt,isa 0
     721 000000f7 FF69          SPM       #0                    ; [CPU_] 
     722 000000f8 0642          MOVL      ACC,*-SP[2]           ; [CPU_] |279| 
     723 000000f9 1920          SUBB      ACC,#32               ; [CPU_] |279| 
     724 000000fa FF42          SFR       ACC,3                 ; [CPU_] |279| 
     725 000000fb 2DA9          MOV       T,AL                  ; [CPU_] |279| 
     726 000000fc 9A01          MOVB      AL,#1                 ; [CPU_] |279| 
     727 000000fd FF66          LSL       AL,T                  ; [CPU_] |279| 
     728              $C$DW$40        .dwtag  DW_TAG_TI_branch
     729                      .dwattr $C$DW$40, DW_AT_low_pc(0x00)
     730                      .dwattr $C$DW$40, DW_AT_name("_IntIFRClear")
     731                      .dwattr $C$DW$40, DW_AT_TI_call
     732 000000fe 7640'         LCR       #_IntIFRClear         ; [CPU_] |279| 
         000000ff 0155 
     733                      ; call occurs [#_IntIFRClear] ; [] |279| 
     734                      .dwpsn  file "../TI/Drivers/interrupt.c",line 282,column 9,is_stmt,isa 0
     735 00000100 2901          CLRC      SXM                   ; [CPU_] 
     736 00000101 0642          MOVL      ACC,*-SP[2]           ; [CPU_] |282| 
     737 00000102 761F!         MOVW      DP,#_PieCtrlRegs+1    ; [CPU_U] 
         00000103 0000 
TMS320C2000 Assembler PC v6.4.2 Thu Dec 14 15:26:49 2017

Tools Copyright (c) 1996-2015 Texas Instruments Incorporated
interrupt.asm                                                        PAGE   15

     738 00000104 1920          SUBB      ACC,#32               ; [CPU_] |282| 
     739 00000105 FF42          SFR       ACC,3                 ; [CPU_] |282| 
     740 00000106 2DA9          MOV       T,AL                  ; [CPU_] |282| 
     741 00000107 9A01          MOVB      AL,#1                 ; [CPU_] |282| 
     742 00000108 FF66          LSL       AL,T                  ; [CPU_] |282| 
     743 00000109 9601!         MOV       @_PieCtrlRegs+1,AL    ; [CPU_] |282| 
     744                      .dwpsn  file "../TI/Drivers/interrupt.c",line 283,column 5,is_stmt,isa 0
     745 0000010a 6F42          B         $C$L9,UNC             ; [CPU_] |283| 
     746                      ; branch occurs ; [] |283| 
     747 0000010b       $C$L7:    
     748                      .dwpsn  file "../TI/Drivers/interrupt.c",line 284,column 10,is_stmt,isa 0
     749 0000010b 0280          MOVB      ACC,#128              ; [CPU_] |284| 
     750 0000010c 0F42          CMPL      ACC,*-SP[2]           ; [CPU_] |284| 
     751 0000010d 56C6          BF        $C$L8,HI              ; [CPU_] |284| 
         0000010e 002E 
     752                      ; branchcc occurs ; [] |284| 
     753                      .dwpsn  file "../TI/Drivers/interrupt.c",line 287,column 9,is_stmt,isa 0
     754 0000010f 0642          MOVL      ACC,*-SP[2]           ; [CPU_] |287| 
     755 00000110 2901          CLRC      SXM                   ; [CPU_] 
     756 00000111 8F00!         MOVL      XAR4,#_PieCtrlRegs+2  ; [CPU_U] |287| 
         00000112 0002 
     757 00000113 1980          SUBB      ACC,#128              ; [CPU_] |287| 
     758 00000114 FF42          SFR       ACC,3                 ; [CPU_] |287| 
     759 00000115 FF30          LSL       ACC,1                 ; [CPU_] |287| 
     760 00000116 5601          ADDL      XAR4,ACC              ; [CPU_] |287| 
         00000117 00A4 
     761 00000118 9242          MOV       AL,*-SP[2]            ; [CPU_] |287| 
     762 00000119 9B01          MOVB      AH,#1                 ; [CPU_] |287| 
     763 0000011a 08A9          SUB       AL,#128               ; [CPU_] |287| 
         0000011b FF80 
     764 0000011c 9007          ANDB      AL,#0x07              ; [CPU_] |287| 
     765 0000011d 9C08          ADDB      AL,#8                 ; [CPU_] |287| 
     766 0000011e 2DA9          MOV       T,AL                  ; [CPU_] |287| 
     767 0000011f FF67          LSL       AH,T                  ; [CPU_] |287| 
     768 00000120 FF5F          NOT       AH                    ; [CPU_] |287| 
     769 00000121 C1C4          AND       *+XAR4[0],AH          ; [CPU_] |287| 
     770                      .dwpsn  file "../TI/Drivers/interrupt.c",line 290,column 9,is_stmt,isa 0
     771 00000122 7700   nop
     772                      .dwpsn  file "../TI/Drivers/interrupt.c",line 291,column 9,is_stmt,isa 0
     773 00000123 7700   nop
     774                      .dwpsn  file "../TI/Drivers/interrupt.c",line 292,column 9,is_stmt,isa 0
     775 00000124 7700   nop
     776                      .dwpsn  file "../TI/Drivers/interrupt.c",line 293,column 9,is_stmt,isa 0
     777 00000125 7700   nop
     778                      .dwpsn  file "../TI/Drivers/interrupt.c",line 294,column 9,is_stmt,isa 0
     779 00000126 7700   nop
     780                      .dwpsn  file "../TI/Drivers/interrupt.c",line 297,column 9,is_stmt,isa 0
     781 00000127 FF69          SPM       #0                    ; [CPU_] 
     782 00000128 0642          MOVL      ACC,*-SP[2]           ; [CPU_] |297| 
     783 00000129 1980          SUBB      ACC,#128              ; [CPU_] |297| 
     784 0000012a FF42          SFR       ACC,3                 ; [CPU_] |297| 
     785 0000012b 2DA9          MOV       T,AL                  ; [CPU_] |297| 
     786 0000012c 9A01          MOVB      AL,#1                 ; [CPU_] |297| 
     787 0000012d FF66          LSL       AL,T                  ; [CPU_] |297| 
     788              $C$DW$41        .dwtag  DW_TAG_TI_branch
TMS320C2000 Assembler PC v6.4.2 Thu Dec 14 15:26:49 2017

Tools Copyright (c) 1996-2015 Texas Instruments Incorporated
interrupt.asm                                                        PAGE   16

     789                      .dwattr $C$DW$41, DW_AT_low_pc(0x00)
     790                      .dwattr $C$DW$41, DW_AT_name("_IntIFRClear")
     791                      .dwattr $C$DW$41, DW_AT_TI_call
     792 0000012e 7640'         LCR       #_IntIFRClear         ; [CPU_] |297| 
         0000012f 0155 
     793                      ; call occurs [#_IntIFRClear] ; [] |297| 
     794                      .dwpsn  file "../TI/Drivers/interrupt.c",line 300,column 9,is_stmt,isa 0
     795 00000130 2901          CLRC      SXM                   ; [CPU_] 
     796 00000131 0642          MOVL      ACC,*-SP[2]           ; [CPU_] |300| 
     797 00000132 761F!         MOVW      DP,#_PieCtrlRegs+1    ; [CPU_U] 
         00000133 0000 
     798 00000134 1980          SUBB      ACC,#128              ; [CPU_] |300| 
     799 00000135 FF42          SFR       ACC,3                 ; [CPU_] |300| 
     800 00000136 2DA9          MOV       T,AL                  ; [CPU_] |300| 
     801 00000137 9A01          MOVB      AL,#1                 ; [CPU_] |300| 
     802 00000138 FF66          LSL       AL,T                  ; [CPU_] |300| 
     803 00000139 9601!         MOV       @_PieCtrlRegs+1,AL    ; [CPU_] |300| 
     804                      .dwpsn  file "../TI/Drivers/interrupt.c",line 301,column 5,is_stmt,isa 0
     805 0000013a 6F12          B         $C$L9,UNC             ; [CPU_] |301| 
     806                      ; branch occurs ; [] |301| 
     807 0000013b       $C$L8:    
     808                      .dwpsn  file "../TI/Drivers/interrupt.c",line 302,column 10,is_stmt,isa 0
     809 0000013b 020D          MOVB      ACC,#13               ; [CPU_] |302| 
     810 0000013c 0F42          CMPL      ACC,*-SP[2]           ; [CPU_] |302| 
     811 0000013d 56C6          BF        $C$L9,HI              ; [CPU_] |302| 
         0000013e 000F 
     812                      ; branchcc occurs ; [] |302| 
     813 0000013f 0210          MOVB      ACC,#16               ; [CPU_] |302| 
     814 00000140 0F42          CMPL      ACC,*-SP[2]           ; [CPU_] |302| 
     815 00000141 56C8          BF        $C$L9,LO              ; [CPU_] |302| 
         00000142 000B 
     816                      ; branchcc occurs ; [] |302| 
     817                      .dwpsn  file "../TI/Drivers/interrupt.c",line 305,column 9,is_stmt,isa 0
     818 00000143 9242          MOV       AL,*-SP[2]            ; [CPU_] |305| 
     819 00000144 9CFF          ADDB      AL,#-1                ; [CPU_] |305| 
     820 00000145 2DA9          MOV       T,AL                  ; [CPU_] |305| 
     821 00000146 9A01          MOVB      AL,#1                 ; [CPU_] |305| 
     822 00000147 FF66          LSL       AL,T                  ; [CPU_] |305| 
     823 00000148 FF5E          NOT       AL                    ; [CPU_] |305| 
     824 00000149 20A8          MOV       AH,IER                ; [CPU_] |305| 
     825 0000014a CEA8          AND       AL,AH                 ; [CPU_] |305| 
     826 0000014b 23A9          MOV       IER,AL                ; [CPU_] |305| 
     827                      .dwpsn  file "../TI/Drivers/interrupt.c",line 306,column 5,is_stmt,isa 0
     828 0000014c       $C$L9:    
     829                      .dwpsn  file "../TI/Drivers/interrupt.c",line 311,column 5,is_stmt,isa 0
     830 0000014c 761A   EDIS
     831                      .dwpsn  file "../TI/Drivers/interrupt.c",line 314,column 5,is_stmt,isa 0
     832 0000014d 9243          MOV       AL,*-SP[3]            ; [CPU_] |314| 
     833 0000014e ED04          BF        $C$L10,NEQ            ; [CPU_] |314| 
     834                      ; branchcc occurs ; [] |314| 
     835                      .dwpsn  file "../TI/Drivers/interrupt.c",line 315,column 9,is_stmt,isa 0
     836 0000014f FF69          SPM       #0                    ; [CPU_] 
     837              $C$DW$42        .dwtag  DW_TAG_TI_branch
     838                      .dwattr $C$DW$42, DW_AT_low_pc(0x00)
     839                      .dwattr $C$DW$42, DW_AT_name("_IntMasterEnable")
TMS320C2000 Assembler PC v6.4.2 Thu Dec 14 15:26:49 2017

Tools Copyright (c) 1996-2015 Texas Instruments Incorporated
interrupt.asm                                                        PAGE   17

     840                      .dwattr $C$DW$42, DW_AT_TI_call
     841 00000150 7640'         LCR       #_IntMasterEnable     ; [CPU_] |315| 
         00000151 0000 
     842                      ; call occurs [#_IntMasterEnable] ; [] |315| 
     843                      .dwpsn  file "../TI/Drivers/interrupt.c",line 317,column 1,is_stmt,isa 0
     844 00000152       $C$L10:    
     845 00000152 FE84          SUBB      SP,#4                 ; [CPU_U] 
     846                      .dwcfi  cfa_offset, -2
     847 00000153 FF69          SPM       #0                    ; [CPU_] 
     848              $C$DW$43        .dwtag  DW_TAG_TI_branch
     849                      .dwattr $C$DW$43, DW_AT_low_pc(0x00)
     850                      .dwattr $C$DW$43, DW_AT_TI_return
     851 00000154 0006          LRETR     ; [CPU_] 
     852                      ; return occurs ; [] 
     853                      .dwattr $C$DW$35, DW_AT_TI_end_file("../TI/Drivers/interrupt.c")
     854                      .dwattr $C$DW$35, DW_AT_TI_end_line(0x13d)
     855                      .dwattr $C$DW$35, DW_AT_TI_end_column(0x01)
     856                      .dwendentry
     857                      .dwendtag $C$DW$35
     858              
     859 00000155               .sect   ".text"
     860                      .clink
     861                      .global _IntIFRClear
     862              
     863              $C$DW$44        .dwtag  DW_TAG_subprogram, DW_AT_name("IntIFRClear")
     864                      .dwattr $C$DW$44, DW_AT_low_pc(_IntIFRClear)
     865                      .dwattr $C$DW$44, DW_AT_high_pc(0x00)
     866                      .dwattr $C$DW$44, DW_AT_TI_symbol_name("_IntIFRClear")
     867                      .dwattr $C$DW$44, DW_AT_external
     868                      .dwattr $C$DW$44, DW_AT_TI_begin_file("../TI/Drivers/interrupt.c")
     869                      .dwattr $C$DW$44, DW_AT_TI_begin_line(0x13f)
     870                      .dwattr $C$DW$44, DW_AT_TI_begin_column(0x06)
     871                      .dwattr $C$DW$44, DW_AT_TI_max_frame_size(-4)
     872                      .dwpsn  file "../TI/Drivers/interrupt.c",line 320,column 1,is_stmt,address _IntIFRClear,isa 0
     873              
     874                      .dwfde $C$DW$CIE, _IntIFRClear
     875              $C$DW$45        .dwtag  DW_TAG_formal_parameter, DW_AT_name("ui16Interrupts")
     876                      .dwattr $C$DW$45, DW_AT_TI_symbol_name("_ui16Interrupts")
     877                      .dwattr $C$DW$45, DW_AT_type(*$C$DW$T$91)
     878                      .dwattr $C$DW$45, DW_AT_location[DW_OP_reg0]
     879              
     880              ;***************************************************************
     881              ;* FNAME: _IntIFRClear                  FR SIZE:   2           *
     882              ;*                                                             *
     883              ;* FUNCTION ENVIRONMENT                                        *
     884              ;*                                                             *
     885              ;* FUNCTION PROPERTIES                                         *
     886              ;*                            0 Parameter,  1 Auto,  0 SOE     *
     887              ;***************************************************************
     888              
     889 00000155       _IntIFRClear:
     890                      .dwcfi  cfa_offset, -2
     891                      .dwcfi  save_reg_to_mem, 26, 0
     892 00000155 FE02          ADDB      SP,#2                 ; [CPU_U] 
     893                      .dwcfi  cfa_offset, -4
TMS320C2000 Assembler PC v6.4.2 Thu Dec 14 15:26:49 2017

Tools Copyright (c) 1996-2015 Texas Instruments Incorporated
interrupt.asm                                                        PAGE   18

     894              $C$DW$46        .dwtag  DW_TAG_variable, DW_AT_name("ui16Interrupts")
     895                      .dwattr $C$DW$46, DW_AT_TI_symbol_name("_ui16Interrupts")
     896                      .dwattr $C$DW$46, DW_AT_type(*$C$DW$T$91)
     897                      .dwattr $C$DW$46, DW_AT_location[DW_OP_breg20 -1]
     898 00000156 9641          MOV       *-SP[1],AL            ; [CPU_] |320| 
     899                      .dwpsn  file "../TI/Drivers/interrupt.c",line 321,column 5,is_stmt,isa 0
     900 00000157 6F31          B         $C$L27,UNC            ; [CPU_] |321| 
     901                      ; branch occurs ; [] |321| 
     902 00000158       $C$L11:    
     903                      .dwpsn  file "../TI/Drivers/interrupt.c",line 323,column 9,is_stmt,isa 0
     904 00000158 762F          AND       IFR,#0xfffe           ; [CPU_] |323| 
         00000159 FFFE 
     905                      .dwpsn  file "../TI/Drivers/interrupt.c",line 324,column 9,is_stmt,isa 0
     906 0000015a 6F7B          B         $C$L31,UNC            ; [CPU_] |324| 
     907                      ; branch occurs ; [] |324| 
     908 0000015b       $C$L12:    
     909                      .dwpsn  file "../TI/Drivers/interrupt.c",line 326,column 9,is_stmt,isa 0
     910 0000015b 762F          AND       IFR,#0xfffd           ; [CPU_] |326| 
         0000015c FFFD 
     911                      .dwpsn  file "../TI/Drivers/interrupt.c",line 327,column 9,is_stmt,isa 0
     912 0000015d 6F78          B         $C$L31,UNC            ; [CPU_] |327| 
     913                      ; branch occurs ; [] |327| 
     914 0000015e       $C$L13:    
     915                      .dwpsn  file "../TI/Drivers/interrupt.c",line 329,column 9,is_stmt,isa 0
     916 0000015e 762F          AND       IFR,#0xfffb           ; [CPU_] |329| 
         0000015f FFFB 
     917                      .dwpsn  file "../TI/Drivers/interrupt.c",line 330,column 9,is_stmt,isa 0
     918 00000160 6F75          B         $C$L31,UNC            ; [CPU_] |330| 
     919                      ; branch occurs ; [] |330| 
     920 00000161       $C$L14:    
     921                      .dwpsn  file "../TI/Drivers/interrupt.c",line 332,column 9,is_stmt,isa 0
     922 00000161 762F          AND       IFR,#0xfff7           ; [CPU_] |332| 
         00000162 FFF7 
     923                      .dwpsn  file "../TI/Drivers/interrupt.c",line 333,column 9,is_stmt,isa 0
     924 00000163 6F72          B         $C$L31,UNC            ; [CPU_] |333| 
     925                      ; branch occurs ; [] |333| 
     926 00000164       $C$L15:    
     927                      .dwpsn  file "../TI/Drivers/interrupt.c",line 335,column 9,is_stmt,isa 0
     928 00000164 762F          AND       IFR,#0xffef           ; [CPU_] |335| 
         00000165 FFEF 
     929                      .dwpsn  file "../TI/Drivers/interrupt.c",line 336,column 9,is_stmt,isa 0
     930 00000166 6F6F          B         $C$L31,UNC            ; [CPU_] |336| 
     931                      ; branch occurs ; [] |336| 
     932 00000167       $C$L16:    
     933                      .dwpsn  file "../TI/Drivers/interrupt.c",line 338,column 9,is_stmt,isa 0
     934 00000167 762F          AND       IFR,#0xffdf           ; [CPU_] |338| 
         00000168 FFDF 
     935                      .dwpsn  file "../TI/Drivers/interrupt.c",line 339,column 9,is_stmt,isa 0
     936 00000169 6F6C          B         $C$L31,UNC            ; [CPU_] |339| 
     937                      ; branch occurs ; [] |339| 
     938 0000016a       $C$L17:    
     939                      .dwpsn  file "../TI/Drivers/interrupt.c",line 341,column 9,is_stmt,isa 0
     940 0000016a 762F          AND       IFR,#0xffbf           ; [CPU_] |341| 
         0000016b FFBF 
     941                      .dwpsn  file "../TI/Drivers/interrupt.c",line 342,column 9,is_stmt,isa 0
TMS320C2000 Assembler PC v6.4.2 Thu Dec 14 15:26:49 2017

Tools Copyright (c) 1996-2015 Texas Instruments Incorporated
interrupt.asm                                                        PAGE   19

     942 0000016c 6F69          B         $C$L31,UNC            ; [CPU_] |342| 
     943                      ; branch occurs ; [] |342| 
     944 0000016d       $C$L18:    
     945                      .dwpsn  file "../TI/Drivers/interrupt.c",line 344,column 9,is_stmt,isa 0
     946 0000016d 762F          AND       IFR,#0xff7f           ; [CPU_] |344| 
         0000016e FF7F 
     947                      .dwpsn  file "../TI/Drivers/interrupt.c",line 345,column 9,is_stmt,isa 0
     948 0000016f 6F66          B         $C$L31,UNC            ; [CPU_] |345| 
     949                      ; branch occurs ; [] |345| 
     950 00000170       $C$L19:    
     951                      .dwpsn  file "../TI/Drivers/interrupt.c",line 347,column 9,is_stmt,isa 0
     952 00000170 762F          AND       IFR,#0xfeff           ; [CPU_] |347| 
         00000171 FEFF 
     953                      .dwpsn  file "../TI/Drivers/interrupt.c",line 348,column 9,is_stmt,isa 0
     954 00000172 6F63          B         $C$L31,UNC            ; [CPU_] |348| 
     955                      ; branch occurs ; [] |348| 
     956 00000173       $C$L20:    
     957                      .dwpsn  file "../TI/Drivers/interrupt.c",line 350,column 9,is_stmt,isa 0
     958 00000173 762F          AND       IFR,#0xfdff           ; [CPU_] |350| 
         00000174 FDFF 
     959                      .dwpsn  file "../TI/Drivers/interrupt.c",line 351,column 9,is_stmt,isa 0
     960 00000175 6F60          B         $C$L31,UNC            ; [CPU_] |351| 
     961                      ; branch occurs ; [] |351| 
     962 00000176       $C$L21:    
     963                      .dwpsn  file "../TI/Drivers/interrupt.c",line 353,column 9,is_stmt,isa 0
     964 00000176 762F          AND       IFR,#0xfbff           ; [CPU_] |353| 
         00000177 FBFF 
     965                      .dwpsn  file "../TI/Drivers/interrupt.c",line 354,column 9,is_stmt,isa 0
     966 00000178 6F5D          B         $C$L31,UNC            ; [CPU_] |354| 
     967                      ; branch occurs ; [] |354| 
     968 00000179       $C$L22:    
     969                      .dwpsn  file "../TI/Drivers/interrupt.c",line 356,column 9,is_stmt,isa 0
     970 00000179 762F          AND       IFR,#0xf7ff           ; [CPU_] |356| 
         0000017a F7FF 
     971                      .dwpsn  file "../TI/Drivers/interrupt.c",line 357,column 9,is_stmt,isa 0
     972 0000017b 6F5A          B         $C$L31,UNC            ; [CPU_] |357| 
     973                      ; branch occurs ; [] |357| 
     974 0000017c       $C$L23:    
     975                      .dwpsn  file "../TI/Drivers/interrupt.c",line 359,column 9,is_stmt,isa 0
     976 0000017c 762F          AND       IFR,#0xefff           ; [CPU_] |359| 
         0000017d EFFF 
     977                      .dwpsn  file "../TI/Drivers/interrupt.c",line 360,column 9,is_stmt,isa 0
     978 0000017e 6F57          B         $C$L31,UNC            ; [CPU_] |360| 
     979                      ; branch occurs ; [] |360| 
     980 0000017f       $C$L24:    
     981                      .dwpsn  file "../TI/Drivers/interrupt.c",line 362,column 9,is_stmt,isa 0
     982 0000017f 762F          AND       IFR,#0xdfff           ; [CPU_] |362| 
         00000180 DFFF 
     983                      .dwpsn  file "../TI/Drivers/interrupt.c",line 363,column 9,is_stmt,isa 0
     984 00000181 6F54          B         $C$L31,UNC            ; [CPU_] |363| 
     985                      ; branch occurs ; [] |363| 
     986 00000182       $C$L25:    
     987                      .dwpsn  file "../TI/Drivers/interrupt.c",line 365,column 9,is_stmt,isa 0
     988 00000182 762F          AND       IFR,#0xbfff           ; [CPU_] |365| 
         00000183 BFFF 
TMS320C2000 Assembler PC v6.4.2 Thu Dec 14 15:26:49 2017

Tools Copyright (c) 1996-2015 Texas Instruments Incorporated
interrupt.asm                                                        PAGE   20

     989                      .dwpsn  file "../TI/Drivers/interrupt.c",line 366,column 9,is_stmt,isa 0
     990 00000184 6F51          B         $C$L31,UNC            ; [CPU_] |366| 
     991                      ; branch occurs ; [] |366| 
     992 00000185       $C$L26:    
     993                      .dwpsn  file "../TI/Drivers/interrupt.c",line 368,column 9,is_stmt,isa 0
     994 00000185 762F          AND       IFR,#0x7fff           ; [CPU_] |368| 
         00000186 7FFF 
     995                      .dwpsn  file "../TI/Drivers/interrupt.c",line 369,column 9,is_stmt,isa 0
     996 00000187 6F4E          B         $C$L31,UNC            ; [CPU_] |369| 
     997                      ; branch occurs ; [] |369| 
     998 00000188       $C$L27:    
     999                      .dwpsn  file "../TI/Drivers/interrupt.c",line 321,column 5,is_stmt,isa 0
    1000 00000188 5280          CMPB      AL,#128               ; [CPU_] |321| 
    1001 00000189 8841          MOVZ      AR6,*-SP[1]           ; [CPU_] |321| 
    1002 0000018a 56C2          BF        $C$L29,GT             ; [CPU_] |321| 
         0000018b 001E 
    1003                      ; branchcc occurs ; [] |321| 
    1004 0000018c 5280          CMPB      AL,#128               ; [CPU_] |321| 
    1005 0000018d ECE0          BF        $C$L18,EQ             ; [CPU_] |321| 
    1006                      ; branchcc occurs ; [] |321| 
    1007 0000018e 5208          CMPB      AL,#8                 ; [CPU_] |321| 
    1008 0000018f 56C2          BF        $C$L28,GT             ; [CPU_] |321| 
         00000190 0012 
    1009                      ; branchcc occurs ; [] |321| 
    1010 00000191 5208          CMPB      AL,#8                 ; [CPU_] |321| 
    1011 00000192 ECCF          BF        $C$L14,EQ             ; [CPU_] |321| 
    1012                      ; branchcc occurs ; [] |321| 
    1013 00000193 80A6          MOVZ      AR7,AR6               ; [CPU_] |321| 
    1014 00000194 8F00          MOVL      XAR4,#32768           ; [CPU_U] |321| 
         00000195 8000 
    1015 00000196 A8A9          MOVL      ACC,XAR4              ; [CPU_] |321| 
    1016 00000197 0FA7          CMPL      ACC,XAR7              ; [CPU_] |321| 
    1017 00000198 ECED          BF        $C$L26,EQ             ; [CPU_] |321| 
    1018                      ; branchcc occurs ; [] |321| 
    1019 00000199 92A6          MOV       AL,AR6                ; [CPU_] 
    1020 0000019a 5201          CMPB      AL,#1                 ; [CPU_] |321| 
    1021 0000019b ECBD          BF        $C$L11,EQ             ; [CPU_] |321| 
    1022                      ; branchcc occurs ; [] |321| 
    1023 0000019c 5202          CMPB      AL,#2                 ; [CPU_] |321| 
    1024 0000019d ECBE          BF        $C$L12,EQ             ; [CPU_] |321| 
    1025                      ; branchcc occurs ; [] |321| 
    1026 0000019e 5204          CMPB      AL,#4                 ; [CPU_] |321| 
    1027 0000019f ECBF          BF        $C$L13,EQ             ; [CPU_] |321| 
    1028                      ; branchcc occurs ; [] |321| 
    1029 000001a0 6F35          B         $C$L31,UNC            ; [CPU_] |321| 
    1030                      ; branch occurs ; [] |321| 
    1031 000001a1       $C$L28:    
    1032 000001a1 5210          CMPB      AL,#16                ; [CPU_] |321| 
    1033 000001a2 ECC2          BF        $C$L15,EQ             ; [CPU_] |321| 
    1034                      ; branchcc occurs ; [] |321| 
    1035 000001a3 5220          CMPB      AL,#32                ; [CPU_] |321| 
    1036 000001a4 ECC3          BF        $C$L16,EQ             ; [CPU_] |321| 
    1037                      ; branchcc occurs ; [] |321| 
    1038 000001a5 5240          CMPB      AL,#64                ; [CPU_] |321| 
    1039 000001a6 ECC4          BF        $C$L17,EQ             ; [CPU_] |321| 
TMS320C2000 Assembler PC v6.4.2 Thu Dec 14 15:26:49 2017

Tools Copyright (c) 1996-2015 Texas Instruments Incorporated
interrupt.asm                                                        PAGE   21

    1040                      ; branchcc occurs ; [] |321| 
    1041 000001a7 6F2E          B         $C$L31,UNC            ; [CPU_] |321| 
    1042                      ; branch occurs ; [] |321| 
    1043 000001a8       $C$L29:    
    1044 000001a8 1BA6          CMP       AR6,#2048             ; [CPU_] |321| 
         000001a9 0800 
    1045 000001aa 56C2          BF        $C$L30,GT             ; [CPU_] |321| 
         000001ab 0018 
    1046                      ; branchcc occurs ; [] |321| 
    1047 000001ac 1BA6          CMP       AR6,#2048             ; [CPU_] |321| 
         000001ad 0800 
    1048 000001ae ECCB          BF        $C$L22,EQ             ; [CPU_] |321| 
    1049                      ; branchcc occurs ; [] |321| 
    1050 000001af 80A6          MOVZ      AR7,AR6               ; [CPU_] |321| 
    1051 000001b0 8F00          MOVL      XAR4,#256             ; [CPU_U] |321| 
         000001b1 0100 
    1052 000001b2 A8A9          MOVL      ACC,XAR4              ; [CPU_] |321| 
    1053 000001b3 0FA7          CMPL      ACC,XAR7              ; [CPU_] |321| 
    1054 000001b4 ECBC          BF        $C$L19,EQ             ; [CPU_] |321| 
    1055                      ; branchcc occurs ; [] |321| 
    1056 000001b5 80A6          MOVZ      AR7,AR6               ; [CPU_] |321| 
    1057 000001b6 8F00          MOVL      XAR4,#512             ; [CPU_U] |321| 
         000001b7 0200 
    1058 000001b8 A8A9          MOVL      ACC,XAR4              ; [CPU_] |321| 
    1059 000001b9 0FA7          CMPL      ACC,XAR7              ; [CPU_] |321| 
    1060 000001ba ECB9          BF        $C$L20,EQ             ; [CPU_] |321| 
    1061                      ; branchcc occurs ; [] |321| 
    1062 000001bb 88A6          MOVZ      AR6,AR6               ; [CPU_] |321| 
    1063 000001bc 8F00          MOVL      XAR4,#1024            ; [CPU_U] |321| 
         000001bd 0400 
    1064 000001be A8A9          MOVL      ACC,XAR4              ; [CPU_] |321| 
    1065 000001bf 0FA6          CMPL      ACC,XAR6              ; [CPU_] |321| 
    1066 000001c0 ECB6          BF        $C$L21,EQ             ; [CPU_] |321| 
    1067                      ; branchcc occurs ; [] |321| 
    1068 000001c1 6F14          B         $C$L31,UNC            ; [CPU_] |321| 
    1069                      ; branch occurs ; [] |321| 
    1070 000001c2       $C$L30:    
    1071 000001c2 80A6          MOVZ      AR7,AR6               ; [CPU_] |321| 
    1072 000001c3 8F00          MOVL      XAR4,#4096            ; [CPU_U] |321| 
         000001c4 1000 
    1073 000001c5 A8A9          MOVL      ACC,XAR4              ; [CPU_] |321| 
    1074 000001c6 0FA7          CMPL      ACC,XAR7              ; [CPU_] |321| 
    1075 000001c7 ECB5          BF        $C$L23,EQ             ; [CPU_] |321| 
    1076                      ; branchcc occurs ; [] |321| 
    1077 000001c8 80A6          MOVZ      AR7,AR6               ; [CPU_] |321| 
    1078 000001c9 8F00          MOVL      XAR4,#8192            ; [CPU_U] |321| 
         000001ca 2000 
    1079 000001cb A8A9          MOVL      ACC,XAR4              ; [CPU_] |321| 
    1080 000001cc 0FA7          CMPL      ACC,XAR7              ; [CPU_] |321| 
    1081 000001cd ECB2          BF        $C$L24,EQ             ; [CPU_] |321| 
    1082                      ; branchcc occurs ; [] |321| 
    1083 000001ce 88A6          MOVZ      AR6,AR6               ; [CPU_] |321| 
    1084 000001cf 8F00          MOVL      XAR4,#16384           ; [CPU_U] |321| 
         000001d0 4000 
    1085 000001d1 A8A9          MOVL      ACC,XAR4              ; [CPU_] |321| 
TMS320C2000 Assembler PC v6.4.2 Thu Dec 14 15:26:49 2017

Tools Copyright (c) 1996-2015 Texas Instruments Incorporated
interrupt.asm                                                        PAGE   22

    1086 000001d2 0FA6          CMPL      ACC,XAR6              ; [CPU_] |321| 
    1087 000001d3 ECAF          BF        $C$L25,EQ             ; [CPU_] |321| 
    1088                      ; branchcc occurs ; [] |321| 
    1089 000001d4 6F01          B         $C$L31,UNC            ; [CPU_] |321| 
    1090                      ; branch occurs ; [] |321| 
    1091 000001d5       $C$L31:    
    1092 000001d5 FE82          SUBB      SP,#2                 ; [CPU_U] 
    1093                      .dwcfi  cfa_offset, -2
    1094              $C$DW$47        .dwtag  DW_TAG_TI_branch
    1095                      .dwattr $C$DW$47, DW_AT_low_pc(0x00)
    1096                      .dwattr $C$DW$47, DW_AT_TI_return
    1097 000001d6 0006          LRETR     ; [CPU_] 
    1098                      ; return occurs ; [] 
    1099                      .dwattr $C$DW$44, DW_AT_TI_end_file("../TI/Drivers/interrupt.c")
    1100                      .dwattr $C$DW$44, DW_AT_TI_end_line(0x175)
    1101                      .dwattr $C$DW$44, DW_AT_TI_end_column(0x01)
    1102                      .dwendentry
    1103                      .dwendtag $C$DW$44
    1104              
    1105              ;**************************************************************
    1106              ;* UNDEFINED EXTERNAL REFERENCES                              *
    1107              ;**************************************************************
    1108                      .global _PieCtrlRegs
    1109                      .global _PieVectTable
    1110              
    1111              ;***************************************************************
    1112              ;* TYPE INFORMATION                                            *
    1113              ;***************************************************************
    1114              
    1115              $C$DW$T$20      .dwtag  DW_TAG_structure_type
    1116                      .dwattr $C$DW$T$20, DW_AT_name("PIEACK_BITS")
    1117                      .dwattr $C$DW$T$20, DW_AT_byte_size(0x01)
    1118              $C$DW$48        .dwtag  DW_TAG_member
    1119                      .dwattr $C$DW$48, DW_AT_type(*$C$DW$T$19)
    1120                      .dwattr $C$DW$48, DW_AT_name("ACK1")
    1121                      .dwattr $C$DW$48, DW_AT_TI_symbol_name("_ACK1")
    1122                      .dwattr $C$DW$48, DW_AT_bit_offset(0x0f), DW_AT_bit_size(0x01)
    1123                      .dwattr $C$DW$48, DW_AT_data_member_location[DW_OP_plus_uconst 0x0]
    1124                      .dwattr $C$DW$48, DW_AT_accessibility(DW_ACCESS_public)
    1125              $C$DW$49        .dwtag  DW_TAG_member
    1126                      .dwattr $C$DW$49, DW_AT_type(*$C$DW$T$19)
    1127                      .dwattr $C$DW$49, DW_AT_name("ACK2")
    1128                      .dwattr $C$DW$49, DW_AT_TI_symbol_name("_ACK2")
    1129                      .dwattr $C$DW$49, DW_AT_bit_offset(0x0e), DW_AT_bit_size(0x01)
    1130                      .dwattr $C$DW$49, DW_AT_data_member_location[DW_OP_plus_uconst 0x0]
    1131                      .dwattr $C$DW$49, DW_AT_accessibility(DW_ACCESS_public)
    1132              $C$DW$50        .dwtag  DW_TAG_member
    1133                      .dwattr $C$DW$50, DW_AT_type(*$C$DW$T$19)
    1134                      .dwattr $C$DW$50, DW_AT_name("ACK3")
    1135                      .dwattr $C$DW$50, DW_AT_TI_symbol_name("_ACK3")
    1136                      .dwattr $C$DW$50, DW_AT_bit_offset(0x0d), DW_AT_bit_size(0x01)
    1137                      .dwattr $C$DW$50, DW_AT_data_member_location[DW_OP_plus_uconst 0x0]
    1138                      .dwattr $C$DW$50, DW_AT_accessibility(DW_ACCESS_public)
    1139              $C$DW$51        .dwtag  DW_TAG_member
    1140                      .dwattr $C$DW$51, DW_AT_type(*$C$DW$T$19)
TMS320C2000 Assembler PC v6.4.2 Thu Dec 14 15:26:49 2017

Tools Copyright (c) 1996-2015 Texas Instruments Incorporated
interrupt.asm                                                        PAGE   23

    1141                      .dwattr $C$DW$51, DW_AT_name("ACK4")
    1142                      .dwattr $C$DW$51, DW_AT_TI_symbol_name("_ACK4")
    1143                      .dwattr $C$DW$51, DW_AT_bit_offset(0x0c), DW_AT_bit_size(0x01)
    1144                      .dwattr $C$DW$51, DW_AT_data_member_location[DW_OP_plus_uconst 0x0]
    1145                      .dwattr $C$DW$51, DW_AT_accessibility(DW_ACCESS_public)
    1146              $C$DW$52        .dwtag  DW_TAG_member
    1147                      .dwattr $C$DW$52, DW_AT_type(*$C$DW$T$19)
    1148                      .dwattr $C$DW$52, DW_AT_name("ACK5")
    1149                      .dwattr $C$DW$52, DW_AT_TI_symbol_name("_ACK5")
    1150                      .dwattr $C$DW$52, DW_AT_bit_offset(0x0b), DW_AT_bit_size(0x01)
    1151                      .dwattr $C$DW$52, DW_AT_data_member_location[DW_OP_plus_uconst 0x0]
    1152                      .dwattr $C$DW$52, DW_AT_accessibility(DW_ACCESS_public)
    1153              $C$DW$53        .dwtag  DW_TAG_member
    1154                      .dwattr $C$DW$53, DW_AT_type(*$C$DW$T$19)
    1155                      .dwattr $C$DW$53, DW_AT_name("ACK6")
    1156                      .dwattr $C$DW$53, DW_AT_TI_symbol_name("_ACK6")
    1157                      .dwattr $C$DW$53, DW_AT_bit_offset(0x0a), DW_AT_bit_size(0x01)
    1158                      .dwattr $C$DW$53, DW_AT_data_member_location[DW_OP_plus_uconst 0x0]
    1159                      .dwattr $C$DW$53, DW_AT_accessibility(DW_ACCESS_public)
    1160              $C$DW$54        .dwtag  DW_TAG_member
    1161                      .dwattr $C$DW$54, DW_AT_type(*$C$DW$T$19)
    1162                      .dwattr $C$DW$54, DW_AT_name("ACK7")
    1163                      .dwattr $C$DW$54, DW_AT_TI_symbol_name("_ACK7")
    1164                      .dwattr $C$DW$54, DW_AT_bit_offset(0x09), DW_AT_bit_size(0x01)
    1165                      .dwattr $C$DW$54, DW_AT_data_member_location[DW_OP_plus_uconst 0x0]
    1166                      .dwattr $C$DW$54, DW_AT_accessibility(DW_ACCESS_public)
    1167              $C$DW$55        .dwtag  DW_TAG_member
    1168                      .dwattr $C$DW$55, DW_AT_type(*$C$DW$T$19)
    1169                      .dwattr $C$DW$55, DW_AT_name("ACK8")
    1170                      .dwattr $C$DW$55, DW_AT_TI_symbol_name("_ACK8")
    1171                      .dwattr $C$DW$55, DW_AT_bit_offset(0x08), DW_AT_bit_size(0x01)
    1172                      .dwattr $C$DW$55, DW_AT_data_member_location[DW_OP_plus_uconst 0x0]
    1173                      .dwattr $C$DW$55, DW_AT_accessibility(DW_ACCESS_public)
    1174              $C$DW$56        .dwtag  DW_TAG_member
    1175                      .dwattr $C$DW$56, DW_AT_type(*$C$DW$T$19)
    1176                      .dwattr $C$DW$56, DW_AT_name("ACK9")
    1177                      .dwattr $C$DW$56, DW_AT_TI_symbol_name("_ACK9")
    1178                      .dwattr $C$DW$56, DW_AT_bit_offset(0x07), DW_AT_bit_size(0x01)
    1179                      .dwattr $C$DW$56, DW_AT_data_member_location[DW_OP_plus_uconst 0x0]
    1180                      .dwattr $C$DW$56, DW_AT_accessibility(DW_ACCESS_public)
    1181              $C$DW$57        .dwtag  DW_TAG_member
    1182                      .dwattr $C$DW$57, DW_AT_type(*$C$DW$T$19)
    1183                      .dwattr $C$DW$57, DW_AT_name("ACK10")
    1184                      .dwattr $C$DW$57, DW_AT_TI_symbol_name("_ACK10")
    1185                      .dwattr $C$DW$57, DW_AT_bit_offset(0x06), DW_AT_bit_size(0x01)
    1186                      .dwattr $C$DW$57, DW_AT_data_member_location[DW_OP_plus_uconst 0x0]
    1187                      .dwattr $C$DW$57, DW_AT_accessibility(DW_ACCESS_public)
    1188              $C$DW$58        .dwtag  DW_TAG_member
    1189                      .dwattr $C$DW$58, DW_AT_type(*$C$DW$T$19)
    1190                      .dwattr $C$DW$58, DW_AT_name("ACK11")
    1191                      .dwattr $C$DW$58, DW_AT_TI_symbol_name("_ACK11")
    1192                      .dwattr $C$DW$58, DW_AT_bit_offset(0x05), DW_AT_bit_size(0x01)
    1193                      .dwattr $C$DW$58, DW_AT_data_member_location[DW_OP_plus_uconst 0x0]
    1194                      .dwattr $C$DW$58, DW_AT_accessibility(DW_ACCESS_public)
    1195              $C$DW$59        .dwtag  DW_TAG_member
TMS320C2000 Assembler PC v6.4.2 Thu Dec 14 15:26:49 2017

Tools Copyright (c) 1996-2015 Texas Instruments Incorporated
interrupt.asm                                                        PAGE   24

    1196                      .dwattr $C$DW$59, DW_AT_type(*$C$DW$T$19)
    1197                      .dwattr $C$DW$59, DW_AT_name("ACK12")
    1198                      .dwattr $C$DW$59, DW_AT_TI_symbol_name("_ACK12")
    1199                      .dwattr $C$DW$59, DW_AT_bit_offset(0x04), DW_AT_bit_size(0x01)
    1200                      .dwattr $C$DW$59, DW_AT_data_member_location[DW_OP_plus_uconst 0x0]
    1201                      .dwattr $C$DW$59, DW_AT_accessibility(DW_ACCESS_public)
    1202              $C$DW$60        .dwtag  DW_TAG_member
    1203                      .dwattr $C$DW$60, DW_AT_type(*$C$DW$T$19)
    1204                      .dwattr $C$DW$60, DW_AT_name("rsvd1")
    1205                      .dwattr $C$DW$60, DW_AT_TI_symbol_name("_rsvd1")
    1206                      .dwattr $C$DW$60, DW_AT_bit_offset(0x00), DW_AT_bit_size(0x04)
    1207                      .dwattr $C$DW$60, DW_AT_data_member_location[DW_OP_plus_uconst 0x0]
    1208                      .dwattr $C$DW$60, DW_AT_accessibility(DW_ACCESS_public)
    1209                      .dwendtag $C$DW$T$20
    1210              
    1211              
    1212              $C$DW$T$21      .dwtag  DW_TAG_union_type
    1213                      .dwattr $C$DW$T$21, DW_AT_name("PIEACK_REG")
    1214                      .dwattr $C$DW$T$21, DW_AT_byte_size(0x01)
    1215              $C$DW$61        .dwtag  DW_TAG_member
    1216                      .dwattr $C$DW$61, DW_AT_type(*$C$DW$T$19)
    1217                      .dwattr $C$DW$61, DW_AT_name("all")
    1218                      .dwattr $C$DW$61, DW_AT_TI_symbol_name("_all")
    1219                      .dwattr $C$DW$61, DW_AT_data_member_location[DW_OP_plus_uconst 0x0]
    1220                      .dwattr $C$DW$61, DW_AT_accessibility(DW_ACCESS_public)
    1221              $C$DW$62        .dwtag  DW_TAG_member
    1222                      .dwattr $C$DW$62, DW_AT_type(*$C$DW$T$20)
    1223                      .dwattr $C$DW$62, DW_AT_name("bit")
    1224                      .dwattr $C$DW$62, DW_AT_TI_symbol_name("_bit")
    1225                      .dwattr $C$DW$62, DW_AT_data_member_location[DW_OP_plus_uconst 0x0]
    1226                      .dwattr $C$DW$62, DW_AT_accessibility(DW_ACCESS_public)
    1227                      .dwendtag $C$DW$T$21
    1228              
    1229              
    1230              $C$DW$T$22      .dwtag  DW_TAG_structure_type
    1231                      .dwattr $C$DW$T$22, DW_AT_name("PIECTRL_BITS")
    1232                      .dwattr $C$DW$T$22, DW_AT_byte_size(0x01)
    1233              $C$DW$63        .dwtag  DW_TAG_member
    1234                      .dwattr $C$DW$63, DW_AT_type(*$C$DW$T$19)
    1235                      .dwattr $C$DW$63, DW_AT_name("ENPIE")
    1236                      .dwattr $C$DW$63, DW_AT_TI_symbol_name("_ENPIE")
    1237                      .dwattr $C$DW$63, DW_AT_bit_offset(0x0f), DW_AT_bit_size(0x01)
    1238                      .dwattr $C$DW$63, DW_AT_data_member_location[DW_OP_plus_uconst 0x0]
    1239                      .dwattr $C$DW$63, DW_AT_accessibility(DW_ACCESS_public)
    1240              $C$DW$64        .dwtag  DW_TAG_member
    1241                      .dwattr $C$DW$64, DW_AT_type(*$C$DW$T$19)
    1242                      .dwattr $C$DW$64, DW_AT_name("PIEVECT")
    1243                      .dwattr $C$DW$64, DW_AT_TI_symbol_name("_PIEVECT")
    1244                      .dwattr $C$DW$64, DW_AT_bit_offset(0x00), DW_AT_bit_size(0x0f)
    1245                      .dwattr $C$DW$64, DW_AT_data_member_location[DW_OP_plus_uconst 0x0]
    1246                      .dwattr $C$DW$64, DW_AT_accessibility(DW_ACCESS_public)
    1247                      .dwendtag $C$DW$T$22
    1248              
    1249              
    1250              $C$DW$T$23      .dwtag  DW_TAG_union_type
TMS320C2000 Assembler PC v6.4.2 Thu Dec 14 15:26:49 2017

Tools Copyright (c) 1996-2015 Texas Instruments Incorporated
interrupt.asm                                                        PAGE   25

    1251                      .dwattr $C$DW$T$23, DW_AT_name("PIECTRL_REG")
    1252                      .dwattr $C$DW$T$23, DW_AT_byte_size(0x01)
    1253              $C$DW$65        .dwtag  DW_TAG_member
    1254                      .dwattr $C$DW$65, DW_AT_type(*$C$DW$T$19)
    1255                      .dwattr $C$DW$65, DW_AT_name("all")
    1256                      .dwattr $C$DW$65, DW_AT_TI_symbol_name("_all")
    1257                      .dwattr $C$DW$65, DW_AT_data_member_location[DW_OP_plus_uconst 0x0]
    1258                      .dwattr $C$DW$65, DW_AT_accessibility(DW_ACCESS_public)
    1259              $C$DW$66        .dwtag  DW_TAG_member
    1260                      .dwattr $C$DW$66, DW_AT_type(*$C$DW$T$22)
    1261                      .dwattr $C$DW$66, DW_AT_name("bit")
    1262                      .dwattr $C$DW$66, DW_AT_TI_symbol_name("_bit")
    1263                      .dwattr $C$DW$66, DW_AT_data_member_location[DW_OP_plus_uconst 0x0]
    1264                      .dwattr $C$DW$66, DW_AT_accessibility(DW_ACCESS_public)
    1265                      .dwendtag $C$DW$T$23
    1266              
    1267              
    1268              $C$DW$T$24      .dwtag  DW_TAG_structure_type
    1269                      .dwattr $C$DW$T$24, DW_AT_name("PIEIER10_BITS")
    1270                      .dwattr $C$DW$T$24, DW_AT_byte_size(0x01)
    1271              $C$DW$67        .dwtag  DW_TAG_member
    1272                      .dwattr $C$DW$67, DW_AT_type(*$C$DW$T$19)
    1273                      .dwattr $C$DW$67, DW_AT_name("INTx1")
    1274                      .dwattr $C$DW$67, DW_AT_TI_symbol_name("_INTx1")
    1275                      .dwattr $C$DW$67, DW_AT_bit_offset(0x0f), DW_AT_bit_size(0x01)
    1276                      .dwattr $C$DW$67, DW_AT_data_member_location[DW_OP_plus_uconst 0x0]
    1277                      .dwattr $C$DW$67, DW_AT_accessibility(DW_ACCESS_public)
    1278              $C$DW$68        .dwtag  DW_TAG_member
    1279                      .dwattr $C$DW$68, DW_AT_type(*$C$DW$T$19)
    1280                      .dwattr $C$DW$68, DW_AT_name("INTx2")
    1281                      .dwattr $C$DW$68, DW_AT_TI_symbol_name("_INTx2")
    1282                      .dwattr $C$DW$68, DW_AT_bit_offset(0x0e), DW_AT_bit_size(0x01)
    1283                      .dwattr $C$DW$68, DW_AT_data_member_location[DW_OP_plus_uconst 0x0]
    1284                      .dwattr $C$DW$68, DW_AT_accessibility(DW_ACCESS_public)
    1285              $C$DW$69        .dwtag  DW_TAG_member
    1286                      .dwattr $C$DW$69, DW_AT_type(*$C$DW$T$19)
    1287                      .dwattr $C$DW$69, DW_AT_name("INTx3")
    1288                      .dwattr $C$DW$69, DW_AT_TI_symbol_name("_INTx3")
    1289                      .dwattr $C$DW$69, DW_AT_bit_offset(0x0d), DW_AT_bit_size(0x01)
    1290                      .dwattr $C$DW$69, DW_AT_data_member_location[DW_OP_plus_uconst 0x0]
    1291                      .dwattr $C$DW$69, DW_AT_accessibility(DW_ACCESS_public)
    1292              $C$DW$70        .dwtag  DW_TAG_member
    1293                      .dwattr $C$DW$70, DW_AT_type(*$C$DW$T$19)
    1294                      .dwattr $C$DW$70, DW_AT_name("INTx4")
    1295                      .dwattr $C$DW$70, DW_AT_TI_symbol_name("_INTx4")
    1296                      .dwattr $C$DW$70, DW_AT_bit_offset(0x0c), DW_AT_bit_size(0x01)
    1297                      .dwattr $C$DW$70, DW_AT_data_member_location[DW_OP_plus_uconst 0x0]
    1298                      .dwattr $C$DW$70, DW_AT_accessibility(DW_ACCESS_public)
    1299              $C$DW$71        .dwtag  DW_TAG_member
    1300                      .dwattr $C$DW$71, DW_AT_type(*$C$DW$T$19)
    1301                      .dwattr $C$DW$71, DW_AT_name("INTx5")
    1302                      .dwattr $C$DW$71, DW_AT_TI_symbol_name("_INTx5")
    1303                      .dwattr $C$DW$71, DW_AT_bit_offset(0x0b), DW_AT_bit_size(0x01)
    1304                      .dwattr $C$DW$71, DW_AT_data_member_location[DW_OP_plus_uconst 0x0]
    1305                      .dwattr $C$DW$71, DW_AT_accessibility(DW_ACCESS_public)
TMS320C2000 Assembler PC v6.4.2 Thu Dec 14 15:26:49 2017

Tools Copyright (c) 1996-2015 Texas Instruments Incorporated
interrupt.asm                                                        PAGE   26

    1306              $C$DW$72        .dwtag  DW_TAG_member
    1307                      .dwattr $C$DW$72, DW_AT_type(*$C$DW$T$19)
    1308                      .dwattr $C$DW$72, DW_AT_name("INTx6")
    1309                      .dwattr $C$DW$72, DW_AT_TI_symbol_name("_INTx6")
    1310                      .dwattr $C$DW$72, DW_AT_bit_offset(0x0a), DW_AT_bit_size(0x01)
    1311                      .dwattr $C$DW$72, DW_AT_data_member_location[DW_OP_plus_uconst 0x0]
    1312                      .dwattr $C$DW$72, DW_AT_accessibility(DW_ACCESS_public)
    1313              $C$DW$73        .dwtag  DW_TAG_member
    1314                      .dwattr $C$DW$73, DW_AT_type(*$C$DW$T$19)
    1315                      .dwattr $C$DW$73, DW_AT_name("INTx7")
    1316                      .dwattr $C$DW$73, DW_AT_TI_symbol_name("_INTx7")
    1317                      .dwattr $C$DW$73, DW_AT_bit_offset(0x09), DW_AT_bit_size(0x01)
    1318                      .dwattr $C$DW$73, DW_AT_data_member_location[DW_OP_plus_uconst 0x0]
    1319                      .dwattr $C$DW$73, DW_AT_accessibility(DW_ACCESS_public)
    1320              $C$DW$74        .dwtag  DW_TAG_member
    1321                      .dwattr $C$DW$74, DW_AT_type(*$C$DW$T$19)
    1322                      .dwattr $C$DW$74, DW_AT_name("INTx8")
    1323                      .dwattr $C$DW$74, DW_AT_TI_symbol_name("_INTx8")
    1324                      .dwattr $C$DW$74, DW_AT_bit_offset(0x08), DW_AT_bit_size(0x01)
    1325                      .dwattr $C$DW$74, DW_AT_data_member_location[DW_OP_plus_uconst 0x0]
    1326                      .dwattr $C$DW$74, DW_AT_accessibility(DW_ACCESS_public)
    1327              $C$DW$75        .dwtag  DW_TAG_member
    1328                      .dwattr $C$DW$75, DW_AT_type(*$C$DW$T$19)
    1329                      .dwattr $C$DW$75, DW_AT_name("INTx9")
    1330                      .dwattr $C$DW$75, DW_AT_TI_symbol_name("_INTx9")
    1331                      .dwattr $C$DW$75, DW_AT_bit_offset(0x07), DW_AT_bit_size(0x01)
    1332                      .dwattr $C$DW$75, DW_AT_data_member_location[DW_OP_plus_uconst 0x0]
    1333                      .dwattr $C$DW$75, DW_AT_accessibility(DW_ACCESS_public)
    1334              $C$DW$76        .dwtag  DW_TAG_member
    1335                      .dwattr $C$DW$76, DW_AT_type(*$C$DW$T$19)
    1336                      .dwattr $C$DW$76, DW_AT_name("INTx10")
    1337                      .dwattr $C$DW$76, DW_AT_TI_symbol_name("_INTx10")
    1338                      .dwattr $C$DW$76, DW_AT_bit_offset(0x06), DW_AT_bit_size(0x01)
    1339                      .dwattr $C$DW$76, DW_AT_data_member_location[DW_OP_plus_uconst 0x0]
    1340                      .dwattr $C$DW$76, DW_AT_accessibility(DW_ACCESS_public)
    1341              $C$DW$77        .dwtag  DW_TAG_member
    1342                      .dwattr $C$DW$77, DW_AT_type(*$C$DW$T$19)
    1343                      .dwattr $C$DW$77, DW_AT_name("INTx11")
    1344                      .dwattr $C$DW$77, DW_AT_TI_symbol_name("_INTx11")
    1345                      .dwattr $C$DW$77, DW_AT_bit_offset(0x05), DW_AT_bit_size(0x01)
    1346                      .dwattr $C$DW$77, DW_AT_data_member_location[DW_OP_plus_uconst 0x0]
    1347                      .dwattr $C$DW$77, DW_AT_accessibility(DW_ACCESS_public)
    1348              $C$DW$78        .dwtag  DW_TAG_member
    1349                      .dwattr $C$DW$78, DW_AT_type(*$C$DW$T$19)
    1350                      .dwattr $C$DW$78, DW_AT_name("INTx12")
    1351                      .dwattr $C$DW$78, DW_AT_TI_symbol_name("_INTx12")
    1352                      .dwattr $C$DW$78, DW_AT_bit_offset(0x04), DW_AT_bit_size(0x01)
    1353                      .dwattr $C$DW$78, DW_AT_data_member_location[DW_OP_plus_uconst 0x0]
    1354                      .dwattr $C$DW$78, DW_AT_accessibility(DW_ACCESS_public)
    1355              $C$DW$79        .dwtag  DW_TAG_member
    1356                      .dwattr $C$DW$79, DW_AT_type(*$C$DW$T$19)
    1357                      .dwattr $C$DW$79, DW_AT_name("INTx13")
    1358                      .dwattr $C$DW$79, DW_AT_TI_symbol_name("_INTx13")
    1359                      .dwattr $C$DW$79, DW_AT_bit_offset(0x03), DW_AT_bit_size(0x01)
    1360                      .dwattr $C$DW$79, DW_AT_data_member_location[DW_OP_plus_uconst 0x0]
TMS320C2000 Assembler PC v6.4.2 Thu Dec 14 15:26:49 2017

Tools Copyright (c) 1996-2015 Texas Instruments Incorporated
interrupt.asm                                                        PAGE   27

    1361                      .dwattr $C$DW$79, DW_AT_accessibility(DW_ACCESS_public)
    1362              $C$DW$80        .dwtag  DW_TAG_member
    1363                      .dwattr $C$DW$80, DW_AT_type(*$C$DW$T$19)
    1364                      .dwattr $C$DW$80, DW_AT_name("INTx14")
    1365                      .dwattr $C$DW$80, DW_AT_TI_symbol_name("_INTx14")
    1366                      .dwattr $C$DW$80, DW_AT_bit_offset(0x02), DW_AT_bit_size(0x01)
    1367                      .dwattr $C$DW$80, DW_AT_data_member_location[DW_OP_plus_uconst 0x0]
    1368                      .dwattr $C$DW$80, DW_AT_accessibility(DW_ACCESS_public)
    1369              $C$DW$81        .dwtag  DW_TAG_member
    1370                      .dwattr $C$DW$81, DW_AT_type(*$C$DW$T$19)
    1371                      .dwattr $C$DW$81, DW_AT_name("INTx15")
    1372                      .dwattr $C$DW$81, DW_AT_TI_symbol_name("_INTx15")
    1373                      .dwattr $C$DW$81, DW_AT_bit_offset(0x01), DW_AT_bit_size(0x01)
    1374                      .dwattr $C$DW$81, DW_AT_data_member_location[DW_OP_plus_uconst 0x0]
    1375                      .dwattr $C$DW$81, DW_AT_accessibility(DW_ACCESS_public)
    1376              $C$DW$82        .dwtag  DW_TAG_member
    1377                      .dwattr $C$DW$82, DW_AT_type(*$C$DW$T$19)
    1378                      .dwattr $C$DW$82, DW_AT_name("INTx16")
    1379                      .dwattr $C$DW$82, DW_AT_TI_symbol_name("_INTx16")
    1380                      .dwattr $C$DW$82, DW_AT_bit_offset(0x00), DW_AT_bit_size(0x01)
    1381                      .dwattr $C$DW$82, DW_AT_data_member_location[DW_OP_plus_uconst 0x0]
    1382                      .dwattr $C$DW$82, DW_AT_accessibility(DW_ACCESS_public)
    1383                      .dwendtag $C$DW$T$24
    1384              
    1385              
    1386              $C$DW$T$25      .dwtag  DW_TAG_union_type
    1387                      .dwattr $C$DW$T$25, DW_AT_name("PIEIER10_REG")
    1388                      .dwattr $C$DW$T$25, DW_AT_byte_size(0x01)
    1389              $C$DW$83        .dwtag  DW_TAG_member
    1390                      .dwattr $C$DW$83, DW_AT_type(*$C$DW$T$19)
    1391                      .dwattr $C$DW$83, DW_AT_name("all")
    1392                      .dwattr $C$DW$83, DW_AT_TI_symbol_name("_all")
    1393                      .dwattr $C$DW$83, DW_AT_data_member_location[DW_OP_plus_uconst 0x0]
    1394                      .dwattr $C$DW$83, DW_AT_accessibility(DW_ACCESS_public)
    1395              $C$DW$84        .dwtag  DW_TAG_member
    1396                      .dwattr $C$DW$84, DW_AT_type(*$C$DW$T$24)
    1397                      .dwattr $C$DW$84, DW_AT_name("bit")
    1398                      .dwattr $C$DW$84, DW_AT_TI_symbol_name("_bit")
    1399                      .dwattr $C$DW$84, DW_AT_data_member_location[DW_OP_plus_uconst 0x0]
    1400                      .dwattr $C$DW$84, DW_AT_accessibility(DW_ACCESS_public)
    1401                      .dwendtag $C$DW$T$25
    1402              
    1403              
    1404              $C$DW$T$26      .dwtag  DW_TAG_structure_type
    1405                      .dwattr $C$DW$T$26, DW_AT_name("PIEIER11_BITS")
    1406                      .dwattr $C$DW$T$26, DW_AT_byte_size(0x01)
    1407              $C$DW$85        .dwtag  DW_TAG_member
    1408                      .dwattr $C$DW$85, DW_AT_type(*$C$DW$T$19)
    1409                      .dwattr $C$DW$85, DW_AT_name("INTx1")
    1410                      .dwattr $C$DW$85, DW_AT_TI_symbol_name("_INTx1")
    1411                      .dwattr $C$DW$85, DW_AT_bit_offset(0x0f), DW_AT_bit_size(0x01)
    1412                      .dwattr $C$DW$85, DW_AT_data_member_location[DW_OP_plus_uconst 0x0]
    1413                      .dwattr $C$DW$85, DW_AT_accessibility(DW_ACCESS_public)
    1414              $C$DW$86        .dwtag  DW_TAG_member
    1415                      .dwattr $C$DW$86, DW_AT_type(*$C$DW$T$19)
TMS320C2000 Assembler PC v6.4.2 Thu Dec 14 15:26:49 2017

Tools Copyright (c) 1996-2015 Texas Instruments Incorporated
interrupt.asm                                                        PAGE   28

    1416                      .dwattr $C$DW$86, DW_AT_name("INTx2")
    1417                      .dwattr $C$DW$86, DW_AT_TI_symbol_name("_INTx2")
    1418                      .dwattr $C$DW$86, DW_AT_bit_offset(0x0e), DW_AT_bit_size(0x01)
    1419                      .dwattr $C$DW$86, DW_AT_data_member_location[DW_OP_plus_uconst 0x0]
    1420                      .dwattr $C$DW$86, DW_AT_accessibility(DW_ACCESS_public)
    1421              $C$DW$87        .dwtag  DW_TAG_member
    1422                      .dwattr $C$DW$87, DW_AT_type(*$C$DW$T$19)
    1423                      .dwattr $C$DW$87, DW_AT_name("INTx3")
    1424                      .dwattr $C$DW$87, DW_AT_TI_symbol_name("_INTx3")
    1425                      .dwattr $C$DW$87, DW_AT_bit_offset(0x0d), DW_AT_bit_size(0x01)
    1426                      .dwattr $C$DW$87, DW_AT_data_member_location[DW_OP_plus_uconst 0x0]
    1427                      .dwattr $C$DW$87, DW_AT_accessibility(DW_ACCESS_public)
    1428              $C$DW$88        .dwtag  DW_TAG_member
    1429                      .dwattr $C$DW$88, DW_AT_type(*$C$DW$T$19)
    1430                      .dwattr $C$DW$88, DW_AT_name("INTx4")
    1431                      .dwattr $C$DW$88, DW_AT_TI_symbol_name("_INTx4")
    1432                      .dwattr $C$DW$88, DW_AT_bit_offset(0x0c), DW_AT_bit_size(0x01)
    1433                      .dwattr $C$DW$88, DW_AT_data_member_location[DW_OP_plus_uconst 0x0]
    1434                      .dwattr $C$DW$88, DW_AT_accessibility(DW_ACCESS_public)
    1435              $C$DW$89        .dwtag  DW_TAG_member
    1436                      .dwattr $C$DW$89, DW_AT_type(*$C$DW$T$19)
    1437                      .dwattr $C$DW$89, DW_AT_name("INTx5")
    1438                      .dwattr $C$DW$89, DW_AT_TI_symbol_name("_INTx5")
    1439                      .dwattr $C$DW$89, DW_AT_bit_offset(0x0b), DW_AT_bit_size(0x01)
    1440                      .dwattr $C$DW$89, DW_AT_data_member_location[DW_OP_plus_uconst 0x0]
    1441                      .dwattr $C$DW$89, DW_AT_accessibility(DW_ACCESS_public)
    1442              $C$DW$90        .dwtag  DW_TAG_member
    1443                      .dwattr $C$DW$90, DW_AT_type(*$C$DW$T$19)
    1444                      .dwattr $C$DW$90, DW_AT_name("INTx6")
    1445                      .dwattr $C$DW$90, DW_AT_TI_symbol_name("_INTx6")
    1446                      .dwattr $C$DW$90, DW_AT_bit_offset(0x0a), DW_AT_bit_size(0x01)
    1447                      .dwattr $C$DW$90, DW_AT_data_member_location[DW_OP_plus_uconst 0x0]
    1448                      .dwattr $C$DW$90, DW_AT_accessibility(DW_ACCESS_public)
    1449              $C$DW$91        .dwtag  DW_TAG_member
    1450                      .dwattr $C$DW$91, DW_AT_type(*$C$DW$T$19)
    1451                      .dwattr $C$DW$91, DW_AT_name("INTx7")
    1452                      .dwattr $C$DW$91, DW_AT_TI_symbol_name("_INTx7")
    1453                      .dwattr $C$DW$91, DW_AT_bit_offset(0x09), DW_AT_bit_size(0x01)
    1454                      .dwattr $C$DW$91, DW_AT_data_member_location[DW_OP_plus_uconst 0x0]
    1455                      .dwattr $C$DW$91, DW_AT_accessibility(DW_ACCESS_public)
    1456              $C$DW$92        .dwtag  DW_TAG_member
    1457                      .dwattr $C$DW$92, DW_AT_type(*$C$DW$T$19)
    1458                      .dwattr $C$DW$92, DW_AT_name("INTx8")
    1459                      .dwattr $C$DW$92, DW_AT_TI_symbol_name("_INTx8")
    1460                      .dwattr $C$DW$92, DW_AT_bit_offset(0x08), DW_AT_bit_size(0x01)
    1461                      .dwattr $C$DW$92, DW_AT_data_member_location[DW_OP_plus_uconst 0x0]
    1462                      .dwattr $C$DW$92, DW_AT_accessibility(DW_ACCESS_public)
    1463              $C$DW$93        .dwtag  DW_TAG_member
    1464                      .dwattr $C$DW$93, DW_AT_type(*$C$DW$T$19)
    1465                      .dwattr $C$DW$93, DW_AT_name("INTx9")
    1466                      .dwattr $C$DW$93, DW_AT_TI_symbol_name("_INTx9")
    1467                      .dwattr $C$DW$93, DW_AT_bit_offset(0x07), DW_AT_bit_size(0x01)
    1468                      .dwattr $C$DW$93, DW_AT_data_member_location[DW_OP_plus_uconst 0x0]
    1469                      .dwattr $C$DW$93, DW_AT_accessibility(DW_ACCESS_public)
    1470              $C$DW$94        .dwtag  DW_TAG_member
TMS320C2000 Assembler PC v6.4.2 Thu Dec 14 15:26:49 2017

Tools Copyright (c) 1996-2015 Texas Instruments Incorporated
interrupt.asm                                                        PAGE   29

    1471                      .dwattr $C$DW$94, DW_AT_type(*$C$DW$T$19)
    1472                      .dwattr $C$DW$94, DW_AT_name("INTx10")
    1473                      .dwattr $C$DW$94, DW_AT_TI_symbol_name("_INTx10")
    1474                      .dwattr $C$DW$94, DW_AT_bit_offset(0x06), DW_AT_bit_size(0x01)
    1475                      .dwattr $C$DW$94, DW_AT_data_member_location[DW_OP_plus_uconst 0x0]
    1476                      .dwattr $C$DW$94, DW_AT_accessibility(DW_ACCESS_public)
    1477              $C$DW$95        .dwtag  DW_TAG_member
    1478                      .dwattr $C$DW$95, DW_AT_type(*$C$DW$T$19)
    1479                      .dwattr $C$DW$95, DW_AT_name("INTx11")
    1480                      .dwattr $C$DW$95, DW_AT_TI_symbol_name("_INTx11")
    1481                      .dwattr $C$DW$95, DW_AT_bit_offset(0x05), DW_AT_bit_size(0x01)
    1482                      .dwattr $C$DW$95, DW_AT_data_member_location[DW_OP_plus_uconst 0x0]
    1483                      .dwattr $C$DW$95, DW_AT_accessibility(DW_ACCESS_public)
    1484              $C$DW$96        .dwtag  DW_TAG_member
    1485                      .dwattr $C$DW$96, DW_AT_type(*$C$DW$T$19)
    1486                      .dwattr $C$DW$96, DW_AT_name("INTx12")
    1487                      .dwattr $C$DW$96, DW_AT_TI_symbol_name("_INTx12")
    1488                      .dwattr $C$DW$96, DW_AT_bit_offset(0x04), DW_AT_bit_size(0x01)
    1489                      .dwattr $C$DW$96, DW_AT_data_member_location[DW_OP_plus_uconst 0x0]
    1490                      .dwattr $C$DW$96, DW_AT_accessibility(DW_ACCESS_public)
    1491              $C$DW$97        .dwtag  DW_TAG_member
    1492                      .dwattr $C$DW$97, DW_AT_type(*$C$DW$T$19)
    1493                      .dwattr $C$DW$97, DW_AT_name("INTx13")
    1494                      .dwattr $C$DW$97, DW_AT_TI_symbol_name("_INTx13")
    1495                      .dwattr $C$DW$97, DW_AT_bit_offset(0x03), DW_AT_bit_size(0x01)
    1496                      .dwattr $C$DW$97, DW_AT_data_member_location[DW_OP_plus_uconst 0x0]
    1497                      .dwattr $C$DW$97, DW_AT_accessibility(DW_ACCESS_public)
    1498              $C$DW$98        .dwtag  DW_TAG_member
    1499                      .dwattr $C$DW$98, DW_AT_type(*$C$DW$T$19)
    1500                      .dwattr $C$DW$98, DW_AT_name("INTx14")
    1501                      .dwattr $C$DW$98, DW_AT_TI_symbol_name("_INTx14")
    1502                      .dwattr $C$DW$98, DW_AT_bit_offset(0x02), DW_AT_bit_size(0x01)
    1503                      .dwattr $C$DW$98, DW_AT_data_member_location[DW_OP_plus_uconst 0x0]
    1504                      .dwattr $C$DW$98, DW_AT_accessibility(DW_ACCESS_public)
    1505              $C$DW$99        .dwtag  DW_TAG_member
    1506                      .dwattr $C$DW$99, DW_AT_type(*$C$DW$T$19)
    1507                      .dwattr $C$DW$99, DW_AT_name("INTx15")
    1508                      .dwattr $C$DW$99, DW_AT_TI_symbol_name("_INTx15")
    1509                      .dwattr $C$DW$99, DW_AT_bit_offset(0x01), DW_AT_bit_size(0x01)
    1510                      .dwattr $C$DW$99, DW_AT_data_member_location[DW_OP_plus_uconst 0x0]
    1511                      .dwattr $C$DW$99, DW_AT_accessibility(DW_ACCESS_public)
    1512              $C$DW$100       .dwtag  DW_TAG_member
    1513                      .dwattr $C$DW$100, DW_AT_type(*$C$DW$T$19)
    1514                      .dwattr $C$DW$100, DW_AT_name("INTx16")
    1515                      .dwattr $C$DW$100, DW_AT_TI_symbol_name("_INTx16")
    1516                      .dwattr $C$DW$100, DW_AT_bit_offset(0x00), DW_AT_bit_size(0x01)
    1517                      .dwattr $C$DW$100, DW_AT_data_member_location[DW_OP_plus_uconst 0x0]
    1518                      .dwattr $C$DW$100, DW_AT_accessibility(DW_ACCESS_public)
    1519                      .dwendtag $C$DW$T$26
    1520              
    1521              
    1522              $C$DW$T$27      .dwtag  DW_TAG_union_type
    1523                      .dwattr $C$DW$T$27, DW_AT_name("PIEIER11_REG")
    1524                      .dwattr $C$DW$T$27, DW_AT_byte_size(0x01)
    1525              $C$DW$101       .dwtag  DW_TAG_member
TMS320C2000 Assembler PC v6.4.2 Thu Dec 14 15:26:49 2017

Tools Copyright (c) 1996-2015 Texas Instruments Incorporated
interrupt.asm                                                        PAGE   30

    1526                      .dwattr $C$DW$101, DW_AT_type(*$C$DW$T$19)
    1527                      .dwattr $C$DW$101, DW_AT_name("all")
    1528                      .dwattr $C$DW$101, DW_AT_TI_symbol_name("_all")
    1529                      .dwattr $C$DW$101, DW_AT_data_member_location[DW_OP_plus_uconst 0x0]
    1530                      .dwattr $C$DW$101, DW_AT_accessibility(DW_ACCESS_public)
    1531              $C$DW$102       .dwtag  DW_TAG_member
    1532                      .dwattr $C$DW$102, DW_AT_type(*$C$DW$T$26)
    1533                      .dwattr $C$DW$102, DW_AT_name("bit")
    1534                      .dwattr $C$DW$102, DW_AT_TI_symbol_name("_bit")
    1535                      .dwattr $C$DW$102, DW_AT_data_member_location[DW_OP_plus_uconst 0x0]
    1536                      .dwattr $C$DW$102, DW_AT_accessibility(DW_ACCESS_public)
    1537                      .dwendtag $C$DW$T$27
    1538              
    1539              
    1540              $C$DW$T$28      .dwtag  DW_TAG_structure_type
    1541                      .dwattr $C$DW$T$28, DW_AT_name("PIEIER12_BITS")
    1542                      .dwattr $C$DW$T$28, DW_AT_byte_size(0x01)
    1543              $C$DW$103       .dwtag  DW_TAG_member
    1544                      .dwattr $C$DW$103, DW_AT_type(*$C$DW$T$19)
    1545                      .dwattr $C$DW$103, DW_AT_name("INTx1")
    1546                      .dwattr $C$DW$103, DW_AT_TI_symbol_name("_INTx1")
    1547                      .dwattr $C$DW$103, DW_AT_bit_offset(0x0f), DW_AT_bit_size(0x01)
    1548                      .dwattr $C$DW$103, DW_AT_data_member_location[DW_OP_plus_uconst 0x0]
    1549                      .dwattr $C$DW$103, DW_AT_accessibility(DW_ACCESS_public)
    1550              $C$DW$104       .dwtag  DW_TAG_member
    1551                      .dwattr $C$DW$104, DW_AT_type(*$C$DW$T$19)
    1552                      .dwattr $C$DW$104, DW_AT_name("INTx2")
    1553                      .dwattr $C$DW$104, DW_AT_TI_symbol_name("_INTx2")
    1554                      .dwattr $C$DW$104, DW_AT_bit_offset(0x0e), DW_AT_bit_size(0x01)
    1555                      .dwattr $C$DW$104, DW_AT_data_member_location[DW_OP_plus_uconst 0x0]
    1556                      .dwattr $C$DW$104, DW_AT_accessibility(DW_ACCESS_public)
    1557              $C$DW$105       .dwtag  DW_TAG_member
    1558                      .dwattr $C$DW$105, DW_AT_type(*$C$DW$T$19)
    1559                      .dwattr $C$DW$105, DW_AT_name("INTx3")
    1560                      .dwattr $C$DW$105, DW_AT_TI_symbol_name("_INTx3")
    1561                      .dwattr $C$DW$105, DW_AT_bit_offset(0x0d), DW_AT_bit_size(0x01)
    1562                      .dwattr $C$DW$105, DW_AT_data_member_location[DW_OP_plus_uconst 0x0]
    1563                      .dwattr $C$DW$105, DW_AT_accessibility(DW_ACCESS_public)
    1564              $C$DW$106       .dwtag  DW_TAG_member
    1565                      .dwattr $C$DW$106, DW_AT_type(*$C$DW$T$19)
    1566                      .dwattr $C$DW$106, DW_AT_name("INTx4")
    1567                      .dwattr $C$DW$106, DW_AT_TI_symbol_name("_INTx4")
    1568                      .dwattr $C$DW$106, DW_AT_bit_offset(0x0c), DW_AT_bit_size(0x01)
    1569                      .dwattr $C$DW$106, DW_AT_data_member_location[DW_OP_plus_uconst 0x0]
    1570                      .dwattr $C$DW$106, DW_AT_accessibility(DW_ACCESS_public)
    1571              $C$DW$107       .dwtag  DW_TAG_member
    1572                      .dwattr $C$DW$107, DW_AT_type(*$C$DW$T$19)
    1573                      .dwattr $C$DW$107, DW_AT_name("INTx5")
    1574                      .dwattr $C$DW$107, DW_AT_TI_symbol_name("_INTx5")
    1575                      .dwattr $C$DW$107, DW_AT_bit_offset(0x0b), DW_AT_bit_size(0x01)
    1576                      .dwattr $C$DW$107, DW_AT_data_member_location[DW_OP_plus_uconst 0x0]
    1577                      .dwattr $C$DW$107, DW_AT_accessibility(DW_ACCESS_public)
    1578              $C$DW$108       .dwtag  DW_TAG_member
    1579                      .dwattr $C$DW$108, DW_AT_type(*$C$DW$T$19)
    1580                      .dwattr $C$DW$108, DW_AT_name("INTx6")
TMS320C2000 Assembler PC v6.4.2 Thu Dec 14 15:26:49 2017

Tools Copyright (c) 1996-2015 Texas Instruments Incorporated
interrupt.asm                                                        PAGE   31

    1581                      .dwattr $C$DW$108, DW_AT_TI_symbol_name("_INTx6")
    1582                      .dwattr $C$DW$108, DW_AT_bit_offset(0x0a), DW_AT_bit_size(0x01)
    1583                      .dwattr $C$DW$108, DW_AT_data_member_location[DW_OP_plus_uconst 0x0]
    1584                      .dwattr $C$DW$108, DW_AT_accessibility(DW_ACCESS_public)
    1585              $C$DW$109       .dwtag  DW_TAG_member
    1586                      .dwattr $C$DW$109, DW_AT_type(*$C$DW$T$19)
    1587                      .dwattr $C$DW$109, DW_AT_name("INTx7")
    1588                      .dwattr $C$DW$109, DW_AT_TI_symbol_name("_INTx7")
    1589                      .dwattr $C$DW$109, DW_AT_bit_offset(0x09), DW_AT_bit_size(0x01)
    1590                      .dwattr $C$DW$109, DW_AT_data_member_location[DW_OP_plus_uconst 0x0]
    1591                      .dwattr $C$DW$109, DW_AT_accessibility(DW_ACCESS_public)
    1592              $C$DW$110       .dwtag  DW_TAG_member
    1593                      .dwattr $C$DW$110, DW_AT_type(*$C$DW$T$19)
    1594                      .dwattr $C$DW$110, DW_AT_name("INTx8")
    1595                      .dwattr $C$DW$110, DW_AT_TI_symbol_name("_INTx8")
    1596                      .dwattr $C$DW$110, DW_AT_bit_offset(0x08), DW_AT_bit_size(0x01)
    1597                      .dwattr $C$DW$110, DW_AT_data_member_location[DW_OP_plus_uconst 0x0]
    1598                      .dwattr $C$DW$110, DW_AT_accessibility(DW_ACCESS_public)
    1599              $C$DW$111       .dwtag  DW_TAG_member
    1600                      .dwattr $C$DW$111, DW_AT_type(*$C$DW$T$19)
    1601                      .dwattr $C$DW$111, DW_AT_name("INTx9")
    1602                      .dwattr $C$DW$111, DW_AT_TI_symbol_name("_INTx9")
    1603                      .dwattr $C$DW$111, DW_AT_bit_offset(0x07), DW_AT_bit_size(0x01)
    1604                      .dwattr $C$DW$111, DW_AT_data_member_location[DW_OP_plus_uconst 0x0]
    1605                      .dwattr $C$DW$111, DW_AT_accessibility(DW_ACCESS_public)
    1606              $C$DW$112       .dwtag  DW_TAG_member
    1607                      .dwattr $C$DW$112, DW_AT_type(*$C$DW$T$19)
    1608                      .dwattr $C$DW$112, DW_AT_name("INTx10")
    1609                      .dwattr $C$DW$112, DW_AT_TI_symbol_name("_INTx10")
    1610                      .dwattr $C$DW$112, DW_AT_bit_offset(0x06), DW_AT_bit_size(0x01)
    1611                      .dwattr $C$DW$112, DW_AT_data_member_location[DW_OP_plus_uconst 0x0]
    1612                      .dwattr $C$DW$112, DW_AT_accessibility(DW_ACCESS_public)
    1613              $C$DW$113       .dwtag  DW_TAG_member
    1614                      .dwattr $C$DW$113, DW_AT_type(*$C$DW$T$19)
    1615                      .dwattr $C$DW$113, DW_AT_name("INTx11")
    1616                      .dwattr $C$DW$113, DW_AT_TI_symbol_name("_INTx11")
    1617                      .dwattr $C$DW$113, DW_AT_bit_offset(0x05), DW_AT_bit_size(0x01)
    1618                      .dwattr $C$DW$113, DW_AT_data_member_location[DW_OP_plus_uconst 0x0]
    1619                      .dwattr $C$DW$113, DW_AT_accessibility(DW_ACCESS_public)
    1620              $C$DW$114       .dwtag  DW_TAG_member
    1621                      .dwattr $C$DW$114, DW_AT_type(*$C$DW$T$19)
    1622                      .dwattr $C$DW$114, DW_AT_name("INTx12")
    1623                      .dwattr $C$DW$114, DW_AT_TI_symbol_name("_INTx12")
    1624                      .dwattr $C$DW$114, DW_AT_bit_offset(0x04), DW_AT_bit_size(0x01)
    1625                      .dwattr $C$DW$114, DW_AT_data_member_location[DW_OP_plus_uconst 0x0]
    1626                      .dwattr $C$DW$114, DW_AT_accessibility(DW_ACCESS_public)
    1627              $C$DW$115       .dwtag  DW_TAG_member
    1628                      .dwattr $C$DW$115, DW_AT_type(*$C$DW$T$19)
    1629                      .dwattr $C$DW$115, DW_AT_name("INTx13")
    1630                      .dwattr $C$DW$115, DW_AT_TI_symbol_name("_INTx13")
    1631                      .dwattr $C$DW$115, DW_AT_bit_offset(0x03), DW_AT_bit_size(0x01)
    1632                      .dwattr $C$DW$115, DW_AT_data_member_location[DW_OP_plus_uconst 0x0]
    1633                      .dwattr $C$DW$115, DW_AT_accessibility(DW_ACCESS_public)
    1634              $C$DW$116       .dwtag  DW_TAG_member
    1635                      .dwattr $C$DW$116, DW_AT_type(*$C$DW$T$19)
TMS320C2000 Assembler PC v6.4.2 Thu Dec 14 15:26:49 2017

Tools Copyright (c) 1996-2015 Texas Instruments Incorporated
interrupt.asm                                                        PAGE   32

    1636                      .dwattr $C$DW$116, DW_AT_name("INTx14")
    1637                      .dwattr $C$DW$116, DW_AT_TI_symbol_name("_INTx14")
    1638                      .dwattr $C$DW$116, DW_AT_bit_offset(0x02), DW_AT_bit_size(0x01)
    1639                      .dwattr $C$DW$116, DW_AT_data_member_location[DW_OP_plus_uconst 0x0]
    1640                      .dwattr $C$DW$116, DW_AT_accessibility(DW_ACCESS_public)
    1641              $C$DW$117       .dwtag  DW_TAG_member
    1642                      .dwattr $C$DW$117, DW_AT_type(*$C$DW$T$19)
    1643                      .dwattr $C$DW$117, DW_AT_name("INTx15")
    1644                      .dwattr $C$DW$117, DW_AT_TI_symbol_name("_INTx15")
    1645                      .dwattr $C$DW$117, DW_AT_bit_offset(0x01), DW_AT_bit_size(0x01)
    1646                      .dwattr $C$DW$117, DW_AT_data_member_location[DW_OP_plus_uconst 0x0]
    1647                      .dwattr $C$DW$117, DW_AT_accessibility(DW_ACCESS_public)
    1648              $C$DW$118       .dwtag  DW_TAG_member
    1649                      .dwattr $C$DW$118, DW_AT_type(*$C$DW$T$19)
    1650                      .dwattr $C$DW$118, DW_AT_name("INTx16")
    1651                      .dwattr $C$DW$118, DW_AT_TI_symbol_name("_INTx16")
    1652                      .dwattr $C$DW$118, DW_AT_bit_offset(0x00), DW_AT_bit_size(0x01)
    1653                      .dwattr $C$DW$118, DW_AT_data_member_location[DW_OP_plus_uconst 0x0]
    1654                      .dwattr $C$DW$118, DW_AT_accessibility(DW_ACCESS_public)
    1655                      .dwendtag $C$DW$T$28
    1656              
    1657              
    1658              $C$DW$T$29      .dwtag  DW_TAG_union_type
    1659                      .dwattr $C$DW$T$29, DW_AT_name("PIEIER12_REG")
    1660                      .dwattr $C$DW$T$29, DW_AT_byte_size(0x01)
    1661              $C$DW$119       .dwtag  DW_TAG_member
    1662                      .dwattr $C$DW$119, DW_AT_type(*$C$DW$T$19)
    1663                      .dwattr $C$DW$119, DW_AT_name("all")
    1664                      .dwattr $C$DW$119, DW_AT_TI_symbol_name("_all")
    1665                      .dwattr $C$DW$119, DW_AT_data_member_location[DW_OP_plus_uconst 0x0]
    1666                      .dwattr $C$DW$119, DW_AT_accessibility(DW_ACCESS_public)
    1667              $C$DW$120       .dwtag  DW_TAG_member
    1668                      .dwattr $C$DW$120, DW_AT_type(*$C$DW$T$28)
    1669                      .dwattr $C$DW$120, DW_AT_name("bit")
    1670                      .dwattr $C$DW$120, DW_AT_TI_symbol_name("_bit")
    1671                      .dwattr $C$DW$120, DW_AT_data_member_location[DW_OP_plus_uconst 0x0]
    1672                      .dwattr $C$DW$120, DW_AT_accessibility(DW_ACCESS_public)
    1673                      .dwendtag $C$DW$T$29
    1674              
    1675              
    1676              $C$DW$T$30      .dwtag  DW_TAG_structure_type
    1677                      .dwattr $C$DW$T$30, DW_AT_name("PIEIER1_BITS")
    1678                      .dwattr $C$DW$T$30, DW_AT_byte_size(0x01)
    1679              $C$DW$121       .dwtag  DW_TAG_member
    1680                      .dwattr $C$DW$121, DW_AT_type(*$C$DW$T$19)
    1681                      .dwattr $C$DW$121, DW_AT_name("INTx1")
    1682                      .dwattr $C$DW$121, DW_AT_TI_symbol_name("_INTx1")
    1683                      .dwattr $C$DW$121, DW_AT_bit_offset(0x0f), DW_AT_bit_size(0x01)
    1684                      .dwattr $C$DW$121, DW_AT_data_member_location[DW_OP_plus_uconst 0x0]
    1685                      .dwattr $C$DW$121, DW_AT_accessibility(DW_ACCESS_public)
    1686              $C$DW$122       .dwtag  DW_TAG_member
    1687                      .dwattr $C$DW$122, DW_AT_type(*$C$DW$T$19)
    1688                      .dwattr $C$DW$122, DW_AT_name("INTx2")
    1689                      .dwattr $C$DW$122, DW_AT_TI_symbol_name("_INTx2")
    1690                      .dwattr $C$DW$122, DW_AT_bit_offset(0x0e), DW_AT_bit_size(0x01)
TMS320C2000 Assembler PC v6.4.2 Thu Dec 14 15:26:49 2017

Tools Copyright (c) 1996-2015 Texas Instruments Incorporated
interrupt.asm                                                        PAGE   33

    1691                      .dwattr $C$DW$122, DW_AT_data_member_location[DW_OP_plus_uconst 0x0]
    1692                      .dwattr $C$DW$122, DW_AT_accessibility(DW_ACCESS_public)
    1693              $C$DW$123       .dwtag  DW_TAG_member
    1694                      .dwattr $C$DW$123, DW_AT_type(*$C$DW$T$19)
    1695                      .dwattr $C$DW$123, DW_AT_name("INTx3")
    1696                      .dwattr $C$DW$123, DW_AT_TI_symbol_name("_INTx3")
    1697                      .dwattr $C$DW$123, DW_AT_bit_offset(0x0d), DW_AT_bit_size(0x01)
    1698                      .dwattr $C$DW$123, DW_AT_data_member_location[DW_OP_plus_uconst 0x0]
    1699                      .dwattr $C$DW$123, DW_AT_accessibility(DW_ACCESS_public)
    1700              $C$DW$124       .dwtag  DW_TAG_member
    1701                      .dwattr $C$DW$124, DW_AT_type(*$C$DW$T$19)
    1702                      .dwattr $C$DW$124, DW_AT_name("INTx4")
    1703                      .dwattr $C$DW$124, DW_AT_TI_symbol_name("_INTx4")
    1704                      .dwattr $C$DW$124, DW_AT_bit_offset(0x0c), DW_AT_bit_size(0x01)
    1705                      .dwattr $C$DW$124, DW_AT_data_member_location[DW_OP_plus_uconst 0x0]
    1706                      .dwattr $C$DW$124, DW_AT_accessibility(DW_ACCESS_public)
    1707              $C$DW$125       .dwtag  DW_TAG_member
    1708                      .dwattr $C$DW$125, DW_AT_type(*$C$DW$T$19)
    1709                      .dwattr $C$DW$125, DW_AT_name("INTx5")
    1710                      .dwattr $C$DW$125, DW_AT_TI_symbol_name("_INTx5")
    1711                      .dwattr $C$DW$125, DW_AT_bit_offset(0x0b), DW_AT_bit_size(0x01)
    1712                      .dwattr $C$DW$125, DW_AT_data_member_location[DW_OP_plus_uconst 0x0]
    1713                      .dwattr $C$DW$125, DW_AT_accessibility(DW_ACCESS_public)
    1714              $C$DW$126       .dwtag  DW_TAG_member
    1715                      .dwattr $C$DW$126, DW_AT_type(*$C$DW$T$19)
    1716                      .dwattr $C$DW$126, DW_AT_name("INTx6")
    1717                      .dwattr $C$DW$126, DW_AT_TI_symbol_name("_INTx6")
    1718                      .dwattr $C$DW$126, DW_AT_bit_offset(0x0a), DW_AT_bit_size(0x01)
    1719                      .dwattr $C$DW$126, DW_AT_data_member_location[DW_OP_plus_uconst 0x0]
    1720                      .dwattr $C$DW$126, DW_AT_accessibility(DW_ACCESS_public)
    1721              $C$DW$127       .dwtag  DW_TAG_member
    1722                      .dwattr $C$DW$127, DW_AT_type(*$C$DW$T$19)
    1723                      .dwattr $C$DW$127, DW_AT_name("INTx7")
    1724                      .dwattr $C$DW$127, DW_AT_TI_symbol_name("_INTx7")
    1725                      .dwattr $C$DW$127, DW_AT_bit_offset(0x09), DW_AT_bit_size(0x01)
    1726                      .dwattr $C$DW$127, DW_AT_data_member_location[DW_OP_plus_uconst 0x0]
    1727                      .dwattr $C$DW$127, DW_AT_accessibility(DW_ACCESS_public)
    1728              $C$DW$128       .dwtag  DW_TAG_member
    1729                      .dwattr $C$DW$128, DW_AT_type(*$C$DW$T$19)
    1730                      .dwattr $C$DW$128, DW_AT_name("INTx8")
    1731                      .dwattr $C$DW$128, DW_AT_TI_symbol_name("_INTx8")
    1732                      .dwattr $C$DW$128, DW_AT_bit_offset(0x08), DW_AT_bit_size(0x01)
    1733                      .dwattr $C$DW$128, DW_AT_data_member_location[DW_OP_plus_uconst 0x0]
    1734                      .dwattr $C$DW$128, DW_AT_accessibility(DW_ACCESS_public)
    1735              $C$DW$129       .dwtag  DW_TAG_member
    1736                      .dwattr $C$DW$129, DW_AT_type(*$C$DW$T$19)
    1737                      .dwattr $C$DW$129, DW_AT_name("INTx9")
    1738                      .dwattr $C$DW$129, DW_AT_TI_symbol_name("_INTx9")
    1739                      .dwattr $C$DW$129, DW_AT_bit_offset(0x07), DW_AT_bit_size(0x01)
    1740                      .dwattr $C$DW$129, DW_AT_data_member_location[DW_OP_plus_uconst 0x0]
    1741                      .dwattr $C$DW$129, DW_AT_accessibility(DW_ACCESS_public)
    1742              $C$DW$130       .dwtag  DW_TAG_member
    1743                      .dwattr $C$DW$130, DW_AT_type(*$C$DW$T$19)
    1744                      .dwattr $C$DW$130, DW_AT_name("INTx10")
    1745                      .dwattr $C$DW$130, DW_AT_TI_symbol_name("_INTx10")
TMS320C2000 Assembler PC v6.4.2 Thu Dec 14 15:26:49 2017

Tools Copyright (c) 1996-2015 Texas Instruments Incorporated
interrupt.asm                                                        PAGE   34

    1746                      .dwattr $C$DW$130, DW_AT_bit_offset(0x06), DW_AT_bit_size(0x01)
    1747                      .dwattr $C$DW$130, DW_AT_data_member_location[DW_OP_plus_uconst 0x0]
    1748                      .dwattr $C$DW$130, DW_AT_accessibility(DW_ACCESS_public)
    1749              $C$DW$131       .dwtag  DW_TAG_member
    1750                      .dwattr $C$DW$131, DW_AT_type(*$C$DW$T$19)
    1751                      .dwattr $C$DW$131, DW_AT_name("INTx11")
    1752                      .dwattr $C$DW$131, DW_AT_TI_symbol_name("_INTx11")
    1753                      .dwattr $C$DW$131, DW_AT_bit_offset(0x05), DW_AT_bit_size(0x01)
    1754                      .dwattr $C$DW$131, DW_AT_data_member_location[DW_OP_plus_uconst 0x0]
    1755                      .dwattr $C$DW$131, DW_AT_accessibility(DW_ACCESS_public)
    1756              $C$DW$132       .dwtag  DW_TAG_member
    1757                      .dwattr $C$DW$132, DW_AT_type(*$C$DW$T$19)
    1758                      .dwattr $C$DW$132, DW_AT_name("INTx12")
    1759                      .dwattr $C$DW$132, DW_AT_TI_symbol_name("_INTx12")
    1760                      .dwattr $C$DW$132, DW_AT_bit_offset(0x04), DW_AT_bit_size(0x01)
    1761                      .dwattr $C$DW$132, DW_AT_data_member_location[DW_OP_plus_uconst 0x0]
    1762                      .dwattr $C$DW$132, DW_AT_accessibility(DW_ACCESS_public)
    1763              $C$DW$133       .dwtag  DW_TAG_member
    1764                      .dwattr $C$DW$133, DW_AT_type(*$C$DW$T$19)
    1765                      .dwattr $C$DW$133, DW_AT_name("INTx13")
    1766                      .dwattr $C$DW$133, DW_AT_TI_symbol_name("_INTx13")
    1767                      .dwattr $C$DW$133, DW_AT_bit_offset(0x03), DW_AT_bit_size(0x01)
    1768                      .dwattr $C$DW$133, DW_AT_data_member_location[DW_OP_plus_uconst 0x0]
    1769                      .dwattr $C$DW$133, DW_AT_accessibility(DW_ACCESS_public)
    1770              $C$DW$134       .dwtag  DW_TAG_member
    1771                      .dwattr $C$DW$134, DW_AT_type(*$C$DW$T$19)
    1772                      .dwattr $C$DW$134, DW_AT_name("INTx14")
    1773                      .dwattr $C$DW$134, DW_AT_TI_symbol_name("_INTx14")
    1774                      .dwattr $C$DW$134, DW_AT_bit_offset(0x02), DW_AT_bit_size(0x01)
    1775                      .dwattr $C$DW$134, DW_AT_data_member_location[DW_OP_plus_uconst 0x0]
    1776                      .dwattr $C$DW$134, DW_AT_accessibility(DW_ACCESS_public)
    1777              $C$DW$135       .dwtag  DW_TAG_member
    1778                      .dwattr $C$DW$135, DW_AT_type(*$C$DW$T$19)
    1779                      .dwattr $C$DW$135, DW_AT_name("INTx15")
    1780                      .dwattr $C$DW$135, DW_AT_TI_symbol_name("_INTx15")
    1781                      .dwattr $C$DW$135, DW_AT_bit_offset(0x01), DW_AT_bit_size(0x01)
    1782                      .dwattr $C$DW$135, DW_AT_data_member_location[DW_OP_plus_uconst 0x0]
    1783                      .dwattr $C$DW$135, DW_AT_accessibility(DW_ACCESS_public)
    1784              $C$DW$136       .dwtag  DW_TAG_member
    1785                      .dwattr $C$DW$136, DW_AT_type(*$C$DW$T$19)
    1786                      .dwattr $C$DW$136, DW_AT_name("INTx16")
    1787                      .dwattr $C$DW$136, DW_AT_TI_symbol_name("_INTx16")
    1788                      .dwattr $C$DW$136, DW_AT_bit_offset(0x00), DW_AT_bit_size(0x01)
    1789                      .dwattr $C$DW$136, DW_AT_data_member_location[DW_OP_plus_uconst 0x0]
    1790                      .dwattr $C$DW$136, DW_AT_accessibility(DW_ACCESS_public)
    1791                      .dwendtag $C$DW$T$30
    1792              
    1793              
    1794              $C$DW$T$31      .dwtag  DW_TAG_union_type
    1795                      .dwattr $C$DW$T$31, DW_AT_name("PIEIER1_REG")
    1796                      .dwattr $C$DW$T$31, DW_AT_byte_size(0x01)
    1797              $C$DW$137       .dwtag  DW_TAG_member
    1798                      .dwattr $C$DW$137, DW_AT_type(*$C$DW$T$19)
    1799                      .dwattr $C$DW$137, DW_AT_name("all")
    1800                      .dwattr $C$DW$137, DW_AT_TI_symbol_name("_all")
TMS320C2000 Assembler PC v6.4.2 Thu Dec 14 15:26:49 2017

Tools Copyright (c) 1996-2015 Texas Instruments Incorporated
interrupt.asm                                                        PAGE   35

    1801                      .dwattr $C$DW$137, DW_AT_data_member_location[DW_OP_plus_uconst 0x0]
    1802                      .dwattr $C$DW$137, DW_AT_accessibility(DW_ACCESS_public)
    1803              $C$DW$138       .dwtag  DW_TAG_member
    1804                      .dwattr $C$DW$138, DW_AT_type(*$C$DW$T$30)
    1805                      .dwattr $C$DW$138, DW_AT_name("bit")
    1806                      .dwattr $C$DW$138, DW_AT_TI_symbol_name("_bit")
    1807                      .dwattr $C$DW$138, DW_AT_data_member_location[DW_OP_plus_uconst 0x0]
    1808                      .dwattr $C$DW$138, DW_AT_accessibility(DW_ACCESS_public)
    1809                      .dwendtag $C$DW$T$31
    1810              
    1811              
    1812              $C$DW$T$32      .dwtag  DW_TAG_structure_type
    1813                      .dwattr $C$DW$T$32, DW_AT_name("PIEIER2_BITS")
    1814                      .dwattr $C$DW$T$32, DW_AT_byte_size(0x01)
    1815              $C$DW$139       .dwtag  DW_TAG_member
    1816                      .dwattr $C$DW$139, DW_AT_type(*$C$DW$T$19)
    1817                      .dwattr $C$DW$139, DW_AT_name("INTx1")
    1818                      .dwattr $C$DW$139, DW_AT_TI_symbol_name("_INTx1")
    1819                      .dwattr $C$DW$139, DW_AT_bit_offset(0x0f), DW_AT_bit_size(0x01)
    1820                      .dwattr $C$DW$139, DW_AT_data_member_location[DW_OP_plus_uconst 0x0]
    1821                      .dwattr $C$DW$139, DW_AT_accessibility(DW_ACCESS_public)
    1822              $C$DW$140       .dwtag  DW_TAG_member
    1823                      .dwattr $C$DW$140, DW_AT_type(*$C$DW$T$19)
    1824                      .dwattr $C$DW$140, DW_AT_name("INTx2")
    1825                      .dwattr $C$DW$140, DW_AT_TI_symbol_name("_INTx2")
    1826                      .dwattr $C$DW$140, DW_AT_bit_offset(0x0e), DW_AT_bit_size(0x01)
    1827                      .dwattr $C$DW$140, DW_AT_data_member_location[DW_OP_plus_uconst 0x0]
    1828                      .dwattr $C$DW$140, DW_AT_accessibility(DW_ACCESS_public)
    1829              $C$DW$141       .dwtag  DW_TAG_member
    1830                      .dwattr $C$DW$141, DW_AT_type(*$C$DW$T$19)
    1831                      .dwattr $C$DW$141, DW_AT_name("INTx3")
    1832                      .dwattr $C$DW$141, DW_AT_TI_symbol_name("_INTx3")
    1833                      .dwattr $C$DW$141, DW_AT_bit_offset(0x0d), DW_AT_bit_size(0x01)
    1834                      .dwattr $C$DW$141, DW_AT_data_member_location[DW_OP_plus_uconst 0x0]
    1835                      .dwattr $C$DW$141, DW_AT_accessibility(DW_ACCESS_public)
    1836              $C$DW$142       .dwtag  DW_TAG_member
    1837                      .dwattr $C$DW$142, DW_AT_type(*$C$DW$T$19)
    1838                      .dwattr $C$DW$142, DW_AT_name("INTx4")
    1839                      .dwattr $C$DW$142, DW_AT_TI_symbol_name("_INTx4")
    1840                      .dwattr $C$DW$142, DW_AT_bit_offset(0x0c), DW_AT_bit_size(0x01)
    1841                      .dwattr $C$DW$142, DW_AT_data_member_location[DW_OP_plus_uconst 0x0]
    1842                      .dwattr $C$DW$142, DW_AT_accessibility(DW_ACCESS_public)
    1843              $C$DW$143       .dwtag  DW_TAG_member
    1844                      .dwattr $C$DW$143, DW_AT_type(*$C$DW$T$19)
    1845                      .dwattr $C$DW$143, DW_AT_name("INTx5")
    1846                      .dwattr $C$DW$143, DW_AT_TI_symbol_name("_INTx5")
    1847                      .dwattr $C$DW$143, DW_AT_bit_offset(0x0b), DW_AT_bit_size(0x01)
    1848                      .dwattr $C$DW$143, DW_AT_data_member_location[DW_OP_plus_uconst 0x0]
    1849                      .dwattr $C$DW$143, DW_AT_accessibility(DW_ACCESS_public)
    1850              $C$DW$144       .dwtag  DW_TAG_member
    1851                      .dwattr $C$DW$144, DW_AT_type(*$C$DW$T$19)
    1852                      .dwattr $C$DW$144, DW_AT_name("INTx6")
    1853                      .dwattr $C$DW$144, DW_AT_TI_symbol_name("_INTx6")
    1854                      .dwattr $C$DW$144, DW_AT_bit_offset(0x0a), DW_AT_bit_size(0x01)
    1855                      .dwattr $C$DW$144, DW_AT_data_member_location[DW_OP_plus_uconst 0x0]
TMS320C2000 Assembler PC v6.4.2 Thu Dec 14 15:26:49 2017

Tools Copyright (c) 1996-2015 Texas Instruments Incorporated
interrupt.asm                                                        PAGE   36

    1856                      .dwattr $C$DW$144, DW_AT_accessibility(DW_ACCESS_public)
    1857              $C$DW$145       .dwtag  DW_TAG_member
    1858                      .dwattr $C$DW$145, DW_AT_type(*$C$DW$T$19)
    1859                      .dwattr $C$DW$145, DW_AT_name("INTx7")
    1860                      .dwattr $C$DW$145, DW_AT_TI_symbol_name("_INTx7")
    1861                      .dwattr $C$DW$145, DW_AT_bit_offset(0x09), DW_AT_bit_size(0x01)
    1862                      .dwattr $C$DW$145, DW_AT_data_member_location[DW_OP_plus_uconst 0x0]
    1863                      .dwattr $C$DW$145, DW_AT_accessibility(DW_ACCESS_public)
    1864              $C$DW$146       .dwtag  DW_TAG_member
    1865                      .dwattr $C$DW$146, DW_AT_type(*$C$DW$T$19)
    1866                      .dwattr $C$DW$146, DW_AT_name("INTx8")
    1867                      .dwattr $C$DW$146, DW_AT_TI_symbol_name("_INTx8")
    1868                      .dwattr $C$DW$146, DW_AT_bit_offset(0x08), DW_AT_bit_size(0x01)
    1869                      .dwattr $C$DW$146, DW_AT_data_member_location[DW_OP_plus_uconst 0x0]
    1870                      .dwattr $C$DW$146, DW_AT_accessibility(DW_ACCESS_public)
    1871              $C$DW$147       .dwtag  DW_TAG_member
    1872                      .dwattr $C$DW$147, DW_AT_type(*$C$DW$T$19)
    1873                      .dwattr $C$DW$147, DW_AT_name("INTx9")
    1874                      .dwattr $C$DW$147, DW_AT_TI_symbol_name("_INTx9")
    1875                      .dwattr $C$DW$147, DW_AT_bit_offset(0x07), DW_AT_bit_size(0x01)
    1876                      .dwattr $C$DW$147, DW_AT_data_member_location[DW_OP_plus_uconst 0x0]
    1877                      .dwattr $C$DW$147, DW_AT_accessibility(DW_ACCESS_public)
    1878              $C$DW$148       .dwtag  DW_TAG_member
    1879                      .dwattr $C$DW$148, DW_AT_type(*$C$DW$T$19)
    1880                      .dwattr $C$DW$148, DW_AT_name("INTx10")
    1881                      .dwattr $C$DW$148, DW_AT_TI_symbol_name("_INTx10")
    1882                      .dwattr $C$DW$148, DW_AT_bit_offset(0x06), DW_AT_bit_size(0x01)
    1883                      .dwattr $C$DW$148, DW_AT_data_member_location[DW_OP_plus_uconst 0x0]
    1884                      .dwattr $C$DW$148, DW_AT_accessibility(DW_ACCESS_public)
    1885              $C$DW$149       .dwtag  DW_TAG_member
    1886                      .dwattr $C$DW$149, DW_AT_type(*$C$DW$T$19)
    1887                      .dwattr $C$DW$149, DW_AT_name("INTx11")
    1888                      .dwattr $C$DW$149, DW_AT_TI_symbol_name("_INTx11")
    1889                      .dwattr $C$DW$149, DW_AT_bit_offset(0x05), DW_AT_bit_size(0x01)
    1890                      .dwattr $C$DW$149, DW_AT_data_member_location[DW_OP_plus_uconst 0x0]
    1891                      .dwattr $C$DW$149, DW_AT_accessibility(DW_ACCESS_public)
    1892              $C$DW$150       .dwtag  DW_TAG_member
    1893                      .dwattr $C$DW$150, DW_AT_type(*$C$DW$T$19)
    1894                      .dwattr $C$DW$150, DW_AT_name("INTx12")
    1895                      .dwattr $C$DW$150, DW_AT_TI_symbol_name("_INTx12")
    1896                      .dwattr $C$DW$150, DW_AT_bit_offset(0x04), DW_AT_bit_size(0x01)
    1897                      .dwattr $C$DW$150, DW_AT_data_member_location[DW_OP_plus_uconst 0x0]
    1898                      .dwattr $C$DW$150, DW_AT_accessibility(DW_ACCESS_public)
    1899              $C$DW$151       .dwtag  DW_TAG_member
    1900                      .dwattr $C$DW$151, DW_AT_type(*$C$DW$T$19)
    1901                      .dwattr $C$DW$151, DW_AT_name("INTx13")
    1902                      .dwattr $C$DW$151, DW_AT_TI_symbol_name("_INTx13")
    1903                      .dwattr $C$DW$151, DW_AT_bit_offset(0x03), DW_AT_bit_size(0x01)
    1904                      .dwattr $C$DW$151, DW_AT_data_member_location[DW_OP_plus_uconst 0x0]
    1905                      .dwattr $C$DW$151, DW_AT_accessibility(DW_ACCESS_public)
    1906              $C$DW$152       .dwtag  DW_TAG_member
    1907                      .dwattr $C$DW$152, DW_AT_type(*$C$DW$T$19)
    1908                      .dwattr $C$DW$152, DW_AT_name("INTx14")
    1909                      .dwattr $C$DW$152, DW_AT_TI_symbol_name("_INTx14")
    1910                      .dwattr $C$DW$152, DW_AT_bit_offset(0x02), DW_AT_bit_size(0x01)
TMS320C2000 Assembler PC v6.4.2 Thu Dec 14 15:26:49 2017

Tools Copyright (c) 1996-2015 Texas Instruments Incorporated
interrupt.asm                                                        PAGE   37

    1911                      .dwattr $C$DW$152, DW_AT_data_member_location[DW_OP_plus_uconst 0x0]
    1912                      .dwattr $C$DW$152, DW_AT_accessibility(DW_ACCESS_public)
    1913              $C$DW$153       .dwtag  DW_TAG_member
    1914                      .dwattr $C$DW$153, DW_AT_type(*$C$DW$T$19)
    1915                      .dwattr $C$DW$153, DW_AT_name("INTx15")
    1916                      .dwattr $C$DW$153, DW_AT_TI_symbol_name("_INTx15")
    1917                      .dwattr $C$DW$153, DW_AT_bit_offset(0x01), DW_AT_bit_size(0x01)
    1918                      .dwattr $C$DW$153, DW_AT_data_member_location[DW_OP_plus_uconst 0x0]
    1919                      .dwattr $C$DW$153, DW_AT_accessibility(DW_ACCESS_public)
    1920              $C$DW$154       .dwtag  DW_TAG_member
    1921                      .dwattr $C$DW$154, DW_AT_type(*$C$DW$T$19)
    1922                      .dwattr $C$DW$154, DW_AT_name("INTx16")
    1923                      .dwattr $C$DW$154, DW_AT_TI_symbol_name("_INTx16")
    1924                      .dwattr $C$DW$154, DW_AT_bit_offset(0x00), DW_AT_bit_size(0x01)
    1925                      .dwattr $C$DW$154, DW_AT_data_member_location[DW_OP_plus_uconst 0x0]
    1926                      .dwattr $C$DW$154, DW_AT_accessibility(DW_ACCESS_public)
    1927                      .dwendtag $C$DW$T$32
    1928              
    1929              
    1930              $C$DW$T$33      .dwtag  DW_TAG_union_type
    1931                      .dwattr $C$DW$T$33, DW_AT_name("PIEIER2_REG")
    1932                      .dwattr $C$DW$T$33, DW_AT_byte_size(0x01)
    1933              $C$DW$155       .dwtag  DW_TAG_member
    1934                      .dwattr $C$DW$155, DW_AT_type(*$C$DW$T$19)
    1935                      .dwattr $C$DW$155, DW_AT_name("all")
    1936                      .dwattr $C$DW$155, DW_AT_TI_symbol_name("_all")
    1937                      .dwattr $C$DW$155, DW_AT_data_member_location[DW_OP_plus_uconst 0x0]
    1938                      .dwattr $C$DW$155, DW_AT_accessibility(DW_ACCESS_public)
    1939              $C$DW$156       .dwtag  DW_TAG_member
    1940                      .dwattr $C$DW$156, DW_AT_type(*$C$DW$T$32)
    1941                      .dwattr $C$DW$156, DW_AT_name("bit")
    1942                      .dwattr $C$DW$156, DW_AT_TI_symbol_name("_bit")
    1943                      .dwattr $C$DW$156, DW_AT_data_member_location[DW_OP_plus_uconst 0x0]
    1944                      .dwattr $C$DW$156, DW_AT_accessibility(DW_ACCESS_public)
    1945                      .dwendtag $C$DW$T$33
    1946              
    1947              
    1948              $C$DW$T$34      .dwtag  DW_TAG_structure_type
    1949                      .dwattr $C$DW$T$34, DW_AT_name("PIEIER3_BITS")
    1950                      .dwattr $C$DW$T$34, DW_AT_byte_size(0x01)
    1951              $C$DW$157       .dwtag  DW_TAG_member
    1952                      .dwattr $C$DW$157, DW_AT_type(*$C$DW$T$19)
    1953                      .dwattr $C$DW$157, DW_AT_name("INTx1")
    1954                      .dwattr $C$DW$157, DW_AT_TI_symbol_name("_INTx1")
    1955                      .dwattr $C$DW$157, DW_AT_bit_offset(0x0f), DW_AT_bit_size(0x01)
    1956                      .dwattr $C$DW$157, DW_AT_data_member_location[DW_OP_plus_uconst 0x0]
    1957                      .dwattr $C$DW$157, DW_AT_accessibility(DW_ACCESS_public)
    1958              $C$DW$158       .dwtag  DW_TAG_member
    1959                      .dwattr $C$DW$158, DW_AT_type(*$C$DW$T$19)
    1960                      .dwattr $C$DW$158, DW_AT_name("INTx2")
    1961                      .dwattr $C$DW$158, DW_AT_TI_symbol_name("_INTx2")
    1962                      .dwattr $C$DW$158, DW_AT_bit_offset(0x0e), DW_AT_bit_size(0x01)
    1963                      .dwattr $C$DW$158, DW_AT_data_member_location[DW_OP_plus_uconst 0x0]
    1964                      .dwattr $C$DW$158, DW_AT_accessibility(DW_ACCESS_public)
    1965              $C$DW$159       .dwtag  DW_TAG_member
TMS320C2000 Assembler PC v6.4.2 Thu Dec 14 15:26:49 2017

Tools Copyright (c) 1996-2015 Texas Instruments Incorporated
interrupt.asm                                                        PAGE   38

    1966                      .dwattr $C$DW$159, DW_AT_type(*$C$DW$T$19)
    1967                      .dwattr $C$DW$159, DW_AT_name("INTx3")
    1968                      .dwattr $C$DW$159, DW_AT_TI_symbol_name("_INTx3")
    1969                      .dwattr $C$DW$159, DW_AT_bit_offset(0x0d), DW_AT_bit_size(0x01)
    1970                      .dwattr $C$DW$159, DW_AT_data_member_location[DW_OP_plus_uconst 0x0]
    1971                      .dwattr $C$DW$159, DW_AT_accessibility(DW_ACCESS_public)
    1972              $C$DW$160       .dwtag  DW_TAG_member
    1973                      .dwattr $C$DW$160, DW_AT_type(*$C$DW$T$19)
    1974                      .dwattr $C$DW$160, DW_AT_name("INTx4")
    1975                      .dwattr $C$DW$160, DW_AT_TI_symbol_name("_INTx4")
    1976                      .dwattr $C$DW$160, DW_AT_bit_offset(0x0c), DW_AT_bit_size(0x01)
    1977                      .dwattr $C$DW$160, DW_AT_data_member_location[DW_OP_plus_uconst 0x0]
    1978                      .dwattr $C$DW$160, DW_AT_accessibility(DW_ACCESS_public)
    1979              $C$DW$161       .dwtag  DW_TAG_member
    1980                      .dwattr $C$DW$161, DW_AT_type(*$C$DW$T$19)
    1981                      .dwattr $C$DW$161, DW_AT_name("INTx5")
    1982                      .dwattr $C$DW$161, DW_AT_TI_symbol_name("_INTx5")
    1983                      .dwattr $C$DW$161, DW_AT_bit_offset(0x0b), DW_AT_bit_size(0x01)
    1984                      .dwattr $C$DW$161, DW_AT_data_member_location[DW_OP_plus_uconst 0x0]
    1985                      .dwattr $C$DW$161, DW_AT_accessibility(DW_ACCESS_public)
    1986              $C$DW$162       .dwtag  DW_TAG_member
    1987                      .dwattr $C$DW$162, DW_AT_type(*$C$DW$T$19)
    1988                      .dwattr $C$DW$162, DW_AT_name("INTx6")
    1989                      .dwattr $C$DW$162, DW_AT_TI_symbol_name("_INTx6")
    1990                      .dwattr $C$DW$162, DW_AT_bit_offset(0x0a), DW_AT_bit_size(0x01)
    1991                      .dwattr $C$DW$162, DW_AT_data_member_location[DW_OP_plus_uconst 0x0]
    1992                      .dwattr $C$DW$162, DW_AT_accessibility(DW_ACCESS_public)
    1993              $C$DW$163       .dwtag  DW_TAG_member
    1994                      .dwattr $C$DW$163, DW_AT_type(*$C$DW$T$19)
    1995                      .dwattr $C$DW$163, DW_AT_name("INTx7")
    1996                      .dwattr $C$DW$163, DW_AT_TI_symbol_name("_INTx7")
    1997                      .dwattr $C$DW$163, DW_AT_bit_offset(0x09), DW_AT_bit_size(0x01)
    1998                      .dwattr $C$DW$163, DW_AT_data_member_location[DW_OP_plus_uconst 0x0]
    1999                      .dwattr $C$DW$163, DW_AT_accessibility(DW_ACCESS_public)
    2000              $C$DW$164       .dwtag  DW_TAG_member
    2001                      .dwattr $C$DW$164, DW_AT_type(*$C$DW$T$19)
    2002                      .dwattr $C$DW$164, DW_AT_name("INTx8")
    2003                      .dwattr $C$DW$164, DW_AT_TI_symbol_name("_INTx8")
    2004                      .dwattr $C$DW$164, DW_AT_bit_offset(0x08), DW_AT_bit_size(0x01)
    2005                      .dwattr $C$DW$164, DW_AT_data_member_location[DW_OP_plus_uconst 0x0]
    2006                      .dwattr $C$DW$164, DW_AT_accessibility(DW_ACCESS_public)
    2007              $C$DW$165       .dwtag  DW_TAG_member
    2008                      .dwattr $C$DW$165, DW_AT_type(*$C$DW$T$19)
    2009                      .dwattr $C$DW$165, DW_AT_name("INTx9")
    2010                      .dwattr $C$DW$165, DW_AT_TI_symbol_name("_INTx9")
    2011                      .dwattr $C$DW$165, DW_AT_bit_offset(0x07), DW_AT_bit_size(0x01)
    2012                      .dwattr $C$DW$165, DW_AT_data_member_location[DW_OP_plus_uconst 0x0]
    2013                      .dwattr $C$DW$165, DW_AT_accessibility(DW_ACCESS_public)
    2014              $C$DW$166       .dwtag  DW_TAG_member
    2015                      .dwattr $C$DW$166, DW_AT_type(*$C$DW$T$19)
    2016                      .dwattr $C$DW$166, DW_AT_name("INTx10")
    2017                      .dwattr $C$DW$166, DW_AT_TI_symbol_name("_INTx10")
    2018                      .dwattr $C$DW$166, DW_AT_bit_offset(0x06), DW_AT_bit_size(0x01)
    2019                      .dwattr $C$DW$166, DW_AT_data_member_location[DW_OP_plus_uconst 0x0]
    2020                      .dwattr $C$DW$166, DW_AT_accessibility(DW_ACCESS_public)
TMS320C2000 Assembler PC v6.4.2 Thu Dec 14 15:26:49 2017

Tools Copyright (c) 1996-2015 Texas Instruments Incorporated
interrupt.asm                                                        PAGE   39

    2021              $C$DW$167       .dwtag  DW_TAG_member
    2022                      .dwattr $C$DW$167, DW_AT_type(*$C$DW$T$19)
    2023                      .dwattr $C$DW$167, DW_AT_name("INTx11")
    2024                      .dwattr $C$DW$167, DW_AT_TI_symbol_name("_INTx11")
    2025                      .dwattr $C$DW$167, DW_AT_bit_offset(0x05), DW_AT_bit_size(0x01)
    2026                      .dwattr $C$DW$167, DW_AT_data_member_location[DW_OP_plus_uconst 0x0]
    2027                      .dwattr $C$DW$167, DW_AT_accessibility(DW_ACCESS_public)
    2028              $C$DW$168       .dwtag  DW_TAG_member
    2029                      .dwattr $C$DW$168, DW_AT_type(*$C$DW$T$19)
    2030                      .dwattr $C$DW$168, DW_AT_name("INTx12")
    2031                      .dwattr $C$DW$168, DW_AT_TI_symbol_name("_INTx12")
    2032                      .dwattr $C$DW$168, DW_AT_bit_offset(0x04), DW_AT_bit_size(0x01)
    2033                      .dwattr $C$DW$168, DW_AT_data_member_location[DW_OP_plus_uconst 0x0]
    2034                      .dwattr $C$DW$168, DW_AT_accessibility(DW_ACCESS_public)
    2035              $C$DW$169       .dwtag  DW_TAG_member
    2036                      .dwattr $C$DW$169, DW_AT_type(*$C$DW$T$19)
    2037                      .dwattr $C$DW$169, DW_AT_name("INTx13")
    2038                      .dwattr $C$DW$169, DW_AT_TI_symbol_name("_INTx13")
    2039                      .dwattr $C$DW$169, DW_AT_bit_offset(0x03), DW_AT_bit_size(0x01)
    2040                      .dwattr $C$DW$169, DW_AT_data_member_location[DW_OP_plus_uconst 0x0]
    2041                      .dwattr $C$DW$169, DW_AT_accessibility(DW_ACCESS_public)
    2042              $C$DW$170       .dwtag  DW_TAG_member
    2043                      .dwattr $C$DW$170, DW_AT_type(*$C$DW$T$19)
    2044                      .dwattr $C$DW$170, DW_AT_name("INTx14")
    2045                      .dwattr $C$DW$170, DW_AT_TI_symbol_name("_INTx14")
    2046                      .dwattr $C$DW$170, DW_AT_bit_offset(0x02), DW_AT_bit_size(0x01)
    2047                      .dwattr $C$DW$170, DW_AT_data_member_location[DW_OP_plus_uconst 0x0]
    2048                      .dwattr $C$DW$170, DW_AT_accessibility(DW_ACCESS_public)
    2049              $C$DW$171       .dwtag  DW_TAG_member
    2050                      .dwattr $C$DW$171, DW_AT_type(*$C$DW$T$19)
    2051                      .dwattr $C$DW$171, DW_AT_name("INTx15")
    2052                      .dwattr $C$DW$171, DW_AT_TI_symbol_name("_INTx15")
    2053                      .dwattr $C$DW$171, DW_AT_bit_offset(0x01), DW_AT_bit_size(0x01)
    2054                      .dwattr $C$DW$171, DW_AT_data_member_location[DW_OP_plus_uconst 0x0]
    2055                      .dwattr $C$DW$171, DW_AT_accessibility(DW_ACCESS_public)
    2056              $C$DW$172       .dwtag  DW_TAG_member
    2057                      .dwattr $C$DW$172, DW_AT_type(*$C$DW$T$19)
    2058                      .dwattr $C$DW$172, DW_AT_name("INTx16")
    2059                      .dwattr $C$DW$172, DW_AT_TI_symbol_name("_INTx16")
    2060                      .dwattr $C$DW$172, DW_AT_bit_offset(0x00), DW_AT_bit_size(0x01)
    2061                      .dwattr $C$DW$172, DW_AT_data_member_location[DW_OP_plus_uconst 0x0]
    2062                      .dwattr $C$DW$172, DW_AT_accessibility(DW_ACCESS_public)
    2063                      .dwendtag $C$DW$T$34
    2064              
    2065              
    2066              $C$DW$T$35      .dwtag  DW_TAG_union_type
    2067                      .dwattr $C$DW$T$35, DW_AT_name("PIEIER3_REG")
    2068                      .dwattr $C$DW$T$35, DW_AT_byte_size(0x01)
    2069              $C$DW$173       .dwtag  DW_TAG_member
    2070                      .dwattr $C$DW$173, DW_AT_type(*$C$DW$T$19)
    2071                      .dwattr $C$DW$173, DW_AT_name("all")
    2072                      .dwattr $C$DW$173, DW_AT_TI_symbol_name("_all")
    2073                      .dwattr $C$DW$173, DW_AT_data_member_location[DW_OP_plus_uconst 0x0]
    2074                      .dwattr $C$DW$173, DW_AT_accessibility(DW_ACCESS_public)
    2075              $C$DW$174       .dwtag  DW_TAG_member
TMS320C2000 Assembler PC v6.4.2 Thu Dec 14 15:26:49 2017

Tools Copyright (c) 1996-2015 Texas Instruments Incorporated
interrupt.asm                                                        PAGE   40

    2076                      .dwattr $C$DW$174, DW_AT_type(*$C$DW$T$34)
    2077                      .dwattr $C$DW$174, DW_AT_name("bit")
    2078                      .dwattr $C$DW$174, DW_AT_TI_symbol_name("_bit")
    2079                      .dwattr $C$DW$174, DW_AT_data_member_location[DW_OP_plus_uconst 0x0]
    2080                      .dwattr $C$DW$174, DW_AT_accessibility(DW_ACCESS_public)
    2081                      .dwendtag $C$DW$T$35
    2082              
    2083              
    2084              $C$DW$T$36      .dwtag  DW_TAG_structure_type
    2085                      .dwattr $C$DW$T$36, DW_AT_name("PIEIER4_BITS")
    2086                      .dwattr $C$DW$T$36, DW_AT_byte_size(0x01)
    2087              $C$DW$175       .dwtag  DW_TAG_member
    2088                      .dwattr $C$DW$175, DW_AT_type(*$C$DW$T$19)
    2089                      .dwattr $C$DW$175, DW_AT_name("INTx1")
    2090                      .dwattr $C$DW$175, DW_AT_TI_symbol_name("_INTx1")
    2091                      .dwattr $C$DW$175, DW_AT_bit_offset(0x0f), DW_AT_bit_size(0x01)
    2092                      .dwattr $C$DW$175, DW_AT_data_member_location[DW_OP_plus_uconst 0x0]
    2093                      .dwattr $C$DW$175, DW_AT_accessibility(DW_ACCESS_public)
    2094              $C$DW$176       .dwtag  DW_TAG_member
    2095                      .dwattr $C$DW$176, DW_AT_type(*$C$DW$T$19)
    2096                      .dwattr $C$DW$176, DW_AT_name("INTx2")
    2097                      .dwattr $C$DW$176, DW_AT_TI_symbol_name("_INTx2")
    2098                      .dwattr $C$DW$176, DW_AT_bit_offset(0x0e), DW_AT_bit_size(0x01)
    2099                      .dwattr $C$DW$176, DW_AT_data_member_location[DW_OP_plus_uconst 0x0]
    2100                      .dwattr $C$DW$176, DW_AT_accessibility(DW_ACCESS_public)
    2101              $C$DW$177       .dwtag  DW_TAG_member
    2102                      .dwattr $C$DW$177, DW_AT_type(*$C$DW$T$19)
    2103                      .dwattr $C$DW$177, DW_AT_name("INTx3")
    2104                      .dwattr $C$DW$177, DW_AT_TI_symbol_name("_INTx3")
    2105                      .dwattr $C$DW$177, DW_AT_bit_offset(0x0d), DW_AT_bit_size(0x01)
    2106                      .dwattr $C$DW$177, DW_AT_data_member_location[DW_OP_plus_uconst 0x0]
    2107                      .dwattr $C$DW$177, DW_AT_accessibility(DW_ACCESS_public)
    2108              $C$DW$178       .dwtag  DW_TAG_member
    2109                      .dwattr $C$DW$178, DW_AT_type(*$C$DW$T$19)
    2110                      .dwattr $C$DW$178, DW_AT_name("INTx4")
    2111                      .dwattr $C$DW$178, DW_AT_TI_symbol_name("_INTx4")
    2112                      .dwattr $C$DW$178, DW_AT_bit_offset(0x0c), DW_AT_bit_size(0x01)
    2113                      .dwattr $C$DW$178, DW_AT_data_member_location[DW_OP_plus_uconst 0x0]
    2114                      .dwattr $C$DW$178, DW_AT_accessibility(DW_ACCESS_public)
    2115              $C$DW$179       .dwtag  DW_TAG_member
    2116                      .dwattr $C$DW$179, DW_AT_type(*$C$DW$T$19)
    2117                      .dwattr $C$DW$179, DW_AT_name("INTx5")
    2118                      .dwattr $C$DW$179, DW_AT_TI_symbol_name("_INTx5")
    2119                      .dwattr $C$DW$179, DW_AT_bit_offset(0x0b), DW_AT_bit_size(0x01)
    2120                      .dwattr $C$DW$179, DW_AT_data_member_location[DW_OP_plus_uconst 0x0]
    2121                      .dwattr $C$DW$179, DW_AT_accessibility(DW_ACCESS_public)
    2122              $C$DW$180       .dwtag  DW_TAG_member
    2123                      .dwattr $C$DW$180, DW_AT_type(*$C$DW$T$19)
    2124                      .dwattr $C$DW$180, DW_AT_name("INTx6")
    2125                      .dwattr $C$DW$180, DW_AT_TI_symbol_name("_INTx6")
    2126                      .dwattr $C$DW$180, DW_AT_bit_offset(0x0a), DW_AT_bit_size(0x01)
    2127                      .dwattr $C$DW$180, DW_AT_data_member_location[DW_OP_plus_uconst 0x0]
    2128                      .dwattr $C$DW$180, DW_AT_accessibility(DW_ACCESS_public)
    2129              $C$DW$181       .dwtag  DW_TAG_member
    2130                      .dwattr $C$DW$181, DW_AT_type(*$C$DW$T$19)
TMS320C2000 Assembler PC v6.4.2 Thu Dec 14 15:26:49 2017

Tools Copyright (c) 1996-2015 Texas Instruments Incorporated
interrupt.asm                                                        PAGE   41

    2131                      .dwattr $C$DW$181, DW_AT_name("INTx7")
    2132                      .dwattr $C$DW$181, DW_AT_TI_symbol_name("_INTx7")
    2133                      .dwattr $C$DW$181, DW_AT_bit_offset(0x09), DW_AT_bit_size(0x01)
    2134                      .dwattr $C$DW$181, DW_AT_data_member_location[DW_OP_plus_uconst 0x0]
    2135                      .dwattr $C$DW$181, DW_AT_accessibility(DW_ACCESS_public)
    2136              $C$DW$182       .dwtag  DW_TAG_member
    2137                      .dwattr $C$DW$182, DW_AT_type(*$C$DW$T$19)
    2138                      .dwattr $C$DW$182, DW_AT_name("INTx8")
    2139                      .dwattr $C$DW$182, DW_AT_TI_symbol_name("_INTx8")
    2140                      .dwattr $C$DW$182, DW_AT_bit_offset(0x08), DW_AT_bit_size(0x01)
    2141                      .dwattr $C$DW$182, DW_AT_data_member_location[DW_OP_plus_uconst 0x0]
    2142                      .dwattr $C$DW$182, DW_AT_accessibility(DW_ACCESS_public)
    2143              $C$DW$183       .dwtag  DW_TAG_member
    2144                      .dwattr $C$DW$183, DW_AT_type(*$C$DW$T$19)
    2145                      .dwattr $C$DW$183, DW_AT_name("INTx9")
    2146                      .dwattr $C$DW$183, DW_AT_TI_symbol_name("_INTx9")
    2147                      .dwattr $C$DW$183, DW_AT_bit_offset(0x07), DW_AT_bit_size(0x01)
    2148                      .dwattr $C$DW$183, DW_AT_data_member_location[DW_OP_plus_uconst 0x0]
    2149                      .dwattr $C$DW$183, DW_AT_accessibility(DW_ACCESS_public)
    2150              $C$DW$184       .dwtag  DW_TAG_member
    2151                      .dwattr $C$DW$184, DW_AT_type(*$C$DW$T$19)
    2152                      .dwattr $C$DW$184, DW_AT_name("INTx10")
    2153                      .dwattr $C$DW$184, DW_AT_TI_symbol_name("_INTx10")
    2154                      .dwattr $C$DW$184, DW_AT_bit_offset(0x06), DW_AT_bit_size(0x01)
    2155                      .dwattr $C$DW$184, DW_AT_data_member_location[DW_OP_plus_uconst 0x0]
    2156                      .dwattr $C$DW$184, DW_AT_accessibility(DW_ACCESS_public)
    2157              $C$DW$185       .dwtag  DW_TAG_member
    2158                      .dwattr $C$DW$185, DW_AT_type(*$C$DW$T$19)
    2159                      .dwattr $C$DW$185, DW_AT_name("INTx11")
    2160                      .dwattr $C$DW$185, DW_AT_TI_symbol_name("_INTx11")
    2161                      .dwattr $C$DW$185, DW_AT_bit_offset(0x05), DW_AT_bit_size(0x01)
    2162                      .dwattr $C$DW$185, DW_AT_data_member_location[DW_OP_plus_uconst 0x0]
    2163                      .dwattr $C$DW$185, DW_AT_accessibility(DW_ACCESS_public)
    2164              $C$DW$186       .dwtag  DW_TAG_member
    2165                      .dwattr $C$DW$186, DW_AT_type(*$C$DW$T$19)
    2166                      .dwattr $C$DW$186, DW_AT_name("INTx12")
    2167                      .dwattr $C$DW$186, DW_AT_TI_symbol_name("_INTx12")
    2168                      .dwattr $C$DW$186, DW_AT_bit_offset(0x04), DW_AT_bit_size(0x01)
    2169                      .dwattr $C$DW$186, DW_AT_data_member_location[DW_OP_plus_uconst 0x0]
    2170                      .dwattr $C$DW$186, DW_AT_accessibility(DW_ACCESS_public)
    2171              $C$DW$187       .dwtag  DW_TAG_member
    2172                      .dwattr $C$DW$187, DW_AT_type(*$C$DW$T$19)
    2173                      .dwattr $C$DW$187, DW_AT_name("INTx13")
    2174                      .dwattr $C$DW$187, DW_AT_TI_symbol_name("_INTx13")
    2175                      .dwattr $C$DW$187, DW_AT_bit_offset(0x03), DW_AT_bit_size(0x01)
    2176                      .dwattr $C$DW$187, DW_AT_data_member_location[DW_OP_plus_uconst 0x0]
    2177                      .dwattr $C$DW$187, DW_AT_accessibility(DW_ACCESS_public)
    2178              $C$DW$188       .dwtag  DW_TAG_member
    2179                      .dwattr $C$DW$188, DW_AT_type(*$C$DW$T$19)
    2180                      .dwattr $C$DW$188, DW_AT_name("INTx14")
    2181                      .dwattr $C$DW$188, DW_AT_TI_symbol_name("_INTx14")
    2182                      .dwattr $C$DW$188, DW_AT_bit_offset(0x02), DW_AT_bit_size(0x01)
    2183                      .dwattr $C$DW$188, DW_AT_data_member_location[DW_OP_plus_uconst 0x0]
    2184                      .dwattr $C$DW$188, DW_AT_accessibility(DW_ACCESS_public)
    2185              $C$DW$189       .dwtag  DW_TAG_member
TMS320C2000 Assembler PC v6.4.2 Thu Dec 14 15:26:49 2017

Tools Copyright (c) 1996-2015 Texas Instruments Incorporated
interrupt.asm                                                        PAGE   42

    2186                      .dwattr $C$DW$189, DW_AT_type(*$C$DW$T$19)
    2187                      .dwattr $C$DW$189, DW_AT_name("INTx15")
    2188                      .dwattr $C$DW$189, DW_AT_TI_symbol_name("_INTx15")
    2189                      .dwattr $C$DW$189, DW_AT_bit_offset(0x01), DW_AT_bit_size(0x01)
    2190                      .dwattr $C$DW$189, DW_AT_data_member_location[DW_OP_plus_uconst 0x0]
    2191                      .dwattr $C$DW$189, DW_AT_accessibility(DW_ACCESS_public)
    2192              $C$DW$190       .dwtag  DW_TAG_member
    2193                      .dwattr $C$DW$190, DW_AT_type(*$C$DW$T$19)
    2194                      .dwattr $C$DW$190, DW_AT_name("INTx16")
    2195                      .dwattr $C$DW$190, DW_AT_TI_symbol_name("_INTx16")
    2196                      .dwattr $C$DW$190, DW_AT_bit_offset(0x00), DW_AT_bit_size(0x01)
    2197                      .dwattr $C$DW$190, DW_AT_data_member_location[DW_OP_plus_uconst 0x0]
    2198                      .dwattr $C$DW$190, DW_AT_accessibility(DW_ACCESS_public)
    2199                      .dwendtag $C$DW$T$36
    2200              
    2201              
    2202              $C$DW$T$37      .dwtag  DW_TAG_union_type
    2203                      .dwattr $C$DW$T$37, DW_AT_name("PIEIER4_REG")
    2204                      .dwattr $C$DW$T$37, DW_AT_byte_size(0x01)
    2205              $C$DW$191       .dwtag  DW_TAG_member
    2206                      .dwattr $C$DW$191, DW_AT_type(*$C$DW$T$19)
    2207                      .dwattr $C$DW$191, DW_AT_name("all")
    2208                      .dwattr $C$DW$191, DW_AT_TI_symbol_name("_all")
    2209                      .dwattr $C$DW$191, DW_AT_data_member_location[DW_OP_plus_uconst 0x0]
    2210                      .dwattr $C$DW$191, DW_AT_accessibility(DW_ACCESS_public)
    2211              $C$DW$192       .dwtag  DW_TAG_member
    2212                      .dwattr $C$DW$192, DW_AT_type(*$C$DW$T$36)
    2213                      .dwattr $C$DW$192, DW_AT_name("bit")
    2214                      .dwattr $C$DW$192, DW_AT_TI_symbol_name("_bit")
    2215                      .dwattr $C$DW$192, DW_AT_data_member_location[DW_OP_plus_uconst 0x0]
    2216                      .dwattr $C$DW$192, DW_AT_accessibility(DW_ACCESS_public)
    2217                      .dwendtag $C$DW$T$37
    2218              
    2219              
    2220              $C$DW$T$38      .dwtag  DW_TAG_structure_type
    2221                      .dwattr $C$DW$T$38, DW_AT_name("PIEIER5_BITS")
    2222                      .dwattr $C$DW$T$38, DW_AT_byte_size(0x01)
    2223              $C$DW$193       .dwtag  DW_TAG_member
    2224                      .dwattr $C$DW$193, DW_AT_type(*$C$DW$T$19)
    2225                      .dwattr $C$DW$193, DW_AT_name("INTx1")
    2226                      .dwattr $C$DW$193, DW_AT_TI_symbol_name("_INTx1")
    2227                      .dwattr $C$DW$193, DW_AT_bit_offset(0x0f), DW_AT_bit_size(0x01)
    2228                      .dwattr $C$DW$193, DW_AT_data_member_location[DW_OP_plus_uconst 0x0]
    2229                      .dwattr $C$DW$193, DW_AT_accessibility(DW_ACCESS_public)
    2230              $C$DW$194       .dwtag  DW_TAG_member
    2231                      .dwattr $C$DW$194, DW_AT_type(*$C$DW$T$19)
    2232                      .dwattr $C$DW$194, DW_AT_name("INTx2")
    2233                      .dwattr $C$DW$194, DW_AT_TI_symbol_name("_INTx2")
    2234                      .dwattr $C$DW$194, DW_AT_bit_offset(0x0e), DW_AT_bit_size(0x01)
    2235                      .dwattr $C$DW$194, DW_AT_data_member_location[DW_OP_plus_uconst 0x0]
    2236                      .dwattr $C$DW$194, DW_AT_accessibility(DW_ACCESS_public)
    2237              $C$DW$195       .dwtag  DW_TAG_member
    2238                      .dwattr $C$DW$195, DW_AT_type(*$C$DW$T$19)
    2239                      .dwattr $C$DW$195, DW_AT_name("INTx3")
    2240                      .dwattr $C$DW$195, DW_AT_TI_symbol_name("_INTx3")
TMS320C2000 Assembler PC v6.4.2 Thu Dec 14 15:26:49 2017

Tools Copyright (c) 1996-2015 Texas Instruments Incorporated
interrupt.asm                                                        PAGE   43

    2241                      .dwattr $C$DW$195, DW_AT_bit_offset(0x0d), DW_AT_bit_size(0x01)
    2242                      .dwattr $C$DW$195, DW_AT_data_member_location[DW_OP_plus_uconst 0x0]
    2243                      .dwattr $C$DW$195, DW_AT_accessibility(DW_ACCESS_public)
    2244              $C$DW$196       .dwtag  DW_TAG_member
    2245                      .dwattr $C$DW$196, DW_AT_type(*$C$DW$T$19)
    2246                      .dwattr $C$DW$196, DW_AT_name("INTx4")
    2247                      .dwattr $C$DW$196, DW_AT_TI_symbol_name("_INTx4")
    2248                      .dwattr $C$DW$196, DW_AT_bit_offset(0x0c), DW_AT_bit_size(0x01)
    2249                      .dwattr $C$DW$196, DW_AT_data_member_location[DW_OP_plus_uconst 0x0]
    2250                      .dwattr $C$DW$196, DW_AT_accessibility(DW_ACCESS_public)
    2251              $C$DW$197       .dwtag  DW_TAG_member
    2252                      .dwattr $C$DW$197, DW_AT_type(*$C$DW$T$19)
    2253                      .dwattr $C$DW$197, DW_AT_name("INTx5")
    2254                      .dwattr $C$DW$197, DW_AT_TI_symbol_name("_INTx5")
    2255                      .dwattr $C$DW$197, DW_AT_bit_offset(0x0b), DW_AT_bit_size(0x01)
    2256                      .dwattr $C$DW$197, DW_AT_data_member_location[DW_OP_plus_uconst 0x0]
    2257                      .dwattr $C$DW$197, DW_AT_accessibility(DW_ACCESS_public)
    2258              $C$DW$198       .dwtag  DW_TAG_member
    2259                      .dwattr $C$DW$198, DW_AT_type(*$C$DW$T$19)
    2260                      .dwattr $C$DW$198, DW_AT_name("INTx6")
    2261                      .dwattr $C$DW$198, DW_AT_TI_symbol_name("_INTx6")
    2262                      .dwattr $C$DW$198, DW_AT_bit_offset(0x0a), DW_AT_bit_size(0x01)
    2263                      .dwattr $C$DW$198, DW_AT_data_member_location[DW_OP_plus_uconst 0x0]
    2264                      .dwattr $C$DW$198, DW_AT_accessibility(DW_ACCESS_public)
    2265              $C$DW$199       .dwtag  DW_TAG_member
    2266                      .dwattr $C$DW$199, DW_AT_type(*$C$DW$T$19)
    2267                      .dwattr $C$DW$199, DW_AT_name("INTx7")
    2268                      .dwattr $C$DW$199, DW_AT_TI_symbol_name("_INTx7")
    2269                      .dwattr $C$DW$199, DW_AT_bit_offset(0x09), DW_AT_bit_size(0x01)
    2270                      .dwattr $C$DW$199, DW_AT_data_member_location[DW_OP_plus_uconst 0x0]
    2271                      .dwattr $C$DW$199, DW_AT_accessibility(DW_ACCESS_public)
    2272              $C$DW$200       .dwtag  DW_TAG_member
    2273                      .dwattr $C$DW$200, DW_AT_type(*$C$DW$T$19)
    2274                      .dwattr $C$DW$200, DW_AT_name("INTx8")
    2275                      .dwattr $C$DW$200, DW_AT_TI_symbol_name("_INTx8")
    2276                      .dwattr $C$DW$200, DW_AT_bit_offset(0x08), DW_AT_bit_size(0x01)
    2277                      .dwattr $C$DW$200, DW_AT_data_member_location[DW_OP_plus_uconst 0x0]
    2278                      .dwattr $C$DW$200, DW_AT_accessibility(DW_ACCESS_public)
    2279              $C$DW$201       .dwtag  DW_TAG_member
    2280                      .dwattr $C$DW$201, DW_AT_type(*$C$DW$T$19)
    2281                      .dwattr $C$DW$201, DW_AT_name("INTx9")
    2282                      .dwattr $C$DW$201, DW_AT_TI_symbol_name("_INTx9")
    2283                      .dwattr $C$DW$201, DW_AT_bit_offset(0x07), DW_AT_bit_size(0x01)
    2284                      .dwattr $C$DW$201, DW_AT_data_member_location[DW_OP_plus_uconst 0x0]
    2285                      .dwattr $C$DW$201, DW_AT_accessibility(DW_ACCESS_public)
    2286              $C$DW$202       .dwtag  DW_TAG_member
    2287                      .dwattr $C$DW$202, DW_AT_type(*$C$DW$T$19)
    2288                      .dwattr $C$DW$202, DW_AT_name("INTx10")
    2289                      .dwattr $C$DW$202, DW_AT_TI_symbol_name("_INTx10")
    2290                      .dwattr $C$DW$202, DW_AT_bit_offset(0x06), DW_AT_bit_size(0x01)
    2291                      .dwattr $C$DW$202, DW_AT_data_member_location[DW_OP_plus_uconst 0x0]
    2292                      .dwattr $C$DW$202, DW_AT_accessibility(DW_ACCESS_public)
    2293              $C$DW$203       .dwtag  DW_TAG_member
    2294                      .dwattr $C$DW$203, DW_AT_type(*$C$DW$T$19)
    2295                      .dwattr $C$DW$203, DW_AT_name("INTx11")
TMS320C2000 Assembler PC v6.4.2 Thu Dec 14 15:26:49 2017

Tools Copyright (c) 1996-2015 Texas Instruments Incorporated
interrupt.asm                                                        PAGE   44

    2296                      .dwattr $C$DW$203, DW_AT_TI_symbol_name("_INTx11")
    2297                      .dwattr $C$DW$203, DW_AT_bit_offset(0x05), DW_AT_bit_size(0x01)
    2298                      .dwattr $C$DW$203, DW_AT_data_member_location[DW_OP_plus_uconst 0x0]
    2299                      .dwattr $C$DW$203, DW_AT_accessibility(DW_ACCESS_public)
    2300              $C$DW$204       .dwtag  DW_TAG_member
    2301                      .dwattr $C$DW$204, DW_AT_type(*$C$DW$T$19)
    2302                      .dwattr $C$DW$204, DW_AT_name("INTx12")
    2303                      .dwattr $C$DW$204, DW_AT_TI_symbol_name("_INTx12")
    2304                      .dwattr $C$DW$204, DW_AT_bit_offset(0x04), DW_AT_bit_size(0x01)
    2305                      .dwattr $C$DW$204, DW_AT_data_member_location[DW_OP_plus_uconst 0x0]
    2306                      .dwattr $C$DW$204, DW_AT_accessibility(DW_ACCESS_public)
    2307              $C$DW$205       .dwtag  DW_TAG_member
    2308                      .dwattr $C$DW$205, DW_AT_type(*$C$DW$T$19)
    2309                      .dwattr $C$DW$205, DW_AT_name("INTx13")
    2310                      .dwattr $C$DW$205, DW_AT_TI_symbol_name("_INTx13")
    2311                      .dwattr $C$DW$205, DW_AT_bit_offset(0x03), DW_AT_bit_size(0x01)
    2312                      .dwattr $C$DW$205, DW_AT_data_member_location[DW_OP_plus_uconst 0x0]
    2313                      .dwattr $C$DW$205, DW_AT_accessibility(DW_ACCESS_public)
    2314              $C$DW$206       .dwtag  DW_TAG_member
    2315                      .dwattr $C$DW$206, DW_AT_type(*$C$DW$T$19)
    2316                      .dwattr $C$DW$206, DW_AT_name("INTx14")
    2317                      .dwattr $C$DW$206, DW_AT_TI_symbol_name("_INTx14")
    2318                      .dwattr $C$DW$206, DW_AT_bit_offset(0x02), DW_AT_bit_size(0x01)
    2319                      .dwattr $C$DW$206, DW_AT_data_member_location[DW_OP_plus_uconst 0x0]
    2320                      .dwattr $C$DW$206, DW_AT_accessibility(DW_ACCESS_public)
    2321              $C$DW$207       .dwtag  DW_TAG_member
    2322                      .dwattr $C$DW$207, DW_AT_type(*$C$DW$T$19)
    2323                      .dwattr $C$DW$207, DW_AT_name("INTx15")
    2324                      .dwattr $C$DW$207, DW_AT_TI_symbol_name("_INTx15")
    2325                      .dwattr $C$DW$207, DW_AT_bit_offset(0x01), DW_AT_bit_size(0x01)
    2326                      .dwattr $C$DW$207, DW_AT_data_member_location[DW_OP_plus_uconst 0x0]
    2327                      .dwattr $C$DW$207, DW_AT_accessibility(DW_ACCESS_public)
    2328              $C$DW$208       .dwtag  DW_TAG_member
    2329                      .dwattr $C$DW$208, DW_AT_type(*$C$DW$T$19)
    2330                      .dwattr $C$DW$208, DW_AT_name("INTx16")
    2331                      .dwattr $C$DW$208, DW_AT_TI_symbol_name("_INTx16")
    2332                      .dwattr $C$DW$208, DW_AT_bit_offset(0x00), DW_AT_bit_size(0x01)
    2333                      .dwattr $C$DW$208, DW_AT_data_member_location[DW_OP_plus_uconst 0x0]
    2334                      .dwattr $C$DW$208, DW_AT_accessibility(DW_ACCESS_public)
    2335                      .dwendtag $C$DW$T$38
    2336              
    2337              
    2338              $C$DW$T$39      .dwtag  DW_TAG_union_type
    2339                      .dwattr $C$DW$T$39, DW_AT_name("PIEIER5_REG")
    2340                      .dwattr $C$DW$T$39, DW_AT_byte_size(0x01)
    2341              $C$DW$209       .dwtag  DW_TAG_member
    2342                      .dwattr $C$DW$209, DW_AT_type(*$C$DW$T$19)
    2343                      .dwattr $C$DW$209, DW_AT_name("all")
    2344                      .dwattr $C$DW$209, DW_AT_TI_symbol_name("_all")
    2345                      .dwattr $C$DW$209, DW_AT_data_member_location[DW_OP_plus_uconst 0x0]
    2346                      .dwattr $C$DW$209, DW_AT_accessibility(DW_ACCESS_public)
    2347              $C$DW$210       .dwtag  DW_TAG_member
    2348                      .dwattr $C$DW$210, DW_AT_type(*$C$DW$T$38)
    2349                      .dwattr $C$DW$210, DW_AT_name("bit")
    2350                      .dwattr $C$DW$210, DW_AT_TI_symbol_name("_bit")
TMS320C2000 Assembler PC v6.4.2 Thu Dec 14 15:26:49 2017

Tools Copyright (c) 1996-2015 Texas Instruments Incorporated
interrupt.asm                                                        PAGE   45

    2351                      .dwattr $C$DW$210, DW_AT_data_member_location[DW_OP_plus_uconst 0x0]
    2352                      .dwattr $C$DW$210, DW_AT_accessibility(DW_ACCESS_public)
    2353                      .dwendtag $C$DW$T$39
    2354              
    2355              
    2356              $C$DW$T$40      .dwtag  DW_TAG_structure_type
    2357                      .dwattr $C$DW$T$40, DW_AT_name("PIEIER6_BITS")
    2358                      .dwattr $C$DW$T$40, DW_AT_byte_size(0x01)
    2359              $C$DW$211       .dwtag  DW_TAG_member
    2360                      .dwattr $C$DW$211, DW_AT_type(*$C$DW$T$19)
    2361                      .dwattr $C$DW$211, DW_AT_name("INTx1")
    2362                      .dwattr $C$DW$211, DW_AT_TI_symbol_name("_INTx1")
    2363                      .dwattr $C$DW$211, DW_AT_bit_offset(0x0f), DW_AT_bit_size(0x01)
    2364                      .dwattr $C$DW$211, DW_AT_data_member_location[DW_OP_plus_uconst 0x0]
    2365                      .dwattr $C$DW$211, DW_AT_accessibility(DW_ACCESS_public)
    2366              $C$DW$212       .dwtag  DW_TAG_member
    2367                      .dwattr $C$DW$212, DW_AT_type(*$C$DW$T$19)
    2368                      .dwattr $C$DW$212, DW_AT_name("INTx2")
    2369                      .dwattr $C$DW$212, DW_AT_TI_symbol_name("_INTx2")
    2370                      .dwattr $C$DW$212, DW_AT_bit_offset(0x0e), DW_AT_bit_size(0x01)
    2371                      .dwattr $C$DW$212, DW_AT_data_member_location[DW_OP_plus_uconst 0x0]
    2372                      .dwattr $C$DW$212, DW_AT_accessibility(DW_ACCESS_public)
    2373              $C$DW$213       .dwtag  DW_TAG_member
    2374                      .dwattr $C$DW$213, DW_AT_type(*$C$DW$T$19)
    2375                      .dwattr $C$DW$213, DW_AT_name("INTx3")
    2376                      .dwattr $C$DW$213, DW_AT_TI_symbol_name("_INTx3")
    2377                      .dwattr $C$DW$213, DW_AT_bit_offset(0x0d), DW_AT_bit_size(0x01)
    2378                      .dwattr $C$DW$213, DW_AT_data_member_location[DW_OP_plus_uconst 0x0]
    2379                      .dwattr $C$DW$213, DW_AT_accessibility(DW_ACCESS_public)
    2380              $C$DW$214       .dwtag  DW_TAG_member
    2381                      .dwattr $C$DW$214, DW_AT_type(*$C$DW$T$19)
    2382                      .dwattr $C$DW$214, DW_AT_name("INTx4")
    2383                      .dwattr $C$DW$214, DW_AT_TI_symbol_name("_INTx4")
    2384                      .dwattr $C$DW$214, DW_AT_bit_offset(0x0c), DW_AT_bit_size(0x01)
    2385                      .dwattr $C$DW$214, DW_AT_data_member_location[DW_OP_plus_uconst 0x0]
    2386                      .dwattr $C$DW$214, DW_AT_accessibility(DW_ACCESS_public)
    2387              $C$DW$215       .dwtag  DW_TAG_member
    2388                      .dwattr $C$DW$215, DW_AT_type(*$C$DW$T$19)
    2389                      .dwattr $C$DW$215, DW_AT_name("INTx5")
    2390                      .dwattr $C$DW$215, DW_AT_TI_symbol_name("_INTx5")
    2391                      .dwattr $C$DW$215, DW_AT_bit_offset(0x0b), DW_AT_bit_size(0x01)
    2392                      .dwattr $C$DW$215, DW_AT_data_member_location[DW_OP_plus_uconst 0x0]
    2393                      .dwattr $C$DW$215, DW_AT_accessibility(DW_ACCESS_public)
    2394              $C$DW$216       .dwtag  DW_TAG_member
    2395                      .dwattr $C$DW$216, DW_AT_type(*$C$DW$T$19)
    2396                      .dwattr $C$DW$216, DW_AT_name("INTx6")
    2397                      .dwattr $C$DW$216, DW_AT_TI_symbol_name("_INTx6")
    2398                      .dwattr $C$DW$216, DW_AT_bit_offset(0x0a), DW_AT_bit_size(0x01)
    2399                      .dwattr $C$DW$216, DW_AT_data_member_location[DW_OP_plus_uconst 0x0]
    2400                      .dwattr $C$DW$216, DW_AT_accessibility(DW_ACCESS_public)
    2401              $C$DW$217       .dwtag  DW_TAG_member
    2402                      .dwattr $C$DW$217, DW_AT_type(*$C$DW$T$19)
    2403                      .dwattr $C$DW$217, DW_AT_name("INTx7")
    2404                      .dwattr $C$DW$217, DW_AT_TI_symbol_name("_INTx7")
    2405                      .dwattr $C$DW$217, DW_AT_bit_offset(0x09), DW_AT_bit_size(0x01)
TMS320C2000 Assembler PC v6.4.2 Thu Dec 14 15:26:49 2017

Tools Copyright (c) 1996-2015 Texas Instruments Incorporated
interrupt.asm                                                        PAGE   46

    2406                      .dwattr $C$DW$217, DW_AT_data_member_location[DW_OP_plus_uconst 0x0]
    2407                      .dwattr $C$DW$217, DW_AT_accessibility(DW_ACCESS_public)
    2408              $C$DW$218       .dwtag  DW_TAG_member
    2409                      .dwattr $C$DW$218, DW_AT_type(*$C$DW$T$19)
    2410                      .dwattr $C$DW$218, DW_AT_name("INTx8")
    2411                      .dwattr $C$DW$218, DW_AT_TI_symbol_name("_INTx8")
    2412                      .dwattr $C$DW$218, DW_AT_bit_offset(0x08), DW_AT_bit_size(0x01)
    2413                      .dwattr $C$DW$218, DW_AT_data_member_location[DW_OP_plus_uconst 0x0]
    2414                      .dwattr $C$DW$218, DW_AT_accessibility(DW_ACCESS_public)
    2415              $C$DW$219       .dwtag  DW_TAG_member
    2416                      .dwattr $C$DW$219, DW_AT_type(*$C$DW$T$19)
    2417                      .dwattr $C$DW$219, DW_AT_name("INTx9")
    2418                      .dwattr $C$DW$219, DW_AT_TI_symbol_name("_INTx9")
    2419                      .dwattr $C$DW$219, DW_AT_bit_offset(0x07), DW_AT_bit_size(0x01)
    2420                      .dwattr $C$DW$219, DW_AT_data_member_location[DW_OP_plus_uconst 0x0]
    2421                      .dwattr $C$DW$219, DW_AT_accessibility(DW_ACCESS_public)
    2422              $C$DW$220       .dwtag  DW_TAG_member
    2423                      .dwattr $C$DW$220, DW_AT_type(*$C$DW$T$19)
    2424                      .dwattr $C$DW$220, DW_AT_name("INTx10")
    2425                      .dwattr $C$DW$220, DW_AT_TI_symbol_name("_INTx10")
    2426                      .dwattr $C$DW$220, DW_AT_bit_offset(0x06), DW_AT_bit_size(0x01)
    2427                      .dwattr $C$DW$220, DW_AT_data_member_location[DW_OP_plus_uconst 0x0]
    2428                      .dwattr $C$DW$220, DW_AT_accessibility(DW_ACCESS_public)
    2429              $C$DW$221       .dwtag  DW_TAG_member
    2430                      .dwattr $C$DW$221, DW_AT_type(*$C$DW$T$19)
    2431                      .dwattr $C$DW$221, DW_AT_name("INTx11")
    2432                      .dwattr $C$DW$221, DW_AT_TI_symbol_name("_INTx11")
    2433                      .dwattr $C$DW$221, DW_AT_bit_offset(0x05), DW_AT_bit_size(0x01)
    2434                      .dwattr $C$DW$221, DW_AT_data_member_location[DW_OP_plus_uconst 0x0]
    2435                      .dwattr $C$DW$221, DW_AT_accessibility(DW_ACCESS_public)
    2436              $C$DW$222       .dwtag  DW_TAG_member
    2437                      .dwattr $C$DW$222, DW_AT_type(*$C$DW$T$19)
    2438                      .dwattr $C$DW$222, DW_AT_name("INTx12")
    2439                      .dwattr $C$DW$222, DW_AT_TI_symbol_name("_INTx12")
    2440                      .dwattr $C$DW$222, DW_AT_bit_offset(0x04), DW_AT_bit_size(0x01)
    2441                      .dwattr $C$DW$222, DW_AT_data_member_location[DW_OP_plus_uconst 0x0]
    2442                      .dwattr $C$DW$222, DW_AT_accessibility(DW_ACCESS_public)
    2443              $C$DW$223       .dwtag  DW_TAG_member
    2444                      .dwattr $C$DW$223, DW_AT_type(*$C$DW$T$19)
    2445                      .dwattr $C$DW$223, DW_AT_name("INTx13")
    2446                      .dwattr $C$DW$223, DW_AT_TI_symbol_name("_INTx13")
    2447                      .dwattr $C$DW$223, DW_AT_bit_offset(0x03), DW_AT_bit_size(0x01)
    2448                      .dwattr $C$DW$223, DW_AT_data_member_location[DW_OP_plus_uconst 0x0]
    2449                      .dwattr $C$DW$223, DW_AT_accessibility(DW_ACCESS_public)
    2450              $C$DW$224       .dwtag  DW_TAG_member
    2451                      .dwattr $C$DW$224, DW_AT_type(*$C$DW$T$19)
    2452                      .dwattr $C$DW$224, DW_AT_name("INTx14")
    2453                      .dwattr $C$DW$224, DW_AT_TI_symbol_name("_INTx14")
    2454                      .dwattr $C$DW$224, DW_AT_bit_offset(0x02), DW_AT_bit_size(0x01)
    2455                      .dwattr $C$DW$224, DW_AT_data_member_location[DW_OP_plus_uconst 0x0]
    2456                      .dwattr $C$DW$224, DW_AT_accessibility(DW_ACCESS_public)
    2457              $C$DW$225       .dwtag  DW_TAG_member
    2458                      .dwattr $C$DW$225, DW_AT_type(*$C$DW$T$19)
    2459                      .dwattr $C$DW$225, DW_AT_name("INTx15")
    2460                      .dwattr $C$DW$225, DW_AT_TI_symbol_name("_INTx15")
TMS320C2000 Assembler PC v6.4.2 Thu Dec 14 15:26:49 2017

Tools Copyright (c) 1996-2015 Texas Instruments Incorporated
interrupt.asm                                                        PAGE   47

    2461                      .dwattr $C$DW$225, DW_AT_bit_offset(0x01), DW_AT_bit_size(0x01)
    2462                      .dwattr $C$DW$225, DW_AT_data_member_location[DW_OP_plus_uconst 0x0]
    2463                      .dwattr $C$DW$225, DW_AT_accessibility(DW_ACCESS_public)
    2464              $C$DW$226       .dwtag  DW_TAG_member
    2465                      .dwattr $C$DW$226, DW_AT_type(*$C$DW$T$19)
    2466                      .dwattr $C$DW$226, DW_AT_name("INTx16")
    2467                      .dwattr $C$DW$226, DW_AT_TI_symbol_name("_INTx16")
    2468                      .dwattr $C$DW$226, DW_AT_bit_offset(0x00), DW_AT_bit_size(0x01)
    2469                      .dwattr $C$DW$226, DW_AT_data_member_location[DW_OP_plus_uconst 0x0]
    2470                      .dwattr $C$DW$226, DW_AT_accessibility(DW_ACCESS_public)
    2471                      .dwendtag $C$DW$T$40
    2472              
    2473              
    2474              $C$DW$T$41      .dwtag  DW_TAG_union_type
    2475                      .dwattr $C$DW$T$41, DW_AT_name("PIEIER6_REG")
    2476                      .dwattr $C$DW$T$41, DW_AT_byte_size(0x01)
    2477              $C$DW$227       .dwtag  DW_TAG_member
    2478                      .dwattr $C$DW$227, DW_AT_type(*$C$DW$T$19)
    2479                      .dwattr $C$DW$227, DW_AT_name("all")
    2480                      .dwattr $C$DW$227, DW_AT_TI_symbol_name("_all")
    2481                      .dwattr $C$DW$227, DW_AT_data_member_location[DW_OP_plus_uconst 0x0]
    2482                      .dwattr $C$DW$227, DW_AT_accessibility(DW_ACCESS_public)
    2483              $C$DW$228       .dwtag  DW_TAG_member
    2484                      .dwattr $C$DW$228, DW_AT_type(*$C$DW$T$40)
    2485                      .dwattr $C$DW$228, DW_AT_name("bit")
    2486                      .dwattr $C$DW$228, DW_AT_TI_symbol_name("_bit")
    2487                      .dwattr $C$DW$228, DW_AT_data_member_location[DW_OP_plus_uconst 0x0]
    2488                      .dwattr $C$DW$228, DW_AT_accessibility(DW_ACCESS_public)
    2489                      .dwendtag $C$DW$T$41
    2490              
    2491              
    2492              $C$DW$T$42      .dwtag  DW_TAG_structure_type
    2493                      .dwattr $C$DW$T$42, DW_AT_name("PIEIER7_BITS")
    2494                      .dwattr $C$DW$T$42, DW_AT_byte_size(0x01)
    2495              $C$DW$229       .dwtag  DW_TAG_member
    2496                      .dwattr $C$DW$229, DW_AT_type(*$C$DW$T$19)
    2497                      .dwattr $C$DW$229, DW_AT_name("INTx1")
    2498                      .dwattr $C$DW$229, DW_AT_TI_symbol_name("_INTx1")
    2499                      .dwattr $C$DW$229, DW_AT_bit_offset(0x0f), DW_AT_bit_size(0x01)
    2500                      .dwattr $C$DW$229, DW_AT_data_member_location[DW_OP_plus_uconst 0x0]
    2501                      .dwattr $C$DW$229, DW_AT_accessibility(DW_ACCESS_public)
    2502              $C$DW$230       .dwtag  DW_TAG_member
    2503                      .dwattr $C$DW$230, DW_AT_type(*$C$DW$T$19)
    2504                      .dwattr $C$DW$230, DW_AT_name("INTx2")
    2505                      .dwattr $C$DW$230, DW_AT_TI_symbol_name("_INTx2")
    2506                      .dwattr $C$DW$230, DW_AT_bit_offset(0x0e), DW_AT_bit_size(0x01)
    2507                      .dwattr $C$DW$230, DW_AT_data_member_location[DW_OP_plus_uconst 0x0]
    2508                      .dwattr $C$DW$230, DW_AT_accessibility(DW_ACCESS_public)
    2509              $C$DW$231       .dwtag  DW_TAG_member
    2510                      .dwattr $C$DW$231, DW_AT_type(*$C$DW$T$19)
    2511                      .dwattr $C$DW$231, DW_AT_name("INTx3")
    2512                      .dwattr $C$DW$231, DW_AT_TI_symbol_name("_INTx3")
    2513                      .dwattr $C$DW$231, DW_AT_bit_offset(0x0d), DW_AT_bit_size(0x01)
    2514                      .dwattr $C$DW$231, DW_AT_data_member_location[DW_OP_plus_uconst 0x0]
    2515                      .dwattr $C$DW$231, DW_AT_accessibility(DW_ACCESS_public)
TMS320C2000 Assembler PC v6.4.2 Thu Dec 14 15:26:49 2017

Tools Copyright (c) 1996-2015 Texas Instruments Incorporated
interrupt.asm                                                        PAGE   48

    2516              $C$DW$232       .dwtag  DW_TAG_member
    2517                      .dwattr $C$DW$232, DW_AT_type(*$C$DW$T$19)
    2518                      .dwattr $C$DW$232, DW_AT_name("INTx4")
    2519                      .dwattr $C$DW$232, DW_AT_TI_symbol_name("_INTx4")
    2520                      .dwattr $C$DW$232, DW_AT_bit_offset(0x0c), DW_AT_bit_size(0x01)
    2521                      .dwattr $C$DW$232, DW_AT_data_member_location[DW_OP_plus_uconst 0x0]
    2522                      .dwattr $C$DW$232, DW_AT_accessibility(DW_ACCESS_public)
    2523              $C$DW$233       .dwtag  DW_TAG_member
    2524                      .dwattr $C$DW$233, DW_AT_type(*$C$DW$T$19)
    2525                      .dwattr $C$DW$233, DW_AT_name("INTx5")
    2526                      .dwattr $C$DW$233, DW_AT_TI_symbol_name("_INTx5")
    2527                      .dwattr $C$DW$233, DW_AT_bit_offset(0x0b), DW_AT_bit_size(0x01)
    2528                      .dwattr $C$DW$233, DW_AT_data_member_location[DW_OP_plus_uconst 0x0]
    2529                      .dwattr $C$DW$233, DW_AT_accessibility(DW_ACCESS_public)
    2530              $C$DW$234       .dwtag  DW_TAG_member
    2531                      .dwattr $C$DW$234, DW_AT_type(*$C$DW$T$19)
    2532                      .dwattr $C$DW$234, DW_AT_name("INTx6")
    2533                      .dwattr $C$DW$234, DW_AT_TI_symbol_name("_INTx6")
    2534                      .dwattr $C$DW$234, DW_AT_bit_offset(0x0a), DW_AT_bit_size(0x01)
    2535                      .dwattr $C$DW$234, DW_AT_data_member_location[DW_OP_plus_uconst 0x0]
    2536                      .dwattr $C$DW$234, DW_AT_accessibility(DW_ACCESS_public)
    2537              $C$DW$235       .dwtag  DW_TAG_member
    2538                      .dwattr $C$DW$235, DW_AT_type(*$C$DW$T$19)
    2539                      .dwattr $C$DW$235, DW_AT_name("INTx7")
    2540                      .dwattr $C$DW$235, DW_AT_TI_symbol_name("_INTx7")
    2541                      .dwattr $C$DW$235, DW_AT_bit_offset(0x09), DW_AT_bit_size(0x01)
    2542                      .dwattr $C$DW$235, DW_AT_data_member_location[DW_OP_plus_uconst 0x0]
    2543                      .dwattr $C$DW$235, DW_AT_accessibility(DW_ACCESS_public)
    2544              $C$DW$236       .dwtag  DW_TAG_member
    2545                      .dwattr $C$DW$236, DW_AT_type(*$C$DW$T$19)
    2546                      .dwattr $C$DW$236, DW_AT_name("INTx8")
    2547                      .dwattr $C$DW$236, DW_AT_TI_symbol_name("_INTx8")
    2548                      .dwattr $C$DW$236, DW_AT_bit_offset(0x08), DW_AT_bit_size(0x01)
    2549                      .dwattr $C$DW$236, DW_AT_data_member_location[DW_OP_plus_uconst 0x0]
    2550                      .dwattr $C$DW$236, DW_AT_accessibility(DW_ACCESS_public)
    2551              $C$DW$237       .dwtag  DW_TAG_member
    2552                      .dwattr $C$DW$237, DW_AT_type(*$C$DW$T$19)
    2553                      .dwattr $C$DW$237, DW_AT_name("INTx9")
    2554                      .dwattr $C$DW$237, DW_AT_TI_symbol_name("_INTx9")
    2555                      .dwattr $C$DW$237, DW_AT_bit_offset(0x07), DW_AT_bit_size(0x01)
    2556                      .dwattr $C$DW$237, DW_AT_data_member_location[DW_OP_plus_uconst 0x0]
    2557                      .dwattr $C$DW$237, DW_AT_accessibility(DW_ACCESS_public)
    2558              $C$DW$238       .dwtag  DW_TAG_member
    2559                      .dwattr $C$DW$238, DW_AT_type(*$C$DW$T$19)
    2560                      .dwattr $C$DW$238, DW_AT_name("INTx10")
    2561                      .dwattr $C$DW$238, DW_AT_TI_symbol_name("_INTx10")
    2562                      .dwattr $C$DW$238, DW_AT_bit_offset(0x06), DW_AT_bit_size(0x01)
    2563                      .dwattr $C$DW$238, DW_AT_data_member_location[DW_OP_plus_uconst 0x0]
    2564                      .dwattr $C$DW$238, DW_AT_accessibility(DW_ACCESS_public)
    2565              $C$DW$239       .dwtag  DW_TAG_member
    2566                      .dwattr $C$DW$239, DW_AT_type(*$C$DW$T$19)
    2567                      .dwattr $C$DW$239, DW_AT_name("INTx11")
    2568                      .dwattr $C$DW$239, DW_AT_TI_symbol_name("_INTx11")
    2569                      .dwattr $C$DW$239, DW_AT_bit_offset(0x05), DW_AT_bit_size(0x01)
    2570                      .dwattr $C$DW$239, DW_AT_data_member_location[DW_OP_plus_uconst 0x0]
TMS320C2000 Assembler PC v6.4.2 Thu Dec 14 15:26:49 2017

Tools Copyright (c) 1996-2015 Texas Instruments Incorporated
interrupt.asm                                                        PAGE   49

    2571                      .dwattr $C$DW$239, DW_AT_accessibility(DW_ACCESS_public)
    2572              $C$DW$240       .dwtag  DW_TAG_member
    2573                      .dwattr $C$DW$240, DW_AT_type(*$C$DW$T$19)
    2574                      .dwattr $C$DW$240, DW_AT_name("INTx12")
    2575                      .dwattr $C$DW$240, DW_AT_TI_symbol_name("_INTx12")
    2576                      .dwattr $C$DW$240, DW_AT_bit_offset(0x04), DW_AT_bit_size(0x01)
    2577                      .dwattr $C$DW$240, DW_AT_data_member_location[DW_OP_plus_uconst 0x0]
    2578                      .dwattr $C$DW$240, DW_AT_accessibility(DW_ACCESS_public)
    2579              $C$DW$241       .dwtag  DW_TAG_member
    2580                      .dwattr $C$DW$241, DW_AT_type(*$C$DW$T$19)
    2581                      .dwattr $C$DW$241, DW_AT_name("INTx13")
    2582                      .dwattr $C$DW$241, DW_AT_TI_symbol_name("_INTx13")
    2583                      .dwattr $C$DW$241, DW_AT_bit_offset(0x03), DW_AT_bit_size(0x01)
    2584                      .dwattr $C$DW$241, DW_AT_data_member_location[DW_OP_plus_uconst 0x0]
    2585                      .dwattr $C$DW$241, DW_AT_accessibility(DW_ACCESS_public)
    2586              $C$DW$242       .dwtag  DW_TAG_member
    2587                      .dwattr $C$DW$242, DW_AT_type(*$C$DW$T$19)
    2588                      .dwattr $C$DW$242, DW_AT_name("INTx14")
    2589                      .dwattr $C$DW$242, DW_AT_TI_symbol_name("_INTx14")
    2590                      .dwattr $C$DW$242, DW_AT_bit_offset(0x02), DW_AT_bit_size(0x01)
    2591                      .dwattr $C$DW$242, DW_AT_data_member_location[DW_OP_plus_uconst 0x0]
    2592                      .dwattr $C$DW$242, DW_AT_accessibility(DW_ACCESS_public)
    2593              $C$DW$243       .dwtag  DW_TAG_member
    2594                      .dwattr $C$DW$243, DW_AT_type(*$C$DW$T$19)
    2595                      .dwattr $C$DW$243, DW_AT_name("INTx15")
    2596                      .dwattr $C$DW$243, DW_AT_TI_symbol_name("_INTx15")
    2597                      .dwattr $C$DW$243, DW_AT_bit_offset(0x01), DW_AT_bit_size(0x01)
    2598                      .dwattr $C$DW$243, DW_AT_data_member_location[DW_OP_plus_uconst 0x0]
    2599                      .dwattr $C$DW$243, DW_AT_accessibility(DW_ACCESS_public)
    2600              $C$DW$244       .dwtag  DW_TAG_member
    2601                      .dwattr $C$DW$244, DW_AT_type(*$C$DW$T$19)
    2602                      .dwattr $C$DW$244, DW_AT_name("INTx16")
    2603                      .dwattr $C$DW$244, DW_AT_TI_symbol_name("_INTx16")
    2604                      .dwattr $C$DW$244, DW_AT_bit_offset(0x00), DW_AT_bit_size(0x01)
    2605                      .dwattr $C$DW$244, DW_AT_data_member_location[DW_OP_plus_uconst 0x0]
    2606                      .dwattr $C$DW$244, DW_AT_accessibility(DW_ACCESS_public)
    2607                      .dwendtag $C$DW$T$42
    2608              
    2609              
    2610              $C$DW$T$43      .dwtag  DW_TAG_union_type
    2611                      .dwattr $C$DW$T$43, DW_AT_name("PIEIER7_REG")
    2612                      .dwattr $C$DW$T$43, DW_AT_byte_size(0x01)
    2613              $C$DW$245       .dwtag  DW_TAG_member
    2614                      .dwattr $C$DW$245, DW_AT_type(*$C$DW$T$19)
    2615                      .dwattr $C$DW$245, DW_AT_name("all")
    2616                      .dwattr $C$DW$245, DW_AT_TI_symbol_name("_all")
    2617                      .dwattr $C$DW$245, DW_AT_data_member_location[DW_OP_plus_uconst 0x0]
    2618                      .dwattr $C$DW$245, DW_AT_accessibility(DW_ACCESS_public)
    2619              $C$DW$246       .dwtag  DW_TAG_member
    2620                      .dwattr $C$DW$246, DW_AT_type(*$C$DW$T$42)
    2621                      .dwattr $C$DW$246, DW_AT_name("bit")
    2622                      .dwattr $C$DW$246, DW_AT_TI_symbol_name("_bit")
    2623                      .dwattr $C$DW$246, DW_AT_data_member_location[DW_OP_plus_uconst 0x0]
    2624                      .dwattr $C$DW$246, DW_AT_accessibility(DW_ACCESS_public)
    2625                      .dwendtag $C$DW$T$43
TMS320C2000 Assembler PC v6.4.2 Thu Dec 14 15:26:49 2017

Tools Copyright (c) 1996-2015 Texas Instruments Incorporated
interrupt.asm                                                        PAGE   50

    2626              
    2627              
    2628              $C$DW$T$44      .dwtag  DW_TAG_structure_type
    2629                      .dwattr $C$DW$T$44, DW_AT_name("PIEIER8_BITS")
    2630                      .dwattr $C$DW$T$44, DW_AT_byte_size(0x01)
    2631              $C$DW$247       .dwtag  DW_TAG_member
    2632                      .dwattr $C$DW$247, DW_AT_type(*$C$DW$T$19)
    2633                      .dwattr $C$DW$247, DW_AT_name("INTx1")
    2634                      .dwattr $C$DW$247, DW_AT_TI_symbol_name("_INTx1")
    2635                      .dwattr $C$DW$247, DW_AT_bit_offset(0x0f), DW_AT_bit_size(0x01)
    2636                      .dwattr $C$DW$247, DW_AT_data_member_location[DW_OP_plus_uconst 0x0]
    2637                      .dwattr $C$DW$247, DW_AT_accessibility(DW_ACCESS_public)
    2638              $C$DW$248       .dwtag  DW_TAG_member
    2639                      .dwattr $C$DW$248, DW_AT_type(*$C$DW$T$19)
    2640                      .dwattr $C$DW$248, DW_AT_name("INTx2")
    2641                      .dwattr $C$DW$248, DW_AT_TI_symbol_name("_INTx2")
    2642                      .dwattr $C$DW$248, DW_AT_bit_offset(0x0e), DW_AT_bit_size(0x01)
    2643                      .dwattr $C$DW$248, DW_AT_data_member_location[DW_OP_plus_uconst 0x0]
    2644                      .dwattr $C$DW$248, DW_AT_accessibility(DW_ACCESS_public)
    2645              $C$DW$249       .dwtag  DW_TAG_member
    2646                      .dwattr $C$DW$249, DW_AT_type(*$C$DW$T$19)
    2647                      .dwattr $C$DW$249, DW_AT_name("INTx3")
    2648                      .dwattr $C$DW$249, DW_AT_TI_symbol_name("_INTx3")
    2649                      .dwattr $C$DW$249, DW_AT_bit_offset(0x0d), DW_AT_bit_size(0x01)
    2650                      .dwattr $C$DW$249, DW_AT_data_member_location[DW_OP_plus_uconst 0x0]
    2651                      .dwattr $C$DW$249, DW_AT_accessibility(DW_ACCESS_public)
    2652              $C$DW$250       .dwtag  DW_TAG_member
    2653                      .dwattr $C$DW$250, DW_AT_type(*$C$DW$T$19)
    2654                      .dwattr $C$DW$250, DW_AT_name("INTx4")
    2655                      .dwattr $C$DW$250, DW_AT_TI_symbol_name("_INTx4")
    2656                      .dwattr $C$DW$250, DW_AT_bit_offset(0x0c), DW_AT_bit_size(0x01)
    2657                      .dwattr $C$DW$250, DW_AT_data_member_location[DW_OP_plus_uconst 0x0]
    2658                      .dwattr $C$DW$250, DW_AT_accessibility(DW_ACCESS_public)
    2659              $C$DW$251       .dwtag  DW_TAG_member
    2660                      .dwattr $C$DW$251, DW_AT_type(*$C$DW$T$19)
    2661                      .dwattr $C$DW$251, DW_AT_name("INTx5")
    2662                      .dwattr $C$DW$251, DW_AT_TI_symbol_name("_INTx5")
    2663                      .dwattr $C$DW$251, DW_AT_bit_offset(0x0b), DW_AT_bit_size(0x01)
    2664                      .dwattr $C$DW$251, DW_AT_data_member_location[DW_OP_plus_uconst 0x0]
    2665                      .dwattr $C$DW$251, DW_AT_accessibility(DW_ACCESS_public)
    2666              $C$DW$252       .dwtag  DW_TAG_member
    2667                      .dwattr $C$DW$252, DW_AT_type(*$C$DW$T$19)
    2668                      .dwattr $C$DW$252, DW_AT_name("INTx6")
    2669                      .dwattr $C$DW$252, DW_AT_TI_symbol_name("_INTx6")
    2670                      .dwattr $C$DW$252, DW_AT_bit_offset(0x0a), DW_AT_bit_size(0x01)
    2671                      .dwattr $C$DW$252, DW_AT_data_member_location[DW_OP_plus_uconst 0x0]
    2672                      .dwattr $C$DW$252, DW_AT_accessibility(DW_ACCESS_public)
    2673              $C$DW$253       .dwtag  DW_TAG_member
    2674                      .dwattr $C$DW$253, DW_AT_type(*$C$DW$T$19)
    2675                      .dwattr $C$DW$253, DW_AT_name("INTx7")
    2676                      .dwattr $C$DW$253, DW_AT_TI_symbol_name("_INTx7")
    2677                      .dwattr $C$DW$253, DW_AT_bit_offset(0x09), DW_AT_bit_size(0x01)
    2678                      .dwattr $C$DW$253, DW_AT_data_member_location[DW_OP_plus_uconst 0x0]
    2679                      .dwattr $C$DW$253, DW_AT_accessibility(DW_ACCESS_public)
    2680              $C$DW$254       .dwtag  DW_TAG_member
TMS320C2000 Assembler PC v6.4.2 Thu Dec 14 15:26:49 2017

Tools Copyright (c) 1996-2015 Texas Instruments Incorporated
interrupt.asm                                                        PAGE   51

    2681                      .dwattr $C$DW$254, DW_AT_type(*$C$DW$T$19)
    2682                      .dwattr $C$DW$254, DW_AT_name("INTx8")
    2683                      .dwattr $C$DW$254, DW_AT_TI_symbol_name("_INTx8")
    2684                      .dwattr $C$DW$254, DW_AT_bit_offset(0x08), DW_AT_bit_size(0x01)
    2685                      .dwattr $C$DW$254, DW_AT_data_member_location[DW_OP_plus_uconst 0x0]
    2686                      .dwattr $C$DW$254, DW_AT_accessibility(DW_ACCESS_public)
    2687              $C$DW$255       .dwtag  DW_TAG_member
    2688                      .dwattr $C$DW$255, DW_AT_type(*$C$DW$T$19)
    2689                      .dwattr $C$DW$255, DW_AT_name("INTx9")
    2690                      .dwattr $C$DW$255, DW_AT_TI_symbol_name("_INTx9")
    2691                      .dwattr $C$DW$255, DW_AT_bit_offset(0x07), DW_AT_bit_size(0x01)
    2692                      .dwattr $C$DW$255, DW_AT_data_member_location[DW_OP_plus_uconst 0x0]
    2693                      .dwattr $C$DW$255, DW_AT_accessibility(DW_ACCESS_public)
    2694              $C$DW$256       .dwtag  DW_TAG_member
    2695                      .dwattr $C$DW$256, DW_AT_type(*$C$DW$T$19)
    2696                      .dwattr $C$DW$256, DW_AT_name("INTx10")
    2697                      .dwattr $C$DW$256, DW_AT_TI_symbol_name("_INTx10")
    2698                      .dwattr $C$DW$256, DW_AT_bit_offset(0x06), DW_AT_bit_size(0x01)
    2699                      .dwattr $C$DW$256, DW_AT_data_member_location[DW_OP_plus_uconst 0x0]
    2700                      .dwattr $C$DW$256, DW_AT_accessibility(DW_ACCESS_public)
    2701              $C$DW$257       .dwtag  DW_TAG_member
    2702                      .dwattr $C$DW$257, DW_AT_type(*$C$DW$T$19)
    2703                      .dwattr $C$DW$257, DW_AT_name("INTx11")
    2704                      .dwattr $C$DW$257, DW_AT_TI_symbol_name("_INTx11")
    2705                      .dwattr $C$DW$257, DW_AT_bit_offset(0x05), DW_AT_bit_size(0x01)
    2706                      .dwattr $C$DW$257, DW_AT_data_member_location[DW_OP_plus_uconst 0x0]
    2707                      .dwattr $C$DW$257, DW_AT_accessibility(DW_ACCESS_public)
    2708              $C$DW$258       .dwtag  DW_TAG_member
    2709                      .dwattr $C$DW$258, DW_AT_type(*$C$DW$T$19)
    2710                      .dwattr $C$DW$258, DW_AT_name("INTx12")
    2711                      .dwattr $C$DW$258, DW_AT_TI_symbol_name("_INTx12")
    2712                      .dwattr $C$DW$258, DW_AT_bit_offset(0x04), DW_AT_bit_size(0x01)
    2713                      .dwattr $C$DW$258, DW_AT_data_member_location[DW_OP_plus_uconst 0x0]
    2714                      .dwattr $C$DW$258, DW_AT_accessibility(DW_ACCESS_public)
    2715              $C$DW$259       .dwtag  DW_TAG_member
    2716                      .dwattr $C$DW$259, DW_AT_type(*$C$DW$T$19)
    2717                      .dwattr $C$DW$259, DW_AT_name("INTx13")
    2718                      .dwattr $C$DW$259, DW_AT_TI_symbol_name("_INTx13")
    2719                      .dwattr $C$DW$259, DW_AT_bit_offset(0x03), DW_AT_bit_size(0x01)
    2720                      .dwattr $C$DW$259, DW_AT_data_member_location[DW_OP_plus_uconst 0x0]
    2721                      .dwattr $C$DW$259, DW_AT_accessibility(DW_ACCESS_public)
    2722              $C$DW$260       .dwtag  DW_TAG_member
    2723                      .dwattr $C$DW$260, DW_AT_type(*$C$DW$T$19)
    2724                      .dwattr $C$DW$260, DW_AT_name("INTx14")
    2725                      .dwattr $C$DW$260, DW_AT_TI_symbol_name("_INTx14")
    2726                      .dwattr $C$DW$260, DW_AT_bit_offset(0x02), DW_AT_bit_size(0x01)
    2727                      .dwattr $C$DW$260, DW_AT_data_member_location[DW_OP_plus_uconst 0x0]
    2728                      .dwattr $C$DW$260, DW_AT_accessibility(DW_ACCESS_public)
    2729              $C$DW$261       .dwtag  DW_TAG_member
    2730                      .dwattr $C$DW$261, DW_AT_type(*$C$DW$T$19)
    2731                      .dwattr $C$DW$261, DW_AT_name("INTx15")
    2732                      .dwattr $C$DW$261, DW_AT_TI_symbol_name("_INTx15")
    2733                      .dwattr $C$DW$261, DW_AT_bit_offset(0x01), DW_AT_bit_size(0x01)
    2734                      .dwattr $C$DW$261, DW_AT_data_member_location[DW_OP_plus_uconst 0x0]
    2735                      .dwattr $C$DW$261, DW_AT_accessibility(DW_ACCESS_public)
TMS320C2000 Assembler PC v6.4.2 Thu Dec 14 15:26:49 2017

Tools Copyright (c) 1996-2015 Texas Instruments Incorporated
interrupt.asm                                                        PAGE   52

    2736              $C$DW$262       .dwtag  DW_TAG_member
    2737                      .dwattr $C$DW$262, DW_AT_type(*$C$DW$T$19)
    2738                      .dwattr $C$DW$262, DW_AT_name("INTx16")
    2739                      .dwattr $C$DW$262, DW_AT_TI_symbol_name("_INTx16")
    2740                      .dwattr $C$DW$262, DW_AT_bit_offset(0x00), DW_AT_bit_size(0x01)
    2741                      .dwattr $C$DW$262, DW_AT_data_member_location[DW_OP_plus_uconst 0x0]
    2742                      .dwattr $C$DW$262, DW_AT_accessibility(DW_ACCESS_public)
    2743                      .dwendtag $C$DW$T$44
    2744              
    2745              
    2746              $C$DW$T$45      .dwtag  DW_TAG_union_type
    2747                      .dwattr $C$DW$T$45, DW_AT_name("PIEIER8_REG")
    2748                      .dwattr $C$DW$T$45, DW_AT_byte_size(0x01)
    2749              $C$DW$263       .dwtag  DW_TAG_member
    2750                      .dwattr $C$DW$263, DW_AT_type(*$C$DW$T$19)
    2751                      .dwattr $C$DW$263, DW_AT_name("all")
    2752                      .dwattr $C$DW$263, DW_AT_TI_symbol_name("_all")
    2753                      .dwattr $C$DW$263, DW_AT_data_member_location[DW_OP_plus_uconst 0x0]
    2754                      .dwattr $C$DW$263, DW_AT_accessibility(DW_ACCESS_public)
    2755              $C$DW$264       .dwtag  DW_TAG_member
    2756                      .dwattr $C$DW$264, DW_AT_type(*$C$DW$T$44)
    2757                      .dwattr $C$DW$264, DW_AT_name("bit")
    2758                      .dwattr $C$DW$264, DW_AT_TI_symbol_name("_bit")
    2759                      .dwattr $C$DW$264, DW_AT_data_member_location[DW_OP_plus_uconst 0x0]
    2760                      .dwattr $C$DW$264, DW_AT_accessibility(DW_ACCESS_public)
    2761                      .dwendtag $C$DW$T$45
    2762              
    2763              
    2764              $C$DW$T$46      .dwtag  DW_TAG_structure_type
    2765                      .dwattr $C$DW$T$46, DW_AT_name("PIEIER9_BITS")
    2766                      .dwattr $C$DW$T$46, DW_AT_byte_size(0x01)
    2767              $C$DW$265       .dwtag  DW_TAG_member
    2768                      .dwattr $C$DW$265, DW_AT_type(*$C$DW$T$19)
    2769                      .dwattr $C$DW$265, DW_AT_name("INTx1")
    2770                      .dwattr $C$DW$265, DW_AT_TI_symbol_name("_INTx1")
    2771                      .dwattr $C$DW$265, DW_AT_bit_offset(0x0f), DW_AT_bit_size(0x01)
    2772                      .dwattr $C$DW$265, DW_AT_data_member_location[DW_OP_plus_uconst 0x0]
    2773                      .dwattr $C$DW$265, DW_AT_accessibility(DW_ACCESS_public)
    2774              $C$DW$266       .dwtag  DW_TAG_member
    2775                      .dwattr $C$DW$266, DW_AT_type(*$C$DW$T$19)
    2776                      .dwattr $C$DW$266, DW_AT_name("INTx2")
    2777                      .dwattr $C$DW$266, DW_AT_TI_symbol_name("_INTx2")
    2778                      .dwattr $C$DW$266, DW_AT_bit_offset(0x0e), DW_AT_bit_size(0x01)
    2779                      .dwattr $C$DW$266, DW_AT_data_member_location[DW_OP_plus_uconst 0x0]
    2780                      .dwattr $C$DW$266, DW_AT_accessibility(DW_ACCESS_public)
    2781              $C$DW$267       .dwtag  DW_TAG_member
    2782                      .dwattr $C$DW$267, DW_AT_type(*$C$DW$T$19)
    2783                      .dwattr $C$DW$267, DW_AT_name("INTx3")
    2784                      .dwattr $C$DW$267, DW_AT_TI_symbol_name("_INTx3")
    2785                      .dwattr $C$DW$267, DW_AT_bit_offset(0x0d), DW_AT_bit_size(0x01)
    2786                      .dwattr $C$DW$267, DW_AT_data_member_location[DW_OP_plus_uconst 0x0]
    2787                      .dwattr $C$DW$267, DW_AT_accessibility(DW_ACCESS_public)
    2788              $C$DW$268       .dwtag  DW_TAG_member
    2789                      .dwattr $C$DW$268, DW_AT_type(*$C$DW$T$19)
    2790                      .dwattr $C$DW$268, DW_AT_name("INTx4")
TMS320C2000 Assembler PC v6.4.2 Thu Dec 14 15:26:49 2017

Tools Copyright (c) 1996-2015 Texas Instruments Incorporated
interrupt.asm                                                        PAGE   53

    2791                      .dwattr $C$DW$268, DW_AT_TI_symbol_name("_INTx4")
    2792                      .dwattr $C$DW$268, DW_AT_bit_offset(0x0c), DW_AT_bit_size(0x01)
    2793                      .dwattr $C$DW$268, DW_AT_data_member_location[DW_OP_plus_uconst 0x0]
    2794                      .dwattr $C$DW$268, DW_AT_accessibility(DW_ACCESS_public)
    2795              $C$DW$269       .dwtag  DW_TAG_member
    2796                      .dwattr $C$DW$269, DW_AT_type(*$C$DW$T$19)
    2797                      .dwattr $C$DW$269, DW_AT_name("INTx5")
    2798                      .dwattr $C$DW$269, DW_AT_TI_symbol_name("_INTx5")
    2799                      .dwattr $C$DW$269, DW_AT_bit_offset(0x0b), DW_AT_bit_size(0x01)
    2800                      .dwattr $C$DW$269, DW_AT_data_member_location[DW_OP_plus_uconst 0x0]
    2801                      .dwattr $C$DW$269, DW_AT_accessibility(DW_ACCESS_public)
    2802              $C$DW$270       .dwtag  DW_TAG_member
    2803                      .dwattr $C$DW$270, DW_AT_type(*$C$DW$T$19)
    2804                      .dwattr $C$DW$270, DW_AT_name("INTx6")
    2805                      .dwattr $C$DW$270, DW_AT_TI_symbol_name("_INTx6")
    2806                      .dwattr $C$DW$270, DW_AT_bit_offset(0x0a), DW_AT_bit_size(0x01)
    2807                      .dwattr $C$DW$270, DW_AT_data_member_location[DW_OP_plus_uconst 0x0]
    2808                      .dwattr $C$DW$270, DW_AT_accessibility(DW_ACCESS_public)
    2809              $C$DW$271       .dwtag  DW_TAG_member
    2810                      .dwattr $C$DW$271, DW_AT_type(*$C$DW$T$19)
    2811                      .dwattr $C$DW$271, DW_AT_name("INTx7")
    2812                      .dwattr $C$DW$271, DW_AT_TI_symbol_name("_INTx7")
    2813                      .dwattr $C$DW$271, DW_AT_bit_offset(0x09), DW_AT_bit_size(0x01)
    2814                      .dwattr $C$DW$271, DW_AT_data_member_location[DW_OP_plus_uconst 0x0]
    2815                      .dwattr $C$DW$271, DW_AT_accessibility(DW_ACCESS_public)
    2816              $C$DW$272       .dwtag  DW_TAG_member
    2817                      .dwattr $C$DW$272, DW_AT_type(*$C$DW$T$19)
    2818                      .dwattr $C$DW$272, DW_AT_name("INTx8")
    2819                      .dwattr $C$DW$272, DW_AT_TI_symbol_name("_INTx8")
    2820                      .dwattr $C$DW$272, DW_AT_bit_offset(0x08), DW_AT_bit_size(0x01)
    2821                      .dwattr $C$DW$272, DW_AT_data_member_location[DW_OP_plus_uconst 0x0]
    2822                      .dwattr $C$DW$272, DW_AT_accessibility(DW_ACCESS_public)
    2823              $C$DW$273       .dwtag  DW_TAG_member
    2824                      .dwattr $C$DW$273, DW_AT_type(*$C$DW$T$19)
    2825                      .dwattr $C$DW$273, DW_AT_name("INTx9")
    2826                      .dwattr $C$DW$273, DW_AT_TI_symbol_name("_INTx9")
    2827                      .dwattr $C$DW$273, DW_AT_bit_offset(0x07), DW_AT_bit_size(0x01)
    2828                      .dwattr $C$DW$273, DW_AT_data_member_location[DW_OP_plus_uconst 0x0]
    2829                      .dwattr $C$DW$273, DW_AT_accessibility(DW_ACCESS_public)
    2830              $C$DW$274       .dwtag  DW_TAG_member
    2831                      .dwattr $C$DW$274, DW_AT_type(*$C$DW$T$19)
    2832                      .dwattr $C$DW$274, DW_AT_name("INTx10")
    2833                      .dwattr $C$DW$274, DW_AT_TI_symbol_name("_INTx10")
    2834                      .dwattr $C$DW$274, DW_AT_bit_offset(0x06), DW_AT_bit_size(0x01)
    2835                      .dwattr $C$DW$274, DW_AT_data_member_location[DW_OP_plus_uconst 0x0]
    2836                      .dwattr $C$DW$274, DW_AT_accessibility(DW_ACCESS_public)
    2837              $C$DW$275       .dwtag  DW_TAG_member
    2838                      .dwattr $C$DW$275, DW_AT_type(*$C$DW$T$19)
    2839                      .dwattr $C$DW$275, DW_AT_name("INTx11")
    2840                      .dwattr $C$DW$275, DW_AT_TI_symbol_name("_INTx11")
    2841                      .dwattr $C$DW$275, DW_AT_bit_offset(0x05), DW_AT_bit_size(0x01)
    2842                      .dwattr $C$DW$275, DW_AT_data_member_location[DW_OP_plus_uconst 0x0]
    2843                      .dwattr $C$DW$275, DW_AT_accessibility(DW_ACCESS_public)
    2844              $C$DW$276       .dwtag  DW_TAG_member
    2845                      .dwattr $C$DW$276, DW_AT_type(*$C$DW$T$19)
TMS320C2000 Assembler PC v6.4.2 Thu Dec 14 15:26:49 2017

Tools Copyright (c) 1996-2015 Texas Instruments Incorporated
interrupt.asm                                                        PAGE   54

    2846                      .dwattr $C$DW$276, DW_AT_name("INTx12")
    2847                      .dwattr $C$DW$276, DW_AT_TI_symbol_name("_INTx12")
    2848                      .dwattr $C$DW$276, DW_AT_bit_offset(0x04), DW_AT_bit_size(0x01)
    2849                      .dwattr $C$DW$276, DW_AT_data_member_location[DW_OP_plus_uconst 0x0]
    2850                      .dwattr $C$DW$276, DW_AT_accessibility(DW_ACCESS_public)
    2851              $C$DW$277       .dwtag  DW_TAG_member
    2852                      .dwattr $C$DW$277, DW_AT_type(*$C$DW$T$19)
    2853                      .dwattr $C$DW$277, DW_AT_name("INTx13")
    2854                      .dwattr $C$DW$277, DW_AT_TI_symbol_name("_INTx13")
    2855                      .dwattr $C$DW$277, DW_AT_bit_offset(0x03), DW_AT_bit_size(0x01)
    2856                      .dwattr $C$DW$277, DW_AT_data_member_location[DW_OP_plus_uconst 0x0]
    2857                      .dwattr $C$DW$277, DW_AT_accessibility(DW_ACCESS_public)
    2858              $C$DW$278       .dwtag  DW_TAG_member
    2859                      .dwattr $C$DW$278, DW_AT_type(*$C$DW$T$19)
    2860                      .dwattr $C$DW$278, DW_AT_name("INTx14")
    2861                      .dwattr $C$DW$278, DW_AT_TI_symbol_name("_INTx14")
    2862                      .dwattr $C$DW$278, DW_AT_bit_offset(0x02), DW_AT_bit_size(0x01)
    2863                      .dwattr $C$DW$278, DW_AT_data_member_location[DW_OP_plus_uconst 0x0]
    2864                      .dwattr $C$DW$278, DW_AT_accessibility(DW_ACCESS_public)
    2865              $C$DW$279       .dwtag  DW_TAG_member
    2866                      .dwattr $C$DW$279, DW_AT_type(*$C$DW$T$19)
    2867                      .dwattr $C$DW$279, DW_AT_name("INTx15")
    2868                      .dwattr $C$DW$279, DW_AT_TI_symbol_name("_INTx15")
    2869                      .dwattr $C$DW$279, DW_AT_bit_offset(0x01), DW_AT_bit_size(0x01)
    2870                      .dwattr $C$DW$279, DW_AT_data_member_location[DW_OP_plus_uconst 0x0]
    2871                      .dwattr $C$DW$279, DW_AT_accessibility(DW_ACCESS_public)
    2872              $C$DW$280       .dwtag  DW_TAG_member
    2873                      .dwattr $C$DW$280, DW_AT_type(*$C$DW$T$19)
    2874                      .dwattr $C$DW$280, DW_AT_name("INTx16")
    2875                      .dwattr $C$DW$280, DW_AT_TI_symbol_name("_INTx16")
    2876                      .dwattr $C$DW$280, DW_AT_bit_offset(0x00), DW_AT_bit_size(0x01)
    2877                      .dwattr $C$DW$280, DW_AT_data_member_location[DW_OP_plus_uconst 0x0]
    2878                      .dwattr $C$DW$280, DW_AT_accessibility(DW_ACCESS_public)
    2879                      .dwendtag $C$DW$T$46
    2880              
    2881              
    2882              $C$DW$T$47      .dwtag  DW_TAG_union_type
    2883                      .dwattr $C$DW$T$47, DW_AT_name("PIEIER9_REG")
    2884                      .dwattr $C$DW$T$47, DW_AT_byte_size(0x01)
    2885              $C$DW$281       .dwtag  DW_TAG_member
    2886                      .dwattr $C$DW$281, DW_AT_type(*$C$DW$T$19)
    2887                      .dwattr $C$DW$281, DW_AT_name("all")
    2888                      .dwattr $C$DW$281, DW_AT_TI_symbol_name("_all")
    2889                      .dwattr $C$DW$281, DW_AT_data_member_location[DW_OP_plus_uconst 0x0]
    2890                      .dwattr $C$DW$281, DW_AT_accessibility(DW_ACCESS_public)
    2891              $C$DW$282       .dwtag  DW_TAG_member
    2892                      .dwattr $C$DW$282, DW_AT_type(*$C$DW$T$46)
    2893                      .dwattr $C$DW$282, DW_AT_name("bit")
    2894                      .dwattr $C$DW$282, DW_AT_TI_symbol_name("_bit")
    2895                      .dwattr $C$DW$282, DW_AT_data_member_location[DW_OP_plus_uconst 0x0]
    2896                      .dwattr $C$DW$282, DW_AT_accessibility(DW_ACCESS_public)
    2897                      .dwendtag $C$DW$T$47
    2898              
    2899              
    2900              $C$DW$T$48      .dwtag  DW_TAG_structure_type
TMS320C2000 Assembler PC v6.4.2 Thu Dec 14 15:26:49 2017

Tools Copyright (c) 1996-2015 Texas Instruments Incorporated
interrupt.asm                                                        PAGE   55

    2901                      .dwattr $C$DW$T$48, DW_AT_name("PIEIFR10_BITS")
    2902                      .dwattr $C$DW$T$48, DW_AT_byte_size(0x01)
    2903              $C$DW$283       .dwtag  DW_TAG_member
    2904                      .dwattr $C$DW$283, DW_AT_type(*$C$DW$T$19)
    2905                      .dwattr $C$DW$283, DW_AT_name("INTx1")
    2906                      .dwattr $C$DW$283, DW_AT_TI_symbol_name("_INTx1")
    2907                      .dwattr $C$DW$283, DW_AT_bit_offset(0x0f), DW_AT_bit_size(0x01)
    2908                      .dwattr $C$DW$283, DW_AT_data_member_location[DW_OP_plus_uconst 0x0]
    2909                      .dwattr $C$DW$283, DW_AT_accessibility(DW_ACCESS_public)
    2910              $C$DW$284       .dwtag  DW_TAG_member
    2911                      .dwattr $C$DW$284, DW_AT_type(*$C$DW$T$19)
    2912                      .dwattr $C$DW$284, DW_AT_name("INTx2")
    2913                      .dwattr $C$DW$284, DW_AT_TI_symbol_name("_INTx2")
    2914                      .dwattr $C$DW$284, DW_AT_bit_offset(0x0e), DW_AT_bit_size(0x01)
    2915                      .dwattr $C$DW$284, DW_AT_data_member_location[DW_OP_plus_uconst 0x0]
    2916                      .dwattr $C$DW$284, DW_AT_accessibility(DW_ACCESS_public)
    2917              $C$DW$285       .dwtag  DW_TAG_member
    2918                      .dwattr $C$DW$285, DW_AT_type(*$C$DW$T$19)
    2919                      .dwattr $C$DW$285, DW_AT_name("INTx3")
    2920                      .dwattr $C$DW$285, DW_AT_TI_symbol_name("_INTx3")
    2921                      .dwattr $C$DW$285, DW_AT_bit_offset(0x0d), DW_AT_bit_size(0x01)
    2922                      .dwattr $C$DW$285, DW_AT_data_member_location[DW_OP_plus_uconst 0x0]
    2923                      .dwattr $C$DW$285, DW_AT_accessibility(DW_ACCESS_public)
    2924              $C$DW$286       .dwtag  DW_TAG_member
    2925                      .dwattr $C$DW$286, DW_AT_type(*$C$DW$T$19)
    2926                      .dwattr $C$DW$286, DW_AT_name("INTx4")
    2927                      .dwattr $C$DW$286, DW_AT_TI_symbol_name("_INTx4")
    2928                      .dwattr $C$DW$286, DW_AT_bit_offset(0x0c), DW_AT_bit_size(0x01)
    2929                      .dwattr $C$DW$286, DW_AT_data_member_location[DW_OP_plus_uconst 0x0]
    2930                      .dwattr $C$DW$286, DW_AT_accessibility(DW_ACCESS_public)
    2931              $C$DW$287       .dwtag  DW_TAG_member
    2932                      .dwattr $C$DW$287, DW_AT_type(*$C$DW$T$19)
    2933                      .dwattr $C$DW$287, DW_AT_name("INTx5")
    2934                      .dwattr $C$DW$287, DW_AT_TI_symbol_name("_INTx5")
    2935                      .dwattr $C$DW$287, DW_AT_bit_offset(0x0b), DW_AT_bit_size(0x01)
    2936                      .dwattr $C$DW$287, DW_AT_data_member_location[DW_OP_plus_uconst 0x0]
    2937                      .dwattr $C$DW$287, DW_AT_accessibility(DW_ACCESS_public)
    2938              $C$DW$288       .dwtag  DW_TAG_member
    2939                      .dwattr $C$DW$288, DW_AT_type(*$C$DW$T$19)
    2940                      .dwattr $C$DW$288, DW_AT_name("INTx6")
    2941                      .dwattr $C$DW$288, DW_AT_TI_symbol_name("_INTx6")
    2942                      .dwattr $C$DW$288, DW_AT_bit_offset(0x0a), DW_AT_bit_size(0x01)
    2943                      .dwattr $C$DW$288, DW_AT_data_member_location[DW_OP_plus_uconst 0x0]
    2944                      .dwattr $C$DW$288, DW_AT_accessibility(DW_ACCESS_public)
    2945              $C$DW$289       .dwtag  DW_TAG_member
    2946                      .dwattr $C$DW$289, DW_AT_type(*$C$DW$T$19)
    2947                      .dwattr $C$DW$289, DW_AT_name("INTx7")
    2948                      .dwattr $C$DW$289, DW_AT_TI_symbol_name("_INTx7")
    2949                      .dwattr $C$DW$289, DW_AT_bit_offset(0x09), DW_AT_bit_size(0x01)
    2950                      .dwattr $C$DW$289, DW_AT_data_member_location[DW_OP_plus_uconst 0x0]
    2951                      .dwattr $C$DW$289, DW_AT_accessibility(DW_ACCESS_public)
    2952              $C$DW$290       .dwtag  DW_TAG_member
    2953                      .dwattr $C$DW$290, DW_AT_type(*$C$DW$T$19)
    2954                      .dwattr $C$DW$290, DW_AT_name("INTx8")
    2955                      .dwattr $C$DW$290, DW_AT_TI_symbol_name("_INTx8")
TMS320C2000 Assembler PC v6.4.2 Thu Dec 14 15:26:49 2017

Tools Copyright (c) 1996-2015 Texas Instruments Incorporated
interrupt.asm                                                        PAGE   56

    2956                      .dwattr $C$DW$290, DW_AT_bit_offset(0x08), DW_AT_bit_size(0x01)
    2957                      .dwattr $C$DW$290, DW_AT_data_member_location[DW_OP_plus_uconst 0x0]
    2958                      .dwattr $C$DW$290, DW_AT_accessibility(DW_ACCESS_public)
    2959              $C$DW$291       .dwtag  DW_TAG_member
    2960                      .dwattr $C$DW$291, DW_AT_type(*$C$DW$T$19)
    2961                      .dwattr $C$DW$291, DW_AT_name("INTx9")
    2962                      .dwattr $C$DW$291, DW_AT_TI_symbol_name("_INTx9")
    2963                      .dwattr $C$DW$291, DW_AT_bit_offset(0x07), DW_AT_bit_size(0x01)
    2964                      .dwattr $C$DW$291, DW_AT_data_member_location[DW_OP_plus_uconst 0x0]
    2965                      .dwattr $C$DW$291, DW_AT_accessibility(DW_ACCESS_public)
    2966              $C$DW$292       .dwtag  DW_TAG_member
    2967                      .dwattr $C$DW$292, DW_AT_type(*$C$DW$T$19)
    2968                      .dwattr $C$DW$292, DW_AT_name("INTx10")
    2969                      .dwattr $C$DW$292, DW_AT_TI_symbol_name("_INTx10")
    2970                      .dwattr $C$DW$292, DW_AT_bit_offset(0x06), DW_AT_bit_size(0x01)
    2971                      .dwattr $C$DW$292, DW_AT_data_member_location[DW_OP_plus_uconst 0x0]
    2972                      .dwattr $C$DW$292, DW_AT_accessibility(DW_ACCESS_public)
    2973              $C$DW$293       .dwtag  DW_TAG_member
    2974                      .dwattr $C$DW$293, DW_AT_type(*$C$DW$T$19)
    2975                      .dwattr $C$DW$293, DW_AT_name("INTx11")
    2976                      .dwattr $C$DW$293, DW_AT_TI_symbol_name("_INTx11")
    2977                      .dwattr $C$DW$293, DW_AT_bit_offset(0x05), DW_AT_bit_size(0x01)
    2978                      .dwattr $C$DW$293, DW_AT_data_member_location[DW_OP_plus_uconst 0x0]
    2979                      .dwattr $C$DW$293, DW_AT_accessibility(DW_ACCESS_public)
    2980              $C$DW$294       .dwtag  DW_TAG_member
    2981                      .dwattr $C$DW$294, DW_AT_type(*$C$DW$T$19)
    2982                      .dwattr $C$DW$294, DW_AT_name("INTx12")
    2983                      .dwattr $C$DW$294, DW_AT_TI_symbol_name("_INTx12")
    2984                      .dwattr $C$DW$294, DW_AT_bit_offset(0x04), DW_AT_bit_size(0x01)
    2985                      .dwattr $C$DW$294, DW_AT_data_member_location[DW_OP_plus_uconst 0x0]
    2986                      .dwattr $C$DW$294, DW_AT_accessibility(DW_ACCESS_public)
    2987              $C$DW$295       .dwtag  DW_TAG_member
    2988                      .dwattr $C$DW$295, DW_AT_type(*$C$DW$T$19)
    2989                      .dwattr $C$DW$295, DW_AT_name("INTx13")
    2990                      .dwattr $C$DW$295, DW_AT_TI_symbol_name("_INTx13")
    2991                      .dwattr $C$DW$295, DW_AT_bit_offset(0x03), DW_AT_bit_size(0x01)
    2992                      .dwattr $C$DW$295, DW_AT_data_member_location[DW_OP_plus_uconst 0x0]
    2993                      .dwattr $C$DW$295, DW_AT_accessibility(DW_ACCESS_public)
    2994              $C$DW$296       .dwtag  DW_TAG_member
    2995                      .dwattr $C$DW$296, DW_AT_type(*$C$DW$T$19)
    2996                      .dwattr $C$DW$296, DW_AT_name("INTx14")
    2997                      .dwattr $C$DW$296, DW_AT_TI_symbol_name("_INTx14")
    2998                      .dwattr $C$DW$296, DW_AT_bit_offset(0x02), DW_AT_bit_size(0x01)
    2999                      .dwattr $C$DW$296, DW_AT_data_member_location[DW_OP_plus_uconst 0x0]
    3000                      .dwattr $C$DW$296, DW_AT_accessibility(DW_ACCESS_public)
    3001              $C$DW$297       .dwtag  DW_TAG_member
    3002                      .dwattr $C$DW$297, DW_AT_type(*$C$DW$T$19)
    3003                      .dwattr $C$DW$297, DW_AT_name("INTx15")
    3004                      .dwattr $C$DW$297, DW_AT_TI_symbol_name("_INTx15")
    3005                      .dwattr $C$DW$297, DW_AT_bit_offset(0x01), DW_AT_bit_size(0x01)
    3006                      .dwattr $C$DW$297, DW_AT_data_member_location[DW_OP_plus_uconst 0x0]
    3007                      .dwattr $C$DW$297, DW_AT_accessibility(DW_ACCESS_public)
    3008              $C$DW$298       .dwtag  DW_TAG_member
    3009                      .dwattr $C$DW$298, DW_AT_type(*$C$DW$T$19)
    3010                      .dwattr $C$DW$298, DW_AT_name("INTx16")
TMS320C2000 Assembler PC v6.4.2 Thu Dec 14 15:26:49 2017

Tools Copyright (c) 1996-2015 Texas Instruments Incorporated
interrupt.asm                                                        PAGE   57

    3011                      .dwattr $C$DW$298, DW_AT_TI_symbol_name("_INTx16")
    3012                      .dwattr $C$DW$298, DW_AT_bit_offset(0x00), DW_AT_bit_size(0x01)
    3013                      .dwattr $C$DW$298, DW_AT_data_member_location[DW_OP_plus_uconst 0x0]
    3014                      .dwattr $C$DW$298, DW_AT_accessibility(DW_ACCESS_public)
    3015                      .dwendtag $C$DW$T$48
    3016              
    3017              
    3018              $C$DW$T$49      .dwtag  DW_TAG_union_type
    3019                      .dwattr $C$DW$T$49, DW_AT_name("PIEIFR10_REG")
    3020                      .dwattr $C$DW$T$49, DW_AT_byte_size(0x01)
    3021              $C$DW$299       .dwtag  DW_TAG_member
    3022                      .dwattr $C$DW$299, DW_AT_type(*$C$DW$T$19)
    3023                      .dwattr $C$DW$299, DW_AT_name("all")
    3024                      .dwattr $C$DW$299, DW_AT_TI_symbol_name("_all")
    3025                      .dwattr $C$DW$299, DW_AT_data_member_location[DW_OP_plus_uconst 0x0]
    3026                      .dwattr $C$DW$299, DW_AT_accessibility(DW_ACCESS_public)
    3027              $C$DW$300       .dwtag  DW_TAG_member
    3028                      .dwattr $C$DW$300, DW_AT_type(*$C$DW$T$48)
    3029                      .dwattr $C$DW$300, DW_AT_name("bit")
    3030                      .dwattr $C$DW$300, DW_AT_TI_symbol_name("_bit")
    3031                      .dwattr $C$DW$300, DW_AT_data_member_location[DW_OP_plus_uconst 0x0]
    3032                      .dwattr $C$DW$300, DW_AT_accessibility(DW_ACCESS_public)
    3033                      .dwendtag $C$DW$T$49
    3034              
    3035              
    3036              $C$DW$T$50      .dwtag  DW_TAG_structure_type
    3037                      .dwattr $C$DW$T$50, DW_AT_name("PIEIFR11_BITS")
    3038                      .dwattr $C$DW$T$50, DW_AT_byte_size(0x01)
    3039              $C$DW$301       .dwtag  DW_TAG_member
    3040                      .dwattr $C$DW$301, DW_AT_type(*$C$DW$T$19)
    3041                      .dwattr $C$DW$301, DW_AT_name("INTx1")
    3042                      .dwattr $C$DW$301, DW_AT_TI_symbol_name("_INTx1")
    3043                      .dwattr $C$DW$301, DW_AT_bit_offset(0x0f), DW_AT_bit_size(0x01)
    3044                      .dwattr $C$DW$301, DW_AT_data_member_location[DW_OP_plus_uconst 0x0]
    3045                      .dwattr $C$DW$301, DW_AT_accessibility(DW_ACCESS_public)
    3046              $C$DW$302       .dwtag  DW_TAG_member
    3047                      .dwattr $C$DW$302, DW_AT_type(*$C$DW$T$19)
    3048                      .dwattr $C$DW$302, DW_AT_name("INTx2")
    3049                      .dwattr $C$DW$302, DW_AT_TI_symbol_name("_INTx2")
    3050                      .dwattr $C$DW$302, DW_AT_bit_offset(0x0e), DW_AT_bit_size(0x01)
    3051                      .dwattr $C$DW$302, DW_AT_data_member_location[DW_OP_plus_uconst 0x0]
    3052                      .dwattr $C$DW$302, DW_AT_accessibility(DW_ACCESS_public)
    3053              $C$DW$303       .dwtag  DW_TAG_member
    3054                      .dwattr $C$DW$303, DW_AT_type(*$C$DW$T$19)
    3055                      .dwattr $C$DW$303, DW_AT_name("INTx3")
    3056                      .dwattr $C$DW$303, DW_AT_TI_symbol_name("_INTx3")
    3057                      .dwattr $C$DW$303, DW_AT_bit_offset(0x0d), DW_AT_bit_size(0x01)
    3058                      .dwattr $C$DW$303, DW_AT_data_member_location[DW_OP_plus_uconst 0x0]
    3059                      .dwattr $C$DW$303, DW_AT_accessibility(DW_ACCESS_public)
    3060              $C$DW$304       .dwtag  DW_TAG_member
    3061                      .dwattr $C$DW$304, DW_AT_type(*$C$DW$T$19)
    3062                      .dwattr $C$DW$304, DW_AT_name("INTx4")
    3063                      .dwattr $C$DW$304, DW_AT_TI_symbol_name("_INTx4")
    3064                      .dwattr $C$DW$304, DW_AT_bit_offset(0x0c), DW_AT_bit_size(0x01)
    3065                      .dwattr $C$DW$304, DW_AT_data_member_location[DW_OP_plus_uconst 0x0]
TMS320C2000 Assembler PC v6.4.2 Thu Dec 14 15:26:49 2017

Tools Copyright (c) 1996-2015 Texas Instruments Incorporated
interrupt.asm                                                        PAGE   58

    3066                      .dwattr $C$DW$304, DW_AT_accessibility(DW_ACCESS_public)
    3067              $C$DW$305       .dwtag  DW_TAG_member
    3068                      .dwattr $C$DW$305, DW_AT_type(*$C$DW$T$19)
    3069                      .dwattr $C$DW$305, DW_AT_name("INTx5")
    3070                      .dwattr $C$DW$305, DW_AT_TI_symbol_name("_INTx5")
    3071                      .dwattr $C$DW$305, DW_AT_bit_offset(0x0b), DW_AT_bit_size(0x01)
    3072                      .dwattr $C$DW$305, DW_AT_data_member_location[DW_OP_plus_uconst 0x0]
    3073                      .dwattr $C$DW$305, DW_AT_accessibility(DW_ACCESS_public)
    3074              $C$DW$306       .dwtag  DW_TAG_member
    3075                      .dwattr $C$DW$306, DW_AT_type(*$C$DW$T$19)
    3076                      .dwattr $C$DW$306, DW_AT_name("INTx6")
    3077                      .dwattr $C$DW$306, DW_AT_TI_symbol_name("_INTx6")
    3078                      .dwattr $C$DW$306, DW_AT_bit_offset(0x0a), DW_AT_bit_size(0x01)
    3079                      .dwattr $C$DW$306, DW_AT_data_member_location[DW_OP_plus_uconst 0x0]
    3080                      .dwattr $C$DW$306, DW_AT_accessibility(DW_ACCESS_public)
    3081              $C$DW$307       .dwtag  DW_TAG_member
    3082                      .dwattr $C$DW$307, DW_AT_type(*$C$DW$T$19)
    3083                      .dwattr $C$DW$307, DW_AT_name("INTx7")
    3084                      .dwattr $C$DW$307, DW_AT_TI_symbol_name("_INTx7")
    3085                      .dwattr $C$DW$307, DW_AT_bit_offset(0x09), DW_AT_bit_size(0x01)
    3086                      .dwattr $C$DW$307, DW_AT_data_member_location[DW_OP_plus_uconst 0x0]
    3087                      .dwattr $C$DW$307, DW_AT_accessibility(DW_ACCESS_public)
    3088              $C$DW$308       .dwtag  DW_TAG_member
    3089                      .dwattr $C$DW$308, DW_AT_type(*$C$DW$T$19)
    3090                      .dwattr $C$DW$308, DW_AT_name("INTx8")
    3091                      .dwattr $C$DW$308, DW_AT_TI_symbol_name("_INTx8")
    3092                      .dwattr $C$DW$308, DW_AT_bit_offset(0x08), DW_AT_bit_size(0x01)
    3093                      .dwattr $C$DW$308, DW_AT_data_member_location[DW_OP_plus_uconst 0x0]
    3094                      .dwattr $C$DW$308, DW_AT_accessibility(DW_ACCESS_public)
    3095              $C$DW$309       .dwtag  DW_TAG_member
    3096                      .dwattr $C$DW$309, DW_AT_type(*$C$DW$T$19)
    3097                      .dwattr $C$DW$309, DW_AT_name("INTx9")
    3098                      .dwattr $C$DW$309, DW_AT_TI_symbol_name("_INTx9")
    3099                      .dwattr $C$DW$309, DW_AT_bit_offset(0x07), DW_AT_bit_size(0x01)
    3100                      .dwattr $C$DW$309, DW_AT_data_member_location[DW_OP_plus_uconst 0x0]
    3101                      .dwattr $C$DW$309, DW_AT_accessibility(DW_ACCESS_public)
    3102              $C$DW$310       .dwtag  DW_TAG_member
    3103                      .dwattr $C$DW$310, DW_AT_type(*$C$DW$T$19)
    3104                      .dwattr $C$DW$310, DW_AT_name("INTx10")
    3105                      .dwattr $C$DW$310, DW_AT_TI_symbol_name("_INTx10")
    3106                      .dwattr $C$DW$310, DW_AT_bit_offset(0x06), DW_AT_bit_size(0x01)
    3107                      .dwattr $C$DW$310, DW_AT_data_member_location[DW_OP_plus_uconst 0x0]
    3108                      .dwattr $C$DW$310, DW_AT_accessibility(DW_ACCESS_public)
    3109              $C$DW$311       .dwtag  DW_TAG_member
    3110                      .dwattr $C$DW$311, DW_AT_type(*$C$DW$T$19)
    3111                      .dwattr $C$DW$311, DW_AT_name("INTx11")
    3112                      .dwattr $C$DW$311, DW_AT_TI_symbol_name("_INTx11")
    3113                      .dwattr $C$DW$311, DW_AT_bit_offset(0x05), DW_AT_bit_size(0x01)
    3114                      .dwattr $C$DW$311, DW_AT_data_member_location[DW_OP_plus_uconst 0x0]
    3115                      .dwattr $C$DW$311, DW_AT_accessibility(DW_ACCESS_public)
    3116              $C$DW$312       .dwtag  DW_TAG_member
    3117                      .dwattr $C$DW$312, DW_AT_type(*$C$DW$T$19)
    3118                      .dwattr $C$DW$312, DW_AT_name("INTx12")
    3119                      .dwattr $C$DW$312, DW_AT_TI_symbol_name("_INTx12")
    3120                      .dwattr $C$DW$312, DW_AT_bit_offset(0x04), DW_AT_bit_size(0x01)
TMS320C2000 Assembler PC v6.4.2 Thu Dec 14 15:26:49 2017

Tools Copyright (c) 1996-2015 Texas Instruments Incorporated
interrupt.asm                                                        PAGE   59

    3121                      .dwattr $C$DW$312, DW_AT_data_member_location[DW_OP_plus_uconst 0x0]
    3122                      .dwattr $C$DW$312, DW_AT_accessibility(DW_ACCESS_public)
    3123              $C$DW$313       .dwtag  DW_TAG_member
    3124                      .dwattr $C$DW$313, DW_AT_type(*$C$DW$T$19)
    3125                      .dwattr $C$DW$313, DW_AT_name("INTx13")
    3126                      .dwattr $C$DW$313, DW_AT_TI_symbol_name("_INTx13")
    3127                      .dwattr $C$DW$313, DW_AT_bit_offset(0x03), DW_AT_bit_size(0x01)
    3128                      .dwattr $C$DW$313, DW_AT_data_member_location[DW_OP_plus_uconst 0x0]
    3129                      .dwattr $C$DW$313, DW_AT_accessibility(DW_ACCESS_public)
    3130              $C$DW$314       .dwtag  DW_TAG_member
    3131                      .dwattr $C$DW$314, DW_AT_type(*$C$DW$T$19)
    3132                      .dwattr $C$DW$314, DW_AT_name("INTx14")
    3133                      .dwattr $C$DW$314, DW_AT_TI_symbol_name("_INTx14")
    3134                      .dwattr $C$DW$314, DW_AT_bit_offset(0x02), DW_AT_bit_size(0x01)
    3135                      .dwattr $C$DW$314, DW_AT_data_member_location[DW_OP_plus_uconst 0x0]
    3136                      .dwattr $C$DW$314, DW_AT_accessibility(DW_ACCESS_public)
    3137              $C$DW$315       .dwtag  DW_TAG_member
    3138                      .dwattr $C$DW$315, DW_AT_type(*$C$DW$T$19)
    3139                      .dwattr $C$DW$315, DW_AT_name("INTx15")
    3140                      .dwattr $C$DW$315, DW_AT_TI_symbol_name("_INTx15")
    3141                      .dwattr $C$DW$315, DW_AT_bit_offset(0x01), DW_AT_bit_size(0x01)
    3142                      .dwattr $C$DW$315, DW_AT_data_member_location[DW_OP_plus_uconst 0x0]
    3143                      .dwattr $C$DW$315, DW_AT_accessibility(DW_ACCESS_public)
    3144              $C$DW$316       .dwtag  DW_TAG_member
    3145                      .dwattr $C$DW$316, DW_AT_type(*$C$DW$T$19)
    3146                      .dwattr $C$DW$316, DW_AT_name("INTx16")
    3147                      .dwattr $C$DW$316, DW_AT_TI_symbol_name("_INTx16")
    3148                      .dwattr $C$DW$316, DW_AT_bit_offset(0x00), DW_AT_bit_size(0x01)
    3149                      .dwattr $C$DW$316, DW_AT_data_member_location[DW_OP_plus_uconst 0x0]
    3150                      .dwattr $C$DW$316, DW_AT_accessibility(DW_ACCESS_public)
    3151                      .dwendtag $C$DW$T$50
    3152              
    3153              
    3154              $C$DW$T$51      .dwtag  DW_TAG_union_type
    3155                      .dwattr $C$DW$T$51, DW_AT_name("PIEIFR11_REG")
    3156                      .dwattr $C$DW$T$51, DW_AT_byte_size(0x01)
    3157              $C$DW$317       .dwtag  DW_TAG_member
    3158                      .dwattr $C$DW$317, DW_AT_type(*$C$DW$T$19)
    3159                      .dwattr $C$DW$317, DW_AT_name("all")
    3160                      .dwattr $C$DW$317, DW_AT_TI_symbol_name("_all")
    3161                      .dwattr $C$DW$317, DW_AT_data_member_location[DW_OP_plus_uconst 0x0]
    3162                      .dwattr $C$DW$317, DW_AT_accessibility(DW_ACCESS_public)
    3163              $C$DW$318       .dwtag  DW_TAG_member
    3164                      .dwattr $C$DW$318, DW_AT_type(*$C$DW$T$50)
    3165                      .dwattr $C$DW$318, DW_AT_name("bit")
    3166                      .dwattr $C$DW$318, DW_AT_TI_symbol_name("_bit")
    3167                      .dwattr $C$DW$318, DW_AT_data_member_location[DW_OP_plus_uconst 0x0]
    3168                      .dwattr $C$DW$318, DW_AT_accessibility(DW_ACCESS_public)
    3169                      .dwendtag $C$DW$T$51
    3170              
    3171              
    3172              $C$DW$T$52      .dwtag  DW_TAG_structure_type
    3173                      .dwattr $C$DW$T$52, DW_AT_name("PIEIFR12_BITS")
    3174                      .dwattr $C$DW$T$52, DW_AT_byte_size(0x01)
    3175              $C$DW$319       .dwtag  DW_TAG_member
TMS320C2000 Assembler PC v6.4.2 Thu Dec 14 15:26:49 2017

Tools Copyright (c) 1996-2015 Texas Instruments Incorporated
interrupt.asm                                                        PAGE   60

    3176                      .dwattr $C$DW$319, DW_AT_type(*$C$DW$T$19)
    3177                      .dwattr $C$DW$319, DW_AT_name("INTx1")
    3178                      .dwattr $C$DW$319, DW_AT_TI_symbol_name("_INTx1")
    3179                      .dwattr $C$DW$319, DW_AT_bit_offset(0x0f), DW_AT_bit_size(0x01)
    3180                      .dwattr $C$DW$319, DW_AT_data_member_location[DW_OP_plus_uconst 0x0]
    3181                      .dwattr $C$DW$319, DW_AT_accessibility(DW_ACCESS_public)
    3182              $C$DW$320       .dwtag  DW_TAG_member
    3183                      .dwattr $C$DW$320, DW_AT_type(*$C$DW$T$19)
    3184                      .dwattr $C$DW$320, DW_AT_name("INTx2")
    3185                      .dwattr $C$DW$320, DW_AT_TI_symbol_name("_INTx2")
    3186                      .dwattr $C$DW$320, DW_AT_bit_offset(0x0e), DW_AT_bit_size(0x01)
    3187                      .dwattr $C$DW$320, DW_AT_data_member_location[DW_OP_plus_uconst 0x0]
    3188                      .dwattr $C$DW$320, DW_AT_accessibility(DW_ACCESS_public)
    3189              $C$DW$321       .dwtag  DW_TAG_member
    3190                      .dwattr $C$DW$321, DW_AT_type(*$C$DW$T$19)
    3191                      .dwattr $C$DW$321, DW_AT_name("INTx3")
    3192                      .dwattr $C$DW$321, DW_AT_TI_symbol_name("_INTx3")
    3193                      .dwattr $C$DW$321, DW_AT_bit_offset(0x0d), DW_AT_bit_size(0x01)
    3194                      .dwattr $C$DW$321, DW_AT_data_member_location[DW_OP_plus_uconst 0x0]
    3195                      .dwattr $C$DW$321, DW_AT_accessibility(DW_ACCESS_public)
    3196              $C$DW$322       .dwtag  DW_TAG_member
    3197                      .dwattr $C$DW$322, DW_AT_type(*$C$DW$T$19)
    3198                      .dwattr $C$DW$322, DW_AT_name("INTx4")
    3199                      .dwattr $C$DW$322, DW_AT_TI_symbol_name("_INTx4")
    3200                      .dwattr $C$DW$322, DW_AT_bit_offset(0x0c), DW_AT_bit_size(0x01)
    3201                      .dwattr $C$DW$322, DW_AT_data_member_location[DW_OP_plus_uconst 0x0]
    3202                      .dwattr $C$DW$322, DW_AT_accessibility(DW_ACCESS_public)
    3203              $C$DW$323       .dwtag  DW_TAG_member
    3204                      .dwattr $C$DW$323, DW_AT_type(*$C$DW$T$19)
    3205                      .dwattr $C$DW$323, DW_AT_name("INTx5")
    3206                      .dwattr $C$DW$323, DW_AT_TI_symbol_name("_INTx5")
    3207                      .dwattr $C$DW$323, DW_AT_bit_offset(0x0b), DW_AT_bit_size(0x01)
    3208                      .dwattr $C$DW$323, DW_AT_data_member_location[DW_OP_plus_uconst 0x0]
    3209                      .dwattr $C$DW$323, DW_AT_accessibility(DW_ACCESS_public)
    3210              $C$DW$324       .dwtag  DW_TAG_member
    3211                      .dwattr $C$DW$324, DW_AT_type(*$C$DW$T$19)
    3212                      .dwattr $C$DW$324, DW_AT_name("INTx6")
    3213                      .dwattr $C$DW$324, DW_AT_TI_symbol_name("_INTx6")
    3214                      .dwattr $C$DW$324, DW_AT_bit_offset(0x0a), DW_AT_bit_size(0x01)
    3215                      .dwattr $C$DW$324, DW_AT_data_member_location[DW_OP_plus_uconst 0x0]
    3216                      .dwattr $C$DW$324, DW_AT_accessibility(DW_ACCESS_public)
    3217              $C$DW$325       .dwtag  DW_TAG_member
    3218                      .dwattr $C$DW$325, DW_AT_type(*$C$DW$T$19)
    3219                      .dwattr $C$DW$325, DW_AT_name("INTx7")
    3220                      .dwattr $C$DW$325, DW_AT_TI_symbol_name("_INTx7")
    3221                      .dwattr $C$DW$325, DW_AT_bit_offset(0x09), DW_AT_bit_size(0x01)
    3222                      .dwattr $C$DW$325, DW_AT_data_member_location[DW_OP_plus_uconst 0x0]
    3223                      .dwattr $C$DW$325, DW_AT_accessibility(DW_ACCESS_public)
    3224              $C$DW$326       .dwtag  DW_TAG_member
    3225                      .dwattr $C$DW$326, DW_AT_type(*$C$DW$T$19)
    3226                      .dwattr $C$DW$326, DW_AT_name("INTx8")
    3227                      .dwattr $C$DW$326, DW_AT_TI_symbol_name("_INTx8")
    3228                      .dwattr $C$DW$326, DW_AT_bit_offset(0x08), DW_AT_bit_size(0x01)
    3229                      .dwattr $C$DW$326, DW_AT_data_member_location[DW_OP_plus_uconst 0x0]
    3230                      .dwattr $C$DW$326, DW_AT_accessibility(DW_ACCESS_public)
TMS320C2000 Assembler PC v6.4.2 Thu Dec 14 15:26:49 2017

Tools Copyright (c) 1996-2015 Texas Instruments Incorporated
interrupt.asm                                                        PAGE   61

    3231              $C$DW$327       .dwtag  DW_TAG_member
    3232                      .dwattr $C$DW$327, DW_AT_type(*$C$DW$T$19)
    3233                      .dwattr $C$DW$327, DW_AT_name("INTx9")
    3234                      .dwattr $C$DW$327, DW_AT_TI_symbol_name("_INTx9")
    3235                      .dwattr $C$DW$327, DW_AT_bit_offset(0x07), DW_AT_bit_size(0x01)
    3236                      .dwattr $C$DW$327, DW_AT_data_member_location[DW_OP_plus_uconst 0x0]
    3237                      .dwattr $C$DW$327, DW_AT_accessibility(DW_ACCESS_public)
    3238              $C$DW$328       .dwtag  DW_TAG_member
    3239                      .dwattr $C$DW$328, DW_AT_type(*$C$DW$T$19)
    3240                      .dwattr $C$DW$328, DW_AT_name("INTx10")
    3241                      .dwattr $C$DW$328, DW_AT_TI_symbol_name("_INTx10")
    3242                      .dwattr $C$DW$328, DW_AT_bit_offset(0x06), DW_AT_bit_size(0x01)
    3243                      .dwattr $C$DW$328, DW_AT_data_member_location[DW_OP_plus_uconst 0x0]
    3244                      .dwattr $C$DW$328, DW_AT_accessibility(DW_ACCESS_public)
    3245              $C$DW$329       .dwtag  DW_TAG_member
    3246                      .dwattr $C$DW$329, DW_AT_type(*$C$DW$T$19)
    3247                      .dwattr $C$DW$329, DW_AT_name("INTx11")
    3248                      .dwattr $C$DW$329, DW_AT_TI_symbol_name("_INTx11")
    3249                      .dwattr $C$DW$329, DW_AT_bit_offset(0x05), DW_AT_bit_size(0x01)
    3250                      .dwattr $C$DW$329, DW_AT_data_member_location[DW_OP_plus_uconst 0x0]
    3251                      .dwattr $C$DW$329, DW_AT_accessibility(DW_ACCESS_public)
    3252              $C$DW$330       .dwtag  DW_TAG_member
    3253                      .dwattr $C$DW$330, DW_AT_type(*$C$DW$T$19)
    3254                      .dwattr $C$DW$330, DW_AT_name("INTx12")
    3255                      .dwattr $C$DW$330, DW_AT_TI_symbol_name("_INTx12")
    3256                      .dwattr $C$DW$330, DW_AT_bit_offset(0x04), DW_AT_bit_size(0x01)
    3257                      .dwattr $C$DW$330, DW_AT_data_member_location[DW_OP_plus_uconst 0x0]
    3258                      .dwattr $C$DW$330, DW_AT_accessibility(DW_ACCESS_public)
    3259              $C$DW$331       .dwtag  DW_TAG_member
    3260                      .dwattr $C$DW$331, DW_AT_type(*$C$DW$T$19)
    3261                      .dwattr $C$DW$331, DW_AT_name("INTx13")
    3262                      .dwattr $C$DW$331, DW_AT_TI_symbol_name("_INTx13")
    3263                      .dwattr $C$DW$331, DW_AT_bit_offset(0x03), DW_AT_bit_size(0x01)
    3264                      .dwattr $C$DW$331, DW_AT_data_member_location[DW_OP_plus_uconst 0x0]
    3265                      .dwattr $C$DW$331, DW_AT_accessibility(DW_ACCESS_public)
    3266              $C$DW$332       .dwtag  DW_TAG_member
    3267                      .dwattr $C$DW$332, DW_AT_type(*$C$DW$T$19)
    3268                      .dwattr $C$DW$332, DW_AT_name("INTx14")
    3269                      .dwattr $C$DW$332, DW_AT_TI_symbol_name("_INTx14")
    3270                      .dwattr $C$DW$332, DW_AT_bit_offset(0x02), DW_AT_bit_size(0x01)
    3271                      .dwattr $C$DW$332, DW_AT_data_member_location[DW_OP_plus_uconst 0x0]
    3272                      .dwattr $C$DW$332, DW_AT_accessibility(DW_ACCESS_public)
    3273              $C$DW$333       .dwtag  DW_TAG_member
    3274                      .dwattr $C$DW$333, DW_AT_type(*$C$DW$T$19)
    3275                      .dwattr $C$DW$333, DW_AT_name("INTx15")
    3276                      .dwattr $C$DW$333, DW_AT_TI_symbol_name("_INTx15")
    3277                      .dwattr $C$DW$333, DW_AT_bit_offset(0x01), DW_AT_bit_size(0x01)
    3278                      .dwattr $C$DW$333, DW_AT_data_member_location[DW_OP_plus_uconst 0x0]
    3279                      .dwattr $C$DW$333, DW_AT_accessibility(DW_ACCESS_public)
    3280              $C$DW$334       .dwtag  DW_TAG_member
    3281                      .dwattr $C$DW$334, DW_AT_type(*$C$DW$T$19)
    3282                      .dwattr $C$DW$334, DW_AT_name("INTx16")
    3283                      .dwattr $C$DW$334, DW_AT_TI_symbol_name("_INTx16")
    3284                      .dwattr $C$DW$334, DW_AT_bit_offset(0x00), DW_AT_bit_size(0x01)
    3285                      .dwattr $C$DW$334, DW_AT_data_member_location[DW_OP_plus_uconst 0x0]
TMS320C2000 Assembler PC v6.4.2 Thu Dec 14 15:26:49 2017

Tools Copyright (c) 1996-2015 Texas Instruments Incorporated
interrupt.asm                                                        PAGE   62

    3286                      .dwattr $C$DW$334, DW_AT_accessibility(DW_ACCESS_public)
    3287                      .dwendtag $C$DW$T$52
    3288              
    3289              
    3290              $C$DW$T$53      .dwtag  DW_TAG_union_type
    3291                      .dwattr $C$DW$T$53, DW_AT_name("PIEIFR12_REG")
    3292                      .dwattr $C$DW$T$53, DW_AT_byte_size(0x01)
    3293              $C$DW$335       .dwtag  DW_TAG_member
    3294                      .dwattr $C$DW$335, DW_AT_type(*$C$DW$T$19)
    3295                      .dwattr $C$DW$335, DW_AT_name("all")
    3296                      .dwattr $C$DW$335, DW_AT_TI_symbol_name("_all")
    3297                      .dwattr $C$DW$335, DW_AT_data_member_location[DW_OP_plus_uconst 0x0]
    3298                      .dwattr $C$DW$335, DW_AT_accessibility(DW_ACCESS_public)
    3299              $C$DW$336       .dwtag  DW_TAG_member
    3300                      .dwattr $C$DW$336, DW_AT_type(*$C$DW$T$52)
    3301                      .dwattr $C$DW$336, DW_AT_name("bit")
    3302                      .dwattr $C$DW$336, DW_AT_TI_symbol_name("_bit")
    3303                      .dwattr $C$DW$336, DW_AT_data_member_location[DW_OP_plus_uconst 0x0]
    3304                      .dwattr $C$DW$336, DW_AT_accessibility(DW_ACCESS_public)
    3305                      .dwendtag $C$DW$T$53
    3306              
    3307              
    3308              $C$DW$T$54      .dwtag  DW_TAG_structure_type
    3309                      .dwattr $C$DW$T$54, DW_AT_name("PIEIFR1_BITS")
    3310                      .dwattr $C$DW$T$54, DW_AT_byte_size(0x01)
    3311              $C$DW$337       .dwtag  DW_TAG_member
    3312                      .dwattr $C$DW$337, DW_AT_type(*$C$DW$T$19)
    3313                      .dwattr $C$DW$337, DW_AT_name("INTx1")
    3314                      .dwattr $C$DW$337, DW_AT_TI_symbol_name("_INTx1")
    3315                      .dwattr $C$DW$337, DW_AT_bit_offset(0x0f), DW_AT_bit_size(0x01)
    3316                      .dwattr $C$DW$337, DW_AT_data_member_location[DW_OP_plus_uconst 0x0]
    3317                      .dwattr $C$DW$337, DW_AT_accessibility(DW_ACCESS_public)
    3318              $C$DW$338       .dwtag  DW_TAG_member
    3319                      .dwattr $C$DW$338, DW_AT_type(*$C$DW$T$19)
    3320                      .dwattr $C$DW$338, DW_AT_name("INTx2")
    3321                      .dwattr $C$DW$338, DW_AT_TI_symbol_name("_INTx2")
    3322                      .dwattr $C$DW$338, DW_AT_bit_offset(0x0e), DW_AT_bit_size(0x01)
    3323                      .dwattr $C$DW$338, DW_AT_data_member_location[DW_OP_plus_uconst 0x0]
    3324                      .dwattr $C$DW$338, DW_AT_accessibility(DW_ACCESS_public)
    3325              $C$DW$339       .dwtag  DW_TAG_member
    3326                      .dwattr $C$DW$339, DW_AT_type(*$C$DW$T$19)
    3327                      .dwattr $C$DW$339, DW_AT_name("INTx3")
    3328                      .dwattr $C$DW$339, DW_AT_TI_symbol_name("_INTx3")
    3329                      .dwattr $C$DW$339, DW_AT_bit_offset(0x0d), DW_AT_bit_size(0x01)
    3330                      .dwattr $C$DW$339, DW_AT_data_member_location[DW_OP_plus_uconst 0x0]
    3331                      .dwattr $C$DW$339, DW_AT_accessibility(DW_ACCESS_public)
    3332              $C$DW$340       .dwtag  DW_TAG_member
    3333                      .dwattr $C$DW$340, DW_AT_type(*$C$DW$T$19)
    3334                      .dwattr $C$DW$340, DW_AT_name("INTx4")
    3335                      .dwattr $C$DW$340, DW_AT_TI_symbol_name("_INTx4")
    3336                      .dwattr $C$DW$340, DW_AT_bit_offset(0x0c), DW_AT_bit_size(0x01)
    3337                      .dwattr $C$DW$340, DW_AT_data_member_location[DW_OP_plus_uconst 0x0]
    3338                      .dwattr $C$DW$340, DW_AT_accessibility(DW_ACCESS_public)
    3339              $C$DW$341       .dwtag  DW_TAG_member
    3340                      .dwattr $C$DW$341, DW_AT_type(*$C$DW$T$19)
TMS320C2000 Assembler PC v6.4.2 Thu Dec 14 15:26:49 2017

Tools Copyright (c) 1996-2015 Texas Instruments Incorporated
interrupt.asm                                                        PAGE   63

    3341                      .dwattr $C$DW$341, DW_AT_name("INTx5")
    3342                      .dwattr $C$DW$341, DW_AT_TI_symbol_name("_INTx5")
    3343                      .dwattr $C$DW$341, DW_AT_bit_offset(0x0b), DW_AT_bit_size(0x01)
    3344                      .dwattr $C$DW$341, DW_AT_data_member_location[DW_OP_plus_uconst 0x0]
    3345                      .dwattr $C$DW$341, DW_AT_accessibility(DW_ACCESS_public)
    3346              $C$DW$342       .dwtag  DW_TAG_member
    3347                      .dwattr $C$DW$342, DW_AT_type(*$C$DW$T$19)
    3348                      .dwattr $C$DW$342, DW_AT_name("INTx6")
    3349                      .dwattr $C$DW$342, DW_AT_TI_symbol_name("_INTx6")
    3350                      .dwattr $C$DW$342, DW_AT_bit_offset(0x0a), DW_AT_bit_size(0x01)
    3351                      .dwattr $C$DW$342, DW_AT_data_member_location[DW_OP_plus_uconst 0x0]
    3352                      .dwattr $C$DW$342, DW_AT_accessibility(DW_ACCESS_public)
    3353              $C$DW$343       .dwtag  DW_TAG_member
    3354                      .dwattr $C$DW$343, DW_AT_type(*$C$DW$T$19)
    3355                      .dwattr $C$DW$343, DW_AT_name("INTx7")
    3356                      .dwattr $C$DW$343, DW_AT_TI_symbol_name("_INTx7")
    3357                      .dwattr $C$DW$343, DW_AT_bit_offset(0x09), DW_AT_bit_size(0x01)
    3358                      .dwattr $C$DW$343, DW_AT_data_member_location[DW_OP_plus_uconst 0x0]
    3359                      .dwattr $C$DW$343, DW_AT_accessibility(DW_ACCESS_public)
    3360              $C$DW$344       .dwtag  DW_TAG_member
    3361                      .dwattr $C$DW$344, DW_AT_type(*$C$DW$T$19)
    3362                      .dwattr $C$DW$344, DW_AT_name("INTx8")
    3363                      .dwattr $C$DW$344, DW_AT_TI_symbol_name("_INTx8")
    3364                      .dwattr $C$DW$344, DW_AT_bit_offset(0x08), DW_AT_bit_size(0x01)
    3365                      .dwattr $C$DW$344, DW_AT_data_member_location[DW_OP_plus_uconst 0x0]
    3366                      .dwattr $C$DW$344, DW_AT_accessibility(DW_ACCESS_public)
    3367              $C$DW$345       .dwtag  DW_TAG_member
    3368                      .dwattr $C$DW$345, DW_AT_type(*$C$DW$T$19)
    3369                      .dwattr $C$DW$345, DW_AT_name("INTx9")
    3370                      .dwattr $C$DW$345, DW_AT_TI_symbol_name("_INTx9")
    3371                      .dwattr $C$DW$345, DW_AT_bit_offset(0x07), DW_AT_bit_size(0x01)
    3372                      .dwattr $C$DW$345, DW_AT_data_member_location[DW_OP_plus_uconst 0x0]
    3373                      .dwattr $C$DW$345, DW_AT_accessibility(DW_ACCESS_public)
    3374              $C$DW$346       .dwtag  DW_TAG_member
    3375                      .dwattr $C$DW$346, DW_AT_type(*$C$DW$T$19)
    3376                      .dwattr $C$DW$346, DW_AT_name("INTx10")
    3377                      .dwattr $C$DW$346, DW_AT_TI_symbol_name("_INTx10")
    3378                      .dwattr $C$DW$346, DW_AT_bit_offset(0x06), DW_AT_bit_size(0x01)
    3379                      .dwattr $C$DW$346, DW_AT_data_member_location[DW_OP_plus_uconst 0x0]
    3380                      .dwattr $C$DW$346, DW_AT_accessibility(DW_ACCESS_public)
    3381              $C$DW$347       .dwtag  DW_TAG_member
    3382                      .dwattr $C$DW$347, DW_AT_type(*$C$DW$T$19)
    3383                      .dwattr $C$DW$347, DW_AT_name("INTx11")
    3384                      .dwattr $C$DW$347, DW_AT_TI_symbol_name("_INTx11")
    3385                      .dwattr $C$DW$347, DW_AT_bit_offset(0x05), DW_AT_bit_size(0x01)
    3386                      .dwattr $C$DW$347, DW_AT_data_member_location[DW_OP_plus_uconst 0x0]
    3387                      .dwattr $C$DW$347, DW_AT_accessibility(DW_ACCESS_public)
    3388              $C$DW$348       .dwtag  DW_TAG_member
    3389                      .dwattr $C$DW$348, DW_AT_type(*$C$DW$T$19)
    3390                      .dwattr $C$DW$348, DW_AT_name("INTx12")
    3391                      .dwattr $C$DW$348, DW_AT_TI_symbol_name("_INTx12")
    3392                      .dwattr $C$DW$348, DW_AT_bit_offset(0x04), DW_AT_bit_size(0x01)
    3393                      .dwattr $C$DW$348, DW_AT_data_member_location[DW_OP_plus_uconst 0x0]
    3394                      .dwattr $C$DW$348, DW_AT_accessibility(DW_ACCESS_public)
    3395              $C$DW$349       .dwtag  DW_TAG_member
TMS320C2000 Assembler PC v6.4.2 Thu Dec 14 15:26:49 2017

Tools Copyright (c) 1996-2015 Texas Instruments Incorporated
interrupt.asm                                                        PAGE   64

    3396                      .dwattr $C$DW$349, DW_AT_type(*$C$DW$T$19)
    3397                      .dwattr $C$DW$349, DW_AT_name("INTx13")
    3398                      .dwattr $C$DW$349, DW_AT_TI_symbol_name("_INTx13")
    3399                      .dwattr $C$DW$349, DW_AT_bit_offset(0x03), DW_AT_bit_size(0x01)
    3400                      .dwattr $C$DW$349, DW_AT_data_member_location[DW_OP_plus_uconst 0x0]
    3401                      .dwattr $C$DW$349, DW_AT_accessibility(DW_ACCESS_public)
    3402              $C$DW$350       .dwtag  DW_TAG_member
    3403                      .dwattr $C$DW$350, DW_AT_type(*$C$DW$T$19)
    3404                      .dwattr $C$DW$350, DW_AT_name("INTx14")
    3405                      .dwattr $C$DW$350, DW_AT_TI_symbol_name("_INTx14")
    3406                      .dwattr $C$DW$350, DW_AT_bit_offset(0x02), DW_AT_bit_size(0x01)
    3407                      .dwattr $C$DW$350, DW_AT_data_member_location[DW_OP_plus_uconst 0x0]
    3408                      .dwattr $C$DW$350, DW_AT_accessibility(DW_ACCESS_public)
    3409              $C$DW$351       .dwtag  DW_TAG_member
    3410                      .dwattr $C$DW$351, DW_AT_type(*$C$DW$T$19)
    3411                      .dwattr $C$DW$351, DW_AT_name("INTx15")
    3412                      .dwattr $C$DW$351, DW_AT_TI_symbol_name("_INTx15")
    3413                      .dwattr $C$DW$351, DW_AT_bit_offset(0x01), DW_AT_bit_size(0x01)
    3414                      .dwattr $C$DW$351, DW_AT_data_member_location[DW_OP_plus_uconst 0x0]
    3415                      .dwattr $C$DW$351, DW_AT_accessibility(DW_ACCESS_public)
    3416              $C$DW$352       .dwtag  DW_TAG_member
    3417                      .dwattr $C$DW$352, DW_AT_type(*$C$DW$T$19)
    3418                      .dwattr $C$DW$352, DW_AT_name("INTx16")
    3419                      .dwattr $C$DW$352, DW_AT_TI_symbol_name("_INTx16")
    3420                      .dwattr $C$DW$352, DW_AT_bit_offset(0x00), DW_AT_bit_size(0x01)
    3421                      .dwattr $C$DW$352, DW_AT_data_member_location[DW_OP_plus_uconst 0x0]
    3422                      .dwattr $C$DW$352, DW_AT_accessibility(DW_ACCESS_public)
    3423                      .dwendtag $C$DW$T$54
    3424              
    3425              
    3426              $C$DW$T$55      .dwtag  DW_TAG_union_type
    3427                      .dwattr $C$DW$T$55, DW_AT_name("PIEIFR1_REG")
    3428                      .dwattr $C$DW$T$55, DW_AT_byte_size(0x01)
    3429              $C$DW$353       .dwtag  DW_TAG_member
    3430                      .dwattr $C$DW$353, DW_AT_type(*$C$DW$T$19)
    3431                      .dwattr $C$DW$353, DW_AT_name("all")
    3432                      .dwattr $C$DW$353, DW_AT_TI_symbol_name("_all")
    3433                      .dwattr $C$DW$353, DW_AT_data_member_location[DW_OP_plus_uconst 0x0]
    3434                      .dwattr $C$DW$353, DW_AT_accessibility(DW_ACCESS_public)
    3435              $C$DW$354       .dwtag  DW_TAG_member
    3436                      .dwattr $C$DW$354, DW_AT_type(*$C$DW$T$54)
    3437                      .dwattr $C$DW$354, DW_AT_name("bit")
    3438                      .dwattr $C$DW$354, DW_AT_TI_symbol_name("_bit")
    3439                      .dwattr $C$DW$354, DW_AT_data_member_location[DW_OP_plus_uconst 0x0]
    3440                      .dwattr $C$DW$354, DW_AT_accessibility(DW_ACCESS_public)
    3441                      .dwendtag $C$DW$T$55
    3442              
    3443              
    3444              $C$DW$T$56      .dwtag  DW_TAG_structure_type
    3445                      .dwattr $C$DW$T$56, DW_AT_name("PIEIFR2_BITS")
    3446                      .dwattr $C$DW$T$56, DW_AT_byte_size(0x01)
    3447              $C$DW$355       .dwtag  DW_TAG_member
    3448                      .dwattr $C$DW$355, DW_AT_type(*$C$DW$T$19)
    3449                      .dwattr $C$DW$355, DW_AT_name("INTx1")
    3450                      .dwattr $C$DW$355, DW_AT_TI_symbol_name("_INTx1")
TMS320C2000 Assembler PC v6.4.2 Thu Dec 14 15:26:49 2017

Tools Copyright (c) 1996-2015 Texas Instruments Incorporated
interrupt.asm                                                        PAGE   65

    3451                      .dwattr $C$DW$355, DW_AT_bit_offset(0x0f), DW_AT_bit_size(0x01)
    3452                      .dwattr $C$DW$355, DW_AT_data_member_location[DW_OP_plus_uconst 0x0]
    3453                      .dwattr $C$DW$355, DW_AT_accessibility(DW_ACCESS_public)
    3454              $C$DW$356       .dwtag  DW_TAG_member
    3455                      .dwattr $C$DW$356, DW_AT_type(*$C$DW$T$19)
    3456                      .dwattr $C$DW$356, DW_AT_name("INTx2")
    3457                      .dwattr $C$DW$356, DW_AT_TI_symbol_name("_INTx2")
    3458                      .dwattr $C$DW$356, DW_AT_bit_offset(0x0e), DW_AT_bit_size(0x01)
    3459                      .dwattr $C$DW$356, DW_AT_data_member_location[DW_OP_plus_uconst 0x0]
    3460                      .dwattr $C$DW$356, DW_AT_accessibility(DW_ACCESS_public)
    3461              $C$DW$357       .dwtag  DW_TAG_member
    3462                      .dwattr $C$DW$357, DW_AT_type(*$C$DW$T$19)
    3463                      .dwattr $C$DW$357, DW_AT_name("INTx3")
    3464                      .dwattr $C$DW$357, DW_AT_TI_symbol_name("_INTx3")
    3465                      .dwattr $C$DW$357, DW_AT_bit_offset(0x0d), DW_AT_bit_size(0x01)
    3466                      .dwattr $C$DW$357, DW_AT_data_member_location[DW_OP_plus_uconst 0x0]
    3467                      .dwattr $C$DW$357, DW_AT_accessibility(DW_ACCESS_public)
    3468              $C$DW$358       .dwtag  DW_TAG_member
    3469                      .dwattr $C$DW$358, DW_AT_type(*$C$DW$T$19)
    3470                      .dwattr $C$DW$358, DW_AT_name("INTx4")
    3471                      .dwattr $C$DW$358, DW_AT_TI_symbol_name("_INTx4")
    3472                      .dwattr $C$DW$358, DW_AT_bit_offset(0x0c), DW_AT_bit_size(0x01)
    3473                      .dwattr $C$DW$358, DW_AT_data_member_location[DW_OP_plus_uconst 0x0]
    3474                      .dwattr $C$DW$358, DW_AT_accessibility(DW_ACCESS_public)
    3475              $C$DW$359       .dwtag  DW_TAG_member
    3476                      .dwattr $C$DW$359, DW_AT_type(*$C$DW$T$19)
    3477                      .dwattr $C$DW$359, DW_AT_name("INTx5")
    3478                      .dwattr $C$DW$359, DW_AT_TI_symbol_name("_INTx5")
    3479                      .dwattr $C$DW$359, DW_AT_bit_offset(0x0b), DW_AT_bit_size(0x01)
    3480                      .dwattr $C$DW$359, DW_AT_data_member_location[DW_OP_plus_uconst 0x0]
    3481                      .dwattr $C$DW$359, DW_AT_accessibility(DW_ACCESS_public)
    3482              $C$DW$360       .dwtag  DW_TAG_member
    3483                      .dwattr $C$DW$360, DW_AT_type(*$C$DW$T$19)
    3484                      .dwattr $C$DW$360, DW_AT_name("INTx6")
    3485                      .dwattr $C$DW$360, DW_AT_TI_symbol_name("_INTx6")
    3486                      .dwattr $C$DW$360, DW_AT_bit_offset(0x0a), DW_AT_bit_size(0x01)
    3487                      .dwattr $C$DW$360, DW_AT_data_member_location[DW_OP_plus_uconst 0x0]
    3488                      .dwattr $C$DW$360, DW_AT_accessibility(DW_ACCESS_public)
    3489              $C$DW$361       .dwtag  DW_TAG_member
    3490                      .dwattr $C$DW$361, DW_AT_type(*$C$DW$T$19)
    3491                      .dwattr $C$DW$361, DW_AT_name("INTx7")
    3492                      .dwattr $C$DW$361, DW_AT_TI_symbol_name("_INTx7")
    3493                      .dwattr $C$DW$361, DW_AT_bit_offset(0x09), DW_AT_bit_size(0x01)
    3494                      .dwattr $C$DW$361, DW_AT_data_member_location[DW_OP_plus_uconst 0x0]
    3495                      .dwattr $C$DW$361, DW_AT_accessibility(DW_ACCESS_public)
    3496              $C$DW$362       .dwtag  DW_TAG_member
    3497                      .dwattr $C$DW$362, DW_AT_type(*$C$DW$T$19)
    3498                      .dwattr $C$DW$362, DW_AT_name("INTx8")
    3499                      .dwattr $C$DW$362, DW_AT_TI_symbol_name("_INTx8")
    3500                      .dwattr $C$DW$362, DW_AT_bit_offset(0x08), DW_AT_bit_size(0x01)
    3501                      .dwattr $C$DW$362, DW_AT_data_member_location[DW_OP_plus_uconst 0x0]
    3502                      .dwattr $C$DW$362, DW_AT_accessibility(DW_ACCESS_public)
    3503              $C$DW$363       .dwtag  DW_TAG_member
    3504                      .dwattr $C$DW$363, DW_AT_type(*$C$DW$T$19)
    3505                      .dwattr $C$DW$363, DW_AT_name("INTx9")
TMS320C2000 Assembler PC v6.4.2 Thu Dec 14 15:26:49 2017

Tools Copyright (c) 1996-2015 Texas Instruments Incorporated
interrupt.asm                                                        PAGE   66

    3506                      .dwattr $C$DW$363, DW_AT_TI_symbol_name("_INTx9")
    3507                      .dwattr $C$DW$363, DW_AT_bit_offset(0x07), DW_AT_bit_size(0x01)
    3508                      .dwattr $C$DW$363, DW_AT_data_member_location[DW_OP_plus_uconst 0x0]
    3509                      .dwattr $C$DW$363, DW_AT_accessibility(DW_ACCESS_public)
    3510              $C$DW$364       .dwtag  DW_TAG_member
    3511                      .dwattr $C$DW$364, DW_AT_type(*$C$DW$T$19)
    3512                      .dwattr $C$DW$364, DW_AT_name("INTx10")
    3513                      .dwattr $C$DW$364, DW_AT_TI_symbol_name("_INTx10")
    3514                      .dwattr $C$DW$364, DW_AT_bit_offset(0x06), DW_AT_bit_size(0x01)
    3515                      .dwattr $C$DW$364, DW_AT_data_member_location[DW_OP_plus_uconst 0x0]
    3516                      .dwattr $C$DW$364, DW_AT_accessibility(DW_ACCESS_public)
    3517              $C$DW$365       .dwtag  DW_TAG_member
    3518                      .dwattr $C$DW$365, DW_AT_type(*$C$DW$T$19)
    3519                      .dwattr $C$DW$365, DW_AT_name("INTx11")
    3520                      .dwattr $C$DW$365, DW_AT_TI_symbol_name("_INTx11")
    3521                      .dwattr $C$DW$365, DW_AT_bit_offset(0x05), DW_AT_bit_size(0x01)
    3522                      .dwattr $C$DW$365, DW_AT_data_member_location[DW_OP_plus_uconst 0x0]
    3523                      .dwattr $C$DW$365, DW_AT_accessibility(DW_ACCESS_public)
    3524              $C$DW$366       .dwtag  DW_TAG_member
    3525                      .dwattr $C$DW$366, DW_AT_type(*$C$DW$T$19)
    3526                      .dwattr $C$DW$366, DW_AT_name("INTx12")
    3527                      .dwattr $C$DW$366, DW_AT_TI_symbol_name("_INTx12")
    3528                      .dwattr $C$DW$366, DW_AT_bit_offset(0x04), DW_AT_bit_size(0x01)
    3529                      .dwattr $C$DW$366, DW_AT_data_member_location[DW_OP_plus_uconst 0x0]
    3530                      .dwattr $C$DW$366, DW_AT_accessibility(DW_ACCESS_public)
    3531              $C$DW$367       .dwtag  DW_TAG_member
    3532                      .dwattr $C$DW$367, DW_AT_type(*$C$DW$T$19)
    3533                      .dwattr $C$DW$367, DW_AT_name("INTx13")
    3534                      .dwattr $C$DW$367, DW_AT_TI_symbol_name("_INTx13")
    3535                      .dwattr $C$DW$367, DW_AT_bit_offset(0x03), DW_AT_bit_size(0x01)
    3536                      .dwattr $C$DW$367, DW_AT_data_member_location[DW_OP_plus_uconst 0x0]
    3537                      .dwattr $C$DW$367, DW_AT_accessibility(DW_ACCESS_public)
    3538              $C$DW$368       .dwtag  DW_TAG_member
    3539                      .dwattr $C$DW$368, DW_AT_type(*$C$DW$T$19)
    3540                      .dwattr $C$DW$368, DW_AT_name("INTx14")
    3541                      .dwattr $C$DW$368, DW_AT_TI_symbol_name("_INTx14")
    3542                      .dwattr $C$DW$368, DW_AT_bit_offset(0x02), DW_AT_bit_size(0x01)
    3543                      .dwattr $C$DW$368, DW_AT_data_member_location[DW_OP_plus_uconst 0x0]
    3544                      .dwattr $C$DW$368, DW_AT_accessibility(DW_ACCESS_public)
    3545              $C$DW$369       .dwtag  DW_TAG_member
    3546                      .dwattr $C$DW$369, DW_AT_type(*$C$DW$T$19)
    3547                      .dwattr $C$DW$369, DW_AT_name("INTx15")
    3548                      .dwattr $C$DW$369, DW_AT_TI_symbol_name("_INTx15")
    3549                      .dwattr $C$DW$369, DW_AT_bit_offset(0x01), DW_AT_bit_size(0x01)
    3550                      .dwattr $C$DW$369, DW_AT_data_member_location[DW_OP_plus_uconst 0x0]
    3551                      .dwattr $C$DW$369, DW_AT_accessibility(DW_ACCESS_public)
    3552              $C$DW$370       .dwtag  DW_TAG_member
    3553                      .dwattr $C$DW$370, DW_AT_type(*$C$DW$T$19)
    3554                      .dwattr $C$DW$370, DW_AT_name("INTx16")
    3555                      .dwattr $C$DW$370, DW_AT_TI_symbol_name("_INTx16")
    3556                      .dwattr $C$DW$370, DW_AT_bit_offset(0x00), DW_AT_bit_size(0x01)
    3557                      .dwattr $C$DW$370, DW_AT_data_member_location[DW_OP_plus_uconst 0x0]
    3558                      .dwattr $C$DW$370, DW_AT_accessibility(DW_ACCESS_public)
    3559                      .dwendtag $C$DW$T$56
    3560              
TMS320C2000 Assembler PC v6.4.2 Thu Dec 14 15:26:49 2017

Tools Copyright (c) 1996-2015 Texas Instruments Incorporated
interrupt.asm                                                        PAGE   67

    3561              
    3562              $C$DW$T$57      .dwtag  DW_TAG_union_type
    3563                      .dwattr $C$DW$T$57, DW_AT_name("PIEIFR2_REG")
    3564                      .dwattr $C$DW$T$57, DW_AT_byte_size(0x01)
    3565              $C$DW$371       .dwtag  DW_TAG_member
    3566                      .dwattr $C$DW$371, DW_AT_type(*$C$DW$T$19)
    3567                      .dwattr $C$DW$371, DW_AT_name("all")
    3568                      .dwattr $C$DW$371, DW_AT_TI_symbol_name("_all")
    3569                      .dwattr $C$DW$371, DW_AT_data_member_location[DW_OP_plus_uconst 0x0]
    3570                      .dwattr $C$DW$371, DW_AT_accessibility(DW_ACCESS_public)
    3571              $C$DW$372       .dwtag  DW_TAG_member
    3572                      .dwattr $C$DW$372, DW_AT_type(*$C$DW$T$56)
    3573                      .dwattr $C$DW$372, DW_AT_name("bit")
    3574                      .dwattr $C$DW$372, DW_AT_TI_symbol_name("_bit")
    3575                      .dwattr $C$DW$372, DW_AT_data_member_location[DW_OP_plus_uconst 0x0]
    3576                      .dwattr $C$DW$372, DW_AT_accessibility(DW_ACCESS_public)
    3577                      .dwendtag $C$DW$T$57
    3578              
    3579              
    3580              $C$DW$T$58      .dwtag  DW_TAG_structure_type
    3581                      .dwattr $C$DW$T$58, DW_AT_name("PIEIFR3_BITS")
    3582                      .dwattr $C$DW$T$58, DW_AT_byte_size(0x01)
    3583              $C$DW$373       .dwtag  DW_TAG_member
    3584                      .dwattr $C$DW$373, DW_AT_type(*$C$DW$T$19)
    3585                      .dwattr $C$DW$373, DW_AT_name("INTx1")
    3586                      .dwattr $C$DW$373, DW_AT_TI_symbol_name("_INTx1")
    3587                      .dwattr $C$DW$373, DW_AT_bit_offset(0x0f), DW_AT_bit_size(0x01)
    3588                      .dwattr $C$DW$373, DW_AT_data_member_location[DW_OP_plus_uconst 0x0]
    3589                      .dwattr $C$DW$373, DW_AT_accessibility(DW_ACCESS_public)
    3590              $C$DW$374       .dwtag  DW_TAG_member
    3591                      .dwattr $C$DW$374, DW_AT_type(*$C$DW$T$19)
    3592                      .dwattr $C$DW$374, DW_AT_name("INTx2")
    3593                      .dwattr $C$DW$374, DW_AT_TI_symbol_name("_INTx2")
    3594                      .dwattr $C$DW$374, DW_AT_bit_offset(0x0e), DW_AT_bit_size(0x01)
    3595                      .dwattr $C$DW$374, DW_AT_data_member_location[DW_OP_plus_uconst 0x0]
    3596                      .dwattr $C$DW$374, DW_AT_accessibility(DW_ACCESS_public)
    3597              $C$DW$375       .dwtag  DW_TAG_member
    3598                      .dwattr $C$DW$375, DW_AT_type(*$C$DW$T$19)
    3599                      .dwattr $C$DW$375, DW_AT_name("INTx3")
    3600                      .dwattr $C$DW$375, DW_AT_TI_symbol_name("_INTx3")
    3601                      .dwattr $C$DW$375, DW_AT_bit_offset(0x0d), DW_AT_bit_size(0x01)
    3602                      .dwattr $C$DW$375, DW_AT_data_member_location[DW_OP_plus_uconst 0x0]
    3603                      .dwattr $C$DW$375, DW_AT_accessibility(DW_ACCESS_public)
    3604              $C$DW$376       .dwtag  DW_TAG_member
    3605                      .dwattr $C$DW$376, DW_AT_type(*$C$DW$T$19)
    3606                      .dwattr $C$DW$376, DW_AT_name("INTx4")
    3607                      .dwattr $C$DW$376, DW_AT_TI_symbol_name("_INTx4")
    3608                      .dwattr $C$DW$376, DW_AT_bit_offset(0x0c), DW_AT_bit_size(0x01)
    3609                      .dwattr $C$DW$376, DW_AT_data_member_location[DW_OP_plus_uconst 0x0]
    3610                      .dwattr $C$DW$376, DW_AT_accessibility(DW_ACCESS_public)
    3611              $C$DW$377       .dwtag  DW_TAG_member
    3612                      .dwattr $C$DW$377, DW_AT_type(*$C$DW$T$19)
    3613                      .dwattr $C$DW$377, DW_AT_name("INTx5")
    3614                      .dwattr $C$DW$377, DW_AT_TI_symbol_name("_INTx5")
    3615                      .dwattr $C$DW$377, DW_AT_bit_offset(0x0b), DW_AT_bit_size(0x01)
TMS320C2000 Assembler PC v6.4.2 Thu Dec 14 15:26:49 2017

Tools Copyright (c) 1996-2015 Texas Instruments Incorporated
interrupt.asm                                                        PAGE   68

    3616                      .dwattr $C$DW$377, DW_AT_data_member_location[DW_OP_plus_uconst 0x0]
    3617                      .dwattr $C$DW$377, DW_AT_accessibility(DW_ACCESS_public)
    3618              $C$DW$378       .dwtag  DW_TAG_member
    3619                      .dwattr $C$DW$378, DW_AT_type(*$C$DW$T$19)
    3620                      .dwattr $C$DW$378, DW_AT_name("INTx6")
    3621                      .dwattr $C$DW$378, DW_AT_TI_symbol_name("_INTx6")
    3622                      .dwattr $C$DW$378, DW_AT_bit_offset(0x0a), DW_AT_bit_size(0x01)
    3623                      .dwattr $C$DW$378, DW_AT_data_member_location[DW_OP_plus_uconst 0x0]
    3624                      .dwattr $C$DW$378, DW_AT_accessibility(DW_ACCESS_public)
    3625              $C$DW$379       .dwtag  DW_TAG_member
    3626                      .dwattr $C$DW$379, DW_AT_type(*$C$DW$T$19)
    3627                      .dwattr $C$DW$379, DW_AT_name("INTx7")
    3628                      .dwattr $C$DW$379, DW_AT_TI_symbol_name("_INTx7")
    3629                      .dwattr $C$DW$379, DW_AT_bit_offset(0x09), DW_AT_bit_size(0x01)
    3630                      .dwattr $C$DW$379, DW_AT_data_member_location[DW_OP_plus_uconst 0x0]
    3631                      .dwattr $C$DW$379, DW_AT_accessibility(DW_ACCESS_public)
    3632              $C$DW$380       .dwtag  DW_TAG_member
    3633                      .dwattr $C$DW$380, DW_AT_type(*$C$DW$T$19)
    3634                      .dwattr $C$DW$380, DW_AT_name("INTx8")
    3635                      .dwattr $C$DW$380, DW_AT_TI_symbol_name("_INTx8")
    3636                      .dwattr $C$DW$380, DW_AT_bit_offset(0x08), DW_AT_bit_size(0x01)
    3637                      .dwattr $C$DW$380, DW_AT_data_member_location[DW_OP_plus_uconst 0x0]
    3638                      .dwattr $C$DW$380, DW_AT_accessibility(DW_ACCESS_public)
    3639              $C$DW$381       .dwtag  DW_TAG_member
    3640                      .dwattr $C$DW$381, DW_AT_type(*$C$DW$T$19)
    3641                      .dwattr $C$DW$381, DW_AT_name("INTx9")
    3642                      .dwattr $C$DW$381, DW_AT_TI_symbol_name("_INTx9")
    3643                      .dwattr $C$DW$381, DW_AT_bit_offset(0x07), DW_AT_bit_size(0x01)
    3644                      .dwattr $C$DW$381, DW_AT_data_member_location[DW_OP_plus_uconst 0x0]
    3645                      .dwattr $C$DW$381, DW_AT_accessibility(DW_ACCESS_public)
    3646              $C$DW$382       .dwtag  DW_TAG_member
    3647                      .dwattr $C$DW$382, DW_AT_type(*$C$DW$T$19)
    3648                      .dwattr $C$DW$382, DW_AT_name("INTx10")
    3649                      .dwattr $C$DW$382, DW_AT_TI_symbol_name("_INTx10")
    3650                      .dwattr $C$DW$382, DW_AT_bit_offset(0x06), DW_AT_bit_size(0x01)
    3651                      .dwattr $C$DW$382, DW_AT_data_member_location[DW_OP_plus_uconst 0x0]
    3652                      .dwattr $C$DW$382, DW_AT_accessibility(DW_ACCESS_public)
    3653              $C$DW$383       .dwtag  DW_TAG_member
    3654                      .dwattr $C$DW$383, DW_AT_type(*$C$DW$T$19)
    3655                      .dwattr $C$DW$383, DW_AT_name("INTx11")
    3656                      .dwattr $C$DW$383, DW_AT_TI_symbol_name("_INTx11")
    3657                      .dwattr $C$DW$383, DW_AT_bit_offset(0x05), DW_AT_bit_size(0x01)
    3658                      .dwattr $C$DW$383, DW_AT_data_member_location[DW_OP_plus_uconst 0x0]
    3659                      .dwattr $C$DW$383, DW_AT_accessibility(DW_ACCESS_public)
    3660              $C$DW$384       .dwtag  DW_TAG_member
    3661                      .dwattr $C$DW$384, DW_AT_type(*$C$DW$T$19)
    3662                      .dwattr $C$DW$384, DW_AT_name("INTx12")
    3663                      .dwattr $C$DW$384, DW_AT_TI_symbol_name("_INTx12")
    3664                      .dwattr $C$DW$384, DW_AT_bit_offset(0x04), DW_AT_bit_size(0x01)
    3665                      .dwattr $C$DW$384, DW_AT_data_member_location[DW_OP_plus_uconst 0x0]
    3666                      .dwattr $C$DW$384, DW_AT_accessibility(DW_ACCESS_public)
    3667              $C$DW$385       .dwtag  DW_TAG_member
    3668                      .dwattr $C$DW$385, DW_AT_type(*$C$DW$T$19)
    3669                      .dwattr $C$DW$385, DW_AT_name("INTx13")
    3670                      .dwattr $C$DW$385, DW_AT_TI_symbol_name("_INTx13")
TMS320C2000 Assembler PC v6.4.2 Thu Dec 14 15:26:49 2017

Tools Copyright (c) 1996-2015 Texas Instruments Incorporated
interrupt.asm                                                        PAGE   69

    3671                      .dwattr $C$DW$385, DW_AT_bit_offset(0x03), DW_AT_bit_size(0x01)
    3672                      .dwattr $C$DW$385, DW_AT_data_member_location[DW_OP_plus_uconst 0x0]
    3673                      .dwattr $C$DW$385, DW_AT_accessibility(DW_ACCESS_public)
    3674              $C$DW$386       .dwtag  DW_TAG_member
    3675                      .dwattr $C$DW$386, DW_AT_type(*$C$DW$T$19)
    3676                      .dwattr $C$DW$386, DW_AT_name("INTx14")
    3677                      .dwattr $C$DW$386, DW_AT_TI_symbol_name("_INTx14")
    3678                      .dwattr $C$DW$386, DW_AT_bit_offset(0x02), DW_AT_bit_size(0x01)
    3679                      .dwattr $C$DW$386, DW_AT_data_member_location[DW_OP_plus_uconst 0x0]
    3680                      .dwattr $C$DW$386, DW_AT_accessibility(DW_ACCESS_public)
    3681              $C$DW$387       .dwtag  DW_TAG_member
    3682                      .dwattr $C$DW$387, DW_AT_type(*$C$DW$T$19)
    3683                      .dwattr $C$DW$387, DW_AT_name("INTx15")
    3684                      .dwattr $C$DW$387, DW_AT_TI_symbol_name("_INTx15")
    3685                      .dwattr $C$DW$387, DW_AT_bit_offset(0x01), DW_AT_bit_size(0x01)
    3686                      .dwattr $C$DW$387, DW_AT_data_member_location[DW_OP_plus_uconst 0x0]
    3687                      .dwattr $C$DW$387, DW_AT_accessibility(DW_ACCESS_public)
    3688              $C$DW$388       .dwtag  DW_TAG_member
    3689                      .dwattr $C$DW$388, DW_AT_type(*$C$DW$T$19)
    3690                      .dwattr $C$DW$388, DW_AT_name("INTx16")
    3691                      .dwattr $C$DW$388, DW_AT_TI_symbol_name("_INTx16")
    3692                      .dwattr $C$DW$388, DW_AT_bit_offset(0x00), DW_AT_bit_size(0x01)
    3693                      .dwattr $C$DW$388, DW_AT_data_member_location[DW_OP_plus_uconst 0x0]
    3694                      .dwattr $C$DW$388, DW_AT_accessibility(DW_ACCESS_public)
    3695                      .dwendtag $C$DW$T$58
    3696              
    3697              
    3698              $C$DW$T$59      .dwtag  DW_TAG_union_type
    3699                      .dwattr $C$DW$T$59, DW_AT_name("PIEIFR3_REG")
    3700                      .dwattr $C$DW$T$59, DW_AT_byte_size(0x01)
    3701              $C$DW$389       .dwtag  DW_TAG_member
    3702                      .dwattr $C$DW$389, DW_AT_type(*$C$DW$T$19)
    3703                      .dwattr $C$DW$389, DW_AT_name("all")
    3704                      .dwattr $C$DW$389, DW_AT_TI_symbol_name("_all")
    3705                      .dwattr $C$DW$389, DW_AT_data_member_location[DW_OP_plus_uconst 0x0]
    3706                      .dwattr $C$DW$389, DW_AT_accessibility(DW_ACCESS_public)
    3707              $C$DW$390       .dwtag  DW_TAG_member
    3708                      .dwattr $C$DW$390, DW_AT_type(*$C$DW$T$58)
    3709                      .dwattr $C$DW$390, DW_AT_name("bit")
    3710                      .dwattr $C$DW$390, DW_AT_TI_symbol_name("_bit")
    3711                      .dwattr $C$DW$390, DW_AT_data_member_location[DW_OP_plus_uconst 0x0]
    3712                      .dwattr $C$DW$390, DW_AT_accessibility(DW_ACCESS_public)
    3713                      .dwendtag $C$DW$T$59
    3714              
    3715              
    3716              $C$DW$T$60      .dwtag  DW_TAG_structure_type
    3717                      .dwattr $C$DW$T$60, DW_AT_name("PIEIFR4_BITS")
    3718                      .dwattr $C$DW$T$60, DW_AT_byte_size(0x01)
    3719              $C$DW$391       .dwtag  DW_TAG_member
    3720                      .dwattr $C$DW$391, DW_AT_type(*$C$DW$T$19)
    3721                      .dwattr $C$DW$391, DW_AT_name("INTx1")
    3722                      .dwattr $C$DW$391, DW_AT_TI_symbol_name("_INTx1")
    3723                      .dwattr $C$DW$391, DW_AT_bit_offset(0x0f), DW_AT_bit_size(0x01)
    3724                      .dwattr $C$DW$391, DW_AT_data_member_location[DW_OP_plus_uconst 0x0]
    3725                      .dwattr $C$DW$391, DW_AT_accessibility(DW_ACCESS_public)
TMS320C2000 Assembler PC v6.4.2 Thu Dec 14 15:26:49 2017

Tools Copyright (c) 1996-2015 Texas Instruments Incorporated
interrupt.asm                                                        PAGE   70

    3726              $C$DW$392       .dwtag  DW_TAG_member
    3727                      .dwattr $C$DW$392, DW_AT_type(*$C$DW$T$19)
    3728                      .dwattr $C$DW$392, DW_AT_name("INTx2")
    3729                      .dwattr $C$DW$392, DW_AT_TI_symbol_name("_INTx2")
    3730                      .dwattr $C$DW$392, DW_AT_bit_offset(0x0e), DW_AT_bit_size(0x01)
    3731                      .dwattr $C$DW$392, DW_AT_data_member_location[DW_OP_plus_uconst 0x0]
    3732                      .dwattr $C$DW$392, DW_AT_accessibility(DW_ACCESS_public)
    3733              $C$DW$393       .dwtag  DW_TAG_member
    3734                      .dwattr $C$DW$393, DW_AT_type(*$C$DW$T$19)
    3735                      .dwattr $C$DW$393, DW_AT_name("INTx3")
    3736                      .dwattr $C$DW$393, DW_AT_TI_symbol_name("_INTx3")
    3737                      .dwattr $C$DW$393, DW_AT_bit_offset(0x0d), DW_AT_bit_size(0x01)
    3738                      .dwattr $C$DW$393, DW_AT_data_member_location[DW_OP_plus_uconst 0x0]
    3739                      .dwattr $C$DW$393, DW_AT_accessibility(DW_ACCESS_public)
    3740              $C$DW$394       .dwtag  DW_TAG_member
    3741                      .dwattr $C$DW$394, DW_AT_type(*$C$DW$T$19)
    3742                      .dwattr $C$DW$394, DW_AT_name("INTx4")
    3743                      .dwattr $C$DW$394, DW_AT_TI_symbol_name("_INTx4")
    3744                      .dwattr $C$DW$394, DW_AT_bit_offset(0x0c), DW_AT_bit_size(0x01)
    3745                      .dwattr $C$DW$394, DW_AT_data_member_location[DW_OP_plus_uconst 0x0]
    3746                      .dwattr $C$DW$394, DW_AT_accessibility(DW_ACCESS_public)
    3747              $C$DW$395       .dwtag  DW_TAG_member
    3748                      .dwattr $C$DW$395, DW_AT_type(*$C$DW$T$19)
    3749                      .dwattr $C$DW$395, DW_AT_name("INTx5")
    3750                      .dwattr $C$DW$395, DW_AT_TI_symbol_name("_INTx5")
    3751                      .dwattr $C$DW$395, DW_AT_bit_offset(0x0b), DW_AT_bit_size(0x01)
    3752                      .dwattr $C$DW$395, DW_AT_data_member_location[DW_OP_plus_uconst 0x0]
    3753                      .dwattr $C$DW$395, DW_AT_accessibility(DW_ACCESS_public)
    3754              $C$DW$396       .dwtag  DW_TAG_member
    3755                      .dwattr $C$DW$396, DW_AT_type(*$C$DW$T$19)
    3756                      .dwattr $C$DW$396, DW_AT_name("INTx6")
    3757                      .dwattr $C$DW$396, DW_AT_TI_symbol_name("_INTx6")
    3758                      .dwattr $C$DW$396, DW_AT_bit_offset(0x0a), DW_AT_bit_size(0x01)
    3759                      .dwattr $C$DW$396, DW_AT_data_member_location[DW_OP_plus_uconst 0x0]
    3760                      .dwattr $C$DW$396, DW_AT_accessibility(DW_ACCESS_public)
    3761              $C$DW$397       .dwtag  DW_TAG_member
    3762                      .dwattr $C$DW$397, DW_AT_type(*$C$DW$T$19)
    3763                      .dwattr $C$DW$397, DW_AT_name("INTx7")
    3764                      .dwattr $C$DW$397, DW_AT_TI_symbol_name("_INTx7")
    3765                      .dwattr $C$DW$397, DW_AT_bit_offset(0x09), DW_AT_bit_size(0x01)
    3766                      .dwattr $C$DW$397, DW_AT_data_member_location[DW_OP_plus_uconst 0x0]
    3767                      .dwattr $C$DW$397, DW_AT_accessibility(DW_ACCESS_public)
    3768              $C$DW$398       .dwtag  DW_TAG_member
    3769                      .dwattr $C$DW$398, DW_AT_type(*$C$DW$T$19)
    3770                      .dwattr $C$DW$398, DW_AT_name("INTx8")
    3771                      .dwattr $C$DW$398, DW_AT_TI_symbol_name("_INTx8")
    3772                      .dwattr $C$DW$398, DW_AT_bit_offset(0x08), DW_AT_bit_size(0x01)
    3773                      .dwattr $C$DW$398, DW_AT_data_member_location[DW_OP_plus_uconst 0x0]
    3774                      .dwattr $C$DW$398, DW_AT_accessibility(DW_ACCESS_public)
    3775              $C$DW$399       .dwtag  DW_TAG_member
    3776                      .dwattr $C$DW$399, DW_AT_type(*$C$DW$T$19)
    3777                      .dwattr $C$DW$399, DW_AT_name("INTx9")
    3778                      .dwattr $C$DW$399, DW_AT_TI_symbol_name("_INTx9")
    3779                      .dwattr $C$DW$399, DW_AT_bit_offset(0x07), DW_AT_bit_size(0x01)
    3780                      .dwattr $C$DW$399, DW_AT_data_member_location[DW_OP_plus_uconst 0x0]
TMS320C2000 Assembler PC v6.4.2 Thu Dec 14 15:26:49 2017

Tools Copyright (c) 1996-2015 Texas Instruments Incorporated
interrupt.asm                                                        PAGE   71

    3781                      .dwattr $C$DW$399, DW_AT_accessibility(DW_ACCESS_public)
    3782              $C$DW$400       .dwtag  DW_TAG_member
    3783                      .dwattr $C$DW$400, DW_AT_type(*$C$DW$T$19)
    3784                      .dwattr $C$DW$400, DW_AT_name("INTx10")
    3785                      .dwattr $C$DW$400, DW_AT_TI_symbol_name("_INTx10")
    3786                      .dwattr $C$DW$400, DW_AT_bit_offset(0x06), DW_AT_bit_size(0x01)
    3787                      .dwattr $C$DW$400, DW_AT_data_member_location[DW_OP_plus_uconst 0x0]
    3788                      .dwattr $C$DW$400, DW_AT_accessibility(DW_ACCESS_public)
    3789              $C$DW$401       .dwtag  DW_TAG_member
    3790                      .dwattr $C$DW$401, DW_AT_type(*$C$DW$T$19)
    3791                      .dwattr $C$DW$401, DW_AT_name("INTx11")
    3792                      .dwattr $C$DW$401, DW_AT_TI_symbol_name("_INTx11")
    3793                      .dwattr $C$DW$401, DW_AT_bit_offset(0x05), DW_AT_bit_size(0x01)
    3794                      .dwattr $C$DW$401, DW_AT_data_member_location[DW_OP_plus_uconst 0x0]
    3795                      .dwattr $C$DW$401, DW_AT_accessibility(DW_ACCESS_public)
    3796              $C$DW$402       .dwtag  DW_TAG_member
    3797                      .dwattr $C$DW$402, DW_AT_type(*$C$DW$T$19)
    3798                      .dwattr $C$DW$402, DW_AT_name("INTx12")
    3799                      .dwattr $C$DW$402, DW_AT_TI_symbol_name("_INTx12")
    3800                      .dwattr $C$DW$402, DW_AT_bit_offset(0x04), DW_AT_bit_size(0x01)
    3801                      .dwattr $C$DW$402, DW_AT_data_member_location[DW_OP_plus_uconst 0x0]
    3802                      .dwattr $C$DW$402, DW_AT_accessibility(DW_ACCESS_public)
    3803              $C$DW$403       .dwtag  DW_TAG_member
    3804                      .dwattr $C$DW$403, DW_AT_type(*$C$DW$T$19)
    3805                      .dwattr $C$DW$403, DW_AT_name("INTx13")
    3806                      .dwattr $C$DW$403, DW_AT_TI_symbol_name("_INTx13")
    3807                      .dwattr $C$DW$403, DW_AT_bit_offset(0x03), DW_AT_bit_size(0x01)
    3808                      .dwattr $C$DW$403, DW_AT_data_member_location[DW_OP_plus_uconst 0x0]
    3809                      .dwattr $C$DW$403, DW_AT_accessibility(DW_ACCESS_public)
    3810              $C$DW$404       .dwtag  DW_TAG_member
    3811                      .dwattr $C$DW$404, DW_AT_type(*$C$DW$T$19)
    3812                      .dwattr $C$DW$404, DW_AT_name("INTx14")
    3813                      .dwattr $C$DW$404, DW_AT_TI_symbol_name("_INTx14")
    3814                      .dwattr $C$DW$404, DW_AT_bit_offset(0x02), DW_AT_bit_size(0x01)
    3815                      .dwattr $C$DW$404, DW_AT_data_member_location[DW_OP_plus_uconst 0x0]
    3816                      .dwattr $C$DW$404, DW_AT_accessibility(DW_ACCESS_public)
    3817              $C$DW$405       .dwtag  DW_TAG_member
    3818                      .dwattr $C$DW$405, DW_AT_type(*$C$DW$T$19)
    3819                      .dwattr $C$DW$405, DW_AT_name("INTx15")
    3820                      .dwattr $C$DW$405, DW_AT_TI_symbol_name("_INTx15")
    3821                      .dwattr $C$DW$405, DW_AT_bit_offset(0x01), DW_AT_bit_size(0x01)
    3822                      .dwattr $C$DW$405, DW_AT_data_member_location[DW_OP_plus_uconst 0x0]
    3823                      .dwattr $C$DW$405, DW_AT_accessibility(DW_ACCESS_public)
    3824              $C$DW$406       .dwtag  DW_TAG_member
    3825                      .dwattr $C$DW$406, DW_AT_type(*$C$DW$T$19)
    3826                      .dwattr $C$DW$406, DW_AT_name("INTx16")
    3827                      .dwattr $C$DW$406, DW_AT_TI_symbol_name("_INTx16")
    3828                      .dwattr $C$DW$406, DW_AT_bit_offset(0x00), DW_AT_bit_size(0x01)
    3829                      .dwattr $C$DW$406, DW_AT_data_member_location[DW_OP_plus_uconst 0x0]
    3830                      .dwattr $C$DW$406, DW_AT_accessibility(DW_ACCESS_public)
    3831                      .dwendtag $C$DW$T$60
    3832              
    3833              
    3834              $C$DW$T$61      .dwtag  DW_TAG_union_type
    3835                      .dwattr $C$DW$T$61, DW_AT_name("PIEIFR4_REG")
TMS320C2000 Assembler PC v6.4.2 Thu Dec 14 15:26:49 2017

Tools Copyright (c) 1996-2015 Texas Instruments Incorporated
interrupt.asm                                                        PAGE   72

    3836                      .dwattr $C$DW$T$61, DW_AT_byte_size(0x01)
    3837              $C$DW$407       .dwtag  DW_TAG_member
    3838                      .dwattr $C$DW$407, DW_AT_type(*$C$DW$T$19)
    3839                      .dwattr $C$DW$407, DW_AT_name("all")
    3840                      .dwattr $C$DW$407, DW_AT_TI_symbol_name("_all")
    3841                      .dwattr $C$DW$407, DW_AT_data_member_location[DW_OP_plus_uconst 0x0]
    3842                      .dwattr $C$DW$407, DW_AT_accessibility(DW_ACCESS_public)
    3843              $C$DW$408       .dwtag  DW_TAG_member
    3844                      .dwattr $C$DW$408, DW_AT_type(*$C$DW$T$60)
    3845                      .dwattr $C$DW$408, DW_AT_name("bit")
    3846                      .dwattr $C$DW$408, DW_AT_TI_symbol_name("_bit")
    3847                      .dwattr $C$DW$408, DW_AT_data_member_location[DW_OP_plus_uconst 0x0]
    3848                      .dwattr $C$DW$408, DW_AT_accessibility(DW_ACCESS_public)
    3849                      .dwendtag $C$DW$T$61
    3850              
    3851              
    3852              $C$DW$T$62      .dwtag  DW_TAG_structure_type
    3853                      .dwattr $C$DW$T$62, DW_AT_name("PIEIFR5_BITS")
    3854                      .dwattr $C$DW$T$62, DW_AT_byte_size(0x01)
    3855              $C$DW$409       .dwtag  DW_TAG_member
    3856                      .dwattr $C$DW$409, DW_AT_type(*$C$DW$T$19)
    3857                      .dwattr $C$DW$409, DW_AT_name("INTx1")
    3858                      .dwattr $C$DW$409, DW_AT_TI_symbol_name("_INTx1")
    3859                      .dwattr $C$DW$409, DW_AT_bit_offset(0x0f), DW_AT_bit_size(0x01)
    3860                      .dwattr $C$DW$409, DW_AT_data_member_location[DW_OP_plus_uconst 0x0]
    3861                      .dwattr $C$DW$409, DW_AT_accessibility(DW_ACCESS_public)
    3862              $C$DW$410       .dwtag  DW_TAG_member
    3863                      .dwattr $C$DW$410, DW_AT_type(*$C$DW$T$19)
    3864                      .dwattr $C$DW$410, DW_AT_name("INTx2")
    3865                      .dwattr $C$DW$410, DW_AT_TI_symbol_name("_INTx2")
    3866                      .dwattr $C$DW$410, DW_AT_bit_offset(0x0e), DW_AT_bit_size(0x01)
    3867                      .dwattr $C$DW$410, DW_AT_data_member_location[DW_OP_plus_uconst 0x0]
    3868                      .dwattr $C$DW$410, DW_AT_accessibility(DW_ACCESS_public)
    3869              $C$DW$411       .dwtag  DW_TAG_member
    3870                      .dwattr $C$DW$411, DW_AT_type(*$C$DW$T$19)
    3871                      .dwattr $C$DW$411, DW_AT_name("INTx3")
    3872                      .dwattr $C$DW$411, DW_AT_TI_symbol_name("_INTx3")
    3873                      .dwattr $C$DW$411, DW_AT_bit_offset(0x0d), DW_AT_bit_size(0x01)
    3874                      .dwattr $C$DW$411, DW_AT_data_member_location[DW_OP_plus_uconst 0x0]
    3875                      .dwattr $C$DW$411, DW_AT_accessibility(DW_ACCESS_public)
    3876              $C$DW$412       .dwtag  DW_TAG_member
    3877                      .dwattr $C$DW$412, DW_AT_type(*$C$DW$T$19)
    3878                      .dwattr $C$DW$412, DW_AT_name("INTx4")
    3879                      .dwattr $C$DW$412, DW_AT_TI_symbol_name("_INTx4")
    3880                      .dwattr $C$DW$412, DW_AT_bit_offset(0x0c), DW_AT_bit_size(0x01)
    3881                      .dwattr $C$DW$412, DW_AT_data_member_location[DW_OP_plus_uconst 0x0]
    3882                      .dwattr $C$DW$412, DW_AT_accessibility(DW_ACCESS_public)
    3883              $C$DW$413       .dwtag  DW_TAG_member
    3884                      .dwattr $C$DW$413, DW_AT_type(*$C$DW$T$19)
    3885                      .dwattr $C$DW$413, DW_AT_name("INTx5")
    3886                      .dwattr $C$DW$413, DW_AT_TI_symbol_name("_INTx5")
    3887                      .dwattr $C$DW$413, DW_AT_bit_offset(0x0b), DW_AT_bit_size(0x01)
    3888                      .dwattr $C$DW$413, DW_AT_data_member_location[DW_OP_plus_uconst 0x0]
    3889                      .dwattr $C$DW$413, DW_AT_accessibility(DW_ACCESS_public)
    3890              $C$DW$414       .dwtag  DW_TAG_member
TMS320C2000 Assembler PC v6.4.2 Thu Dec 14 15:26:49 2017

Tools Copyright (c) 1996-2015 Texas Instruments Incorporated
interrupt.asm                                                        PAGE   73

    3891                      .dwattr $C$DW$414, DW_AT_type(*$C$DW$T$19)
    3892                      .dwattr $C$DW$414, DW_AT_name("INTx6")
    3893                      .dwattr $C$DW$414, DW_AT_TI_symbol_name("_INTx6")
    3894                      .dwattr $C$DW$414, DW_AT_bit_offset(0x0a), DW_AT_bit_size(0x01)
    3895                      .dwattr $C$DW$414, DW_AT_data_member_location[DW_OP_plus_uconst 0x0]
    3896                      .dwattr $C$DW$414, DW_AT_accessibility(DW_ACCESS_public)
    3897              $C$DW$415       .dwtag  DW_TAG_member
    3898                      .dwattr $C$DW$415, DW_AT_type(*$C$DW$T$19)
    3899                      .dwattr $C$DW$415, DW_AT_name("INTx7")
    3900                      .dwattr $C$DW$415, DW_AT_TI_symbol_name("_INTx7")
    3901                      .dwattr $C$DW$415, DW_AT_bit_offset(0x09), DW_AT_bit_size(0x01)
    3902                      .dwattr $C$DW$415, DW_AT_data_member_location[DW_OP_plus_uconst 0x0]
    3903                      .dwattr $C$DW$415, DW_AT_accessibility(DW_ACCESS_public)
    3904              $C$DW$416       .dwtag  DW_TAG_member
    3905                      .dwattr $C$DW$416, DW_AT_type(*$C$DW$T$19)
    3906                      .dwattr $C$DW$416, DW_AT_name("INTx8")
    3907                      .dwattr $C$DW$416, DW_AT_TI_symbol_name("_INTx8")
    3908                      .dwattr $C$DW$416, DW_AT_bit_offset(0x08), DW_AT_bit_size(0x01)
    3909                      .dwattr $C$DW$416, DW_AT_data_member_location[DW_OP_plus_uconst 0x0]
    3910                      .dwattr $C$DW$416, DW_AT_accessibility(DW_ACCESS_public)
    3911              $C$DW$417       .dwtag  DW_TAG_member
    3912                      .dwattr $C$DW$417, DW_AT_type(*$C$DW$T$19)
    3913                      .dwattr $C$DW$417, DW_AT_name("INTx9")
    3914                      .dwattr $C$DW$417, DW_AT_TI_symbol_name("_INTx9")
    3915                      .dwattr $C$DW$417, DW_AT_bit_offset(0x07), DW_AT_bit_size(0x01)
    3916                      .dwattr $C$DW$417, DW_AT_data_member_location[DW_OP_plus_uconst 0x0]
    3917                      .dwattr $C$DW$417, DW_AT_accessibility(DW_ACCESS_public)
    3918              $C$DW$418       .dwtag  DW_TAG_member
    3919                      .dwattr $C$DW$418, DW_AT_type(*$C$DW$T$19)
    3920                      .dwattr $C$DW$418, DW_AT_name("INTx10")
    3921                      .dwattr $C$DW$418, DW_AT_TI_symbol_name("_INTx10")
    3922                      .dwattr $C$DW$418, DW_AT_bit_offset(0x06), DW_AT_bit_size(0x01)
    3923                      .dwattr $C$DW$418, DW_AT_data_member_location[DW_OP_plus_uconst 0x0]
    3924                      .dwattr $C$DW$418, DW_AT_accessibility(DW_ACCESS_public)
    3925              $C$DW$419       .dwtag  DW_TAG_member
    3926                      .dwattr $C$DW$419, DW_AT_type(*$C$DW$T$19)
    3927                      .dwattr $C$DW$419, DW_AT_name("INTx11")
    3928                      .dwattr $C$DW$419, DW_AT_TI_symbol_name("_INTx11")
    3929                      .dwattr $C$DW$419, DW_AT_bit_offset(0x05), DW_AT_bit_size(0x01)
    3930                      .dwattr $C$DW$419, DW_AT_data_member_location[DW_OP_plus_uconst 0x0]
    3931                      .dwattr $C$DW$419, DW_AT_accessibility(DW_ACCESS_public)
    3932              $C$DW$420       .dwtag  DW_TAG_member
    3933                      .dwattr $C$DW$420, DW_AT_type(*$C$DW$T$19)
    3934                      .dwattr $C$DW$420, DW_AT_name("INTx12")
    3935                      .dwattr $C$DW$420, DW_AT_TI_symbol_name("_INTx12")
    3936                      .dwattr $C$DW$420, DW_AT_bit_offset(0x04), DW_AT_bit_size(0x01)
    3937                      .dwattr $C$DW$420, DW_AT_data_member_location[DW_OP_plus_uconst 0x0]
    3938                      .dwattr $C$DW$420, DW_AT_accessibility(DW_ACCESS_public)
    3939              $C$DW$421       .dwtag  DW_TAG_member
    3940                      .dwattr $C$DW$421, DW_AT_type(*$C$DW$T$19)
    3941                      .dwattr $C$DW$421, DW_AT_name("INTx13")
    3942                      .dwattr $C$DW$421, DW_AT_TI_symbol_name("_INTx13")
    3943                      .dwattr $C$DW$421, DW_AT_bit_offset(0x03), DW_AT_bit_size(0x01)
    3944                      .dwattr $C$DW$421, DW_AT_data_member_location[DW_OP_plus_uconst 0x0]
    3945                      .dwattr $C$DW$421, DW_AT_accessibility(DW_ACCESS_public)
TMS320C2000 Assembler PC v6.4.2 Thu Dec 14 15:26:49 2017

Tools Copyright (c) 1996-2015 Texas Instruments Incorporated
interrupt.asm                                                        PAGE   74

    3946              $C$DW$422       .dwtag  DW_TAG_member
    3947                      .dwattr $C$DW$422, DW_AT_type(*$C$DW$T$19)
    3948                      .dwattr $C$DW$422, DW_AT_name("INTx14")
    3949                      .dwattr $C$DW$422, DW_AT_TI_symbol_name("_INTx14")
    3950                      .dwattr $C$DW$422, DW_AT_bit_offset(0x02), DW_AT_bit_size(0x01)
    3951                      .dwattr $C$DW$422, DW_AT_data_member_location[DW_OP_plus_uconst 0x0]
    3952                      .dwattr $C$DW$422, DW_AT_accessibility(DW_ACCESS_public)
    3953              $C$DW$423       .dwtag  DW_TAG_member
    3954                      .dwattr $C$DW$423, DW_AT_type(*$C$DW$T$19)
    3955                      .dwattr $C$DW$423, DW_AT_name("INTx15")
    3956                      .dwattr $C$DW$423, DW_AT_TI_symbol_name("_INTx15")
    3957                      .dwattr $C$DW$423, DW_AT_bit_offset(0x01), DW_AT_bit_size(0x01)
    3958                      .dwattr $C$DW$423, DW_AT_data_member_location[DW_OP_plus_uconst 0x0]
    3959                      .dwattr $C$DW$423, DW_AT_accessibility(DW_ACCESS_public)
    3960              $C$DW$424       .dwtag  DW_TAG_member
    3961                      .dwattr $C$DW$424, DW_AT_type(*$C$DW$T$19)
    3962                      .dwattr $C$DW$424, DW_AT_name("INTx16")
    3963                      .dwattr $C$DW$424, DW_AT_TI_symbol_name("_INTx16")
    3964                      .dwattr $C$DW$424, DW_AT_bit_offset(0x00), DW_AT_bit_size(0x01)
    3965                      .dwattr $C$DW$424, DW_AT_data_member_location[DW_OP_plus_uconst 0x0]
    3966                      .dwattr $C$DW$424, DW_AT_accessibility(DW_ACCESS_public)
    3967                      .dwendtag $C$DW$T$62
    3968              
    3969              
    3970              $C$DW$T$63      .dwtag  DW_TAG_union_type
    3971                      .dwattr $C$DW$T$63, DW_AT_name("PIEIFR5_REG")
    3972                      .dwattr $C$DW$T$63, DW_AT_byte_size(0x01)
    3973              $C$DW$425       .dwtag  DW_TAG_member
    3974                      .dwattr $C$DW$425, DW_AT_type(*$C$DW$T$19)
    3975                      .dwattr $C$DW$425, DW_AT_name("all")
    3976                      .dwattr $C$DW$425, DW_AT_TI_symbol_name("_all")
    3977                      .dwattr $C$DW$425, DW_AT_data_member_location[DW_OP_plus_uconst 0x0]
    3978                      .dwattr $C$DW$425, DW_AT_accessibility(DW_ACCESS_public)
    3979              $C$DW$426       .dwtag  DW_TAG_member
    3980                      .dwattr $C$DW$426, DW_AT_type(*$C$DW$T$62)
    3981                      .dwattr $C$DW$426, DW_AT_name("bit")
    3982                      .dwattr $C$DW$426, DW_AT_TI_symbol_name("_bit")
    3983                      .dwattr $C$DW$426, DW_AT_data_member_location[DW_OP_plus_uconst 0x0]
    3984                      .dwattr $C$DW$426, DW_AT_accessibility(DW_ACCESS_public)
    3985                      .dwendtag $C$DW$T$63
    3986              
    3987              
    3988              $C$DW$T$64      .dwtag  DW_TAG_structure_type
    3989                      .dwattr $C$DW$T$64, DW_AT_name("PIEIFR6_BITS")
    3990                      .dwattr $C$DW$T$64, DW_AT_byte_size(0x01)
    3991              $C$DW$427       .dwtag  DW_TAG_member
    3992                      .dwattr $C$DW$427, DW_AT_type(*$C$DW$T$19)
    3993                      .dwattr $C$DW$427, DW_AT_name("INTx1")
    3994                      .dwattr $C$DW$427, DW_AT_TI_symbol_name("_INTx1")
    3995                      .dwattr $C$DW$427, DW_AT_bit_offset(0x0f), DW_AT_bit_size(0x01)
    3996                      .dwattr $C$DW$427, DW_AT_data_member_location[DW_OP_plus_uconst 0x0]
    3997                      .dwattr $C$DW$427, DW_AT_accessibility(DW_ACCESS_public)
    3998              $C$DW$428       .dwtag  DW_TAG_member
    3999                      .dwattr $C$DW$428, DW_AT_type(*$C$DW$T$19)
    4000                      .dwattr $C$DW$428, DW_AT_name("INTx2")
TMS320C2000 Assembler PC v6.4.2 Thu Dec 14 15:26:49 2017

Tools Copyright (c) 1996-2015 Texas Instruments Incorporated
interrupt.asm                                                        PAGE   75

    4001                      .dwattr $C$DW$428, DW_AT_TI_symbol_name("_INTx2")
    4002                      .dwattr $C$DW$428, DW_AT_bit_offset(0x0e), DW_AT_bit_size(0x01)
    4003                      .dwattr $C$DW$428, DW_AT_data_member_location[DW_OP_plus_uconst 0x0]
    4004                      .dwattr $C$DW$428, DW_AT_accessibility(DW_ACCESS_public)
    4005              $C$DW$429       .dwtag  DW_TAG_member
    4006                      .dwattr $C$DW$429, DW_AT_type(*$C$DW$T$19)
    4007                      .dwattr $C$DW$429, DW_AT_name("INTx3")
    4008                      .dwattr $C$DW$429, DW_AT_TI_symbol_name("_INTx3")
    4009                      .dwattr $C$DW$429, DW_AT_bit_offset(0x0d), DW_AT_bit_size(0x01)
    4010                      .dwattr $C$DW$429, DW_AT_data_member_location[DW_OP_plus_uconst 0x0]
    4011                      .dwattr $C$DW$429, DW_AT_accessibility(DW_ACCESS_public)
    4012              $C$DW$430       .dwtag  DW_TAG_member
    4013                      .dwattr $C$DW$430, DW_AT_type(*$C$DW$T$19)
    4014                      .dwattr $C$DW$430, DW_AT_name("INTx4")
    4015                      .dwattr $C$DW$430, DW_AT_TI_symbol_name("_INTx4")
    4016                      .dwattr $C$DW$430, DW_AT_bit_offset(0x0c), DW_AT_bit_size(0x01)
    4017                      .dwattr $C$DW$430, DW_AT_data_member_location[DW_OP_plus_uconst 0x0]
    4018                      .dwattr $C$DW$430, DW_AT_accessibility(DW_ACCESS_public)
    4019              $C$DW$431       .dwtag  DW_TAG_member
    4020                      .dwattr $C$DW$431, DW_AT_type(*$C$DW$T$19)
    4021                      .dwattr $C$DW$431, DW_AT_name("INTx5")
    4022                      .dwattr $C$DW$431, DW_AT_TI_symbol_name("_INTx5")
    4023                      .dwattr $C$DW$431, DW_AT_bit_offset(0x0b), DW_AT_bit_size(0x01)
    4024                      .dwattr $C$DW$431, DW_AT_data_member_location[DW_OP_plus_uconst 0x0]
    4025                      .dwattr $C$DW$431, DW_AT_accessibility(DW_ACCESS_public)
    4026              $C$DW$432       .dwtag  DW_TAG_member
    4027                      .dwattr $C$DW$432, DW_AT_type(*$C$DW$T$19)
    4028                      .dwattr $C$DW$432, DW_AT_name("INTx6")
    4029                      .dwattr $C$DW$432, DW_AT_TI_symbol_name("_INTx6")
    4030                      .dwattr $C$DW$432, DW_AT_bit_offset(0x0a), DW_AT_bit_size(0x01)
    4031                      .dwattr $C$DW$432, DW_AT_data_member_location[DW_OP_plus_uconst 0x0]
    4032                      .dwattr $C$DW$432, DW_AT_accessibility(DW_ACCESS_public)
    4033              $C$DW$433       .dwtag  DW_TAG_member
    4034                      .dwattr $C$DW$433, DW_AT_type(*$C$DW$T$19)
    4035                      .dwattr $C$DW$433, DW_AT_name("INTx7")
    4036                      .dwattr $C$DW$433, DW_AT_TI_symbol_name("_INTx7")
    4037                      .dwattr $C$DW$433, DW_AT_bit_offset(0x09), DW_AT_bit_size(0x01)
    4038                      .dwattr $C$DW$433, DW_AT_data_member_location[DW_OP_plus_uconst 0x0]
    4039                      .dwattr $C$DW$433, DW_AT_accessibility(DW_ACCESS_public)
    4040              $C$DW$434       .dwtag  DW_TAG_member
    4041                      .dwattr $C$DW$434, DW_AT_type(*$C$DW$T$19)
    4042                      .dwattr $C$DW$434, DW_AT_name("INTx8")
    4043                      .dwattr $C$DW$434, DW_AT_TI_symbol_name("_INTx8")
    4044                      .dwattr $C$DW$434, DW_AT_bit_offset(0x08), DW_AT_bit_size(0x01)
    4045                      .dwattr $C$DW$434, DW_AT_data_member_location[DW_OP_plus_uconst 0x0]
    4046                      .dwattr $C$DW$434, DW_AT_accessibility(DW_ACCESS_public)
    4047              $C$DW$435       .dwtag  DW_TAG_member
    4048                      .dwattr $C$DW$435, DW_AT_type(*$C$DW$T$19)
    4049                      .dwattr $C$DW$435, DW_AT_name("INTx9")
    4050                      .dwattr $C$DW$435, DW_AT_TI_symbol_name("_INTx9")
    4051                      .dwattr $C$DW$435, DW_AT_bit_offset(0x07), DW_AT_bit_size(0x01)
    4052                      .dwattr $C$DW$435, DW_AT_data_member_location[DW_OP_plus_uconst 0x0]
    4053                      .dwattr $C$DW$435, DW_AT_accessibility(DW_ACCESS_public)
    4054              $C$DW$436       .dwtag  DW_TAG_member
    4055                      .dwattr $C$DW$436, DW_AT_type(*$C$DW$T$19)
TMS320C2000 Assembler PC v6.4.2 Thu Dec 14 15:26:49 2017

Tools Copyright (c) 1996-2015 Texas Instruments Incorporated
interrupt.asm                                                        PAGE   76

    4056                      .dwattr $C$DW$436, DW_AT_name("INTx10")
    4057                      .dwattr $C$DW$436, DW_AT_TI_symbol_name("_INTx10")
    4058                      .dwattr $C$DW$436, DW_AT_bit_offset(0x06), DW_AT_bit_size(0x01)
    4059                      .dwattr $C$DW$436, DW_AT_data_member_location[DW_OP_plus_uconst 0x0]
    4060                      .dwattr $C$DW$436, DW_AT_accessibility(DW_ACCESS_public)
    4061              $C$DW$437       .dwtag  DW_TAG_member
    4062                      .dwattr $C$DW$437, DW_AT_type(*$C$DW$T$19)
    4063                      .dwattr $C$DW$437, DW_AT_name("INTx11")
    4064                      .dwattr $C$DW$437, DW_AT_TI_symbol_name("_INTx11")
    4065                      .dwattr $C$DW$437, DW_AT_bit_offset(0x05), DW_AT_bit_size(0x01)
    4066                      .dwattr $C$DW$437, DW_AT_data_member_location[DW_OP_plus_uconst 0x0]
    4067                      .dwattr $C$DW$437, DW_AT_accessibility(DW_ACCESS_public)
    4068              $C$DW$438       .dwtag  DW_TAG_member
    4069                      .dwattr $C$DW$438, DW_AT_type(*$C$DW$T$19)
    4070                      .dwattr $C$DW$438, DW_AT_name("INTx12")
    4071                      .dwattr $C$DW$438, DW_AT_TI_symbol_name("_INTx12")
    4072                      .dwattr $C$DW$438, DW_AT_bit_offset(0x04), DW_AT_bit_size(0x01)
    4073                      .dwattr $C$DW$438, DW_AT_data_member_location[DW_OP_plus_uconst 0x0]
    4074                      .dwattr $C$DW$438, DW_AT_accessibility(DW_ACCESS_public)
    4075              $C$DW$439       .dwtag  DW_TAG_member
    4076                      .dwattr $C$DW$439, DW_AT_type(*$C$DW$T$19)
    4077                      .dwattr $C$DW$439, DW_AT_name("INTx13")
    4078                      .dwattr $C$DW$439, DW_AT_TI_symbol_name("_INTx13")
    4079                      .dwattr $C$DW$439, DW_AT_bit_offset(0x03), DW_AT_bit_size(0x01)
    4080                      .dwattr $C$DW$439, DW_AT_data_member_location[DW_OP_plus_uconst 0x0]
    4081                      .dwattr $C$DW$439, DW_AT_accessibility(DW_ACCESS_public)
    4082              $C$DW$440       .dwtag  DW_TAG_member
    4083                      .dwattr $C$DW$440, DW_AT_type(*$C$DW$T$19)
    4084                      .dwattr $C$DW$440, DW_AT_name("INTx14")
    4085                      .dwattr $C$DW$440, DW_AT_TI_symbol_name("_INTx14")
    4086                      .dwattr $C$DW$440, DW_AT_bit_offset(0x02), DW_AT_bit_size(0x01)
    4087                      .dwattr $C$DW$440, DW_AT_data_member_location[DW_OP_plus_uconst 0x0]
    4088                      .dwattr $C$DW$440, DW_AT_accessibility(DW_ACCESS_public)
    4089              $C$DW$441       .dwtag  DW_TAG_member
    4090                      .dwattr $C$DW$441, DW_AT_type(*$C$DW$T$19)
    4091                      .dwattr $C$DW$441, DW_AT_name("INTx15")
    4092                      .dwattr $C$DW$441, DW_AT_TI_symbol_name("_INTx15")
    4093                      .dwattr $C$DW$441, DW_AT_bit_offset(0x01), DW_AT_bit_size(0x01)
    4094                      .dwattr $C$DW$441, DW_AT_data_member_location[DW_OP_plus_uconst 0x0]
    4095                      .dwattr $C$DW$441, DW_AT_accessibility(DW_ACCESS_public)
    4096              $C$DW$442       .dwtag  DW_TAG_member
    4097                      .dwattr $C$DW$442, DW_AT_type(*$C$DW$T$19)
    4098                      .dwattr $C$DW$442, DW_AT_name("INTx16")
    4099                      .dwattr $C$DW$442, DW_AT_TI_symbol_name("_INTx16")
    4100                      .dwattr $C$DW$442, DW_AT_bit_offset(0x00), DW_AT_bit_size(0x01)
    4101                      .dwattr $C$DW$442, DW_AT_data_member_location[DW_OP_plus_uconst 0x0]
    4102                      .dwattr $C$DW$442, DW_AT_accessibility(DW_ACCESS_public)
    4103                      .dwendtag $C$DW$T$64
    4104              
    4105              
    4106              $C$DW$T$65      .dwtag  DW_TAG_union_type
    4107                      .dwattr $C$DW$T$65, DW_AT_name("PIEIFR6_REG")
    4108                      .dwattr $C$DW$T$65, DW_AT_byte_size(0x01)
    4109              $C$DW$443       .dwtag  DW_TAG_member
    4110                      .dwattr $C$DW$443, DW_AT_type(*$C$DW$T$19)
TMS320C2000 Assembler PC v6.4.2 Thu Dec 14 15:26:49 2017

Tools Copyright (c) 1996-2015 Texas Instruments Incorporated
interrupt.asm                                                        PAGE   77

    4111                      .dwattr $C$DW$443, DW_AT_name("all")
    4112                      .dwattr $C$DW$443, DW_AT_TI_symbol_name("_all")
    4113                      .dwattr $C$DW$443, DW_AT_data_member_location[DW_OP_plus_uconst 0x0]
    4114                      .dwattr $C$DW$443, DW_AT_accessibility(DW_ACCESS_public)
    4115              $C$DW$444       .dwtag  DW_TAG_member
    4116                      .dwattr $C$DW$444, DW_AT_type(*$C$DW$T$64)
    4117                      .dwattr $C$DW$444, DW_AT_name("bit")
    4118                      .dwattr $C$DW$444, DW_AT_TI_symbol_name("_bit")
    4119                      .dwattr $C$DW$444, DW_AT_data_member_location[DW_OP_plus_uconst 0x0]
    4120                      .dwattr $C$DW$444, DW_AT_accessibility(DW_ACCESS_public)
    4121                      .dwendtag $C$DW$T$65
    4122              
    4123              
    4124              $C$DW$T$66      .dwtag  DW_TAG_structure_type
    4125                      .dwattr $C$DW$T$66, DW_AT_name("PIEIFR7_BITS")
    4126                      .dwattr $C$DW$T$66, DW_AT_byte_size(0x01)
    4127              $C$DW$445       .dwtag  DW_TAG_member
    4128                      .dwattr $C$DW$445, DW_AT_type(*$C$DW$T$19)
    4129                      .dwattr $C$DW$445, DW_AT_name("INTx1")
    4130                      .dwattr $C$DW$445, DW_AT_TI_symbol_name("_INTx1")
    4131                      .dwattr $C$DW$445, DW_AT_bit_offset(0x0f), DW_AT_bit_size(0x01)
    4132                      .dwattr $C$DW$445, DW_AT_data_member_location[DW_OP_plus_uconst 0x0]
    4133                      .dwattr $C$DW$445, DW_AT_accessibility(DW_ACCESS_public)
    4134              $C$DW$446       .dwtag  DW_TAG_member
    4135                      .dwattr $C$DW$446, DW_AT_type(*$C$DW$T$19)
    4136                      .dwattr $C$DW$446, DW_AT_name("INTx2")
    4137                      .dwattr $C$DW$446, DW_AT_TI_symbol_name("_INTx2")
    4138                      .dwattr $C$DW$446, DW_AT_bit_offset(0x0e), DW_AT_bit_size(0x01)
    4139                      .dwattr $C$DW$446, DW_AT_data_member_location[DW_OP_plus_uconst 0x0]
    4140                      .dwattr $C$DW$446, DW_AT_accessibility(DW_ACCESS_public)
    4141              $C$DW$447       .dwtag  DW_TAG_member
    4142                      .dwattr $C$DW$447, DW_AT_type(*$C$DW$T$19)
    4143                      .dwattr $C$DW$447, DW_AT_name("INTx3")
    4144                      .dwattr $C$DW$447, DW_AT_TI_symbol_name("_INTx3")
    4145                      .dwattr $C$DW$447, DW_AT_bit_offset(0x0d), DW_AT_bit_size(0x01)
    4146                      .dwattr $C$DW$447, DW_AT_data_member_location[DW_OP_plus_uconst 0x0]
    4147                      .dwattr $C$DW$447, DW_AT_accessibility(DW_ACCESS_public)
    4148              $C$DW$448       .dwtag  DW_TAG_member
    4149                      .dwattr $C$DW$448, DW_AT_type(*$C$DW$T$19)
    4150                      .dwattr $C$DW$448, DW_AT_name("INTx4")
    4151                      .dwattr $C$DW$448, DW_AT_TI_symbol_name("_INTx4")
    4152                      .dwattr $C$DW$448, DW_AT_bit_offset(0x0c), DW_AT_bit_size(0x01)
    4153                      .dwattr $C$DW$448, DW_AT_data_member_location[DW_OP_plus_uconst 0x0]
    4154                      .dwattr $C$DW$448, DW_AT_accessibility(DW_ACCESS_public)
    4155              $C$DW$449       .dwtag  DW_TAG_member
    4156                      .dwattr $C$DW$449, DW_AT_type(*$C$DW$T$19)
    4157                      .dwattr $C$DW$449, DW_AT_name("INTx5")
    4158                      .dwattr $C$DW$449, DW_AT_TI_symbol_name("_INTx5")
    4159                      .dwattr $C$DW$449, DW_AT_bit_offset(0x0b), DW_AT_bit_size(0x01)
    4160                      .dwattr $C$DW$449, DW_AT_data_member_location[DW_OP_plus_uconst 0x0]
    4161                      .dwattr $C$DW$449, DW_AT_accessibility(DW_ACCESS_public)
    4162              $C$DW$450       .dwtag  DW_TAG_member
    4163                      .dwattr $C$DW$450, DW_AT_type(*$C$DW$T$19)
    4164                      .dwattr $C$DW$450, DW_AT_name("INTx6")
    4165                      .dwattr $C$DW$450, DW_AT_TI_symbol_name("_INTx6")
TMS320C2000 Assembler PC v6.4.2 Thu Dec 14 15:26:49 2017

Tools Copyright (c) 1996-2015 Texas Instruments Incorporated
interrupt.asm                                                        PAGE   78

    4166                      .dwattr $C$DW$450, DW_AT_bit_offset(0x0a), DW_AT_bit_size(0x01)
    4167                      .dwattr $C$DW$450, DW_AT_data_member_location[DW_OP_plus_uconst 0x0]
    4168                      .dwattr $C$DW$450, DW_AT_accessibility(DW_ACCESS_public)
    4169              $C$DW$451       .dwtag  DW_TAG_member
    4170                      .dwattr $C$DW$451, DW_AT_type(*$C$DW$T$19)
    4171                      .dwattr $C$DW$451, DW_AT_name("INTx7")
    4172                      .dwattr $C$DW$451, DW_AT_TI_symbol_name("_INTx7")
    4173                      .dwattr $C$DW$451, DW_AT_bit_offset(0x09), DW_AT_bit_size(0x01)
    4174                      .dwattr $C$DW$451, DW_AT_data_member_location[DW_OP_plus_uconst 0x0]
    4175                      .dwattr $C$DW$451, DW_AT_accessibility(DW_ACCESS_public)
    4176              $C$DW$452       .dwtag  DW_TAG_member
    4177                      .dwattr $C$DW$452, DW_AT_type(*$C$DW$T$19)
    4178                      .dwattr $C$DW$452, DW_AT_name("INTx8")
    4179                      .dwattr $C$DW$452, DW_AT_TI_symbol_name("_INTx8")
    4180                      .dwattr $C$DW$452, DW_AT_bit_offset(0x08), DW_AT_bit_size(0x01)
    4181                      .dwattr $C$DW$452, DW_AT_data_member_location[DW_OP_plus_uconst 0x0]
    4182                      .dwattr $C$DW$452, DW_AT_accessibility(DW_ACCESS_public)
    4183              $C$DW$453       .dwtag  DW_TAG_member
    4184                      .dwattr $C$DW$453, DW_AT_type(*$C$DW$T$19)
    4185                      .dwattr $C$DW$453, DW_AT_name("INTx9")
    4186                      .dwattr $C$DW$453, DW_AT_TI_symbol_name("_INTx9")
    4187                      .dwattr $C$DW$453, DW_AT_bit_offset(0x07), DW_AT_bit_size(0x01)
    4188                      .dwattr $C$DW$453, DW_AT_data_member_location[DW_OP_plus_uconst 0x0]
    4189                      .dwattr $C$DW$453, DW_AT_accessibility(DW_ACCESS_public)
    4190              $C$DW$454       .dwtag  DW_TAG_member
    4191                      .dwattr $C$DW$454, DW_AT_type(*$C$DW$T$19)
    4192                      .dwattr $C$DW$454, DW_AT_name("INTx10")
    4193                      .dwattr $C$DW$454, DW_AT_TI_symbol_name("_INTx10")
    4194                      .dwattr $C$DW$454, DW_AT_bit_offset(0x06), DW_AT_bit_size(0x01)
    4195                      .dwattr $C$DW$454, DW_AT_data_member_location[DW_OP_plus_uconst 0x0]
    4196                      .dwattr $C$DW$454, DW_AT_accessibility(DW_ACCESS_public)
    4197              $C$DW$455       .dwtag  DW_TAG_member
    4198                      .dwattr $C$DW$455, DW_AT_type(*$C$DW$T$19)
    4199                      .dwattr $C$DW$455, DW_AT_name("INTx11")
    4200                      .dwattr $C$DW$455, DW_AT_TI_symbol_name("_INTx11")
    4201                      .dwattr $C$DW$455, DW_AT_bit_offset(0x05), DW_AT_bit_size(0x01)
    4202                      .dwattr $C$DW$455, DW_AT_data_member_location[DW_OP_plus_uconst 0x0]
    4203                      .dwattr $C$DW$455, DW_AT_accessibility(DW_ACCESS_public)
    4204              $C$DW$456       .dwtag  DW_TAG_member
    4205                      .dwattr $C$DW$456, DW_AT_type(*$C$DW$T$19)
    4206                      .dwattr $C$DW$456, DW_AT_name("INTx12")
    4207                      .dwattr $C$DW$456, DW_AT_TI_symbol_name("_INTx12")
    4208                      .dwattr $C$DW$456, DW_AT_bit_offset(0x04), DW_AT_bit_size(0x01)
    4209                      .dwattr $C$DW$456, DW_AT_data_member_location[DW_OP_plus_uconst 0x0]
    4210                      .dwattr $C$DW$456, DW_AT_accessibility(DW_ACCESS_public)
    4211              $C$DW$457       .dwtag  DW_TAG_member
    4212                      .dwattr $C$DW$457, DW_AT_type(*$C$DW$T$19)
    4213                      .dwattr $C$DW$457, DW_AT_name("INTx13")
    4214                      .dwattr $C$DW$457, DW_AT_TI_symbol_name("_INTx13")
    4215                      .dwattr $C$DW$457, DW_AT_bit_offset(0x03), DW_AT_bit_size(0x01)
    4216                      .dwattr $C$DW$457, DW_AT_data_member_location[DW_OP_plus_uconst 0x0]
    4217                      .dwattr $C$DW$457, DW_AT_accessibility(DW_ACCESS_public)
    4218              $C$DW$458       .dwtag  DW_TAG_member
    4219                      .dwattr $C$DW$458, DW_AT_type(*$C$DW$T$19)
    4220                      .dwattr $C$DW$458, DW_AT_name("INTx14")
TMS320C2000 Assembler PC v6.4.2 Thu Dec 14 15:26:49 2017

Tools Copyright (c) 1996-2015 Texas Instruments Incorporated
interrupt.asm                                                        PAGE   79

    4221                      .dwattr $C$DW$458, DW_AT_TI_symbol_name("_INTx14")
    4222                      .dwattr $C$DW$458, DW_AT_bit_offset(0x02), DW_AT_bit_size(0x01)
    4223                      .dwattr $C$DW$458, DW_AT_data_member_location[DW_OP_plus_uconst 0x0]
    4224                      .dwattr $C$DW$458, DW_AT_accessibility(DW_ACCESS_public)
    4225              $C$DW$459       .dwtag  DW_TAG_member
    4226                      .dwattr $C$DW$459, DW_AT_type(*$C$DW$T$19)
    4227                      .dwattr $C$DW$459, DW_AT_name("INTx15")
    4228                      .dwattr $C$DW$459, DW_AT_TI_symbol_name("_INTx15")
    4229                      .dwattr $C$DW$459, DW_AT_bit_offset(0x01), DW_AT_bit_size(0x01)
    4230                      .dwattr $C$DW$459, DW_AT_data_member_location[DW_OP_plus_uconst 0x0]
    4231                      .dwattr $C$DW$459, DW_AT_accessibility(DW_ACCESS_public)
    4232              $C$DW$460       .dwtag  DW_TAG_member
    4233                      .dwattr $C$DW$460, DW_AT_type(*$C$DW$T$19)
    4234                      .dwattr $C$DW$460, DW_AT_name("INTx16")
    4235                      .dwattr $C$DW$460, DW_AT_TI_symbol_name("_INTx16")
    4236                      .dwattr $C$DW$460, DW_AT_bit_offset(0x00), DW_AT_bit_size(0x01)
    4237                      .dwattr $C$DW$460, DW_AT_data_member_location[DW_OP_plus_uconst 0x0]
    4238                      .dwattr $C$DW$460, DW_AT_accessibility(DW_ACCESS_public)
    4239                      .dwendtag $C$DW$T$66
    4240              
    4241              
    4242              $C$DW$T$67      .dwtag  DW_TAG_union_type
    4243                      .dwattr $C$DW$T$67, DW_AT_name("PIEIFR7_REG")
    4244                      .dwattr $C$DW$T$67, DW_AT_byte_size(0x01)
    4245              $C$DW$461       .dwtag  DW_TAG_member
    4246                      .dwattr $C$DW$461, DW_AT_type(*$C$DW$T$19)
    4247                      .dwattr $C$DW$461, DW_AT_name("all")
    4248                      .dwattr $C$DW$461, DW_AT_TI_symbol_name("_all")
    4249                      .dwattr $C$DW$461, DW_AT_data_member_location[DW_OP_plus_uconst 0x0]
    4250                      .dwattr $C$DW$461, DW_AT_accessibility(DW_ACCESS_public)
    4251              $C$DW$462       .dwtag  DW_TAG_member
    4252                      .dwattr $C$DW$462, DW_AT_type(*$C$DW$T$66)
    4253                      .dwattr $C$DW$462, DW_AT_name("bit")
    4254                      .dwattr $C$DW$462, DW_AT_TI_symbol_name("_bit")
    4255                      .dwattr $C$DW$462, DW_AT_data_member_location[DW_OP_plus_uconst 0x0]
    4256                      .dwattr $C$DW$462, DW_AT_accessibility(DW_ACCESS_public)
    4257                      .dwendtag $C$DW$T$67
    4258              
    4259              
    4260              $C$DW$T$68      .dwtag  DW_TAG_structure_type
    4261                      .dwattr $C$DW$T$68, DW_AT_name("PIEIFR8_BITS")
    4262                      .dwattr $C$DW$T$68, DW_AT_byte_size(0x01)
    4263              $C$DW$463       .dwtag  DW_TAG_member
    4264                      .dwattr $C$DW$463, DW_AT_type(*$C$DW$T$19)
    4265                      .dwattr $C$DW$463, DW_AT_name("INTx1")
    4266                      .dwattr $C$DW$463, DW_AT_TI_symbol_name("_INTx1")
    4267                      .dwattr $C$DW$463, DW_AT_bit_offset(0x0f), DW_AT_bit_size(0x01)
    4268                      .dwattr $C$DW$463, DW_AT_data_member_location[DW_OP_plus_uconst 0x0]
    4269                      .dwattr $C$DW$463, DW_AT_accessibility(DW_ACCESS_public)
    4270              $C$DW$464       .dwtag  DW_TAG_member
    4271                      .dwattr $C$DW$464, DW_AT_type(*$C$DW$T$19)
    4272                      .dwattr $C$DW$464, DW_AT_name("INTx2")
    4273                      .dwattr $C$DW$464, DW_AT_TI_symbol_name("_INTx2")
    4274                      .dwattr $C$DW$464, DW_AT_bit_offset(0x0e), DW_AT_bit_size(0x01)
    4275                      .dwattr $C$DW$464, DW_AT_data_member_location[DW_OP_plus_uconst 0x0]
TMS320C2000 Assembler PC v6.4.2 Thu Dec 14 15:26:49 2017

Tools Copyright (c) 1996-2015 Texas Instruments Incorporated
interrupt.asm                                                        PAGE   80

    4276                      .dwattr $C$DW$464, DW_AT_accessibility(DW_ACCESS_public)
    4277              $C$DW$465       .dwtag  DW_TAG_member
    4278                      .dwattr $C$DW$465, DW_AT_type(*$C$DW$T$19)
    4279                      .dwattr $C$DW$465, DW_AT_name("INTx3")
    4280                      .dwattr $C$DW$465, DW_AT_TI_symbol_name("_INTx3")
    4281                      .dwattr $C$DW$465, DW_AT_bit_offset(0x0d), DW_AT_bit_size(0x01)
    4282                      .dwattr $C$DW$465, DW_AT_data_member_location[DW_OP_plus_uconst 0x0]
    4283                      .dwattr $C$DW$465, DW_AT_accessibility(DW_ACCESS_public)
    4284              $C$DW$466       .dwtag  DW_TAG_member
    4285                      .dwattr $C$DW$466, DW_AT_type(*$C$DW$T$19)
    4286                      .dwattr $C$DW$466, DW_AT_name("INTx4")
    4287                      .dwattr $C$DW$466, DW_AT_TI_symbol_name("_INTx4")
    4288                      .dwattr $C$DW$466, DW_AT_bit_offset(0x0c), DW_AT_bit_size(0x01)
    4289                      .dwattr $C$DW$466, DW_AT_data_member_location[DW_OP_plus_uconst 0x0]
    4290                      .dwattr $C$DW$466, DW_AT_accessibility(DW_ACCESS_public)
    4291              $C$DW$467       .dwtag  DW_TAG_member
    4292                      .dwattr $C$DW$467, DW_AT_type(*$C$DW$T$19)
    4293                      .dwattr $C$DW$467, DW_AT_name("INTx5")
    4294                      .dwattr $C$DW$467, DW_AT_TI_symbol_name("_INTx5")
    4295                      .dwattr $C$DW$467, DW_AT_bit_offset(0x0b), DW_AT_bit_size(0x01)
    4296                      .dwattr $C$DW$467, DW_AT_data_member_location[DW_OP_plus_uconst 0x0]
    4297                      .dwattr $C$DW$467, DW_AT_accessibility(DW_ACCESS_public)
    4298              $C$DW$468       .dwtag  DW_TAG_member
    4299                      .dwattr $C$DW$468, DW_AT_type(*$C$DW$T$19)
    4300                      .dwattr $C$DW$468, DW_AT_name("INTx6")
    4301                      .dwattr $C$DW$468, DW_AT_TI_symbol_name("_INTx6")
    4302                      .dwattr $C$DW$468, DW_AT_bit_offset(0x0a), DW_AT_bit_size(0x01)
    4303                      .dwattr $C$DW$468, DW_AT_data_member_location[DW_OP_plus_uconst 0x0]
    4304                      .dwattr $C$DW$468, DW_AT_accessibility(DW_ACCESS_public)
    4305              $C$DW$469       .dwtag  DW_TAG_member
    4306                      .dwattr $C$DW$469, DW_AT_type(*$C$DW$T$19)
    4307                      .dwattr $C$DW$469, DW_AT_name("INTx7")
    4308                      .dwattr $C$DW$469, DW_AT_TI_symbol_name("_INTx7")
    4309                      .dwattr $C$DW$469, DW_AT_bit_offset(0x09), DW_AT_bit_size(0x01)
    4310                      .dwattr $C$DW$469, DW_AT_data_member_location[DW_OP_plus_uconst 0x0]
    4311                      .dwattr $C$DW$469, DW_AT_accessibility(DW_ACCESS_public)
    4312              $C$DW$470       .dwtag  DW_TAG_member
    4313                      .dwattr $C$DW$470, DW_AT_type(*$C$DW$T$19)
    4314                      .dwattr $C$DW$470, DW_AT_name("INTx8")
    4315                      .dwattr $C$DW$470, DW_AT_TI_symbol_name("_INTx8")
    4316                      .dwattr $C$DW$470, DW_AT_bit_offset(0x08), DW_AT_bit_size(0x01)
    4317                      .dwattr $C$DW$470, DW_AT_data_member_location[DW_OP_plus_uconst 0x0]
    4318                      .dwattr $C$DW$470, DW_AT_accessibility(DW_ACCESS_public)
    4319              $C$DW$471       .dwtag  DW_TAG_member
    4320                      .dwattr $C$DW$471, DW_AT_type(*$C$DW$T$19)
    4321                      .dwattr $C$DW$471, DW_AT_name("INTx9")
    4322                      .dwattr $C$DW$471, DW_AT_TI_symbol_name("_INTx9")
    4323                      .dwattr $C$DW$471, DW_AT_bit_offset(0x07), DW_AT_bit_size(0x01)
    4324                      .dwattr $C$DW$471, DW_AT_data_member_location[DW_OP_plus_uconst 0x0]
    4325                      .dwattr $C$DW$471, DW_AT_accessibility(DW_ACCESS_public)
    4326              $C$DW$472       .dwtag  DW_TAG_member
    4327                      .dwattr $C$DW$472, DW_AT_type(*$C$DW$T$19)
    4328                      .dwattr $C$DW$472, DW_AT_name("INTx10")
    4329                      .dwattr $C$DW$472, DW_AT_TI_symbol_name("_INTx10")
    4330                      .dwattr $C$DW$472, DW_AT_bit_offset(0x06), DW_AT_bit_size(0x01)
TMS320C2000 Assembler PC v6.4.2 Thu Dec 14 15:26:49 2017

Tools Copyright (c) 1996-2015 Texas Instruments Incorporated
interrupt.asm                                                        PAGE   81

    4331                      .dwattr $C$DW$472, DW_AT_data_member_location[DW_OP_plus_uconst 0x0]
    4332                      .dwattr $C$DW$472, DW_AT_accessibility(DW_ACCESS_public)
    4333              $C$DW$473       .dwtag  DW_TAG_member
    4334                      .dwattr $C$DW$473, DW_AT_type(*$C$DW$T$19)
    4335                      .dwattr $C$DW$473, DW_AT_name("INTx11")
    4336                      .dwattr $C$DW$473, DW_AT_TI_symbol_name("_INTx11")
    4337                      .dwattr $C$DW$473, DW_AT_bit_offset(0x05), DW_AT_bit_size(0x01)
    4338                      .dwattr $C$DW$473, DW_AT_data_member_location[DW_OP_plus_uconst 0x0]
    4339                      .dwattr $C$DW$473, DW_AT_accessibility(DW_ACCESS_public)
    4340              $C$DW$474       .dwtag  DW_TAG_member
    4341                      .dwattr $C$DW$474, DW_AT_type(*$C$DW$T$19)
    4342                      .dwattr $C$DW$474, DW_AT_name("INTx12")
    4343                      .dwattr $C$DW$474, DW_AT_TI_symbol_name("_INTx12")
    4344                      .dwattr $C$DW$474, DW_AT_bit_offset(0x04), DW_AT_bit_size(0x01)
    4345                      .dwattr $C$DW$474, DW_AT_data_member_location[DW_OP_plus_uconst 0x0]
    4346                      .dwattr $C$DW$474, DW_AT_accessibility(DW_ACCESS_public)
    4347              $C$DW$475       .dwtag  DW_TAG_member
    4348                      .dwattr $C$DW$475, DW_AT_type(*$C$DW$T$19)
    4349                      .dwattr $C$DW$475, DW_AT_name("INTx13")
    4350                      .dwattr $C$DW$475, DW_AT_TI_symbol_name("_INTx13")
    4351                      .dwattr $C$DW$475, DW_AT_bit_offset(0x03), DW_AT_bit_size(0x01)
    4352                      .dwattr $C$DW$475, DW_AT_data_member_location[DW_OP_plus_uconst 0x0]
    4353                      .dwattr $C$DW$475, DW_AT_accessibility(DW_ACCESS_public)
    4354              $C$DW$476       .dwtag  DW_TAG_member
    4355                      .dwattr $C$DW$476, DW_AT_type(*$C$DW$T$19)
    4356                      .dwattr $C$DW$476, DW_AT_name("INTx14")
    4357                      .dwattr $C$DW$476, DW_AT_TI_symbol_name("_INTx14")
    4358                      .dwattr $C$DW$476, DW_AT_bit_offset(0x02), DW_AT_bit_size(0x01)
    4359                      .dwattr $C$DW$476, DW_AT_data_member_location[DW_OP_plus_uconst 0x0]
    4360                      .dwattr $C$DW$476, DW_AT_accessibility(DW_ACCESS_public)
    4361              $C$DW$477       .dwtag  DW_TAG_member
    4362                      .dwattr $C$DW$477, DW_AT_type(*$C$DW$T$19)
    4363                      .dwattr $C$DW$477, DW_AT_name("INTx15")
    4364                      .dwattr $C$DW$477, DW_AT_TI_symbol_name("_INTx15")
    4365                      .dwattr $C$DW$477, DW_AT_bit_offset(0x01), DW_AT_bit_size(0x01)
    4366                      .dwattr $C$DW$477, DW_AT_data_member_location[DW_OP_plus_uconst 0x0]
    4367                      .dwattr $C$DW$477, DW_AT_accessibility(DW_ACCESS_public)
    4368              $C$DW$478       .dwtag  DW_TAG_member
    4369                      .dwattr $C$DW$478, DW_AT_type(*$C$DW$T$19)
    4370                      .dwattr $C$DW$478, DW_AT_name("INTx16")
    4371                      .dwattr $C$DW$478, DW_AT_TI_symbol_name("_INTx16")
    4372                      .dwattr $C$DW$478, DW_AT_bit_offset(0x00), DW_AT_bit_size(0x01)
    4373                      .dwattr $C$DW$478, DW_AT_data_member_location[DW_OP_plus_uconst 0x0]
    4374                      .dwattr $C$DW$478, DW_AT_accessibility(DW_ACCESS_public)
    4375                      .dwendtag $C$DW$T$68
    4376              
    4377              
    4378              $C$DW$T$69      .dwtag  DW_TAG_union_type
    4379                      .dwattr $C$DW$T$69, DW_AT_name("PIEIFR8_REG")
    4380                      .dwattr $C$DW$T$69, DW_AT_byte_size(0x01)
    4381              $C$DW$479       .dwtag  DW_TAG_member
    4382                      .dwattr $C$DW$479, DW_AT_type(*$C$DW$T$19)
    4383                      .dwattr $C$DW$479, DW_AT_name("all")
    4384                      .dwattr $C$DW$479, DW_AT_TI_symbol_name("_all")
    4385                      .dwattr $C$DW$479, DW_AT_data_member_location[DW_OP_plus_uconst 0x0]
TMS320C2000 Assembler PC v6.4.2 Thu Dec 14 15:26:49 2017

Tools Copyright (c) 1996-2015 Texas Instruments Incorporated
interrupt.asm                                                        PAGE   82

    4386                      .dwattr $C$DW$479, DW_AT_accessibility(DW_ACCESS_public)
    4387              $C$DW$480       .dwtag  DW_TAG_member
    4388                      .dwattr $C$DW$480, DW_AT_type(*$C$DW$T$68)
    4389                      .dwattr $C$DW$480, DW_AT_name("bit")
    4390                      .dwattr $C$DW$480, DW_AT_TI_symbol_name("_bit")
    4391                      .dwattr $C$DW$480, DW_AT_data_member_location[DW_OP_plus_uconst 0x0]
    4392                      .dwattr $C$DW$480, DW_AT_accessibility(DW_ACCESS_public)
    4393                      .dwendtag $C$DW$T$69
    4394              
    4395              
    4396              $C$DW$T$70      .dwtag  DW_TAG_structure_type
    4397                      .dwattr $C$DW$T$70, DW_AT_name("PIEIFR9_BITS")
    4398                      .dwattr $C$DW$T$70, DW_AT_byte_size(0x01)
    4399              $C$DW$481       .dwtag  DW_TAG_member
    4400                      .dwattr $C$DW$481, DW_AT_type(*$C$DW$T$19)
    4401                      .dwattr $C$DW$481, DW_AT_name("INTx1")
    4402                      .dwattr $C$DW$481, DW_AT_TI_symbol_name("_INTx1")
    4403                      .dwattr $C$DW$481, DW_AT_bit_offset(0x0f), DW_AT_bit_size(0x01)
    4404                      .dwattr $C$DW$481, DW_AT_data_member_location[DW_OP_plus_uconst 0x0]
    4405                      .dwattr $C$DW$481, DW_AT_accessibility(DW_ACCESS_public)
    4406              $C$DW$482       .dwtag  DW_TAG_member
    4407                      .dwattr $C$DW$482, DW_AT_type(*$C$DW$T$19)
    4408                      .dwattr $C$DW$482, DW_AT_name("INTx2")
    4409                      .dwattr $C$DW$482, DW_AT_TI_symbol_name("_INTx2")
    4410                      .dwattr $C$DW$482, DW_AT_bit_offset(0x0e), DW_AT_bit_size(0x01)
    4411                      .dwattr $C$DW$482, DW_AT_data_member_location[DW_OP_plus_uconst 0x0]
    4412                      .dwattr $C$DW$482, DW_AT_accessibility(DW_ACCESS_public)
    4413              $C$DW$483       .dwtag  DW_TAG_member
    4414                      .dwattr $C$DW$483, DW_AT_type(*$C$DW$T$19)
    4415                      .dwattr $C$DW$483, DW_AT_name("INTx3")
    4416                      .dwattr $C$DW$483, DW_AT_TI_symbol_name("_INTx3")
    4417                      .dwattr $C$DW$483, DW_AT_bit_offset(0x0d), DW_AT_bit_size(0x01)
    4418                      .dwattr $C$DW$483, DW_AT_data_member_location[DW_OP_plus_uconst 0x0]
    4419                      .dwattr $C$DW$483, DW_AT_accessibility(DW_ACCESS_public)
    4420              $C$DW$484       .dwtag  DW_TAG_member
    4421                      .dwattr $C$DW$484, DW_AT_type(*$C$DW$T$19)
    4422                      .dwattr $C$DW$484, DW_AT_name("INTx4")
    4423                      .dwattr $C$DW$484, DW_AT_TI_symbol_name("_INTx4")
    4424                      .dwattr $C$DW$484, DW_AT_bit_offset(0x0c), DW_AT_bit_size(0x01)
    4425                      .dwattr $C$DW$484, DW_AT_data_member_location[DW_OP_plus_uconst 0x0]
    4426                      .dwattr $C$DW$484, DW_AT_accessibility(DW_ACCESS_public)
    4427              $C$DW$485       .dwtag  DW_TAG_member
    4428                      .dwattr $C$DW$485, DW_AT_type(*$C$DW$T$19)
    4429                      .dwattr $C$DW$485, DW_AT_name("INTx5")
    4430                      .dwattr $C$DW$485, DW_AT_TI_symbol_name("_INTx5")
    4431                      .dwattr $C$DW$485, DW_AT_bit_offset(0x0b), DW_AT_bit_size(0x01)
    4432                      .dwattr $C$DW$485, DW_AT_data_member_location[DW_OP_plus_uconst 0x0]
    4433                      .dwattr $C$DW$485, DW_AT_accessibility(DW_ACCESS_public)
    4434              $C$DW$486       .dwtag  DW_TAG_member
    4435                      .dwattr $C$DW$486, DW_AT_type(*$C$DW$T$19)
    4436                      .dwattr $C$DW$486, DW_AT_name("INTx6")
    4437                      .dwattr $C$DW$486, DW_AT_TI_symbol_name("_INTx6")
    4438                      .dwattr $C$DW$486, DW_AT_bit_offset(0x0a), DW_AT_bit_size(0x01)
    4439                      .dwattr $C$DW$486, DW_AT_data_member_location[DW_OP_plus_uconst 0x0]
    4440                      .dwattr $C$DW$486, DW_AT_accessibility(DW_ACCESS_public)
TMS320C2000 Assembler PC v6.4.2 Thu Dec 14 15:26:49 2017

Tools Copyright (c) 1996-2015 Texas Instruments Incorporated
interrupt.asm                                                        PAGE   83

    4441              $C$DW$487       .dwtag  DW_TAG_member
    4442                      .dwattr $C$DW$487, DW_AT_type(*$C$DW$T$19)
    4443                      .dwattr $C$DW$487, DW_AT_name("INTx7")
    4444                      .dwattr $C$DW$487, DW_AT_TI_symbol_name("_INTx7")
    4445                      .dwattr $C$DW$487, DW_AT_bit_offset(0x09), DW_AT_bit_size(0x01)
    4446                      .dwattr $C$DW$487, DW_AT_data_member_location[DW_OP_plus_uconst 0x0]
    4447                      .dwattr $C$DW$487, DW_AT_accessibility(DW_ACCESS_public)
    4448              $C$DW$488       .dwtag  DW_TAG_member
    4449                      .dwattr $C$DW$488, DW_AT_type(*$C$DW$T$19)
    4450                      .dwattr $C$DW$488, DW_AT_name("INTx8")
    4451                      .dwattr $C$DW$488, DW_AT_TI_symbol_name("_INTx8")
    4452                      .dwattr $C$DW$488, DW_AT_bit_offset(0x08), DW_AT_bit_size(0x01)
    4453                      .dwattr $C$DW$488, DW_AT_data_member_location[DW_OP_plus_uconst 0x0]
    4454                      .dwattr $C$DW$488, DW_AT_accessibility(DW_ACCESS_public)
    4455              $C$DW$489       .dwtag  DW_TAG_member
    4456                      .dwattr $C$DW$489, DW_AT_type(*$C$DW$T$19)
    4457                      .dwattr $C$DW$489, DW_AT_name("INTx9")
    4458                      .dwattr $C$DW$489, DW_AT_TI_symbol_name("_INTx9")
    4459                      .dwattr $C$DW$489, DW_AT_bit_offset(0x07), DW_AT_bit_size(0x01)
    4460                      .dwattr $C$DW$489, DW_AT_data_member_location[DW_OP_plus_uconst 0x0]
    4461                      .dwattr $C$DW$489, DW_AT_accessibility(DW_ACCESS_public)
    4462              $C$DW$490       .dwtag  DW_TAG_member
    4463                      .dwattr $C$DW$490, DW_AT_type(*$C$DW$T$19)
    4464                      .dwattr $C$DW$490, DW_AT_name("INTx10")
    4465                      .dwattr $C$DW$490, DW_AT_TI_symbol_name("_INTx10")
    4466                      .dwattr $C$DW$490, DW_AT_bit_offset(0x06), DW_AT_bit_size(0x01)
    4467                      .dwattr $C$DW$490, DW_AT_data_member_location[DW_OP_plus_uconst 0x0]
    4468                      .dwattr $C$DW$490, DW_AT_accessibility(DW_ACCESS_public)
    4469              $C$DW$491       .dwtag  DW_TAG_member
    4470                      .dwattr $C$DW$491, DW_AT_type(*$C$DW$T$19)
    4471                      .dwattr $C$DW$491, DW_AT_name("INTx11")
    4472                      .dwattr $C$DW$491, DW_AT_TI_symbol_name("_INTx11")
    4473                      .dwattr $C$DW$491, DW_AT_bit_offset(0x05), DW_AT_bit_size(0x01)
    4474                      .dwattr $C$DW$491, DW_AT_data_member_location[DW_OP_plus_uconst 0x0]
    4475                      .dwattr $C$DW$491, DW_AT_accessibility(DW_ACCESS_public)
    4476              $C$DW$492       .dwtag  DW_TAG_member
    4477                      .dwattr $C$DW$492, DW_AT_type(*$C$DW$T$19)
    4478                      .dwattr $C$DW$492, DW_AT_name("INTx12")
    4479                      .dwattr $C$DW$492, DW_AT_TI_symbol_name("_INTx12")
    4480                      .dwattr $C$DW$492, DW_AT_bit_offset(0x04), DW_AT_bit_size(0x01)
    4481                      .dwattr $C$DW$492, DW_AT_data_member_location[DW_OP_plus_uconst 0x0]
    4482                      .dwattr $C$DW$492, DW_AT_accessibility(DW_ACCESS_public)
    4483              $C$DW$493       .dwtag  DW_TAG_member
    4484                      .dwattr $C$DW$493, DW_AT_type(*$C$DW$T$19)
    4485                      .dwattr $C$DW$493, DW_AT_name("INTx13")
    4486                      .dwattr $C$DW$493, DW_AT_TI_symbol_name("_INTx13")
    4487                      .dwattr $C$DW$493, DW_AT_bit_offset(0x03), DW_AT_bit_size(0x01)
    4488                      .dwattr $C$DW$493, DW_AT_data_member_location[DW_OP_plus_uconst 0x0]
    4489                      .dwattr $C$DW$493, DW_AT_accessibility(DW_ACCESS_public)
    4490              $C$DW$494       .dwtag  DW_TAG_member
    4491                      .dwattr $C$DW$494, DW_AT_type(*$C$DW$T$19)
    4492                      .dwattr $C$DW$494, DW_AT_name("INTx14")
    4493                      .dwattr $C$DW$494, DW_AT_TI_symbol_name("_INTx14")
    4494                      .dwattr $C$DW$494, DW_AT_bit_offset(0x02), DW_AT_bit_size(0x01)
    4495                      .dwattr $C$DW$494, DW_AT_data_member_location[DW_OP_plus_uconst 0x0]
TMS320C2000 Assembler PC v6.4.2 Thu Dec 14 15:26:49 2017

Tools Copyright (c) 1996-2015 Texas Instruments Incorporated
interrupt.asm                                                        PAGE   84

    4496                      .dwattr $C$DW$494, DW_AT_accessibility(DW_ACCESS_public)
    4497              $C$DW$495       .dwtag  DW_TAG_member
    4498                      .dwattr $C$DW$495, DW_AT_type(*$C$DW$T$19)
    4499                      .dwattr $C$DW$495, DW_AT_name("INTx15")
    4500                      .dwattr $C$DW$495, DW_AT_TI_symbol_name("_INTx15")
    4501                      .dwattr $C$DW$495, DW_AT_bit_offset(0x01), DW_AT_bit_size(0x01)
    4502                      .dwattr $C$DW$495, DW_AT_data_member_location[DW_OP_plus_uconst 0x0]
    4503                      .dwattr $C$DW$495, DW_AT_accessibility(DW_ACCESS_public)
    4504              $C$DW$496       .dwtag  DW_TAG_member
    4505                      .dwattr $C$DW$496, DW_AT_type(*$C$DW$T$19)
    4506                      .dwattr $C$DW$496, DW_AT_name("INTx16")
    4507                      .dwattr $C$DW$496, DW_AT_TI_symbol_name("_INTx16")
    4508                      .dwattr $C$DW$496, DW_AT_bit_offset(0x00), DW_AT_bit_size(0x01)
    4509                      .dwattr $C$DW$496, DW_AT_data_member_location[DW_OP_plus_uconst 0x0]
    4510                      .dwattr $C$DW$496, DW_AT_accessibility(DW_ACCESS_public)
    4511                      .dwendtag $C$DW$T$70
    4512              
    4513              
    4514              $C$DW$T$71      .dwtag  DW_TAG_union_type
    4515                      .dwattr $C$DW$T$71, DW_AT_name("PIEIFR9_REG")
    4516                      .dwattr $C$DW$T$71, DW_AT_byte_size(0x01)
    4517              $C$DW$497       .dwtag  DW_TAG_member
    4518                      .dwattr $C$DW$497, DW_AT_type(*$C$DW$T$19)
    4519                      .dwattr $C$DW$497, DW_AT_name("all")
    4520                      .dwattr $C$DW$497, DW_AT_TI_symbol_name("_all")
    4521                      .dwattr $C$DW$497, DW_AT_data_member_location[DW_OP_plus_uconst 0x0]
    4522                      .dwattr $C$DW$497, DW_AT_accessibility(DW_ACCESS_public)
    4523              $C$DW$498       .dwtag  DW_TAG_member
    4524                      .dwattr $C$DW$498, DW_AT_type(*$C$DW$T$70)
    4525                      .dwattr $C$DW$498, DW_AT_name("bit")
    4526                      .dwattr $C$DW$498, DW_AT_TI_symbol_name("_bit")
    4527                      .dwattr $C$DW$498, DW_AT_data_member_location[DW_OP_plus_uconst 0x0]
    4528                      .dwattr $C$DW$498, DW_AT_accessibility(DW_ACCESS_public)
    4529                      .dwendtag $C$DW$T$71
    4530              
    4531              
    4532              $C$DW$T$72      .dwtag  DW_TAG_structure_type
    4533                      .dwattr $C$DW$T$72, DW_AT_name("PIE_CTRL_REGS")
    4534                      .dwattr $C$DW$T$72, DW_AT_byte_size(0x1a)
    4535              $C$DW$499       .dwtag  DW_TAG_member
    4536                      .dwattr $C$DW$499, DW_AT_type(*$C$DW$T$23)
    4537                      .dwattr $C$DW$499, DW_AT_name("PIECTRL")
    4538                      .dwattr $C$DW$499, DW_AT_TI_symbol_name("_PIECTRL")
    4539                      .dwattr $C$DW$499, DW_AT_data_member_location[DW_OP_plus_uconst 0x0]
    4540                      .dwattr $C$DW$499, DW_AT_accessibility(DW_ACCESS_public)
    4541              $C$DW$500       .dwtag  DW_TAG_member
    4542                      .dwattr $C$DW$500, DW_AT_type(*$C$DW$T$21)
    4543                      .dwattr $C$DW$500, DW_AT_name("PIEACK")
    4544                      .dwattr $C$DW$500, DW_AT_TI_symbol_name("_PIEACK")
    4545                      .dwattr $C$DW$500, DW_AT_data_member_location[DW_OP_plus_uconst 0x1]
    4546                      .dwattr $C$DW$500, DW_AT_accessibility(DW_ACCESS_public)
    4547              $C$DW$501       .dwtag  DW_TAG_member
    4548                      .dwattr $C$DW$501, DW_AT_type(*$C$DW$T$31)
    4549                      .dwattr $C$DW$501, DW_AT_name("PIEIER1")
    4550                      .dwattr $C$DW$501, DW_AT_TI_symbol_name("_PIEIER1")
TMS320C2000 Assembler PC v6.4.2 Thu Dec 14 15:26:49 2017

Tools Copyright (c) 1996-2015 Texas Instruments Incorporated
interrupt.asm                                                        PAGE   85

    4551                      .dwattr $C$DW$501, DW_AT_data_member_location[DW_OP_plus_uconst 0x2]
    4552                      .dwattr $C$DW$501, DW_AT_accessibility(DW_ACCESS_public)
    4553              $C$DW$502       .dwtag  DW_TAG_member
    4554                      .dwattr $C$DW$502, DW_AT_type(*$C$DW$T$55)
    4555                      .dwattr $C$DW$502, DW_AT_name("PIEIFR1")
    4556                      .dwattr $C$DW$502, DW_AT_TI_symbol_name("_PIEIFR1")
    4557                      .dwattr $C$DW$502, DW_AT_data_member_location[DW_OP_plus_uconst 0x3]
    4558                      .dwattr $C$DW$502, DW_AT_accessibility(DW_ACCESS_public)
    4559              $C$DW$503       .dwtag  DW_TAG_member
    4560                      .dwattr $C$DW$503, DW_AT_type(*$C$DW$T$33)
    4561                      .dwattr $C$DW$503, DW_AT_name("PIEIER2")
    4562                      .dwattr $C$DW$503, DW_AT_TI_symbol_name("_PIEIER2")
    4563                      .dwattr $C$DW$503, DW_AT_data_member_location[DW_OP_plus_uconst 0x4]
    4564                      .dwattr $C$DW$503, DW_AT_accessibility(DW_ACCESS_public)
    4565              $C$DW$504       .dwtag  DW_TAG_member
    4566                      .dwattr $C$DW$504, DW_AT_type(*$C$DW$T$57)
    4567                      .dwattr $C$DW$504, DW_AT_name("PIEIFR2")
    4568                      .dwattr $C$DW$504, DW_AT_TI_symbol_name("_PIEIFR2")
    4569                      .dwattr $C$DW$504, DW_AT_data_member_location[DW_OP_plus_uconst 0x5]
    4570                      .dwattr $C$DW$504, DW_AT_accessibility(DW_ACCESS_public)
    4571              $C$DW$505       .dwtag  DW_TAG_member
    4572                      .dwattr $C$DW$505, DW_AT_type(*$C$DW$T$35)
    4573                      .dwattr $C$DW$505, DW_AT_name("PIEIER3")
    4574                      .dwattr $C$DW$505, DW_AT_TI_symbol_name("_PIEIER3")
    4575                      .dwattr $C$DW$505, DW_AT_data_member_location[DW_OP_plus_uconst 0x6]
    4576                      .dwattr $C$DW$505, DW_AT_accessibility(DW_ACCESS_public)
    4577              $C$DW$506       .dwtag  DW_TAG_member
    4578                      .dwattr $C$DW$506, DW_AT_type(*$C$DW$T$59)
    4579                      .dwattr $C$DW$506, DW_AT_name("PIEIFR3")
    4580                      .dwattr $C$DW$506, DW_AT_TI_symbol_name("_PIEIFR3")
    4581                      .dwattr $C$DW$506, DW_AT_data_member_location[DW_OP_plus_uconst 0x7]
    4582                      .dwattr $C$DW$506, DW_AT_accessibility(DW_ACCESS_public)
    4583              $C$DW$507       .dwtag  DW_TAG_member
    4584                      .dwattr $C$DW$507, DW_AT_type(*$C$DW$T$37)
    4585                      .dwattr $C$DW$507, DW_AT_name("PIEIER4")
    4586                      .dwattr $C$DW$507, DW_AT_TI_symbol_name("_PIEIER4")
    4587                      .dwattr $C$DW$507, DW_AT_data_member_location[DW_OP_plus_uconst 0x8]
    4588                      .dwattr $C$DW$507, DW_AT_accessibility(DW_ACCESS_public)
    4589              $C$DW$508       .dwtag  DW_TAG_member
    4590                      .dwattr $C$DW$508, DW_AT_type(*$C$DW$T$61)
    4591                      .dwattr $C$DW$508, DW_AT_name("PIEIFR4")
    4592                      .dwattr $C$DW$508, DW_AT_TI_symbol_name("_PIEIFR4")
    4593                      .dwattr $C$DW$508, DW_AT_data_member_location[DW_OP_plus_uconst 0x9]
    4594                      .dwattr $C$DW$508, DW_AT_accessibility(DW_ACCESS_public)
    4595              $C$DW$509       .dwtag  DW_TAG_member
    4596                      .dwattr $C$DW$509, DW_AT_type(*$C$DW$T$39)
    4597                      .dwattr $C$DW$509, DW_AT_name("PIEIER5")
    4598                      .dwattr $C$DW$509, DW_AT_TI_symbol_name("_PIEIER5")
    4599                      .dwattr $C$DW$509, DW_AT_data_member_location[DW_OP_plus_uconst 0xa]
    4600                      .dwattr $C$DW$509, DW_AT_accessibility(DW_ACCESS_public)
    4601              $C$DW$510       .dwtag  DW_TAG_member
    4602                      .dwattr $C$DW$510, DW_AT_type(*$C$DW$T$63)
    4603                      .dwattr $C$DW$510, DW_AT_name("PIEIFR5")
    4604                      .dwattr $C$DW$510, DW_AT_TI_symbol_name("_PIEIFR5")
    4605                      .dwattr $C$DW$510, DW_AT_data_member_location[DW_OP_plus_uconst 0xb]
TMS320C2000 Assembler PC v6.4.2 Thu Dec 14 15:26:49 2017

Tools Copyright (c) 1996-2015 Texas Instruments Incorporated
interrupt.asm                                                        PAGE   86

    4606                      .dwattr $C$DW$510, DW_AT_accessibility(DW_ACCESS_public)
    4607              $C$DW$511       .dwtag  DW_TAG_member
    4608                      .dwattr $C$DW$511, DW_AT_type(*$C$DW$T$41)
    4609                      .dwattr $C$DW$511, DW_AT_name("PIEIER6")
    4610                      .dwattr $C$DW$511, DW_AT_TI_symbol_name("_PIEIER6")
    4611                      .dwattr $C$DW$511, DW_AT_data_member_location[DW_OP_plus_uconst 0xc]
    4612                      .dwattr $C$DW$511, DW_AT_accessibility(DW_ACCESS_public)
    4613              $C$DW$512       .dwtag  DW_TAG_member
    4614                      .dwattr $C$DW$512, DW_AT_type(*$C$DW$T$65)
    4615                      .dwattr $C$DW$512, DW_AT_name("PIEIFR6")
    4616                      .dwattr $C$DW$512, DW_AT_TI_symbol_name("_PIEIFR6")
    4617                      .dwattr $C$DW$512, DW_AT_data_member_location[DW_OP_plus_uconst 0xd]
    4618                      .dwattr $C$DW$512, DW_AT_accessibility(DW_ACCESS_public)
    4619              $C$DW$513       .dwtag  DW_TAG_member
    4620                      .dwattr $C$DW$513, DW_AT_type(*$C$DW$T$43)
    4621                      .dwattr $C$DW$513, DW_AT_name("PIEIER7")
    4622                      .dwattr $C$DW$513, DW_AT_TI_symbol_name("_PIEIER7")
    4623                      .dwattr $C$DW$513, DW_AT_data_member_location[DW_OP_plus_uconst 0xe]
    4624                      .dwattr $C$DW$513, DW_AT_accessibility(DW_ACCESS_public)
    4625              $C$DW$514       .dwtag  DW_TAG_member
    4626                      .dwattr $C$DW$514, DW_AT_type(*$C$DW$T$67)
    4627                      .dwattr $C$DW$514, DW_AT_name("PIEIFR7")
    4628                      .dwattr $C$DW$514, DW_AT_TI_symbol_name("_PIEIFR7")
    4629                      .dwattr $C$DW$514, DW_AT_data_member_location[DW_OP_plus_uconst 0xf]
    4630                      .dwattr $C$DW$514, DW_AT_accessibility(DW_ACCESS_public)
    4631              $C$DW$515       .dwtag  DW_TAG_member
    4632                      .dwattr $C$DW$515, DW_AT_type(*$C$DW$T$45)
    4633                      .dwattr $C$DW$515, DW_AT_name("PIEIER8")
    4634                      .dwattr $C$DW$515, DW_AT_TI_symbol_name("_PIEIER8")
    4635                      .dwattr $C$DW$515, DW_AT_data_member_location[DW_OP_plus_uconst 0x10]
    4636                      .dwattr $C$DW$515, DW_AT_accessibility(DW_ACCESS_public)
    4637              $C$DW$516       .dwtag  DW_TAG_member
    4638                      .dwattr $C$DW$516, DW_AT_type(*$C$DW$T$69)
    4639                      .dwattr $C$DW$516, DW_AT_name("PIEIFR8")
    4640                      .dwattr $C$DW$516, DW_AT_TI_symbol_name("_PIEIFR8")
    4641                      .dwattr $C$DW$516, DW_AT_data_member_location[DW_OP_plus_uconst 0x11]
    4642                      .dwattr $C$DW$516, DW_AT_accessibility(DW_ACCESS_public)
    4643              $C$DW$517       .dwtag  DW_TAG_member
    4644                      .dwattr $C$DW$517, DW_AT_type(*$C$DW$T$47)
    4645                      .dwattr $C$DW$517, DW_AT_name("PIEIER9")
    4646                      .dwattr $C$DW$517, DW_AT_TI_symbol_name("_PIEIER9")
    4647                      .dwattr $C$DW$517, DW_AT_data_member_location[DW_OP_plus_uconst 0x12]
    4648                      .dwattr $C$DW$517, DW_AT_accessibility(DW_ACCESS_public)
    4649              $C$DW$518       .dwtag  DW_TAG_member
    4650                      .dwattr $C$DW$518, DW_AT_type(*$C$DW$T$71)
    4651                      .dwattr $C$DW$518, DW_AT_name("PIEIFR9")
    4652                      .dwattr $C$DW$518, DW_AT_TI_symbol_name("_PIEIFR9")
    4653                      .dwattr $C$DW$518, DW_AT_data_member_location[DW_OP_plus_uconst 0x13]
    4654                      .dwattr $C$DW$518, DW_AT_accessibility(DW_ACCESS_public)
    4655              $C$DW$519       .dwtag  DW_TAG_member
    4656                      .dwattr $C$DW$519, DW_AT_type(*$C$DW$T$25)
    4657                      .dwattr $C$DW$519, DW_AT_name("PIEIER10")
    4658                      .dwattr $C$DW$519, DW_AT_TI_symbol_name("_PIEIER10")
    4659                      .dwattr $C$DW$519, DW_AT_data_member_location[DW_OP_plus_uconst 0x14]
    4660                      .dwattr $C$DW$519, DW_AT_accessibility(DW_ACCESS_public)
TMS320C2000 Assembler PC v6.4.2 Thu Dec 14 15:26:49 2017

Tools Copyright (c) 1996-2015 Texas Instruments Incorporated
interrupt.asm                                                        PAGE   87

    4661              $C$DW$520       .dwtag  DW_TAG_member
    4662                      .dwattr $C$DW$520, DW_AT_type(*$C$DW$T$49)
    4663                      .dwattr $C$DW$520, DW_AT_name("PIEIFR10")
    4664                      .dwattr $C$DW$520, DW_AT_TI_symbol_name("_PIEIFR10")
    4665                      .dwattr $C$DW$520, DW_AT_data_member_location[DW_OP_plus_uconst 0x15]
    4666                      .dwattr $C$DW$520, DW_AT_accessibility(DW_ACCESS_public)
    4667              $C$DW$521       .dwtag  DW_TAG_member
    4668                      .dwattr $C$DW$521, DW_AT_type(*$C$DW$T$27)
    4669                      .dwattr $C$DW$521, DW_AT_name("PIEIER11")
    4670                      .dwattr $C$DW$521, DW_AT_TI_symbol_name("_PIEIER11")
    4671                      .dwattr $C$DW$521, DW_AT_data_member_location[DW_OP_plus_uconst 0x16]
    4672                      .dwattr $C$DW$521, DW_AT_accessibility(DW_ACCESS_public)
    4673              $C$DW$522       .dwtag  DW_TAG_member
    4674                      .dwattr $C$DW$522, DW_AT_type(*$C$DW$T$51)
    4675                      .dwattr $C$DW$522, DW_AT_name("PIEIFR11")
    4676                      .dwattr $C$DW$522, DW_AT_TI_symbol_name("_PIEIFR11")
    4677                      .dwattr $C$DW$522, DW_AT_data_member_location[DW_OP_plus_uconst 0x17]
    4678                      .dwattr $C$DW$522, DW_AT_accessibility(DW_ACCESS_public)
    4679              $C$DW$523       .dwtag  DW_TAG_member
    4680                      .dwattr $C$DW$523, DW_AT_type(*$C$DW$T$29)
    4681                      .dwattr $C$DW$523, DW_AT_name("PIEIER12")
    4682                      .dwattr $C$DW$523, DW_AT_TI_symbol_name("_PIEIER12")
    4683                      .dwattr $C$DW$523, DW_AT_data_member_location[DW_OP_plus_uconst 0x18]
    4684                      .dwattr $C$DW$523, DW_AT_accessibility(DW_ACCESS_public)
    4685              $C$DW$524       .dwtag  DW_TAG_member
    4686                      .dwattr $C$DW$524, DW_AT_type(*$C$DW$T$53)
    4687                      .dwattr $C$DW$524, DW_AT_name("PIEIFR12")
    4688                      .dwattr $C$DW$524, DW_AT_TI_symbol_name("_PIEIFR12")
    4689                      .dwattr $C$DW$524, DW_AT_data_member_location[DW_OP_plus_uconst 0x19]
    4690                      .dwattr $C$DW$524, DW_AT_accessibility(DW_ACCESS_public)
    4691                      .dwendtag $C$DW$T$72
    4692              
    4693              $C$DW$525       .dwtag  DW_TAG_TI_far_type
    4694                      .dwattr $C$DW$525, DW_AT_type(*$C$DW$T$72)
    4695              $C$DW$T$81      .dwtag  DW_TAG_volatile_type
    4696                      .dwattr $C$DW$T$81, DW_AT_type(*$C$DW$525)
    4697              
    4698              $C$DW$T$76      .dwtag  DW_TAG_structure_type
    4699                      .dwattr $C$DW$T$76, DW_AT_name("PIE_VECT_TABLE")
    4700                      .dwattr $C$DW$T$76, DW_AT_byte_size(0x1c0)
    4701              $C$DW$526       .dwtag  DW_TAG_member
    4702                      .dwattr $C$DW$526, DW_AT_type(*$C$DW$T$75)
    4703                      .dwattr $C$DW$526, DW_AT_name("PIE1_RESERVED_INT")
    4704                      .dwattr $C$DW$526, DW_AT_TI_symbol_name("_PIE1_RESERVED_INT")
    4705                      .dwattr $C$DW$526, DW_AT_data_member_location[DW_OP_plus_uconst 0x0]
    4706                      .dwattr $C$DW$526, DW_AT_accessibility(DW_ACCESS_public)
    4707              $C$DW$527       .dwtag  DW_TAG_member
    4708                      .dwattr $C$DW$527, DW_AT_type(*$C$DW$T$75)
    4709                      .dwattr $C$DW$527, DW_AT_name("PIE2_RESERVED_INT")
    4710                      .dwattr $C$DW$527, DW_AT_TI_symbol_name("_PIE2_RESERVED_INT")
    4711                      .dwattr $C$DW$527, DW_AT_data_member_location[DW_OP_plus_uconst 0x2]
    4712                      .dwattr $C$DW$527, DW_AT_accessibility(DW_ACCESS_public)
    4713              $C$DW$528       .dwtag  DW_TAG_member
    4714                      .dwattr $C$DW$528, DW_AT_type(*$C$DW$T$75)
    4715                      .dwattr $C$DW$528, DW_AT_name("PIE3_RESERVED_INT")
TMS320C2000 Assembler PC v6.4.2 Thu Dec 14 15:26:49 2017

Tools Copyright (c) 1996-2015 Texas Instruments Incorporated
interrupt.asm                                                        PAGE   88

    4716                      .dwattr $C$DW$528, DW_AT_TI_symbol_name("_PIE3_RESERVED_INT")
    4717                      .dwattr $C$DW$528, DW_AT_data_member_location[DW_OP_plus_uconst 0x4]
    4718                      .dwattr $C$DW$528, DW_AT_accessibility(DW_ACCESS_public)
    4719              $C$DW$529       .dwtag  DW_TAG_member
    4720                      .dwattr $C$DW$529, DW_AT_type(*$C$DW$T$75)
    4721                      .dwattr $C$DW$529, DW_AT_name("PIE4_RESERVED_INT")
    4722                      .dwattr $C$DW$529, DW_AT_TI_symbol_name("_PIE4_RESERVED_INT")
    4723                      .dwattr $C$DW$529, DW_AT_data_member_location[DW_OP_plus_uconst 0x6]
    4724                      .dwattr $C$DW$529, DW_AT_accessibility(DW_ACCESS_public)
    4725              $C$DW$530       .dwtag  DW_TAG_member
    4726                      .dwattr $C$DW$530, DW_AT_type(*$C$DW$T$75)
    4727                      .dwattr $C$DW$530, DW_AT_name("PIE5_RESERVED_INT")
    4728                      .dwattr $C$DW$530, DW_AT_TI_symbol_name("_PIE5_RESERVED_INT")
    4729                      .dwattr $C$DW$530, DW_AT_data_member_location[DW_OP_plus_uconst 0x8]
    4730                      .dwattr $C$DW$530, DW_AT_accessibility(DW_ACCESS_public)
    4731              $C$DW$531       .dwtag  DW_TAG_member
    4732                      .dwattr $C$DW$531, DW_AT_type(*$C$DW$T$75)
    4733                      .dwattr $C$DW$531, DW_AT_name("PIE6_RESERVED_INT")
    4734                      .dwattr $C$DW$531, DW_AT_TI_symbol_name("_PIE6_RESERVED_INT")
    4735                      .dwattr $C$DW$531, DW_AT_data_member_location[DW_OP_plus_uconst 0xa]
    4736                      .dwattr $C$DW$531, DW_AT_accessibility(DW_ACCESS_public)
    4737              $C$DW$532       .dwtag  DW_TAG_member
    4738                      .dwattr $C$DW$532, DW_AT_type(*$C$DW$T$75)
    4739                      .dwattr $C$DW$532, DW_AT_name("PIE7_RESERVED_INT")
    4740                      .dwattr $C$DW$532, DW_AT_TI_symbol_name("_PIE7_RESERVED_INT")
    4741                      .dwattr $C$DW$532, DW_AT_data_member_location[DW_OP_plus_uconst 0xc]
    4742                      .dwattr $C$DW$532, DW_AT_accessibility(DW_ACCESS_public)
    4743              $C$DW$533       .dwtag  DW_TAG_member
    4744                      .dwattr $C$DW$533, DW_AT_type(*$C$DW$T$75)
    4745                      .dwattr $C$DW$533, DW_AT_name("PIE8_RESERVED_INT")
    4746                      .dwattr $C$DW$533, DW_AT_TI_symbol_name("_PIE8_RESERVED_INT")
    4747                      .dwattr $C$DW$533, DW_AT_data_member_location[DW_OP_plus_uconst 0xe]
    4748                      .dwattr $C$DW$533, DW_AT_accessibility(DW_ACCESS_public)
    4749              $C$DW$534       .dwtag  DW_TAG_member
    4750                      .dwattr $C$DW$534, DW_AT_type(*$C$DW$T$75)
    4751                      .dwattr $C$DW$534, DW_AT_name("PIE9_RESERVED_INT")
    4752                      .dwattr $C$DW$534, DW_AT_TI_symbol_name("_PIE9_RESERVED_INT")
    4753                      .dwattr $C$DW$534, DW_AT_data_member_location[DW_OP_plus_uconst 0x10]
    4754                      .dwattr $C$DW$534, DW_AT_accessibility(DW_ACCESS_public)
    4755              $C$DW$535       .dwtag  DW_TAG_member
    4756                      .dwattr $C$DW$535, DW_AT_type(*$C$DW$T$75)
    4757                      .dwattr $C$DW$535, DW_AT_name("PIE10_RESERVED_INT")
    4758                      .dwattr $C$DW$535, DW_AT_TI_symbol_name("_PIE10_RESERVED_INT")
    4759                      .dwattr $C$DW$535, DW_AT_data_member_location[DW_OP_plus_uconst 0x12]
    4760                      .dwattr $C$DW$535, DW_AT_accessibility(DW_ACCESS_public)
    4761              $C$DW$536       .dwtag  DW_TAG_member
    4762                      .dwattr $C$DW$536, DW_AT_type(*$C$DW$T$75)
    4763                      .dwattr $C$DW$536, DW_AT_name("PIE11_RESERVED_INT")
    4764                      .dwattr $C$DW$536, DW_AT_TI_symbol_name("_PIE11_RESERVED_INT")
    4765                      .dwattr $C$DW$536, DW_AT_data_member_location[DW_OP_plus_uconst 0x14]
    4766                      .dwattr $C$DW$536, DW_AT_accessibility(DW_ACCESS_public)
    4767              $C$DW$537       .dwtag  DW_TAG_member
    4768                      .dwattr $C$DW$537, DW_AT_type(*$C$DW$T$75)
    4769                      .dwattr $C$DW$537, DW_AT_name("PIE12_RESERVED_INT")
    4770                      .dwattr $C$DW$537, DW_AT_TI_symbol_name("_PIE12_RESERVED_INT")
TMS320C2000 Assembler PC v6.4.2 Thu Dec 14 15:26:49 2017

Tools Copyright (c) 1996-2015 Texas Instruments Incorporated
interrupt.asm                                                        PAGE   89

    4771                      .dwattr $C$DW$537, DW_AT_data_member_location[DW_OP_plus_uconst 0x16]
    4772                      .dwattr $C$DW$537, DW_AT_accessibility(DW_ACCESS_public)
    4773              $C$DW$538       .dwtag  DW_TAG_member
    4774                      .dwattr $C$DW$538, DW_AT_type(*$C$DW$T$75)
    4775                      .dwattr $C$DW$538, DW_AT_name("PIE13_RESERVED_INT")
    4776                      .dwattr $C$DW$538, DW_AT_TI_symbol_name("_PIE13_RESERVED_INT")
    4777                      .dwattr $C$DW$538, DW_AT_data_member_location[DW_OP_plus_uconst 0x18]
    4778                      .dwattr $C$DW$538, DW_AT_accessibility(DW_ACCESS_public)
    4779              $C$DW$539       .dwtag  DW_TAG_member
    4780                      .dwattr $C$DW$539, DW_AT_type(*$C$DW$T$75)
    4781                      .dwattr $C$DW$539, DW_AT_name("TIMER1_INT")
    4782                      .dwattr $C$DW$539, DW_AT_TI_symbol_name("_TIMER1_INT")
    4783                      .dwattr $C$DW$539, DW_AT_data_member_location[DW_OP_plus_uconst 0x1a]
    4784                      .dwattr $C$DW$539, DW_AT_accessibility(DW_ACCESS_public)
    4785              $C$DW$540       .dwtag  DW_TAG_member
    4786                      .dwattr $C$DW$540, DW_AT_type(*$C$DW$T$75)
    4787                      .dwattr $C$DW$540, DW_AT_name("TIMER2_INT")
    4788                      .dwattr $C$DW$540, DW_AT_TI_symbol_name("_TIMER2_INT")
    4789                      .dwattr $C$DW$540, DW_AT_data_member_location[DW_OP_plus_uconst 0x1c]
    4790                      .dwattr $C$DW$540, DW_AT_accessibility(DW_ACCESS_public)
    4791              $C$DW$541       .dwtag  DW_TAG_member
    4792                      .dwattr $C$DW$541, DW_AT_type(*$C$DW$T$75)
    4793                      .dwattr $C$DW$541, DW_AT_name("DATALOG_INT")
    4794                      .dwattr $C$DW$541, DW_AT_TI_symbol_name("_DATALOG_INT")
    4795                      .dwattr $C$DW$541, DW_AT_data_member_location[DW_OP_plus_uconst 0x1e]
    4796                      .dwattr $C$DW$541, DW_AT_accessibility(DW_ACCESS_public)
    4797              $C$DW$542       .dwtag  DW_TAG_member
    4798                      .dwattr $C$DW$542, DW_AT_type(*$C$DW$T$75)
    4799                      .dwattr $C$DW$542, DW_AT_name("RTOS_INT")
    4800                      .dwattr $C$DW$542, DW_AT_TI_symbol_name("_RTOS_INT")
    4801                      .dwattr $C$DW$542, DW_AT_data_member_location[DW_OP_plus_uconst 0x20]
    4802                      .dwattr $C$DW$542, DW_AT_accessibility(DW_ACCESS_public)
    4803              $C$DW$543       .dwtag  DW_TAG_member
    4804                      .dwattr $C$DW$543, DW_AT_type(*$C$DW$T$75)
    4805                      .dwattr $C$DW$543, DW_AT_name("EMU_INT")
    4806                      .dwattr $C$DW$543, DW_AT_TI_symbol_name("_EMU_INT")
    4807                      .dwattr $C$DW$543, DW_AT_data_member_location[DW_OP_plus_uconst 0x22]
    4808                      .dwattr $C$DW$543, DW_AT_accessibility(DW_ACCESS_public)
    4809              $C$DW$544       .dwtag  DW_TAG_member
    4810                      .dwattr $C$DW$544, DW_AT_type(*$C$DW$T$75)
    4811                      .dwattr $C$DW$544, DW_AT_name("NMI_INT")
    4812                      .dwattr $C$DW$544, DW_AT_TI_symbol_name("_NMI_INT")
    4813                      .dwattr $C$DW$544, DW_AT_data_member_location[DW_OP_plus_uconst 0x24]
    4814                      .dwattr $C$DW$544, DW_AT_accessibility(DW_ACCESS_public)
    4815              $C$DW$545       .dwtag  DW_TAG_member
    4816                      .dwattr $C$DW$545, DW_AT_type(*$C$DW$T$75)
    4817                      .dwattr $C$DW$545, DW_AT_name("ILLEGAL_INT")
    4818                      .dwattr $C$DW$545, DW_AT_TI_symbol_name("_ILLEGAL_INT")
    4819                      .dwattr $C$DW$545, DW_AT_data_member_location[DW_OP_plus_uconst 0x26]
    4820                      .dwattr $C$DW$545, DW_AT_accessibility(DW_ACCESS_public)
    4821              $C$DW$546       .dwtag  DW_TAG_member
    4822                      .dwattr $C$DW$546, DW_AT_type(*$C$DW$T$75)
    4823                      .dwattr $C$DW$546, DW_AT_name("USER1_INT")
    4824                      .dwattr $C$DW$546, DW_AT_TI_symbol_name("_USER1_INT")
    4825                      .dwattr $C$DW$546, DW_AT_data_member_location[DW_OP_plus_uconst 0x28]
TMS320C2000 Assembler PC v6.4.2 Thu Dec 14 15:26:49 2017

Tools Copyright (c) 1996-2015 Texas Instruments Incorporated
interrupt.asm                                                        PAGE   90

    4826                      .dwattr $C$DW$546, DW_AT_accessibility(DW_ACCESS_public)
    4827              $C$DW$547       .dwtag  DW_TAG_member
    4828                      .dwattr $C$DW$547, DW_AT_type(*$C$DW$T$75)
    4829                      .dwattr $C$DW$547, DW_AT_name("USER2_INT")
    4830                      .dwattr $C$DW$547, DW_AT_TI_symbol_name("_USER2_INT")
    4831                      .dwattr $C$DW$547, DW_AT_data_member_location[DW_OP_plus_uconst 0x2a]
    4832                      .dwattr $C$DW$547, DW_AT_accessibility(DW_ACCESS_public)
    4833              $C$DW$548       .dwtag  DW_TAG_member
    4834                      .dwattr $C$DW$548, DW_AT_type(*$C$DW$T$75)
    4835                      .dwattr $C$DW$548, DW_AT_name("USER3_INT")
    4836                      .dwattr $C$DW$548, DW_AT_TI_symbol_name("_USER3_INT")
    4837                      .dwattr $C$DW$548, DW_AT_data_member_location[DW_OP_plus_uconst 0x2c]
    4838                      .dwattr $C$DW$548, DW_AT_accessibility(DW_ACCESS_public)
    4839              $C$DW$549       .dwtag  DW_TAG_member
    4840                      .dwattr $C$DW$549, DW_AT_type(*$C$DW$T$75)
    4841                      .dwattr $C$DW$549, DW_AT_name("USER4_INT")
    4842                      .dwattr $C$DW$549, DW_AT_TI_symbol_name("_USER4_INT")
    4843                      .dwattr $C$DW$549, DW_AT_data_member_location[DW_OP_plus_uconst 0x2e]
    4844                      .dwattr $C$DW$549, DW_AT_accessibility(DW_ACCESS_public)
    4845              $C$DW$550       .dwtag  DW_TAG_member
    4846                      .dwattr $C$DW$550, DW_AT_type(*$C$DW$T$75)
    4847                      .dwattr $C$DW$550, DW_AT_name("USER5_INT")
    4848                      .dwattr $C$DW$550, DW_AT_TI_symbol_name("_USER5_INT")
    4849                      .dwattr $C$DW$550, DW_AT_data_member_location[DW_OP_plus_uconst 0x30]
    4850                      .dwattr $C$DW$550, DW_AT_accessibility(DW_ACCESS_public)
    4851              $C$DW$551       .dwtag  DW_TAG_member
    4852                      .dwattr $C$DW$551, DW_AT_type(*$C$DW$T$75)
    4853                      .dwattr $C$DW$551, DW_AT_name("USER6_INT")
    4854                      .dwattr $C$DW$551, DW_AT_TI_symbol_name("_USER6_INT")
    4855                      .dwattr $C$DW$551, DW_AT_data_member_location[DW_OP_plus_uconst 0x32]
    4856                      .dwattr $C$DW$551, DW_AT_accessibility(DW_ACCESS_public)
    4857              $C$DW$552       .dwtag  DW_TAG_member
    4858                      .dwattr $C$DW$552, DW_AT_type(*$C$DW$T$75)
    4859                      .dwattr $C$DW$552, DW_AT_name("USER7_INT")
    4860                      .dwattr $C$DW$552, DW_AT_TI_symbol_name("_USER7_INT")
    4861                      .dwattr $C$DW$552, DW_AT_data_member_location[DW_OP_plus_uconst 0x34]
    4862                      .dwattr $C$DW$552, DW_AT_accessibility(DW_ACCESS_public)
    4863              $C$DW$553       .dwtag  DW_TAG_member
    4864                      .dwattr $C$DW$553, DW_AT_type(*$C$DW$T$75)
    4865                      .dwattr $C$DW$553, DW_AT_name("USER8_INT")
    4866                      .dwattr $C$DW$553, DW_AT_TI_symbol_name("_USER8_INT")
    4867                      .dwattr $C$DW$553, DW_AT_data_member_location[DW_OP_plus_uconst 0x36]
    4868                      .dwattr $C$DW$553, DW_AT_accessibility(DW_ACCESS_public)
    4869              $C$DW$554       .dwtag  DW_TAG_member
    4870                      .dwattr $C$DW$554, DW_AT_type(*$C$DW$T$75)
    4871                      .dwattr $C$DW$554, DW_AT_name("USER9_INT")
    4872                      .dwattr $C$DW$554, DW_AT_TI_symbol_name("_USER9_INT")
    4873                      .dwattr $C$DW$554, DW_AT_data_member_location[DW_OP_plus_uconst 0x38]
    4874                      .dwattr $C$DW$554, DW_AT_accessibility(DW_ACCESS_public)
    4875              $C$DW$555       .dwtag  DW_TAG_member
    4876                      .dwattr $C$DW$555, DW_AT_type(*$C$DW$T$75)
    4877                      .dwattr $C$DW$555, DW_AT_name("USER10_INT")
    4878                      .dwattr $C$DW$555, DW_AT_TI_symbol_name("_USER10_INT")
    4879                      .dwattr $C$DW$555, DW_AT_data_member_location[DW_OP_plus_uconst 0x3a]
    4880                      .dwattr $C$DW$555, DW_AT_accessibility(DW_ACCESS_public)
TMS320C2000 Assembler PC v6.4.2 Thu Dec 14 15:26:49 2017

Tools Copyright (c) 1996-2015 Texas Instruments Incorporated
interrupt.asm                                                        PAGE   91

    4881              $C$DW$556       .dwtag  DW_TAG_member
    4882                      .dwattr $C$DW$556, DW_AT_type(*$C$DW$T$75)
    4883                      .dwattr $C$DW$556, DW_AT_name("USER11_INT")
    4884                      .dwattr $C$DW$556, DW_AT_TI_symbol_name("_USER11_INT")
    4885                      .dwattr $C$DW$556, DW_AT_data_member_location[DW_OP_plus_uconst 0x3c]
    4886                      .dwattr $C$DW$556, DW_AT_accessibility(DW_ACCESS_public)
    4887              $C$DW$557       .dwtag  DW_TAG_member
    4888                      .dwattr $C$DW$557, DW_AT_type(*$C$DW$T$75)
    4889                      .dwattr $C$DW$557, DW_AT_name("USER12_INT")
    4890                      .dwattr $C$DW$557, DW_AT_TI_symbol_name("_USER12_INT")
    4891                      .dwattr $C$DW$557, DW_AT_data_member_location[DW_OP_plus_uconst 0x3e]
    4892                      .dwattr $C$DW$557, DW_AT_accessibility(DW_ACCESS_public)
    4893              $C$DW$558       .dwtag  DW_TAG_member
    4894                      .dwattr $C$DW$558, DW_AT_type(*$C$DW$T$75)
    4895                      .dwattr $C$DW$558, DW_AT_name("ADCA1_INT")
    4896                      .dwattr $C$DW$558, DW_AT_TI_symbol_name("_ADCA1_INT")
    4897                      .dwattr $C$DW$558, DW_AT_data_member_location[DW_OP_plus_uconst 0x40]
    4898                      .dwattr $C$DW$558, DW_AT_accessibility(DW_ACCESS_public)
    4899              $C$DW$559       .dwtag  DW_TAG_member
    4900                      .dwattr $C$DW$559, DW_AT_type(*$C$DW$T$75)
    4901                      .dwattr $C$DW$559, DW_AT_name("ADCB1_INT")
    4902                      .dwattr $C$DW$559, DW_AT_TI_symbol_name("_ADCB1_INT")
    4903                      .dwattr $C$DW$559, DW_AT_data_member_location[DW_OP_plus_uconst 0x42]
    4904                      .dwattr $C$DW$559, DW_AT_accessibility(DW_ACCESS_public)
    4905              $C$DW$560       .dwtag  DW_TAG_member
    4906                      .dwattr $C$DW$560, DW_AT_type(*$C$DW$T$75)
    4907                      .dwattr $C$DW$560, DW_AT_name("ADCC1_INT")
    4908                      .dwattr $C$DW$560, DW_AT_TI_symbol_name("_ADCC1_INT")
    4909                      .dwattr $C$DW$560, DW_AT_data_member_location[DW_OP_plus_uconst 0x44]
    4910                      .dwattr $C$DW$560, DW_AT_accessibility(DW_ACCESS_public)
    4911              $C$DW$561       .dwtag  DW_TAG_member
    4912                      .dwattr $C$DW$561, DW_AT_type(*$C$DW$T$75)
    4913                      .dwattr $C$DW$561, DW_AT_name("XINT1_INT")
    4914                      .dwattr $C$DW$561, DW_AT_TI_symbol_name("_XINT1_INT")
    4915                      .dwattr $C$DW$561, DW_AT_data_member_location[DW_OP_plus_uconst 0x46]
    4916                      .dwattr $C$DW$561, DW_AT_accessibility(DW_ACCESS_public)
    4917              $C$DW$562       .dwtag  DW_TAG_member
    4918                      .dwattr $C$DW$562, DW_AT_type(*$C$DW$T$75)
    4919                      .dwattr $C$DW$562, DW_AT_name("XINT2_INT")
    4920                      .dwattr $C$DW$562, DW_AT_TI_symbol_name("_XINT2_INT")
    4921                      .dwattr $C$DW$562, DW_AT_data_member_location[DW_OP_plus_uconst 0x48]
    4922                      .dwattr $C$DW$562, DW_AT_accessibility(DW_ACCESS_public)
    4923              $C$DW$563       .dwtag  DW_TAG_member
    4924                      .dwattr $C$DW$563, DW_AT_type(*$C$DW$T$75)
    4925                      .dwattr $C$DW$563, DW_AT_name("ADCD1_INT")
    4926                      .dwattr $C$DW$563, DW_AT_TI_symbol_name("_ADCD1_INT")
    4927                      .dwattr $C$DW$563, DW_AT_data_member_location[DW_OP_plus_uconst 0x4a]
    4928                      .dwattr $C$DW$563, DW_AT_accessibility(DW_ACCESS_public)
    4929              $C$DW$564       .dwtag  DW_TAG_member
    4930                      .dwattr $C$DW$564, DW_AT_type(*$C$DW$T$75)
    4931                      .dwattr $C$DW$564, DW_AT_name("TIMER0_INT")
    4932                      .dwattr $C$DW$564, DW_AT_TI_symbol_name("_TIMER0_INT")
    4933                      .dwattr $C$DW$564, DW_AT_data_member_location[DW_OP_plus_uconst 0x4c]
    4934                      .dwattr $C$DW$564, DW_AT_accessibility(DW_ACCESS_public)
    4935              $C$DW$565       .dwtag  DW_TAG_member
TMS320C2000 Assembler PC v6.4.2 Thu Dec 14 15:26:49 2017

Tools Copyright (c) 1996-2015 Texas Instruments Incorporated
interrupt.asm                                                        PAGE   92

    4936                      .dwattr $C$DW$565, DW_AT_type(*$C$DW$T$75)
    4937                      .dwattr $C$DW$565, DW_AT_name("WAKE_INT")
    4938                      .dwattr $C$DW$565, DW_AT_TI_symbol_name("_WAKE_INT")
    4939                      .dwattr $C$DW$565, DW_AT_data_member_location[DW_OP_plus_uconst 0x4e]
    4940                      .dwattr $C$DW$565, DW_AT_accessibility(DW_ACCESS_public)
    4941              $C$DW$566       .dwtag  DW_TAG_member
    4942                      .dwattr $C$DW$566, DW_AT_type(*$C$DW$T$75)
    4943                      .dwattr $C$DW$566, DW_AT_name("EPWM1_TZ_INT")
    4944                      .dwattr $C$DW$566, DW_AT_TI_symbol_name("_EPWM1_TZ_INT")
    4945                      .dwattr $C$DW$566, DW_AT_data_member_location[DW_OP_plus_uconst 0x50]
    4946                      .dwattr $C$DW$566, DW_AT_accessibility(DW_ACCESS_public)
    4947              $C$DW$567       .dwtag  DW_TAG_member
    4948                      .dwattr $C$DW$567, DW_AT_type(*$C$DW$T$75)
    4949                      .dwattr $C$DW$567, DW_AT_name("EPWM2_TZ_INT")
    4950                      .dwattr $C$DW$567, DW_AT_TI_symbol_name("_EPWM2_TZ_INT")
    4951                      .dwattr $C$DW$567, DW_AT_data_member_location[DW_OP_plus_uconst 0x52]
    4952                      .dwattr $C$DW$567, DW_AT_accessibility(DW_ACCESS_public)
    4953              $C$DW$568       .dwtag  DW_TAG_member
    4954                      .dwattr $C$DW$568, DW_AT_type(*$C$DW$T$75)
    4955                      .dwattr $C$DW$568, DW_AT_name("EPWM3_TZ_INT")
    4956                      .dwattr $C$DW$568, DW_AT_TI_symbol_name("_EPWM3_TZ_INT")
    4957                      .dwattr $C$DW$568, DW_AT_data_member_location[DW_OP_plus_uconst 0x54]
    4958                      .dwattr $C$DW$568, DW_AT_accessibility(DW_ACCESS_public)
    4959              $C$DW$569       .dwtag  DW_TAG_member
    4960                      .dwattr $C$DW$569, DW_AT_type(*$C$DW$T$75)
    4961                      .dwattr $C$DW$569, DW_AT_name("EPWM4_TZ_INT")
    4962                      .dwattr $C$DW$569, DW_AT_TI_symbol_name("_EPWM4_TZ_INT")
    4963                      .dwattr $C$DW$569, DW_AT_data_member_location[DW_OP_plus_uconst 0x56]
    4964                      .dwattr $C$DW$569, DW_AT_accessibility(DW_ACCESS_public)
    4965              $C$DW$570       .dwtag  DW_TAG_member
    4966                      .dwattr $C$DW$570, DW_AT_type(*$C$DW$T$75)
    4967                      .dwattr $C$DW$570, DW_AT_name("EPWM5_TZ_INT")
    4968                      .dwattr $C$DW$570, DW_AT_TI_symbol_name("_EPWM5_TZ_INT")
    4969                      .dwattr $C$DW$570, DW_AT_data_member_location[DW_OP_plus_uconst 0x58]
    4970                      .dwattr $C$DW$570, DW_AT_accessibility(DW_ACCESS_public)
    4971              $C$DW$571       .dwtag  DW_TAG_member
    4972                      .dwattr $C$DW$571, DW_AT_type(*$C$DW$T$75)
    4973                      .dwattr $C$DW$571, DW_AT_name("EPWM6_TZ_INT")
    4974                      .dwattr $C$DW$571, DW_AT_TI_symbol_name("_EPWM6_TZ_INT")
    4975                      .dwattr $C$DW$571, DW_AT_data_member_location[DW_OP_plus_uconst 0x5a]
    4976                      .dwattr $C$DW$571, DW_AT_accessibility(DW_ACCESS_public)
    4977              $C$DW$572       .dwtag  DW_TAG_member
    4978                      .dwattr $C$DW$572, DW_AT_type(*$C$DW$T$75)
    4979                      .dwattr $C$DW$572, DW_AT_name("EPWM7_TZ_INT")
    4980                      .dwattr $C$DW$572, DW_AT_TI_symbol_name("_EPWM7_TZ_INT")
    4981                      .dwattr $C$DW$572, DW_AT_data_member_location[DW_OP_plus_uconst 0x5c]
    4982                      .dwattr $C$DW$572, DW_AT_accessibility(DW_ACCESS_public)
    4983              $C$DW$573       .dwtag  DW_TAG_member
    4984                      .dwattr $C$DW$573, DW_AT_type(*$C$DW$T$75)
    4985                      .dwattr $C$DW$573, DW_AT_name("EPWM8_TZ_INT")
    4986                      .dwattr $C$DW$573, DW_AT_TI_symbol_name("_EPWM8_TZ_INT")
    4987                      .dwattr $C$DW$573, DW_AT_data_member_location[DW_OP_plus_uconst 0x5e]
    4988                      .dwattr $C$DW$573, DW_AT_accessibility(DW_ACCESS_public)
    4989              $C$DW$574       .dwtag  DW_TAG_member
    4990                      .dwattr $C$DW$574, DW_AT_type(*$C$DW$T$75)
TMS320C2000 Assembler PC v6.4.2 Thu Dec 14 15:26:49 2017

Tools Copyright (c) 1996-2015 Texas Instruments Incorporated
interrupt.asm                                                        PAGE   93

    4991                      .dwattr $C$DW$574, DW_AT_name("EPWM1_INT")
    4992                      .dwattr $C$DW$574, DW_AT_TI_symbol_name("_EPWM1_INT")
    4993                      .dwattr $C$DW$574, DW_AT_data_member_location[DW_OP_plus_uconst 0x60]
    4994                      .dwattr $C$DW$574, DW_AT_accessibility(DW_ACCESS_public)
    4995              $C$DW$575       .dwtag  DW_TAG_member
    4996                      .dwattr $C$DW$575, DW_AT_type(*$C$DW$T$75)
    4997                      .dwattr $C$DW$575, DW_AT_name("EPWM2_INT")
    4998                      .dwattr $C$DW$575, DW_AT_TI_symbol_name("_EPWM2_INT")
    4999                      .dwattr $C$DW$575, DW_AT_data_member_location[DW_OP_plus_uconst 0x62]
    5000                      .dwattr $C$DW$575, DW_AT_accessibility(DW_ACCESS_public)
    5001              $C$DW$576       .dwtag  DW_TAG_member
    5002                      .dwattr $C$DW$576, DW_AT_type(*$C$DW$T$75)
    5003                      .dwattr $C$DW$576, DW_AT_name("EPWM3_INT")
    5004                      .dwattr $C$DW$576, DW_AT_TI_symbol_name("_EPWM3_INT")
    5005                      .dwattr $C$DW$576, DW_AT_data_member_location[DW_OP_plus_uconst 0x64]
    5006                      .dwattr $C$DW$576, DW_AT_accessibility(DW_ACCESS_public)
    5007              $C$DW$577       .dwtag  DW_TAG_member
    5008                      .dwattr $C$DW$577, DW_AT_type(*$C$DW$T$75)
    5009                      .dwattr $C$DW$577, DW_AT_name("EPWM4_INT")
    5010                      .dwattr $C$DW$577, DW_AT_TI_symbol_name("_EPWM4_INT")
    5011                      .dwattr $C$DW$577, DW_AT_data_member_location[DW_OP_plus_uconst 0x66]
    5012                      .dwattr $C$DW$577, DW_AT_accessibility(DW_ACCESS_public)
    5013              $C$DW$578       .dwtag  DW_TAG_member
    5014                      .dwattr $C$DW$578, DW_AT_type(*$C$DW$T$75)
    5015                      .dwattr $C$DW$578, DW_AT_name("EPWM5_INT")
    5016                      .dwattr $C$DW$578, DW_AT_TI_symbol_name("_EPWM5_INT")
    5017                      .dwattr $C$DW$578, DW_AT_data_member_location[DW_OP_plus_uconst 0x68]
    5018                      .dwattr $C$DW$578, DW_AT_accessibility(DW_ACCESS_public)
    5019              $C$DW$579       .dwtag  DW_TAG_member
    5020                      .dwattr $C$DW$579, DW_AT_type(*$C$DW$T$75)
    5021                      .dwattr $C$DW$579, DW_AT_name("EPWM6_INT")
    5022                      .dwattr $C$DW$579, DW_AT_TI_symbol_name("_EPWM6_INT")
    5023                      .dwattr $C$DW$579, DW_AT_data_member_location[DW_OP_plus_uconst 0x6a]
    5024                      .dwattr $C$DW$579, DW_AT_accessibility(DW_ACCESS_public)
    5025              $C$DW$580       .dwtag  DW_TAG_member
    5026                      .dwattr $C$DW$580, DW_AT_type(*$C$DW$T$75)
    5027                      .dwattr $C$DW$580, DW_AT_name("EPWM7_INT")
    5028                      .dwattr $C$DW$580, DW_AT_TI_symbol_name("_EPWM7_INT")
    5029                      .dwattr $C$DW$580, DW_AT_data_member_location[DW_OP_plus_uconst 0x6c]
    5030                      .dwattr $C$DW$580, DW_AT_accessibility(DW_ACCESS_public)
    5031              $C$DW$581       .dwtag  DW_TAG_member
    5032                      .dwattr $C$DW$581, DW_AT_type(*$C$DW$T$75)
    5033                      .dwattr $C$DW$581, DW_AT_name("EPWM8_INT")
    5034                      .dwattr $C$DW$581, DW_AT_TI_symbol_name("_EPWM8_INT")
    5035                      .dwattr $C$DW$581, DW_AT_data_member_location[DW_OP_plus_uconst 0x6e]
    5036                      .dwattr $C$DW$581, DW_AT_accessibility(DW_ACCESS_public)
    5037              $C$DW$582       .dwtag  DW_TAG_member
    5038                      .dwattr $C$DW$582, DW_AT_type(*$C$DW$T$75)
    5039                      .dwattr $C$DW$582, DW_AT_name("ECAP1_INT")
    5040                      .dwattr $C$DW$582, DW_AT_TI_symbol_name("_ECAP1_INT")
    5041                      .dwattr $C$DW$582, DW_AT_data_member_location[DW_OP_plus_uconst 0x70]
    5042                      .dwattr $C$DW$582, DW_AT_accessibility(DW_ACCESS_public)
    5043              $C$DW$583       .dwtag  DW_TAG_member
    5044                      .dwattr $C$DW$583, DW_AT_type(*$C$DW$T$75)
    5045                      .dwattr $C$DW$583, DW_AT_name("ECAP2_INT")
TMS320C2000 Assembler PC v6.4.2 Thu Dec 14 15:26:49 2017

Tools Copyright (c) 1996-2015 Texas Instruments Incorporated
interrupt.asm                                                        PAGE   94

    5046                      .dwattr $C$DW$583, DW_AT_TI_symbol_name("_ECAP2_INT")
    5047                      .dwattr $C$DW$583, DW_AT_data_member_location[DW_OP_plus_uconst 0x72]
    5048                      .dwattr $C$DW$583, DW_AT_accessibility(DW_ACCESS_public)
    5049              $C$DW$584       .dwtag  DW_TAG_member
    5050                      .dwattr $C$DW$584, DW_AT_type(*$C$DW$T$75)
    5051                      .dwattr $C$DW$584, DW_AT_name("ECAP3_INT")
    5052                      .dwattr $C$DW$584, DW_AT_TI_symbol_name("_ECAP3_INT")
    5053                      .dwattr $C$DW$584, DW_AT_data_member_location[DW_OP_plus_uconst 0x74]
    5054                      .dwattr $C$DW$584, DW_AT_accessibility(DW_ACCESS_public)
    5055              $C$DW$585       .dwtag  DW_TAG_member
    5056                      .dwattr $C$DW$585, DW_AT_type(*$C$DW$T$75)
    5057                      .dwattr $C$DW$585, DW_AT_name("ECAP4_INT")
    5058                      .dwattr $C$DW$585, DW_AT_TI_symbol_name("_ECAP4_INT")
    5059                      .dwattr $C$DW$585, DW_AT_data_member_location[DW_OP_plus_uconst 0x76]
    5060                      .dwattr $C$DW$585, DW_AT_accessibility(DW_ACCESS_public)
    5061              $C$DW$586       .dwtag  DW_TAG_member
    5062                      .dwattr $C$DW$586, DW_AT_type(*$C$DW$T$75)
    5063                      .dwattr $C$DW$586, DW_AT_name("ECAP5_INT")
    5064                      .dwattr $C$DW$586, DW_AT_TI_symbol_name("_ECAP5_INT")
    5065                      .dwattr $C$DW$586, DW_AT_data_member_location[DW_OP_plus_uconst 0x78]
    5066                      .dwattr $C$DW$586, DW_AT_accessibility(DW_ACCESS_public)
    5067              $C$DW$587       .dwtag  DW_TAG_member
    5068                      .dwattr $C$DW$587, DW_AT_type(*$C$DW$T$75)
    5069                      .dwattr $C$DW$587, DW_AT_name("ECAP6_INT")
    5070                      .dwattr $C$DW$587, DW_AT_TI_symbol_name("_ECAP6_INT")
    5071                      .dwattr $C$DW$587, DW_AT_data_member_location[DW_OP_plus_uconst 0x7a]
    5072                      .dwattr $C$DW$587, DW_AT_accessibility(DW_ACCESS_public)
    5073              $C$DW$588       .dwtag  DW_TAG_member
    5074                      .dwattr $C$DW$588, DW_AT_type(*$C$DW$T$75)
    5075                      .dwattr $C$DW$588, DW_AT_name("PIE14_RESERVED_INT")
    5076                      .dwattr $C$DW$588, DW_AT_TI_symbol_name("_PIE14_RESERVED_INT")
    5077                      .dwattr $C$DW$588, DW_AT_data_member_location[DW_OP_plus_uconst 0x7c]
    5078                      .dwattr $C$DW$588, DW_AT_accessibility(DW_ACCESS_public)
    5079              $C$DW$589       .dwtag  DW_TAG_member
    5080                      .dwattr $C$DW$589, DW_AT_type(*$C$DW$T$75)
    5081                      .dwattr $C$DW$589, DW_AT_name("PIE15_RESERVED_INT")
    5082                      .dwattr $C$DW$589, DW_AT_TI_symbol_name("_PIE15_RESERVED_INT")
    5083                      .dwattr $C$DW$589, DW_AT_data_member_location[DW_OP_plus_uconst 0x7e]
    5084                      .dwattr $C$DW$589, DW_AT_accessibility(DW_ACCESS_public)
    5085              $C$DW$590       .dwtag  DW_TAG_member
    5086                      .dwattr $C$DW$590, DW_AT_type(*$C$DW$T$75)
    5087                      .dwattr $C$DW$590, DW_AT_name("EQEP1_INT")
    5088                      .dwattr $C$DW$590, DW_AT_TI_symbol_name("_EQEP1_INT")
    5089                      .dwattr $C$DW$590, DW_AT_data_member_location[DW_OP_plus_uconst 0x80]
    5090                      .dwattr $C$DW$590, DW_AT_accessibility(DW_ACCESS_public)
    5091              $C$DW$591       .dwtag  DW_TAG_member
    5092                      .dwattr $C$DW$591, DW_AT_type(*$C$DW$T$75)
    5093                      .dwattr $C$DW$591, DW_AT_name("EQEP2_INT")
    5094                      .dwattr $C$DW$591, DW_AT_TI_symbol_name("_EQEP2_INT")
    5095                      .dwattr $C$DW$591, DW_AT_data_member_location[DW_OP_plus_uconst 0x82]
    5096                      .dwattr $C$DW$591, DW_AT_accessibility(DW_ACCESS_public)
    5097              $C$DW$592       .dwtag  DW_TAG_member
    5098                      .dwattr $C$DW$592, DW_AT_type(*$C$DW$T$75)
    5099                      .dwattr $C$DW$592, DW_AT_name("EQEP3_INT")
    5100                      .dwattr $C$DW$592, DW_AT_TI_symbol_name("_EQEP3_INT")
TMS320C2000 Assembler PC v6.4.2 Thu Dec 14 15:26:49 2017

Tools Copyright (c) 1996-2015 Texas Instruments Incorporated
interrupt.asm                                                        PAGE   95

    5101                      .dwattr $C$DW$592, DW_AT_data_member_location[DW_OP_plus_uconst 0x84]
    5102                      .dwattr $C$DW$592, DW_AT_accessibility(DW_ACCESS_public)
    5103              $C$DW$593       .dwtag  DW_TAG_member
    5104                      .dwattr $C$DW$593, DW_AT_type(*$C$DW$T$75)
    5105                      .dwattr $C$DW$593, DW_AT_name("PIE16_RESERVED_INT")
    5106                      .dwattr $C$DW$593, DW_AT_TI_symbol_name("_PIE16_RESERVED_INT")
    5107                      .dwattr $C$DW$593, DW_AT_data_member_location[DW_OP_plus_uconst 0x86]
    5108                      .dwattr $C$DW$593, DW_AT_accessibility(DW_ACCESS_public)
    5109              $C$DW$594       .dwtag  DW_TAG_member
    5110                      .dwattr $C$DW$594, DW_AT_type(*$C$DW$T$75)
    5111                      .dwattr $C$DW$594, DW_AT_name("PIE17_RESERVED_INT")
    5112                      .dwattr $C$DW$594, DW_AT_TI_symbol_name("_PIE17_RESERVED_INT")
    5113                      .dwattr $C$DW$594, DW_AT_data_member_location[DW_OP_plus_uconst 0x88]
    5114                      .dwattr $C$DW$594, DW_AT_accessibility(DW_ACCESS_public)
    5115              $C$DW$595       .dwtag  DW_TAG_member
    5116                      .dwattr $C$DW$595, DW_AT_type(*$C$DW$T$75)
    5117                      .dwattr $C$DW$595, DW_AT_name("PIE18_RESERVED_INT")
    5118                      .dwattr $C$DW$595, DW_AT_TI_symbol_name("_PIE18_RESERVED_INT")
    5119                      .dwattr $C$DW$595, DW_AT_data_member_location[DW_OP_plus_uconst 0x8a]
    5120                      .dwattr $C$DW$595, DW_AT_accessibility(DW_ACCESS_public)
    5121              $C$DW$596       .dwtag  DW_TAG_member
    5122                      .dwattr $C$DW$596, DW_AT_type(*$C$DW$T$75)
    5123                      .dwattr $C$DW$596, DW_AT_name("PIE19_RESERVED_INT")
    5124                      .dwattr $C$DW$596, DW_AT_TI_symbol_name("_PIE19_RESERVED_INT")
    5125                      .dwattr $C$DW$596, DW_AT_data_member_location[DW_OP_plus_uconst 0x8c]
    5126                      .dwattr $C$DW$596, DW_AT_accessibility(DW_ACCESS_public)
    5127              $C$DW$597       .dwtag  DW_TAG_member
    5128                      .dwattr $C$DW$597, DW_AT_type(*$C$DW$T$75)
    5129                      .dwattr $C$DW$597, DW_AT_name("PIE20_RESERVED_INT")
    5130                      .dwattr $C$DW$597, DW_AT_TI_symbol_name("_PIE20_RESERVED_INT")
    5131                      .dwattr $C$DW$597, DW_AT_data_member_location[DW_OP_plus_uconst 0x8e]
    5132                      .dwattr $C$DW$597, DW_AT_accessibility(DW_ACCESS_public)
    5133              $C$DW$598       .dwtag  DW_TAG_member
    5134                      .dwattr $C$DW$598, DW_AT_type(*$C$DW$T$75)
    5135                      .dwattr $C$DW$598, DW_AT_name("SPIA_RX_INT")
    5136                      .dwattr $C$DW$598, DW_AT_TI_symbol_name("_SPIA_RX_INT")
    5137                      .dwattr $C$DW$598, DW_AT_data_member_location[DW_OP_plus_uconst 0x90]
    5138                      .dwattr $C$DW$598, DW_AT_accessibility(DW_ACCESS_public)
    5139              $C$DW$599       .dwtag  DW_TAG_member
    5140                      .dwattr $C$DW$599, DW_AT_type(*$C$DW$T$75)
    5141                      .dwattr $C$DW$599, DW_AT_name("SPIA_TX_INT")
    5142                      .dwattr $C$DW$599, DW_AT_TI_symbol_name("_SPIA_TX_INT")
    5143                      .dwattr $C$DW$599, DW_AT_data_member_location[DW_OP_plus_uconst 0x92]
    5144                      .dwattr $C$DW$599, DW_AT_accessibility(DW_ACCESS_public)
    5145              $C$DW$600       .dwtag  DW_TAG_member
    5146                      .dwattr $C$DW$600, DW_AT_type(*$C$DW$T$75)
    5147                      .dwattr $C$DW$600, DW_AT_name("SPIB_RX_INT")
    5148                      .dwattr $C$DW$600, DW_AT_TI_symbol_name("_SPIB_RX_INT")
    5149                      .dwattr $C$DW$600, DW_AT_data_member_location[DW_OP_plus_uconst 0x94]
    5150                      .dwattr $C$DW$600, DW_AT_accessibility(DW_ACCESS_public)
    5151              $C$DW$601       .dwtag  DW_TAG_member
    5152                      .dwattr $C$DW$601, DW_AT_type(*$C$DW$T$75)
    5153                      .dwattr $C$DW$601, DW_AT_name("SPIB_TX_INT")
    5154                      .dwattr $C$DW$601, DW_AT_TI_symbol_name("_SPIB_TX_INT")
    5155                      .dwattr $C$DW$601, DW_AT_data_member_location[DW_OP_plus_uconst 0x96]
TMS320C2000 Assembler PC v6.4.2 Thu Dec 14 15:26:49 2017

Tools Copyright (c) 1996-2015 Texas Instruments Incorporated
interrupt.asm                                                        PAGE   96

    5156                      .dwattr $C$DW$601, DW_AT_accessibility(DW_ACCESS_public)
    5157              $C$DW$602       .dwtag  DW_TAG_member
    5158                      .dwattr $C$DW$602, DW_AT_type(*$C$DW$T$75)
    5159                      .dwattr $C$DW$602, DW_AT_name("MCBSPA_RX_INT")
    5160                      .dwattr $C$DW$602, DW_AT_TI_symbol_name("_MCBSPA_RX_INT")
    5161                      .dwattr $C$DW$602, DW_AT_data_member_location[DW_OP_plus_uconst 0x98]
    5162                      .dwattr $C$DW$602, DW_AT_accessibility(DW_ACCESS_public)
    5163              $C$DW$603       .dwtag  DW_TAG_member
    5164                      .dwattr $C$DW$603, DW_AT_type(*$C$DW$T$75)
    5165                      .dwattr $C$DW$603, DW_AT_name("MCBSPA_TX_INT")
    5166                      .dwattr $C$DW$603, DW_AT_TI_symbol_name("_MCBSPA_TX_INT")
    5167                      .dwattr $C$DW$603, DW_AT_data_member_location[DW_OP_plus_uconst 0x9a]
    5168                      .dwattr $C$DW$603, DW_AT_accessibility(DW_ACCESS_public)
    5169              $C$DW$604       .dwtag  DW_TAG_member
    5170                      .dwattr $C$DW$604, DW_AT_type(*$C$DW$T$75)
    5171                      .dwattr $C$DW$604, DW_AT_name("MCBSPB_RX_INT")
    5172                      .dwattr $C$DW$604, DW_AT_TI_symbol_name("_MCBSPB_RX_INT")
    5173                      .dwattr $C$DW$604, DW_AT_data_member_location[DW_OP_plus_uconst 0x9c]
    5174                      .dwattr $C$DW$604, DW_AT_accessibility(DW_ACCESS_public)
    5175              $C$DW$605       .dwtag  DW_TAG_member
    5176                      .dwattr $C$DW$605, DW_AT_type(*$C$DW$T$75)
    5177                      .dwattr $C$DW$605, DW_AT_name("MCBSPB_TX_INT")
    5178                      .dwattr $C$DW$605, DW_AT_TI_symbol_name("_MCBSPB_TX_INT")
    5179                      .dwattr $C$DW$605, DW_AT_data_member_location[DW_OP_plus_uconst 0x9e]
    5180                      .dwattr $C$DW$605, DW_AT_accessibility(DW_ACCESS_public)
    5181              $C$DW$606       .dwtag  DW_TAG_member
    5182                      .dwattr $C$DW$606, DW_AT_type(*$C$DW$T$75)
    5183                      .dwattr $C$DW$606, DW_AT_name("DMA_CH1_INT")
    5184                      .dwattr $C$DW$606, DW_AT_TI_symbol_name("_DMA_CH1_INT")
    5185                      .dwattr $C$DW$606, DW_AT_data_member_location[DW_OP_plus_uconst 0xa0]
    5186                      .dwattr $C$DW$606, DW_AT_accessibility(DW_ACCESS_public)
    5187              $C$DW$607       .dwtag  DW_TAG_member
    5188                      .dwattr $C$DW$607, DW_AT_type(*$C$DW$T$75)
    5189                      .dwattr $C$DW$607, DW_AT_name("DMA_CH2_INT")
    5190                      .dwattr $C$DW$607, DW_AT_TI_symbol_name("_DMA_CH2_INT")
    5191                      .dwattr $C$DW$607, DW_AT_data_member_location[DW_OP_plus_uconst 0xa2]
    5192                      .dwattr $C$DW$607, DW_AT_accessibility(DW_ACCESS_public)
    5193              $C$DW$608       .dwtag  DW_TAG_member
    5194                      .dwattr $C$DW$608, DW_AT_type(*$C$DW$T$75)
    5195                      .dwattr $C$DW$608, DW_AT_name("DMA_CH3_INT")
    5196                      .dwattr $C$DW$608, DW_AT_TI_symbol_name("_DMA_CH3_INT")
    5197                      .dwattr $C$DW$608, DW_AT_data_member_location[DW_OP_plus_uconst 0xa4]
    5198                      .dwattr $C$DW$608, DW_AT_accessibility(DW_ACCESS_public)
    5199              $C$DW$609       .dwtag  DW_TAG_member
    5200                      .dwattr $C$DW$609, DW_AT_type(*$C$DW$T$75)
    5201                      .dwattr $C$DW$609, DW_AT_name("DMA_CH4_INT")
    5202                      .dwattr $C$DW$609, DW_AT_TI_symbol_name("_DMA_CH4_INT")
    5203                      .dwattr $C$DW$609, DW_AT_data_member_location[DW_OP_plus_uconst 0xa6]
    5204                      .dwattr $C$DW$609, DW_AT_accessibility(DW_ACCESS_public)
    5205              $C$DW$610       .dwtag  DW_TAG_member
    5206                      .dwattr $C$DW$610, DW_AT_type(*$C$DW$T$75)
    5207                      .dwattr $C$DW$610, DW_AT_name("DMA_CH5_INT")
    5208                      .dwattr $C$DW$610, DW_AT_TI_symbol_name("_DMA_CH5_INT")
    5209                      .dwattr $C$DW$610, DW_AT_data_member_location[DW_OP_plus_uconst 0xa8]
    5210                      .dwattr $C$DW$610, DW_AT_accessibility(DW_ACCESS_public)
TMS320C2000 Assembler PC v6.4.2 Thu Dec 14 15:26:49 2017

Tools Copyright (c) 1996-2015 Texas Instruments Incorporated
interrupt.asm                                                        PAGE   97

    5211              $C$DW$611       .dwtag  DW_TAG_member
    5212                      .dwattr $C$DW$611, DW_AT_type(*$C$DW$T$75)
    5213                      .dwattr $C$DW$611, DW_AT_name("DMA_CH6_INT")
    5214                      .dwattr $C$DW$611, DW_AT_TI_symbol_name("_DMA_CH6_INT")
    5215                      .dwattr $C$DW$611, DW_AT_data_member_location[DW_OP_plus_uconst 0xaa]
    5216                      .dwattr $C$DW$611, DW_AT_accessibility(DW_ACCESS_public)
    5217              $C$DW$612       .dwtag  DW_TAG_member
    5218                      .dwattr $C$DW$612, DW_AT_type(*$C$DW$T$75)
    5219                      .dwattr $C$DW$612, DW_AT_name("PIE21_RESERVED_INT")
    5220                      .dwattr $C$DW$612, DW_AT_TI_symbol_name("_PIE21_RESERVED_INT")
    5221                      .dwattr $C$DW$612, DW_AT_data_member_location[DW_OP_plus_uconst 0xac]
    5222                      .dwattr $C$DW$612, DW_AT_accessibility(DW_ACCESS_public)
    5223              $C$DW$613       .dwtag  DW_TAG_member
    5224                      .dwattr $C$DW$613, DW_AT_type(*$C$DW$T$75)
    5225                      .dwattr $C$DW$613, DW_AT_name("PIE22_RESERVED_INT")
    5226                      .dwattr $C$DW$613, DW_AT_TI_symbol_name("_PIE22_RESERVED_INT")
    5227                      .dwattr $C$DW$613, DW_AT_data_member_location[DW_OP_plus_uconst 0xae]
    5228                      .dwattr $C$DW$613, DW_AT_accessibility(DW_ACCESS_public)
    5229              $C$DW$614       .dwtag  DW_TAG_member
    5230                      .dwattr $C$DW$614, DW_AT_type(*$C$DW$T$75)
    5231                      .dwattr $C$DW$614, DW_AT_name("I2CA_INT")
    5232                      .dwattr $C$DW$614, DW_AT_TI_symbol_name("_I2CA_INT")
    5233                      .dwattr $C$DW$614, DW_AT_data_member_location[DW_OP_plus_uconst 0xb0]
    5234                      .dwattr $C$DW$614, DW_AT_accessibility(DW_ACCESS_public)
    5235              $C$DW$615       .dwtag  DW_TAG_member
    5236                      .dwattr $C$DW$615, DW_AT_type(*$C$DW$T$75)
    5237                      .dwattr $C$DW$615, DW_AT_name("I2CA_FIFO_INT")
    5238                      .dwattr $C$DW$615, DW_AT_TI_symbol_name("_I2CA_FIFO_INT")
    5239                      .dwattr $C$DW$615, DW_AT_data_member_location[DW_OP_plus_uconst 0xb2]
    5240                      .dwattr $C$DW$615, DW_AT_accessibility(DW_ACCESS_public)
    5241              $C$DW$616       .dwtag  DW_TAG_member
    5242                      .dwattr $C$DW$616, DW_AT_type(*$C$DW$T$75)
    5243                      .dwattr $C$DW$616, DW_AT_name("I2CB_INT")
    5244                      .dwattr $C$DW$616, DW_AT_TI_symbol_name("_I2CB_INT")
    5245                      .dwattr $C$DW$616, DW_AT_data_member_location[DW_OP_plus_uconst 0xb4]
    5246                      .dwattr $C$DW$616, DW_AT_accessibility(DW_ACCESS_public)
    5247              $C$DW$617       .dwtag  DW_TAG_member
    5248                      .dwattr $C$DW$617, DW_AT_type(*$C$DW$T$75)
    5249                      .dwattr $C$DW$617, DW_AT_name("I2CB_FIFO_INT")
    5250                      .dwattr $C$DW$617, DW_AT_TI_symbol_name("_I2CB_FIFO_INT")
    5251                      .dwattr $C$DW$617, DW_AT_data_member_location[DW_OP_plus_uconst 0xb6]
    5252                      .dwattr $C$DW$617, DW_AT_accessibility(DW_ACCESS_public)
    5253              $C$DW$618       .dwtag  DW_TAG_member
    5254                      .dwattr $C$DW$618, DW_AT_type(*$C$DW$T$75)
    5255                      .dwattr $C$DW$618, DW_AT_name("SCIC_RX_INT")
    5256                      .dwattr $C$DW$618, DW_AT_TI_symbol_name("_SCIC_RX_INT")
    5257                      .dwattr $C$DW$618, DW_AT_data_member_location[DW_OP_plus_uconst 0xb8]
    5258                      .dwattr $C$DW$618, DW_AT_accessibility(DW_ACCESS_public)
    5259              $C$DW$619       .dwtag  DW_TAG_member
    5260                      .dwattr $C$DW$619, DW_AT_type(*$C$DW$T$75)
    5261                      .dwattr $C$DW$619, DW_AT_name("SCIC_TX_INT")
    5262                      .dwattr $C$DW$619, DW_AT_TI_symbol_name("_SCIC_TX_INT")
    5263                      .dwattr $C$DW$619, DW_AT_data_member_location[DW_OP_plus_uconst 0xba]
    5264                      .dwattr $C$DW$619, DW_AT_accessibility(DW_ACCESS_public)
    5265              $C$DW$620       .dwtag  DW_TAG_member
TMS320C2000 Assembler PC v6.4.2 Thu Dec 14 15:26:49 2017

Tools Copyright (c) 1996-2015 Texas Instruments Incorporated
interrupt.asm                                                        PAGE   98

    5266                      .dwattr $C$DW$620, DW_AT_type(*$C$DW$T$75)
    5267                      .dwattr $C$DW$620, DW_AT_name("SCID_RX_INT")
    5268                      .dwattr $C$DW$620, DW_AT_TI_symbol_name("_SCID_RX_INT")
    5269                      .dwattr $C$DW$620, DW_AT_data_member_location[DW_OP_plus_uconst 0xbc]
    5270                      .dwattr $C$DW$620, DW_AT_accessibility(DW_ACCESS_public)
    5271              $C$DW$621       .dwtag  DW_TAG_member
    5272                      .dwattr $C$DW$621, DW_AT_type(*$C$DW$T$75)
    5273                      .dwattr $C$DW$621, DW_AT_name("SCID_TX_INT")
    5274                      .dwattr $C$DW$621, DW_AT_TI_symbol_name("_SCID_TX_INT")
    5275                      .dwattr $C$DW$621, DW_AT_data_member_location[DW_OP_plus_uconst 0xbe]
    5276                      .dwattr $C$DW$621, DW_AT_accessibility(DW_ACCESS_public)
    5277              $C$DW$622       .dwtag  DW_TAG_member
    5278                      .dwattr $C$DW$622, DW_AT_type(*$C$DW$T$75)
    5279                      .dwattr $C$DW$622, DW_AT_name("SCIA_RX_INT")
    5280                      .dwattr $C$DW$622, DW_AT_TI_symbol_name("_SCIA_RX_INT")
    5281                      .dwattr $C$DW$622, DW_AT_data_member_location[DW_OP_plus_uconst 0xc0]
    5282                      .dwattr $C$DW$622, DW_AT_accessibility(DW_ACCESS_public)
    5283              $C$DW$623       .dwtag  DW_TAG_member
    5284                      .dwattr $C$DW$623, DW_AT_type(*$C$DW$T$75)
    5285                      .dwattr $C$DW$623, DW_AT_name("SCIA_TX_INT")
    5286                      .dwattr $C$DW$623, DW_AT_TI_symbol_name("_SCIA_TX_INT")
    5287                      .dwattr $C$DW$623, DW_AT_data_member_location[DW_OP_plus_uconst 0xc2]
    5288                      .dwattr $C$DW$623, DW_AT_accessibility(DW_ACCESS_public)
    5289              $C$DW$624       .dwtag  DW_TAG_member
    5290                      .dwattr $C$DW$624, DW_AT_type(*$C$DW$T$75)
    5291                      .dwattr $C$DW$624, DW_AT_name("SCIB_RX_INT")
    5292                      .dwattr $C$DW$624, DW_AT_TI_symbol_name("_SCIB_RX_INT")
    5293                      .dwattr $C$DW$624, DW_AT_data_member_location[DW_OP_plus_uconst 0xc4]
    5294                      .dwattr $C$DW$624, DW_AT_accessibility(DW_ACCESS_public)
    5295              $C$DW$625       .dwtag  DW_TAG_member
    5296                      .dwattr $C$DW$625, DW_AT_type(*$C$DW$T$75)
    5297                      .dwattr $C$DW$625, DW_AT_name("SCIB_TX_INT")
    5298                      .dwattr $C$DW$625, DW_AT_TI_symbol_name("_SCIB_TX_INT")
    5299                      .dwattr $C$DW$625, DW_AT_data_member_location[DW_OP_plus_uconst 0xc6]
    5300                      .dwattr $C$DW$625, DW_AT_accessibility(DW_ACCESS_public)
    5301              $C$DW$626       .dwtag  DW_TAG_member
    5302                      .dwattr $C$DW$626, DW_AT_type(*$C$DW$T$75)
    5303                      .dwattr $C$DW$626, DW_AT_name("CANA0_INT")
    5304                      .dwattr $C$DW$626, DW_AT_TI_symbol_name("_CANA0_INT")
    5305                      .dwattr $C$DW$626, DW_AT_data_member_location[DW_OP_plus_uconst 0xc8]
    5306                      .dwattr $C$DW$626, DW_AT_accessibility(DW_ACCESS_public)
    5307              $C$DW$627       .dwtag  DW_TAG_member
    5308                      .dwattr $C$DW$627, DW_AT_type(*$C$DW$T$75)
    5309                      .dwattr $C$DW$627, DW_AT_name("CANA1_INT")
    5310                      .dwattr $C$DW$627, DW_AT_TI_symbol_name("_CANA1_INT")
    5311                      .dwattr $C$DW$627, DW_AT_data_member_location[DW_OP_plus_uconst 0xca]
    5312                      .dwattr $C$DW$627, DW_AT_accessibility(DW_ACCESS_public)
    5313              $C$DW$628       .dwtag  DW_TAG_member
    5314                      .dwattr $C$DW$628, DW_AT_type(*$C$DW$T$75)
    5315                      .dwattr $C$DW$628, DW_AT_name("CANB0_INT")
    5316                      .dwattr $C$DW$628, DW_AT_TI_symbol_name("_CANB0_INT")
    5317                      .dwattr $C$DW$628, DW_AT_data_member_location[DW_OP_plus_uconst 0xcc]
    5318                      .dwattr $C$DW$628, DW_AT_accessibility(DW_ACCESS_public)
    5319              $C$DW$629       .dwtag  DW_TAG_member
    5320                      .dwattr $C$DW$629, DW_AT_type(*$C$DW$T$75)
TMS320C2000 Assembler PC v6.4.2 Thu Dec 14 15:26:49 2017

Tools Copyright (c) 1996-2015 Texas Instruments Incorporated
interrupt.asm                                                        PAGE   99

    5321                      .dwattr $C$DW$629, DW_AT_name("CANB1_INT")
    5322                      .dwattr $C$DW$629, DW_AT_TI_symbol_name("_CANB1_INT")
    5323                      .dwattr $C$DW$629, DW_AT_data_member_location[DW_OP_plus_uconst 0xce]
    5324                      .dwattr $C$DW$629, DW_AT_accessibility(DW_ACCESS_public)
    5325              $C$DW$630       .dwtag  DW_TAG_member
    5326                      .dwattr $C$DW$630, DW_AT_type(*$C$DW$T$75)
    5327                      .dwattr $C$DW$630, DW_AT_name("ADCA_EVT_INT")
    5328                      .dwattr $C$DW$630, DW_AT_TI_symbol_name("_ADCA_EVT_INT")
    5329                      .dwattr $C$DW$630, DW_AT_data_member_location[DW_OP_plus_uconst 0xd0]
    5330                      .dwattr $C$DW$630, DW_AT_accessibility(DW_ACCESS_public)
    5331              $C$DW$631       .dwtag  DW_TAG_member
    5332                      .dwattr $C$DW$631, DW_AT_type(*$C$DW$T$75)
    5333                      .dwattr $C$DW$631, DW_AT_name("ADCA2_INT")
    5334                      .dwattr $C$DW$631, DW_AT_TI_symbol_name("_ADCA2_INT")
    5335                      .dwattr $C$DW$631, DW_AT_data_member_location[DW_OP_plus_uconst 0xd2]
    5336                      .dwattr $C$DW$631, DW_AT_accessibility(DW_ACCESS_public)
    5337              $C$DW$632       .dwtag  DW_TAG_member
    5338                      .dwattr $C$DW$632, DW_AT_type(*$C$DW$T$75)
    5339                      .dwattr $C$DW$632, DW_AT_name("ADCA3_INT")
    5340                      .dwattr $C$DW$632, DW_AT_TI_symbol_name("_ADCA3_INT")
    5341                      .dwattr $C$DW$632, DW_AT_data_member_location[DW_OP_plus_uconst 0xd4]
    5342                      .dwattr $C$DW$632, DW_AT_accessibility(DW_ACCESS_public)
    5343              $C$DW$633       .dwtag  DW_TAG_member
    5344                      .dwattr $C$DW$633, DW_AT_type(*$C$DW$T$75)
    5345                      .dwattr $C$DW$633, DW_AT_name("ADCA4_INT")
    5346                      .dwattr $C$DW$633, DW_AT_TI_symbol_name("_ADCA4_INT")
    5347                      .dwattr $C$DW$633, DW_AT_data_member_location[DW_OP_plus_uconst 0xd6]
    5348                      .dwattr $C$DW$633, DW_AT_accessibility(DW_ACCESS_public)
    5349              $C$DW$634       .dwtag  DW_TAG_member
    5350                      .dwattr $C$DW$634, DW_AT_type(*$C$DW$T$75)
    5351                      .dwattr $C$DW$634, DW_AT_name("ADCB_EVT_INT")
    5352                      .dwattr $C$DW$634, DW_AT_TI_symbol_name("_ADCB_EVT_INT")
    5353                      .dwattr $C$DW$634, DW_AT_data_member_location[DW_OP_plus_uconst 0xd8]
    5354                      .dwattr $C$DW$634, DW_AT_accessibility(DW_ACCESS_public)
    5355              $C$DW$635       .dwtag  DW_TAG_member
    5356                      .dwattr $C$DW$635, DW_AT_type(*$C$DW$T$75)
    5357                      .dwattr $C$DW$635, DW_AT_name("ADCB2_INT")
    5358                      .dwattr $C$DW$635, DW_AT_TI_symbol_name("_ADCB2_INT")
    5359                      .dwattr $C$DW$635, DW_AT_data_member_location[DW_OP_plus_uconst 0xda]
    5360                      .dwattr $C$DW$635, DW_AT_accessibility(DW_ACCESS_public)
    5361              $C$DW$636       .dwtag  DW_TAG_member
    5362                      .dwattr $C$DW$636, DW_AT_type(*$C$DW$T$75)
    5363                      .dwattr $C$DW$636, DW_AT_name("ADCB3_INT")
    5364                      .dwattr $C$DW$636, DW_AT_TI_symbol_name("_ADCB3_INT")
    5365                      .dwattr $C$DW$636, DW_AT_data_member_location[DW_OP_plus_uconst 0xdc]
    5366                      .dwattr $C$DW$636, DW_AT_accessibility(DW_ACCESS_public)
    5367              $C$DW$637       .dwtag  DW_TAG_member
    5368                      .dwattr $C$DW$637, DW_AT_type(*$C$DW$T$75)
    5369                      .dwattr $C$DW$637, DW_AT_name("ADCB4_INT")
    5370                      .dwattr $C$DW$637, DW_AT_TI_symbol_name("_ADCB4_INT")
    5371                      .dwattr $C$DW$637, DW_AT_data_member_location[DW_OP_plus_uconst 0xde]
    5372                      .dwattr $C$DW$637, DW_AT_accessibility(DW_ACCESS_public)
    5373              $C$DW$638       .dwtag  DW_TAG_member
    5374                      .dwattr $C$DW$638, DW_AT_type(*$C$DW$T$75)
    5375                      .dwattr $C$DW$638, DW_AT_name("CLA1_1_INT")
TMS320C2000 Assembler PC v6.4.2 Thu Dec 14 15:26:49 2017

Tools Copyright (c) 1996-2015 Texas Instruments Incorporated
interrupt.asm                                                        PAGE  100

    5376                      .dwattr $C$DW$638, DW_AT_TI_symbol_name("_CLA1_1_INT")
    5377                      .dwattr $C$DW$638, DW_AT_data_member_location[DW_OP_plus_uconst 0xe0]
    5378                      .dwattr $C$DW$638, DW_AT_accessibility(DW_ACCESS_public)
    5379              $C$DW$639       .dwtag  DW_TAG_member
    5380                      .dwattr $C$DW$639, DW_AT_type(*$C$DW$T$75)
    5381                      .dwattr $C$DW$639, DW_AT_name("CLA1_2_INT")
    5382                      .dwattr $C$DW$639, DW_AT_TI_symbol_name("_CLA1_2_INT")
    5383                      .dwattr $C$DW$639, DW_AT_data_member_location[DW_OP_plus_uconst 0xe2]
    5384                      .dwattr $C$DW$639, DW_AT_accessibility(DW_ACCESS_public)
    5385              $C$DW$640       .dwtag  DW_TAG_member
    5386                      .dwattr $C$DW$640, DW_AT_type(*$C$DW$T$75)
    5387                      .dwattr $C$DW$640, DW_AT_name("CLA1_3_INT")
    5388                      .dwattr $C$DW$640, DW_AT_TI_symbol_name("_CLA1_3_INT")
    5389                      .dwattr $C$DW$640, DW_AT_data_member_location[DW_OP_plus_uconst 0xe4]
    5390                      .dwattr $C$DW$640, DW_AT_accessibility(DW_ACCESS_public)
    5391              $C$DW$641       .dwtag  DW_TAG_member
    5392                      .dwattr $C$DW$641, DW_AT_type(*$C$DW$T$75)
    5393                      .dwattr $C$DW$641, DW_AT_name("CLA1_4_INT")
    5394                      .dwattr $C$DW$641, DW_AT_TI_symbol_name("_CLA1_4_INT")
    5395                      .dwattr $C$DW$641, DW_AT_data_member_location[DW_OP_plus_uconst 0xe6]
    5396                      .dwattr $C$DW$641, DW_AT_accessibility(DW_ACCESS_public)
    5397              $C$DW$642       .dwtag  DW_TAG_member
    5398                      .dwattr $C$DW$642, DW_AT_type(*$C$DW$T$75)
    5399                      .dwattr $C$DW$642, DW_AT_name("CLA1_5_INT")
    5400                      .dwattr $C$DW$642, DW_AT_TI_symbol_name("_CLA1_5_INT")
    5401                      .dwattr $C$DW$642, DW_AT_data_member_location[DW_OP_plus_uconst 0xe8]
    5402                      .dwattr $C$DW$642, DW_AT_accessibility(DW_ACCESS_public)
    5403              $C$DW$643       .dwtag  DW_TAG_member
    5404                      .dwattr $C$DW$643, DW_AT_type(*$C$DW$T$75)
    5405                      .dwattr $C$DW$643, DW_AT_name("CLA1_6_INT")
    5406                      .dwattr $C$DW$643, DW_AT_TI_symbol_name("_CLA1_6_INT")
    5407                      .dwattr $C$DW$643, DW_AT_data_member_location[DW_OP_plus_uconst 0xea]
    5408                      .dwattr $C$DW$643, DW_AT_accessibility(DW_ACCESS_public)
    5409              $C$DW$644       .dwtag  DW_TAG_member
    5410                      .dwattr $C$DW$644, DW_AT_type(*$C$DW$T$75)
    5411                      .dwattr $C$DW$644, DW_AT_name("CLA1_7_INT")
    5412                      .dwattr $C$DW$644, DW_AT_TI_symbol_name("_CLA1_7_INT")
    5413                      .dwattr $C$DW$644, DW_AT_data_member_location[DW_OP_plus_uconst 0xec]
    5414                      .dwattr $C$DW$644, DW_AT_accessibility(DW_ACCESS_public)
    5415              $C$DW$645       .dwtag  DW_TAG_member
    5416                      .dwattr $C$DW$645, DW_AT_type(*$C$DW$T$75)
    5417                      .dwattr $C$DW$645, DW_AT_name("CLA1_8_INT")
    5418                      .dwattr $C$DW$645, DW_AT_TI_symbol_name("_CLA1_8_INT")
    5419                      .dwattr $C$DW$645, DW_AT_data_member_location[DW_OP_plus_uconst 0xee]
    5420                      .dwattr $C$DW$645, DW_AT_accessibility(DW_ACCESS_public)
    5421              $C$DW$646       .dwtag  DW_TAG_member
    5422                      .dwattr $C$DW$646, DW_AT_type(*$C$DW$T$75)
    5423                      .dwattr $C$DW$646, DW_AT_name("XINT3_INT")
    5424                      .dwattr $C$DW$646, DW_AT_TI_symbol_name("_XINT3_INT")
    5425                      .dwattr $C$DW$646, DW_AT_data_member_location[DW_OP_plus_uconst 0xf0]
    5426                      .dwattr $C$DW$646, DW_AT_accessibility(DW_ACCESS_public)
    5427              $C$DW$647       .dwtag  DW_TAG_member
    5428                      .dwattr $C$DW$647, DW_AT_type(*$C$DW$T$75)
    5429                      .dwattr $C$DW$647, DW_AT_name("XINT4_INT")
    5430                      .dwattr $C$DW$647, DW_AT_TI_symbol_name("_XINT4_INT")
TMS320C2000 Assembler PC v6.4.2 Thu Dec 14 15:26:49 2017

Tools Copyright (c) 1996-2015 Texas Instruments Incorporated
interrupt.asm                                                        PAGE  101

    5431                      .dwattr $C$DW$647, DW_AT_data_member_location[DW_OP_plus_uconst 0xf2]
    5432                      .dwattr $C$DW$647, DW_AT_accessibility(DW_ACCESS_public)
    5433              $C$DW$648       .dwtag  DW_TAG_member
    5434                      .dwattr $C$DW$648, DW_AT_type(*$C$DW$T$75)
    5435                      .dwattr $C$DW$648, DW_AT_name("XINT5_INT")
    5436                      .dwattr $C$DW$648, DW_AT_TI_symbol_name("_XINT5_INT")
    5437                      .dwattr $C$DW$648, DW_AT_data_member_location[DW_OP_plus_uconst 0xf4]
    5438                      .dwattr $C$DW$648, DW_AT_accessibility(DW_ACCESS_public)
    5439              $C$DW$649       .dwtag  DW_TAG_member
    5440                      .dwattr $C$DW$649, DW_AT_type(*$C$DW$T$75)
    5441                      .dwattr $C$DW$649, DW_AT_name("PIE23_RESERVED_INT")
    5442                      .dwattr $C$DW$649, DW_AT_TI_symbol_name("_PIE23_RESERVED_INT")
    5443                      .dwattr $C$DW$649, DW_AT_data_member_location[DW_OP_plus_uconst 0xf6]
    5444                      .dwattr $C$DW$649, DW_AT_accessibility(DW_ACCESS_public)
    5445              $C$DW$650       .dwtag  DW_TAG_member
    5446                      .dwattr $C$DW$650, DW_AT_type(*$C$DW$T$75)
    5447                      .dwattr $C$DW$650, DW_AT_name("PIE24_RESERVED_INT")
    5448                      .dwattr $C$DW$650, DW_AT_TI_symbol_name("_PIE24_RESERVED_INT")
    5449                      .dwattr $C$DW$650, DW_AT_data_member_location[DW_OP_plus_uconst 0xf8]
    5450                      .dwattr $C$DW$650, DW_AT_accessibility(DW_ACCESS_public)
    5451              $C$DW$651       .dwtag  DW_TAG_member
    5452                      .dwattr $C$DW$651, DW_AT_type(*$C$DW$T$75)
    5453                      .dwattr $C$DW$651, DW_AT_name("VCU_INT")
    5454                      .dwattr $C$DW$651, DW_AT_TI_symbol_name("_VCU_INT")
    5455                      .dwattr $C$DW$651, DW_AT_data_member_location[DW_OP_plus_uconst 0xfa]
    5456                      .dwattr $C$DW$651, DW_AT_accessibility(DW_ACCESS_public)
    5457              $C$DW$652       .dwtag  DW_TAG_member
    5458                      .dwattr $C$DW$652, DW_AT_type(*$C$DW$T$75)
    5459                      .dwattr $C$DW$652, DW_AT_name("FPU_OVERFLOW_INT")
    5460                      .dwattr $C$DW$652, DW_AT_TI_symbol_name("_FPU_OVERFLOW_INT")
    5461                      .dwattr $C$DW$652, DW_AT_data_member_location[DW_OP_plus_uconst 0xfc]
    5462                      .dwattr $C$DW$652, DW_AT_accessibility(DW_ACCESS_public)
    5463              $C$DW$653       .dwtag  DW_TAG_member
    5464                      .dwattr $C$DW$653, DW_AT_type(*$C$DW$T$75)
    5465                      .dwattr $C$DW$653, DW_AT_name("FPU_UNDERFLOW_INT")
    5466                      .dwattr $C$DW$653, DW_AT_TI_symbol_name("_FPU_UNDERFLOW_INT")
    5467                      .dwattr $C$DW$653, DW_AT_data_member_location[DW_OP_plus_uconst 0xfe]
    5468                      .dwattr $C$DW$653, DW_AT_accessibility(DW_ACCESS_public)
    5469              $C$DW$654       .dwtag  DW_TAG_member
    5470                      .dwattr $C$DW$654, DW_AT_type(*$C$DW$T$75)
    5471                      .dwattr $C$DW$654, DW_AT_name("PIE25_RESERVED_INT")
    5472                      .dwattr $C$DW$654, DW_AT_TI_symbol_name("_PIE25_RESERVED_INT")
    5473                      .dwattr $C$DW$654, DW_AT_data_member_location[DW_OP_plus_uconst 0x100]
    5474                      .dwattr $C$DW$654, DW_AT_accessibility(DW_ACCESS_public)
    5475              $C$DW$655       .dwtag  DW_TAG_member
    5476                      .dwattr $C$DW$655, DW_AT_type(*$C$DW$T$75)
    5477                      .dwattr $C$DW$655, DW_AT_name("PIE26_RESERVED_INT")
    5478                      .dwattr $C$DW$655, DW_AT_TI_symbol_name("_PIE26_RESERVED_INT")
    5479                      .dwattr $C$DW$655, DW_AT_data_member_location[DW_OP_plus_uconst 0x102]
    5480                      .dwattr $C$DW$655, DW_AT_accessibility(DW_ACCESS_public)
    5481              $C$DW$656       .dwtag  DW_TAG_member
    5482                      .dwattr $C$DW$656, DW_AT_type(*$C$DW$T$75)
    5483                      .dwattr $C$DW$656, DW_AT_name("PIE27_RESERVED_INT")
    5484                      .dwattr $C$DW$656, DW_AT_TI_symbol_name("_PIE27_RESERVED_INT")
    5485                      .dwattr $C$DW$656, DW_AT_data_member_location[DW_OP_plus_uconst 0x104]
TMS320C2000 Assembler PC v6.4.2 Thu Dec 14 15:26:49 2017

Tools Copyright (c) 1996-2015 Texas Instruments Incorporated
interrupt.asm                                                        PAGE  102

    5486                      .dwattr $C$DW$656, DW_AT_accessibility(DW_ACCESS_public)
    5487              $C$DW$657       .dwtag  DW_TAG_member
    5488                      .dwattr $C$DW$657, DW_AT_type(*$C$DW$T$75)
    5489                      .dwattr $C$DW$657, DW_AT_name("PIE28_RESERVED_INT")
    5490                      .dwattr $C$DW$657, DW_AT_TI_symbol_name("_PIE28_RESERVED_INT")
    5491                      .dwattr $C$DW$657, DW_AT_data_member_location[DW_OP_plus_uconst 0x106]
    5492                      .dwattr $C$DW$657, DW_AT_accessibility(DW_ACCESS_public)
    5493              $C$DW$658       .dwtag  DW_TAG_member
    5494                      .dwattr $C$DW$658, DW_AT_type(*$C$DW$T$75)
    5495                      .dwattr $C$DW$658, DW_AT_name("IPC0_INT")
    5496                      .dwattr $C$DW$658, DW_AT_TI_symbol_name("_IPC0_INT")
    5497                      .dwattr $C$DW$658, DW_AT_data_member_location[DW_OP_plus_uconst 0x108]
    5498                      .dwattr $C$DW$658, DW_AT_accessibility(DW_ACCESS_public)
    5499              $C$DW$659       .dwtag  DW_TAG_member
    5500                      .dwattr $C$DW$659, DW_AT_type(*$C$DW$T$75)
    5501                      .dwattr $C$DW$659, DW_AT_name("IPC1_INT")
    5502                      .dwattr $C$DW$659, DW_AT_TI_symbol_name("_IPC1_INT")
    5503                      .dwattr $C$DW$659, DW_AT_data_member_location[DW_OP_plus_uconst 0x10a]
    5504                      .dwattr $C$DW$659, DW_AT_accessibility(DW_ACCESS_public)
    5505              $C$DW$660       .dwtag  DW_TAG_member
    5506                      .dwattr $C$DW$660, DW_AT_type(*$C$DW$T$75)
    5507                      .dwattr $C$DW$660, DW_AT_name("IPC2_INT")
    5508                      .dwattr $C$DW$660, DW_AT_TI_symbol_name("_IPC2_INT")
    5509                      .dwattr $C$DW$660, DW_AT_data_member_location[DW_OP_plus_uconst 0x10c]
    5510                      .dwattr $C$DW$660, DW_AT_accessibility(DW_ACCESS_public)
    5511              $C$DW$661       .dwtag  DW_TAG_member
    5512                      .dwattr $C$DW$661, DW_AT_type(*$C$DW$T$75)
    5513                      .dwattr $C$DW$661, DW_AT_name("IPC3_INT")
    5514                      .dwattr $C$DW$661, DW_AT_TI_symbol_name("_IPC3_INT")
    5515                      .dwattr $C$DW$661, DW_AT_data_member_location[DW_OP_plus_uconst 0x10e]
    5516                      .dwattr $C$DW$661, DW_AT_accessibility(DW_ACCESS_public)
    5517              $C$DW$662       .dwtag  DW_TAG_member
    5518                      .dwattr $C$DW$662, DW_AT_type(*$C$DW$T$75)
    5519                      .dwattr $C$DW$662, DW_AT_name("EPWM9_TZ_INT")
    5520                      .dwattr $C$DW$662, DW_AT_TI_symbol_name("_EPWM9_TZ_INT")
    5521                      .dwattr $C$DW$662, DW_AT_data_member_location[DW_OP_plus_uconst 0x110]
    5522                      .dwattr $C$DW$662, DW_AT_accessibility(DW_ACCESS_public)
    5523              $C$DW$663       .dwtag  DW_TAG_member
    5524                      .dwattr $C$DW$663, DW_AT_type(*$C$DW$T$75)
    5525                      .dwattr $C$DW$663, DW_AT_name("EPWM10_TZ_INT")
    5526                      .dwattr $C$DW$663, DW_AT_TI_symbol_name("_EPWM10_TZ_INT")
    5527                      .dwattr $C$DW$663, DW_AT_data_member_location[DW_OP_plus_uconst 0x112]
    5528                      .dwattr $C$DW$663, DW_AT_accessibility(DW_ACCESS_public)
    5529              $C$DW$664       .dwtag  DW_TAG_member
    5530                      .dwattr $C$DW$664, DW_AT_type(*$C$DW$T$75)
    5531                      .dwattr $C$DW$664, DW_AT_name("EPWM11_TZ_INT")
    5532                      .dwattr $C$DW$664, DW_AT_TI_symbol_name("_EPWM11_TZ_INT")
    5533                      .dwattr $C$DW$664, DW_AT_data_member_location[DW_OP_plus_uconst 0x114]
    5534                      .dwattr $C$DW$664, DW_AT_accessibility(DW_ACCESS_public)
    5535              $C$DW$665       .dwtag  DW_TAG_member
    5536                      .dwattr $C$DW$665, DW_AT_type(*$C$DW$T$75)
    5537                      .dwattr $C$DW$665, DW_AT_name("EPWM12_TZ_INT")
    5538                      .dwattr $C$DW$665, DW_AT_TI_symbol_name("_EPWM12_TZ_INT")
    5539                      .dwattr $C$DW$665, DW_AT_data_member_location[DW_OP_plus_uconst 0x116]
    5540                      .dwattr $C$DW$665, DW_AT_accessibility(DW_ACCESS_public)
TMS320C2000 Assembler PC v6.4.2 Thu Dec 14 15:26:49 2017

Tools Copyright (c) 1996-2015 Texas Instruments Incorporated
interrupt.asm                                                        PAGE  103

    5541              $C$DW$666       .dwtag  DW_TAG_member
    5542                      .dwattr $C$DW$666, DW_AT_type(*$C$DW$T$75)
    5543                      .dwattr $C$DW$666, DW_AT_name("PIE29_RESERVED_INT")
    5544                      .dwattr $C$DW$666, DW_AT_TI_symbol_name("_PIE29_RESERVED_INT")
    5545                      .dwattr $C$DW$666, DW_AT_data_member_location[DW_OP_plus_uconst 0x118]
    5546                      .dwattr $C$DW$666, DW_AT_accessibility(DW_ACCESS_public)
    5547              $C$DW$667       .dwtag  DW_TAG_member
    5548                      .dwattr $C$DW$667, DW_AT_type(*$C$DW$T$75)
    5549                      .dwattr $C$DW$667, DW_AT_name("PIE30_RESERVED_INT")
    5550                      .dwattr $C$DW$667, DW_AT_TI_symbol_name("_PIE30_RESERVED_INT")
    5551                      .dwattr $C$DW$667, DW_AT_data_member_location[DW_OP_plus_uconst 0x11a]
    5552                      .dwattr $C$DW$667, DW_AT_accessibility(DW_ACCESS_public)
    5553              $C$DW$668       .dwtag  DW_TAG_member
    5554                      .dwattr $C$DW$668, DW_AT_type(*$C$DW$T$75)
    5555                      .dwattr $C$DW$668, DW_AT_name("PIE31_RESERVED_INT")
    5556                      .dwattr $C$DW$668, DW_AT_TI_symbol_name("_PIE31_RESERVED_INT")
    5557                      .dwattr $C$DW$668, DW_AT_data_member_location[DW_OP_plus_uconst 0x11c]
    5558                      .dwattr $C$DW$668, DW_AT_accessibility(DW_ACCESS_public)
    5559              $C$DW$669       .dwtag  DW_TAG_member
    5560                      .dwattr $C$DW$669, DW_AT_type(*$C$DW$T$75)
    5561                      .dwattr $C$DW$669, DW_AT_name("PIE32_RESERVED_INT")
    5562                      .dwattr $C$DW$669, DW_AT_TI_symbol_name("_PIE32_RESERVED_INT")
    5563                      .dwattr $C$DW$669, DW_AT_data_member_location[DW_OP_plus_uconst 0x11e]
    5564                      .dwattr $C$DW$669, DW_AT_accessibility(DW_ACCESS_public)
    5565              $C$DW$670       .dwtag  DW_TAG_member
    5566                      .dwattr $C$DW$670, DW_AT_type(*$C$DW$T$75)
    5567                      .dwattr $C$DW$670, DW_AT_name("EPWM9_INT")
    5568                      .dwattr $C$DW$670, DW_AT_TI_symbol_name("_EPWM9_INT")
    5569                      .dwattr $C$DW$670, DW_AT_data_member_location[DW_OP_plus_uconst 0x120]
    5570                      .dwattr $C$DW$670, DW_AT_accessibility(DW_ACCESS_public)
    5571              $C$DW$671       .dwtag  DW_TAG_member
    5572                      .dwattr $C$DW$671, DW_AT_type(*$C$DW$T$75)
    5573                      .dwattr $C$DW$671, DW_AT_name("EPWM10_INT")
    5574                      .dwattr $C$DW$671, DW_AT_TI_symbol_name("_EPWM10_INT")
    5575                      .dwattr $C$DW$671, DW_AT_data_member_location[DW_OP_plus_uconst 0x122]
    5576                      .dwattr $C$DW$671, DW_AT_accessibility(DW_ACCESS_public)
    5577              $C$DW$672       .dwtag  DW_TAG_member
    5578                      .dwattr $C$DW$672, DW_AT_type(*$C$DW$T$75)
    5579                      .dwattr $C$DW$672, DW_AT_name("EPWM11_INT")
    5580                      .dwattr $C$DW$672, DW_AT_TI_symbol_name("_EPWM11_INT")
    5581                      .dwattr $C$DW$672, DW_AT_data_member_location[DW_OP_plus_uconst 0x124]
    5582                      .dwattr $C$DW$672, DW_AT_accessibility(DW_ACCESS_public)
    5583              $C$DW$673       .dwtag  DW_TAG_member
    5584                      .dwattr $C$DW$673, DW_AT_type(*$C$DW$T$75)
    5585                      .dwattr $C$DW$673, DW_AT_name("EPWM12_INT")
    5586                      .dwattr $C$DW$673, DW_AT_TI_symbol_name("_EPWM12_INT")
    5587                      .dwattr $C$DW$673, DW_AT_data_member_location[DW_OP_plus_uconst 0x126]
    5588                      .dwattr $C$DW$673, DW_AT_accessibility(DW_ACCESS_public)
    5589              $C$DW$674       .dwtag  DW_TAG_member
    5590                      .dwattr $C$DW$674, DW_AT_type(*$C$DW$T$75)
    5591                      .dwattr $C$DW$674, DW_AT_name("PIE33_RESERVED_INT")
    5592                      .dwattr $C$DW$674, DW_AT_TI_symbol_name("_PIE33_RESERVED_INT")
    5593                      .dwattr $C$DW$674, DW_AT_data_member_location[DW_OP_plus_uconst 0x128]
    5594                      .dwattr $C$DW$674, DW_AT_accessibility(DW_ACCESS_public)
    5595              $C$DW$675       .dwtag  DW_TAG_member
TMS320C2000 Assembler PC v6.4.2 Thu Dec 14 15:26:49 2017

Tools Copyright (c) 1996-2015 Texas Instruments Incorporated
interrupt.asm                                                        PAGE  104

    5596                      .dwattr $C$DW$675, DW_AT_type(*$C$DW$T$75)
    5597                      .dwattr $C$DW$675, DW_AT_name("PIE34_RESERVED_INT")
    5598                      .dwattr $C$DW$675, DW_AT_TI_symbol_name("_PIE34_RESERVED_INT")
    5599                      .dwattr $C$DW$675, DW_AT_data_member_location[DW_OP_plus_uconst 0x12a]
    5600                      .dwattr $C$DW$675, DW_AT_accessibility(DW_ACCESS_public)
    5601              $C$DW$676       .dwtag  DW_TAG_member
    5602                      .dwattr $C$DW$676, DW_AT_type(*$C$DW$T$75)
    5603                      .dwattr $C$DW$676, DW_AT_name("PIE35_RESERVED_INT")
    5604                      .dwattr $C$DW$676, DW_AT_TI_symbol_name("_PIE35_RESERVED_INT")
    5605                      .dwattr $C$DW$676, DW_AT_data_member_location[DW_OP_plus_uconst 0x12c]
    5606                      .dwattr $C$DW$676, DW_AT_accessibility(DW_ACCESS_public)
    5607              $C$DW$677       .dwtag  DW_TAG_member
    5608                      .dwattr $C$DW$677, DW_AT_type(*$C$DW$T$75)
    5609                      .dwattr $C$DW$677, DW_AT_name("PIE36_RESERVED_INT")
    5610                      .dwattr $C$DW$677, DW_AT_TI_symbol_name("_PIE36_RESERVED_INT")
    5611                      .dwattr $C$DW$677, DW_AT_data_member_location[DW_OP_plus_uconst 0x12e]
    5612                      .dwattr $C$DW$677, DW_AT_accessibility(DW_ACCESS_public)
    5613              $C$DW$678       .dwtag  DW_TAG_member
    5614                      .dwattr $C$DW$678, DW_AT_type(*$C$DW$T$75)
    5615                      .dwattr $C$DW$678, DW_AT_name("PIE37_RESERVED_INT")
    5616                      .dwattr $C$DW$678, DW_AT_TI_symbol_name("_PIE37_RESERVED_INT")
    5617                      .dwattr $C$DW$678, DW_AT_data_member_location[DW_OP_plus_uconst 0x130]
    5618                      .dwattr $C$DW$678, DW_AT_accessibility(DW_ACCESS_public)
    5619              $C$DW$679       .dwtag  DW_TAG_member
    5620                      .dwattr $C$DW$679, DW_AT_type(*$C$DW$T$75)
    5621                      .dwattr $C$DW$679, DW_AT_name("PIE38_RESERVED_INT")
    5622                      .dwattr $C$DW$679, DW_AT_TI_symbol_name("_PIE38_RESERVED_INT")
    5623                      .dwattr $C$DW$679, DW_AT_data_member_location[DW_OP_plus_uconst 0x132]
    5624                      .dwattr $C$DW$679, DW_AT_accessibility(DW_ACCESS_public)
    5625              $C$DW$680       .dwtag  DW_TAG_member
    5626                      .dwattr $C$DW$680, DW_AT_type(*$C$DW$T$75)
    5627                      .dwattr $C$DW$680, DW_AT_name("PIE39_RESERVED_INT")
    5628                      .dwattr $C$DW$680, DW_AT_TI_symbol_name("_PIE39_RESERVED_INT")
    5629                      .dwattr $C$DW$680, DW_AT_data_member_location[DW_OP_plus_uconst 0x134]
    5630                      .dwattr $C$DW$680, DW_AT_accessibility(DW_ACCESS_public)
    5631              $C$DW$681       .dwtag  DW_TAG_member
    5632                      .dwattr $C$DW$681, DW_AT_type(*$C$DW$T$75)
    5633                      .dwattr $C$DW$681, DW_AT_name("PIE40_RESERVED_INT")
    5634                      .dwattr $C$DW$681, DW_AT_TI_symbol_name("_PIE40_RESERVED_INT")
    5635                      .dwattr $C$DW$681, DW_AT_data_member_location[DW_OP_plus_uconst 0x136]
    5636                      .dwattr $C$DW$681, DW_AT_accessibility(DW_ACCESS_public)
    5637              $C$DW$682       .dwtag  DW_TAG_member
    5638                      .dwattr $C$DW$682, DW_AT_type(*$C$DW$T$75)
    5639                      .dwattr $C$DW$682, DW_AT_name("PIE41_RESERVED_INT")
    5640                      .dwattr $C$DW$682, DW_AT_TI_symbol_name("_PIE41_RESERVED_INT")
    5641                      .dwattr $C$DW$682, DW_AT_data_member_location[DW_OP_plus_uconst 0x138]
    5642                      .dwattr $C$DW$682, DW_AT_accessibility(DW_ACCESS_public)
    5643              $C$DW$683       .dwtag  DW_TAG_member
    5644                      .dwattr $C$DW$683, DW_AT_type(*$C$DW$T$75)
    5645                      .dwattr $C$DW$683, DW_AT_name("PIE42_RESERVED_INT")
    5646                      .dwattr $C$DW$683, DW_AT_TI_symbol_name("_PIE42_RESERVED_INT")
    5647                      .dwattr $C$DW$683, DW_AT_data_member_location[DW_OP_plus_uconst 0x13a]
    5648                      .dwattr $C$DW$683, DW_AT_accessibility(DW_ACCESS_public)
    5649              $C$DW$684       .dwtag  DW_TAG_member
    5650                      .dwattr $C$DW$684, DW_AT_type(*$C$DW$T$75)
TMS320C2000 Assembler PC v6.4.2 Thu Dec 14 15:26:49 2017

Tools Copyright (c) 1996-2015 Texas Instruments Incorporated
interrupt.asm                                                        PAGE  105

    5651                      .dwattr $C$DW$684, DW_AT_name("PIE43_RESERVED_INT")
    5652                      .dwattr $C$DW$684, DW_AT_TI_symbol_name("_PIE43_RESERVED_INT")
    5653                      .dwattr $C$DW$684, DW_AT_data_member_location[DW_OP_plus_uconst 0x13c]
    5654                      .dwattr $C$DW$684, DW_AT_accessibility(DW_ACCESS_public)
    5655              $C$DW$685       .dwtag  DW_TAG_member
    5656                      .dwattr $C$DW$685, DW_AT_type(*$C$DW$T$75)
    5657                      .dwattr $C$DW$685, DW_AT_name("PIE44_RESERVED_INT")
    5658                      .dwattr $C$DW$685, DW_AT_TI_symbol_name("_PIE44_RESERVED_INT")
    5659                      .dwattr $C$DW$685, DW_AT_data_member_location[DW_OP_plus_uconst 0x13e]
    5660                      .dwattr $C$DW$685, DW_AT_accessibility(DW_ACCESS_public)
    5661              $C$DW$686       .dwtag  DW_TAG_member
    5662                      .dwattr $C$DW$686, DW_AT_type(*$C$DW$T$75)
    5663                      .dwattr $C$DW$686, DW_AT_name("SD1_INT")
    5664                      .dwattr $C$DW$686, DW_AT_TI_symbol_name("_SD1_INT")
    5665                      .dwattr $C$DW$686, DW_AT_data_member_location[DW_OP_plus_uconst 0x140]
    5666                      .dwattr $C$DW$686, DW_AT_accessibility(DW_ACCESS_public)
    5667              $C$DW$687       .dwtag  DW_TAG_member
    5668                      .dwattr $C$DW$687, DW_AT_type(*$C$DW$T$75)
    5669                      .dwattr $C$DW$687, DW_AT_name("SD2_INT")
    5670                      .dwattr $C$DW$687, DW_AT_TI_symbol_name("_SD2_INT")
    5671                      .dwattr $C$DW$687, DW_AT_data_member_location[DW_OP_plus_uconst 0x142]
    5672                      .dwattr $C$DW$687, DW_AT_accessibility(DW_ACCESS_public)
    5673              $C$DW$688       .dwtag  DW_TAG_member
    5674                      .dwattr $C$DW$688, DW_AT_type(*$C$DW$T$75)
    5675                      .dwattr $C$DW$688, DW_AT_name("PIE45_RESERVED_INT")
    5676                      .dwattr $C$DW$688, DW_AT_TI_symbol_name("_PIE45_RESERVED_INT")
    5677                      .dwattr $C$DW$688, DW_AT_data_member_location[DW_OP_plus_uconst 0x144]
    5678                      .dwattr $C$DW$688, DW_AT_accessibility(DW_ACCESS_public)
    5679              $C$DW$689       .dwtag  DW_TAG_member
    5680                      .dwattr $C$DW$689, DW_AT_type(*$C$DW$T$75)
    5681                      .dwattr $C$DW$689, DW_AT_name("PIE46_RESERVED_INT")
    5682                      .dwattr $C$DW$689, DW_AT_TI_symbol_name("_PIE46_RESERVED_INT")
    5683                      .dwattr $C$DW$689, DW_AT_data_member_location[DW_OP_plus_uconst 0x146]
    5684                      .dwattr $C$DW$689, DW_AT_accessibility(DW_ACCESS_public)
    5685              $C$DW$690       .dwtag  DW_TAG_member
    5686                      .dwattr $C$DW$690, DW_AT_type(*$C$DW$T$75)
    5687                      .dwattr $C$DW$690, DW_AT_name("PIE47_RESERVED_INT")
    5688                      .dwattr $C$DW$690, DW_AT_TI_symbol_name("_PIE47_RESERVED_INT")
    5689                      .dwattr $C$DW$690, DW_AT_data_member_location[DW_OP_plus_uconst 0x148]
    5690                      .dwattr $C$DW$690, DW_AT_accessibility(DW_ACCESS_public)
    5691              $C$DW$691       .dwtag  DW_TAG_member
    5692                      .dwattr $C$DW$691, DW_AT_type(*$C$DW$T$75)
    5693                      .dwattr $C$DW$691, DW_AT_name("PIE48_RESERVED_INT")
    5694                      .dwattr $C$DW$691, DW_AT_TI_symbol_name("_PIE48_RESERVED_INT")
    5695                      .dwattr $C$DW$691, DW_AT_data_member_location[DW_OP_plus_uconst 0x14a]
    5696                      .dwattr $C$DW$691, DW_AT_accessibility(DW_ACCESS_public)
    5697              $C$DW$692       .dwtag  DW_TAG_member
    5698                      .dwattr $C$DW$692, DW_AT_type(*$C$DW$T$75)
    5699                      .dwattr $C$DW$692, DW_AT_name("PIE49_RESERVED_INT")
    5700                      .dwattr $C$DW$692, DW_AT_TI_symbol_name("_PIE49_RESERVED_INT")
    5701                      .dwattr $C$DW$692, DW_AT_data_member_location[DW_OP_plus_uconst 0x14c]
    5702                      .dwattr $C$DW$692, DW_AT_accessibility(DW_ACCESS_public)
    5703              $C$DW$693       .dwtag  DW_TAG_member
    5704                      .dwattr $C$DW$693, DW_AT_type(*$C$DW$T$75)
    5705                      .dwattr $C$DW$693, DW_AT_name("PIE50_RESERVED_INT")
TMS320C2000 Assembler PC v6.4.2 Thu Dec 14 15:26:49 2017

Tools Copyright (c) 1996-2015 Texas Instruments Incorporated
interrupt.asm                                                        PAGE  106

    5706                      .dwattr $C$DW$693, DW_AT_TI_symbol_name("_PIE50_RESERVED_INT")
    5707                      .dwattr $C$DW$693, DW_AT_data_member_location[DW_OP_plus_uconst 0x14e]
    5708                      .dwattr $C$DW$693, DW_AT_accessibility(DW_ACCESS_public)
    5709              $C$DW$694       .dwtag  DW_TAG_member
    5710                      .dwattr $C$DW$694, DW_AT_type(*$C$DW$T$75)
    5711                      .dwattr $C$DW$694, DW_AT_name("SPIC_RX_INT")
    5712                      .dwattr $C$DW$694, DW_AT_TI_symbol_name("_SPIC_RX_INT")
    5713                      .dwattr $C$DW$694, DW_AT_data_member_location[DW_OP_plus_uconst 0x150]
    5714                      .dwattr $C$DW$694, DW_AT_accessibility(DW_ACCESS_public)
    5715              $C$DW$695       .dwtag  DW_TAG_member
    5716                      .dwattr $C$DW$695, DW_AT_type(*$C$DW$T$75)
    5717                      .dwattr $C$DW$695, DW_AT_name("SPIC_TX_INT")
    5718                      .dwattr $C$DW$695, DW_AT_TI_symbol_name("_SPIC_TX_INT")
    5719                      .dwattr $C$DW$695, DW_AT_data_member_location[DW_OP_plus_uconst 0x152]
    5720                      .dwattr $C$DW$695, DW_AT_accessibility(DW_ACCESS_public)
    5721              $C$DW$696       .dwtag  DW_TAG_member
    5722                      .dwattr $C$DW$696, DW_AT_type(*$C$DW$T$75)
    5723                      .dwattr $C$DW$696, DW_AT_name("PIE51_RESERVED_INT")
    5724                      .dwattr $C$DW$696, DW_AT_TI_symbol_name("_PIE51_RESERVED_INT")
    5725                      .dwattr $C$DW$696, DW_AT_data_member_location[DW_OP_plus_uconst 0x154]
    5726                      .dwattr $C$DW$696, DW_AT_accessibility(DW_ACCESS_public)
    5727              $C$DW$697       .dwtag  DW_TAG_member
    5728                      .dwattr $C$DW$697, DW_AT_type(*$C$DW$T$75)
    5729                      .dwattr $C$DW$697, DW_AT_name("PIE52_RESERVED_INT")
    5730                      .dwattr $C$DW$697, DW_AT_TI_symbol_name("_PIE52_RESERVED_INT")
    5731                      .dwattr $C$DW$697, DW_AT_data_member_location[DW_OP_plus_uconst 0x156]
    5732                      .dwattr $C$DW$697, DW_AT_accessibility(DW_ACCESS_public)
    5733              $C$DW$698       .dwtag  DW_TAG_member
    5734                      .dwattr $C$DW$698, DW_AT_type(*$C$DW$T$75)
    5735                      .dwattr $C$DW$698, DW_AT_name("PIE53_RESERVED_INT")
    5736                      .dwattr $C$DW$698, DW_AT_TI_symbol_name("_PIE53_RESERVED_INT")
    5737                      .dwattr $C$DW$698, DW_AT_data_member_location[DW_OP_plus_uconst 0x158]
    5738                      .dwattr $C$DW$698, DW_AT_accessibility(DW_ACCESS_public)
    5739              $C$DW$699       .dwtag  DW_TAG_member
    5740                      .dwattr $C$DW$699, DW_AT_type(*$C$DW$T$75)
    5741                      .dwattr $C$DW$699, DW_AT_name("PIE54_RESERVED_INT")
    5742                      .dwattr $C$DW$699, DW_AT_TI_symbol_name("_PIE54_RESERVED_INT")
    5743                      .dwattr $C$DW$699, DW_AT_data_member_location[DW_OP_plus_uconst 0x15a]
    5744                      .dwattr $C$DW$699, DW_AT_accessibility(DW_ACCESS_public)
    5745              $C$DW$700       .dwtag  DW_TAG_member
    5746                      .dwattr $C$DW$700, DW_AT_type(*$C$DW$T$75)
    5747                      .dwattr $C$DW$700, DW_AT_name("PIE55_RESERVED_INT")
    5748                      .dwattr $C$DW$700, DW_AT_TI_symbol_name("_PIE55_RESERVED_INT")
    5749                      .dwattr $C$DW$700, DW_AT_data_member_location[DW_OP_plus_uconst 0x15c]
    5750                      .dwattr $C$DW$700, DW_AT_accessibility(DW_ACCESS_public)
    5751              $C$DW$701       .dwtag  DW_TAG_member
    5752                      .dwattr $C$DW$701, DW_AT_type(*$C$DW$T$75)
    5753                      .dwattr $C$DW$701, DW_AT_name("PIE56_RESERVED_INT")
    5754                      .dwattr $C$DW$701, DW_AT_TI_symbol_name("_PIE56_RESERVED_INT")
    5755                      .dwattr $C$DW$701, DW_AT_data_member_location[DW_OP_plus_uconst 0x15e]
    5756                      .dwattr $C$DW$701, DW_AT_accessibility(DW_ACCESS_public)
    5757              $C$DW$702       .dwtag  DW_TAG_member
    5758                      .dwattr $C$DW$702, DW_AT_type(*$C$DW$T$75)
    5759                      .dwattr $C$DW$702, DW_AT_name("PIE57_RESERVED_INT")
    5760                      .dwattr $C$DW$702, DW_AT_TI_symbol_name("_PIE57_RESERVED_INT")
TMS320C2000 Assembler PC v6.4.2 Thu Dec 14 15:26:49 2017

Tools Copyright (c) 1996-2015 Texas Instruments Incorporated
interrupt.asm                                                        PAGE  107

    5761                      .dwattr $C$DW$702, DW_AT_data_member_location[DW_OP_plus_uconst 0x160]
    5762                      .dwattr $C$DW$702, DW_AT_accessibility(DW_ACCESS_public)
    5763              $C$DW$703       .dwtag  DW_TAG_member
    5764                      .dwattr $C$DW$703, DW_AT_type(*$C$DW$T$75)
    5765                      .dwattr $C$DW$703, DW_AT_name("PIE58_RESERVED_INT")
    5766                      .dwattr $C$DW$703, DW_AT_TI_symbol_name("_PIE58_RESERVED_INT")
    5767                      .dwattr $C$DW$703, DW_AT_data_member_location[DW_OP_plus_uconst 0x162]
    5768                      .dwattr $C$DW$703, DW_AT_accessibility(DW_ACCESS_public)
    5769              $C$DW$704       .dwtag  DW_TAG_member
    5770                      .dwattr $C$DW$704, DW_AT_type(*$C$DW$T$75)
    5771                      .dwattr $C$DW$704, DW_AT_name("PIE59_RESERVED_INT")
    5772                      .dwattr $C$DW$704, DW_AT_TI_symbol_name("_PIE59_RESERVED_INT")
    5773                      .dwattr $C$DW$704, DW_AT_data_member_location[DW_OP_plus_uconst 0x164]
    5774                      .dwattr $C$DW$704, DW_AT_accessibility(DW_ACCESS_public)
    5775              $C$DW$705       .dwtag  DW_TAG_member
    5776                      .dwattr $C$DW$705, DW_AT_type(*$C$DW$T$75)
    5777                      .dwattr $C$DW$705, DW_AT_name("PIE60_RESERVED_INT")
    5778                      .dwattr $C$DW$705, DW_AT_TI_symbol_name("_PIE60_RESERVED_INT")
    5779                      .dwattr $C$DW$705, DW_AT_data_member_location[DW_OP_plus_uconst 0x166]
    5780                      .dwattr $C$DW$705, DW_AT_accessibility(DW_ACCESS_public)
    5781              $C$DW$706       .dwtag  DW_TAG_member
    5782                      .dwattr $C$DW$706, DW_AT_type(*$C$DW$T$75)
    5783                      .dwattr $C$DW$706, DW_AT_name("PIE61_RESERVED_INT")
    5784                      .dwattr $C$DW$706, DW_AT_TI_symbol_name("_PIE61_RESERVED_INT")
    5785                      .dwattr $C$DW$706, DW_AT_data_member_location[DW_OP_plus_uconst 0x168]
    5786                      .dwattr $C$DW$706, DW_AT_accessibility(DW_ACCESS_public)
    5787              $C$DW$707       .dwtag  DW_TAG_member
    5788                      .dwattr $C$DW$707, DW_AT_type(*$C$DW$T$75)
    5789                      .dwattr $C$DW$707, DW_AT_name("PIE62_RESERVED_INT")
    5790                      .dwattr $C$DW$707, DW_AT_TI_symbol_name("_PIE62_RESERVED_INT")
    5791                      .dwattr $C$DW$707, DW_AT_data_member_location[DW_OP_plus_uconst 0x16a]
    5792                      .dwattr $C$DW$707, DW_AT_accessibility(DW_ACCESS_public)
    5793              $C$DW$708       .dwtag  DW_TAG_member
    5794                      .dwattr $C$DW$708, DW_AT_type(*$C$DW$T$75)
    5795                      .dwattr $C$DW$708, DW_AT_name("PIE63_RESERVED_INT")
    5796                      .dwattr $C$DW$708, DW_AT_TI_symbol_name("_PIE63_RESERVED_INT")
    5797                      .dwattr $C$DW$708, DW_AT_data_member_location[DW_OP_plus_uconst 0x16c]
    5798                      .dwattr $C$DW$708, DW_AT_accessibility(DW_ACCESS_public)
    5799              $C$DW$709       .dwtag  DW_TAG_member
    5800                      .dwattr $C$DW$709, DW_AT_type(*$C$DW$T$75)
    5801                      .dwattr $C$DW$709, DW_AT_name("PIE64_RESERVED_INT")
    5802                      .dwattr $C$DW$709, DW_AT_TI_symbol_name("_PIE64_RESERVED_INT")
    5803                      .dwattr $C$DW$709, DW_AT_data_member_location[DW_OP_plus_uconst 0x16e]
    5804                      .dwattr $C$DW$709, DW_AT_accessibility(DW_ACCESS_public)
    5805              $C$DW$710       .dwtag  DW_TAG_member
    5806                      .dwattr $C$DW$710, DW_AT_type(*$C$DW$T$75)
    5807                      .dwattr $C$DW$710, DW_AT_name("PIE65_RESERVED_INT")
    5808                      .dwattr $C$DW$710, DW_AT_TI_symbol_name("_PIE65_RESERVED_INT")
    5809                      .dwattr $C$DW$710, DW_AT_data_member_location[DW_OP_plus_uconst 0x170]
    5810                      .dwattr $C$DW$710, DW_AT_accessibility(DW_ACCESS_public)
    5811              $C$DW$711       .dwtag  DW_TAG_member
    5812                      .dwattr $C$DW$711, DW_AT_type(*$C$DW$T$75)
    5813                      .dwattr $C$DW$711, DW_AT_name("PIE66_RESERVED_INT")
    5814                      .dwattr $C$DW$711, DW_AT_TI_symbol_name("_PIE66_RESERVED_INT")
    5815                      .dwattr $C$DW$711, DW_AT_data_member_location[DW_OP_plus_uconst 0x172]
TMS320C2000 Assembler PC v6.4.2 Thu Dec 14 15:26:49 2017

Tools Copyright (c) 1996-2015 Texas Instruments Incorporated
interrupt.asm                                                        PAGE  108

    5816                      .dwattr $C$DW$711, DW_AT_accessibility(DW_ACCESS_public)
    5817              $C$DW$712       .dwtag  DW_TAG_member
    5818                      .dwattr $C$DW$712, DW_AT_type(*$C$DW$T$75)
    5819                      .dwattr $C$DW$712, DW_AT_name("PIE67_RESERVED_INT")
    5820                      .dwattr $C$DW$712, DW_AT_TI_symbol_name("_PIE67_RESERVED_INT")
    5821                      .dwattr $C$DW$712, DW_AT_data_member_location[DW_OP_plus_uconst 0x174]
    5822                      .dwattr $C$DW$712, DW_AT_accessibility(DW_ACCESS_public)
    5823              $C$DW$713       .dwtag  DW_TAG_member
    5824                      .dwattr $C$DW$713, DW_AT_type(*$C$DW$T$75)
    5825                      .dwattr $C$DW$713, DW_AT_name("PIE68_RESERVED_INT")
    5826                      .dwattr $C$DW$713, DW_AT_TI_symbol_name("_PIE68_RESERVED_INT")
    5827                      .dwattr $C$DW$713, DW_AT_data_member_location[DW_OP_plus_uconst 0x176]
    5828                      .dwattr $C$DW$713, DW_AT_accessibility(DW_ACCESS_public)
    5829              $C$DW$714       .dwtag  DW_TAG_member
    5830                      .dwattr $C$DW$714, DW_AT_type(*$C$DW$T$75)
    5831                      .dwattr $C$DW$714, DW_AT_name("PIE69_RESERVED_INT")
    5832                      .dwattr $C$DW$714, DW_AT_TI_symbol_name("_PIE69_RESERVED_INT")
    5833                      .dwattr $C$DW$714, DW_AT_data_member_location[DW_OP_plus_uconst 0x178]
    5834                      .dwattr $C$DW$714, DW_AT_accessibility(DW_ACCESS_public)
    5835              $C$DW$715       .dwtag  DW_TAG_member
    5836                      .dwattr $C$DW$715, DW_AT_type(*$C$DW$T$75)
    5837                      .dwattr $C$DW$715, DW_AT_name("PIE70_RESERVED_INT")
    5838                      .dwattr $C$DW$715, DW_AT_TI_symbol_name("_PIE70_RESERVED_INT")
    5839                      .dwattr $C$DW$715, DW_AT_data_member_location[DW_OP_plus_uconst 0x17a]
    5840                      .dwattr $C$DW$715, DW_AT_accessibility(DW_ACCESS_public)
    5841              $C$DW$716       .dwtag  DW_TAG_member
    5842                      .dwattr $C$DW$716, DW_AT_type(*$C$DW$T$75)
    5843                      .dwattr $C$DW$716, DW_AT_name("UPPA_INT")
    5844                      .dwattr $C$DW$716, DW_AT_TI_symbol_name("_UPPA_INT")
    5845                      .dwattr $C$DW$716, DW_AT_data_member_location[DW_OP_plus_uconst 0x17c]
    5846                      .dwattr $C$DW$716, DW_AT_accessibility(DW_ACCESS_public)
    5847              $C$DW$717       .dwtag  DW_TAG_member
    5848                      .dwattr $C$DW$717, DW_AT_type(*$C$DW$T$75)
    5849                      .dwattr $C$DW$717, DW_AT_name("PIE71_RESERVED_INT")
    5850                      .dwattr $C$DW$717, DW_AT_TI_symbol_name("_PIE71_RESERVED_INT")
    5851                      .dwattr $C$DW$717, DW_AT_data_member_location[DW_OP_plus_uconst 0x17e]
    5852                      .dwattr $C$DW$717, DW_AT_accessibility(DW_ACCESS_public)
    5853              $C$DW$718       .dwtag  DW_TAG_member
    5854                      .dwattr $C$DW$718, DW_AT_type(*$C$DW$T$75)
    5855                      .dwattr $C$DW$718, DW_AT_name("PIE72_RESERVED_INT")
    5856                      .dwattr $C$DW$718, DW_AT_TI_symbol_name("_PIE72_RESERVED_INT")
    5857                      .dwattr $C$DW$718, DW_AT_data_member_location[DW_OP_plus_uconst 0x180]
    5858                      .dwattr $C$DW$718, DW_AT_accessibility(DW_ACCESS_public)
    5859              $C$DW$719       .dwtag  DW_TAG_member
    5860                      .dwattr $C$DW$719, DW_AT_type(*$C$DW$T$75)
    5861                      .dwattr $C$DW$719, DW_AT_name("PIE73_RESERVED_INT")
    5862                      .dwattr $C$DW$719, DW_AT_TI_symbol_name("_PIE73_RESERVED_INT")
    5863                      .dwattr $C$DW$719, DW_AT_data_member_location[DW_OP_plus_uconst 0x182]
    5864                      .dwattr $C$DW$719, DW_AT_accessibility(DW_ACCESS_public)
    5865              $C$DW$720       .dwtag  DW_TAG_member
    5866                      .dwattr $C$DW$720, DW_AT_type(*$C$DW$T$75)
    5867                      .dwattr $C$DW$720, DW_AT_name("PIE74_RESERVED_INT")
    5868                      .dwattr $C$DW$720, DW_AT_TI_symbol_name("_PIE74_RESERVED_INT")
    5869                      .dwattr $C$DW$720, DW_AT_data_member_location[DW_OP_plus_uconst 0x184]
    5870                      .dwattr $C$DW$720, DW_AT_accessibility(DW_ACCESS_public)
TMS320C2000 Assembler PC v6.4.2 Thu Dec 14 15:26:49 2017

Tools Copyright (c) 1996-2015 Texas Instruments Incorporated
interrupt.asm                                                        PAGE  109

    5871              $C$DW$721       .dwtag  DW_TAG_member
    5872                      .dwattr $C$DW$721, DW_AT_type(*$C$DW$T$75)
    5873                      .dwattr $C$DW$721, DW_AT_name("PIE75_RESERVED_INT")
    5874                      .dwattr $C$DW$721, DW_AT_TI_symbol_name("_PIE75_RESERVED_INT")
    5875                      .dwattr $C$DW$721, DW_AT_data_member_location[DW_OP_plus_uconst 0x186]
    5876                      .dwattr $C$DW$721, DW_AT_accessibility(DW_ACCESS_public)
    5877              $C$DW$722       .dwtag  DW_TAG_member
    5878                      .dwattr $C$DW$722, DW_AT_type(*$C$DW$T$75)
    5879                      .dwattr $C$DW$722, DW_AT_name("PIE76_RESERVED_INT")
    5880                      .dwattr $C$DW$722, DW_AT_TI_symbol_name("_PIE76_RESERVED_INT")
    5881                      .dwattr $C$DW$722, DW_AT_data_member_location[DW_OP_plus_uconst 0x188]
    5882                      .dwattr $C$DW$722, DW_AT_accessibility(DW_ACCESS_public)
    5883              $C$DW$723       .dwtag  DW_TAG_member
    5884                      .dwattr $C$DW$723, DW_AT_type(*$C$DW$T$75)
    5885                      .dwattr $C$DW$723, DW_AT_name("PIE77_RESERVED_INT")
    5886                      .dwattr $C$DW$723, DW_AT_TI_symbol_name("_PIE77_RESERVED_INT")
    5887                      .dwattr $C$DW$723, DW_AT_data_member_location[DW_OP_plus_uconst 0x18a]
    5888                      .dwattr $C$DW$723, DW_AT_accessibility(DW_ACCESS_public)
    5889              $C$DW$724       .dwtag  DW_TAG_member
    5890                      .dwattr $C$DW$724, DW_AT_type(*$C$DW$T$75)
    5891                      .dwattr $C$DW$724, DW_AT_name("USBA_INT")
    5892                      .dwattr $C$DW$724, DW_AT_TI_symbol_name("_USBA_INT")
    5893                      .dwattr $C$DW$724, DW_AT_data_member_location[DW_OP_plus_uconst 0x18c]
    5894                      .dwattr $C$DW$724, DW_AT_accessibility(DW_ACCESS_public)
    5895              $C$DW$725       .dwtag  DW_TAG_member
    5896                      .dwattr $C$DW$725, DW_AT_type(*$C$DW$T$75)
    5897                      .dwattr $C$DW$725, DW_AT_name("PIE78_RESERVED_INT")
    5898                      .dwattr $C$DW$725, DW_AT_TI_symbol_name("_PIE78_RESERVED_INT")
    5899                      .dwattr $C$DW$725, DW_AT_data_member_location[DW_OP_plus_uconst 0x18e]
    5900                      .dwattr $C$DW$725, DW_AT_accessibility(DW_ACCESS_public)
    5901              $C$DW$726       .dwtag  DW_TAG_member
    5902                      .dwattr $C$DW$726, DW_AT_type(*$C$DW$T$75)
    5903                      .dwattr $C$DW$726, DW_AT_name("ADCC_EVT_INT")
    5904                      .dwattr $C$DW$726, DW_AT_TI_symbol_name("_ADCC_EVT_INT")
    5905                      .dwattr $C$DW$726, DW_AT_data_member_location[DW_OP_plus_uconst 0x190]
    5906                      .dwattr $C$DW$726, DW_AT_accessibility(DW_ACCESS_public)
    5907              $C$DW$727       .dwtag  DW_TAG_member
    5908                      .dwattr $C$DW$727, DW_AT_type(*$C$DW$T$75)
    5909                      .dwattr $C$DW$727, DW_AT_name("ADCC2_INT")
    5910                      .dwattr $C$DW$727, DW_AT_TI_symbol_name("_ADCC2_INT")
    5911                      .dwattr $C$DW$727, DW_AT_data_member_location[DW_OP_plus_uconst 0x192]
    5912                      .dwattr $C$DW$727, DW_AT_accessibility(DW_ACCESS_public)
    5913              $C$DW$728       .dwtag  DW_TAG_member
    5914                      .dwattr $C$DW$728, DW_AT_type(*$C$DW$T$75)
    5915                      .dwattr $C$DW$728, DW_AT_name("ADCC3_INT")
    5916                      .dwattr $C$DW$728, DW_AT_TI_symbol_name("_ADCC3_INT")
    5917                      .dwattr $C$DW$728, DW_AT_data_member_location[DW_OP_plus_uconst 0x194]
    5918                      .dwattr $C$DW$728, DW_AT_accessibility(DW_ACCESS_public)
    5919              $C$DW$729       .dwtag  DW_TAG_member
    5920                      .dwattr $C$DW$729, DW_AT_type(*$C$DW$T$75)
    5921                      .dwattr $C$DW$729, DW_AT_name("ADCC4_INT")
    5922                      .dwattr $C$DW$729, DW_AT_TI_symbol_name("_ADCC4_INT")
    5923                      .dwattr $C$DW$729, DW_AT_data_member_location[DW_OP_plus_uconst 0x196]
    5924                      .dwattr $C$DW$729, DW_AT_accessibility(DW_ACCESS_public)
    5925              $C$DW$730       .dwtag  DW_TAG_member
TMS320C2000 Assembler PC v6.4.2 Thu Dec 14 15:26:49 2017

Tools Copyright (c) 1996-2015 Texas Instruments Incorporated
interrupt.asm                                                        PAGE  110

    5926                      .dwattr $C$DW$730, DW_AT_type(*$C$DW$T$75)
    5927                      .dwattr $C$DW$730, DW_AT_name("ADCD_EVT_INT")
    5928                      .dwattr $C$DW$730, DW_AT_TI_symbol_name("_ADCD_EVT_INT")
    5929                      .dwattr $C$DW$730, DW_AT_data_member_location[DW_OP_plus_uconst 0x198]
    5930                      .dwattr $C$DW$730, DW_AT_accessibility(DW_ACCESS_public)
    5931              $C$DW$731       .dwtag  DW_TAG_member
    5932                      .dwattr $C$DW$731, DW_AT_type(*$C$DW$T$75)
    5933                      .dwattr $C$DW$731, DW_AT_name("ADCD2_INT")
    5934                      .dwattr $C$DW$731, DW_AT_TI_symbol_name("_ADCD2_INT")
    5935                      .dwattr $C$DW$731, DW_AT_data_member_location[DW_OP_plus_uconst 0x19a]
    5936                      .dwattr $C$DW$731, DW_AT_accessibility(DW_ACCESS_public)
    5937              $C$DW$732       .dwtag  DW_TAG_member
    5938                      .dwattr $C$DW$732, DW_AT_type(*$C$DW$T$75)
    5939                      .dwattr $C$DW$732, DW_AT_name("ADCD3_INT")
    5940                      .dwattr $C$DW$732, DW_AT_TI_symbol_name("_ADCD3_INT")
    5941                      .dwattr $C$DW$732, DW_AT_data_member_location[DW_OP_plus_uconst 0x19c]
    5942                      .dwattr $C$DW$732, DW_AT_accessibility(DW_ACCESS_public)
    5943              $C$DW$733       .dwtag  DW_TAG_member
    5944                      .dwattr $C$DW$733, DW_AT_type(*$C$DW$T$75)
    5945                      .dwattr $C$DW$733, DW_AT_name("ADCD4_INT")
    5946                      .dwattr $C$DW$733, DW_AT_TI_symbol_name("_ADCD4_INT")
    5947                      .dwattr $C$DW$733, DW_AT_data_member_location[DW_OP_plus_uconst 0x19e]
    5948                      .dwattr $C$DW$733, DW_AT_accessibility(DW_ACCESS_public)
    5949              $C$DW$734       .dwtag  DW_TAG_member
    5950                      .dwattr $C$DW$734, DW_AT_type(*$C$DW$T$75)
    5951                      .dwattr $C$DW$734, DW_AT_name("PIE79_RESERVED_INT")
    5952                      .dwattr $C$DW$734, DW_AT_TI_symbol_name("_PIE79_RESERVED_INT")
    5953                      .dwattr $C$DW$734, DW_AT_data_member_location[DW_OP_plus_uconst 0x1a0]
    5954                      .dwattr $C$DW$734, DW_AT_accessibility(DW_ACCESS_public)
    5955              $C$DW$735       .dwtag  DW_TAG_member
    5956                      .dwattr $C$DW$735, DW_AT_type(*$C$DW$T$75)
    5957                      .dwattr $C$DW$735, DW_AT_name("PIE80_RESERVED_INT")
    5958                      .dwattr $C$DW$735, DW_AT_TI_symbol_name("_PIE80_RESERVED_INT")
    5959                      .dwattr $C$DW$735, DW_AT_data_member_location[DW_OP_plus_uconst 0x1a2]
    5960                      .dwattr $C$DW$735, DW_AT_accessibility(DW_ACCESS_public)
    5961              $C$DW$736       .dwtag  DW_TAG_member
    5962                      .dwattr $C$DW$736, DW_AT_type(*$C$DW$T$75)
    5963                      .dwattr $C$DW$736, DW_AT_name("PIE81_RESERVED_INT")
    5964                      .dwattr $C$DW$736, DW_AT_TI_symbol_name("_PIE81_RESERVED_INT")
    5965                      .dwattr $C$DW$736, DW_AT_data_member_location[DW_OP_plus_uconst 0x1a4]
    5966                      .dwattr $C$DW$736, DW_AT_accessibility(DW_ACCESS_public)
    5967              $C$DW$737       .dwtag  DW_TAG_member
    5968                      .dwattr $C$DW$737, DW_AT_type(*$C$DW$T$75)
    5969                      .dwattr $C$DW$737, DW_AT_name("PIE82_RESERVED_INT")
    5970                      .dwattr $C$DW$737, DW_AT_TI_symbol_name("_PIE82_RESERVED_INT")
    5971                      .dwattr $C$DW$737, DW_AT_data_member_location[DW_OP_plus_uconst 0x1a6]
    5972                      .dwattr $C$DW$737, DW_AT_accessibility(DW_ACCESS_public)
    5973              $C$DW$738       .dwtag  DW_TAG_member
    5974                      .dwattr $C$DW$738, DW_AT_type(*$C$DW$T$75)
    5975                      .dwattr $C$DW$738, DW_AT_name("PIE83_RESERVED_INT")
    5976                      .dwattr $C$DW$738, DW_AT_TI_symbol_name("_PIE83_RESERVED_INT")
    5977                      .dwattr $C$DW$738, DW_AT_data_member_location[DW_OP_plus_uconst 0x1a8]
    5978                      .dwattr $C$DW$738, DW_AT_accessibility(DW_ACCESS_public)
    5979              $C$DW$739       .dwtag  DW_TAG_member
    5980                      .dwattr $C$DW$739, DW_AT_type(*$C$DW$T$75)
TMS320C2000 Assembler PC v6.4.2 Thu Dec 14 15:26:49 2017

Tools Copyright (c) 1996-2015 Texas Instruments Incorporated
interrupt.asm                                                        PAGE  111

    5981                      .dwattr $C$DW$739, DW_AT_name("PIE84_RESERVED_INT")
    5982                      .dwattr $C$DW$739, DW_AT_TI_symbol_name("_PIE84_RESERVED_INT")
    5983                      .dwattr $C$DW$739, DW_AT_data_member_location[DW_OP_plus_uconst 0x1aa]
    5984                      .dwattr $C$DW$739, DW_AT_accessibility(DW_ACCESS_public)
    5985              $C$DW$740       .dwtag  DW_TAG_member
    5986                      .dwattr $C$DW$740, DW_AT_type(*$C$DW$T$75)
    5987                      .dwattr $C$DW$740, DW_AT_name("PIE85_RESERVED_INT")
    5988                      .dwattr $C$DW$740, DW_AT_TI_symbol_name("_PIE85_RESERVED_INT")
    5989                      .dwattr $C$DW$740, DW_AT_data_member_location[DW_OP_plus_uconst 0x1ac]
    5990                      .dwattr $C$DW$740, DW_AT_accessibility(DW_ACCESS_public)
    5991              $C$DW$741       .dwtag  DW_TAG_member
    5992                      .dwattr $C$DW$741, DW_AT_type(*$C$DW$T$75)
    5993                      .dwattr $C$DW$741, DW_AT_name("PIE86_RESERVED_INT")
    5994                      .dwattr $C$DW$741, DW_AT_TI_symbol_name("_PIE86_RESERVED_INT")
    5995                      .dwattr $C$DW$741, DW_AT_data_member_location[DW_OP_plus_uconst 0x1ae]
    5996                      .dwattr $C$DW$741, DW_AT_accessibility(DW_ACCESS_public)
    5997              $C$DW$742       .dwtag  DW_TAG_member
    5998                      .dwattr $C$DW$742, DW_AT_type(*$C$DW$T$75)
    5999                      .dwattr $C$DW$742, DW_AT_name("EMIF_ERROR_INT")
    6000                      .dwattr $C$DW$742, DW_AT_TI_symbol_name("_EMIF_ERROR_INT")
    6001                      .dwattr $C$DW$742, DW_AT_data_member_location[DW_OP_plus_uconst 0x1b0]
    6002                      .dwattr $C$DW$742, DW_AT_accessibility(DW_ACCESS_public)
    6003              $C$DW$743       .dwtag  DW_TAG_member
    6004                      .dwattr $C$DW$743, DW_AT_type(*$C$DW$T$75)
    6005                      .dwattr $C$DW$743, DW_AT_name("RAM_CORRECTABLE_ERROR_INT")
    6006                      .dwattr $C$DW$743, DW_AT_TI_symbol_name("_RAM_CORRECTABLE_ERROR_INT")
    6007                      .dwattr $C$DW$743, DW_AT_data_member_location[DW_OP_plus_uconst 0x1b2]
    6008                      .dwattr $C$DW$743, DW_AT_accessibility(DW_ACCESS_public)
    6009              $C$DW$744       .dwtag  DW_TAG_member
    6010                      .dwattr $C$DW$744, DW_AT_type(*$C$DW$T$75)
    6011                      .dwattr $C$DW$744, DW_AT_name("FLASH_CORRECTABLE_ERROR_INT")
    6012                      .dwattr $C$DW$744, DW_AT_TI_symbol_name("_FLASH_CORRECTABLE_ERROR_INT")
    6013                      .dwattr $C$DW$744, DW_AT_data_member_location[DW_OP_plus_uconst 0x1b4]
    6014                      .dwattr $C$DW$744, DW_AT_accessibility(DW_ACCESS_public)
    6015              $C$DW$745       .dwtag  DW_TAG_member
    6016                      .dwattr $C$DW$745, DW_AT_type(*$C$DW$T$75)
    6017                      .dwattr $C$DW$745, DW_AT_name("RAM_ACCESS_VIOLATION_INT")
    6018                      .dwattr $C$DW$745, DW_AT_TI_symbol_name("_RAM_ACCESS_VIOLATION_INT")
    6019                      .dwattr $C$DW$745, DW_AT_data_member_location[DW_OP_plus_uconst 0x1b6]
    6020                      .dwattr $C$DW$745, DW_AT_accessibility(DW_ACCESS_public)
    6021              $C$DW$746       .dwtag  DW_TAG_member
    6022                      .dwattr $C$DW$746, DW_AT_type(*$C$DW$T$75)
    6023                      .dwattr $C$DW$746, DW_AT_name("SYS_PLL_SLIP_INT")
    6024                      .dwattr $C$DW$746, DW_AT_TI_symbol_name("_SYS_PLL_SLIP_INT")
    6025                      .dwattr $C$DW$746, DW_AT_data_member_location[DW_OP_plus_uconst 0x1b8]
    6026                      .dwattr $C$DW$746, DW_AT_accessibility(DW_ACCESS_public)
    6027              $C$DW$747       .dwtag  DW_TAG_member
    6028                      .dwattr $C$DW$747, DW_AT_type(*$C$DW$T$75)
    6029                      .dwattr $C$DW$747, DW_AT_name("AUX_PLL_SLIP_INT")
    6030                      .dwattr $C$DW$747, DW_AT_TI_symbol_name("_AUX_PLL_SLIP_INT")
    6031                      .dwattr $C$DW$747, DW_AT_data_member_location[DW_OP_plus_uconst 0x1ba]
    6032                      .dwattr $C$DW$747, DW_AT_accessibility(DW_ACCESS_public)
    6033              $C$DW$748       .dwtag  DW_TAG_member
    6034                      .dwattr $C$DW$748, DW_AT_type(*$C$DW$T$75)
    6035                      .dwattr $C$DW$748, DW_AT_name("CLA_OVERFLOW_INT")
TMS320C2000 Assembler PC v6.4.2 Thu Dec 14 15:26:49 2017

Tools Copyright (c) 1996-2015 Texas Instruments Incorporated
interrupt.asm                                                        PAGE  112

    6036                      .dwattr $C$DW$748, DW_AT_TI_symbol_name("_CLA_OVERFLOW_INT")
    6037                      .dwattr $C$DW$748, DW_AT_data_member_location[DW_OP_plus_uconst 0x1bc]
    6038                      .dwattr $C$DW$748, DW_AT_accessibility(DW_ACCESS_public)
    6039              $C$DW$749       .dwtag  DW_TAG_member
    6040                      .dwattr $C$DW$749, DW_AT_type(*$C$DW$T$75)
    6041                      .dwattr $C$DW$749, DW_AT_name("CLA_UNDERFLOW_INT")
    6042                      .dwattr $C$DW$749, DW_AT_TI_symbol_name("_CLA_UNDERFLOW_INT")
    6043                      .dwattr $C$DW$749, DW_AT_data_member_location[DW_OP_plus_uconst 0x1be]
    6044                      .dwattr $C$DW$749, DW_AT_accessibility(DW_ACCESS_public)
    6045                      .dwendtag $C$DW$T$76
    6046              
    6047              $C$DW$750       .dwtag  DW_TAG_TI_far_type
    6048                      .dwattr $C$DW$750, DW_AT_type(*$C$DW$T$76)
    6049              $C$DW$T$82      .dwtag  DW_TAG_volatile_type
    6050                      .dwattr $C$DW$T$82, DW_AT_type(*$C$DW$750)
    6051              $C$DW$T$2       .dwtag  DW_TAG_unspecified_type
    6052                      .dwattr $C$DW$T$2, DW_AT_name("void")
    6053              $C$DW$T$3       .dwtag  DW_TAG_pointer_type
    6054                      .dwattr $C$DW$T$3, DW_AT_type(*$C$DW$T$2)
    6055                      .dwattr $C$DW$T$3, DW_AT_address_class(0x20)
    6056              
    6057              $C$DW$T$73      .dwtag  DW_TAG_subroutine_type
    6058                      .dwattr $C$DW$T$73, DW_AT_language(DW_LANG_C)
    6059              $C$DW$T$74      .dwtag  DW_TAG_pointer_type
    6060                      .dwattr $C$DW$T$74, DW_AT_type(*$C$DW$T$73)
    6061                      .dwattr $C$DW$T$74, DW_AT_address_class(0x20)
    6062              $C$DW$T$75      .dwtag  DW_TAG_typedef, DW_AT_name("PINT")
    6063                      .dwattr $C$DW$T$75, DW_AT_type(*$C$DW$T$74)
    6064                      .dwattr $C$DW$T$75, DW_AT_language(DW_LANG_C)
    6065              $C$DW$751       .dwtag  DW_TAG_TI_far_type
    6066                      .dwattr $C$DW$751, DW_AT_type(*$C$DW$T$2)
    6067              $C$DW$T$84      .dwtag  DW_TAG_const_type
    6068                      .dwattr $C$DW$T$84, DW_AT_type(*$C$DW$751)
    6069              $C$DW$T$85      .dwtag  DW_TAG_pointer_type
    6070                      .dwattr $C$DW$T$85, DW_AT_type(*$C$DW$T$84)
    6071                      .dwattr $C$DW$T$85, DW_AT_address_class(0x20)
    6072              $C$DW$T$4       .dwtag  DW_TAG_base_type
    6073                      .dwattr $C$DW$T$4, DW_AT_encoding(DW_ATE_boolean)
    6074                      .dwattr $C$DW$T$4, DW_AT_name("bool")
    6075                      .dwattr $C$DW$T$4, DW_AT_byte_size(0x01)
    6076              $C$DW$T$5       .dwtag  DW_TAG_base_type
    6077                      .dwattr $C$DW$T$5, DW_AT_encoding(DW_ATE_signed_char)
    6078                      .dwattr $C$DW$T$5, DW_AT_name("signed char")
    6079                      .dwattr $C$DW$T$5, DW_AT_byte_size(0x01)
    6080              $C$DW$T$6       .dwtag  DW_TAG_base_type
    6081                      .dwattr $C$DW$T$6, DW_AT_encoding(DW_ATE_unsigned_char)
    6082                      .dwattr $C$DW$T$6, DW_AT_name("unsigned char")
    6083                      .dwattr $C$DW$T$6, DW_AT_byte_size(0x01)
    6084              $C$DW$T$7       .dwtag  DW_TAG_base_type
    6085                      .dwattr $C$DW$T$7, DW_AT_encoding(DW_ATE_signed_char)
    6086                      .dwattr $C$DW$T$7, DW_AT_name("wchar_t")
    6087                      .dwattr $C$DW$T$7, DW_AT_byte_size(0x01)
    6088              $C$DW$T$8       .dwtag  DW_TAG_base_type
    6089                      .dwattr $C$DW$T$8, DW_AT_encoding(DW_ATE_signed)
    6090                      .dwattr $C$DW$T$8, DW_AT_name("short")
TMS320C2000 Assembler PC v6.4.2 Thu Dec 14 15:26:49 2017

Tools Copyright (c) 1996-2015 Texas Instruments Incorporated
interrupt.asm                                                        PAGE  113

    6091                      .dwattr $C$DW$T$8, DW_AT_byte_size(0x01)
    6092              $C$DW$T$9       .dwtag  DW_TAG_base_type
    6093                      .dwattr $C$DW$T$9, DW_AT_encoding(DW_ATE_unsigned)
    6094                      .dwattr $C$DW$T$9, DW_AT_name("unsigned short")
    6095                      .dwattr $C$DW$T$9, DW_AT_byte_size(0x01)
    6096              $C$DW$T$10      .dwtag  DW_TAG_base_type
    6097                      .dwattr $C$DW$T$10, DW_AT_encoding(DW_ATE_signed)
    6098                      .dwattr $C$DW$T$10, DW_AT_name("int")
    6099                      .dwattr $C$DW$T$10, DW_AT_byte_size(0x01)
    6100              $C$DW$T$11      .dwtag  DW_TAG_base_type
    6101                      .dwattr $C$DW$T$11, DW_AT_encoding(DW_ATE_unsigned)
    6102                      .dwattr $C$DW$T$11, DW_AT_name("unsigned int")
    6103                      .dwattr $C$DW$T$11, DW_AT_byte_size(0x01)
    6104              $C$DW$T$19      .dwtag  DW_TAG_typedef, DW_AT_name("Uint16")
    6105                      .dwattr $C$DW$T$19, DW_AT_type(*$C$DW$T$11)
    6106                      .dwattr $C$DW$T$19, DW_AT_language(DW_LANG_C)
    6107              $C$DW$T$91      .dwtag  DW_TAG_typedef, DW_AT_name("uint16_t")
    6108                      .dwattr $C$DW$T$91, DW_AT_type(*$C$DW$T$11)
    6109                      .dwattr $C$DW$T$91, DW_AT_language(DW_LANG_C)
    6110              $C$DW$T$12      .dwtag  DW_TAG_base_type
    6111                      .dwattr $C$DW$T$12, DW_AT_encoding(DW_ATE_signed)
    6112                      .dwattr $C$DW$T$12, DW_AT_name("long")
    6113                      .dwattr $C$DW$T$12, DW_AT_byte_size(0x02)
    6114              $C$DW$T$13      .dwtag  DW_TAG_base_type
    6115                      .dwattr $C$DW$T$13, DW_AT_encoding(DW_ATE_unsigned)
    6116                      .dwattr $C$DW$T$13, DW_AT_name("unsigned long")
    6117                      .dwattr $C$DW$T$13, DW_AT_byte_size(0x02)
    6118              $C$DW$T$88      .dwtag  DW_TAG_typedef, DW_AT_name("uint32_t")
    6119                      .dwattr $C$DW$T$88, DW_AT_type(*$C$DW$T$13)
    6120                      .dwattr $C$DW$T$88, DW_AT_language(DW_LANG_C)
    6121              $C$DW$T$14      .dwtag  DW_TAG_base_type
    6122                      .dwattr $C$DW$T$14, DW_AT_encoding(DW_ATE_signed)
    6123                      .dwattr $C$DW$T$14, DW_AT_name("long long")
    6124                      .dwattr $C$DW$T$14, DW_AT_byte_size(0x04)
    6125              $C$DW$T$15      .dwtag  DW_TAG_base_type
    6126                      .dwattr $C$DW$T$15, DW_AT_encoding(DW_ATE_unsigned)
    6127                      .dwattr $C$DW$T$15, DW_AT_name("unsigned long long")
    6128                      .dwattr $C$DW$T$15, DW_AT_byte_size(0x04)
    6129              $C$DW$T$16      .dwtag  DW_TAG_base_type
    6130                      .dwattr $C$DW$T$16, DW_AT_encoding(DW_ATE_float)
    6131                      .dwattr $C$DW$T$16, DW_AT_name("float")
    6132                      .dwattr $C$DW$T$16, DW_AT_byte_size(0x02)
    6133              $C$DW$T$17      .dwtag  DW_TAG_base_type
    6134                      .dwattr $C$DW$T$17, DW_AT_encoding(DW_ATE_float)
    6135                      .dwattr $C$DW$T$17, DW_AT_name("double")
    6136                      .dwattr $C$DW$T$17, DW_AT_byte_size(0x02)
    6137              $C$DW$T$18      .dwtag  DW_TAG_base_type
    6138                      .dwattr $C$DW$T$18, DW_AT_encoding(DW_ATE_float)
    6139                      .dwattr $C$DW$T$18, DW_AT_name("long double")
    6140                      .dwattr $C$DW$T$18, DW_AT_byte_size(0x04)
    6141              $C$DW$T$100     .dwtag  DW_TAG_base_type
    6142                      .dwattr $C$DW$T$100, DW_AT_encoding(DW_ATE_unsigned_char)
    6143                      .dwattr $C$DW$T$100, DW_AT_name("unsigned char")
    6144                      .dwattr $C$DW$T$100, DW_AT_byte_size(0x01)
    6145                      .dwattr $C$DW$CU, DW_AT_language(DW_LANG_C)
TMS320C2000 Assembler PC v6.4.2 Thu Dec 14 15:26:49 2017

Tools Copyright (c) 1996-2015 Texas Instruments Incorporated
interrupt.asm                                                        PAGE  114

    6146              
    6147              ;***************************************************************
    6148              ;* DWARF CIE ENTRIES                                           *
    6149              ;***************************************************************
    6150              
    6151              $C$DW$CIE       .dwcie 26
    6152                      .dwcfi  cfa_register, 20
    6153                      .dwcfi  cfa_offset, 0
    6154                      .dwcfi  undefined, 0
    6155                      .dwcfi  undefined, 1
    6156                      .dwcfi  undefined, 2
    6157                      .dwcfi  undefined, 3
    6158                      .dwcfi  undefined, 20
    6159                      .dwcfi  undefined, 21
    6160                      .dwcfi  undefined, 22
    6161                      .dwcfi  undefined, 23
    6162                      .dwcfi  undefined, 24
    6163                      .dwcfi  undefined, 25
    6164                      .dwcfi  undefined, 26
    6165                      .dwcfi  same_value, 28
    6166                      .dwcfi  undefined, 29
    6167                      .dwcfi  undefined, 30
    6168                      .dwcfi  undefined, 31
    6169                      .dwcfi  undefined, 32
    6170                      .dwcfi  undefined, 33
    6171                      .dwcfi  undefined, 34
    6172                      .dwcfi  undefined, 35
    6173                      .dwcfi  undefined, 36
    6174                      .dwcfi  undefined, 37
    6175                      .dwcfi  undefined, 38
    6176                      .dwcfi  undefined, 75
    6177                      .dwcfi  undefined, 76
    6178                      .dwcfi  undefined, 77
    6179                      .dwcfi  undefined, 4
    6180                      .dwcfi  undefined, 5
    6181                      .dwcfi  same_value, 6
    6182                      .dwcfi  same_value, 7
    6183                      .dwcfi  same_value, 8
    6184                      .dwcfi  same_value, 9
    6185                      .dwcfi  same_value, 10
    6186                      .dwcfi  same_value, 11
    6187                      .dwcfi  undefined, 12
    6188                      .dwcfi  undefined, 13
    6189                      .dwcfi  undefined, 14
    6190                      .dwcfi  undefined, 15
    6191                      .dwcfi  undefined, 16
    6192                      .dwcfi  undefined, 17
    6193                      .dwcfi  undefined, 18
    6194                      .dwcfi  undefined, 19
    6195                      .dwcfi  undefined, 43
    6196                      .dwcfi  undefined, 44
    6197                      .dwcfi  undefined, 47
    6198                      .dwcfi  undefined, 48
    6199                      .dwcfi  undefined, 51
    6200                      .dwcfi  undefined, 52
TMS320C2000 Assembler PC v6.4.2 Thu Dec 14 15:26:49 2017

Tools Copyright (c) 1996-2015 Texas Instruments Incorporated
interrupt.asm                                                        PAGE  115

    6201                      .dwcfi  undefined, 55
    6202                      .dwcfi  undefined, 56
    6203                      .dwcfi  same_value, 59
    6204                      .dwcfi  same_value, 60
    6205                      .dwcfi  same_value, 63
    6206                      .dwcfi  same_value, 64
    6207                      .dwcfi  same_value, 67
    6208                      .dwcfi  same_value, 68
    6209                      .dwcfi  same_value, 71
    6210                      .dwcfi  same_value, 72
    6211                      .dwcfi  undefined, 73
    6212                      .dwcfi  undefined, 74
    6213                      .dwcfi  undefined, 39
    6214                      .dwcfi  undefined, 40
    6215                      .dwcfi  undefined, 27
    6216                      .dwendentry
    6217              
    6218              ;***************************************************************
    6219              ;* DWARF REGISTER MAP                                          *
    6220              ;***************************************************************
    6221              
    6222              $C$DW$752       .dwtag  DW_TAG_TI_assign_register, DW_AT_name("AL")
    6223                      .dwattr $C$DW$752, DW_AT_location[DW_OP_reg0]
    6224              $C$DW$753       .dwtag  DW_TAG_TI_assign_register, DW_AT_name("AH")
    6225                      .dwattr $C$DW$753, DW_AT_location[DW_OP_reg1]
    6226              $C$DW$754       .dwtag  DW_TAG_TI_assign_register, DW_AT_name("PL")
    6227                      .dwattr $C$DW$754, DW_AT_location[DW_OP_reg2]
    6228              $C$DW$755       .dwtag  DW_TAG_TI_assign_register, DW_AT_name("PH")
    6229                      .dwattr $C$DW$755, DW_AT_location[DW_OP_reg3]
    6230              $C$DW$756       .dwtag  DW_TAG_TI_assign_register, DW_AT_name("SP")
    6231                      .dwattr $C$DW$756, DW_AT_location[DW_OP_reg20]
    6232              $C$DW$757       .dwtag  DW_TAG_TI_assign_register, DW_AT_name("XT")
    6233                      .dwattr $C$DW$757, DW_AT_location[DW_OP_reg21]
    6234              $C$DW$758       .dwtag  DW_TAG_TI_assign_register, DW_AT_name("T")
    6235                      .dwattr $C$DW$758, DW_AT_location[DW_OP_reg22]
    6236              $C$DW$759       .dwtag  DW_TAG_TI_assign_register, DW_AT_name("ST0")
    6237                      .dwattr $C$DW$759, DW_AT_location[DW_OP_reg23]
    6238              $C$DW$760       .dwtag  DW_TAG_TI_assign_register, DW_AT_name("ST1")
    6239                      .dwattr $C$DW$760, DW_AT_location[DW_OP_reg24]
    6240              $C$DW$761       .dwtag  DW_TAG_TI_assign_register, DW_AT_name("PC")
    6241                      .dwattr $C$DW$761, DW_AT_location[DW_OP_reg25]
    6242              $C$DW$762       .dwtag  DW_TAG_TI_assign_register, DW_AT_name("RPC")
    6243                      .dwattr $C$DW$762, DW_AT_location[DW_OP_reg26]
    6244              $C$DW$763       .dwtag  DW_TAG_TI_assign_register, DW_AT_name("FP")
    6245                      .dwattr $C$DW$763, DW_AT_location[DW_OP_reg28]
    6246              $C$DW$764       .dwtag  DW_TAG_TI_assign_register, DW_AT_name("DP")
    6247                      .dwattr $C$DW$764, DW_AT_location[DW_OP_reg29]
    6248              $C$DW$765       .dwtag  DW_TAG_TI_assign_register, DW_AT_name("SXM")
    6249                      .dwattr $C$DW$765, DW_AT_location[DW_OP_reg30]
    6250              $C$DW$766       .dwtag  DW_TAG_TI_assign_register, DW_AT_name("PM")
    6251                      .dwattr $C$DW$766, DW_AT_location[DW_OP_reg31]
    6252              $C$DW$767       .dwtag  DW_TAG_TI_assign_register, DW_AT_name("OVM")
    6253                      .dwattr $C$DW$767, DW_AT_location[DW_OP_regx 0x20]
    6254              $C$DW$768       .dwtag  DW_TAG_TI_assign_register, DW_AT_name("PAGE0")
    6255                      .dwattr $C$DW$768, DW_AT_location[DW_OP_regx 0x21]
TMS320C2000 Assembler PC v6.4.2 Thu Dec 14 15:26:49 2017

Tools Copyright (c) 1996-2015 Texas Instruments Incorporated
interrupt.asm                                                        PAGE  116

    6256              $C$DW$769       .dwtag  DW_TAG_TI_assign_register, DW_AT_name("AMODE")
    6257                      .dwattr $C$DW$769, DW_AT_location[DW_OP_regx 0x22]
    6258              $C$DW$770       .dwtag  DW_TAG_TI_assign_register, DW_AT_name("INTM")
    6259                      .dwattr $C$DW$770, DW_AT_location[DW_OP_regx 0x23]
    6260              $C$DW$771       .dwtag  DW_TAG_TI_assign_register, DW_AT_name("IFR")
    6261                      .dwattr $C$DW$771, DW_AT_location[DW_OP_regx 0x24]
    6262              $C$DW$772       .dwtag  DW_TAG_TI_assign_register, DW_AT_name("IER")
    6263                      .dwattr $C$DW$772, DW_AT_location[DW_OP_regx 0x25]
    6264              $C$DW$773       .dwtag  DW_TAG_TI_assign_register, DW_AT_name("V")
    6265                      .dwattr $C$DW$773, DW_AT_location[DW_OP_regx 0x26]
    6266              $C$DW$774       .dwtag  DW_TAG_TI_assign_register, DW_AT_name("PSEUDOH")
    6267                      .dwattr $C$DW$774, DW_AT_location[DW_OP_regx 0x4c]
    6268              $C$DW$775       .dwtag  DW_TAG_TI_assign_register, DW_AT_name("VOL")
    6269                      .dwattr $C$DW$775, DW_AT_location[DW_OP_regx 0x4d]
    6270              $C$DW$776       .dwtag  DW_TAG_TI_assign_register, DW_AT_name("AR0")
    6271                      .dwattr $C$DW$776, DW_AT_location[DW_OP_reg4]
    6272              $C$DW$777       .dwtag  DW_TAG_TI_assign_register, DW_AT_name("XAR0")
    6273                      .dwattr $C$DW$777, DW_AT_location[DW_OP_reg5]
    6274              $C$DW$778       .dwtag  DW_TAG_TI_assign_register, DW_AT_name("AR1")
    6275                      .dwattr $C$DW$778, DW_AT_location[DW_OP_reg6]
    6276              $C$DW$779       .dwtag  DW_TAG_TI_assign_register, DW_AT_name("XAR1")
    6277                      .dwattr $C$DW$779, DW_AT_location[DW_OP_reg7]
    6278              $C$DW$780       .dwtag  DW_TAG_TI_assign_register, DW_AT_name("AR2")
    6279                      .dwattr $C$DW$780, DW_AT_location[DW_OP_reg8]
    6280              $C$DW$781       .dwtag  DW_TAG_TI_assign_register, DW_AT_name("XAR2")
    6281                      .dwattr $C$DW$781, DW_AT_location[DW_OP_reg9]
    6282              $C$DW$782       .dwtag  DW_TAG_TI_assign_register, DW_AT_name("AR3")
    6283                      .dwattr $C$DW$782, DW_AT_location[DW_OP_reg10]
    6284              $C$DW$783       .dwtag  DW_TAG_TI_assign_register, DW_AT_name("XAR3")
    6285                      .dwattr $C$DW$783, DW_AT_location[DW_OP_reg11]
    6286              $C$DW$784       .dwtag  DW_TAG_TI_assign_register, DW_AT_name("AR4")
    6287                      .dwattr $C$DW$784, DW_AT_location[DW_OP_reg12]
    6288              $C$DW$785       .dwtag  DW_TAG_TI_assign_register, DW_AT_name("XAR4")
    6289                      .dwattr $C$DW$785, DW_AT_location[DW_OP_reg13]
    6290              $C$DW$786       .dwtag  DW_TAG_TI_assign_register, DW_AT_name("AR5")
    6291                      .dwattr $C$DW$786, DW_AT_location[DW_OP_reg14]
    6292              $C$DW$787       .dwtag  DW_TAG_TI_assign_register, DW_AT_name("XAR5")
    6293                      .dwattr $C$DW$787, DW_AT_location[DW_OP_reg15]
    6294              $C$DW$788       .dwtag  DW_TAG_TI_assign_register, DW_AT_name("AR6")
    6295                      .dwattr $C$DW$788, DW_AT_location[DW_OP_reg16]
    6296              $C$DW$789       .dwtag  DW_TAG_TI_assign_register, DW_AT_name("XAR6")
    6297                      .dwattr $C$DW$789, DW_AT_location[DW_OP_reg17]
    6298              $C$DW$790       .dwtag  DW_TAG_TI_assign_register, DW_AT_name("AR7")
    6299                      .dwattr $C$DW$790, DW_AT_location[DW_OP_reg18]
    6300              $C$DW$791       .dwtag  DW_TAG_TI_assign_register, DW_AT_name("XAR7")
    6301                      .dwattr $C$DW$791, DW_AT_location[DW_OP_reg19]
    6302              $C$DW$792       .dwtag  DW_TAG_TI_assign_register, DW_AT_name("R0HL")
    6303                      .dwattr $C$DW$792, DW_AT_location[DW_OP_regx 0x2b]
    6304              $C$DW$793       .dwtag  DW_TAG_TI_assign_register, DW_AT_name("R0H")
    6305                      .dwattr $C$DW$793, DW_AT_location[DW_OP_regx 0x2c]
    6306              $C$DW$794       .dwtag  DW_TAG_TI_assign_register, DW_AT_name("R1HL")
    6307                      .dwattr $C$DW$794, DW_AT_location[DW_OP_regx 0x2f]
    6308              $C$DW$795       .dwtag  DW_TAG_TI_assign_register, DW_AT_name("R1H")
    6309                      .dwattr $C$DW$795, DW_AT_location[DW_OP_regx 0x30]
    6310              $C$DW$796       .dwtag  DW_TAG_TI_assign_register, DW_AT_name("R2HL")
TMS320C2000 Assembler PC v6.4.2 Thu Dec 14 15:26:49 2017

Tools Copyright (c) 1996-2015 Texas Instruments Incorporated
interrupt.asm                                                        PAGE  117

    6311                      .dwattr $C$DW$796, DW_AT_location[DW_OP_regx 0x33]
    6312              $C$DW$797       .dwtag  DW_TAG_TI_assign_register, DW_AT_name("R2H")
    6313                      .dwattr $C$DW$797, DW_AT_location[DW_OP_regx 0x34]
    6314              $C$DW$798       .dwtag  DW_TAG_TI_assign_register, DW_AT_name("R3HL")
    6315                      .dwattr $C$DW$798, DW_AT_location[DW_OP_regx 0x37]
    6316              $C$DW$799       .dwtag  DW_TAG_TI_assign_register, DW_AT_name("R3H")
    6317                      .dwattr $C$DW$799, DW_AT_location[DW_OP_regx 0x38]
    6318              $C$DW$800       .dwtag  DW_TAG_TI_assign_register, DW_AT_name("R4HL")
    6319                      .dwattr $C$DW$800, DW_AT_location[DW_OP_regx 0x3b]
    6320              $C$DW$801       .dwtag  DW_TAG_TI_assign_register, DW_AT_name("R4H")
    6321                      .dwattr $C$DW$801, DW_AT_location[DW_OP_regx 0x3c]
    6322              $C$DW$802       .dwtag  DW_TAG_TI_assign_register, DW_AT_name("R5HL")
    6323                      .dwattr $C$DW$802, DW_AT_location[DW_OP_regx 0x3f]
    6324              $C$DW$803       .dwtag  DW_TAG_TI_assign_register, DW_AT_name("R5H")
    6325                      .dwattr $C$DW$803, DW_AT_location[DW_OP_regx 0x40]
    6326              $C$DW$804       .dwtag  DW_TAG_TI_assign_register, DW_AT_name("R6HL")
    6327                      .dwattr $C$DW$804, DW_AT_location[DW_OP_regx 0x43]
    6328              $C$DW$805       .dwtag  DW_TAG_TI_assign_register, DW_AT_name("R6H")
    6329                      .dwattr $C$DW$805, DW_AT_location[DW_OP_regx 0x44]
    6330              $C$DW$806       .dwtag  DW_TAG_TI_assign_register, DW_AT_name("R7HL")
    6331                      .dwattr $C$DW$806, DW_AT_location[DW_OP_regx 0x47]
    6332              $C$DW$807       .dwtag  DW_TAG_TI_assign_register, DW_AT_name("R7H")
    6333                      .dwattr $C$DW$807, DW_AT_location[DW_OP_regx 0x48]
    6334              $C$DW$808       .dwtag  DW_TAG_TI_assign_register, DW_AT_name("RBL")
    6335                      .dwattr $C$DW$808, DW_AT_location[DW_OP_regx 0x49]
    6336              $C$DW$809       .dwtag  DW_TAG_TI_assign_register, DW_AT_name("RB")
    6337                      .dwattr $C$DW$809, DW_AT_location[DW_OP_regx 0x4a]
    6338              $C$DW$810       .dwtag  DW_TAG_TI_assign_register, DW_AT_name("STFL")
    6339                      .dwattr $C$DW$810, DW_AT_location[DW_OP_regx 0x27]
    6340              $C$DW$811       .dwtag  DW_TAG_TI_assign_register, DW_AT_name("STF")
    6341                      .dwattr $C$DW$811, DW_AT_location[DW_OP_regx 0x28]
    6342              $C$DW$812       .dwtag  DW_TAG_TI_assign_register, DW_AT_name("FPUHAZ")
    6343                      .dwattr $C$DW$812, DW_AT_location[DW_OP_reg27]
    6344                      .dwendtag $C$DW$CU
    6345              

No Assembly Errors, No Assembly Warnings
