TMS320C2000 Assembler PC v6.4.2 Thu Dec 14 13:36:44 2017

Tools Copyright (c) 1996-2015 Texas Instruments Incorporated
Motor_ctrl.asm                                                       PAGE    1

       1              ;***************************************************************
       2              ;* TMS320C2000 C/C++ Codegen                         PC v6.4.2 *
       3              ;* Date/Time created: Thu Dec 14 13:36:44 2017                 *
       4              ;***************************************************************
       5                      .compiler_opts --cla_support=cla0 --float_support=fpu32 --hll_source=on --mem_model:code=flat --mem_m
       6        0002  FP      .set    XAR2
       7              
       8              $C$DW$CU        .dwtag  DW_TAG_compile_unit
       9                      .dwattr $C$DW$CU, DW_AT_name("../motors/Motor_ctrl.c")
      10                      .dwattr $C$DW$CU, DW_AT_producer("TI TMS320C2000 C/C++ Codegen PC v6.4.2 Copyright (c) 1996-2015 Texa
      11                      .dwattr $C$DW$CU, DW_AT_TI_version(0x01)
      12                      .dwattr $C$DW$CU, DW_AT_comp_dir("U:\02_MSE\MT\07_Software\CCS_workspace\DiffDrive_v0.93\F2837x_FLASH
      13              
      14              $C$DW$1 .dwtag  DW_TAG_subprogram, DW_AT_name("abs")
      15                      .dwattr $C$DW$1, DW_AT_TI_symbol_name("_abs")
      16                      .dwattr $C$DW$1, DW_AT_type(*$C$DW$T$10)
      17                      .dwattr $C$DW$1, DW_AT_declaration
      18                      .dwattr $C$DW$1, DW_AT_external
      19              $C$DW$2 .dwtag  DW_TAG_formal_parameter
      20                      .dwattr $C$DW$2, DW_AT_type(*$C$DW$T$10)
      21                      .dwendtag $C$DW$1
      22              
      23              ;       C:\ti\ccsv6\tools\compiler\ti-cgt-c2000_6.4.2\bin\ac2000.exe -@C:\\Users\\ficm\\AppData\\Local\\Temp\
      24 00000000               .sect   "ramfuncs"
      25                      .clink
      26                      .global _piController
      27              
      28              $C$DW$3 .dwtag  DW_TAG_subprogram, DW_AT_name("piController")
      29                      .dwattr $C$DW$3, DW_AT_low_pc(_piController)
      30                      .dwattr $C$DW$3, DW_AT_high_pc(0x00)
      31                      .dwattr $C$DW$3, DW_AT_TI_symbol_name("_piController")
      32                      .dwattr $C$DW$3, DW_AT_external
      33                      .dwattr $C$DW$3, DW_AT_TI_begin_file("../motors/Motor_ctrl.c")
      34                      .dwattr $C$DW$3, DW_AT_TI_begin_line(0x4e)
      35                      .dwattr $C$DW$3, DW_AT_TI_begin_column(0x06)
      36                      .dwattr $C$DW$3, DW_AT_TI_max_frame_size(-6)
      37                      .dwpsn  file "../motors/Motor_ctrl.c",line 78,column 44,is_stmt,address _piController,isa 0
      38              
      39                      .dwfde $C$DW$CIE, _piController
      40              $C$DW$4 .dwtag  DW_TAG_formal_parameter, DW_AT_name("piCtrl")
      41                      .dwattr $C$DW$4, DW_AT_TI_symbol_name("_piCtrl")
      42                      .dwattr $C$DW$4, DW_AT_type(*$C$DW$T$22)
      43                      .dwattr $C$DW$4, DW_AT_location[DW_OP_reg12]
      44              
      45              ;***************************************************************
      46              ;* FNAME: _piController                 FR SIZE:   4           *
      47              ;*                                                             *
      48              ;* FUNCTION ENVIRONMENT                                        *
      49              ;*                                                             *
      50              ;* FUNCTION PROPERTIES                                         *
      51              ;*                            2 Parameter,  2 Auto,  0 SOE     *
      52              ;***************************************************************
      53              
      54 00000000       _piController:
      55                      .dwcfi  cfa_offset, -2
TMS320C2000 Assembler PC v6.4.2 Thu Dec 14 13:36:44 2017

Tools Copyright (c) 1996-2015 Texas Instruments Incorporated
Motor_ctrl.asm                                                       PAGE    2

      56                      .dwcfi  save_reg_to_mem, 26, 0
      57 00000000 FE04          ADDB      SP,#4                 ; [CPU_U] 
      58                      .dwcfi  cfa_offset, -6
      59              $C$DW$5 .dwtag  DW_TAG_variable, DW_AT_name("piCtrl")
      60                      .dwattr $C$DW$5, DW_AT_TI_symbol_name("_piCtrl")
      61                      .dwattr $C$DW$5, DW_AT_type(*$C$DW$T$22)
      62                      .dwattr $C$DW$5, DW_AT_location[DW_OP_breg20 -4]
      63 00000001 A844          MOVL      *-SP[4],XAR4          ; [CPU_] |78| 
      64                      .dwpsn  file "../motors/Motor_ctrl.c",line 79,column 2,is_stmt,isa 0
      65 00000002 8344          MOVL      XAR5,*-SP[4]          ; [CPU_] |79| 
      66 00000003 E2AF          MOV32     R0H,*+XAR4[2]         ; [CPU_] |79| 
         00000004 00D4 
      67 00000005 E2AF          MOV32     R1H,*+XAR5[0]         ; [CPU_] |79| 
         00000006 01C5 
      68 00000007 E720          SUBF32    R0H,R1H,R0H           ; [CPU_] |79| 
         00000008 0008 
      69 00000009 7700          NOP       ; [CPU_] 
      70 0000000a E203          MOV32     *+XAR4[4],R0H         ; [CPU_] |79| 
         0000000b 00E4 
      71                      .dwpsn  file "../motors/Motor_ctrl.c",line 80,column 2,is_stmt,isa 0
      72 0000000c 0212          MOVB      ACC,#18               ; [CPU_] |80| 
      73 0000000d 0744          ADDL      ACC,*-SP[4]           ; [CPU_] |80| 
      74 0000000e 8AA9          MOVL      XAR4,ACC              ; [CPU_] |80| 
      75 0000000f 020A          MOVB      ACC,#10               ; [CPU_] |80| 
      76 00000010 0744          ADDL      ACC,*-SP[4]           ; [CPU_] |80| 
      77 00000011 E2AF          MOV32     R0H,*+XAR4[0]         ; [CPU_] |80| 
         00000012 00C4 
      78 00000013 8AA9          MOVL      XAR4,ACC              ; [CPU_] |80| 
      79 00000014 8344          MOVL      XAR5,*-SP[4]          ; [CPU_] |80| 
      80 00000015 0210          MOVB      ACC,#16               ; [CPU_] |80| 
      81 00000016 0744          ADDL      ACC,*-SP[4]           ; [CPU_] |80| 
      82 00000017 E2AF          MOV32     R1H,*+XAR4[0]         ; [CPU_] |80| 
         00000018 01C4 
      83 00000019 8AA9          MOVL      XAR4,ACC              ; [CPU_] |80| 
      84 0000001a E2AF          MOV32     R2H,*+XAR5[4]         ; [CPU_] |80| 
         0000001b 02E5 
      85 0000001c E700          MPYF32    R0H,R2H,R0H           ; [CPU_] |80| 
         0000001d 0010 
      86 0000001e 0208          MOVB      ACC,#8                ; [CPU_] |80| 
      87 0000001f E2AF          MOV32     R2H,*+XAR4[0]         ; [CPU_] |80| 
         00000020 02C4 
      88              
      89                      MOV32     R1H,*+XAR5[6]         ; [CPU_] |80| 
      90 00000021 E312  ||      ADDF32    R0H,R0H,R1H           ; [CPU_] |80| 
         00000022 01F5 
      91              
      92 00000023 E700          MPYF32    R1H,R1H,R2H           ; [CPU_] |80| 
         00000024 0089 
      93 00000025 0744          ADDL      ACC,*-SP[4]           ; [CPU_] |80| 
      94 00000026 E710          ADDF32    R0H,R0H,R1H           ; [CPU_] |80| 
         00000027 0040 
      95 00000028 8AA9          MOVL      XAR4,ACC              ; [CPU_] |80| 
      96 00000029 E203          MOV32     *+XAR4[0],R0H         ; [CPU_] |80| 
         0000002a 00C4 
      97                      .dwpsn  file "../motors/Motor_ctrl.c",line 83,column 2,is_stmt,isa 0
TMS320C2000 Assembler PC v6.4.2 Thu Dec 14 13:36:44 2017

Tools Copyright (c) 1996-2015 Texas Instruments Incorporated
Motor_ctrl.asm                                                       PAGE    3

      98 0000002b 020C          MOVB      ACC,#12               ; [CPU_] |83| 
      99 0000002c 0744          ADDL      ACC,*-SP[4]           ; [CPU_] |83| 
     100 0000002d 8AA9          MOVL      XAR4,ACC              ; [CPU_] |83| 
     101 0000002e 0208          MOVB      ACC,#8                ; [CPU_] |83| 
     102 0000002f 0744          ADDL      ACC,*-SP[4]           ; [CPU_] |83| 
     103 00000030 E2AF          MOV32     R0H,*+XAR4[0]         ; [CPU_] |83| 
         00000031 00C4 
     104 00000032 8AA9          MOVL      XAR4,ACC              ; [CPU_] |83| 
     105 00000033 E2AF          MOV32     R1H,*+XAR4[0]         ; [CPU_] |83| 
         00000034 01C4 
     106 00000035 E694          CMPF32    R1H,R0H               ; [CPU_] |83| 
         00000036 0001 
     107 00000037 AD14          MOVST0    ZF, NF                ; [CPU_] |83| 
     108 00000038 56C3          BF        $C$L1,GEQ             ; [CPU_] |83| 
         00000039 000B 
     109                      ; branchcc occurs ; [] |83| 
     110                      .dwpsn  file "../motors/Motor_ctrl.c",line 84,column 3,is_stmt,isa 0
     111 0000003a 020C          MOVB      ACC,#12               ; [CPU_] |84| 
     112 0000003b 0744          ADDL      ACC,*-SP[4]           ; [CPU_] |84| 
     113 0000003c 8AA9          MOVL      XAR4,ACC              ; [CPU_] |84| 
     114 0000003d C4C4          MOVL      XAR6,*+XAR4[0]        ; [CPU_] |84| 
     115 0000003e 0208          MOVB      ACC,#8                ; [CPU_] |84| 
     116 0000003f 0744          ADDL      ACC,*-SP[4]           ; [CPU_] |84| 
     117 00000040 8AA9          MOVL      XAR4,ACC              ; [CPU_] |84| 
     118 00000041 C2C4          MOVL      *+XAR4[0],XAR6        ; [CPU_] |84| 
     119                      .dwpsn  file "../motors/Motor_ctrl.c",line 85,column 2,is_stmt,isa 0
     120 00000042 6F18          B         $C$L2,UNC             ; [CPU_] |85| 
     121                      ; branch occurs ; [] |85| 
     122 00000043       $C$L1:    
     123                      .dwpsn  file "../motors/Motor_ctrl.c",line 86,column 7,is_stmt,isa 0
     124 00000043 020E          MOVB      ACC,#14               ; [CPU_] |86| 
     125 00000044 0744          ADDL      ACC,*-SP[4]           ; [CPU_] |86| 
     126 00000045 8AA9          MOVL      XAR4,ACC              ; [CPU_] |86| 
     127 00000046 0208          MOVB      ACC,#8                ; [CPU_] |86| 
     128 00000047 E2AF          MOV32     R0H,*+XAR4[0]         ; [CPU_] |86| 
         00000048 00C4 
     129 00000049 0744          ADDL      ACC,*-SP[4]           ; [CPU_] |86| 
     130 0000004a 8AA9          MOVL      XAR4,ACC              ; [CPU_] |86| 
     131 0000004b E2AF          MOV32     R1H,*+XAR4[0]         ; [CPU_] |86| 
         0000004c 01C4 
     132 0000004d E694          CMPF32    R1H,R0H               ; [CPU_] |86| 
         0000004e 0001 
     133 0000004f AD14          MOVST0    ZF, NF                ; [CPU_] |86| 
     134 00000050 56C5          BF        $C$L2,LEQ             ; [CPU_] |86| 
         00000051 000A 
     135                      ; branchcc occurs ; [] |86| 
     136                      .dwpsn  file "../motors/Motor_ctrl.c",line 87,column 3,is_stmt,isa 0
     137 00000052 020E          MOVB      ACC,#14               ; [CPU_] |87| 
     138 00000053 0744          ADDL      ACC,*-SP[4]           ; [CPU_] |87| 
     139 00000054 8AA9          MOVL      XAR4,ACC              ; [CPU_] |87| 
     140 00000055 C4C4          MOVL      XAR6,*+XAR4[0]        ; [CPU_] |87| 
     141 00000056 0208          MOVB      ACC,#8                ; [CPU_] |87| 
     142 00000057 0744          ADDL      ACC,*-SP[4]           ; [CPU_] |87| 
     143 00000058 8AA9          MOVL      XAR4,ACC              ; [CPU_] |87| 
     144 00000059 C2C4          MOVL      *+XAR4[0],XAR6        ; [CPU_] |87| 
TMS320C2000 Assembler PC v6.4.2 Thu Dec 14 13:36:44 2017

Tools Copyright (c) 1996-2015 Texas Instruments Incorporated
Motor_ctrl.asm                                                       PAGE    4

     145 0000005a       $C$L2:    
     146                      .dwpsn  file "../motors/Motor_ctrl.c",line 91,column 2,is_stmt,isa 0
     147 0000005a 8A44          MOVL      XAR4,*-SP[4]          ; [CPU_] |91| 
     148 0000005b 8344          MOVL      XAR5,*-SP[4]          ; [CPU_] |91| 
     149 0000005c 06E4          MOVL      ACC,*+XAR4[4]         ; [CPU_] |91| 
     150 0000005d 1EF5          MOVL      *+XAR5[6],ACC         ; [CPU_] |91| 
     151                      .dwpsn  file "../motors/Motor_ctrl.c",line 92,column 2,is_stmt,isa 0
     152 0000005e 0208          MOVB      ACC,#8                ; [CPU_] |92| 
     153 0000005f 0744          ADDL      ACC,*-SP[4]           ; [CPU_] |92| 
     154 00000060 8AA9          MOVL      XAR4,ACC              ; [CPU_] |92| 
     155 00000061 C4C4          MOVL      XAR6,*+XAR4[0]        ; [CPU_] |92| 
     156 00000062 020A          MOVB      ACC,#10               ; [CPU_] |92| 
     157 00000063 0744          ADDL      ACC,*-SP[4]           ; [CPU_] |92| 
     158 00000064 8AA9          MOVL      XAR4,ACC              ; [CPU_] |92| 
     159 00000065 C2C4          MOVL      *+XAR4[0],XAR6        ; [CPU_] |92| 
     160                      .dwpsn  file "../motors/Motor_ctrl.c",line 93,column 1,is_stmt,isa 0
     161 00000066 FE84          SUBB      SP,#4                 ; [CPU_U] 
     162                      .dwcfi  cfa_offset, -2
     163              $C$DW$6 .dwtag  DW_TAG_TI_branch
     164                      .dwattr $C$DW$6, DW_AT_low_pc(0x00)
     165                      .dwattr $C$DW$6, DW_AT_TI_return
     166 00000067 0006          LRETR     ; [CPU_] 
     167                      ; return occurs ; [] 
     168                      .dwattr $C$DW$3, DW_AT_TI_end_file("../motors/Motor_ctrl.c")
     169                      .dwattr $C$DW$3, DW_AT_TI_end_line(0x5d)
     170                      .dwattr $C$DW$3, DW_AT_TI_end_column(0x01)
     171                      .dwendentry
     172                      .dwendtag $C$DW$3
     173              
     174 00000068               .sect   "ramfuncs"
     175                      .clink
     176                      .global _rateLimiter
     177              
     178              $C$DW$7 .dwtag  DW_TAG_subprogram, DW_AT_name("rateLimiter")
     179                      .dwattr $C$DW$7, DW_AT_low_pc(_rateLimiter)
     180                      .dwattr $C$DW$7, DW_AT_high_pc(0x00)
     181                      .dwattr $C$DW$7, DW_AT_TI_symbol_name("_rateLimiter")
     182                      .dwattr $C$DW$7, DW_AT_external
     183                      .dwattr $C$DW$7, DW_AT_TI_begin_file("../motors/Motor_ctrl.c")
     184                      .dwattr $C$DW$7, DW_AT_TI_begin_line(0x6c)
     185                      .dwattr $C$DW$7, DW_AT_TI_begin_column(0x06)
     186                      .dwattr $C$DW$7, DW_AT_TI_max_frame_size(-8)
     187                      .dwpsn  file "../motors/Motor_ctrl.c",line 108,column 45,is_stmt,address _rateLimiter,isa 0
     188              
     189                      .dwfde $C$DW$CIE, _rateLimiter
     190              $C$DW$8 .dwtag  DW_TAG_formal_parameter, DW_AT_name("rateLim")
     191                      .dwattr $C$DW$8, DW_AT_TI_symbol_name("_rateLim")
     192                      .dwattr $C$DW$8, DW_AT_type(*$C$DW$T$24)
     193                      .dwattr $C$DW$8, DW_AT_location[DW_OP_reg12]
     194              
     195              ;***************************************************************
     196              ;* FNAME: _rateLimiter                  FR SIZE:   6           *
     197              ;*                                                             *
     198              ;* FUNCTION ENVIRONMENT                                        *
     199              ;*                                                             *
TMS320C2000 Assembler PC v6.4.2 Thu Dec 14 13:36:44 2017

Tools Copyright (c) 1996-2015 Texas Instruments Incorporated
Motor_ctrl.asm                                                       PAGE    5

     200              ;* FUNCTION PROPERTIES                                         *
     201              ;*                            2 Parameter,  4 Auto,  0 SOE     *
     202              ;***************************************************************
     203              
     204 00000068       _rateLimiter:
     205                      .dwcfi  cfa_offset, -2
     206                      .dwcfi  save_reg_to_mem, 26, 0
     207 00000068 FE06          ADDB      SP,#6                 ; [CPU_U] 
     208                      .dwcfi  cfa_offset, -8
     209              $C$DW$9 .dwtag  DW_TAG_variable, DW_AT_name("rateLim")
     210                      .dwattr $C$DW$9, DW_AT_TI_symbol_name("_rateLim")
     211                      .dwattr $C$DW$9, DW_AT_type(*$C$DW$T$24)
     212                      .dwattr $C$DW$9, DW_AT_location[DW_OP_breg20 -4]
     213              $C$DW$10        .dwtag  DW_TAG_variable, DW_AT_name("delta")
     214                      .dwattr $C$DW$10, DW_AT_TI_symbol_name("_delta")
     215                      .dwattr $C$DW$10, DW_AT_type(*$C$DW$T$16)
     216                      .dwattr $C$DW$10, DW_AT_location[DW_OP_breg20 -6]
     217 00000069 A844          MOVL      *-SP[4],XAR4          ; [CPU_] |108| 
     218                      .dwpsn  file "../motors/Motor_ctrl.c",line 109,column 14,is_stmt,isa 0
     219 0000006a E590          ZERO      R0H                   ; [CPU_] |109| 
     220 0000006b E203          MOV32     *-SP[6],R0H           ; [CPU_] |109| 
         0000006c 0046 
     221                      .dwpsn  file "../motors/Motor_ctrl.c",line 111,column 2,is_stmt,isa 0
     222 0000006d 8344          MOVL      XAR5,*-SP[4]          ; [CPU_] |111| 
     223 0000006e 06C5          MOVL      ACC,*+XAR5[0]         ; [CPU_] |111| 
     224 0000006f 03D4          SUBL      ACC,*+XAR4[2]         ; [CPU_] |111| 
     225 00000070 BDA9          MOV32     R0H,ACC               ; [CPU_] |111| 
         00000071 0F12 
     226 00000072 7700          NOP       ; [CPU_] 
     227 00000073 7700          NOP       ; [CPU_] 
     228 00000074 7700          NOP       ; [CPU_] 
     229 00000075 7700          NOP       ; [CPU_] 
     230 00000076 E689          I32TOF32  R0H,R0H               ; [CPU_] |111| 
         00000077 0000 
     231 00000078 7700          NOP       ; [CPU_] 
     232 00000079 E203          MOV32     *-SP[6],R0H           ; [CPU_] |111| 
         0000007a 0046 
     233                      .dwpsn  file "../motors/Motor_ctrl.c",line 112,column 2,is_stmt,isa 0
     234 0000007b E68C          F32TOI16  R0H,R0H               ; [CPU_] |112| 
         0000007c 0000 
     235 0000007d 7700          NOP       ; [CPU_] 
     236 0000007e 3B01          SETC      SXM                   ; [CPU_] 
     237 0000007f BFA9          MOV32     ACC,R0H               ; [CPU_] |112| 
         00000080 0F12 
     238 00000081 85A9          MOV       ACC,AL                ; [CPU_] |112| 
     239 00000082 FF56          ABS       ACC                   ; [CPU_] |112| 
     240 00000083 85A9          MOV       ACC,AL                ; [CPU_] |112| 
     241 00000084 0FE4          CMPL      ACC,*+XAR4[4]         ; [CPU_] |112| 
     242 00000085 56C2          BF        $C$L3,GT              ; [CPU_] |112| 
         00000086 0005 
     243                      ; branchcc occurs ; [] |112| 
     244                      .dwpsn  file "../motors/Motor_ctrl.c",line 113,column 3,is_stmt,isa 0
     245 00000087 06C4          MOVL      ACC,*+XAR4[0]         ; [CPU_] |113| 
     246 00000088 1ED5          MOVL      *+XAR5[2],ACC         ; [CPU_] |113| 
     247                      .dwpsn  file "../motors/Motor_ctrl.c",line 114,column 2,is_stmt,isa 0
TMS320C2000 Assembler PC v6.4.2 Thu Dec 14 13:36:44 2017

Tools Copyright (c) 1996-2015 Texas Instruments Incorporated
Motor_ctrl.asm                                                       PAGE    6

     248 00000089 6F12          B         $C$L5,UNC             ; [CPU_] |114| 
     249                      ; branch occurs ; [] |114| 
     250 0000008a       $C$L3:    
     251                      .dwpsn  file "../motors/Motor_ctrl.c",line 114,column 9,is_stmt,isa 0
     252 0000008a E2AF          MOV32     R0H,*-SP[6]           ; [CPU_] |114| 
         0000008b 0046 
     253 0000008c E5A0          CMPF32    R0H,#0                ; [CPU_] |114| 
     254 0000008d AD14          MOVST0    ZF, NF                ; [CPU_] |114| 
     255 0000008e 56C5          BF        $C$L4,LEQ             ; [CPU_] |114| 
         0000008f 0006 
     256                      ; branchcc occurs ; [] |114| 
     257                      .dwpsn  file "../motors/Motor_ctrl.c",line 115,column 3,is_stmt,isa 0
     258 00000090 06E5          MOVL      ACC,*+XAR5[4]         ; [CPU_] |115| 
     259 00000091 5601          ADDL      *+XAR4[2],ACC         ; [CPU_] |115| 
         00000092 00D4 
     260                      .dwpsn  file "../motors/Motor_ctrl.c",line 116,column 2,is_stmt,isa 0
     261 00000093 6F08          B         $C$L5,UNC             ; [CPU_] |116| 
     262                      ; branch occurs ; [] |116| 
     263 00000094       $C$L4:    
     264                      .dwpsn  file "../motors/Motor_ctrl.c",line 116,column 9,is_stmt,isa 0
     265 00000094 E5A0          CMPF32    R0H,#0                ; [CPU_] |116| 
     266 00000095 AD14          MOVST0    ZF, NF                ; [CPU_] |116| 
     267 00000096 56C3          BF        $C$L5,GEQ             ; [CPU_] |116| 
         00000097 0005 
     268                      ; branchcc occurs ; [] |116| 
     269                      .dwpsn  file "../motors/Motor_ctrl.c",line 117,column 3,is_stmt,isa 0
     270 00000098 06E4          MOVL      ACC,*+XAR4[4]         ; [CPU_] |117| 
     271 00000099 5641          SUBL      *+XAR5[2],ACC         ; [CPU_] |117| 
         0000009a 00D5 
     272                      .dwpsn  file "../motors/Motor_ctrl.c",line 119,column 1,is_stmt,isa 0
     273 0000009b       $C$L5:    
     274 0000009b FE86          SUBB      SP,#6                 ; [CPU_U] 
     275                      .dwcfi  cfa_offset, -2
     276              $C$DW$11        .dwtag  DW_TAG_TI_branch
     277                      .dwattr $C$DW$11, DW_AT_low_pc(0x00)
     278                      .dwattr $C$DW$11, DW_AT_TI_return
     279 0000009c 0006          LRETR     ; [CPU_] 
     280                      ; return occurs ; [] 
     281                      .dwattr $C$DW$7, DW_AT_TI_end_file("../motors/Motor_ctrl.c")
     282                      .dwattr $C$DW$7, DW_AT_TI_end_line(0x77)
     283                      .dwattr $C$DW$7, DW_AT_TI_end_column(0x01)
     284                      .dwendentry
     285                      .dwendtag $C$DW$7
     286              
     287              
     288              ;***************************************************************
     289              ;* TYPE INFORMATION                                            *
     290              ;***************************************************************
     291              $C$DW$T$2       .dwtag  DW_TAG_unspecified_type
     292                      .dwattr $C$DW$T$2, DW_AT_name("void")
     293              $C$DW$T$4       .dwtag  DW_TAG_base_type
     294                      .dwattr $C$DW$T$4, DW_AT_encoding(DW_ATE_boolean)
     295                      .dwattr $C$DW$T$4, DW_AT_name("bool")
     296                      .dwattr $C$DW$T$4, DW_AT_byte_size(0x01)
     297              $C$DW$T$5       .dwtag  DW_TAG_base_type
TMS320C2000 Assembler PC v6.4.2 Thu Dec 14 13:36:44 2017

Tools Copyright (c) 1996-2015 Texas Instruments Incorporated
Motor_ctrl.asm                                                       PAGE    7

     298                      .dwattr $C$DW$T$5, DW_AT_encoding(DW_ATE_signed_char)
     299                      .dwattr $C$DW$T$5, DW_AT_name("signed char")
     300                      .dwattr $C$DW$T$5, DW_AT_byte_size(0x01)
     301              $C$DW$T$6       .dwtag  DW_TAG_base_type
     302                      .dwattr $C$DW$T$6, DW_AT_encoding(DW_ATE_unsigned_char)
     303                      .dwattr $C$DW$T$6, DW_AT_name("unsigned char")
     304                      .dwattr $C$DW$T$6, DW_AT_byte_size(0x01)
     305              $C$DW$T$7       .dwtag  DW_TAG_base_type
     306                      .dwattr $C$DW$T$7, DW_AT_encoding(DW_ATE_signed_char)
     307                      .dwattr $C$DW$T$7, DW_AT_name("wchar_t")
     308                      .dwattr $C$DW$T$7, DW_AT_byte_size(0x01)
     309              $C$DW$T$8       .dwtag  DW_TAG_base_type
     310                      .dwattr $C$DW$T$8, DW_AT_encoding(DW_ATE_signed)
     311                      .dwattr $C$DW$T$8, DW_AT_name("short")
     312                      .dwattr $C$DW$T$8, DW_AT_byte_size(0x01)
     313              $C$DW$T$9       .dwtag  DW_TAG_base_type
     314                      .dwattr $C$DW$T$9, DW_AT_encoding(DW_ATE_unsigned)
     315                      .dwattr $C$DW$T$9, DW_AT_name("unsigned short")
     316                      .dwattr $C$DW$T$9, DW_AT_byte_size(0x01)
     317              $C$DW$T$10      .dwtag  DW_TAG_base_type
     318                      .dwattr $C$DW$T$10, DW_AT_encoding(DW_ATE_signed)
     319                      .dwattr $C$DW$T$10, DW_AT_name("int")
     320                      .dwattr $C$DW$T$10, DW_AT_byte_size(0x01)
     321              $C$DW$T$11      .dwtag  DW_TAG_base_type
     322                      .dwattr $C$DW$T$11, DW_AT_encoding(DW_ATE_unsigned)
     323                      .dwattr $C$DW$T$11, DW_AT_name("unsigned int")
     324                      .dwattr $C$DW$T$11, DW_AT_byte_size(0x01)
     325              $C$DW$T$12      .dwtag  DW_TAG_base_type
     326                      .dwattr $C$DW$T$12, DW_AT_encoding(DW_ATE_signed)
     327                      .dwattr $C$DW$T$12, DW_AT_name("long")
     328                      .dwattr $C$DW$T$12, DW_AT_byte_size(0x02)
     329              $C$DW$T$20      .dwtag  DW_TAG_typedef, DW_AT_name("_iq15")
     330                      .dwattr $C$DW$T$20, DW_AT_type(*$C$DW$T$12)
     331                      .dwattr $C$DW$T$20, DW_AT_language(DW_LANG_C)
     332              $C$DW$T$13      .dwtag  DW_TAG_base_type
     333                      .dwattr $C$DW$T$13, DW_AT_encoding(DW_ATE_unsigned)
     334                      .dwattr $C$DW$T$13, DW_AT_name("unsigned long")
     335                      .dwattr $C$DW$T$13, DW_AT_byte_size(0x02)
     336              $C$DW$T$14      .dwtag  DW_TAG_base_type
     337                      .dwattr $C$DW$T$14, DW_AT_encoding(DW_ATE_signed)
     338                      .dwattr $C$DW$T$14, DW_AT_name("long long")
     339                      .dwattr $C$DW$T$14, DW_AT_byte_size(0x04)
     340              $C$DW$T$15      .dwtag  DW_TAG_base_type
     341                      .dwattr $C$DW$T$15, DW_AT_encoding(DW_ATE_unsigned)
     342                      .dwattr $C$DW$T$15, DW_AT_name("unsigned long long")
     343                      .dwattr $C$DW$T$15, DW_AT_byte_size(0x04)
     344              $C$DW$T$16      .dwtag  DW_TAG_base_type
     345                      .dwattr $C$DW$T$16, DW_AT_encoding(DW_ATE_float)
     346                      .dwattr $C$DW$T$16, DW_AT_name("float")
     347                      .dwattr $C$DW$T$16, DW_AT_byte_size(0x02)
     348              $C$DW$T$17      .dwtag  DW_TAG_base_type
     349                      .dwattr $C$DW$T$17, DW_AT_encoding(DW_ATE_float)
     350                      .dwattr $C$DW$T$17, DW_AT_name("double")
     351                      .dwattr $C$DW$T$17, DW_AT_byte_size(0x02)
     352              $C$DW$T$18      .dwtag  DW_TAG_base_type
TMS320C2000 Assembler PC v6.4.2 Thu Dec 14 13:36:44 2017

Tools Copyright (c) 1996-2015 Texas Instruments Incorporated
Motor_ctrl.asm                                                       PAGE    8

     353                      .dwattr $C$DW$T$18, DW_AT_encoding(DW_ATE_float)
     354                      .dwattr $C$DW$T$18, DW_AT_name("long double")
     355                      .dwattr $C$DW$T$18, DW_AT_byte_size(0x04)
     356              
     357              $C$DW$T$19      .dwtag  DW_TAG_structure_type
     358                      .dwattr $C$DW$T$19, DW_AT_name("piCtrl_t")
     359                      .dwattr $C$DW$T$19, DW_AT_byte_size(0x14)
     360              $C$DW$12        .dwtag  DW_TAG_member
     361                      .dwattr $C$DW$12, DW_AT_type(*$C$DW$T$16)
     362                      .dwattr $C$DW$12, DW_AT_name("ref")
     363                      .dwattr $C$DW$12, DW_AT_TI_symbol_name("_ref")
     364                      .dwattr $C$DW$12, DW_AT_data_member_location[DW_OP_plus_uconst 0x0]
     365                      .dwattr $C$DW$12, DW_AT_accessibility(DW_ACCESS_public)
     366              $C$DW$13        .dwtag  DW_TAG_member
     367                      .dwattr $C$DW$13, DW_AT_type(*$C$DW$T$16)
     368                      .dwattr $C$DW$13, DW_AT_name("fbk")
     369                      .dwattr $C$DW$13, DW_AT_TI_symbol_name("_fbk")
     370                      .dwattr $C$DW$13, DW_AT_data_member_location[DW_OP_plus_uconst 0x2]
     371                      .dwattr $C$DW$13, DW_AT_accessibility(DW_ACCESS_public)
     372              $C$DW$14        .dwtag  DW_TAG_member
     373                      .dwattr $C$DW$14, DW_AT_type(*$C$DW$T$16)
     374                      .dwattr $C$DW$14, DW_AT_name("e")
     375                      .dwattr $C$DW$14, DW_AT_TI_symbol_name("_e")
     376                      .dwattr $C$DW$14, DW_AT_data_member_location[DW_OP_plus_uconst 0x4]
     377                      .dwattr $C$DW$14, DW_AT_accessibility(DW_ACCESS_public)
     378              $C$DW$15        .dwtag  DW_TAG_member
     379                      .dwattr $C$DW$15, DW_AT_type(*$C$DW$T$16)
     380                      .dwattr $C$DW$15, DW_AT_name("e0")
     381                      .dwattr $C$DW$15, DW_AT_TI_symbol_name("_e0")
     382                      .dwattr $C$DW$15, DW_AT_data_member_location[DW_OP_plus_uconst 0x6]
     383                      .dwattr $C$DW$15, DW_AT_accessibility(DW_ACCESS_public)
     384              $C$DW$16        .dwtag  DW_TAG_member
     385                      .dwattr $C$DW$16, DW_AT_type(*$C$DW$T$16)
     386                      .dwattr $C$DW$16, DW_AT_name("u")
     387                      .dwattr $C$DW$16, DW_AT_TI_symbol_name("_u")
     388                      .dwattr $C$DW$16, DW_AT_data_member_location[DW_OP_plus_uconst 0x8]
     389                      .dwattr $C$DW$16, DW_AT_accessibility(DW_ACCESS_public)
     390              $C$DW$17        .dwtag  DW_TAG_member
     391                      .dwattr $C$DW$17, DW_AT_type(*$C$DW$T$16)
     392                      .dwattr $C$DW$17, DW_AT_name("u0")
     393                      .dwattr $C$DW$17, DW_AT_TI_symbol_name("_u0")
     394                      .dwattr $C$DW$17, DW_AT_data_member_location[DW_OP_plus_uconst 0xa]
     395                      .dwattr $C$DW$17, DW_AT_accessibility(DW_ACCESS_public)
     396              $C$DW$18        .dwtag  DW_TAG_member
     397                      .dwattr $C$DW$18, DW_AT_type(*$C$DW$T$16)
     398                      .dwattr $C$DW$18, DW_AT_name("uMin")
     399                      .dwattr $C$DW$18, DW_AT_TI_symbol_name("_uMin")
     400                      .dwattr $C$DW$18, DW_AT_data_member_location[DW_OP_plus_uconst 0xc]
     401                      .dwattr $C$DW$18, DW_AT_accessibility(DW_ACCESS_public)
     402              $C$DW$19        .dwtag  DW_TAG_member
     403                      .dwattr $C$DW$19, DW_AT_type(*$C$DW$T$16)
     404                      .dwattr $C$DW$19, DW_AT_name("uMax")
     405                      .dwattr $C$DW$19, DW_AT_TI_symbol_name("_uMax")
     406                      .dwattr $C$DW$19, DW_AT_data_member_location[DW_OP_plus_uconst 0xe]
     407                      .dwattr $C$DW$19, DW_AT_accessibility(DW_ACCESS_public)
TMS320C2000 Assembler PC v6.4.2 Thu Dec 14 13:36:44 2017

Tools Copyright (c) 1996-2015 Texas Instruments Incorporated
Motor_ctrl.asm                                                       PAGE    9

     408              $C$DW$20        .dwtag  DW_TAG_member
     409                      .dwattr $C$DW$20, DW_AT_type(*$C$DW$T$16)
     410                      .dwattr $C$DW$20, DW_AT_name("c0")
     411                      .dwattr $C$DW$20, DW_AT_TI_symbol_name("_c0")
     412                      .dwattr $C$DW$20, DW_AT_data_member_location[DW_OP_plus_uconst 0x10]
     413                      .dwattr $C$DW$20, DW_AT_accessibility(DW_ACCESS_public)
     414              $C$DW$21        .dwtag  DW_TAG_member
     415                      .dwattr $C$DW$21, DW_AT_type(*$C$DW$T$16)
     416                      .dwattr $C$DW$21, DW_AT_name("c1")
     417                      .dwattr $C$DW$21, DW_AT_TI_symbol_name("_c1")
     418                      .dwattr $C$DW$21, DW_AT_data_member_location[DW_OP_plus_uconst 0x12]
     419                      .dwattr $C$DW$21, DW_AT_accessibility(DW_ACCESS_public)
     420                      .dwendtag $C$DW$T$19
     421              
     422              $C$DW$T$22      .dwtag  DW_TAG_pointer_type
     423                      .dwattr $C$DW$T$22, DW_AT_type(*$C$DW$T$19)
     424                      .dwattr $C$DW$T$22, DW_AT_address_class(0x20)
     425              
     426              $C$DW$T$21      .dwtag  DW_TAG_structure_type
     427                      .dwattr $C$DW$T$21, DW_AT_name("rateLim_t")
     428                      .dwattr $C$DW$T$21, DW_AT_byte_size(0x06)
     429              $C$DW$22        .dwtag  DW_TAG_member
     430                      .dwattr $C$DW$22, DW_AT_type(*$C$DW$T$20)
     431                      .dwattr $C$DW$22, DW_AT_name("in")
     432                      .dwattr $C$DW$22, DW_AT_TI_symbol_name("_in")
     433                      .dwattr $C$DW$22, DW_AT_data_member_location[DW_OP_plus_uconst 0x0]
     434                      .dwattr $C$DW$22, DW_AT_accessibility(DW_ACCESS_public)
     435              $C$DW$23        .dwtag  DW_TAG_member
     436                      .dwattr $C$DW$23, DW_AT_type(*$C$DW$T$20)
     437                      .dwattr $C$DW$23, DW_AT_name("out")
     438                      .dwattr $C$DW$23, DW_AT_TI_symbol_name("_out")
     439                      .dwattr $C$DW$23, DW_AT_data_member_location[DW_OP_plus_uconst 0x2]
     440                      .dwattr $C$DW$23, DW_AT_accessibility(DW_ACCESS_public)
     441              $C$DW$24        .dwtag  DW_TAG_member
     442                      .dwattr $C$DW$24, DW_AT_type(*$C$DW$T$20)
     443                      .dwattr $C$DW$24, DW_AT_name("slope")
     444                      .dwattr $C$DW$24, DW_AT_TI_symbol_name("_slope")
     445                      .dwattr $C$DW$24, DW_AT_data_member_location[DW_OP_plus_uconst 0x4]
     446                      .dwattr $C$DW$24, DW_AT_accessibility(DW_ACCESS_public)
     447                      .dwendtag $C$DW$T$21
     448              
     449              $C$DW$T$24      .dwtag  DW_TAG_pointer_type
     450                      .dwattr $C$DW$T$24, DW_AT_type(*$C$DW$T$21)
     451                      .dwattr $C$DW$T$24, DW_AT_address_class(0x20)
     452                      .dwattr $C$DW$CU, DW_AT_language(DW_LANG_C)
     453              
     454              ;***************************************************************
     455              ;* DWARF CIE ENTRIES                                           *
     456              ;***************************************************************
     457              
     458              $C$DW$CIE       .dwcie 26
     459                      .dwcfi  cfa_register, 20
     460                      .dwcfi  cfa_offset, 0
     461                      .dwcfi  undefined, 0
     462                      .dwcfi  undefined, 1
TMS320C2000 Assembler PC v6.4.2 Thu Dec 14 13:36:44 2017

Tools Copyright (c) 1996-2015 Texas Instruments Incorporated
Motor_ctrl.asm                                                       PAGE   10

     463                      .dwcfi  undefined, 2
     464                      .dwcfi  undefined, 3
     465                      .dwcfi  undefined, 20
     466                      .dwcfi  undefined, 21
     467                      .dwcfi  undefined, 22
     468                      .dwcfi  undefined, 23
     469                      .dwcfi  undefined, 24
     470                      .dwcfi  undefined, 25
     471                      .dwcfi  undefined, 26
     472                      .dwcfi  same_value, 28
     473                      .dwcfi  undefined, 29
     474                      .dwcfi  undefined, 30
     475                      .dwcfi  undefined, 31
     476                      .dwcfi  undefined, 32
     477                      .dwcfi  undefined, 33
     478                      .dwcfi  undefined, 34
     479                      .dwcfi  undefined, 35
     480                      .dwcfi  undefined, 36
     481                      .dwcfi  undefined, 37
     482                      .dwcfi  undefined, 38
     483                      .dwcfi  undefined, 75
     484                      .dwcfi  undefined, 76
     485                      .dwcfi  undefined, 77
     486                      .dwcfi  undefined, 4
     487                      .dwcfi  undefined, 5
     488                      .dwcfi  same_value, 6
     489                      .dwcfi  same_value, 7
     490                      .dwcfi  same_value, 8
     491                      .dwcfi  same_value, 9
     492                      .dwcfi  same_value, 10
     493                      .dwcfi  same_value, 11
     494                      .dwcfi  undefined, 12
     495                      .dwcfi  undefined, 13
     496                      .dwcfi  undefined, 14
     497                      .dwcfi  undefined, 15
     498                      .dwcfi  undefined, 16
     499                      .dwcfi  undefined, 17
     500                      .dwcfi  undefined, 18
     501                      .dwcfi  undefined, 19
     502                      .dwcfi  undefined, 43
     503                      .dwcfi  undefined, 44
     504                      .dwcfi  undefined, 47
     505                      .dwcfi  undefined, 48
     506                      .dwcfi  undefined, 51
     507                      .dwcfi  undefined, 52
     508                      .dwcfi  undefined, 55
     509                      .dwcfi  undefined, 56
     510                      .dwcfi  same_value, 59
     511                      .dwcfi  same_value, 60
     512                      .dwcfi  same_value, 63
     513                      .dwcfi  same_value, 64
     514                      .dwcfi  same_value, 67
     515                      .dwcfi  same_value, 68
     516                      .dwcfi  same_value, 71
     517                      .dwcfi  same_value, 72
TMS320C2000 Assembler PC v6.4.2 Thu Dec 14 13:36:44 2017

Tools Copyright (c) 1996-2015 Texas Instruments Incorporated
Motor_ctrl.asm                                                       PAGE   11

     518                      .dwcfi  undefined, 73
     519                      .dwcfi  undefined, 74
     520                      .dwcfi  undefined, 39
     521                      .dwcfi  undefined, 40
     522                      .dwcfi  undefined, 27
     523                      .dwendentry
     524              
     525              ;***************************************************************
     526              ;* DWARF REGISTER MAP                                          *
     527              ;***************************************************************
     528              
     529              $C$DW$25        .dwtag  DW_TAG_TI_assign_register, DW_AT_name("AL")
     530                      .dwattr $C$DW$25, DW_AT_location[DW_OP_reg0]
     531              $C$DW$26        .dwtag  DW_TAG_TI_assign_register, DW_AT_name("AH")
     532                      .dwattr $C$DW$26, DW_AT_location[DW_OP_reg1]
     533              $C$DW$27        .dwtag  DW_TAG_TI_assign_register, DW_AT_name("PL")
     534                      .dwattr $C$DW$27, DW_AT_location[DW_OP_reg2]
     535              $C$DW$28        .dwtag  DW_TAG_TI_assign_register, DW_AT_name("PH")
     536                      .dwattr $C$DW$28, DW_AT_location[DW_OP_reg3]
     537              $C$DW$29        .dwtag  DW_TAG_TI_assign_register, DW_AT_name("SP")
     538                      .dwattr $C$DW$29, DW_AT_location[DW_OP_reg20]
     539              $C$DW$30        .dwtag  DW_TAG_TI_assign_register, DW_AT_name("XT")
     540                      .dwattr $C$DW$30, DW_AT_location[DW_OP_reg21]
     541              $C$DW$31        .dwtag  DW_TAG_TI_assign_register, DW_AT_name("T")
     542                      .dwattr $C$DW$31, DW_AT_location[DW_OP_reg22]
     543              $C$DW$32        .dwtag  DW_TAG_TI_assign_register, DW_AT_name("ST0")
     544                      .dwattr $C$DW$32, DW_AT_location[DW_OP_reg23]
     545              $C$DW$33        .dwtag  DW_TAG_TI_assign_register, DW_AT_name("ST1")
     546                      .dwattr $C$DW$33, DW_AT_location[DW_OP_reg24]
     547              $C$DW$34        .dwtag  DW_TAG_TI_assign_register, DW_AT_name("PC")
     548                      .dwattr $C$DW$34, DW_AT_location[DW_OP_reg25]
     549              $C$DW$35        .dwtag  DW_TAG_TI_assign_register, DW_AT_name("RPC")
     550                      .dwattr $C$DW$35, DW_AT_location[DW_OP_reg26]
     551              $C$DW$36        .dwtag  DW_TAG_TI_assign_register, DW_AT_name("FP")
     552                      .dwattr $C$DW$36, DW_AT_location[DW_OP_reg28]
     553              $C$DW$37        .dwtag  DW_TAG_TI_assign_register, DW_AT_name("DP")
     554                      .dwattr $C$DW$37, DW_AT_location[DW_OP_reg29]
     555              $C$DW$38        .dwtag  DW_TAG_TI_assign_register, DW_AT_name("SXM")
     556                      .dwattr $C$DW$38, DW_AT_location[DW_OP_reg30]
     557              $C$DW$39        .dwtag  DW_TAG_TI_assign_register, DW_AT_name("PM")
     558                      .dwattr $C$DW$39, DW_AT_location[DW_OP_reg31]
     559              $C$DW$40        .dwtag  DW_TAG_TI_assign_register, DW_AT_name("OVM")
     560                      .dwattr $C$DW$40, DW_AT_location[DW_OP_regx 0x20]
     561              $C$DW$41        .dwtag  DW_TAG_TI_assign_register, DW_AT_name("PAGE0")
     562                      .dwattr $C$DW$41, DW_AT_location[DW_OP_regx 0x21]
     563              $C$DW$42        .dwtag  DW_TAG_TI_assign_register, DW_AT_name("AMODE")
     564                      .dwattr $C$DW$42, DW_AT_location[DW_OP_regx 0x22]
     565              $C$DW$43        .dwtag  DW_TAG_TI_assign_register, DW_AT_name("INTM")
     566                      .dwattr $C$DW$43, DW_AT_location[DW_OP_regx 0x23]
     567              $C$DW$44        .dwtag  DW_TAG_TI_assign_register, DW_AT_name("IFR")
     568                      .dwattr $C$DW$44, DW_AT_location[DW_OP_regx 0x24]
     569              $C$DW$45        .dwtag  DW_TAG_TI_assign_register, DW_AT_name("IER")
     570                      .dwattr $C$DW$45, DW_AT_location[DW_OP_regx 0x25]
     571              $C$DW$46        .dwtag  DW_TAG_TI_assign_register, DW_AT_name("V")
     572                      .dwattr $C$DW$46, DW_AT_location[DW_OP_regx 0x26]
TMS320C2000 Assembler PC v6.4.2 Thu Dec 14 13:36:44 2017

Tools Copyright (c) 1996-2015 Texas Instruments Incorporated
Motor_ctrl.asm                                                       PAGE   12

     573              $C$DW$47        .dwtag  DW_TAG_TI_assign_register, DW_AT_name("PSEUDOH")
     574                      .dwattr $C$DW$47, DW_AT_location[DW_OP_regx 0x4c]
     575              $C$DW$48        .dwtag  DW_TAG_TI_assign_register, DW_AT_name("VOL")
     576                      .dwattr $C$DW$48, DW_AT_location[DW_OP_regx 0x4d]
     577              $C$DW$49        .dwtag  DW_TAG_TI_assign_register, DW_AT_name("AR0")
     578                      .dwattr $C$DW$49, DW_AT_location[DW_OP_reg4]
     579              $C$DW$50        .dwtag  DW_TAG_TI_assign_register, DW_AT_name("XAR0")
     580                      .dwattr $C$DW$50, DW_AT_location[DW_OP_reg5]
     581              $C$DW$51        .dwtag  DW_TAG_TI_assign_register, DW_AT_name("AR1")
     582                      .dwattr $C$DW$51, DW_AT_location[DW_OP_reg6]
     583              $C$DW$52        .dwtag  DW_TAG_TI_assign_register, DW_AT_name("XAR1")
     584                      .dwattr $C$DW$52, DW_AT_location[DW_OP_reg7]
     585              $C$DW$53        .dwtag  DW_TAG_TI_assign_register, DW_AT_name("AR2")
     586                      .dwattr $C$DW$53, DW_AT_location[DW_OP_reg8]
     587              $C$DW$54        .dwtag  DW_TAG_TI_assign_register, DW_AT_name("XAR2")
     588                      .dwattr $C$DW$54, DW_AT_location[DW_OP_reg9]
     589              $C$DW$55        .dwtag  DW_TAG_TI_assign_register, DW_AT_name("AR3")
     590                      .dwattr $C$DW$55, DW_AT_location[DW_OP_reg10]
     591              $C$DW$56        .dwtag  DW_TAG_TI_assign_register, DW_AT_name("XAR3")
     592                      .dwattr $C$DW$56, DW_AT_location[DW_OP_reg11]
     593              $C$DW$57        .dwtag  DW_TAG_TI_assign_register, DW_AT_name("AR4")
     594                      .dwattr $C$DW$57, DW_AT_location[DW_OP_reg12]
     595              $C$DW$58        .dwtag  DW_TAG_TI_assign_register, DW_AT_name("XAR4")
     596                      .dwattr $C$DW$58, DW_AT_location[DW_OP_reg13]
     597              $C$DW$59        .dwtag  DW_TAG_TI_assign_register, DW_AT_name("AR5")
     598                      .dwattr $C$DW$59, DW_AT_location[DW_OP_reg14]
     599              $C$DW$60        .dwtag  DW_TAG_TI_assign_register, DW_AT_name("XAR5")
     600                      .dwattr $C$DW$60, DW_AT_location[DW_OP_reg15]
     601              $C$DW$61        .dwtag  DW_TAG_TI_assign_register, DW_AT_name("AR6")
     602                      .dwattr $C$DW$61, DW_AT_location[DW_OP_reg16]
     603              $C$DW$62        .dwtag  DW_TAG_TI_assign_register, DW_AT_name("XAR6")
     604                      .dwattr $C$DW$62, DW_AT_location[DW_OP_reg17]
     605              $C$DW$63        .dwtag  DW_TAG_TI_assign_register, DW_AT_name("AR7")
     606                      .dwattr $C$DW$63, DW_AT_location[DW_OP_reg18]
     607              $C$DW$64        .dwtag  DW_TAG_TI_assign_register, DW_AT_name("XAR7")
     608                      .dwattr $C$DW$64, DW_AT_location[DW_OP_reg19]
     609              $C$DW$65        .dwtag  DW_TAG_TI_assign_register, DW_AT_name("R0HL")
     610                      .dwattr $C$DW$65, DW_AT_location[DW_OP_regx 0x2b]
     611              $C$DW$66        .dwtag  DW_TAG_TI_assign_register, DW_AT_name("R0H")
     612                      .dwattr $C$DW$66, DW_AT_location[DW_OP_regx 0x2c]
     613              $C$DW$67        .dwtag  DW_TAG_TI_assign_register, DW_AT_name("R1HL")
     614                      .dwattr $C$DW$67, DW_AT_location[DW_OP_regx 0x2f]
     615              $C$DW$68        .dwtag  DW_TAG_TI_assign_register, DW_AT_name("R1H")
     616                      .dwattr $C$DW$68, DW_AT_location[DW_OP_regx 0x30]
     617              $C$DW$69        .dwtag  DW_TAG_TI_assign_register, DW_AT_name("R2HL")
     618                      .dwattr $C$DW$69, DW_AT_location[DW_OP_regx 0x33]
     619              $C$DW$70        .dwtag  DW_TAG_TI_assign_register, DW_AT_name("R2H")
     620                      .dwattr $C$DW$70, DW_AT_location[DW_OP_regx 0x34]
     621              $C$DW$71        .dwtag  DW_TAG_TI_assign_register, DW_AT_name("R3HL")
     622                      .dwattr $C$DW$71, DW_AT_location[DW_OP_regx 0x37]
     623              $C$DW$72        .dwtag  DW_TAG_TI_assign_register, DW_AT_name("R3H")
     624                      .dwattr $C$DW$72, DW_AT_location[DW_OP_regx 0x38]
     625              $C$DW$73        .dwtag  DW_TAG_TI_assign_register, DW_AT_name("R4HL")
     626                      .dwattr $C$DW$73, DW_AT_location[DW_OP_regx 0x3b]
     627              $C$DW$74        .dwtag  DW_TAG_TI_assign_register, DW_AT_name("R4H")
TMS320C2000 Assembler PC v6.4.2 Thu Dec 14 13:36:44 2017

Tools Copyright (c) 1996-2015 Texas Instruments Incorporated
Motor_ctrl.asm                                                       PAGE   13

     628                      .dwattr $C$DW$74, DW_AT_location[DW_OP_regx 0x3c]
     629              $C$DW$75        .dwtag  DW_TAG_TI_assign_register, DW_AT_name("R5HL")
     630                      .dwattr $C$DW$75, DW_AT_location[DW_OP_regx 0x3f]
     631              $C$DW$76        .dwtag  DW_TAG_TI_assign_register, DW_AT_name("R5H")
     632                      .dwattr $C$DW$76, DW_AT_location[DW_OP_regx 0x40]
     633              $C$DW$77        .dwtag  DW_TAG_TI_assign_register, DW_AT_name("R6HL")
     634                      .dwattr $C$DW$77, DW_AT_location[DW_OP_regx 0x43]
     635              $C$DW$78        .dwtag  DW_TAG_TI_assign_register, DW_AT_name("R6H")
     636                      .dwattr $C$DW$78, DW_AT_location[DW_OP_regx 0x44]
     637              $C$DW$79        .dwtag  DW_TAG_TI_assign_register, DW_AT_name("R7HL")
     638                      .dwattr $C$DW$79, DW_AT_location[DW_OP_regx 0x47]
     639              $C$DW$80        .dwtag  DW_TAG_TI_assign_register, DW_AT_name("R7H")
     640                      .dwattr $C$DW$80, DW_AT_location[DW_OP_regx 0x48]
     641              $C$DW$81        .dwtag  DW_TAG_TI_assign_register, DW_AT_name("RBL")
     642                      .dwattr $C$DW$81, DW_AT_location[DW_OP_regx 0x49]
     643              $C$DW$82        .dwtag  DW_TAG_TI_assign_register, DW_AT_name("RB")
     644                      .dwattr $C$DW$82, DW_AT_location[DW_OP_regx 0x4a]
     645              $C$DW$83        .dwtag  DW_TAG_TI_assign_register, DW_AT_name("STFL")
     646                      .dwattr $C$DW$83, DW_AT_location[DW_OP_regx 0x27]
     647              $C$DW$84        .dwtag  DW_TAG_TI_assign_register, DW_AT_name("STF")
     648                      .dwattr $C$DW$84, DW_AT_location[DW_OP_regx 0x28]
     649              $C$DW$85        .dwtag  DW_TAG_TI_assign_register, DW_AT_name("FPUHAZ")
     650                      .dwattr $C$DW$85, DW_AT_location[DW_OP_reg27]
     651                      .dwendtag $C$DW$CU
     652              

No Assembly Errors, No Assembly Warnings
